$ fq -d wasm dv simd_load_extend-0.wasm
     |00 01 02 03 04 05 06 07 08 09 0a 0b 0c 0d 0e 0f|0123456789abcdef|.{}: simd_load_extend-0.wasm (wasm) 0x0-0x793 (1939)
0x000|00 61 73 6d                                    |.asm            |  magic: raw bits (valid) 0x0-0x4 (4)
0x000|            01 00 00 00                        |    ....        |  version: 1 0x4-0x8 (4)
     |                                               |                |  sections[0:6]: 0x8-0x793 (1931)
     |                                               |                |    [0]{}: section 0x8-0x14 (12)
0x000|                        01                     |        .       |      id: "type_section" (1) 0x8-0x9 (1)
0x000|                           0a                  |         .      |      size: 10 (valid) 0x9-0xa (1)
     |                                               |                |      content{}: 0xa-0x14 (10)
     |                                               |                |        ft{}: 0xa-0x14 (10)
0x000|                              02               |          .     |          n: 2 (valid) 0xa-0xb (1)
     |                                               |                |          x[0:2]: 0xb-0x14 (9)
     |                                               |                |            [0]{}: ft 0xb-0x10 (5)
0x000|                                 60            |           `    |              tag: 0x60 (valid) 0xb-0xc (1)
     |                                               |                |              rt1{}: 0xc-0xe (2)
0x000|                                    01         |            .   |                n: 1 (valid) 0xc-0xd (1)
     |                                               |                |                x[0:1]: 0xd-0xe (1)
0x000|                                       7f      |             .  |                  [0]: "i32" (0x7f) t 0xd-0xe (1)
     |                                               |                |              rt2{}: 0xe-0x10 (2)
0x000|                                          01   |              . |                n: 1 (valid) 0xe-0xf (1)
     |                                               |                |                x[0:1]: 0xf-0x10 (1)
0x000|                                             7b|               {|                  [0]: "v128" (0x7b) t 0xf-0x10 (1)
     |                                               |                |            [1]{}: ft 0x10-0x14 (4)
0x010|60                                             |`               |              tag: 0x60 (valid) 0x10-0x11 (1)
     |                                               |                |              rt1{}: 0x11-0x12 (1)
0x010|   00                                          | .              |                n: 0 (valid) 0x11-0x12 (1)
     |                                               |                |                x[0:0]: 0x12-0x12 (0)
     |                                               |                |              rt2{}: 0x12-0x14 (2)
0x010|      01                                       |  .             |                n: 1 (valid) 0x12-0x13 (1)
     |                                               |                |                x[0:1]: 0x13-0x14 (1)
0x010|         7b                                    |   {            |                  [0]: "v128" (0x7b) t 0x13-0x14 (1)
     |                                               |                |    [1]{}: section 0x14-0x47 (51)
0x010|            03                                 |    .           |      id: "function_section" (3) 0x14-0x15 (1)
0x010|               31                              |     1          |      size: 49 (valid) 0x15-0x16 (1)
     |                                               |                |      content{}: 0x16-0x47 (49)
     |                                               |                |        x{}: 0x16-0x47 (49)
0x010|                  30                           |      0         |          n: 48 (valid) 0x16-0x17 (1)
     |                                               |                |          x[0:48]: 0x17-0x47 (48)
0x010|                     00                        |       .        |            [0]: 0 x (valid) 0x17-0x18 (1)
0x010|                        00                     |        .       |            [1]: 0 x (valid) 0x18-0x19 (1)
0x010|                           00                  |         .      |            [2]: 0 x (valid) 0x19-0x1a (1)
0x010|                              00               |          .     |            [3]: 0 x (valid) 0x1a-0x1b (1)
0x010|                                 00            |           .    |            [4]: 0 x (valid) 0x1b-0x1c (1)
0x010|                                    00         |            .   |            [5]: 0 x (valid) 0x1c-0x1d (1)
0x010|                                       01      |             .  |            [6]: 1 x (valid) 0x1d-0x1e (1)
0x010|                                          01   |              . |            [7]: 1 x (valid) 0x1e-0x1f (1)
0x010|                                             01|               .|            [8]: 1 x (valid) 0x1f-0x20 (1)
0x020|01                                             |.               |            [9]: 1 x (valid) 0x20-0x21 (1)
0x020|   01                                          | .              |            [10]: 1 x (valid) 0x21-0x22 (1)
0x020|      01                                       |  .             |            [11]: 1 x (valid) 0x22-0x23 (1)
0x020|         00                                    |   .            |            [12]: 0 x (valid) 0x23-0x24 (1)
0x020|            00                                 |    .           |            [13]: 0 x (valid) 0x24-0x25 (1)
0x020|               00                              |     .          |            [14]: 0 x (valid) 0x25-0x26 (1)
0x020|                  00                           |      .         |            [15]: 0 x (valid) 0x26-0x27 (1)
0x020|                     00                        |       .        |            [16]: 0 x (valid) 0x27-0x28 (1)
0x020|                        00                     |        .       |            [17]: 0 x (valid) 0x28-0x29 (1)
0x020|                           00                  |         .      |            [18]: 0 x (valid) 0x29-0x2a (1)
0x020|                              00               |          .     |            [19]: 0 x (valid) 0x2a-0x2b (1)
0x020|                                 00            |           .    |            [20]: 0 x (valid) 0x2b-0x2c (1)
0x020|                                    00         |            .   |            [21]: 0 x (valid) 0x2c-0x2d (1)
0x020|                                       00      |             .  |            [22]: 0 x (valid) 0x2d-0x2e (1)
0x020|                                          00   |              . |            [23]: 0 x (valid) 0x2e-0x2f (1)
0x020|                                             00|               .|            [24]: 0 x (valid) 0x2f-0x30 (1)
0x030|00                                             |.               |            [25]: 0 x (valid) 0x30-0x31 (1)
0x030|   00                                          | .              |            [26]: 0 x (valid) 0x31-0x32 (1)
0x030|      00                                       |  .             |            [27]: 0 x (valid) 0x32-0x33 (1)
0x030|         00                                    |   .            |            [28]: 0 x (valid) 0x33-0x34 (1)
0x030|            00                                 |    .           |            [29]: 0 x (valid) 0x34-0x35 (1)
0x030|               00                              |     .          |            [30]: 0 x (valid) 0x35-0x36 (1)
0x030|                  00                           |      .         |            [31]: 0 x (valid) 0x36-0x37 (1)
0x030|                     00                        |       .        |            [32]: 0 x (valid) 0x37-0x38 (1)
0x030|                        00                     |        .       |            [33]: 0 x (valid) 0x38-0x39 (1)
0x030|                           00                  |         .      |            [34]: 0 x (valid) 0x39-0x3a (1)
0x030|                              00               |          .     |            [35]: 0 x (valid) 0x3a-0x3b (1)
0x030|                                 00            |           .    |            [36]: 0 x (valid) 0x3b-0x3c (1)
0x030|                                    00         |            .   |            [37]: 0 x (valid) 0x3c-0x3d (1)
0x030|                                       00      |             .  |            [38]: 0 x (valid) 0x3d-0x3e (1)
0x030|                                          00   |              . |            [39]: 0 x (valid) 0x3e-0x3f (1)
0x030|                                             00|               .|            [40]: 0 x (valid) 0x3f-0x40 (1)
0x040|00                                             |.               |            [41]: 0 x (valid) 0x40-0x41 (1)
0x040|   00                                          | .              |            [42]: 0 x (valid) 0x41-0x42 (1)
0x040|      00                                       |  .             |            [43]: 0 x (valid) 0x42-0x43 (1)
0x040|         00                                    |   .            |            [44]: 0 x (valid) 0x43-0x44 (1)
0x040|            00                                 |    .           |            [45]: 0 x (valid) 0x44-0x45 (1)
0x040|               00                              |     .          |            [46]: 0 x (valid) 0x45-0x46 (1)
0x040|                  00                           |      .         |            [47]: 0 x (valid) 0x46-0x47 (1)
     |                                               |                |    [2]{}: section 0x47-0x4c (5)
0x040|                     05                        |       .        |      id: "memory_section" (5) 0x47-0x48 (1)
0x040|                        03                     |        .       |      size: 3 (valid) 0x48-0x49 (1)
     |                                               |                |      content{}: 0x49-0x4c (3)
     |                                               |                |        mem{}: 0x49-0x4c (3)
0x040|                           01                  |         .      |          n: 1 (valid) 0x49-0x4a (1)
     |                                               |                |          x[0:1]: 0x4a-0x4c (2)
     |                                               |                |            [0]{}: mem 0x4a-0x4c (2)
     |                                               |                |              lim{}: 0x4a-0x4c (2)
0x040|                              00               |          .     |                tag: 0x0 0x4a-0x4b (1)
0x040|                                 01            |           .    |                n: 1 (valid) 0x4b-0x4c (1)
     |                                               |                |    [3]{}: section 0x4c-0x5a2 (1366)
0x040|                                    07         |            .   |      id: "export_section" (7) 0x4c-0x4d (1)
0x040|                                       d3 0a   |             .. |      size: 1363 (valid) 0x4d-0x4f (2)
     |                                               |                |      content{}: 0x4f-0x5a2 (1363)
     |                                               |                |        ex{}: 0x4f-0x5a2 (1363)
0x040|                                             30|               0|          n: 48 (valid) 0x4f-0x50 (1)
     |                                               |                |          x[0:48]: 0x50-0x5a2 (1362)
     |                                               |                |            [0]{}: ex 0x50-0x61 (17)
     |                                               |                |              nm{}: 0x50-0x5f (15)
0x050|0e                                             |.               |                n: 14 (valid) 0x50-0x51 (1)
0x050|   76 31 32 38 2e 6c 6f 61 64 38 78 38 5f 73   | v128.load8x8_s |                b: "v128.load8x8_s" 0x51-0x5f (14)
     |                                               |                |              d{}: 0x5f-0x61 (2)
0x050|                                             00|               .|                tag: "funcidx" (0x0) 0x5f-0x60 (1)
0x060|00                                             |.               |                x: 0 (valid) 0x60-0x61 (1)
     |                                               |                |            [1]{}: ex 0x61-0x72 (17)
     |                                               |                |              nm{}: 0x61-0x70 (15)
0x060|   0e                                          | .              |                n: 14 (valid) 0x61-0x62 (1)
0x060|      76 31 32 38 2e 6c 6f 61 64 38 78 38 5f 75|  v128.load8x8_u|                b: "v128.load8x8_u" 0x62-0x70 (14)
     |                                               |                |              d{}: 0x70-0x72 (2)
0x070|00                                             |.               |                tag: "funcidx" (0x0) 0x70-0x71 (1)
0x070|   01                                          | .              |                x: 1 (valid) 0x71-0x72 (1)
     |                                               |                |            [2]{}: ex 0x72-0x84 (18)
     |                                               |                |              nm{}: 0x72-0x82 (16)
0x070|      0f                                       |  .             |                n: 15 (valid) 0x72-0x73 (1)
0x070|         76 31 32 38 2e 6c 6f 61 64 31 36 78 34|   v128.load16x4|                b: "v128.load16x4_s" 0x73-0x82 (15)
0x080|5f 73                                          |_s              |
     |                                               |                |              d{}: 0x82-0x84 (2)
0x080|      00                                       |  .             |                tag: "funcidx" (0x0) 0x82-0x83 (1)
0x080|         02                                    |   .            |                x: 2 (valid) 0x83-0x84 (1)
     |                                               |                |            [3]{}: ex 0x84-0x96 (18)
     |                                               |                |              nm{}: 0x84-0x94 (16)
0x080|            0f                                 |    .           |                n: 15 (valid) 0x84-0x85 (1)
0x080|               76 31 32 38 2e 6c 6f 61 64 31 36|     v128.load16|                b: "v128.load16x4_u" 0x85-0x94 (15)
0x090|78 34 5f 75                                    |x4_u            |
     |                                               |                |              d{}: 0x94-0x96 (2)
0x090|            00                                 |    .           |                tag: "funcidx" (0x0) 0x94-0x95 (1)
0x090|               03                              |     .          |                x: 3 (valid) 0x95-0x96 (1)
     |                                               |                |            [4]{}: ex 0x96-0xa8 (18)
     |                                               |                |              nm{}: 0x96-0xa6 (16)
0x090|                  0f                           |      .         |                n: 15 (valid) 0x96-0x97 (1)
0x090|                     76 31 32 38 2e 6c 6f 61 64|       v128.load|                b: "v128.load32x2_s" 0x97-0xa6 (15)
0x0a0|33 32 78 32 5f 73                              |32x2_s          |
     |                                               |                |              d{}: 0xa6-0xa8 (2)
0x0a0|                  00                           |      .         |                tag: "funcidx" (0x0) 0xa6-0xa7 (1)
0x0a0|                     04                        |       .        |                x: 4 (valid) 0xa7-0xa8 (1)
     |                                               |                |            [5]{}: ex 0xa8-0xba (18)
     |                                               |                |              nm{}: 0xa8-0xb8 (16)
0x0a0|                        0f                     |        .       |                n: 15 (valid) 0xa8-0xa9 (1)
0x0a0|                           76 31 32 38 2e 6c 6f|         v128.lo|                b: "v128.load32x2_u" 0xa9-0xb8 (15)
0x0b0|61 64 33 32 78 32 5f 75                        |ad32x2_u        |
     |                                               |                |              d{}: 0xb8-0xba (2)
0x0b0|                        00                     |        .       |                tag: "funcidx" (0x0) 0xb8-0xb9 (1)
0x0b0|                           05                  |         .      |                x: 5 (valid) 0xb9-0xba (1)
     |                                               |                |            [6]{}: ex 0xba-0xd2 (24)
     |                                               |                |              nm{}: 0xba-0xd0 (22)
0x0b0|                              15               |          .     |                n: 21 (valid) 0xba-0xbb (1)
0x0b0|                                 76 31 32 38 2e|           v128.|                b: "v128.load8x8_s_const0" 0xbb-0xd0 (21)
0x0c0|6c 6f 61 64 38 78 38 5f 73 5f 63 6f 6e 73 74 30|load8x8_s_const0|
     |                                               |                |              d{}: 0xd0-0xd2 (2)
0x0d0|00                                             |.               |                tag: "funcidx" (0x0) 0xd0-0xd1 (1)
0x0d0|   06                                          | .              |                x: 6 (valid) 0xd1-0xd2 (1)
     |                                               |                |            [7]{}: ex 0xd2-0xea (24)
     |                                               |                |              nm{}: 0xd2-0xe8 (22)
0x0d0|      15                                       |  .             |                n: 21 (valid) 0xd2-0xd3 (1)
0x0d0|         76 31 32 38 2e 6c 6f 61 64 38 78 38 5f|   v128.load8x8_|                b: "v128.load8x8_u_const8" 0xd3-0xe8 (21)
0x0e0|75 5f 63 6f 6e 73 74 38                        |u_const8        |
     |                                               |                |              d{}: 0xe8-0xea (2)
0x0e0|                        00                     |        .       |                tag: "funcidx" (0x0) 0xe8-0xe9 (1)
0x0e0|                           07                  |         .      |                x: 7 (valid) 0xe9-0xea (1)
     |                                               |                |            [8]{}: ex 0xea-0x104 (26)
     |                                               |                |              nm{}: 0xea-0x102 (24)
0x0e0|                              17               |          .     |                n: 23 (valid) 0xea-0xeb (1)
0x0e0|                                 76 31 32 38 2e|           v128.|                b: "v128.load16x4_s_const10" 0xeb-0x102 (23)
0x0f0|6c 6f 61 64 31 36 78 34 5f 73 5f 63 6f 6e 73 74|load16x4_s_const|
0x100|31 30                                          |10              |
     |                                               |                |              d{}: 0x102-0x104 (2)
0x100|      00                                       |  .             |                tag: "funcidx" (0x0) 0x102-0x103 (1)
0x100|         08                                    |   .            |                x: 8 (valid) 0x103-0x104 (1)
     |                                               |                |            [9]{}: ex 0x104-0x11e (26)
     |                                               |                |              nm{}: 0x104-0x11c (24)
0x100|            17                                 |    .           |                n: 23 (valid) 0x104-0x105 (1)
0x100|               76 31 32 38 2e 6c 6f 61 64 31 36|     v128.load16|                b: "v128.load16x4_u_const20" 0x105-0x11c (23)
0x110|78 34 5f 75 5f 63 6f 6e 73 74 32 30            |x4_u_const20    |
     |                                               |                |              d{}: 0x11c-0x11e (2)
0x110|                                    00         |            .   |                tag: "funcidx" (0x0) 0x11c-0x11d (1)
0x110|                                       09      |             .  |                x: 9 (valid) 0x11d-0x11e (1)
     |                                               |                |            [10]{}: ex 0x11e-0x13b (29)
     |                                               |                |              nm{}: 0x11e-0x139 (27)
0x110|                                          1a   |              . |                n: 26 (valid) 0x11e-0x11f (1)
0x110|                                             76|               v|                b: "v128.load32x2_s_const65520" 0x11f-0x139 (26)
0x120|31 32 38 2e 6c 6f 61 64 33 32 78 32 5f 73 5f 63|128.load32x2_s_c|
0x130|6f 6e 73 74 36 35 35 32 30                     |onst65520       |
     |                                               |                |              d{}: 0x139-0x13b (2)
0x130|                           00                  |         .      |                tag: "funcidx" (0x0) 0x139-0x13a (1)
0x130|                              0a               |          .     |                x: 10 (valid) 0x13a-0x13b (1)
     |                                               |                |            [11]{}: ex 0x13b-0x158 (29)
     |                                               |                |              nm{}: 0x13b-0x156 (27)
0x130|                                 1a            |           .    |                n: 26 (valid) 0x13b-0x13c (1)
0x130|                                    76 31 32 38|            v128|                b: "v128.load32x2_u_const65526" 0x13c-0x156 (26)
0x140|2e 6c 6f 61 64 33 32 78 32 5f 75 5f 63 6f 6e 73|.load32x2_u_cons|
0x150|74 36 35 35 32 36                              |t65526          |
     |                                               |                |              d{}: 0x156-0x158 (2)
0x150|                  00                           |      .         |                tag: "funcidx" (0x0) 0x156-0x157 (1)
0x150|                     0b                        |       .        |                x: 11 (valid) 0x157-0x158 (1)
     |                                               |                |            [12]{}: ex 0x158-0x171 (25)
     |                                               |                |              nm{}: 0x158-0x16f (23)
0x150|                        16                     |        .       |                n: 22 (valid) 0x158-0x159 (1)
0x150|                           76 31 32 38 2e 6c 6f|         v128.lo|                b: "v128.load8x8_s_offset0" 0x159-0x16f (22)
0x160|61 64 38 78 38 5f 73 5f 6f 66 66 73 65 74 30   |ad8x8_s_offset0 |
     |                                               |                |              d{}: 0x16f-0x171 (2)
0x160|                                             00|               .|                tag: "funcidx" (0x0) 0x16f-0x170 (1)
0x170|0c                                             |.               |                x: 12 (valid) 0x170-0x171 (1)
     |                                               |                |            [13]{}: ex 0x171-0x189 (24)
     |                                               |                |              nm{}: 0x171-0x187 (22)
0x170|   15                                          | .              |                n: 21 (valid) 0x171-0x172 (1)
0x170|      76 31 32 38 2e 6c 6f 61 64 38 78 38 5f 73|  v128.load8x8_s|                b: "v128.load8x8_s_align1" 0x172-0x187 (21)
0x180|5f 61 6c 69 67 6e 31                           |_align1         |
     |                                               |                |              d{}: 0x187-0x189 (2)
0x180|                     00                        |       .        |                tag: "funcidx" (0x0) 0x187-0x188 (1)
0x180|                        0d                     |        .       |                x: 13 (valid) 0x188-0x189 (1)
     |                                               |                |            [14]{}: ex 0x189-0x1a9 (32)
     |                                               |                |              nm{}: 0x189-0x1a7 (30)
0x180|                           1d                  |         .      |                n: 29 (valid) 0x189-0x18a (1)
0x180|                              76 31 32 38 2e 6c|          v128.l|                b: "v128.load8x8_s_offset0_align1" 0x18a-0x1a7 (29)
0x190|6f 61 64 38 78 38 5f 73 5f 6f 66 66 73 65 74 30|oad8x8_s_offset0|
0x1a0|5f 61 6c 69 67 6e 31                           |_align1         |
     |                                               |                |              d{}: 0x1a7-0x1a9 (2)
0x1a0|                     00                        |       .        |                tag: "funcidx" (0x0) 0x1a7-0x1a8 (1)
0x1a0|                        0e                     |        .       |                x: 14 (valid) 0x1a8-0x1a9 (1)
     |                                               |                |            [15]{}: ex 0x1a9-0x1c9 (32)
     |                                               |                |              nm{}: 0x1a9-0x1c7 (30)
0x1a0|                           1d                  |         .      |                n: 29 (valid) 0x1a9-0x1aa (1)
0x1a0|                              76 31 32 38 2e 6c|          v128.l|                b: "v128.load8x8_s_offset1_align1" 0x1aa-0x1c7 (29)
0x1b0|6f 61 64 38 78 38 5f 73 5f 6f 66 66 73 65 74 31|oad8x8_s_offset1|
0x1c0|5f 61 6c 69 67 6e 31                           |_align1         |
     |                                               |                |              d{}: 0x1c7-0x1c9 (2)
0x1c0|                     00                        |       .        |                tag: "funcidx" (0x0) 0x1c7-0x1c8 (1)
0x1c0|                        0f                     |        .       |                x: 15 (valid) 0x1c8-0x1c9 (1)
     |                                               |                |            [16]{}: ex 0x1c9-0x1ea (33)
     |                                               |                |              nm{}: 0x1c9-0x1e8 (31)
0x1c0|                           1e                  |         .      |                n: 30 (valid) 0x1c9-0x1ca (1)
0x1c0|                              76 31 32 38 2e 6c|          v128.l|                b: "v128.load8x8_s_offset10_align4" 0x1ca-0x1e8 (30)
0x1d0|6f 61 64 38 78 38 5f 73 5f 6f 66 66 73 65 74 31|oad8x8_s_offset1|
0x1e0|30 5f 61 6c 69 67 6e 34                        |0_align4        |
     |                                               |                |              d{}: 0x1e8-0x1ea (2)
0x1e0|                        00                     |        .       |                tag: "funcidx" (0x0) 0x1e8-0x1e9 (1)
0x1e0|                           10                  |         .      |                x: 16 (valid) 0x1e9-0x1ea (1)
     |                                               |                |            [17]{}: ex 0x1ea-0x20b (33)
     |                                               |                |              nm{}: 0x1ea-0x209 (31)
0x1e0|                              1e               |          .     |                n: 30 (valid) 0x1ea-0x1eb (1)
0x1e0|                                 76 31 32 38 2e|           v128.|                b: "v128.load8x8_s_offset20_align8" 0x1eb-0x209 (30)
0x1f0|6c 6f 61 64 38 78 38 5f 73 5f 6f 66 66 73 65 74|load8x8_s_offset|
0x200|32 30 5f 61 6c 69 67 6e 38                     |20_align8       |
     |                                               |                |              d{}: 0x209-0x20b (2)
0x200|                           00                  |         .      |                tag: "funcidx" (0x0) 0x209-0x20a (1)
0x200|                              11               |          .     |                x: 17 (valid) 0x20a-0x20b (1)
     |                                               |                |            [18]{}: ex 0x20b-0x224 (25)
     |                                               |                |              nm{}: 0x20b-0x222 (23)
0x200|                                 16            |           .    |                n: 22 (valid) 0x20b-0x20c (1)
0x200|                                    76 31 32 38|            v128|                b: "v128.load8x8_u_offset0" 0x20c-0x222 (22)
0x210|2e 6c 6f 61 64 38 78 38 5f 75 5f 6f 66 66 73 65|.load8x8_u_offse|
0x220|74 30                                          |t0              |
     |                                               |                |              d{}: 0x222-0x224 (2)
0x220|      00                                       |  .             |                tag: "funcidx" (0x0) 0x222-0x223 (1)
0x220|         12                                    |   .            |                x: 18 (valid) 0x223-0x224 (1)
     |                                               |                |            [19]{}: ex 0x224-0x23c (24)
     |                                               |                |              nm{}: 0x224-0x23a (22)
0x220|            15                                 |    .           |                n: 21 (valid) 0x224-0x225 (1)
0x220|               76 31 32 38 2e 6c 6f 61 64 38 78|     v128.load8x|                b: "v128.load8x8_u_align1" 0x225-0x23a (21)
0x230|38 5f 75 5f 61 6c 69 67 6e 31                  |8_u_align1      |
     |                                               |                |              d{}: 0x23a-0x23c (2)
0x230|                              00               |          .     |                tag: "funcidx" (0x0) 0x23a-0x23b (1)
0x230|                                 13            |           .    |                x: 19 (valid) 0x23b-0x23c (1)
     |                                               |                |            [20]{}: ex 0x23c-0x25c (32)
     |                                               |                |              nm{}: 0x23c-0x25a (30)
0x230|                                    1d         |            .   |                n: 29 (valid) 0x23c-0x23d (1)
0x230|                                       76 31 32|             v12|                b: "v128.load8x8_u_offset0_align1" 0x23d-0x25a (29)
0x240|38 2e 6c 6f 61 64 38 78 38 5f 75 5f 6f 66 66 73|8.load8x8_u_offs|
0x250|65 74 30 5f 61 6c 69 67 6e 31                  |et0_align1      |
     |                                               |                |              d{}: 0x25a-0x25c (2)
0x250|                              00               |          .     |                tag: "funcidx" (0x0) 0x25a-0x25b (1)
0x250|                                 14            |           .    |                x: 20 (valid) 0x25b-0x25c (1)
     |                                               |                |            [21]{}: ex 0x25c-0x27c (32)
     |                                               |                |              nm{}: 0x25c-0x27a (30)
0x250|                                    1d         |            .   |                n: 29 (valid) 0x25c-0x25d (1)
0x250|                                       76 31 32|             v12|                b: "v128.load8x8_u_offset1_align1" 0x25d-0x27a (29)
0x260|38 2e 6c 6f 61 64 38 78 38 5f 75 5f 6f 66 66 73|8.load8x8_u_offs|
0x270|65 74 31 5f 61 6c 69 67 6e 31                  |et1_align1      |
     |                                               |                |              d{}: 0x27a-0x27c (2)
0x270|                              00               |          .     |                tag: "funcidx" (0x0) 0x27a-0x27b (1)
0x270|                                 15            |           .    |                x: 21 (valid) 0x27b-0x27c (1)
     |                                               |                |            [22]{}: ex 0x27c-0x29d (33)
     |                                               |                |              nm{}: 0x27c-0x29b (31)
0x270|                                    1e         |            .   |                n: 30 (valid) 0x27c-0x27d (1)
0x270|                                       76 31 32|             v12|                b: "v128.load8x8_u_offset10_align4" 0x27d-0x29b (30)
0x280|38 2e 6c 6f 61 64 38 78 38 5f 75 5f 6f 66 66 73|8.load8x8_u_offs|
0x290|65 74 31 30 5f 61 6c 69 67 6e 34               |et10_align4     |
     |                                               |                |              d{}: 0x29b-0x29d (2)
0x290|                                 00            |           .    |                tag: "funcidx" (0x0) 0x29b-0x29c (1)
0x290|                                    16         |            .   |                x: 22 (valid) 0x29c-0x29d (1)
     |                                               |                |            [23]{}: ex 0x29d-0x2be (33)
     |                                               |                |              nm{}: 0x29d-0x2bc (31)
0x290|                                       1e      |             .  |                n: 30 (valid) 0x29d-0x29e (1)
0x290|                                          76 31|              v1|                b: "v128.load8x8_u_offset20_align8" 0x29e-0x2bc (30)
0x2a0|32 38 2e 6c 6f 61 64 38 78 38 5f 75 5f 6f 66 66|28.load8x8_u_off|
0x2b0|73 65 74 32 30 5f 61 6c 69 67 6e 38            |set20_align8    |
     |                                               |                |              d{}: 0x2bc-0x2be (2)
0x2b0|                                    00         |            .   |                tag: "funcidx" (0x0) 0x2bc-0x2bd (1)
0x2b0|                                       17      |             .  |                x: 23 (valid) 0x2bd-0x2be (1)
     |                                               |                |            [24]{}: ex 0x2be-0x2d8 (26)
     |                                               |                |              nm{}: 0x2be-0x2d6 (24)
0x2b0|                                          17   |              . |                n: 23 (valid) 0x2be-0x2bf (1)
0x2b0|                                             76|               v|                b: "v128.load16x4_s_offset0" 0x2bf-0x2d6 (23)
0x2c0|31 32 38 2e 6c 6f 61 64 31 36 78 34 5f 73 5f 6f|128.load16x4_s_o|
0x2d0|66 66 73 65 74 30                              |ffset0          |
     |                                               |                |              d{}: 0x2d6-0x2d8 (2)
0x2d0|                  00                           |      .         |                tag: "funcidx" (0x0) 0x2d6-0x2d7 (1)
0x2d0|                     18                        |       .        |                x: 24 (valid) 0x2d7-0x2d8 (1)
     |                                               |                |            [25]{}: ex 0x2d8-0x2f1 (25)
     |                                               |                |              nm{}: 0x2d8-0x2ef (23)
0x2d0|                        16                     |        .       |                n: 22 (valid) 0x2d8-0x2d9 (1)
0x2d0|                           76 31 32 38 2e 6c 6f|         v128.lo|                b: "v128.load16x4_s_align1" 0x2d9-0x2ef (22)
0x2e0|61 64 31 36 78 34 5f 73 5f 61 6c 69 67 6e 31   |ad16x4_s_align1 |
     |                                               |                |              d{}: 0x2ef-0x2f1 (2)
0x2e0|                                             00|               .|                tag: "funcidx" (0x0) 0x2ef-0x2f0 (1)
0x2f0|19                                             |.               |                x: 25 (valid) 0x2f0-0x2f1 (1)
     |                                               |                |            [26]{}: ex 0x2f1-0x312 (33)
     |                                               |                |              nm{}: 0x2f1-0x310 (31)
0x2f0|   1e                                          | .              |                n: 30 (valid) 0x2f1-0x2f2 (1)
0x2f0|      76 31 32 38 2e 6c 6f 61 64 31 36 78 34 5f|  v128.load16x4_|                b: "v128.load16x4_s_offset0_align1" 0x2f2-0x310 (30)
0x300|73 5f 6f 66 66 73 65 74 30 5f 61 6c 69 67 6e 31|s_offset0_align1|
     |                                               |                |              d{}: 0x310-0x312 (2)
0x310|00                                             |.               |                tag: "funcidx" (0x0) 0x310-0x311 (1)
0x310|   1a                                          | .              |                x: 26 (valid) 0x311-0x312 (1)
     |                                               |                |            [27]{}: ex 0x312-0x333 (33)
     |                                               |                |              nm{}: 0x312-0x331 (31)
0x310|      1e                                       |  .             |                n: 30 (valid) 0x312-0x313 (1)
0x310|         76 31 32 38 2e 6c 6f 61 64 31 36 78 34|   v128.load16x4|                b: "v128.load16x4_s_offset1_align1" 0x313-0x331 (30)
0x320|5f 73 5f 6f 66 66 73 65 74 31 5f 61 6c 69 67 6e|_s_offset1_align|
0x330|31                                             |1               |
     |                                               |                |              d{}: 0x331-0x333 (2)
0x330|   00                                          | .              |                tag: "funcidx" (0x0) 0x331-0x332 (1)
0x330|      1b                                       |  .             |                x: 27 (valid) 0x332-0x333 (1)
     |                                               |                |            [28]{}: ex 0x333-0x355 (34)
     |                                               |                |              nm{}: 0x333-0x353 (32)
0x330|         1f                                    |   .            |                n: 31 (valid) 0x333-0x334 (1)
0x330|            76 31 32 38 2e 6c 6f 61 64 31 36 78|    v128.load16x|                b: "v128.load16x4_s_offset10_align4" 0x334-0x353 (31)
0x340|34 5f 73 5f 6f 66 66 73 65 74 31 30 5f 61 6c 69|4_s_offset10_ali|
0x350|67 6e 34                                       |gn4             |
     |                                               |                |              d{}: 0x353-0x355 (2)
0x350|         00                                    |   .            |                tag: "funcidx" (0x0) 0x353-0x354 (1)
0x350|            1c                                 |    .           |                x: 28 (valid) 0x354-0x355 (1)
     |                                               |                |            [29]{}: ex 0x355-0x377 (34)
     |                                               |                |              nm{}: 0x355-0x375 (32)
0x350|               1f                              |     .          |                n: 31 (valid) 0x355-0x356 (1)
0x350|                  76 31 32 38 2e 6c 6f 61 64 31|      v128.load1|                b: "v128.load16x4_s_offset20_align8" 0x356-0x375 (31)
0x360|36 78 34 5f 73 5f 6f 66 66 73 65 74 32 30 5f 61|6x4_s_offset20_a|
0x370|6c 69 67 6e 38                                 |lign8           |
     |                                               |                |              d{}: 0x375-0x377 (2)
0x370|               00                              |     .          |                tag: "funcidx" (0x0) 0x375-0x376 (1)
0x370|                  1d                           |      .         |                x: 29 (valid) 0x376-0x377 (1)
     |                                               |                |            [30]{}: ex 0x377-0x391 (26)
     |                                               |                |              nm{}: 0x377-0x38f (24)
0x370|                     17                        |       .        |                n: 23 (valid) 0x377-0x378 (1)
0x370|                        76 31 32 38 2e 6c 6f 61|        v128.loa|                b: "v128.load16x4_u_offset0" 0x378-0x38f (23)
0x380|64 31 36 78 34 5f 75 5f 6f 66 66 73 65 74 30   |d16x4_u_offset0 |
     |                                               |                |              d{}: 0x38f-0x391 (2)
0x380|                                             00|               .|                tag: "funcidx" (0x0) 0x38f-0x390 (1)
0x390|1e                                             |.               |                x: 30 (valid) 0x390-0x391 (1)
     |                                               |                |            [31]{}: ex 0x391-0x3aa (25)
     |                                               |                |              nm{}: 0x391-0x3a8 (23)
0x390|   16                                          | .              |                n: 22 (valid) 0x391-0x392 (1)
0x390|      76 31 32 38 2e 6c 6f 61 64 31 36 78 34 5f|  v128.load16x4_|                b: "v128.load16x4_u_align1" 0x392-0x3a8 (22)
0x3a0|75 5f 61 6c 69 67 6e 31                        |u_align1        |
     |                                               |                |              d{}: 0x3a8-0x3aa (2)
0x3a0|                        00                     |        .       |                tag: "funcidx" (0x0) 0x3a8-0x3a9 (1)
0x3a0|                           1f                  |         .      |                x: 31 (valid) 0x3a9-0x3aa (1)
     |                                               |                |            [32]{}: ex 0x3aa-0x3cb (33)
     |                                               |                |              nm{}: 0x3aa-0x3c9 (31)
0x3a0|                              1e               |          .     |                n: 30 (valid) 0x3aa-0x3ab (1)
0x3a0|                                 76 31 32 38 2e|           v128.|                b: "v128.load16x4_u_offset0_align1" 0x3ab-0x3c9 (30)
0x3b0|6c 6f 61 64 31 36 78 34 5f 75 5f 6f 66 66 73 65|load16x4_u_offse|
0x3c0|74 30 5f 61 6c 69 67 6e 31                     |t0_align1       |
     |                                               |                |              d{}: 0x3c9-0x3cb (2)
0x3c0|                           00                  |         .      |                tag: "funcidx" (0x0) 0x3c9-0x3ca (1)
0x3c0|                              20               |                |                x: 32 (valid) 0x3ca-0x3cb (1)
     |                                               |                |            [33]{}: ex 0x3cb-0x3ec (33)
     |                                               |                |              nm{}: 0x3cb-0x3ea (31)
0x3c0|                                 1e            |           .    |                n: 30 (valid) 0x3cb-0x3cc (1)
0x3c0|                                    76 31 32 38|            v128|                b: "v128.load16x4_u_offset1_align1" 0x3cc-0x3ea (30)
0x3d0|2e 6c 6f 61 64 31 36 78 34 5f 75 5f 6f 66 66 73|.load16x4_u_offs|
0x3e0|65 74 31 5f 61 6c 69 67 6e 31                  |et1_align1      |
     |                                               |                |              d{}: 0x3ea-0x3ec (2)
0x3e0|                              00               |          .     |                tag: "funcidx" (0x0) 0x3ea-0x3eb (1)
0x3e0|                                 21            |           !    |                x: 33 (valid) 0x3eb-0x3ec (1)
     |                                               |                |            [34]{}: ex 0x3ec-0x40e (34)
     |                                               |                |              nm{}: 0x3ec-0x40c (32)
0x3e0|                                    1f         |            .   |                n: 31 (valid) 0x3ec-0x3ed (1)
0x3e0|                                       76 31 32|             v12|                b: "v128.load16x4_u_offset10_align4" 0x3ed-0x40c (31)
0x3f0|38 2e 6c 6f 61 64 31 36 78 34 5f 75 5f 6f 66 66|8.load16x4_u_off|
0x400|73 65 74 31 30 5f 61 6c 69 67 6e 34            |set10_align4    |
     |                                               |                |              d{}: 0x40c-0x40e (2)
0x400|                                    00         |            .   |                tag: "funcidx" (0x0) 0x40c-0x40d (1)
0x400|                                       22      |             "  |                x: 34 (valid) 0x40d-0x40e (1)
     |                                               |                |            [35]{}: ex 0x40e-0x430 (34)
     |                                               |                |              nm{}: 0x40e-0x42e (32)
0x400|                                          1f   |              . |                n: 31 (valid) 0x40e-0x40f (1)
0x400|                                             76|               v|                b: "v128.load16x4_u_offset20_align8" 0x40f-0x42e (31)
0x410|31 32 38 2e 6c 6f 61 64 31 36 78 34 5f 75 5f 6f|128.load16x4_u_o|
0x420|66 66 73 65 74 32 30 5f 61 6c 69 67 6e 38      |ffset20_align8  |
     |                                               |                |              d{}: 0x42e-0x430 (2)
0x420|                                          00   |              . |                tag: "funcidx" (0x0) 0x42e-0x42f (1)
0x420|                                             23|               #|                x: 35 (valid) 0x42f-0x430 (1)
     |                                               |                |            [36]{}: ex 0x430-0x44a (26)
     |                                               |                |              nm{}: 0x430-0x448 (24)
0x430|17                                             |.               |                n: 23 (valid) 0x430-0x431 (1)
0x430|   76 31 32 38 2e 6c 6f 61 64 33 32 78 32 5f 73| v128.load32x2_s|                b: "v128.load32x2_s_offset0" 0x431-0x448 (23)
0x440|5f 6f 66 66 73 65 74 30                        |_offset0        |
     |                                               |                |              d{}: 0x448-0x44a (2)
0x440|                        00                     |        .       |                tag: "funcidx" (0x0) 0x448-0x449 (1)
0x440|                           24                  |         $      |                x: 36 (valid) 0x449-0x44a (1)
     |                                               |                |            [37]{}: ex 0x44a-0x463 (25)
     |                                               |                |              nm{}: 0x44a-0x461 (23)
0x440|                              16               |          .     |                n: 22 (valid) 0x44a-0x44b (1)
0x440|                                 76 31 32 38 2e|           v128.|                b: "v128.load32x2_s_align1" 0x44b-0x461 (22)
0x450|6c 6f 61 64 33 32 78 32 5f 73 5f 61 6c 69 67 6e|load32x2_s_align|
0x460|31                                             |1               |
     |                                               |                |              d{}: 0x461-0x463 (2)
0x460|   00                                          | .              |                tag: "funcidx" (0x0) 0x461-0x462 (1)
0x460|      25                                       |  %             |                x: 37 (valid) 0x462-0x463 (1)
     |                                               |                |            [38]{}: ex 0x463-0x484 (33)
     |                                               |                |              nm{}: 0x463-0x482 (31)
0x460|         1e                                    |   .            |                n: 30 (valid) 0x463-0x464 (1)
0x460|            76 31 32 38 2e 6c 6f 61 64 33 32 78|    v128.load32x|                b: "v128.load32x2_s_offset0_align1" 0x464-0x482 (30)
0x470|32 5f 73 5f 6f 66 66 73 65 74 30 5f 61 6c 69 67|2_s_offset0_alig|
0x480|6e 31                                          |n1              |
     |                                               |                |              d{}: 0x482-0x484 (2)
0x480|      00                                       |  .             |                tag: "funcidx" (0x0) 0x482-0x483 (1)
0x480|         26                                    |   &            |                x: 38 (valid) 0x483-0x484 (1)
     |                                               |                |            [39]{}: ex 0x484-0x4a5 (33)
     |                                               |                |              nm{}: 0x484-0x4a3 (31)
0x480|            1e                                 |    .           |                n: 30 (valid) 0x484-0x485 (1)
0x480|               76 31 32 38 2e 6c 6f 61 64 33 32|     v128.load32|                b: "v128.load32x2_s_offset1_align1" 0x485-0x4a3 (30)
0x490|78 32 5f 73 5f 6f 66 66 73 65 74 31 5f 61 6c 69|x2_s_offset1_ali|
0x4a0|67 6e 31                                       |gn1             |
     |                                               |                |              d{}: 0x4a3-0x4a5 (2)
0x4a0|         00                                    |   .            |                tag: "funcidx" (0x0) 0x4a3-0x4a4 (1)
0x4a0|            27                                 |    '           |                x: 39 (valid) 0x4a4-0x4a5 (1)
     |                                               |                |            [40]{}: ex 0x4a5-0x4c7 (34)
     |                                               |                |              nm{}: 0x4a5-0x4c5 (32)
0x4a0|               1f                              |     .          |                n: 31 (valid) 0x4a5-0x4a6 (1)
0x4a0|                  76 31 32 38 2e 6c 6f 61 64 33|      v128.load3|                b: "v128.load32x2_s_offset10_align4" 0x4a6-0x4c5 (31)
0x4b0|32 78 32 5f 73 5f 6f 66 66 73 65 74 31 30 5f 61|2x2_s_offset10_a|
0x4c0|6c 69 67 6e 34                                 |lign4           |
     |                                               |                |              d{}: 0x4c5-0x4c7 (2)
0x4c0|               00                              |     .          |                tag: "funcidx" (0x0) 0x4c5-0x4c6 (1)
0x4c0|                  28                           |      (         |                x: 40 (valid) 0x4c6-0x4c7 (1)
     |                                               |                |            [41]{}: ex 0x4c7-0x4e9 (34)
     |                                               |                |              nm{}: 0x4c7-0x4e7 (32)
0x4c0|                     1f                        |       .        |                n: 31 (valid) 0x4c7-0x4c8 (1)
0x4c0|                        76 31 32 38 2e 6c 6f 61|        v128.loa|                b: "v128.load32x2_s_offset20_align8" 0x4c8-0x4e7 (31)
0x4d0|64 33 32 78 32 5f 73 5f 6f 66 66 73 65 74 32 30|d32x2_s_offset20|
0x4e0|5f 61 6c 69 67 6e 38                           |_align8         |
     |                                               |                |              d{}: 0x4e7-0x4e9 (2)
0x4e0|                     00                        |       .        |                tag: "funcidx" (0x0) 0x4e7-0x4e8 (1)
0x4e0|                        29                     |        )       |                x: 41 (valid) 0x4e8-0x4e9 (1)
     |                                               |                |            [42]{}: ex 0x4e9-0x503 (26)
     |                                               |                |              nm{}: 0x4e9-0x501 (24)
0x4e0|                           17                  |         .      |                n: 23 (valid) 0x4e9-0x4ea (1)
0x4e0|                              76 31 32 38 2e 6c|          v128.l|                b: "v128.load32x2_u_offset0" 0x4ea-0x501 (23)
0x4f0|6f 61 64 33 32 78 32 5f 75 5f 6f 66 66 73 65 74|oad32x2_u_offset|
0x500|30                                             |0               |
     |                                               |                |              d{}: 0x501-0x503 (2)
0x500|   00                                          | .              |                tag: "funcidx" (0x0) 0x501-0x502 (1)
0x500|      2a                                       |  *             |                x: 42 (valid) 0x502-0x503 (1)
     |                                               |                |            [43]{}: ex 0x503-0x51c (25)
     |                                               |                |              nm{}: 0x503-0x51a (23)
0x500|         16                                    |   .            |                n: 22 (valid) 0x503-0x504 (1)
0x500|            76 31 32 38 2e 6c 6f 61 64 33 32 78|    v128.load32x|                b: "v128.load32x2_u_align1" 0x504-0x51a (22)
0x510|32 5f 75 5f 61 6c 69 67 6e 31                  |2_u_align1      |
     |                                               |                |              d{}: 0x51a-0x51c (2)
0x510|                              00               |          .     |                tag: "funcidx" (0x0) 0x51a-0x51b (1)
0x510|                                 2b            |           +    |                x: 43 (valid) 0x51b-0x51c (1)
     |                                               |                |            [44]{}: ex 0x51c-0x53d (33)
     |                                               |                |              nm{}: 0x51c-0x53b (31)
0x510|                                    1e         |            .   |                n: 30 (valid) 0x51c-0x51d (1)
0x510|                                       76 31 32|             v12|                b: "v128.load32x2_u_offset0_align1" 0x51d-0x53b (30)
0x520|38 2e 6c 6f 61 64 33 32 78 32 5f 75 5f 6f 66 66|8.load32x2_u_off|
0x530|73 65 74 30 5f 61 6c 69 67 6e 31               |set0_align1     |
     |                                               |                |              d{}: 0x53b-0x53d (2)
0x530|                                 00            |           .    |                tag: "funcidx" (0x0) 0x53b-0x53c (1)
0x530|                                    2c         |            ,   |                x: 44 (valid) 0x53c-0x53d (1)
     |                                               |                |            [45]{}: ex 0x53d-0x55e (33)
     |                                               |                |              nm{}: 0x53d-0x55c (31)
0x530|                                       1e      |             .  |                n: 30 (valid) 0x53d-0x53e (1)
0x530|                                          76 31|              v1|                b: "v128.load32x2_u_offset1_align1" 0x53e-0x55c (30)
0x540|32 38 2e 6c 6f 61 64 33 32 78 32 5f 75 5f 6f 66|28.load32x2_u_of|
0x550|66 73 65 74 31 5f 61 6c 69 67 6e 31            |fset1_align1    |
     |                                               |                |              d{}: 0x55c-0x55e (2)
0x550|                                    00         |            .   |                tag: "funcidx" (0x0) 0x55c-0x55d (1)
0x550|                                       2d      |             -  |                x: 45 (valid) 0x55d-0x55e (1)
     |                                               |                |            [46]{}: ex 0x55e-0x580 (34)
     |                                               |                |              nm{}: 0x55e-0x57e (32)
0x550|                                          1f   |              . |                n: 31 (valid) 0x55e-0x55f (1)
0x550|                                             76|               v|                b: "v128.load32x2_u_offset10_align4" 0x55f-0x57e (31)
0x560|31 32 38 2e 6c 6f 61 64 33 32 78 32 5f 75 5f 6f|128.load32x2_u_o|
0x570|66 66 73 65 74 31 30 5f 61 6c 69 67 6e 34      |ffset10_align4  |
     |                                               |                |              d{}: 0x57e-0x580 (2)
0x570|                                          00   |              . |                tag: "funcidx" (0x0) 0x57e-0x57f (1)
0x570|                                             2e|               .|                x: 46 (valid) 0x57f-0x580 (1)
     |                                               |                |            [47]{}: ex 0x580-0x5a2 (34)
     |                                               |                |              nm{}: 0x580-0x5a0 (32)
0x580|1f                                             |.               |                n: 31 (valid) 0x580-0x581 (1)
0x580|   76 31 32 38 2e 6c 6f 61 64 33 32 78 32 5f 75| v128.load32x2_u|                b: "v128.load32x2_u_offset20_align8" 0x581-0x5a0 (31)
0x590|5f 6f 66 66 73 65 74 32 30 5f 61 6c 69 67 6e 38|_offset20_align8|
     |                                               |                |              d{}: 0x5a0-0x5a2 (2)
0x5a0|00                                             |.               |                tag: "funcidx" (0x0) 0x5a0-0x5a1 (1)
0x5a0|   2f                                          | /              |                x: 47 (valid) 0x5a1-0x5a2 (1)
     |                                               |                |    [4]{}: section 0x5a2-0x75a (440)
0x5a0|      0a                                       |  .             |      id: "code_section" (10) 0x5a2-0x5a3 (1)
0x5a0|         b5 03                                 |   ..           |      size: 437 (valid) 0x5a3-0x5a5 (2)
     |                                               |                |      content{}: 0x5a5-0x75a (437)
     |                                               |                |        code{}: 0x5a5-0x75a (437)
0x5a0|               30                              |     0          |          n: 48 (valid) 0x5a5-0x5a6 (1)
     |                                               |                |          x[0:48]: 0x5a6-0x75a (436)
     |                                               |                |            [0]{}: code 0x5a6-0x5af (9)
0x5a0|                  08                           |      .         |              size: 8 (valid) 0x5a6-0x5a7 (1)
     |                                               |                |              code{}: 0x5a7-0x5af (8)
     |                                               |                |                t{}: 0x5a7-0x5a8 (1)
0x5a0|                     00                        |       .        |                  n: 0 (valid) 0x5a7-0x5a8 (1)
     |                                               |                |                  x[0:0]: 0x5a8-0x5a8 (0)
     |                                               |                |                e[0:3]: 0x5a8-0x5af (7)
     |                                               |                |                  [0]{}: in 0x5a8-0x5aa (2)
0x5a0|                        20                     |                |                    opcode: "local.get" (0x20) 0x5a8-0x5a9 (1)
0x5a0|                           00                  |         .      |                    x: 0 (valid) 0x5a9-0x5aa (1)
     |                                               |                |                  [1]{}: in 0x5aa-0x5ae (4)
0x5a0|                              fd               |          .     |                    opcode: "vector" (0xfd) 0x5aa-0x5ab (1)
0x5a0|                                 01            |           .    |                    v_opcode: "v128.load8x8_s" (1) 0x5ab-0x5ac (1)
     |                                               |                |                    m{}: 0x5ac-0x5ae (2)
0x5a0|                                    03         |            .   |                      a: 3 (valid) 0x5ac-0x5ad (1)
0x5a0|                                       00      |             .  |                      o: 0 (valid) 0x5ad-0x5ae (1)
     |                                               |                |                  [2]{}: in 0x5ae-0x5af (1)
0x5a0|                                          0b   |              . |                    opcode: "end" (0xb) 0x5ae-0x5af (1)
     |                                               |                |            [1]{}: code 0x5af-0x5b8 (9)
0x5a0|                                             08|               .|              size: 8 (valid) 0x5af-0x5b0 (1)
     |                                               |                |              code{}: 0x5b0-0x5b8 (8)
     |                                               |                |                t{}: 0x5b0-0x5b1 (1)
0x5b0|00                                             |.               |                  n: 0 (valid) 0x5b0-0x5b1 (1)
     |                                               |                |                  x[0:0]: 0x5b1-0x5b1 (0)
     |                                               |                |                e[0:3]: 0x5b1-0x5b8 (7)
     |                                               |                |                  [0]{}: in 0x5b1-0x5b3 (2)
0x5b0|   20                                          |                |                    opcode: "local.get" (0x20) 0x5b1-0x5b2 (1)
0x5b0|      00                                       |  .             |                    x: 0 (valid) 0x5b2-0x5b3 (1)
     |                                               |                |                  [1]{}: in 0x5b3-0x5b7 (4)
0x5b0|         fd                                    |   .            |                    opcode: "vector" (0xfd) 0x5b3-0x5b4 (1)
0x5b0|            02                                 |    .           |                    v_opcode: "v128.load8x8_u" (2) 0x5b4-0x5b5 (1)
     |                                               |                |                    m{}: 0x5b5-0x5b7 (2)
0x5b0|               03                              |     .          |                      a: 3 (valid) 0x5b5-0x5b6 (1)
0x5b0|                  00                           |      .         |                      o: 0 (valid) 0x5b6-0x5b7 (1)
     |                                               |                |                  [2]{}: in 0x5b7-0x5b8 (1)
0x5b0|                     0b                        |       .        |                    opcode: "end" (0xb) 0x5b7-0x5b8 (1)
     |                                               |                |            [2]{}: code 0x5b8-0x5c1 (9)
0x5b0|                        08                     |        .       |              size: 8 (valid) 0x5b8-0x5b9 (1)
     |                                               |                |              code{}: 0x5b9-0x5c1 (8)
     |                                               |                |                t{}: 0x5b9-0x5ba (1)
0x5b0|                           00                  |         .      |                  n: 0 (valid) 0x5b9-0x5ba (1)
     |                                               |                |                  x[0:0]: 0x5ba-0x5ba (0)
     |                                               |                |                e[0:3]: 0x5ba-0x5c1 (7)
     |                                               |                |                  [0]{}: in 0x5ba-0x5bc (2)
0x5b0|                              20               |                |                    opcode: "local.get" (0x20) 0x5ba-0x5bb (1)
0x5b0|                                 00            |           .    |                    x: 0 (valid) 0x5bb-0x5bc (1)
     |                                               |                |                  [1]{}: in 0x5bc-0x5c0 (4)
0x5b0|                                    fd         |            .   |                    opcode: "vector" (0xfd) 0x5bc-0x5bd (1)
0x5b0|                                       03      |             .  |                    v_opcode: "v128.load16x4_s" (3) 0x5bd-0x5be (1)
     |                                               |                |                    m{}: 0x5be-0x5c0 (2)
0x5b0|                                          03   |              . |                      a: 3 (valid) 0x5be-0x5bf (1)
0x5b0|                                             00|               .|                      o: 0 (valid) 0x5bf-0x5c0 (1)
     |                                               |                |                  [2]{}: in 0x5c0-0x5c1 (1)
0x5c0|0b                                             |.               |                    opcode: "end" (0xb) 0x5c0-0x5c1 (1)
     |                                               |                |            [3]{}: code 0x5c1-0x5ca (9)
0x5c0|   08                                          | .              |              size: 8 (valid) 0x5c1-0x5c2 (1)
     |                                               |                |              code{}: 0x5c2-0x5ca (8)
     |                                               |                |                t{}: 0x5c2-0x5c3 (1)
0x5c0|      00                                       |  .             |                  n: 0 (valid) 0x5c2-0x5c3 (1)
     |                                               |                |                  x[0:0]: 0x5c3-0x5c3 (0)
     |                                               |                |                e[0:3]: 0x5c3-0x5ca (7)
     |                                               |                |                  [0]{}: in 0x5c3-0x5c5 (2)
0x5c0|         20                                    |                |                    opcode: "local.get" (0x20) 0x5c3-0x5c4 (1)
0x5c0|            00                                 |    .           |                    x: 0 (valid) 0x5c4-0x5c5 (1)
     |                                               |                |                  [1]{}: in 0x5c5-0x5c9 (4)
0x5c0|               fd                              |     .          |                    opcode: "vector" (0xfd) 0x5c5-0x5c6 (1)
0x5c0|                  04                           |      .         |                    v_opcode: "v128.load16x4_u" (4) 0x5c6-0x5c7 (1)
     |                                               |                |                    m{}: 0x5c7-0x5c9 (2)
0x5c0|                     03                        |       .        |                      a: 3 (valid) 0x5c7-0x5c8 (1)
0x5c0|                        00                     |        .       |                      o: 0 (valid) 0x5c8-0x5c9 (1)
     |                                               |                |                  [2]{}: in 0x5c9-0x5ca (1)
0x5c0|                           0b                  |         .      |                    opcode: "end" (0xb) 0x5c9-0x5ca (1)
     |                                               |                |            [4]{}: code 0x5ca-0x5d3 (9)
0x5c0|                              08               |          .     |              size: 8 (valid) 0x5ca-0x5cb (1)
     |                                               |                |              code{}: 0x5cb-0x5d3 (8)
     |                                               |                |                t{}: 0x5cb-0x5cc (1)
0x5c0|                                 00            |           .    |                  n: 0 (valid) 0x5cb-0x5cc (1)
     |                                               |                |                  x[0:0]: 0x5cc-0x5cc (0)
     |                                               |                |                e[0:3]: 0x5cc-0x5d3 (7)
     |                                               |                |                  [0]{}: in 0x5cc-0x5ce (2)
0x5c0|                                    20         |                |                    opcode: "local.get" (0x20) 0x5cc-0x5cd (1)
0x5c0|                                       00      |             .  |                    x: 0 (valid) 0x5cd-0x5ce (1)
     |                                               |                |                  [1]{}: in 0x5ce-0x5d2 (4)
0x5c0|                                          fd   |              . |                    opcode: "vector" (0xfd) 0x5ce-0x5cf (1)
0x5c0|                                             05|               .|                    v_opcode: "v128.load32x2_s" (5) 0x5cf-0x5d0 (1)
     |                                               |                |                    m{}: 0x5d0-0x5d2 (2)
0x5d0|03                                             |.               |                      a: 3 (valid) 0x5d0-0x5d1 (1)
0x5d0|   00                                          | .              |                      o: 0 (valid) 0x5d1-0x5d2 (1)
     |                                               |                |                  [2]{}: in 0x5d2-0x5d3 (1)
0x5d0|      0b                                       |  .             |                    opcode: "end" (0xb) 0x5d2-0x5d3 (1)
     |                                               |                |            [5]{}: code 0x5d3-0x5dc (9)
0x5d0|         08                                    |   .            |              size: 8 (valid) 0x5d3-0x5d4 (1)
     |                                               |                |              code{}: 0x5d4-0x5dc (8)
     |                                               |                |                t{}: 0x5d4-0x5d5 (1)
0x5d0|            00                                 |    .           |                  n: 0 (valid) 0x5d4-0x5d5 (1)
     |                                               |                |                  x[0:0]: 0x5d5-0x5d5 (0)
     |                                               |                |                e[0:3]: 0x5d5-0x5dc (7)
     |                                               |                |                  [0]{}: in 0x5d5-0x5d7 (2)
0x5d0|               20                              |                |                    opcode: "local.get" (0x20) 0x5d5-0x5d6 (1)
0x5d0|                  00                           |      .         |                    x: 0 (valid) 0x5d6-0x5d7 (1)
     |                                               |                |                  [1]{}: in 0x5d7-0x5db (4)
0x5d0|                     fd                        |       .        |                    opcode: "vector" (0xfd) 0x5d7-0x5d8 (1)
0x5d0|                        06                     |        .       |                    v_opcode: "v128.load32x2_u" (6) 0x5d8-0x5d9 (1)
     |                                               |                |                    m{}: 0x5d9-0x5db (2)
0x5d0|                           03                  |         .      |                      a: 3 (valid) 0x5d9-0x5da (1)
0x5d0|                              00               |          .     |                      o: 0 (valid) 0x5da-0x5db (1)
     |                                               |                |                  [2]{}: in 0x5db-0x5dc (1)
0x5d0|                                 0b            |           .    |                    opcode: "end" (0xb) 0x5db-0x5dc (1)
     |                                               |                |            [6]{}: code 0x5dc-0x5e5 (9)
0x5d0|                                    08         |            .   |              size: 8 (valid) 0x5dc-0x5dd (1)
     |                                               |                |              code{}: 0x5dd-0x5e5 (8)
     |                                               |                |                t{}: 0x5dd-0x5de (1)
0x5d0|                                       00      |             .  |                  n: 0 (valid) 0x5dd-0x5de (1)
     |                                               |                |                  x[0:0]: 0x5de-0x5de (0)
     |                                               |                |                e[0:3]: 0x5de-0x5e5 (7)
     |                                               |                |                  [0]{}: in 0x5de-0x5e0 (2)
0x5d0|                                          41   |              A |                    opcode: "i32.const" (0x41) 0x5de-0x5df (1)
0x5d0|                                             00|               .|                    n: 0 (valid) 0x5df-0x5e0 (1)
     |                                               |                |                  [1]{}: in 0x5e0-0x5e4 (4)
0x5e0|fd                                             |.               |                    opcode: "vector" (0xfd) 0x5e0-0x5e1 (1)
0x5e0|   01                                          | .              |                    v_opcode: "v128.load8x8_s" (1) 0x5e1-0x5e2 (1)
     |                                               |                |                    m{}: 0x5e2-0x5e4 (2)
0x5e0|      03                                       |  .             |                      a: 3 (valid) 0x5e2-0x5e3 (1)
0x5e0|         00                                    |   .            |                      o: 0 (valid) 0x5e3-0x5e4 (1)
     |                                               |                |                  [2]{}: in 0x5e4-0x5e5 (1)
0x5e0|            0b                                 |    .           |                    opcode: "end" (0xb) 0x5e4-0x5e5 (1)
     |                                               |                |            [7]{}: code 0x5e5-0x5ee (9)
0x5e0|               08                              |     .          |              size: 8 (valid) 0x5e5-0x5e6 (1)
     |                                               |                |              code{}: 0x5e6-0x5ee (8)
     |                                               |                |                t{}: 0x5e6-0x5e7 (1)
0x5e0|                  00                           |      .         |                  n: 0 (valid) 0x5e6-0x5e7 (1)
     |                                               |                |                  x[0:0]: 0x5e7-0x5e7 (0)
     |                                               |                |                e[0:3]: 0x5e7-0x5ee (7)
     |                                               |                |                  [0]{}: in 0x5e7-0x5e9 (2)
0x5e0|                     41                        |       A        |                    opcode: "i32.const" (0x41) 0x5e7-0x5e8 (1)
0x5e0|                        08                     |        .       |                    n: 8 (valid) 0x5e8-0x5e9 (1)
     |                                               |                |                  [1]{}: in 0x5e9-0x5ed (4)
0x5e0|                           fd                  |         .      |                    opcode: "vector" (0xfd) 0x5e9-0x5ea (1)
0x5e0|                              02               |          .     |                    v_opcode: "v128.load8x8_u" (2) 0x5ea-0x5eb (1)
     |                                               |                |                    m{}: 0x5eb-0x5ed (2)
0x5e0|                                 03            |           .    |                      a: 3 (valid) 0x5eb-0x5ec (1)
0x5e0|                                    00         |            .   |                      o: 0 (valid) 0x5ec-0x5ed (1)
     |                                               |                |                  [2]{}: in 0x5ed-0x5ee (1)
0x5e0|                                       0b      |             .  |                    opcode: "end" (0xb) 0x5ed-0x5ee (1)
     |                                               |                |            [8]{}: code 0x5ee-0x5f7 (9)
0x5e0|                                          08   |              . |              size: 8 (valid) 0x5ee-0x5ef (1)
     |                                               |                |              code{}: 0x5ef-0x5f7 (8)
     |                                               |                |                t{}: 0x5ef-0x5f0 (1)
0x5e0|                                             00|               .|                  n: 0 (valid) 0x5ef-0x5f0 (1)
     |                                               |                |                  x[0:0]: 0x5f0-0x5f0 (0)
     |                                               |                |                e[0:3]: 0x5f0-0x5f7 (7)
     |                                               |                |                  [0]{}: in 0x5f0-0x5f2 (2)
0x5f0|41                                             |A               |                    opcode: "i32.const" (0x41) 0x5f0-0x5f1 (1)
0x5f0|   0a                                          | .              |                    n: 10 (valid) 0x5f1-0x5f2 (1)
     |                                               |                |                  [1]{}: in 0x5f2-0x5f6 (4)
0x5f0|      fd                                       |  .             |                    opcode: "vector" (0xfd) 0x5f2-0x5f3 (1)
0x5f0|         03                                    |   .            |                    v_opcode: "v128.load16x4_s" (3) 0x5f3-0x5f4 (1)
     |                                               |                |                    m{}: 0x5f4-0x5f6 (2)
0x5f0|            03                                 |    .           |                      a: 3 (valid) 0x5f4-0x5f5 (1)
0x5f0|               00                              |     .          |                      o: 0 (valid) 0x5f5-0x5f6 (1)
     |                                               |                |                  [2]{}: in 0x5f6-0x5f7 (1)
0x5f0|                  0b                           |      .         |                    opcode: "end" (0xb) 0x5f6-0x5f7 (1)
     |                                               |                |            [9]{}: code 0x5f7-0x600 (9)
0x5f0|                     08                        |       .        |              size: 8 (valid) 0x5f7-0x5f8 (1)
     |                                               |                |              code{}: 0x5f8-0x600 (8)
     |                                               |                |                t{}: 0x5f8-0x5f9 (1)
0x5f0|                        00                     |        .       |                  n: 0 (valid) 0x5f8-0x5f9 (1)
     |                                               |                |                  x[0:0]: 0x5f9-0x5f9 (0)
     |                                               |                |                e[0:3]: 0x5f9-0x600 (7)
     |                                               |                |                  [0]{}: in 0x5f9-0x5fb (2)
0x5f0|                           41                  |         A      |                    opcode: "i32.const" (0x41) 0x5f9-0x5fa (1)
0x5f0|                              14               |          .     |                    n: 20 (valid) 0x5fa-0x5fb (1)
     |                                               |                |                  [1]{}: in 0x5fb-0x5ff (4)
0x5f0|                                 fd            |           .    |                    opcode: "vector" (0xfd) 0x5fb-0x5fc (1)
0x5f0|                                    04         |            .   |                    v_opcode: "v128.load16x4_u" (4) 0x5fc-0x5fd (1)
     |                                               |                |                    m{}: 0x5fd-0x5ff (2)
0x5f0|                                       03      |             .  |                      a: 3 (valid) 0x5fd-0x5fe (1)
0x5f0|                                          00   |              . |                      o: 0 (valid) 0x5fe-0x5ff (1)
     |                                               |                |                  [2]{}: in 0x5ff-0x600 (1)
0x5f0|                                             0b|               .|                    opcode: "end" (0xb) 0x5ff-0x600 (1)
     |                                               |                |            [10]{}: code 0x600-0x60b (11)
0x600|0a                                             |.               |              size: 10 (valid) 0x600-0x601 (1)
     |                                               |                |              code{}: 0x601-0x60b (10)
     |                                               |                |                t{}: 0x601-0x602 (1)
0x600|   00                                          | .              |                  n: 0 (valid) 0x601-0x602 (1)
     |                                               |                |                  x[0:0]: 0x602-0x602 (0)
     |                                               |                |                e[0:3]: 0x602-0x60b (9)
     |                                               |                |                  [0]{}: in 0x602-0x606 (4)
0x600|      41                                       |  A             |                    opcode: "i32.const" (0x41) 0x602-0x603 (1)
0x600|         f0 ff 03                              |   ...          |                    n: 65520 (valid) 0x603-0x606 (3)
     |                                               |                |                  [1]{}: in 0x606-0x60a (4)
0x600|                  fd                           |      .         |                    opcode: "vector" (0xfd) 0x606-0x607 (1)
0x600|                     05                        |       .        |                    v_opcode: "v128.load32x2_s" (5) 0x607-0x608 (1)
     |                                               |                |                    m{}: 0x608-0x60a (2)
0x600|                        03                     |        .       |                      a: 3 (valid) 0x608-0x609 (1)
0x600|                           00                  |         .      |                      o: 0 (valid) 0x609-0x60a (1)
     |                                               |                |                  [2]{}: in 0x60a-0x60b (1)
0x600|                              0b               |          .     |                    opcode: "end" (0xb) 0x60a-0x60b (1)
     |                                               |                |            [11]{}: code 0x60b-0x616 (11)
0x600|                                 0a            |           .    |              size: 10 (valid) 0x60b-0x60c (1)
     |                                               |                |              code{}: 0x60c-0x616 (10)
     |                                               |                |                t{}: 0x60c-0x60d (1)
0x600|                                    00         |            .   |                  n: 0 (valid) 0x60c-0x60d (1)
     |                                               |                |                  x[0:0]: 0x60d-0x60d (0)
     |                                               |                |                e[0:3]: 0x60d-0x616 (9)
     |                                               |                |                  [0]{}: in 0x60d-0x611 (4)
0x600|                                       41      |             A  |                    opcode: "i32.const" (0x41) 0x60d-0x60e (1)
0x600|                                          f6 ff|              ..|                    n: 65526 (valid) 0x60e-0x611 (3)
0x610|03                                             |.               |
     |                                               |                |                  [1]{}: in 0x611-0x615 (4)
0x610|   fd                                          | .              |                    opcode: "vector" (0xfd) 0x611-0x612 (1)
0x610|      06                                       |  .             |                    v_opcode: "v128.load32x2_u" (6) 0x612-0x613 (1)
     |                                               |                |                    m{}: 0x613-0x615 (2)
0x610|         03                                    |   .            |                      a: 3 (valid) 0x613-0x614 (1)
0x610|            00                                 |    .           |                      o: 0 (valid) 0x614-0x615 (1)
     |                                               |                |                  [2]{}: in 0x615-0x616 (1)
0x610|               0b                              |     .          |                    opcode: "end" (0xb) 0x615-0x616 (1)
     |                                               |                |            [12]{}: code 0x616-0x61f (9)
0x610|                  08                           |      .         |              size: 8 (valid) 0x616-0x617 (1)
     |                                               |                |              code{}: 0x617-0x61f (8)
     |                                               |                |                t{}: 0x617-0x618 (1)
0x610|                     00                        |       .        |                  n: 0 (valid) 0x617-0x618 (1)
     |                                               |                |                  x[0:0]: 0x618-0x618 (0)
     |                                               |                |                e[0:3]: 0x618-0x61f (7)
     |                                               |                |                  [0]{}: in 0x618-0x61a (2)
0x610|                        20                     |                |                    opcode: "local.get" (0x20) 0x618-0x619 (1)
0x610|                           00                  |         .      |                    x: 0 (valid) 0x619-0x61a (1)
     |                                               |                |                  [1]{}: in 0x61a-0x61e (4)
0x610|                              fd               |          .     |                    opcode: "vector" (0xfd) 0x61a-0x61b (1)
0x610|                                 01            |           .    |                    v_opcode: "v128.load8x8_s" (1) 0x61b-0x61c (1)
     |                                               |                |                    m{}: 0x61c-0x61e (2)
0x610|                                    03         |            .   |                      a: 3 (valid) 0x61c-0x61d (1)
0x610|                                       00      |             .  |                      o: 0 (valid) 0x61d-0x61e (1)
     |                                               |                |                  [2]{}: in 0x61e-0x61f (1)
0x610|                                          0b   |              . |                    opcode: "end" (0xb) 0x61e-0x61f (1)
     |                                               |                |            [13]{}: code 0x61f-0x628 (9)
0x610|                                             08|               .|              size: 8 (valid) 0x61f-0x620 (1)
     |                                               |                |              code{}: 0x620-0x628 (8)
     |                                               |                |                t{}: 0x620-0x621 (1)
0x620|00                                             |.               |                  n: 0 (valid) 0x620-0x621 (1)
     |                                               |                |                  x[0:0]: 0x621-0x621 (0)
     |                                               |                |                e[0:3]: 0x621-0x628 (7)
     |                                               |                |                  [0]{}: in 0x621-0x623 (2)
0x620|   20                                          |                |                    opcode: "local.get" (0x20) 0x621-0x622 (1)
0x620|      00                                       |  .             |                    x: 0 (valid) 0x622-0x623 (1)
     |                                               |                |                  [1]{}: in 0x623-0x627 (4)
0x620|         fd                                    |   .            |                    opcode: "vector" (0xfd) 0x623-0x624 (1)
0x620|            01                                 |    .           |                    v_opcode: "v128.load8x8_s" (1) 0x624-0x625 (1)
     |                                               |                |                    m{}: 0x625-0x627 (2)
0x620|               00                              |     .          |                      a: 0 (valid) 0x625-0x626 (1)
0x620|                  00                           |      .         |                      o: 0 (valid) 0x626-0x627 (1)
     |                                               |                |                  [2]{}: in 0x627-0x628 (1)
0x620|                     0b                        |       .        |                    opcode: "end" (0xb) 0x627-0x628 (1)
     |                                               |                |            [14]{}: code 0x628-0x631 (9)
0x620|                        08                     |        .       |              size: 8 (valid) 0x628-0x629 (1)
     |                                               |                |              code{}: 0x629-0x631 (8)
     |                                               |                |                t{}: 0x629-0x62a (1)
0x620|                           00                  |         .      |                  n: 0 (valid) 0x629-0x62a (1)
     |                                               |                |                  x[0:0]: 0x62a-0x62a (0)
     |                                               |                |                e[0:3]: 0x62a-0x631 (7)
     |                                               |                |                  [0]{}: in 0x62a-0x62c (2)
0x620|                              20               |                |                    opcode: "local.get" (0x20) 0x62a-0x62b (1)
0x620|                                 00            |           .    |                    x: 0 (valid) 0x62b-0x62c (1)
     |                                               |                |                  [1]{}: in 0x62c-0x630 (4)
0x620|                                    fd         |            .   |                    opcode: "vector" (0xfd) 0x62c-0x62d (1)
0x620|                                       01      |             .  |                    v_opcode: "v128.load8x8_s" (1) 0x62d-0x62e (1)
     |                                               |                |                    m{}: 0x62e-0x630 (2)
0x620|                                          00   |              . |                      a: 0 (valid) 0x62e-0x62f (1)
0x620|                                             00|               .|                      o: 0 (valid) 0x62f-0x630 (1)
     |                                               |                |                  [2]{}: in 0x630-0x631 (1)
0x630|0b                                             |.               |                    opcode: "end" (0xb) 0x630-0x631 (1)
     |                                               |                |            [15]{}: code 0x631-0x63a (9)
0x630|   08                                          | .              |              size: 8 (valid) 0x631-0x632 (1)
     |                                               |                |              code{}: 0x632-0x63a (8)
     |                                               |                |                t{}: 0x632-0x633 (1)
0x630|      00                                       |  .             |                  n: 0 (valid) 0x632-0x633 (1)
     |                                               |                |                  x[0:0]: 0x633-0x633 (0)
     |                                               |                |                e[0:3]: 0x633-0x63a (7)
     |                                               |                |                  [0]{}: in 0x633-0x635 (2)
0x630|         20                                    |                |                    opcode: "local.get" (0x20) 0x633-0x634 (1)
0x630|            00                                 |    .           |                    x: 0 (valid) 0x634-0x635 (1)
     |                                               |                |                  [1]{}: in 0x635-0x639 (4)
0x630|               fd                              |     .          |                    opcode: "vector" (0xfd) 0x635-0x636 (1)
0x630|                  01                           |      .         |                    v_opcode: "v128.load8x8_s" (1) 0x636-0x637 (1)
     |                                               |                |                    m{}: 0x637-0x639 (2)
0x630|                     00                        |       .        |                      a: 0 (valid) 0x637-0x638 (1)
0x630|                        01                     |        .       |                      o: 1 (valid) 0x638-0x639 (1)
     |                                               |                |                  [2]{}: in 0x639-0x63a (1)
0x630|                           0b                  |         .      |                    opcode: "end" (0xb) 0x639-0x63a (1)
     |                                               |                |            [16]{}: code 0x63a-0x643 (9)
0x630|                              08               |          .     |              size: 8 (valid) 0x63a-0x63b (1)
     |                                               |                |              code{}: 0x63b-0x643 (8)
     |                                               |                |                t{}: 0x63b-0x63c (1)
0x630|                                 00            |           .    |                  n: 0 (valid) 0x63b-0x63c (1)
     |                                               |                |                  x[0:0]: 0x63c-0x63c (0)
     |                                               |                |                e[0:3]: 0x63c-0x643 (7)
     |                                               |                |                  [0]{}: in 0x63c-0x63e (2)
0x630|                                    20         |                |                    opcode: "local.get" (0x20) 0x63c-0x63d (1)
0x630|                                       00      |             .  |                    x: 0 (valid) 0x63d-0x63e (1)
     |                                               |                |                  [1]{}: in 0x63e-0x642 (4)
0x630|                                          fd   |              . |                    opcode: "vector" (0xfd) 0x63e-0x63f (1)
0x630|                                             01|               .|                    v_opcode: "v128.load8x8_s" (1) 0x63f-0x640 (1)
     |                                               |                |                    m{}: 0x640-0x642 (2)
0x640|02                                             |.               |                      a: 2 (valid) 0x640-0x641 (1)
0x640|   0a                                          | .              |                      o: 10 (valid) 0x641-0x642 (1)
     |                                               |                |                  [2]{}: in 0x642-0x643 (1)
0x640|      0b                                       |  .             |                    opcode: "end" (0xb) 0x642-0x643 (1)
     |                                               |                |            [17]{}: code 0x643-0x64c (9)
0x640|         08                                    |   .            |              size: 8 (valid) 0x643-0x644 (1)
     |                                               |                |              code{}: 0x644-0x64c (8)
     |                                               |                |                t{}: 0x644-0x645 (1)
0x640|            00                                 |    .           |                  n: 0 (valid) 0x644-0x645 (1)
     |                                               |                |                  x[0:0]: 0x645-0x645 (0)
     |                                               |                |                e[0:3]: 0x645-0x64c (7)
     |                                               |                |                  [0]{}: in 0x645-0x647 (2)
0x640|               20                              |                |                    opcode: "local.get" (0x20) 0x645-0x646 (1)
0x640|                  00                           |      .         |                    x: 0 (valid) 0x646-0x647 (1)
     |                                               |                |                  [1]{}: in 0x647-0x64b (4)
0x640|                     fd                        |       .        |                    opcode: "vector" (0xfd) 0x647-0x648 (1)
0x640|                        01                     |        .       |                    v_opcode: "v128.load8x8_s" (1) 0x648-0x649 (1)
     |                                               |                |                    m{}: 0x649-0x64b (2)
0x640|                           03                  |         .      |                      a: 3 (valid) 0x649-0x64a (1)
0x640|                              14               |          .     |                      o: 20 (valid) 0x64a-0x64b (1)
     |                                               |                |                  [2]{}: in 0x64b-0x64c (1)
0x640|                                 0b            |           .    |                    opcode: "end" (0xb) 0x64b-0x64c (1)
     |                                               |                |            [18]{}: code 0x64c-0x655 (9)
0x640|                                    08         |            .   |              size: 8 (valid) 0x64c-0x64d (1)
     |                                               |                |              code{}: 0x64d-0x655 (8)
     |                                               |                |                t{}: 0x64d-0x64e (1)
0x640|                                       00      |             .  |                  n: 0 (valid) 0x64d-0x64e (1)
     |                                               |                |                  x[0:0]: 0x64e-0x64e (0)
     |                                               |                |                e[0:3]: 0x64e-0x655 (7)
     |                                               |                |                  [0]{}: in 0x64e-0x650 (2)
0x640|                                          20   |                |                    opcode: "local.get" (0x20) 0x64e-0x64f (1)
0x640|                                             00|               .|                    x: 0 (valid) 0x64f-0x650 (1)
     |                                               |                |                  [1]{}: in 0x650-0x654 (4)
0x650|fd                                             |.               |                    opcode: "vector" (0xfd) 0x650-0x651 (1)
0x650|   02                                          | .              |                    v_opcode: "v128.load8x8_u" (2) 0x651-0x652 (1)
     |                                               |                |                    m{}: 0x652-0x654 (2)
0x650|      03                                       |  .             |                      a: 3 (valid) 0x652-0x653 (1)
0x650|         00                                    |   .            |                      o: 0 (valid) 0x653-0x654 (1)
     |                                               |                |                  [2]{}: in 0x654-0x655 (1)
0x650|            0b                                 |    .           |                    opcode: "end" (0xb) 0x654-0x655 (1)
     |                                               |                |            [19]{}: code 0x655-0x65e (9)
0x650|               08                              |     .          |              size: 8 (valid) 0x655-0x656 (1)
     |                                               |                |              code{}: 0x656-0x65e (8)
     |                                               |                |                t{}: 0x656-0x657 (1)
0x650|                  00                           |      .         |                  n: 0 (valid) 0x656-0x657 (1)
     |                                               |                |                  x[0:0]: 0x657-0x657 (0)
     |                                               |                |                e[0:3]: 0x657-0x65e (7)
     |                                               |                |                  [0]{}: in 0x657-0x659 (2)
0x650|                     20                        |                |                    opcode: "local.get" (0x20) 0x657-0x658 (1)
0x650|                        00                     |        .       |                    x: 0 (valid) 0x658-0x659 (1)
     |                                               |                |                  [1]{}: in 0x659-0x65d (4)
0x650|                           fd                  |         .      |                    opcode: "vector" (0xfd) 0x659-0x65a (1)
0x650|                              02               |          .     |                    v_opcode: "v128.load8x8_u" (2) 0x65a-0x65b (1)
     |                                               |                |                    m{}: 0x65b-0x65d (2)
0x650|                                 00            |           .    |                      a: 0 (valid) 0x65b-0x65c (1)
0x650|                                    00         |            .   |                      o: 0 (valid) 0x65c-0x65d (1)
     |                                               |                |                  [2]{}: in 0x65d-0x65e (1)
0x650|                                       0b      |             .  |                    opcode: "end" (0xb) 0x65d-0x65e (1)
     |                                               |                |            [20]{}: code 0x65e-0x667 (9)
0x650|                                          08   |              . |              size: 8 (valid) 0x65e-0x65f (1)
     |                                               |                |              code{}: 0x65f-0x667 (8)
     |                                               |                |                t{}: 0x65f-0x660 (1)
0x650|                                             00|               .|                  n: 0 (valid) 0x65f-0x660 (1)
     |                                               |                |                  x[0:0]: 0x660-0x660 (0)
     |                                               |                |                e[0:3]: 0x660-0x667 (7)
     |                                               |                |                  [0]{}: in 0x660-0x662 (2)
0x660|20                                             |                |                    opcode: "local.get" (0x20) 0x660-0x661 (1)
0x660|   00                                          | .              |                    x: 0 (valid) 0x661-0x662 (1)
     |                                               |                |                  [1]{}: in 0x662-0x666 (4)
0x660|      fd                                       |  .             |                    opcode: "vector" (0xfd) 0x662-0x663 (1)
0x660|         02                                    |   .            |                    v_opcode: "v128.load8x8_u" (2) 0x663-0x664 (1)
     |                                               |                |                    m{}: 0x664-0x666 (2)
0x660|            00                                 |    .           |                      a: 0 (valid) 0x664-0x665 (1)
0x660|               00                              |     .          |                      o: 0 (valid) 0x665-0x666 (1)
     |                                               |                |                  [2]{}: in 0x666-0x667 (1)
0x660|                  0b                           |      .         |                    opcode: "end" (0xb) 0x666-0x667 (1)
     |                                               |                |            [21]{}: code 0x667-0x670 (9)
0x660|                     08                        |       .        |              size: 8 (valid) 0x667-0x668 (1)
     |                                               |                |              code{}: 0x668-0x670 (8)
     |                                               |                |                t{}: 0x668-0x669 (1)
0x660|                        00                     |        .       |                  n: 0 (valid) 0x668-0x669 (1)
     |                                               |                |                  x[0:0]: 0x669-0x669 (0)
     |                                               |                |                e[0:3]: 0x669-0x670 (7)
     |                                               |                |                  [0]{}: in 0x669-0x66b (2)
0x660|                           20                  |                |                    opcode: "local.get" (0x20) 0x669-0x66a (1)
0x660|                              00               |          .     |                    x: 0 (valid) 0x66a-0x66b (1)
     |                                               |                |                  [1]{}: in 0x66b-0x66f (4)
0x660|                                 fd            |           .    |                    opcode: "vector" (0xfd) 0x66b-0x66c (1)
0x660|                                    02         |            .   |                    v_opcode: "v128.load8x8_u" (2) 0x66c-0x66d (1)
     |                                               |                |                    m{}: 0x66d-0x66f (2)
0x660|                                       00      |             .  |                      a: 0 (valid) 0x66d-0x66e (1)
0x660|                                          01   |              . |                      o: 1 (valid) 0x66e-0x66f (1)
     |                                               |                |                  [2]{}: in 0x66f-0x670 (1)
0x660|                                             0b|               .|                    opcode: "end" (0xb) 0x66f-0x670 (1)
     |                                               |                |            [22]{}: code 0x670-0x679 (9)
0x670|08                                             |.               |              size: 8 (valid) 0x670-0x671 (1)
     |                                               |                |              code{}: 0x671-0x679 (8)
     |                                               |                |                t{}: 0x671-0x672 (1)
0x670|   00                                          | .              |                  n: 0 (valid) 0x671-0x672 (1)
     |                                               |                |                  x[0:0]: 0x672-0x672 (0)
     |                                               |                |                e[0:3]: 0x672-0x679 (7)
     |                                               |                |                  [0]{}: in 0x672-0x674 (2)
0x670|      20                                       |                |                    opcode: "local.get" (0x20) 0x672-0x673 (1)
0x670|         00                                    |   .            |                    x: 0 (valid) 0x673-0x674 (1)
     |                                               |                |                  [1]{}: in 0x674-0x678 (4)
0x670|            fd                                 |    .           |                    opcode: "vector" (0xfd) 0x674-0x675 (1)
0x670|               02                              |     .          |                    v_opcode: "v128.load8x8_u" (2) 0x675-0x676 (1)
     |                                               |                |                    m{}: 0x676-0x678 (2)
0x670|                  02                           |      .         |                      a: 2 (valid) 0x676-0x677 (1)
0x670|                     0a                        |       .        |                      o: 10 (valid) 0x677-0x678 (1)
     |                                               |                |                  [2]{}: in 0x678-0x679 (1)
0x670|                        0b                     |        .       |                    opcode: "end" (0xb) 0x678-0x679 (1)
     |                                               |                |            [23]{}: code 0x679-0x682 (9)
0x670|                           08                  |         .      |              size: 8 (valid) 0x679-0x67a (1)
     |                                               |                |              code{}: 0x67a-0x682 (8)
     |                                               |                |                t{}: 0x67a-0x67b (1)
0x670|                              00               |          .     |                  n: 0 (valid) 0x67a-0x67b (1)
     |                                               |                |                  x[0:0]: 0x67b-0x67b (0)
     |                                               |                |                e[0:3]: 0x67b-0x682 (7)
     |                                               |                |                  [0]{}: in 0x67b-0x67d (2)
0x670|                                 20            |                |                    opcode: "local.get" (0x20) 0x67b-0x67c (1)
0x670|                                    00         |            .   |                    x: 0 (valid) 0x67c-0x67d (1)
     |                                               |                |                  [1]{}: in 0x67d-0x681 (4)
0x670|                                       fd      |             .  |                    opcode: "vector" (0xfd) 0x67d-0x67e (1)
0x670|                                          02   |              . |                    v_opcode: "v128.load8x8_u" (2) 0x67e-0x67f (1)
     |                                               |                |                    m{}: 0x67f-0x681 (2)
0x670|                                             03|               .|                      a: 3 (valid) 0x67f-0x680 (1)
0x680|14                                             |.               |                      o: 20 (valid) 0x680-0x681 (1)
     |                                               |                |                  [2]{}: in 0x681-0x682 (1)
0x680|   0b                                          | .              |                    opcode: "end" (0xb) 0x681-0x682 (1)
     |                                               |                |            [24]{}: code 0x682-0x68b (9)
0x680|      08                                       |  .             |              size: 8 (valid) 0x682-0x683 (1)
     |                                               |                |              code{}: 0x683-0x68b (8)
     |                                               |                |                t{}: 0x683-0x684 (1)
0x680|         00                                    |   .            |                  n: 0 (valid) 0x683-0x684 (1)
     |                                               |                |                  x[0:0]: 0x684-0x684 (0)
     |                                               |                |                e[0:3]: 0x684-0x68b (7)
     |                                               |                |                  [0]{}: in 0x684-0x686 (2)
0x680|            20                                 |                |                    opcode: "local.get" (0x20) 0x684-0x685 (1)
0x680|               00                              |     .          |                    x: 0 (valid) 0x685-0x686 (1)
     |                                               |                |                  [1]{}: in 0x686-0x68a (4)
0x680|                  fd                           |      .         |                    opcode: "vector" (0xfd) 0x686-0x687 (1)
0x680|                     03                        |       .        |                    v_opcode: "v128.load16x4_s" (3) 0x687-0x688 (1)
     |                                               |                |                    m{}: 0x688-0x68a (2)
0x680|                        03                     |        .       |                      a: 3 (valid) 0x688-0x689 (1)
0x680|                           00                  |         .      |                      o: 0 (valid) 0x689-0x68a (1)
     |                                               |                |                  [2]{}: in 0x68a-0x68b (1)
0x680|                              0b               |          .     |                    opcode: "end" (0xb) 0x68a-0x68b (1)
     |                                               |                |            [25]{}: code 0x68b-0x694 (9)
0x680|                                 08            |           .    |              size: 8 (valid) 0x68b-0x68c (1)
     |                                               |                |              code{}: 0x68c-0x694 (8)
     |                                               |                |                t{}: 0x68c-0x68d (1)
0x680|                                    00         |            .   |                  n: 0 (valid) 0x68c-0x68d (1)
     |                                               |                |                  x[0:0]: 0x68d-0x68d (0)
     |                                               |                |                e[0:3]: 0x68d-0x694 (7)
     |                                               |                |                  [0]{}: in 0x68d-0x68f (2)
0x680|                                       20      |                |                    opcode: "local.get" (0x20) 0x68d-0x68e (1)
0x680|                                          00   |              . |                    x: 0 (valid) 0x68e-0x68f (1)
     |                                               |                |                  [1]{}: in 0x68f-0x693 (4)
0x680|                                             fd|               .|                    opcode: "vector" (0xfd) 0x68f-0x690 (1)
0x690|03                                             |.               |                    v_opcode: "v128.load16x4_s" (3) 0x690-0x691 (1)
     |                                               |                |                    m{}: 0x691-0x693 (2)
0x690|   00                                          | .              |                      a: 0 (valid) 0x691-0x692 (1)
0x690|      00                                       |  .             |                      o: 0 (valid) 0x692-0x693 (1)
     |                                               |                |                  [2]{}: in 0x693-0x694 (1)
0x690|         0b                                    |   .            |                    opcode: "end" (0xb) 0x693-0x694 (1)
     |                                               |                |            [26]{}: code 0x694-0x69d (9)
0x690|            08                                 |    .           |              size: 8 (valid) 0x694-0x695 (1)
     |                                               |                |              code{}: 0x695-0x69d (8)
     |                                               |                |                t{}: 0x695-0x696 (1)
0x690|               00                              |     .          |                  n: 0 (valid) 0x695-0x696 (1)
     |                                               |                |                  x[0:0]: 0x696-0x696 (0)
     |                                               |                |                e[0:3]: 0x696-0x69d (7)
     |                                               |                |                  [0]{}: in 0x696-0x698 (2)
0x690|                  20                           |                |                    opcode: "local.get" (0x20) 0x696-0x697 (1)
0x690|                     00                        |       .        |                    x: 0 (valid) 0x697-0x698 (1)
     |                                               |                |                  [1]{}: in 0x698-0x69c (4)
0x690|                        fd                     |        .       |                    opcode: "vector" (0xfd) 0x698-0x699 (1)
0x690|                           03                  |         .      |                    v_opcode: "v128.load16x4_s" (3) 0x699-0x69a (1)
     |                                               |                |                    m{}: 0x69a-0x69c (2)
0x690|                              00               |          .     |                      a: 0 (valid) 0x69a-0x69b (1)
0x690|                                 00            |           .    |                      o: 0 (valid) 0x69b-0x69c (1)
     |                                               |                |                  [2]{}: in 0x69c-0x69d (1)
0x690|                                    0b         |            .   |                    opcode: "end" (0xb) 0x69c-0x69d (1)
     |                                               |                |            [27]{}: code 0x69d-0x6a6 (9)
0x690|                                       08      |             .  |              size: 8 (valid) 0x69d-0x69e (1)
     |                                               |                |              code{}: 0x69e-0x6a6 (8)
     |                                               |                |                t{}: 0x69e-0x69f (1)
0x690|                                          00   |              . |                  n: 0 (valid) 0x69e-0x69f (1)
     |                                               |                |                  x[0:0]: 0x69f-0x69f (0)
     |                                               |                |                e[0:3]: 0x69f-0x6a6 (7)
     |                                               |                |                  [0]{}: in 0x69f-0x6a1 (2)
0x690|                                             20|                |                    opcode: "local.get" (0x20) 0x69f-0x6a0 (1)
0x6a0|00                                             |.               |                    x: 0 (valid) 0x6a0-0x6a1 (1)
     |                                               |                |                  [1]{}: in 0x6a1-0x6a5 (4)
0x6a0|   fd                                          | .              |                    opcode: "vector" (0xfd) 0x6a1-0x6a2 (1)
0x6a0|      03                                       |  .             |                    v_opcode: "v128.load16x4_s" (3) 0x6a2-0x6a3 (1)
     |                                               |                |                    m{}: 0x6a3-0x6a5 (2)
0x6a0|         00                                    |   .            |                      a: 0 (valid) 0x6a3-0x6a4 (1)
0x6a0|            01                                 |    .           |                      o: 1 (valid) 0x6a4-0x6a5 (1)
     |                                               |                |                  [2]{}: in 0x6a5-0x6a6 (1)
0x6a0|               0b                              |     .          |                    opcode: "end" (0xb) 0x6a5-0x6a6 (1)
     |                                               |                |            [28]{}: code 0x6a6-0x6af (9)
0x6a0|                  08                           |      .         |              size: 8 (valid) 0x6a6-0x6a7 (1)
     |                                               |                |              code{}: 0x6a7-0x6af (8)
     |                                               |                |                t{}: 0x6a7-0x6a8 (1)
0x6a0|                     00                        |       .        |                  n: 0 (valid) 0x6a7-0x6a8 (1)
     |                                               |                |                  x[0:0]: 0x6a8-0x6a8 (0)
     |                                               |                |                e[0:3]: 0x6a8-0x6af (7)
     |                                               |                |                  [0]{}: in 0x6a8-0x6aa (2)
0x6a0|                        20                     |                |                    opcode: "local.get" (0x20) 0x6a8-0x6a9 (1)
0x6a0|                           00                  |         .      |                    x: 0 (valid) 0x6a9-0x6aa (1)
     |                                               |                |                  [1]{}: in 0x6aa-0x6ae (4)
0x6a0|                              fd               |          .     |                    opcode: "vector" (0xfd) 0x6aa-0x6ab (1)
0x6a0|                                 03            |           .    |                    v_opcode: "v128.load16x4_s" (3) 0x6ab-0x6ac (1)
     |                                               |                |                    m{}: 0x6ac-0x6ae (2)
0x6a0|                                    02         |            .   |                      a: 2 (valid) 0x6ac-0x6ad (1)
0x6a0|                                       0a      |             .  |                      o: 10 (valid) 0x6ad-0x6ae (1)
     |                                               |                |                  [2]{}: in 0x6ae-0x6af (1)
0x6a0|                                          0b   |              . |                    opcode: "end" (0xb) 0x6ae-0x6af (1)
     |                                               |                |            [29]{}: code 0x6af-0x6b8 (9)
0x6a0|                                             08|               .|              size: 8 (valid) 0x6af-0x6b0 (1)
     |                                               |                |              code{}: 0x6b0-0x6b8 (8)
     |                                               |                |                t{}: 0x6b0-0x6b1 (1)
0x6b0|00                                             |.               |                  n: 0 (valid) 0x6b0-0x6b1 (1)
     |                                               |                |                  x[0:0]: 0x6b1-0x6b1 (0)
     |                                               |                |                e[0:3]: 0x6b1-0x6b8 (7)
     |                                               |                |                  [0]{}: in 0x6b1-0x6b3 (2)
0x6b0|   20                                          |                |                    opcode: "local.get" (0x20) 0x6b1-0x6b2 (1)
0x6b0|      00                                       |  .             |                    x: 0 (valid) 0x6b2-0x6b3 (1)
     |                                               |                |                  [1]{}: in 0x6b3-0x6b7 (4)
0x6b0|         fd                                    |   .            |                    opcode: "vector" (0xfd) 0x6b3-0x6b4 (1)
0x6b0|            03                                 |    .           |                    v_opcode: "v128.load16x4_s" (3) 0x6b4-0x6b5 (1)
     |                                               |                |                    m{}: 0x6b5-0x6b7 (2)
0x6b0|               03                              |     .          |                      a: 3 (valid) 0x6b5-0x6b6 (1)
0x6b0|                  14                           |      .         |                      o: 20 (valid) 0x6b6-0x6b7 (1)
     |                                               |                |                  [2]{}: in 0x6b7-0x6b8 (1)
0x6b0|                     0b                        |       .        |                    opcode: "end" (0xb) 0x6b7-0x6b8 (1)
     |                                               |                |            [30]{}: code 0x6b8-0x6c1 (9)
0x6b0|                        08                     |        .       |              size: 8 (valid) 0x6b8-0x6b9 (1)
     |                                               |                |              code{}: 0x6b9-0x6c1 (8)
     |                                               |                |                t{}: 0x6b9-0x6ba (1)
0x6b0|                           00                  |         .      |                  n: 0 (valid) 0x6b9-0x6ba (1)
     |                                               |                |                  x[0:0]: 0x6ba-0x6ba (0)
     |                                               |                |                e[0:3]: 0x6ba-0x6c1 (7)
     |                                               |                |                  [0]{}: in 0x6ba-0x6bc (2)
0x6b0|                              20               |                |                    opcode: "local.get" (0x20) 0x6ba-0x6bb (1)
0x6b0|                                 00            |           .    |                    x: 0 (valid) 0x6bb-0x6bc (1)
     |                                               |                |                  [1]{}: in 0x6bc-0x6c0 (4)
0x6b0|                                    fd         |            .   |                    opcode: "vector" (0xfd) 0x6bc-0x6bd (1)
0x6b0|                                       04      |             .  |                    v_opcode: "v128.load16x4_u" (4) 0x6bd-0x6be (1)
     |                                               |                |                    m{}: 0x6be-0x6c0 (2)
0x6b0|                                          03   |              . |                      a: 3 (valid) 0x6be-0x6bf (1)
0x6b0|                                             00|               .|                      o: 0 (valid) 0x6bf-0x6c0 (1)
     |                                               |                |                  [2]{}: in 0x6c0-0x6c1 (1)
0x6c0|0b                                             |.               |                    opcode: "end" (0xb) 0x6c0-0x6c1 (1)
     |                                               |                |            [31]{}: code 0x6c1-0x6ca (9)
0x6c0|   08                                          | .              |              size: 8 (valid) 0x6c1-0x6c2 (1)
     |                                               |                |              code{}: 0x6c2-0x6ca (8)
     |                                               |                |                t{}: 0x6c2-0x6c3 (1)
0x6c0|      00                                       |  .             |                  n: 0 (valid) 0x6c2-0x6c3 (1)
     |                                               |                |                  x[0:0]: 0x6c3-0x6c3 (0)
     |                                               |                |                e[0:3]: 0x6c3-0x6ca (7)
     |                                               |                |                  [0]{}: in 0x6c3-0x6c5 (2)
0x6c0|         20                                    |                |                    opcode: "local.get" (0x20) 0x6c3-0x6c4 (1)
0x6c0|            00                                 |    .           |                    x: 0 (valid) 0x6c4-0x6c5 (1)
     |                                               |                |                  [1]{}: in 0x6c5-0x6c9 (4)
0x6c0|               fd                              |     .          |                    opcode: "vector" (0xfd) 0x6c5-0x6c6 (1)
0x6c0|                  04                           |      .         |                    v_opcode: "v128.load16x4_u" (4) 0x6c6-0x6c7 (1)
     |                                               |                |                    m{}: 0x6c7-0x6c9 (2)
0x6c0|                     00                        |       .        |                      a: 0 (valid) 0x6c7-0x6c8 (1)
0x6c0|                        00                     |        .       |                      o: 0 (valid) 0x6c8-0x6c9 (1)
     |                                               |                |                  [2]{}: in 0x6c9-0x6ca (1)
0x6c0|                           0b                  |         .      |                    opcode: "end" (0xb) 0x6c9-0x6ca (1)
     |                                               |                |            [32]{}: code 0x6ca-0x6d3 (9)
0x6c0|                              08               |          .     |              size: 8 (valid) 0x6ca-0x6cb (1)
     |                                               |                |              code{}: 0x6cb-0x6d3 (8)
     |                                               |                |                t{}: 0x6cb-0x6cc (1)
0x6c0|                                 00            |           .    |                  n: 0 (valid) 0x6cb-0x6cc (1)
     |                                               |                |                  x[0:0]: 0x6cc-0x6cc (0)
     |                                               |                |                e[0:3]: 0x6cc-0x6d3 (7)
     |                                               |                |                  [0]{}: in 0x6cc-0x6ce (2)
0x6c0|                                    20         |                |                    opcode: "local.get" (0x20) 0x6cc-0x6cd (1)
0x6c0|                                       00      |             .  |                    x: 0 (valid) 0x6cd-0x6ce (1)
     |                                               |                |                  [1]{}: in 0x6ce-0x6d2 (4)
0x6c0|                                          fd   |              . |                    opcode: "vector" (0xfd) 0x6ce-0x6cf (1)
0x6c0|                                             04|               .|                    v_opcode: "v128.load16x4_u" (4) 0x6cf-0x6d0 (1)
     |                                               |                |                    m{}: 0x6d0-0x6d2 (2)
0x6d0|00                                             |.               |                      a: 0 (valid) 0x6d0-0x6d1 (1)
0x6d0|   00                                          | .              |                      o: 0 (valid) 0x6d1-0x6d2 (1)
     |                                               |                |                  [2]{}: in 0x6d2-0x6d3 (1)
0x6d0|      0b                                       |  .             |                    opcode: "end" (0xb) 0x6d2-0x6d3 (1)
     |                                               |                |            [33]{}: code 0x6d3-0x6dc (9)
0x6d0|         08                                    |   .            |              size: 8 (valid) 0x6d3-0x6d4 (1)
     |                                               |                |              code{}: 0x6d4-0x6dc (8)
     |                                               |                |                t{}: 0x6d4-0x6d5 (1)
0x6d0|            00                                 |    .           |                  n: 0 (valid) 0x6d4-0x6d5 (1)
     |                                               |                |                  x[0:0]: 0x6d5-0x6d5 (0)
     |                                               |                |                e[0:3]: 0x6d5-0x6dc (7)
     |                                               |                |                  [0]{}: in 0x6d5-0x6d7 (2)
0x6d0|               20                              |                |                    opcode: "local.get" (0x20) 0x6d5-0x6d6 (1)
0x6d0|                  00                           |      .         |                    x: 0 (valid) 0x6d6-0x6d7 (1)
     |                                               |                |                  [1]{}: in 0x6d7-0x6db (4)
0x6d0|                     fd                        |       .        |                    opcode: "vector" (0xfd) 0x6d7-0x6d8 (1)
0x6d0|                        04                     |        .       |                    v_opcode: "v128.load16x4_u" (4) 0x6d8-0x6d9 (1)
     |                                               |                |                    m{}: 0x6d9-0x6db (2)
0x6d0|                           00                  |         .      |                      a: 0 (valid) 0x6d9-0x6da (1)
0x6d0|                              01               |          .     |                      o: 1 (valid) 0x6da-0x6db (1)
     |                                               |                |                  [2]{}: in 0x6db-0x6dc (1)
0x6d0|                                 0b            |           .    |                    opcode: "end" (0xb) 0x6db-0x6dc (1)
     |                                               |                |            [34]{}: code 0x6dc-0x6e5 (9)
0x6d0|                                    08         |            .   |              size: 8 (valid) 0x6dc-0x6dd (1)
     |                                               |                |              code{}: 0x6dd-0x6e5 (8)
     |                                               |                |                t{}: 0x6dd-0x6de (1)
0x6d0|                                       00      |             .  |                  n: 0 (valid) 0x6dd-0x6de (1)
     |                                               |                |                  x[0:0]: 0x6de-0x6de (0)
     |                                               |                |                e[0:3]: 0x6de-0x6e5 (7)
     |                                               |                |                  [0]{}: in 0x6de-0x6e0 (2)
0x6d0|                                          20   |                |                    opcode: "local.get" (0x20) 0x6de-0x6df (1)
0x6d0|                                             00|               .|                    x: 0 (valid) 0x6df-0x6e0 (1)
     |                                               |                |                  [1]{}: in 0x6e0-0x6e4 (4)
0x6e0|fd                                             |.               |                    opcode: "vector" (0xfd) 0x6e0-0x6e1 (1)
0x6e0|   04                                          | .              |                    v_opcode: "v128.load16x4_u" (4) 0x6e1-0x6e2 (1)
     |                                               |                |                    m{}: 0x6e2-0x6e4 (2)
0x6e0|      02                                       |  .             |                      a: 2 (valid) 0x6e2-0x6e3 (1)
0x6e0|         0a                                    |   .            |                      o: 10 (valid) 0x6e3-0x6e4 (1)
     |                                               |                |                  [2]{}: in 0x6e4-0x6e5 (1)
0x6e0|            0b                                 |    .           |                    opcode: "end" (0xb) 0x6e4-0x6e5 (1)
     |                                               |                |            [35]{}: code 0x6e5-0x6ee (9)
0x6e0|               08                              |     .          |              size: 8 (valid) 0x6e5-0x6e6 (1)
     |                                               |                |              code{}: 0x6e6-0x6ee (8)
     |                                               |                |                t{}: 0x6e6-0x6e7 (1)
0x6e0|                  00                           |      .         |                  n: 0 (valid) 0x6e6-0x6e7 (1)
     |                                               |                |                  x[0:0]: 0x6e7-0x6e7 (0)
     |                                               |                |                e[0:3]: 0x6e7-0x6ee (7)
     |                                               |                |                  [0]{}: in 0x6e7-0x6e9 (2)
0x6e0|                     20                        |                |                    opcode: "local.get" (0x20) 0x6e7-0x6e8 (1)
0x6e0|                        00                     |        .       |                    x: 0 (valid) 0x6e8-0x6e9 (1)
     |                                               |                |                  [1]{}: in 0x6e9-0x6ed (4)
0x6e0|                           fd                  |         .      |                    opcode: "vector" (0xfd) 0x6e9-0x6ea (1)
0x6e0|                              04               |          .     |                    v_opcode: "v128.load16x4_u" (4) 0x6ea-0x6eb (1)
     |                                               |                |                    m{}: 0x6eb-0x6ed (2)
0x6e0|                                 03            |           .    |                      a: 3 (valid) 0x6eb-0x6ec (1)
0x6e0|                                    14         |            .   |                      o: 20 (valid) 0x6ec-0x6ed (1)
     |                                               |                |                  [2]{}: in 0x6ed-0x6ee (1)
0x6e0|                                       0b      |             .  |                    opcode: "end" (0xb) 0x6ed-0x6ee (1)
     |                                               |                |            [36]{}: code 0x6ee-0x6f7 (9)
0x6e0|                                          08   |              . |              size: 8 (valid) 0x6ee-0x6ef (1)
     |                                               |                |              code{}: 0x6ef-0x6f7 (8)
     |                                               |                |                t{}: 0x6ef-0x6f0 (1)
0x6e0|                                             00|               .|                  n: 0 (valid) 0x6ef-0x6f0 (1)
     |                                               |                |                  x[0:0]: 0x6f0-0x6f0 (0)
     |                                               |                |                e[0:3]: 0x6f0-0x6f7 (7)
     |                                               |                |                  [0]{}: in 0x6f0-0x6f2 (2)
0x6f0|20                                             |                |                    opcode: "local.get" (0x20) 0x6f0-0x6f1 (1)
0x6f0|   00                                          | .              |                    x: 0 (valid) 0x6f1-0x6f2 (1)
     |                                               |                |                  [1]{}: in 0x6f2-0x6f6 (4)
0x6f0|      fd                                       |  .             |                    opcode: "vector" (0xfd) 0x6f2-0x6f3 (1)
0x6f0|         05                                    |   .            |                    v_opcode: "v128.load32x2_s" (5) 0x6f3-0x6f4 (1)
     |                                               |                |                    m{}: 0x6f4-0x6f6 (2)
0x6f0|            03                                 |    .           |                      a: 3 (valid) 0x6f4-0x6f5 (1)
0x6f0|               00                              |     .          |                      o: 0 (valid) 0x6f5-0x6f6 (1)
     |                                               |                |                  [2]{}: in 0x6f6-0x6f7 (1)
0x6f0|                  0b                           |      .         |                    opcode: "end" (0xb) 0x6f6-0x6f7 (1)
     |                                               |                |            [37]{}: code 0x6f7-0x700 (9)
0x6f0|                     08                        |       .        |              size: 8 (valid) 0x6f7-0x6f8 (1)
     |                                               |                |              code{}: 0x6f8-0x700 (8)
     |                                               |                |                t{}: 0x6f8-0x6f9 (1)
0x6f0|                        00                     |        .       |                  n: 0 (valid) 0x6f8-0x6f9 (1)
     |                                               |                |                  x[0:0]: 0x6f9-0x6f9 (0)
     |                                               |                |                e[0:3]: 0x6f9-0x700 (7)
     |                                               |                |                  [0]{}: in 0x6f9-0x6fb (2)
0x6f0|                           20                  |                |                    opcode: "local.get" (0x20) 0x6f9-0x6fa (1)
0x6f0|                              00               |          .     |                    x: 0 (valid) 0x6fa-0x6fb (1)
     |                                               |                |                  [1]{}: in 0x6fb-0x6ff (4)
0x6f0|                                 fd            |           .    |                    opcode: "vector" (0xfd) 0x6fb-0x6fc (1)
0x6f0|                                    05         |            .   |                    v_opcode: "v128.load32x2_s" (5) 0x6fc-0x6fd (1)
     |                                               |                |                    m{}: 0x6fd-0x6ff (2)
0x6f0|                                       00      |             .  |                      a: 0 (valid) 0x6fd-0x6fe (1)
0x6f0|                                          00   |              . |                      o: 0 (valid) 0x6fe-0x6ff (1)
     |                                               |                |                  [2]{}: in 0x6ff-0x700 (1)
0x6f0|                                             0b|               .|                    opcode: "end" (0xb) 0x6ff-0x700 (1)
     |                                               |                |            [38]{}: code 0x700-0x709 (9)
0x700|08                                             |.               |              size: 8 (valid) 0x700-0x701 (1)
     |                                               |                |              code{}: 0x701-0x709 (8)
     |                                               |                |                t{}: 0x701-0x702 (1)
0x700|   00                                          | .              |                  n: 0 (valid) 0x701-0x702 (1)
     |                                               |                |                  x[0:0]: 0x702-0x702 (0)
     |                                               |                |                e[0:3]: 0x702-0x709 (7)
     |                                               |                |                  [0]{}: in 0x702-0x704 (2)
0x700|      20                                       |                |                    opcode: "local.get" (0x20) 0x702-0x703 (1)
0x700|         00                                    |   .            |                    x: 0 (valid) 0x703-0x704 (1)
     |                                               |                |                  [1]{}: in 0x704-0x708 (4)
0x700|            fd                                 |    .           |                    opcode: "vector" (0xfd) 0x704-0x705 (1)
0x700|               05                              |     .          |                    v_opcode: "v128.load32x2_s" (5) 0x705-0x706 (1)
     |                                               |                |                    m{}: 0x706-0x708 (2)
0x700|                  00                           |      .         |                      a: 0 (valid) 0x706-0x707 (1)
0x700|                     00                        |       .        |                      o: 0 (valid) 0x707-0x708 (1)
     |                                               |                |                  [2]{}: in 0x708-0x709 (1)
0x700|                        0b                     |        .       |                    opcode: "end" (0xb) 0x708-0x709 (1)
     |                                               |                |            [39]{}: code 0x709-0x712 (9)
0x700|                           08                  |         .      |              size: 8 (valid) 0x709-0x70a (1)
     |                                               |                |              code{}: 0x70a-0x712 (8)
     |                                               |                |                t{}: 0x70a-0x70b (1)
0x700|                              00               |          .     |                  n: 0 (valid) 0x70a-0x70b (1)
     |                                               |                |                  x[0:0]: 0x70b-0x70b (0)
     |                                               |                |                e[0:3]: 0x70b-0x712 (7)
     |                                               |                |                  [0]{}: in 0x70b-0x70d (2)
0x700|                                 20            |                |                    opcode: "local.get" (0x20) 0x70b-0x70c (1)
0x700|                                    00         |            .   |                    x: 0 (valid) 0x70c-0x70d (1)
     |                                               |                |                  [1]{}: in 0x70d-0x711 (4)
0x700|                                       fd      |             .  |                    opcode: "vector" (0xfd) 0x70d-0x70e (1)
0x700|                                          05   |              . |                    v_opcode: "v128.load32x2_s" (5) 0x70e-0x70f (1)
     |                                               |                |                    m{}: 0x70f-0x711 (2)
0x700|                                             00|               .|                      a: 0 (valid) 0x70f-0x710 (1)
0x710|01                                             |.               |                      o: 1 (valid) 0x710-0x711 (1)
     |                                               |                |                  [2]{}: in 0x711-0x712 (1)
0x710|   0b                                          | .              |                    opcode: "end" (0xb) 0x711-0x712 (1)
     |                                               |                |            [40]{}: code 0x712-0x71b (9)
0x710|      08                                       |  .             |              size: 8 (valid) 0x712-0x713 (1)
     |                                               |                |              code{}: 0x713-0x71b (8)
     |                                               |                |                t{}: 0x713-0x714 (1)
0x710|         00                                    |   .            |                  n: 0 (valid) 0x713-0x714 (1)
     |                                               |                |                  x[0:0]: 0x714-0x714 (0)
     |                                               |                |                e[0:3]: 0x714-0x71b (7)
     |                                               |                |                  [0]{}: in 0x714-0x716 (2)
0x710|            20                                 |                |                    opcode: "local.get" (0x20) 0x714-0x715 (1)
0x710|               00                              |     .          |                    x: 0 (valid) 0x715-0x716 (1)
     |                                               |                |                  [1]{}: in 0x716-0x71a (4)
0x710|                  fd                           |      .         |                    opcode: "vector" (0xfd) 0x716-0x717 (1)
0x710|                     05                        |       .        |                    v_opcode: "v128.load32x2_s" (5) 0x717-0x718 (1)
     |                                               |                |                    m{}: 0x718-0x71a (2)
0x710|                        02                     |        .       |                      a: 2 (valid) 0x718-0x719 (1)
0x710|                           0a                  |         .      |                      o: 10 (valid) 0x719-0x71a (1)
     |                                               |                |                  [2]{}: in 0x71a-0x71b (1)
0x710|                              0b               |          .     |                    opcode: "end" (0xb) 0x71a-0x71b (1)
     |                                               |                |            [41]{}: code 0x71b-0x724 (9)
0x710|                                 08            |           .    |              size: 8 (valid) 0x71b-0x71c (1)
     |                                               |                |              code{}: 0x71c-0x724 (8)
     |                                               |                |                t{}: 0x71c-0x71d (1)
0x710|                                    00         |            .   |                  n: 0 (valid) 0x71c-0x71d (1)
     |                                               |                |                  x[0:0]: 0x71d-0x71d (0)
     |                                               |                |                e[0:3]: 0x71d-0x724 (7)
     |                                               |                |                  [0]{}: in 0x71d-0x71f (2)
0x710|                                       20      |                |                    opcode: "local.get" (0x20) 0x71d-0x71e (1)
0x710|                                          00   |              . |                    x: 0 (valid) 0x71e-0x71f (1)
     |                                               |                |                  [1]{}: in 0x71f-0x723 (4)
0x710|                                             fd|               .|                    opcode: "vector" (0xfd) 0x71f-0x720 (1)
0x720|05                                             |.               |                    v_opcode: "v128.load32x2_s" (5) 0x720-0x721 (1)
     |                                               |                |                    m{}: 0x721-0x723 (2)
0x720|   03                                          | .              |                      a: 3 (valid) 0x721-0x722 (1)
0x720|      14                                       |  .             |                      o: 20 (valid) 0x722-0x723 (1)
     |                                               |                |                  [2]{}: in 0x723-0x724 (1)
0x720|         0b                                    |   .            |                    opcode: "end" (0xb) 0x723-0x724 (1)
     |                                               |                |            [42]{}: code 0x724-0x72d (9)
0x720|            08                                 |    .           |              size: 8 (valid) 0x724-0x725 (1)
     |                                               |                |              code{}: 0x725-0x72d (8)
     |                                               |                |                t{}: 0x725-0x726 (1)
0x720|               00                              |     .          |                  n: 0 (valid) 0x725-0x726 (1)
     |                                               |                |                  x[0:0]: 0x726-0x726 (0)
     |                                               |                |                e[0:3]: 0x726-0x72d (7)
     |                                               |                |                  [0]{}: in 0x726-0x728 (2)
0x720|                  20                           |                |                    opcode: "local.get" (0x20) 0x726-0x727 (1)
0x720|                     00                        |       .        |                    x: 0 (valid) 0x727-0x728 (1)
     |                                               |                |                  [1]{}: in 0x728-0x72c (4)
0x720|                        fd                     |        .       |                    opcode: "vector" (0xfd) 0x728-0x729 (1)
0x720|                           06                  |         .      |                    v_opcode: "v128.load32x2_u" (6) 0x729-0x72a (1)
     |                                               |                |                    m{}: 0x72a-0x72c (2)
0x720|                              03               |          .     |                      a: 3 (valid) 0x72a-0x72b (1)
0x720|                                 00            |           .    |                      o: 0 (valid) 0x72b-0x72c (1)
     |                                               |                |                  [2]{}: in 0x72c-0x72d (1)
0x720|                                    0b         |            .   |                    opcode: "end" (0xb) 0x72c-0x72d (1)
     |                                               |                |            [43]{}: code 0x72d-0x736 (9)
0x720|                                       08      |             .  |              size: 8 (valid) 0x72d-0x72e (1)
     |                                               |                |              code{}: 0x72e-0x736 (8)
     |                                               |                |                t{}: 0x72e-0x72f (1)
0x720|                                          00   |              . |                  n: 0 (valid) 0x72e-0x72f (1)
     |                                               |                |                  x[0:0]: 0x72f-0x72f (0)
     |                                               |                |                e[0:3]: 0x72f-0x736 (7)
     |                                               |                |                  [0]{}: in 0x72f-0x731 (2)
0x720|                                             20|                |                    opcode: "local.get" (0x20) 0x72f-0x730 (1)
0x730|00                                             |.               |                    x: 0 (valid) 0x730-0x731 (1)
     |                                               |                |                  [1]{}: in 0x731-0x735 (4)
0x730|   fd                                          | .              |                    opcode: "vector" (0xfd) 0x731-0x732 (1)
0x730|      06                                       |  .             |                    v_opcode: "v128.load32x2_u" (6) 0x732-0x733 (1)
     |                                               |                |                    m{}: 0x733-0x735 (2)
0x730|         00                                    |   .            |                      a: 0 (valid) 0x733-0x734 (1)
0x730|            00                                 |    .           |                      o: 0 (valid) 0x734-0x735 (1)
     |                                               |                |                  [2]{}: in 0x735-0x736 (1)
0x730|               0b                              |     .          |                    opcode: "end" (0xb) 0x735-0x736 (1)
     |                                               |                |            [44]{}: code 0x736-0x73f (9)
0x730|                  08                           |      .         |              size: 8 (valid) 0x736-0x737 (1)
     |                                               |                |              code{}: 0x737-0x73f (8)
     |                                               |                |                t{}: 0x737-0x738 (1)
0x730|                     00                        |       .        |                  n: 0 (valid) 0x737-0x738 (1)
     |                                               |                |                  x[0:0]: 0x738-0x738 (0)
     |                                               |                |                e[0:3]: 0x738-0x73f (7)
     |                                               |                |                  [0]{}: in 0x738-0x73a (2)
0x730|                        20                     |                |                    opcode: "local.get" (0x20) 0x738-0x739 (1)
0x730|                           00                  |         .      |                    x: 0 (valid) 0x739-0x73a (1)
     |                                               |                |                  [1]{}: in 0x73a-0x73e (4)
0x730|                              fd               |          .     |                    opcode: "vector" (0xfd) 0x73a-0x73b (1)
0x730|                                 06            |           .    |                    v_opcode: "v128.load32x2_u" (6) 0x73b-0x73c (1)
     |                                               |                |                    m{}: 0x73c-0x73e (2)
0x730|                                    00         |            .   |                      a: 0 (valid) 0x73c-0x73d (1)
0x730|                                       00      |             .  |                      o: 0 (valid) 0x73d-0x73e (1)
     |                                               |                |                  [2]{}: in 0x73e-0x73f (1)
0x730|                                          0b   |              . |                    opcode: "end" (0xb) 0x73e-0x73f (1)
     |                                               |                |            [45]{}: code 0x73f-0x748 (9)
0x730|                                             08|               .|              size: 8 (valid) 0x73f-0x740 (1)
     |                                               |                |              code{}: 0x740-0x748 (8)
     |                                               |                |                t{}: 0x740-0x741 (1)
0x740|00                                             |.               |                  n: 0 (valid) 0x740-0x741 (1)
     |                                               |                |                  x[0:0]: 0x741-0x741 (0)
     |                                               |                |                e[0:3]: 0x741-0x748 (7)
     |                                               |                |                  [0]{}: in 0x741-0x743 (2)
0x740|   20                                          |                |                    opcode: "local.get" (0x20) 0x741-0x742 (1)
0x740|      00                                       |  .             |                    x: 0 (valid) 0x742-0x743 (1)
     |                                               |                |                  [1]{}: in 0x743-0x747 (4)
0x740|         fd                                    |   .            |                    opcode: "vector" (0xfd) 0x743-0x744 (1)
0x740|            06                                 |    .           |                    v_opcode: "v128.load32x2_u" (6) 0x744-0x745 (1)
     |                                               |                |                    m{}: 0x745-0x747 (2)
0x740|               00                              |     .          |                      a: 0 (valid) 0x745-0x746 (1)
0x740|                  01                           |      .         |                      o: 1 (valid) 0x746-0x747 (1)
     |                                               |                |                  [2]{}: in 0x747-0x748 (1)
0x740|                     0b                        |       .        |                    opcode: "end" (0xb) 0x747-0x748 (1)
     |                                               |                |            [46]{}: code 0x748-0x751 (9)
0x740|                        08                     |        .       |              size: 8 (valid) 0x748-0x749 (1)
     |                                               |                |              code{}: 0x749-0x751 (8)
     |                                               |                |                t{}: 0x749-0x74a (1)
0x740|                           00                  |         .      |                  n: 0 (valid) 0x749-0x74a (1)
     |                                               |                |                  x[0:0]: 0x74a-0x74a (0)
     |                                               |                |                e[0:3]: 0x74a-0x751 (7)
     |                                               |                |                  [0]{}: in 0x74a-0x74c (2)
0x740|                              20               |                |                    opcode: "local.get" (0x20) 0x74a-0x74b (1)
0x740|                                 00            |           .    |                    x: 0 (valid) 0x74b-0x74c (1)
     |                                               |                |                  [1]{}: in 0x74c-0x750 (4)
0x740|                                    fd         |            .   |                    opcode: "vector" (0xfd) 0x74c-0x74d (1)
0x740|                                       06      |             .  |                    v_opcode: "v128.load32x2_u" (6) 0x74d-0x74e (1)
     |                                               |                |                    m{}: 0x74e-0x750 (2)
0x740|                                          02   |              . |                      a: 2 (valid) 0x74e-0x74f (1)
0x740|                                             0a|               .|                      o: 10 (valid) 0x74f-0x750 (1)
     |                                               |                |                  [2]{}: in 0x750-0x751 (1)
0x750|0b                                             |.               |                    opcode: "end" (0xb) 0x750-0x751 (1)
     |                                               |                |            [47]{}: code 0x751-0x75a (9)
0x750|   08                                          | .              |              size: 8 (valid) 0x751-0x752 (1)
     |                                               |                |              code{}: 0x752-0x75a (8)
     |                                               |                |                t{}: 0x752-0x753 (1)
0x750|      00                                       |  .             |                  n: 0 (valid) 0x752-0x753 (1)
     |                                               |                |                  x[0:0]: 0x753-0x753 (0)
     |                                               |                |                e[0:3]: 0x753-0x75a (7)
     |                                               |                |                  [0]{}: in 0x753-0x755 (2)
0x750|         20                                    |                |                    opcode: "local.get" (0x20) 0x753-0x754 (1)
0x750|            00                                 |    .           |                    x: 0 (valid) 0x754-0x755 (1)
     |                                               |                |                  [1]{}: in 0x755-0x759 (4)
0x750|               fd                              |     .          |                    opcode: "vector" (0xfd) 0x755-0x756 (1)
0x750|                  06                           |      .         |                    v_opcode: "v128.load32x2_u" (6) 0x756-0x757 (1)
     |                                               |                |                    m{}: 0x757-0x759 (2)
0x750|                     03                        |       .        |                      a: 3 (valid) 0x757-0x758 (1)
0x750|                        14                     |        .       |                      o: 20 (valid) 0x758-0x759 (1)
     |                                               |                |                  [2]{}: in 0x759-0x75a (1)
0x750|                           0b                  |         .      |                    opcode: "end" (0xb) 0x759-0x75a (1)
     |                                               |                |    [5]{}: section 0x75a-0x793 (57)
0x750|                              0b               |          .     |      id: "data_section" (11) 0x75a-0x75b (1)
0x750|                                 37            |           7    |      size: 55 (valid) 0x75b-0x75c (1)
     |                                               |                |      content{}: 0x75c-0x793 (55)
     |                                               |                |        seg{}: 0x75c-0x793 (55)
0x750|                                    02         |            .   |          n: 2 (valid) 0x75c-0x75d (1)
     |                                               |                |          x[0:2]: 0x75d-0x793 (54)
     |                                               |                |            [0]{}: seg 0x75d-0x77c (31)
0x750|                                       00      |             .  |              tag: 0 (valid) 0x75d-0x75e (1)
     |                                               |                |              e[0:2]: 0x75e-0x761 (3)
     |                                               |                |                [0]{}: in 0x75e-0x760 (2)
0x750|                                          41   |              A |                  opcode: "i32.const" (0x41) 0x75e-0x75f (1)
0x750|                                             00|               .|                  n: 0 (valid) 0x75f-0x760 (1)
     |                                               |                |                [1]{}: in 0x760-0x761 (1)
0x760|0b                                             |.               |                  opcode: "end" (0xb) 0x760-0x761 (1)
     |                                               |                |              b{}: 0x761-0x77c (27)
0x760|   1a                                          | .              |                n: 26 (valid) 0x761-0x762 (1)
0x760|      00 01 02 03 04 05 06 07 08 09 0a 0b 0c 0d|  ..............|                x: raw bits 0x762-0x77c (26)
0x770|0e 0f 80 81 82 83 84 85 86 87 88 89            |............    |
     |                                               |                |            [1]{}: seg 0x77c-0x793 (23)
0x770|                                    00         |            .   |              tag: 0 (valid) 0x77c-0x77d (1)
     |                                               |                |              e[0:2]: 0x77d-0x782 (5)
     |                                               |                |                [0]{}: in 0x77d-0x781 (4)
0x770|                                       41      |             A  |                  opcode: "i32.const" (0x41) 0x77d-0x77e (1)
0x770|                                          f0 ff|              ..|                  n: 65520 (valid) 0x77e-0x781 (3)
0x780|03                                             |.               |
     |                                               |                |                [1]{}: in 0x781-0x782 (1)
0x780|   0b                                          | .              |                  opcode: "end" (0xb) 0x781-0x782 (1)
     |                                               |                |              b{}: 0x782-0x793 (17)
0x780|      10                                       |  .             |                n: 16 (valid) 0x782-0x783 (1)
0x780|         0a 0b 0c 0d 0e 0f 80 81 82 83 84 85 86|   .............|                x: raw bits 0x783-0x793 (16)
0x790|87 88 89|                                      |...|            |
