$ fq -d wasm dv simd_const-302.wasm
    |00 01 02 03 04 05 06 07 08 09 0a 0b 0c 0d 0e 0f|0123456789abcdef|.{}: simd_const-302.wasm (wasm) 0x0-0xe3.7 (228)
0x00|00 61 73 6d                                    |.asm            |  magic: raw bits (valid) 0x0-0x3.7 (4)
0x00|            01 00 00 00                        |    ....        |  version: 1 0x4-0x7.7 (4)
    |                                               |                |  sections[0:5]: 0x8-0xe3.7 (220)
    |                                               |                |    [0]{}: section 0x8-0x13.7 (12)
0x00|                        01                     |        .       |      id: "type_section" (1) 0x8-0x8.7 (1)
0x00|                           0a                  |         .      |      size: 10 0x9-0x9.7 (1)
    |                                               |                |      content{}: 0xa-0x13.7 (10)
    |                                               |                |        ft{}: 0xa-0x13.7 (10)
0x00|                              02               |          .     |          n: 2 0xa-0xa.7 (1)
    |                                               |                |          x[0:2]: 0xb-0x13.7 (9)
    |                                               |                |            [0]{}: ft 0xb-0xf.7 (5)
0x00|                                 60            |           `    |              tag: 0x60 (valid) 0xb-0xb.7 (1)
    |                                               |                |              rt1{}: 0xc-0xd.7 (2)
0x00|                                    01         |            .   |                n: 1 0xc-0xc.7 (1)
    |                                               |                |                x[0:1]: 0xd-0xd.7 (1)
0x00|                                       7b      |             {  |                  [0]: "v128" (0x7b) t 0xd-0xd.7 (1)
    |                                               |                |              rt2{}: 0xe-0xf.7 (2)
0x00|                                          01   |              . |                n: 1 0xe-0xe.7 (1)
    |                                               |                |                x[0:1]: 0xf-0xf.7 (1)
0x00|                                             7b|               {|                  [0]: "v128" (0x7b) t 0xf-0xf.7 (1)
    |                                               |                |            [1]{}: ft 0x10-0x13.7 (4)
0x10|60                                             |`               |              tag: 0x60 (valid) 0x10-0x10.7 (1)
    |                                               |                |              rt1{}: 0x11-0x11.7 (1)
0x10|   00                                          | .              |                n: 0 0x11-0x11.7 (1)
    |                                               |                |                x[0:0]: 0x12-NA (0)
    |                                               |                |              rt2{}: 0x12-0x13.7 (2)
0x10|      01                                       |  .             |                n: 1 0x12-0x12.7 (1)
    |                                               |                |                x[0:1]: 0x13-0x13.7 (1)
0x10|         7b                                    |   {            |                  [0]: "v128" (0x7b) t 0x13-0x13.7 (1)
    |                                               |                |    [1]{}: section 0x14-0x1a.7 (7)
0x10|            03                                 |    .           |      id: "function_section" (3) 0x14-0x14.7 (1)
0x10|               05                              |     .          |      size: 5 0x15-0x15.7 (1)
    |                                               |                |      content{}: 0x16-0x1a.7 (5)
    |                                               |                |        x{}: 0x16-0x1a.7 (5)
0x10|                  04                           |      .         |          n: 4 0x16-0x16.7 (1)
    |                                               |                |          x[0:4]: 0x17-0x1a.7 (4)
0x10|                     00                        |       .        |            [0]: 0 x 0x17-0x17.7 (1)
0x10|                        00                     |        .       |            [1]: 0 x 0x18-0x18.7 (1)
0x10|                           00                  |         .      |            [2]: 0 x 0x19-0x19.7 (1)
0x10|                              01               |          .     |            [3]: 1 x 0x1a-0x1a.7 (1)
    |                                               |                |    [2]{}: section 0x1b-0x1f.7 (5)
0x10|                                 05            |           .    |      id: "memory_section" (5) 0x1b-0x1b.7 (1)
0x10|                                    03         |            .   |      size: 3 0x1c-0x1c.7 (1)
    |                                               |                |      content{}: 0x1d-0x1f.7 (3)
    |                                               |                |        mem{}: 0x1d-0x1f.7 (3)
0x10|                                       01      |             .  |          n: 1 0x1d-0x1d.7 (1)
    |                                               |                |          x[0:1]: 0x1e-0x1f.7 (2)
    |                                               |                |            [0]{}: mem 0x1e-0x1f.7 (2)
    |                                               |                |              lim{}: 0x1e-0x1f.7 (2)
0x10|                                          00   |              . |                tag: 0x0 0x1e-0x1e.7 (1)
0x10|                                             01|               .|                n: 1 0x1f-0x1f.7 (1)
    |                                               |                |    [3]{}: section 0x20-0x8e.7 (111)
0x20|07                                             |.               |      id: "export_section" (7) 0x20-0x20.7 (1)
0x20|   6d                                          | m              |      size: 109 0x21-0x21.7 (1)
    |                                               |                |      content{}: 0x22-0x8e.7 (109)
    |                                               |                |        ex{}: 0x22-0x8e.7 (109)
0x20|      04                                       |  .             |          n: 4 0x22-0x22.7 (1)
    |                                               |                |          x[0:4]: 0x23-0x8e.7 (108)
    |                                               |                |            [0]{}: ex 0x23-0x3f.7 (29)
    |                                               |                |              nm{}: 0x23-0x3d.7 (27)
0x20|         1a                                    |   .            |                n: 26 0x23-0x23.7 (1)
0x20|            61 73 2d 6c 6f 63 61 6c 2e 73 65 74|    as-local.set|                b: "as-local.set/get-value_0_0" 0x24-0x3d.7 (26)
0x30|2f 67 65 74 2d 76 61 6c 75 65 5f 30 5f 30      |/get-value_0_0  |
    |                                               |                |              d{}: 0x3e-0x3f.7 (2)
0x30|                                          00   |              . |                tag: "funcidx" (0x0) 0x3e-0x3e.7 (1)
0x30|                                             00|               .|                x: 0 0x3f-0x3f.7 (1)
    |                                               |                |            [1]{}: ex 0x40-0x5c.7 (29)
    |                                               |                |              nm{}: 0x40-0x5a.7 (27)
0x40|1a                                             |.               |                n: 26 0x40-0x40.7 (1)
0x40|   61 73 2d 6c 6f 63 61 6c 2e 73 65 74 2f 67 65| as-local.set/ge|                b: "as-local.set/get-value_0_1" 0x41-0x5a.7 (26)
0x50|74 2d 76 61 6c 75 65 5f 30 5f 31               |t-value_0_1     |
    |                                               |                |              d{}: 0x5b-0x5c.7 (2)
0x50|                                 00            |           .    |                tag: "funcidx" (0x0) 0x5b-0x5b.7 (1)
0x50|                                    01         |            .   |                x: 1 0x5c-0x5c.7 (1)
    |                                               |                |            [2]{}: ex 0x5d-0x79.7 (29)
    |                                               |                |              nm{}: 0x5d-0x77.7 (27)
0x50|                                       1a      |             .  |                n: 26 0x5d-0x5d.7 (1)
0x50|                                          61 73|              as|                b: "as-local.set/get-value_3_0" 0x5e-0x77.7 (26)
0x60|2d 6c 6f 63 61 6c 2e 73 65 74 2f 67 65 74 2d 76|-local.set/get-v|
0x70|61 6c 75 65 5f 33 5f 30                        |alue_3_0        |
    |                                               |                |              d{}: 0x78-0x79.7 (2)
0x70|                        00                     |        .       |                tag: "funcidx" (0x0) 0x78-0x78.7 (1)
0x70|                           02                  |         .      |                x: 2 0x79-0x79.7 (1)
    |                                               |                |            [3]{}: ex 0x7a-0x8e.7 (21)
    |                                               |                |              nm{}: 0x7a-0x8c.7 (19)
0x70|                              12               |          .     |                n: 18 0x7a-0x7a.7 (1)
0x70|                                 61 73 2d 6c 6f|           as-lo|                b: "as-local.tee-value" 0x7b-0x8c.7 (18)
0x80|63 61 6c 2e 74 65 65 2d 76 61 6c 75 65         |cal.tee-value   |
    |                                               |                |              d{}: 0x8d-0x8e.7 (2)
0x80|                                       00      |             .  |                tag: "funcidx" (0x0) 0x8d-0x8d.7 (1)
0x80|                                          03   |              . |                x: 3 0x8e-0x8e.7 (1)
    |                                               |                |    [4]{}: section 0x8f-0xe3.7 (85)
0x80|                                             0a|               .|      id: "code_section" (10) 0x8f-0x8f.7 (1)
0x90|53                                             |S               |      size: 83 0x90-0x90.7 (1)
    |                                               |                |      content{}: 0x91-0xe3.7 (83)
    |                                               |                |        code{}: 0x91-0xe3.7 (83)
0x90|   04                                          | .              |          n: 4 0x91-0x91.7 (1)
    |                                               |                |          x[0:4]: 0x92-0xe3.7 (82)
    |                                               |                |            [0]{}: code 0x92-0x9c.7 (11)
0x90|      0a                                       |  .             |              size: 10 0x92-0x92.7 (1)
    |                                               |                |              code{}: 0x93-0x9c.7 (10)
    |                                               |                |                t{}: 0x93-0x95.7 (3)
0x90|         01                                    |   .            |                  n: 1 0x93-0x93.7 (1)
    |                                               |                |                  x[0:1]: 0x94-0x95.7 (2)
    |                                               |                |                    [0]{}: t 0x94-0x95.7 (2)
0x90|            04                                 |    .           |                      n: 4 0x94-0x94.7 (1)
0x90|               7b                              |     {          |                      t: "v128" (0x7b) 0x95-0x95.7 (1)
    |                                               |                |                e[0:4]: 0x96-0x9c.7 (7)
    |                                               |                |                  [0]{}: in 0x96-0x97.7 (2)
0x90|                  20                           |                |                    opcode: "local.get" (0x20) 0x96-0x96.7 (1)
0x90|                     00                        |       .        |                    x: 0 0x97-0x97.7 (1)
    |                                               |                |                  [1]{}: in 0x98-0x99.7 (2)
0x90|                        21                     |        !       |                    opcode: "local.set" (0x21) 0x98-0x98.7 (1)
0x90|                           00                  |         .      |                    x: 0 0x99-0x99.7 (1)
    |                                               |                |                  [2]{}: in 0x9a-0x9b.7 (2)
0x90|                              20               |                |                    opcode: "local.get" (0x20) 0x9a-0x9a.7 (1)
0x90|                                 00            |           .    |                    x: 0 0x9b-0x9b.7 (1)
    |                                               |                |                  [3]{}: in 0x9c-0x9c.7 (1)
0x90|                                    0b         |            .   |                    opcode: "end" (0xb) 0x9c-0x9c.7 (1)
    |                                               |                |            [1]{}: code 0x9d-0xb3.7 (23)
0x90|                                       16      |             .  |              size: 22 0x9d-0x9d.7 (1)
    |                                               |                |              code{}: 0x9e-0xb3.7 (22)
    |                                               |                |                t{}: 0x9e-0xa0.7 (3)
0x90|                                          01   |              . |                  n: 1 0x9e-0x9e.7 (1)
    |                                               |                |                  x[0:1]: 0x9f-0xa0.7 (2)
    |                                               |                |                    [0]{}: t 0x9f-0xa0.7 (2)
0x90|                                             04|               .|                      n: 4 0x9f-0x9f.7 (1)
0xa0|7b                                             |{               |                      t: "v128" (0x7b) 0xa0-0xa0.7 (1)
    |                                               |                |                e[0:10]: 0xa1-0xb3.7 (19)
    |                                               |                |                  [0]{}: in 0xa1-0xa2.7 (2)
0xa0|   20                                          |                |                    opcode: "local.get" (0x20) 0xa1-0xa1.7 (1)
0xa0|      00                                       |  .             |                    x: 0 0xa2-0xa2.7 (1)
    |                                               |                |                  [1]{}: in 0xa3-0xa4.7 (2)
0xa0|         21                                    |   !            |                    opcode: "local.set" (0x21) 0xa3-0xa3.7 (1)
0xa0|            00                                 |    .           |                    x: 0 0xa4-0xa4.7 (1)
    |                                               |                |                  [2]{}: in 0xa5-0xa6.7 (2)
0xa0|               20                              |                |                    opcode: "local.get" (0x20) 0xa5-0xa5.7 (1)
0xa0|                  00                           |      .         |                    x: 0 0xa6-0xa6.7 (1)
    |                                               |                |                  [3]{}: in 0xa7-0xa8.7 (2)
0xa0|                     21                        |       !        |                    opcode: "local.set" (0x21) 0xa7-0xa7.7 (1)
0xa0|                        01                     |        .       |                    x: 1 0xa8-0xa8.7 (1)
    |                                               |                |                  [4]{}: in 0xa9-0xaa.7 (2)
0xa0|                           20                  |                |                    opcode: "local.get" (0x20) 0xa9-0xa9.7 (1)
0xa0|                              01               |          .     |                    x: 1 0xaa-0xaa.7 (1)
    |                                               |                |                  [5]{}: in 0xab-0xac.7 (2)
0xa0|                                 21            |           !    |                    opcode: "local.set" (0x21) 0xab-0xab.7 (1)
0xa0|                                    02         |            .   |                    x: 2 0xac-0xac.7 (1)
    |                                               |                |                  [6]{}: in 0xad-0xae.7 (2)
0xa0|                                       20      |                |                    opcode: "local.get" (0x20) 0xad-0xad.7 (1)
0xa0|                                          02   |              . |                    x: 2 0xae-0xae.7 (1)
    |                                               |                |                  [7]{}: in 0xaf-0xb0.7 (2)
0xa0|                                             21|               !|                    opcode: "local.set" (0x21) 0xaf-0xaf.7 (1)
0xb0|03                                             |.               |                    x: 3 0xb0-0xb0.7 (1)
    |                                               |                |                  [8]{}: in 0xb1-0xb2.7 (2)
0xb0|   20                                          |                |                    opcode: "local.get" (0x20) 0xb1-0xb1.7 (1)
0xb0|      00                                       |  .             |                    x: 0 0xb2-0xb2.7 (1)
    |                                               |                |                  [9]{}: in 0xb3-0xb3.7 (1)
0xb0|         0b                                    |   .            |                    opcode: "end" (0xb) 0xb3-0xb3.7 (1)
    |                                               |                |            [2]{}: code 0xb4-0xca.7 (23)
0xb0|            16                                 |    .           |              size: 22 0xb4-0xb4.7 (1)
    |                                               |                |              code{}: 0xb5-0xca.7 (22)
    |                                               |                |                t{}: 0xb5-0xb7.7 (3)
0xb0|               01                              |     .          |                  n: 1 0xb5-0xb5.7 (1)
    |                                               |                |                  x[0:1]: 0xb6-0xb7.7 (2)
    |                                               |                |                    [0]{}: t 0xb6-0xb7.7 (2)
0xb0|                  04                           |      .         |                      n: 4 0xb6-0xb6.7 (1)
0xb0|                     7b                        |       {        |                      t: "v128" (0x7b) 0xb7-0xb7.7 (1)
    |                                               |                |                e[0:10]: 0xb8-0xca.7 (19)
    |                                               |                |                  [0]{}: in 0xb8-0xb9.7 (2)
0xb0|                        20                     |                |                    opcode: "local.get" (0x20) 0xb8-0xb8.7 (1)
0xb0|                           00                  |         .      |                    x: 0 0xb9-0xb9.7 (1)
    |                                               |                |                  [1]{}: in 0xba-0xbb.7 (2)
0xb0|                              21               |          !     |                    opcode: "local.set" (0x21) 0xba-0xba.7 (1)
0xb0|                                 00            |           .    |                    x: 0 0xbb-0xbb.7 (1)
    |                                               |                |                  [2]{}: in 0xbc-0xbd.7 (2)
0xb0|                                    20         |                |                    opcode: "local.get" (0x20) 0xbc-0xbc.7 (1)
0xb0|                                       00      |             .  |                    x: 0 0xbd-0xbd.7 (1)
    |                                               |                |                  [3]{}: in 0xbe-0xbf.7 (2)
0xb0|                                          21   |              ! |                    opcode: "local.set" (0x21) 0xbe-0xbe.7 (1)
0xb0|                                             01|               .|                    x: 1 0xbf-0xbf.7 (1)
    |                                               |                |                  [4]{}: in 0xc0-0xc1.7 (2)
0xc0|20                                             |                |                    opcode: "local.get" (0x20) 0xc0-0xc0.7 (1)
0xc0|   01                                          | .              |                    x: 1 0xc1-0xc1.7 (1)
    |                                               |                |                  [5]{}: in 0xc2-0xc3.7 (2)
0xc0|      21                                       |  !             |                    opcode: "local.set" (0x21) 0xc2-0xc2.7 (1)
0xc0|         02                                    |   .            |                    x: 2 0xc3-0xc3.7 (1)
    |                                               |                |                  [6]{}: in 0xc4-0xc5.7 (2)
0xc0|            20                                 |                |                    opcode: "local.get" (0x20) 0xc4-0xc4.7 (1)
0xc0|               02                              |     .          |                    x: 2 0xc5-0xc5.7 (1)
    |                                               |                |                  [7]{}: in 0xc6-0xc7.7 (2)
0xc0|                  21                           |      !         |                    opcode: "local.set" (0x21) 0xc6-0xc6.7 (1)
0xc0|                     03                        |       .        |                    x: 3 0xc7-0xc7.7 (1)
    |                                               |                |                  [8]{}: in 0xc8-0xc9.7 (2)
0xc0|                        20                     |                |                    opcode: "local.get" (0x20) 0xc8-0xc8.7 (1)
0xc0|                           03                  |         .      |                    x: 3 0xc9-0xc9.7 (1)
    |                                               |                |                  [9]{}: in 0xca-0xca.7 (1)
0xc0|                              0b               |          .     |                    opcode: "end" (0xb) 0xca-0xca.7 (1)
    |                                               |                |            [3]{}: code 0xcb-0xe3.7 (25)
0xc0|                                 18            |           .    |              size: 24 0xcb-0xcb.7 (1)
    |                                               |                |              code{}: 0xcc-0xe3.7 (24)
    |                                               |                |                t{}: 0xcc-0xce.7 (3)
0xc0|                                    01         |            .   |                  n: 1 0xcc-0xcc.7 (1)
    |                                               |                |                  x[0:1]: 0xcd-0xce.7 (2)
    |                                               |                |                    [0]{}: t 0xcd-0xce.7 (2)
0xc0|                                       01      |             .  |                      n: 1 0xcd-0xcd.7 (1)
0xc0|                                          7b   |              { |                      t: "v128" (0x7b) 0xce-0xce.7 (1)
    |                                               |                |                e[0:3]: 0xcf-0xe3.7 (21)
    |                                               |                |                  [0]{}: in 0xcf-0xe0.7 (18)
0xc0|                                             fd|               .|                    opcode: "vector" (0xfd) 0xcf-0xcf.7 (1)
0xd0|0c                                             |.               |                    v_opcode: "v128.const" (12) 0xd0-0xd0.7 (1)
0xd0|   00 00 00 00 01 00 00 00 02 00 00 00 03 00 00| ...............|                    bytes: raw bits 0xd1-0xe0.7 (16)
0xe0|00                                             |.               |
    |                                               |                |                  [1]{}: in 0xe1-0xe2.7 (2)
0xe0|   22                                          | "              |                    opcode: "local.tee" (0x22) 0xe1-0xe1.7 (1)
0xe0|      00                                       |  .             |                    x: 0 0xe2-0xe2.7 (1)
    |                                               |                |                  [2]{}: in 0xe3-0xe3.7 (1)
0xe0|         0b|                                   |   .|           |                    opcode: "end" (0xb) 0xe3-0xe3.7 (1)
