$ fq -d wasm dv simd_store16_lane-0.wasm
     |00 01 02 03 04 05 06 07 08 09 0a 0b 0c 0d 0e 0f|0123456789abcdef|.{}: simd_store16_lane-0.wasm (wasm) 0x0-0x7c6 (1990)
0x000|00 61 73 6d                                    |.asm            |  magic: raw bits (valid) 0x0-0x4 (4)
0x000|            01 00 00 00                        |    ....        |  version: 1 0x4-0x8 (4)
     |                                               |                |  sections[0:6]: 0x8-0x7c6 (1982)
     |                                               |                |    [0]{}: section 0x8-0x16 (14)
0x000|                        01                     |        .       |      id: "type_section" (1) 0x8-0x9 (1)
0x000|                           0c                  |         .      |      size: 12 (valid) 0x9-0xa (1)
     |                                               |                |      content{}: 0xa-0x16 (12)
     |                                               |                |        ft{}: 0xa-0x16 (12)
0x000|                              02               |          .     |          n: 2 (valid) 0xa-0xb (1)
     |                                               |                |          x[0:2]: 0xb-0x16 (11)
     |                                               |                |            [0]{}: ft 0xb-0x11 (6)
0x000|                                 60            |           `    |              tag: 0x60 (valid) 0xb-0xc (1)
     |                                               |                |              rt1{}: 0xc-0xf (3)
0x000|                                    02         |            .   |                n: 2 (valid) 0xc-0xd (1)
     |                                               |                |                x[0:2]: 0xd-0xf (2)
0x000|                                       7f      |             .  |                  [0]: "i32" (0x7f) t 0xd-0xe (1)
0x000|                                          7b   |              { |                  [1]: "v128" (0x7b) t 0xe-0xf (1)
     |                                               |                |              rt2{}: 0xf-0x11 (2)
0x000|                                             01|               .|                n: 1 (valid) 0xf-0x10 (1)
     |                                               |                |                x[0:1]: 0x10-0x11 (1)
0x010|7e                                             |~               |                  [0]: "i64" (0x7e) t 0x10-0x11 (1)
     |                                               |                |            [1]{}: ft 0x11-0x16 (5)
0x010|   60                                          | `              |              tag: 0x60 (valid) 0x11-0x12 (1)
     |                                               |                |              rt1{}: 0x12-0x14 (2)
0x010|      01                                       |  .             |                n: 1 (valid) 0x12-0x13 (1)
     |                                               |                |                x[0:1]: 0x13-0x14 (1)
0x010|         7b                                    |   {            |                  [0]: "v128" (0x7b) t 0x13-0x14 (1)
     |                                               |                |              rt2{}: 0x14-0x16 (2)
0x010|            01                                 |    .           |                n: 1 (valid) 0x14-0x15 (1)
     |                                               |                |                x[0:1]: 0x15-0x16 (1)
0x010|               7e                              |     ~          |                  [0]: "i64" (0x7e) t 0x15-0x16 (1)
     |                                               |                |    [1]{}: section 0x16-0x39 (35)
0x010|                  03                           |      .         |      id: "function_section" (3) 0x16-0x17 (1)
0x010|                     21                        |       !        |      size: 33 (valid) 0x17-0x18 (1)
     |                                               |                |      content{}: 0x18-0x39 (33)
     |                                               |                |        x{}: 0x18-0x39 (33)
0x010|                        20                     |                |          n: 32 (valid) 0x18-0x19 (1)
     |                                               |                |          x[0:32]: 0x19-0x39 (32)
0x010|                           00                  |         .      |            [0]: 0 x (valid) 0x19-0x1a (1)
0x010|                              00               |          .     |            [1]: 0 x (valid) 0x1a-0x1b (1)
0x010|                                 00            |           .    |            [2]: 0 x (valid) 0x1b-0x1c (1)
0x010|                                    00         |            .   |            [3]: 0 x (valid) 0x1c-0x1d (1)
0x010|                                       00      |             .  |            [4]: 0 x (valid) 0x1d-0x1e (1)
0x010|                                          00   |              . |            [5]: 0 x (valid) 0x1e-0x1f (1)
0x010|                                             00|               .|            [6]: 0 x (valid) 0x1f-0x20 (1)
0x020|00                                             |.               |            [7]: 0 x (valid) 0x20-0x21 (1)
0x020|   01                                          | .              |            [8]: 1 x (valid) 0x21-0x22 (1)
0x020|      01                                       |  .             |            [9]: 1 x (valid) 0x22-0x23 (1)
0x020|         01                                    |   .            |            [10]: 1 x (valid) 0x23-0x24 (1)
0x020|            01                                 |    .           |            [11]: 1 x (valid) 0x24-0x25 (1)
0x020|               01                              |     .          |            [12]: 1 x (valid) 0x25-0x26 (1)
0x020|                  01                           |      .         |            [13]: 1 x (valid) 0x26-0x27 (1)
0x020|                     01                        |       .        |            [14]: 1 x (valid) 0x27-0x28 (1)
0x020|                        01                     |        .       |            [15]: 1 x (valid) 0x28-0x29 (1)
0x020|                           00                  |         .      |            [16]: 0 x (valid) 0x29-0x2a (1)
0x020|                              00               |          .     |            [17]: 0 x (valid) 0x2a-0x2b (1)
0x020|                                 00            |           .    |            [18]: 0 x (valid) 0x2b-0x2c (1)
0x020|                                    00         |            .   |            [19]: 0 x (valid) 0x2c-0x2d (1)
0x020|                                       00      |             .  |            [20]: 0 x (valid) 0x2d-0x2e (1)
0x020|                                          00   |              . |            [21]: 0 x (valid) 0x2e-0x2f (1)
0x020|                                             00|               .|            [22]: 0 x (valid) 0x2f-0x30 (1)
0x030|00                                             |.               |            [23]: 0 x (valid) 0x30-0x31 (1)
0x030|   00                                          | .              |            [24]: 0 x (valid) 0x31-0x32 (1)
0x030|      00                                       |  .             |            [25]: 0 x (valid) 0x32-0x33 (1)
0x030|         00                                    |   .            |            [26]: 0 x (valid) 0x33-0x34 (1)
0x030|            00                                 |    .           |            [27]: 0 x (valid) 0x34-0x35 (1)
0x030|               00                              |     .          |            [28]: 0 x (valid) 0x35-0x36 (1)
0x030|                  00                           |      .         |            [29]: 0 x (valid) 0x36-0x37 (1)
0x030|                     00                        |       .        |            [30]: 0 x (valid) 0x37-0x38 (1)
0x030|                        00                     |        .       |            [31]: 0 x (valid) 0x38-0x39 (1)
     |                                               |                |    [2]{}: section 0x39-0x3e (5)
0x030|                           05                  |         .      |      id: "memory_section" (5) 0x39-0x3a (1)
0x030|                              03               |          .     |      size: 3 (valid) 0x3a-0x3b (1)
     |                                               |                |      content{}: 0x3b-0x3e (3)
     |                                               |                |        mem{}: 0x3b-0x3e (3)
0x030|                                 01            |           .    |          n: 1 (valid) 0x3b-0x3c (1)
     |                                               |                |          x[0:1]: 0x3c-0x3e (2)
     |                                               |                |            [0]{}: mem 0x3c-0x3e (2)
     |                                               |                |              lim{}: 0x3c-0x3e (2)
0x030|                                    00         |            .   |                tag: 0x0 0x3c-0x3d (1)
0x030|                                       01      |             .  |                n: 1 (valid) 0x3d-0x3e (1)
     |                                               |                |    [3]{}: section 0x3e-0x56 (24)
0x030|                                          06   |              . |      id: "global_section" (6) 0x3e-0x3f (1)
0x030|                                             16|               .|      size: 22 (valid) 0x3f-0x40 (1)
     |                                               |                |      content{}: 0x40-0x56 (22)
     |                                               |                |        glob{}: 0x40-0x56 (22)
0x040|01                                             |.               |          n: 1 (valid) 0x40-0x41 (1)
     |                                               |                |          x[0:1]: 0x41-0x56 (21)
     |                                               |                |            [0]{}: glob 0x41-0x56 (21)
     |                                               |                |              gt{}: 0x41-0x43 (2)
0x040|   7b                                          | {              |                t: "v128" (0x7b) 0x41-0x42 (1)
0x040|      01                                       |  .             |                m: "var" (1) 0x42-0x43 (1)
     |                                               |                |              e[0:2]: 0x43-0x56 (19)
     |                                               |                |                [0]{}: in 0x43-0x55 (18)
0x040|         fd                                    |   .            |                  opcode: "vector" (0xfd) 0x43-0x44 (1)
0x040|            0c                                 |    .           |                  v_opcode: "v128.const" (12) 0x44-0x45 (1)
0x040|               00 00 00 00 00 00 00 00 00 00 00|     ...........|                  bytes: raw bits 0x45-0x55 (16)
0x050|00 00 00 00 00                                 |.....           |
     |                                               |                |                [1]{}: in 0x55-0x56 (1)
0x050|               0b                              |     .          |                  opcode: "end" (0xb) 0x55-0x56 (1)
     |                                               |                |    [4]{}: section 0x56-0x3e2 (908)
0x050|                  07                           |      .         |      id: "export_section" (7) 0x56-0x57 (1)
0x050|                     89 07                     |       ..       |      size: 905 (valid) 0x57-0x59 (2)
     |                                               |                |      content{}: 0x59-0x3e2 (905)
     |                                               |                |        ex{}: 0x59-0x3e2 (905)
0x050|                           20                  |                |          n: 32 (valid) 0x59-0x5a (1)
     |                                               |                |          x[0:32]: 0x5a-0x3e2 (904)
     |                                               |                |            [0]{}: ex 0x5a-0x70 (22)
     |                                               |                |              nm{}: 0x5a-0x6e (20)
0x050|                              13               |          .     |                n: 19 (valid) 0x5a-0x5b (1)
0x050|                                 76 31 32 38 2e|           v128.|                b: "v128.store16_lane_0" 0x5b-0x6e (19)
0x060|73 74 6f 72 65 31 36 5f 6c 61 6e 65 5f 30      |store16_lane_0  |
     |                                               |                |              d{}: 0x6e-0x70 (2)
0x060|                                          00   |              . |                tag: "funcidx" (0x0) 0x6e-0x6f (1)
0x060|                                             00|               .|                x: 0 (valid) 0x6f-0x70 (1)
     |                                               |                |            [1]{}: ex 0x70-0x86 (22)
     |                                               |                |              nm{}: 0x70-0x84 (20)
0x070|13                                             |.               |                n: 19 (valid) 0x70-0x71 (1)
0x070|   76 31 32 38 2e 73 74 6f 72 65 31 36 5f 6c 61| v128.store16_la|                b: "v128.store16_lane_1" 0x71-0x84 (19)
0x080|6e 65 5f 31                                    |ne_1            |
     |                                               |                |              d{}: 0x84-0x86 (2)
0x080|            00                                 |    .           |                tag: "funcidx" (0x0) 0x84-0x85 (1)
0x080|               01                              |     .          |                x: 1 (valid) 0x85-0x86 (1)
     |                                               |                |            [2]{}: ex 0x86-0x9c (22)
     |                                               |                |              nm{}: 0x86-0x9a (20)
0x080|                  13                           |      .         |                n: 19 (valid) 0x86-0x87 (1)
0x080|                     76 31 32 38 2e 73 74 6f 72|       v128.stor|                b: "v128.store16_lane_2" 0x87-0x9a (19)
0x090|65 31 36 5f 6c 61 6e 65 5f 32                  |e16_lane_2      |
     |                                               |                |              d{}: 0x9a-0x9c (2)
0x090|                              00               |          .     |                tag: "funcidx" (0x0) 0x9a-0x9b (1)
0x090|                                 02            |           .    |                x: 2 (valid) 0x9b-0x9c (1)
     |                                               |                |            [3]{}: ex 0x9c-0xb2 (22)
     |                                               |                |              nm{}: 0x9c-0xb0 (20)
0x090|                                    13         |            .   |                n: 19 (valid) 0x9c-0x9d (1)
0x090|                                       76 31 32|             v12|                b: "v128.store16_lane_3" 0x9d-0xb0 (19)
0x0a0|38 2e 73 74 6f 72 65 31 36 5f 6c 61 6e 65 5f 33|8.store16_lane_3|
     |                                               |                |              d{}: 0xb0-0xb2 (2)
0x0b0|00                                             |.               |                tag: "funcidx" (0x0) 0xb0-0xb1 (1)
0x0b0|   03                                          | .              |                x: 3 (valid) 0xb1-0xb2 (1)
     |                                               |                |            [4]{}: ex 0xb2-0xc8 (22)
     |                                               |                |              nm{}: 0xb2-0xc6 (20)
0x0b0|      13                                       |  .             |                n: 19 (valid) 0xb2-0xb3 (1)
0x0b0|         76 31 32 38 2e 73 74 6f 72 65 31 36 5f|   v128.store16_|                b: "v128.store16_lane_4" 0xb3-0xc6 (19)
0x0c0|6c 61 6e 65 5f 34                              |lane_4          |
     |                                               |                |              d{}: 0xc6-0xc8 (2)
0x0c0|                  00                           |      .         |                tag: "funcidx" (0x0) 0xc6-0xc7 (1)
0x0c0|                     04                        |       .        |                x: 4 (valid) 0xc7-0xc8 (1)
     |                                               |                |            [5]{}: ex 0xc8-0xde (22)
     |                                               |                |              nm{}: 0xc8-0xdc (20)
0x0c0|                        13                     |        .       |                n: 19 (valid) 0xc8-0xc9 (1)
0x0c0|                           76 31 32 38 2e 73 74|         v128.st|                b: "v128.store16_lane_5" 0xc9-0xdc (19)
0x0d0|6f 72 65 31 36 5f 6c 61 6e 65 5f 35            |ore16_lane_5    |
     |                                               |                |              d{}: 0xdc-0xde (2)
0x0d0|                                    00         |            .   |                tag: "funcidx" (0x0) 0xdc-0xdd (1)
0x0d0|                                       05      |             .  |                x: 5 (valid) 0xdd-0xde (1)
     |                                               |                |            [6]{}: ex 0xde-0xf4 (22)
     |                                               |                |              nm{}: 0xde-0xf2 (20)
0x0d0|                                          13   |              . |                n: 19 (valid) 0xde-0xdf (1)
0x0d0|                                             76|               v|                b: "v128.store16_lane_6" 0xdf-0xf2 (19)
0x0e0|31 32 38 2e 73 74 6f 72 65 31 36 5f 6c 61 6e 65|128.store16_lane|
0x0f0|5f 36                                          |_6              |
     |                                               |                |              d{}: 0xf2-0xf4 (2)
0x0f0|      00                                       |  .             |                tag: "funcidx" (0x0) 0xf2-0xf3 (1)
0x0f0|         06                                    |   .            |                x: 6 (valid) 0xf3-0xf4 (1)
     |                                               |                |            [7]{}: ex 0xf4-0x10a (22)
     |                                               |                |              nm{}: 0xf4-0x108 (20)
0x0f0|            13                                 |    .           |                n: 19 (valid) 0xf4-0xf5 (1)
0x0f0|               76 31 32 38 2e 73 74 6f 72 65 31|     v128.store1|                b: "v128.store16_lane_7" 0xf5-0x108 (19)
0x100|36 5f 6c 61 6e 65 5f 37                        |6_lane_7        |
     |                                               |                |              d{}: 0x108-0x10a (2)
0x100|                        00                     |        .       |                tag: "funcidx" (0x0) 0x108-0x109 (1)
0x100|                           07                  |         .      |                x: 7 (valid) 0x109-0x10a (1)
     |                                               |                |            [8]{}: ex 0x10a-0x129 (31)
     |                                               |                |              nm{}: 0x10a-0x127 (29)
0x100|                              1c               |          .     |                n: 28 (valid) 0x10a-0x10b (1)
0x100|                                 76 31 32 38 2e|           v128.|                b: "v128.store16_lane_0_offset_0" 0x10b-0x127 (28)
0x110|73 74 6f 72 65 31 36 5f 6c 61 6e 65 5f 30 5f 6f|store16_lane_0_o|
0x120|66 66 73 65 74 5f 30                           |ffset_0         |
     |                                               |                |              d{}: 0x127-0x129 (2)
0x120|                     00                        |       .        |                tag: "funcidx" (0x0) 0x127-0x128 (1)
0x120|                        08                     |        .       |                x: 8 (valid) 0x128-0x129 (1)
     |                                               |                |            [9]{}: ex 0x129-0x148 (31)
     |                                               |                |              nm{}: 0x129-0x146 (29)
0x120|                           1c                  |         .      |                n: 28 (valid) 0x129-0x12a (1)
0x120|                              76 31 32 38 2e 73|          v128.s|                b: "v128.store16_lane_1_offset_1" 0x12a-0x146 (28)
0x130|74 6f 72 65 31 36 5f 6c 61 6e 65 5f 31 5f 6f 66|tore16_lane_1_of|
0x140|66 73 65 74 5f 31                              |fset_1          |
     |                                               |                |              d{}: 0x146-0x148 (2)
0x140|                  00                           |      .         |                tag: "funcidx" (0x0) 0x146-0x147 (1)
0x140|                     09                        |       .        |                x: 9 (valid) 0x147-0x148 (1)
     |                                               |                |            [10]{}: ex 0x148-0x167 (31)
     |                                               |                |              nm{}: 0x148-0x165 (29)
0x140|                        1c                     |        .       |                n: 28 (valid) 0x148-0x149 (1)
0x140|                           76 31 32 38 2e 73 74|         v128.st|                b: "v128.store16_lane_2_offset_2" 0x149-0x165 (28)
0x150|6f 72 65 31 36 5f 6c 61 6e 65 5f 32 5f 6f 66 66|ore16_lane_2_off|
0x160|73 65 74 5f 32                                 |set_2           |
     |                                               |                |              d{}: 0x165-0x167 (2)
0x160|               00                              |     .          |                tag: "funcidx" (0x0) 0x165-0x166 (1)
0x160|                  0a                           |      .         |                x: 10 (valid) 0x166-0x167 (1)
     |                                               |                |            [11]{}: ex 0x167-0x186 (31)
     |                                               |                |              nm{}: 0x167-0x184 (29)
0x160|                     1c                        |       .        |                n: 28 (valid) 0x167-0x168 (1)
0x160|                        76 31 32 38 2e 73 74 6f|        v128.sto|                b: "v128.store16_lane_3_offset_3" 0x168-0x184 (28)
0x170|72 65 31 36 5f 6c 61 6e 65 5f 33 5f 6f 66 66 73|re16_lane_3_offs|
0x180|65 74 5f 33                                    |et_3            |
     |                                               |                |              d{}: 0x184-0x186 (2)
0x180|            00                                 |    .           |                tag: "funcidx" (0x0) 0x184-0x185 (1)
0x180|               0b                              |     .          |                x: 11 (valid) 0x185-0x186 (1)
     |                                               |                |            [12]{}: ex 0x186-0x1a5 (31)
     |                                               |                |              nm{}: 0x186-0x1a3 (29)
0x180|                  1c                           |      .         |                n: 28 (valid) 0x186-0x187 (1)
0x180|                     76 31 32 38 2e 73 74 6f 72|       v128.stor|                b: "v128.store16_lane_4_offset_4" 0x187-0x1a3 (28)
0x190|65 31 36 5f 6c 61 6e 65 5f 34 5f 6f 66 66 73 65|e16_lane_4_offse|
0x1a0|74 5f 34                                       |t_4             |
     |                                               |                |              d{}: 0x1a3-0x1a5 (2)
0x1a0|         00                                    |   .            |                tag: "funcidx" (0x0) 0x1a3-0x1a4 (1)
0x1a0|            0c                                 |    .           |                x: 12 (valid) 0x1a4-0x1a5 (1)
     |                                               |                |            [13]{}: ex 0x1a5-0x1c4 (31)
     |                                               |                |              nm{}: 0x1a5-0x1c2 (29)
0x1a0|               1c                              |     .          |                n: 28 (valid) 0x1a5-0x1a6 (1)
0x1a0|                  76 31 32 38 2e 73 74 6f 72 65|      v128.store|                b: "v128.store16_lane_5_offset_5" 0x1a6-0x1c2 (28)
0x1b0|31 36 5f 6c 61 6e 65 5f 35 5f 6f 66 66 73 65 74|16_lane_5_offset|
0x1c0|5f 35                                          |_5              |
     |                                               |                |              d{}: 0x1c2-0x1c4 (2)
0x1c0|      00                                       |  .             |                tag: "funcidx" (0x0) 0x1c2-0x1c3 (1)
0x1c0|         0d                                    |   .            |                x: 13 (valid) 0x1c3-0x1c4 (1)
     |                                               |                |            [14]{}: ex 0x1c4-0x1e3 (31)
     |                                               |                |              nm{}: 0x1c4-0x1e1 (29)
0x1c0|            1c                                 |    .           |                n: 28 (valid) 0x1c4-0x1c5 (1)
0x1c0|               76 31 32 38 2e 73 74 6f 72 65 31|     v128.store1|                b: "v128.store16_lane_6_offset_6" 0x1c5-0x1e1 (28)
0x1d0|36 5f 6c 61 6e 65 5f 36 5f 6f 66 66 73 65 74 5f|6_lane_6_offset_|
0x1e0|36                                             |6               |
     |                                               |                |              d{}: 0x1e1-0x1e3 (2)
0x1e0|   00                                          | .              |                tag: "funcidx" (0x0) 0x1e1-0x1e2 (1)
0x1e0|      0e                                       |  .             |                x: 14 (valid) 0x1e2-0x1e3 (1)
     |                                               |                |            [15]{}: ex 0x1e3-0x202 (31)
     |                                               |                |              nm{}: 0x1e3-0x200 (29)
0x1e0|         1c                                    |   .            |                n: 28 (valid) 0x1e3-0x1e4 (1)
0x1e0|            76 31 32 38 2e 73 74 6f 72 65 31 36|    v128.store16|                b: "v128.store16_lane_7_offset_7" 0x1e4-0x200 (28)
0x1f0|5f 6c 61 6e 65 5f 37 5f 6f 66 66 73 65 74 5f 37|_lane_7_offset_7|
     |                                               |                |              d{}: 0x200-0x202 (2)
0x200|00                                             |.               |                tag: "funcidx" (0x0) 0x200-0x201 (1)
0x200|   0f                                          | .              |                x: 15 (valid) 0x201-0x202 (1)
     |                                               |                |            [16]{}: ex 0x202-0x220 (30)
     |                                               |                |              nm{}: 0x202-0x21e (28)
0x200|      1b                                       |  .             |                n: 27 (valid) 0x202-0x203 (1)
0x200|         76 31 32 38 2e 73 74 6f 72 65 31 36 5f|   v128.store16_|                b: "v128.store16_lane_0_align_1" 0x203-0x21e (27)
0x210|6c 61 6e 65 5f 30 5f 61 6c 69 67 6e 5f 31      |lane_0_align_1  |
     |                                               |                |              d{}: 0x21e-0x220 (2)
0x210|                                          00   |              . |                tag: "funcidx" (0x0) 0x21e-0x21f (1)
0x210|                                             10|               .|                x: 16 (valid) 0x21f-0x220 (1)
     |                                               |                |            [17]{}: ex 0x220-0x23e (30)
     |                                               |                |              nm{}: 0x220-0x23c (28)
0x220|1b                                             |.               |                n: 27 (valid) 0x220-0x221 (1)
0x220|   76 31 32 38 2e 73 74 6f 72 65 31 36 5f 6c 61| v128.store16_la|                b: "v128.store16_lane_0_align_2" 0x221-0x23c (27)
0x230|6e 65 5f 30 5f 61 6c 69 67 6e 5f 32            |ne_0_align_2    |
     |                                               |                |              d{}: 0x23c-0x23e (2)
0x230|                                    00         |            .   |                tag: "funcidx" (0x0) 0x23c-0x23d (1)
0x230|                                       11      |             .  |                x: 17 (valid) 0x23d-0x23e (1)
     |                                               |                |            [18]{}: ex 0x23e-0x25c (30)
     |                                               |                |              nm{}: 0x23e-0x25a (28)
0x230|                                          1b   |              . |                n: 27 (valid) 0x23e-0x23f (1)
0x230|                                             76|               v|                b: "v128.store16_lane_1_align_1" 0x23f-0x25a (27)
0x240|31 32 38 2e 73 74 6f 72 65 31 36 5f 6c 61 6e 65|128.store16_lane|
0x250|5f 31 5f 61 6c 69 67 6e 5f 31                  |_1_align_1      |
     |                                               |                |              d{}: 0x25a-0x25c (2)
0x250|                              00               |          .     |                tag: "funcidx" (0x0) 0x25a-0x25b (1)
0x250|                                 12            |           .    |                x: 18 (valid) 0x25b-0x25c (1)
     |                                               |                |            [19]{}: ex 0x25c-0x27a (30)
     |                                               |                |              nm{}: 0x25c-0x278 (28)
0x250|                                    1b         |            .   |                n: 27 (valid) 0x25c-0x25d (1)
0x250|                                       76 31 32|             v12|                b: "v128.store16_lane_1_align_2" 0x25d-0x278 (27)
0x260|38 2e 73 74 6f 72 65 31 36 5f 6c 61 6e 65 5f 31|8.store16_lane_1|
0x270|5f 61 6c 69 67 6e 5f 32                        |_align_2        |
     |                                               |                |              d{}: 0x278-0x27a (2)
0x270|                        00                     |        .       |                tag: "funcidx" (0x0) 0x278-0x279 (1)
0x270|                           13                  |         .      |                x: 19 (valid) 0x279-0x27a (1)
     |                                               |                |            [20]{}: ex 0x27a-0x298 (30)
     |                                               |                |              nm{}: 0x27a-0x296 (28)
0x270|                              1b               |          .     |                n: 27 (valid) 0x27a-0x27b (1)
0x270|                                 76 31 32 38 2e|           v128.|                b: "v128.store16_lane_2_align_1" 0x27b-0x296 (27)
0x280|73 74 6f 72 65 31 36 5f 6c 61 6e 65 5f 32 5f 61|store16_lane_2_a|
0x290|6c 69 67 6e 5f 31                              |lign_1          |
     |                                               |                |              d{}: 0x296-0x298 (2)
0x290|                  00                           |      .         |                tag: "funcidx" (0x0) 0x296-0x297 (1)
0x290|                     14                        |       .        |                x: 20 (valid) 0x297-0x298 (1)
     |                                               |                |            [21]{}: ex 0x298-0x2b6 (30)
     |                                               |                |              nm{}: 0x298-0x2b4 (28)
0x290|                        1b                     |        .       |                n: 27 (valid) 0x298-0x299 (1)
0x290|                           76 31 32 38 2e 73 74|         v128.st|                b: "v128.store16_lane_2_align_2" 0x299-0x2b4 (27)
0x2a0|6f 72 65 31 36 5f 6c 61 6e 65 5f 32 5f 61 6c 69|ore16_lane_2_ali|
0x2b0|67 6e 5f 32                                    |gn_2            |
     |                                               |                |              d{}: 0x2b4-0x2b6 (2)
0x2b0|            00                                 |    .           |                tag: "funcidx" (0x0) 0x2b4-0x2b5 (1)
0x2b0|               15                              |     .          |                x: 21 (valid) 0x2b5-0x2b6 (1)
     |                                               |                |            [22]{}: ex 0x2b6-0x2d4 (30)
     |                                               |                |              nm{}: 0x2b6-0x2d2 (28)
0x2b0|                  1b                           |      .         |                n: 27 (valid) 0x2b6-0x2b7 (1)
0x2b0|                     76 31 32 38 2e 73 74 6f 72|       v128.stor|                b: "v128.store16_lane_3_align_1" 0x2b7-0x2d2 (27)
0x2c0|65 31 36 5f 6c 61 6e 65 5f 33 5f 61 6c 69 67 6e|e16_lane_3_align|
0x2d0|5f 31                                          |_1              |
     |                                               |                |              d{}: 0x2d2-0x2d4 (2)
0x2d0|      00                                       |  .             |                tag: "funcidx" (0x0) 0x2d2-0x2d3 (1)
0x2d0|         16                                    |   .            |                x: 22 (valid) 0x2d3-0x2d4 (1)
     |                                               |                |            [23]{}: ex 0x2d4-0x2f2 (30)
     |                                               |                |              nm{}: 0x2d4-0x2f0 (28)
0x2d0|            1b                                 |    .           |                n: 27 (valid) 0x2d4-0x2d5 (1)
0x2d0|               76 31 32 38 2e 73 74 6f 72 65 31|     v128.store1|                b: "v128.store16_lane_3_align_2" 0x2d5-0x2f0 (27)
0x2e0|36 5f 6c 61 6e 65 5f 33 5f 61 6c 69 67 6e 5f 32|6_lane_3_align_2|
     |                                               |                |              d{}: 0x2f0-0x2f2 (2)
0x2f0|00                                             |.               |                tag: "funcidx" (0x0) 0x2f0-0x2f1 (1)
0x2f0|   17                                          | .              |                x: 23 (valid) 0x2f1-0x2f2 (1)
     |                                               |                |            [24]{}: ex 0x2f2-0x310 (30)
     |                                               |                |              nm{}: 0x2f2-0x30e (28)
0x2f0|      1b                                       |  .             |                n: 27 (valid) 0x2f2-0x2f3 (1)
0x2f0|         76 31 32 38 2e 73 74 6f 72 65 31 36 5f|   v128.store16_|                b: "v128.store16_lane_4_align_1" 0x2f3-0x30e (27)
0x300|6c 61 6e 65 5f 34 5f 61 6c 69 67 6e 5f 31      |lane_4_align_1  |
     |                                               |                |              d{}: 0x30e-0x310 (2)
0x300|                                          00   |              . |                tag: "funcidx" (0x0) 0x30e-0x30f (1)
0x300|                                             18|               .|                x: 24 (valid) 0x30f-0x310 (1)
     |                                               |                |            [25]{}: ex 0x310-0x32e (30)
     |                                               |                |              nm{}: 0x310-0x32c (28)
0x310|1b                                             |.               |                n: 27 (valid) 0x310-0x311 (1)
0x310|   76 31 32 38 2e 73 74 6f 72 65 31 36 5f 6c 61| v128.store16_la|                b: "v128.store16_lane_4_align_2" 0x311-0x32c (27)
0x320|6e 65 5f 34 5f 61 6c 69 67 6e 5f 32            |ne_4_align_2    |
     |                                               |                |              d{}: 0x32c-0x32e (2)
0x320|                                    00         |            .   |                tag: "funcidx" (0x0) 0x32c-0x32d (1)
0x320|                                       19      |             .  |                x: 25 (valid) 0x32d-0x32e (1)
     |                                               |                |            [26]{}: ex 0x32e-0x34c (30)
     |                                               |                |              nm{}: 0x32e-0x34a (28)
0x320|                                          1b   |              . |                n: 27 (valid) 0x32e-0x32f (1)
0x320|                                             76|               v|                b: "v128.store16_lane_5_align_1" 0x32f-0x34a (27)
0x330|31 32 38 2e 73 74 6f 72 65 31 36 5f 6c 61 6e 65|128.store16_lane|
0x340|5f 35 5f 61 6c 69 67 6e 5f 31                  |_5_align_1      |
     |                                               |                |              d{}: 0x34a-0x34c (2)
0x340|                              00               |          .     |                tag: "funcidx" (0x0) 0x34a-0x34b (1)
0x340|                                 1a            |           .    |                x: 26 (valid) 0x34b-0x34c (1)
     |                                               |                |            [27]{}: ex 0x34c-0x36a (30)
     |                                               |                |              nm{}: 0x34c-0x368 (28)
0x340|                                    1b         |            .   |                n: 27 (valid) 0x34c-0x34d (1)
0x340|                                       76 31 32|             v12|                b: "v128.store16_lane_5_align_2" 0x34d-0x368 (27)
0x350|38 2e 73 74 6f 72 65 31 36 5f 6c 61 6e 65 5f 35|8.store16_lane_5|
0x360|5f 61 6c 69 67 6e 5f 32                        |_align_2        |
     |                                               |                |              d{}: 0x368-0x36a (2)
0x360|                        00                     |        .       |                tag: "funcidx" (0x0) 0x368-0x369 (1)
0x360|                           1b                  |         .      |                x: 27 (valid) 0x369-0x36a (1)
     |                                               |                |            [28]{}: ex 0x36a-0x388 (30)
     |                                               |                |              nm{}: 0x36a-0x386 (28)
0x360|                              1b               |          .     |                n: 27 (valid) 0x36a-0x36b (1)
0x360|                                 76 31 32 38 2e|           v128.|                b: "v128.store16_lane_6_align_1" 0x36b-0x386 (27)
0x370|73 74 6f 72 65 31 36 5f 6c 61 6e 65 5f 36 5f 61|store16_lane_6_a|
0x380|6c 69 67 6e 5f 31                              |lign_1          |
     |                                               |                |              d{}: 0x386-0x388 (2)
0x380|                  00                           |      .         |                tag: "funcidx" (0x0) 0x386-0x387 (1)
0x380|                     1c                        |       .        |                x: 28 (valid) 0x387-0x388 (1)
     |                                               |                |            [29]{}: ex 0x388-0x3a6 (30)
     |                                               |                |              nm{}: 0x388-0x3a4 (28)
0x380|                        1b                     |        .       |                n: 27 (valid) 0x388-0x389 (1)
0x380|                           76 31 32 38 2e 73 74|         v128.st|                b: "v128.store16_lane_6_align_2" 0x389-0x3a4 (27)
0x390|6f 72 65 31 36 5f 6c 61 6e 65 5f 36 5f 61 6c 69|ore16_lane_6_ali|
0x3a0|67 6e 5f 32                                    |gn_2            |
     |                                               |                |              d{}: 0x3a4-0x3a6 (2)
0x3a0|            00                                 |    .           |                tag: "funcidx" (0x0) 0x3a4-0x3a5 (1)
0x3a0|               1d                              |     .          |                x: 29 (valid) 0x3a5-0x3a6 (1)
     |                                               |                |            [30]{}: ex 0x3a6-0x3c4 (30)
     |                                               |                |              nm{}: 0x3a6-0x3c2 (28)
0x3a0|                  1b                           |      .         |                n: 27 (valid) 0x3a6-0x3a7 (1)
0x3a0|                     76 31 32 38 2e 73 74 6f 72|       v128.stor|                b: "v128.store16_lane_7_align_1" 0x3a7-0x3c2 (27)
0x3b0|65 31 36 5f 6c 61 6e 65 5f 37 5f 61 6c 69 67 6e|e16_lane_7_align|
0x3c0|5f 31                                          |_1              |
     |                                               |                |              d{}: 0x3c2-0x3c4 (2)
0x3c0|      00                                       |  .             |                tag: "funcidx" (0x0) 0x3c2-0x3c3 (1)
0x3c0|         1e                                    |   .            |                x: 30 (valid) 0x3c3-0x3c4 (1)
     |                                               |                |            [31]{}: ex 0x3c4-0x3e2 (30)
     |                                               |                |              nm{}: 0x3c4-0x3e0 (28)
0x3c0|            1b                                 |    .           |                n: 27 (valid) 0x3c4-0x3c5 (1)
0x3c0|               76 31 32 38 2e 73 74 6f 72 65 31|     v128.store1|                b: "v128.store16_lane_7_align_2" 0x3c5-0x3e0 (27)
0x3d0|36 5f 6c 61 6e 65 5f 37 5f 61 6c 69 67 6e 5f 32|6_lane_7_align_2|
     |                                               |                |              d{}: 0x3e0-0x3e2 (2)
0x3e0|00                                             |.               |                tag: "funcidx" (0x0) 0x3e0-0x3e1 (1)
0x3e0|   1f                                          | .              |                x: 31 (valid) 0x3e1-0x3e2 (1)
     |                                               |                |    [5]{}: section 0x3e2-0x7c6 (996)
0x3e0|      0a                                       |  .             |      id: "code_section" (10) 0x3e2-0x3e3 (1)
0x3e0|         e1 07                                 |   ..           |      size: 993 (valid) 0x3e3-0x3e5 (2)
     |                                               |                |      content{}: 0x3e5-0x7c6 (993)
     |                                               |                |        code{}: 0x3e5-0x7c6 (993)
0x3e0|               20                              |                |          n: 32 (valid) 0x3e5-0x3e6 (1)
     |                                               |                |          x[0:32]: 0x3e6-0x7c6 (992)
     |                                               |                |            [0]{}: code 0x3e6-0x405 (31)
0x3e0|                  1e                           |      .         |              size: 30 (valid) 0x3e6-0x3e7 (1)
     |                                               |                |              code{}: 0x3e7-0x405 (30)
     |                                               |                |                t{}: 0x3e7-0x3ea (3)
0x3e0|                     01                        |       .        |                  n: 1 (valid) 0x3e7-0x3e8 (1)
     |                                               |                |                  x[0:1]: 0x3e8-0x3ea (2)
     |                                               |                |                    [0]{}: t 0x3e8-0x3ea (2)
0x3e0|                        01                     |        .       |                      n: 1 (valid) 0x3e8-0x3e9 (1)
0x3e0|                           7e                  |         ~      |                      t: "i64" (0x7e) 0x3e9-0x3ea (1)
     |                                               |                |                e[0:11]: 0x3ea-0x405 (27)
     |                                               |                |                  [0]{}: in 0x3ea-0x3ec (2)
0x3e0|                              20               |                |                    opcode: "local.get" (0x20) 0x3ea-0x3eb (1)
0x3e0|                                 00            |           .    |                    x: 0 (valid) 0x3eb-0x3ec (1)
     |                                               |                |                  [1]{}: in 0x3ec-0x3ee (2)
0x3e0|                                    20         |                |                    opcode: "local.get" (0x20) 0x3ec-0x3ed (1)
0x3e0|                                       01      |             .  |                    x: 1 (valid) 0x3ed-0x3ee (1)
     |                                               |                |                  [2]{}: in 0x3ee-0x3f3 (5)
0x3e0|                                          fd   |              . |                    opcode: "vector" (0xfd) 0x3ee-0x3ef (1)
0x3e0|                                             59|               Y|                    v_opcode: "v128.store16_lane" (89) 0x3ef-0x3f0 (1)
     |                                               |                |                    m{}: 0x3f0-0x3f2 (2)
0x3f0|01                                             |.               |                      a: 1 (valid) 0x3f0-0x3f1 (1)
0x3f0|   00                                          | .              |                      o: 0 (valid) 0x3f1-0x3f2 (1)
0x3f0|      00                                       |  .             |                    l: 0 0x3f2-0x3f3 (1)
     |                                               |                |                  [3]{}: in 0x3f3-0x3f5 (2)
0x3f0|         20                                    |                |                    opcode: "local.get" (0x20) 0x3f3-0x3f4 (1)
0x3f0|            00                                 |    .           |                    x: 0 (valid) 0x3f4-0x3f5 (1)
     |                                               |                |                  [4]{}: in 0x3f5-0x3f8 (3)
0x3f0|               29                              |     )          |                    opcode: "i64.load" (0x29) 0x3f5-0x3f6 (1)
     |                                               |                |                    m{}: 0x3f6-0x3f8 (2)
0x3f0|                  03                           |      .         |                      a: 3 (valid) 0x3f6-0x3f7 (1)
0x3f0|                     00                        |       .        |                      o: 0 (valid) 0x3f7-0x3f8 (1)
     |                                               |                |                  [5]{}: in 0x3f8-0x3fa (2)
0x3f0|                        21                     |        !       |                    opcode: "local.set" (0x21) 0x3f8-0x3f9 (1)
0x3f0|                           02                  |         .      |                    x: 2 (valid) 0x3f9-0x3fa (1)
     |                                               |                |                  [6]{}: in 0x3fa-0x3fc (2)
0x3f0|                              20               |                |                    opcode: "local.get" (0x20) 0x3fa-0x3fb (1)
0x3f0|                                 00            |           .    |                    x: 0 (valid) 0x3fb-0x3fc (1)
     |                                               |                |                  [7]{}: in 0x3fc-0x3fe (2)
0x3f0|                                    23         |            #   |                    opcode: "global.get" (0x23) 0x3fc-0x3fd (1)
0x3f0|                                       00      |             .  |                    x: 0 (valid) 0x3fd-0x3fe (1)
     |                                               |                |                  [8]{}: in 0x3fe-0x402 (4)
0x3f0|                                          fd   |              . |                    opcode: "vector" (0xfd) 0x3fe-0x3ff (1)
0x3f0|                                             0b|               .|                    v_opcode: "v128.store" (11) 0x3ff-0x400 (1)
     |                                               |                |                    m{}: 0x400-0x402 (2)
0x400|04                                             |.               |                      a: 4 (valid) 0x400-0x401 (1)
0x400|   00                                          | .              |                      o: 0 (valid) 0x401-0x402 (1)
     |                                               |                |                  [9]{}: in 0x402-0x404 (2)
0x400|      20                                       |                |                    opcode: "local.get" (0x20) 0x402-0x403 (1)
0x400|         02                                    |   .            |                    x: 2 (valid) 0x403-0x404 (1)
     |                                               |                |                  [10]{}: in 0x404-0x405 (1)
0x400|            0b                                 |    .           |                    opcode: "end" (0xb) 0x404-0x405 (1)
     |                                               |                |            [1]{}: code 0x405-0x424 (31)
0x400|               1e                              |     .          |              size: 30 (valid) 0x405-0x406 (1)
     |                                               |                |              code{}: 0x406-0x424 (30)
     |                                               |                |                t{}: 0x406-0x409 (3)
0x400|                  01                           |      .         |                  n: 1 (valid) 0x406-0x407 (1)
     |                                               |                |                  x[0:1]: 0x407-0x409 (2)
     |                                               |                |                    [0]{}: t 0x407-0x409 (2)
0x400|                     01                        |       .        |                      n: 1 (valid) 0x407-0x408 (1)
0x400|                        7e                     |        ~       |                      t: "i64" (0x7e) 0x408-0x409 (1)
     |                                               |                |                e[0:11]: 0x409-0x424 (27)
     |                                               |                |                  [0]{}: in 0x409-0x40b (2)
0x400|                           20                  |                |                    opcode: "local.get" (0x20) 0x409-0x40a (1)
0x400|                              00               |          .     |                    x: 0 (valid) 0x40a-0x40b (1)
     |                                               |                |                  [1]{}: in 0x40b-0x40d (2)
0x400|                                 20            |                |                    opcode: "local.get" (0x20) 0x40b-0x40c (1)
0x400|                                    01         |            .   |                    x: 1 (valid) 0x40c-0x40d (1)
     |                                               |                |                  [2]{}: in 0x40d-0x412 (5)
0x400|                                       fd      |             .  |                    opcode: "vector" (0xfd) 0x40d-0x40e (1)
0x400|                                          59   |              Y |                    v_opcode: "v128.store16_lane" (89) 0x40e-0x40f (1)
     |                                               |                |                    m{}: 0x40f-0x411 (2)
0x400|                                             01|               .|                      a: 1 (valid) 0x40f-0x410 (1)
0x410|00                                             |.               |                      o: 0 (valid) 0x410-0x411 (1)
0x410|   01                                          | .              |                    l: 1 0x411-0x412 (1)
     |                                               |                |                  [3]{}: in 0x412-0x414 (2)
0x410|      20                                       |                |                    opcode: "local.get" (0x20) 0x412-0x413 (1)
0x410|         00                                    |   .            |                    x: 0 (valid) 0x413-0x414 (1)
     |                                               |                |                  [4]{}: in 0x414-0x417 (3)
0x410|            29                                 |    )           |                    opcode: "i64.load" (0x29) 0x414-0x415 (1)
     |                                               |                |                    m{}: 0x415-0x417 (2)
0x410|               03                              |     .          |                      a: 3 (valid) 0x415-0x416 (1)
0x410|                  00                           |      .         |                      o: 0 (valid) 0x416-0x417 (1)
     |                                               |                |                  [5]{}: in 0x417-0x419 (2)
0x410|                     21                        |       !        |                    opcode: "local.set" (0x21) 0x417-0x418 (1)
0x410|                        02                     |        .       |                    x: 2 (valid) 0x418-0x419 (1)
     |                                               |                |                  [6]{}: in 0x419-0x41b (2)
0x410|                           20                  |                |                    opcode: "local.get" (0x20) 0x419-0x41a (1)
0x410|                              00               |          .     |                    x: 0 (valid) 0x41a-0x41b (1)
     |                                               |                |                  [7]{}: in 0x41b-0x41d (2)
0x410|                                 23            |           #    |                    opcode: "global.get" (0x23) 0x41b-0x41c (1)
0x410|                                    00         |            .   |                    x: 0 (valid) 0x41c-0x41d (1)
     |                                               |                |                  [8]{}: in 0x41d-0x421 (4)
0x410|                                       fd      |             .  |                    opcode: "vector" (0xfd) 0x41d-0x41e (1)
0x410|                                          0b   |              . |                    v_opcode: "v128.store" (11) 0x41e-0x41f (1)
     |                                               |                |                    m{}: 0x41f-0x421 (2)
0x410|                                             04|               .|                      a: 4 (valid) 0x41f-0x420 (1)
0x420|00                                             |.               |                      o: 0 (valid) 0x420-0x421 (1)
     |                                               |                |                  [9]{}: in 0x421-0x423 (2)
0x420|   20                                          |                |                    opcode: "local.get" (0x20) 0x421-0x422 (1)
0x420|      02                                       |  .             |                    x: 2 (valid) 0x422-0x423 (1)
     |                                               |                |                  [10]{}: in 0x423-0x424 (1)
0x420|         0b                                    |   .            |                    opcode: "end" (0xb) 0x423-0x424 (1)
     |                                               |                |            [2]{}: code 0x424-0x443 (31)
0x420|            1e                                 |    .           |              size: 30 (valid) 0x424-0x425 (1)
     |                                               |                |              code{}: 0x425-0x443 (30)
     |                                               |                |                t{}: 0x425-0x428 (3)
0x420|               01                              |     .          |                  n: 1 (valid) 0x425-0x426 (1)
     |                                               |                |                  x[0:1]: 0x426-0x428 (2)
     |                                               |                |                    [0]{}: t 0x426-0x428 (2)
0x420|                  01                           |      .         |                      n: 1 (valid) 0x426-0x427 (1)
0x420|                     7e                        |       ~        |                      t: "i64" (0x7e) 0x427-0x428 (1)
     |                                               |                |                e[0:11]: 0x428-0x443 (27)
     |                                               |                |                  [0]{}: in 0x428-0x42a (2)
0x420|                        20                     |                |                    opcode: "local.get" (0x20) 0x428-0x429 (1)
0x420|                           00                  |         .      |                    x: 0 (valid) 0x429-0x42a (1)
     |                                               |                |                  [1]{}: in 0x42a-0x42c (2)
0x420|                              20               |                |                    opcode: "local.get" (0x20) 0x42a-0x42b (1)
0x420|                                 01            |           .    |                    x: 1 (valid) 0x42b-0x42c (1)
     |                                               |                |                  [2]{}: in 0x42c-0x431 (5)
0x420|                                    fd         |            .   |                    opcode: "vector" (0xfd) 0x42c-0x42d (1)
0x420|                                       59      |             Y  |                    v_opcode: "v128.store16_lane" (89) 0x42d-0x42e (1)
     |                                               |                |                    m{}: 0x42e-0x430 (2)
0x420|                                          01   |              . |                      a: 1 (valid) 0x42e-0x42f (1)
0x420|                                             00|               .|                      o: 0 (valid) 0x42f-0x430 (1)
0x430|02                                             |.               |                    l: 2 0x430-0x431 (1)
     |                                               |                |                  [3]{}: in 0x431-0x433 (2)
0x430|   20                                          |                |                    opcode: "local.get" (0x20) 0x431-0x432 (1)
0x430|      00                                       |  .             |                    x: 0 (valid) 0x432-0x433 (1)
     |                                               |                |                  [4]{}: in 0x433-0x436 (3)
0x430|         29                                    |   )            |                    opcode: "i64.load" (0x29) 0x433-0x434 (1)
     |                                               |                |                    m{}: 0x434-0x436 (2)
0x430|            03                                 |    .           |                      a: 3 (valid) 0x434-0x435 (1)
0x430|               00                              |     .          |                      o: 0 (valid) 0x435-0x436 (1)
     |                                               |                |                  [5]{}: in 0x436-0x438 (2)
0x430|                  21                           |      !         |                    opcode: "local.set" (0x21) 0x436-0x437 (1)
0x430|                     02                        |       .        |                    x: 2 (valid) 0x437-0x438 (1)
     |                                               |                |                  [6]{}: in 0x438-0x43a (2)
0x430|                        20                     |                |                    opcode: "local.get" (0x20) 0x438-0x439 (1)
0x430|                           00                  |         .      |                    x: 0 (valid) 0x439-0x43a (1)
     |                                               |                |                  [7]{}: in 0x43a-0x43c (2)
0x430|                              23               |          #     |                    opcode: "global.get" (0x23) 0x43a-0x43b (1)
0x430|                                 00            |           .    |                    x: 0 (valid) 0x43b-0x43c (1)
     |                                               |                |                  [8]{}: in 0x43c-0x440 (4)
0x430|                                    fd         |            .   |                    opcode: "vector" (0xfd) 0x43c-0x43d (1)
0x430|                                       0b      |             .  |                    v_opcode: "v128.store" (11) 0x43d-0x43e (1)
     |                                               |                |                    m{}: 0x43e-0x440 (2)
0x430|                                          04   |              . |                      a: 4 (valid) 0x43e-0x43f (1)
0x430|                                             00|               .|                      o: 0 (valid) 0x43f-0x440 (1)
     |                                               |                |                  [9]{}: in 0x440-0x442 (2)
0x440|20                                             |                |                    opcode: "local.get" (0x20) 0x440-0x441 (1)
0x440|   02                                          | .              |                    x: 2 (valid) 0x441-0x442 (1)
     |                                               |                |                  [10]{}: in 0x442-0x443 (1)
0x440|      0b                                       |  .             |                    opcode: "end" (0xb) 0x442-0x443 (1)
     |                                               |                |            [3]{}: code 0x443-0x462 (31)
0x440|         1e                                    |   .            |              size: 30 (valid) 0x443-0x444 (1)
     |                                               |                |              code{}: 0x444-0x462 (30)
     |                                               |                |                t{}: 0x444-0x447 (3)
0x440|            01                                 |    .           |                  n: 1 (valid) 0x444-0x445 (1)
     |                                               |                |                  x[0:1]: 0x445-0x447 (2)
     |                                               |                |                    [0]{}: t 0x445-0x447 (2)
0x440|               01                              |     .          |                      n: 1 (valid) 0x445-0x446 (1)
0x440|                  7e                           |      ~         |                      t: "i64" (0x7e) 0x446-0x447 (1)
     |                                               |                |                e[0:11]: 0x447-0x462 (27)
     |                                               |                |                  [0]{}: in 0x447-0x449 (2)
0x440|                     20                        |                |                    opcode: "local.get" (0x20) 0x447-0x448 (1)
0x440|                        00                     |        .       |                    x: 0 (valid) 0x448-0x449 (1)
     |                                               |                |                  [1]{}: in 0x449-0x44b (2)
0x440|                           20                  |                |                    opcode: "local.get" (0x20) 0x449-0x44a (1)
0x440|                              01               |          .     |                    x: 1 (valid) 0x44a-0x44b (1)
     |                                               |                |                  [2]{}: in 0x44b-0x450 (5)
0x440|                                 fd            |           .    |                    opcode: "vector" (0xfd) 0x44b-0x44c (1)
0x440|                                    59         |            Y   |                    v_opcode: "v128.store16_lane" (89) 0x44c-0x44d (1)
     |                                               |                |                    m{}: 0x44d-0x44f (2)
0x440|                                       01      |             .  |                      a: 1 (valid) 0x44d-0x44e (1)
0x440|                                          00   |              . |                      o: 0 (valid) 0x44e-0x44f (1)
0x440|                                             03|               .|                    l: 3 0x44f-0x450 (1)
     |                                               |                |                  [3]{}: in 0x450-0x452 (2)
0x450|20                                             |                |                    opcode: "local.get" (0x20) 0x450-0x451 (1)
0x450|   00                                          | .              |                    x: 0 (valid) 0x451-0x452 (1)
     |                                               |                |                  [4]{}: in 0x452-0x455 (3)
0x450|      29                                       |  )             |                    opcode: "i64.load" (0x29) 0x452-0x453 (1)
     |                                               |                |                    m{}: 0x453-0x455 (2)
0x450|         03                                    |   .            |                      a: 3 (valid) 0x453-0x454 (1)
0x450|            00                                 |    .           |                      o: 0 (valid) 0x454-0x455 (1)
     |                                               |                |                  [5]{}: in 0x455-0x457 (2)
0x450|               21                              |     !          |                    opcode: "local.set" (0x21) 0x455-0x456 (1)
0x450|                  02                           |      .         |                    x: 2 (valid) 0x456-0x457 (1)
     |                                               |                |                  [6]{}: in 0x457-0x459 (2)
0x450|                     20                        |                |                    opcode: "local.get" (0x20) 0x457-0x458 (1)
0x450|                        00                     |        .       |                    x: 0 (valid) 0x458-0x459 (1)
     |                                               |                |                  [7]{}: in 0x459-0x45b (2)
0x450|                           23                  |         #      |                    opcode: "global.get" (0x23) 0x459-0x45a (1)
0x450|                              00               |          .     |                    x: 0 (valid) 0x45a-0x45b (1)
     |                                               |                |                  [8]{}: in 0x45b-0x45f (4)
0x450|                                 fd            |           .    |                    opcode: "vector" (0xfd) 0x45b-0x45c (1)
0x450|                                    0b         |            .   |                    v_opcode: "v128.store" (11) 0x45c-0x45d (1)
     |                                               |                |                    m{}: 0x45d-0x45f (2)
0x450|                                       04      |             .  |                      a: 4 (valid) 0x45d-0x45e (1)
0x450|                                          00   |              . |                      o: 0 (valid) 0x45e-0x45f (1)
     |                                               |                |                  [9]{}: in 0x45f-0x461 (2)
0x450|                                             20|                |                    opcode: "local.get" (0x20) 0x45f-0x460 (1)
0x460|02                                             |.               |                    x: 2 (valid) 0x460-0x461 (1)
     |                                               |                |                  [10]{}: in 0x461-0x462 (1)
0x460|   0b                                          | .              |                    opcode: "end" (0xb) 0x461-0x462 (1)
     |                                               |                |            [4]{}: code 0x462-0x481 (31)
0x460|      1e                                       |  .             |              size: 30 (valid) 0x462-0x463 (1)
     |                                               |                |              code{}: 0x463-0x481 (30)
     |                                               |                |                t{}: 0x463-0x466 (3)
0x460|         01                                    |   .            |                  n: 1 (valid) 0x463-0x464 (1)
     |                                               |                |                  x[0:1]: 0x464-0x466 (2)
     |                                               |                |                    [0]{}: t 0x464-0x466 (2)
0x460|            01                                 |    .           |                      n: 1 (valid) 0x464-0x465 (1)
0x460|               7e                              |     ~          |                      t: "i64" (0x7e) 0x465-0x466 (1)
     |                                               |                |                e[0:11]: 0x466-0x481 (27)
     |                                               |                |                  [0]{}: in 0x466-0x468 (2)
0x460|                  20                           |                |                    opcode: "local.get" (0x20) 0x466-0x467 (1)
0x460|                     00                        |       .        |                    x: 0 (valid) 0x467-0x468 (1)
     |                                               |                |                  [1]{}: in 0x468-0x46a (2)
0x460|                        20                     |                |                    opcode: "local.get" (0x20) 0x468-0x469 (1)
0x460|                           01                  |         .      |                    x: 1 (valid) 0x469-0x46a (1)
     |                                               |                |                  [2]{}: in 0x46a-0x46f (5)
0x460|                              fd               |          .     |                    opcode: "vector" (0xfd) 0x46a-0x46b (1)
0x460|                                 59            |           Y    |                    v_opcode: "v128.store16_lane" (89) 0x46b-0x46c (1)
     |                                               |                |                    m{}: 0x46c-0x46e (2)
0x460|                                    01         |            .   |                      a: 1 (valid) 0x46c-0x46d (1)
0x460|                                       00      |             .  |                      o: 0 (valid) 0x46d-0x46e (1)
0x460|                                          04   |              . |                    l: 4 0x46e-0x46f (1)
     |                                               |                |                  [3]{}: in 0x46f-0x471 (2)
0x460|                                             20|                |                    opcode: "local.get" (0x20) 0x46f-0x470 (1)
0x470|00                                             |.               |                    x: 0 (valid) 0x470-0x471 (1)
     |                                               |                |                  [4]{}: in 0x471-0x474 (3)
0x470|   29                                          | )              |                    opcode: "i64.load" (0x29) 0x471-0x472 (1)
     |                                               |                |                    m{}: 0x472-0x474 (2)
0x470|      03                                       |  .             |                      a: 3 (valid) 0x472-0x473 (1)
0x470|         00                                    |   .            |                      o: 0 (valid) 0x473-0x474 (1)
     |                                               |                |                  [5]{}: in 0x474-0x476 (2)
0x470|            21                                 |    !           |                    opcode: "local.set" (0x21) 0x474-0x475 (1)
0x470|               02                              |     .          |                    x: 2 (valid) 0x475-0x476 (1)
     |                                               |                |                  [6]{}: in 0x476-0x478 (2)
0x470|                  20                           |                |                    opcode: "local.get" (0x20) 0x476-0x477 (1)
0x470|                     00                        |       .        |                    x: 0 (valid) 0x477-0x478 (1)
     |                                               |                |                  [7]{}: in 0x478-0x47a (2)
0x470|                        23                     |        #       |                    opcode: "global.get" (0x23) 0x478-0x479 (1)
0x470|                           00                  |         .      |                    x: 0 (valid) 0x479-0x47a (1)
     |                                               |                |                  [8]{}: in 0x47a-0x47e (4)
0x470|                              fd               |          .     |                    opcode: "vector" (0xfd) 0x47a-0x47b (1)
0x470|                                 0b            |           .    |                    v_opcode: "v128.store" (11) 0x47b-0x47c (1)
     |                                               |                |                    m{}: 0x47c-0x47e (2)
0x470|                                    04         |            .   |                      a: 4 (valid) 0x47c-0x47d (1)
0x470|                                       00      |             .  |                      o: 0 (valid) 0x47d-0x47e (1)
     |                                               |                |                  [9]{}: in 0x47e-0x480 (2)
0x470|                                          20   |                |                    opcode: "local.get" (0x20) 0x47e-0x47f (1)
0x470|                                             02|               .|                    x: 2 (valid) 0x47f-0x480 (1)
     |                                               |                |                  [10]{}: in 0x480-0x481 (1)
0x480|0b                                             |.               |                    opcode: "end" (0xb) 0x480-0x481 (1)
     |                                               |                |            [5]{}: code 0x481-0x4a0 (31)
0x480|   1e                                          | .              |              size: 30 (valid) 0x481-0x482 (1)
     |                                               |                |              code{}: 0x482-0x4a0 (30)
     |                                               |                |                t{}: 0x482-0x485 (3)
0x480|      01                                       |  .             |                  n: 1 (valid) 0x482-0x483 (1)
     |                                               |                |                  x[0:1]: 0x483-0x485 (2)
     |                                               |                |                    [0]{}: t 0x483-0x485 (2)
0x480|         01                                    |   .            |                      n: 1 (valid) 0x483-0x484 (1)
0x480|            7e                                 |    ~           |                      t: "i64" (0x7e) 0x484-0x485 (1)
     |                                               |                |                e[0:11]: 0x485-0x4a0 (27)
     |                                               |                |                  [0]{}: in 0x485-0x487 (2)
0x480|               20                              |                |                    opcode: "local.get" (0x20) 0x485-0x486 (1)
0x480|                  00                           |      .         |                    x: 0 (valid) 0x486-0x487 (1)
     |                                               |                |                  [1]{}: in 0x487-0x489 (2)
0x480|                     20                        |                |                    opcode: "local.get" (0x20) 0x487-0x488 (1)
0x480|                        01                     |        .       |                    x: 1 (valid) 0x488-0x489 (1)
     |                                               |                |                  [2]{}: in 0x489-0x48e (5)
0x480|                           fd                  |         .      |                    opcode: "vector" (0xfd) 0x489-0x48a (1)
0x480|                              59               |          Y     |                    v_opcode: "v128.store16_lane" (89) 0x48a-0x48b (1)
     |                                               |                |                    m{}: 0x48b-0x48d (2)
0x480|                                 01            |           .    |                      a: 1 (valid) 0x48b-0x48c (1)
0x480|                                    00         |            .   |                      o: 0 (valid) 0x48c-0x48d (1)
0x480|                                       05      |             .  |                    l: 5 0x48d-0x48e (1)
     |                                               |                |                  [3]{}: in 0x48e-0x490 (2)
0x480|                                          20   |                |                    opcode: "local.get" (0x20) 0x48e-0x48f (1)
0x480|                                             00|               .|                    x: 0 (valid) 0x48f-0x490 (1)
     |                                               |                |                  [4]{}: in 0x490-0x493 (3)
0x490|29                                             |)               |                    opcode: "i64.load" (0x29) 0x490-0x491 (1)
     |                                               |                |                    m{}: 0x491-0x493 (2)
0x490|   03                                          | .              |                      a: 3 (valid) 0x491-0x492 (1)
0x490|      00                                       |  .             |                      o: 0 (valid) 0x492-0x493 (1)
     |                                               |                |                  [5]{}: in 0x493-0x495 (2)
0x490|         21                                    |   !            |                    opcode: "local.set" (0x21) 0x493-0x494 (1)
0x490|            02                                 |    .           |                    x: 2 (valid) 0x494-0x495 (1)
     |                                               |                |                  [6]{}: in 0x495-0x497 (2)
0x490|               20                              |                |                    opcode: "local.get" (0x20) 0x495-0x496 (1)
0x490|                  00                           |      .         |                    x: 0 (valid) 0x496-0x497 (1)
     |                                               |                |                  [7]{}: in 0x497-0x499 (2)
0x490|                     23                        |       #        |                    opcode: "global.get" (0x23) 0x497-0x498 (1)
0x490|                        00                     |        .       |                    x: 0 (valid) 0x498-0x499 (1)
     |                                               |                |                  [8]{}: in 0x499-0x49d (4)
0x490|                           fd                  |         .      |                    opcode: "vector" (0xfd) 0x499-0x49a (1)
0x490|                              0b               |          .     |                    v_opcode: "v128.store" (11) 0x49a-0x49b (1)
     |                                               |                |                    m{}: 0x49b-0x49d (2)
0x490|                                 04            |           .    |                      a: 4 (valid) 0x49b-0x49c (1)
0x490|                                    00         |            .   |                      o: 0 (valid) 0x49c-0x49d (1)
     |                                               |                |                  [9]{}: in 0x49d-0x49f (2)
0x490|                                       20      |                |                    opcode: "local.get" (0x20) 0x49d-0x49e (1)
0x490|                                          02   |              . |                    x: 2 (valid) 0x49e-0x49f (1)
     |                                               |                |                  [10]{}: in 0x49f-0x4a0 (1)
0x490|                                             0b|               .|                    opcode: "end" (0xb) 0x49f-0x4a0 (1)
     |                                               |                |            [6]{}: code 0x4a0-0x4bf (31)
0x4a0|1e                                             |.               |              size: 30 (valid) 0x4a0-0x4a1 (1)
     |                                               |                |              code{}: 0x4a1-0x4bf (30)
     |                                               |                |                t{}: 0x4a1-0x4a4 (3)
0x4a0|   01                                          | .              |                  n: 1 (valid) 0x4a1-0x4a2 (1)
     |                                               |                |                  x[0:1]: 0x4a2-0x4a4 (2)
     |                                               |                |                    [0]{}: t 0x4a2-0x4a4 (2)
0x4a0|      01                                       |  .             |                      n: 1 (valid) 0x4a2-0x4a3 (1)
0x4a0|         7e                                    |   ~            |                      t: "i64" (0x7e) 0x4a3-0x4a4 (1)
     |                                               |                |                e[0:11]: 0x4a4-0x4bf (27)
     |                                               |                |                  [0]{}: in 0x4a4-0x4a6 (2)
0x4a0|            20                                 |                |                    opcode: "local.get" (0x20) 0x4a4-0x4a5 (1)
0x4a0|               00                              |     .          |                    x: 0 (valid) 0x4a5-0x4a6 (1)
     |                                               |                |                  [1]{}: in 0x4a6-0x4a8 (2)
0x4a0|                  20                           |                |                    opcode: "local.get" (0x20) 0x4a6-0x4a7 (1)
0x4a0|                     01                        |       .        |                    x: 1 (valid) 0x4a7-0x4a8 (1)
     |                                               |                |                  [2]{}: in 0x4a8-0x4ad (5)
0x4a0|                        fd                     |        .       |                    opcode: "vector" (0xfd) 0x4a8-0x4a9 (1)
0x4a0|                           59                  |         Y      |                    v_opcode: "v128.store16_lane" (89) 0x4a9-0x4aa (1)
     |                                               |                |                    m{}: 0x4aa-0x4ac (2)
0x4a0|                              01               |          .     |                      a: 1 (valid) 0x4aa-0x4ab (1)
0x4a0|                                 00            |           .    |                      o: 0 (valid) 0x4ab-0x4ac (1)
0x4a0|                                    06         |            .   |                    l: 6 0x4ac-0x4ad (1)
     |                                               |                |                  [3]{}: in 0x4ad-0x4af (2)
0x4a0|                                       20      |                |                    opcode: "local.get" (0x20) 0x4ad-0x4ae (1)
0x4a0|                                          00   |              . |                    x: 0 (valid) 0x4ae-0x4af (1)
     |                                               |                |                  [4]{}: in 0x4af-0x4b2 (3)
0x4a0|                                             29|               )|                    opcode: "i64.load" (0x29) 0x4af-0x4b0 (1)
     |                                               |                |                    m{}: 0x4b0-0x4b2 (2)
0x4b0|03                                             |.               |                      a: 3 (valid) 0x4b0-0x4b1 (1)
0x4b0|   00                                          | .              |                      o: 0 (valid) 0x4b1-0x4b2 (1)
     |                                               |                |                  [5]{}: in 0x4b2-0x4b4 (2)
0x4b0|      21                                       |  !             |                    opcode: "local.set" (0x21) 0x4b2-0x4b3 (1)
0x4b0|         02                                    |   .            |                    x: 2 (valid) 0x4b3-0x4b4 (1)
     |                                               |                |                  [6]{}: in 0x4b4-0x4b6 (2)
0x4b0|            20                                 |                |                    opcode: "local.get" (0x20) 0x4b4-0x4b5 (1)
0x4b0|               00                              |     .          |                    x: 0 (valid) 0x4b5-0x4b6 (1)
     |                                               |                |                  [7]{}: in 0x4b6-0x4b8 (2)
0x4b0|                  23                           |      #         |                    opcode: "global.get" (0x23) 0x4b6-0x4b7 (1)
0x4b0|                     00                        |       .        |                    x: 0 (valid) 0x4b7-0x4b8 (1)
     |                                               |                |                  [8]{}: in 0x4b8-0x4bc (4)
0x4b0|                        fd                     |        .       |                    opcode: "vector" (0xfd) 0x4b8-0x4b9 (1)
0x4b0|                           0b                  |         .      |                    v_opcode: "v128.store" (11) 0x4b9-0x4ba (1)
     |                                               |                |                    m{}: 0x4ba-0x4bc (2)
0x4b0|                              04               |          .     |                      a: 4 (valid) 0x4ba-0x4bb (1)
0x4b0|                                 00            |           .    |                      o: 0 (valid) 0x4bb-0x4bc (1)
     |                                               |                |                  [9]{}: in 0x4bc-0x4be (2)
0x4b0|                                    20         |                |                    opcode: "local.get" (0x20) 0x4bc-0x4bd (1)
0x4b0|                                       02      |             .  |                    x: 2 (valid) 0x4bd-0x4be (1)
     |                                               |                |                  [10]{}: in 0x4be-0x4bf (1)
0x4b0|                                          0b   |              . |                    opcode: "end" (0xb) 0x4be-0x4bf (1)
     |                                               |                |            [7]{}: code 0x4bf-0x4de (31)
0x4b0|                                             1e|               .|              size: 30 (valid) 0x4bf-0x4c0 (1)
     |                                               |                |              code{}: 0x4c0-0x4de (30)
     |                                               |                |                t{}: 0x4c0-0x4c3 (3)
0x4c0|01                                             |.               |                  n: 1 (valid) 0x4c0-0x4c1 (1)
     |                                               |                |                  x[0:1]: 0x4c1-0x4c3 (2)
     |                                               |                |                    [0]{}: t 0x4c1-0x4c3 (2)
0x4c0|   01                                          | .              |                      n: 1 (valid) 0x4c1-0x4c2 (1)
0x4c0|      7e                                       |  ~             |                      t: "i64" (0x7e) 0x4c2-0x4c3 (1)
     |                                               |                |                e[0:11]: 0x4c3-0x4de (27)
     |                                               |                |                  [0]{}: in 0x4c3-0x4c5 (2)
0x4c0|         20                                    |                |                    opcode: "local.get" (0x20) 0x4c3-0x4c4 (1)
0x4c0|            00                                 |    .           |                    x: 0 (valid) 0x4c4-0x4c5 (1)
     |                                               |                |                  [1]{}: in 0x4c5-0x4c7 (2)
0x4c0|               20                              |                |                    opcode: "local.get" (0x20) 0x4c5-0x4c6 (1)
0x4c0|                  01                           |      .         |                    x: 1 (valid) 0x4c6-0x4c7 (1)
     |                                               |                |                  [2]{}: in 0x4c7-0x4cc (5)
0x4c0|                     fd                        |       .        |                    opcode: "vector" (0xfd) 0x4c7-0x4c8 (1)
0x4c0|                        59                     |        Y       |                    v_opcode: "v128.store16_lane" (89) 0x4c8-0x4c9 (1)
     |                                               |                |                    m{}: 0x4c9-0x4cb (2)
0x4c0|                           01                  |         .      |                      a: 1 (valid) 0x4c9-0x4ca (1)
0x4c0|                              00               |          .     |                      o: 0 (valid) 0x4ca-0x4cb (1)
0x4c0|                                 07            |           .    |                    l: 7 0x4cb-0x4cc (1)
     |                                               |                |                  [3]{}: in 0x4cc-0x4ce (2)
0x4c0|                                    20         |                |                    opcode: "local.get" (0x20) 0x4cc-0x4cd (1)
0x4c0|                                       00      |             .  |                    x: 0 (valid) 0x4cd-0x4ce (1)
     |                                               |                |                  [4]{}: in 0x4ce-0x4d1 (3)
0x4c0|                                          29   |              ) |                    opcode: "i64.load" (0x29) 0x4ce-0x4cf (1)
     |                                               |                |                    m{}: 0x4cf-0x4d1 (2)
0x4c0|                                             03|               .|                      a: 3 (valid) 0x4cf-0x4d0 (1)
0x4d0|00                                             |.               |                      o: 0 (valid) 0x4d0-0x4d1 (1)
     |                                               |                |                  [5]{}: in 0x4d1-0x4d3 (2)
0x4d0|   21                                          | !              |                    opcode: "local.set" (0x21) 0x4d1-0x4d2 (1)
0x4d0|      02                                       |  .             |                    x: 2 (valid) 0x4d2-0x4d3 (1)
     |                                               |                |                  [6]{}: in 0x4d3-0x4d5 (2)
0x4d0|         20                                    |                |                    opcode: "local.get" (0x20) 0x4d3-0x4d4 (1)
0x4d0|            00                                 |    .           |                    x: 0 (valid) 0x4d4-0x4d5 (1)
     |                                               |                |                  [7]{}: in 0x4d5-0x4d7 (2)
0x4d0|               23                              |     #          |                    opcode: "global.get" (0x23) 0x4d5-0x4d6 (1)
0x4d0|                  00                           |      .         |                    x: 0 (valid) 0x4d6-0x4d7 (1)
     |                                               |                |                  [8]{}: in 0x4d7-0x4db (4)
0x4d0|                     fd                        |       .        |                    opcode: "vector" (0xfd) 0x4d7-0x4d8 (1)
0x4d0|                        0b                     |        .       |                    v_opcode: "v128.store" (11) 0x4d8-0x4d9 (1)
     |                                               |                |                    m{}: 0x4d9-0x4db (2)
0x4d0|                           04                  |         .      |                      a: 4 (valid) 0x4d9-0x4da (1)
0x4d0|                              00               |          .     |                      o: 0 (valid) 0x4da-0x4db (1)
     |                                               |                |                  [9]{}: in 0x4db-0x4dd (2)
0x4d0|                                 20            |                |                    opcode: "local.get" (0x20) 0x4db-0x4dc (1)
0x4d0|                                    02         |            .   |                    x: 2 (valid) 0x4dc-0x4dd (1)
     |                                               |                |                  [10]{}: in 0x4dd-0x4de (1)
0x4d0|                                       0b      |             .  |                    opcode: "end" (0xb) 0x4dd-0x4de (1)
     |                                               |                |            [8]{}: code 0x4de-0x4fd (31)
0x4d0|                                          1e   |              . |              size: 30 (valid) 0x4de-0x4df (1)
     |                                               |                |              code{}: 0x4df-0x4fd (30)
     |                                               |                |                t{}: 0x4df-0x4e2 (3)
0x4d0|                                             01|               .|                  n: 1 (valid) 0x4df-0x4e0 (1)
     |                                               |                |                  x[0:1]: 0x4e0-0x4e2 (2)
     |                                               |                |                    [0]{}: t 0x4e0-0x4e2 (2)
0x4e0|01                                             |.               |                      n: 1 (valid) 0x4e0-0x4e1 (1)
0x4e0|   7e                                          | ~              |                      t: "i64" (0x7e) 0x4e1-0x4e2 (1)
     |                                               |                |                e[0:11]: 0x4e2-0x4fd (27)
     |                                               |                |                  [0]{}: in 0x4e2-0x4e4 (2)
0x4e0|      41                                       |  A             |                    opcode: "i32.const" (0x41) 0x4e2-0x4e3 (1)
0x4e0|         00                                    |   .            |                    n: 0 (valid) 0x4e3-0x4e4 (1)
     |                                               |                |                  [1]{}: in 0x4e4-0x4e6 (2)
0x4e0|            20                                 |                |                    opcode: "local.get" (0x20) 0x4e4-0x4e5 (1)
0x4e0|               00                              |     .          |                    x: 0 (valid) 0x4e5-0x4e6 (1)
     |                                               |                |                  [2]{}: in 0x4e6-0x4eb (5)
0x4e0|                  fd                           |      .         |                    opcode: "vector" (0xfd) 0x4e6-0x4e7 (1)
0x4e0|                     59                        |       Y        |                    v_opcode: "v128.store16_lane" (89) 0x4e7-0x4e8 (1)
     |                                               |                |                    m{}: 0x4e8-0x4ea (2)
0x4e0|                        01                     |        .       |                      a: 1 (valid) 0x4e8-0x4e9 (1)
0x4e0|                           00                  |         .      |                      o: 0 (valid) 0x4e9-0x4ea (1)
0x4e0|                              00               |          .     |                    l: 0 0x4ea-0x4eb (1)
     |                                               |                |                  [3]{}: in 0x4eb-0x4ed (2)
0x4e0|                                 41            |           A    |                    opcode: "i32.const" (0x41) 0x4eb-0x4ec (1)
0x4e0|                                    00         |            .   |                    n: 0 (valid) 0x4ec-0x4ed (1)
     |                                               |                |                  [4]{}: in 0x4ed-0x4f0 (3)
0x4e0|                                       29      |             )  |                    opcode: "i64.load" (0x29) 0x4ed-0x4ee (1)
     |                                               |                |                    m{}: 0x4ee-0x4f0 (2)
0x4e0|                                          03   |              . |                      a: 3 (valid) 0x4ee-0x4ef (1)
0x4e0|                                             00|               .|                      o: 0 (valid) 0x4ef-0x4f0 (1)
     |                                               |                |                  [5]{}: in 0x4f0-0x4f2 (2)
0x4f0|21                                             |!               |                    opcode: "local.set" (0x21) 0x4f0-0x4f1 (1)
0x4f0|   01                                          | .              |                    x: 1 (valid) 0x4f1-0x4f2 (1)
     |                                               |                |                  [6]{}: in 0x4f2-0x4f4 (2)
0x4f0|      41                                       |  A             |                    opcode: "i32.const" (0x41) 0x4f2-0x4f3 (1)
0x4f0|         00                                    |   .            |                    n: 0 (valid) 0x4f3-0x4f4 (1)
     |                                               |                |                  [7]{}: in 0x4f4-0x4f6 (2)
0x4f0|            23                                 |    #           |                    opcode: "global.get" (0x23) 0x4f4-0x4f5 (1)
0x4f0|               00                              |     .          |                    x: 0 (valid) 0x4f5-0x4f6 (1)
     |                                               |                |                  [8]{}: in 0x4f6-0x4fa (4)
0x4f0|                  fd                           |      .         |                    opcode: "vector" (0xfd) 0x4f6-0x4f7 (1)
0x4f0|                     0b                        |       .        |                    v_opcode: "v128.store" (11) 0x4f7-0x4f8 (1)
     |                                               |                |                    m{}: 0x4f8-0x4fa (2)
0x4f0|                        04                     |        .       |                      a: 4 (valid) 0x4f8-0x4f9 (1)
0x4f0|                           00                  |         .      |                      o: 0 (valid) 0x4f9-0x4fa (1)
     |                                               |                |                  [9]{}: in 0x4fa-0x4fc (2)
0x4f0|                              20               |                |                    opcode: "local.get" (0x20) 0x4fa-0x4fb (1)
0x4f0|                                 01            |           .    |                    x: 1 (valid) 0x4fb-0x4fc (1)
     |                                               |                |                  [10]{}: in 0x4fc-0x4fd (1)
0x4f0|                                    0b         |            .   |                    opcode: "end" (0xb) 0x4fc-0x4fd (1)
     |                                               |                |            [9]{}: code 0x4fd-0x51c (31)
0x4f0|                                       1e      |             .  |              size: 30 (valid) 0x4fd-0x4fe (1)
     |                                               |                |              code{}: 0x4fe-0x51c (30)
     |                                               |                |                t{}: 0x4fe-0x501 (3)
0x4f0|                                          01   |              . |                  n: 1 (valid) 0x4fe-0x4ff (1)
     |                                               |                |                  x[0:1]: 0x4ff-0x501 (2)
     |                                               |                |                    [0]{}: t 0x4ff-0x501 (2)
0x4f0|                                             01|               .|                      n: 1 (valid) 0x4ff-0x500 (1)
0x500|7e                                             |~               |                      t: "i64" (0x7e) 0x500-0x501 (1)
     |                                               |                |                e[0:11]: 0x501-0x51c (27)
     |                                               |                |                  [0]{}: in 0x501-0x503 (2)
0x500|   41                                          | A              |                    opcode: "i32.const" (0x41) 0x501-0x502 (1)
0x500|      00                                       |  .             |                    n: 0 (valid) 0x502-0x503 (1)
     |                                               |                |                  [1]{}: in 0x503-0x505 (2)
0x500|         20                                    |                |                    opcode: "local.get" (0x20) 0x503-0x504 (1)
0x500|            00                                 |    .           |                    x: 0 (valid) 0x504-0x505 (1)
     |                                               |                |                  [2]{}: in 0x505-0x50a (5)
0x500|               fd                              |     .          |                    opcode: "vector" (0xfd) 0x505-0x506 (1)
0x500|                  59                           |      Y         |                    v_opcode: "v128.store16_lane" (89) 0x506-0x507 (1)
     |                                               |                |                    m{}: 0x507-0x509 (2)
0x500|                     01                        |       .        |                      a: 1 (valid) 0x507-0x508 (1)
0x500|                        01                     |        .       |                      o: 1 (valid) 0x508-0x509 (1)
0x500|                           01                  |         .      |                    l: 1 0x509-0x50a (1)
     |                                               |                |                  [3]{}: in 0x50a-0x50c (2)
0x500|                              41               |          A     |                    opcode: "i32.const" (0x41) 0x50a-0x50b (1)
0x500|                                 00            |           .    |                    n: 0 (valid) 0x50b-0x50c (1)
     |                                               |                |                  [4]{}: in 0x50c-0x50f (3)
0x500|                                    29         |            )   |                    opcode: "i64.load" (0x29) 0x50c-0x50d (1)
     |                                               |                |                    m{}: 0x50d-0x50f (2)
0x500|                                       03      |             .  |                      a: 3 (valid) 0x50d-0x50e (1)
0x500|                                          01   |              . |                      o: 1 (valid) 0x50e-0x50f (1)
     |                                               |                |                  [5]{}: in 0x50f-0x511 (2)
0x500|                                             21|               !|                    opcode: "local.set" (0x21) 0x50f-0x510 (1)
0x510|01                                             |.               |                    x: 1 (valid) 0x510-0x511 (1)
     |                                               |                |                  [6]{}: in 0x511-0x513 (2)
0x510|   41                                          | A              |                    opcode: "i32.const" (0x41) 0x511-0x512 (1)
0x510|      00                                       |  .             |                    n: 0 (valid) 0x512-0x513 (1)
     |                                               |                |                  [7]{}: in 0x513-0x515 (2)
0x510|         23                                    |   #            |                    opcode: "global.get" (0x23) 0x513-0x514 (1)
0x510|            00                                 |    .           |                    x: 0 (valid) 0x514-0x515 (1)
     |                                               |                |                  [8]{}: in 0x515-0x519 (4)
0x510|               fd                              |     .          |                    opcode: "vector" (0xfd) 0x515-0x516 (1)
0x510|                  0b                           |      .         |                    v_opcode: "v128.store" (11) 0x516-0x517 (1)
     |                                               |                |                    m{}: 0x517-0x519 (2)
0x510|                     04                        |       .        |                      a: 4 (valid) 0x517-0x518 (1)
0x510|                        01                     |        .       |                      o: 1 (valid) 0x518-0x519 (1)
     |                                               |                |                  [9]{}: in 0x519-0x51b (2)
0x510|                           20                  |                |                    opcode: "local.get" (0x20) 0x519-0x51a (1)
0x510|                              01               |          .     |                    x: 1 (valid) 0x51a-0x51b (1)
     |                                               |                |                  [10]{}: in 0x51b-0x51c (1)
0x510|                                 0b            |           .    |                    opcode: "end" (0xb) 0x51b-0x51c (1)
     |                                               |                |            [10]{}: code 0x51c-0x53b (31)
0x510|                                    1e         |            .   |              size: 30 (valid) 0x51c-0x51d (1)
     |                                               |                |              code{}: 0x51d-0x53b (30)
     |                                               |                |                t{}: 0x51d-0x520 (3)
0x510|                                       01      |             .  |                  n: 1 (valid) 0x51d-0x51e (1)
     |                                               |                |                  x[0:1]: 0x51e-0x520 (2)
     |                                               |                |                    [0]{}: t 0x51e-0x520 (2)
0x510|                                          01   |              . |                      n: 1 (valid) 0x51e-0x51f (1)
0x510|                                             7e|               ~|                      t: "i64" (0x7e) 0x51f-0x520 (1)
     |                                               |                |                e[0:11]: 0x520-0x53b (27)
     |                                               |                |                  [0]{}: in 0x520-0x522 (2)
0x520|41                                             |A               |                    opcode: "i32.const" (0x41) 0x520-0x521 (1)
0x520|   00                                          | .              |                    n: 0 (valid) 0x521-0x522 (1)
     |                                               |                |                  [1]{}: in 0x522-0x524 (2)
0x520|      20                                       |                |                    opcode: "local.get" (0x20) 0x522-0x523 (1)
0x520|         00                                    |   .            |                    x: 0 (valid) 0x523-0x524 (1)
     |                                               |                |                  [2]{}: in 0x524-0x529 (5)
0x520|            fd                                 |    .           |                    opcode: "vector" (0xfd) 0x524-0x525 (1)
0x520|               59                              |     Y          |                    v_opcode: "v128.store16_lane" (89) 0x525-0x526 (1)
     |                                               |                |                    m{}: 0x526-0x528 (2)
0x520|                  01                           |      .         |                      a: 1 (valid) 0x526-0x527 (1)
0x520|                     02                        |       .        |                      o: 2 (valid) 0x527-0x528 (1)
0x520|                        02                     |        .       |                    l: 2 0x528-0x529 (1)
     |                                               |                |                  [3]{}: in 0x529-0x52b (2)
0x520|                           41                  |         A      |                    opcode: "i32.const" (0x41) 0x529-0x52a (1)
0x520|                              00               |          .     |                    n: 0 (valid) 0x52a-0x52b (1)
     |                                               |                |                  [4]{}: in 0x52b-0x52e (3)
0x520|                                 29            |           )    |                    opcode: "i64.load" (0x29) 0x52b-0x52c (1)
     |                                               |                |                    m{}: 0x52c-0x52e (2)
0x520|                                    03         |            .   |                      a: 3 (valid) 0x52c-0x52d (1)
0x520|                                       02      |             .  |                      o: 2 (valid) 0x52d-0x52e (1)
     |                                               |                |                  [5]{}: in 0x52e-0x530 (2)
0x520|                                          21   |              ! |                    opcode: "local.set" (0x21) 0x52e-0x52f (1)
0x520|                                             01|               .|                    x: 1 (valid) 0x52f-0x530 (1)
     |                                               |                |                  [6]{}: in 0x530-0x532 (2)
0x530|41                                             |A               |                    opcode: "i32.const" (0x41) 0x530-0x531 (1)
0x530|   00                                          | .              |                    n: 0 (valid) 0x531-0x532 (1)
     |                                               |                |                  [7]{}: in 0x532-0x534 (2)
0x530|      23                                       |  #             |                    opcode: "global.get" (0x23) 0x532-0x533 (1)
0x530|         00                                    |   .            |                    x: 0 (valid) 0x533-0x534 (1)
     |                                               |                |                  [8]{}: in 0x534-0x538 (4)
0x530|            fd                                 |    .           |                    opcode: "vector" (0xfd) 0x534-0x535 (1)
0x530|               0b                              |     .          |                    v_opcode: "v128.store" (11) 0x535-0x536 (1)
     |                                               |                |                    m{}: 0x536-0x538 (2)
0x530|                  04                           |      .         |                      a: 4 (valid) 0x536-0x537 (1)
0x530|                     02                        |       .        |                      o: 2 (valid) 0x537-0x538 (1)
     |                                               |                |                  [9]{}: in 0x538-0x53a (2)
0x530|                        20                     |                |                    opcode: "local.get" (0x20) 0x538-0x539 (1)
0x530|                           01                  |         .      |                    x: 1 (valid) 0x539-0x53a (1)
     |                                               |                |                  [10]{}: in 0x53a-0x53b (1)
0x530|                              0b               |          .     |                    opcode: "end" (0xb) 0x53a-0x53b (1)
     |                                               |                |            [11]{}: code 0x53b-0x55a (31)
0x530|                                 1e            |           .    |              size: 30 (valid) 0x53b-0x53c (1)
     |                                               |                |              code{}: 0x53c-0x55a (30)
     |                                               |                |                t{}: 0x53c-0x53f (3)
0x530|                                    01         |            .   |                  n: 1 (valid) 0x53c-0x53d (1)
     |                                               |                |                  x[0:1]: 0x53d-0x53f (2)
     |                                               |                |                    [0]{}: t 0x53d-0x53f (2)
0x530|                                       01      |             .  |                      n: 1 (valid) 0x53d-0x53e (1)
0x530|                                          7e   |              ~ |                      t: "i64" (0x7e) 0x53e-0x53f (1)
     |                                               |                |                e[0:11]: 0x53f-0x55a (27)
     |                                               |                |                  [0]{}: in 0x53f-0x541 (2)
0x530|                                             41|               A|                    opcode: "i32.const" (0x41) 0x53f-0x540 (1)
0x540|00                                             |.               |                    n: 0 (valid) 0x540-0x541 (1)
     |                                               |                |                  [1]{}: in 0x541-0x543 (2)
0x540|   20                                          |                |                    opcode: "local.get" (0x20) 0x541-0x542 (1)
0x540|      00                                       |  .             |                    x: 0 (valid) 0x542-0x543 (1)
     |                                               |                |                  [2]{}: in 0x543-0x548 (5)
0x540|         fd                                    |   .            |                    opcode: "vector" (0xfd) 0x543-0x544 (1)
0x540|            59                                 |    Y           |                    v_opcode: "v128.store16_lane" (89) 0x544-0x545 (1)
     |                                               |                |                    m{}: 0x545-0x547 (2)
0x540|               01                              |     .          |                      a: 1 (valid) 0x545-0x546 (1)
0x540|                  03                           |      .         |                      o: 3 (valid) 0x546-0x547 (1)
0x540|                     03                        |       .        |                    l: 3 0x547-0x548 (1)
     |                                               |                |                  [3]{}: in 0x548-0x54a (2)
0x540|                        41                     |        A       |                    opcode: "i32.const" (0x41) 0x548-0x549 (1)
0x540|                           00                  |         .      |                    n: 0 (valid) 0x549-0x54a (1)
     |                                               |                |                  [4]{}: in 0x54a-0x54d (3)
0x540|                              29               |          )     |                    opcode: "i64.load" (0x29) 0x54a-0x54b (1)
     |                                               |                |                    m{}: 0x54b-0x54d (2)
0x540|                                 03            |           .    |                      a: 3 (valid) 0x54b-0x54c (1)
0x540|                                    03         |            .   |                      o: 3 (valid) 0x54c-0x54d (1)
     |                                               |                |                  [5]{}: in 0x54d-0x54f (2)
0x540|                                       21      |             !  |                    opcode: "local.set" (0x21) 0x54d-0x54e (1)
0x540|                                          01   |              . |                    x: 1 (valid) 0x54e-0x54f (1)
     |                                               |                |                  [6]{}: in 0x54f-0x551 (2)
0x540|                                             41|               A|                    opcode: "i32.const" (0x41) 0x54f-0x550 (1)
0x550|00                                             |.               |                    n: 0 (valid) 0x550-0x551 (1)
     |                                               |                |                  [7]{}: in 0x551-0x553 (2)
0x550|   23                                          | #              |                    opcode: "global.get" (0x23) 0x551-0x552 (1)
0x550|      00                                       |  .             |                    x: 0 (valid) 0x552-0x553 (1)
     |                                               |                |                  [8]{}: in 0x553-0x557 (4)
0x550|         fd                                    |   .            |                    opcode: "vector" (0xfd) 0x553-0x554 (1)
0x550|            0b                                 |    .           |                    v_opcode: "v128.store" (11) 0x554-0x555 (1)
     |                                               |                |                    m{}: 0x555-0x557 (2)
0x550|               04                              |     .          |                      a: 4 (valid) 0x555-0x556 (1)
0x550|                  03                           |      .         |                      o: 3 (valid) 0x556-0x557 (1)
     |                                               |                |                  [9]{}: in 0x557-0x559 (2)
0x550|                     20                        |                |                    opcode: "local.get" (0x20) 0x557-0x558 (1)
0x550|                        01                     |        .       |                    x: 1 (valid) 0x558-0x559 (1)
     |                                               |                |                  [10]{}: in 0x559-0x55a (1)
0x550|                           0b                  |         .      |                    opcode: "end" (0xb) 0x559-0x55a (1)
     |                                               |                |            [12]{}: code 0x55a-0x579 (31)
0x550|                              1e               |          .     |              size: 30 (valid) 0x55a-0x55b (1)
     |                                               |                |              code{}: 0x55b-0x579 (30)
     |                                               |                |                t{}: 0x55b-0x55e (3)
0x550|                                 01            |           .    |                  n: 1 (valid) 0x55b-0x55c (1)
     |                                               |                |                  x[0:1]: 0x55c-0x55e (2)
     |                                               |                |                    [0]{}: t 0x55c-0x55e (2)
0x550|                                    01         |            .   |                      n: 1 (valid) 0x55c-0x55d (1)
0x550|                                       7e      |             ~  |                      t: "i64" (0x7e) 0x55d-0x55e (1)
     |                                               |                |                e[0:11]: 0x55e-0x579 (27)
     |                                               |                |                  [0]{}: in 0x55e-0x560 (2)
0x550|                                          41   |              A |                    opcode: "i32.const" (0x41) 0x55e-0x55f (1)
0x550|                                             00|               .|                    n: 0 (valid) 0x55f-0x560 (1)
     |                                               |                |                  [1]{}: in 0x560-0x562 (2)
0x560|20                                             |                |                    opcode: "local.get" (0x20) 0x560-0x561 (1)
0x560|   00                                          | .              |                    x: 0 (valid) 0x561-0x562 (1)
     |                                               |                |                  [2]{}: in 0x562-0x567 (5)
0x560|      fd                                       |  .             |                    opcode: "vector" (0xfd) 0x562-0x563 (1)
0x560|         59                                    |   Y            |                    v_opcode: "v128.store16_lane" (89) 0x563-0x564 (1)
     |                                               |                |                    m{}: 0x564-0x566 (2)
0x560|            01                                 |    .           |                      a: 1 (valid) 0x564-0x565 (1)
0x560|               04                              |     .          |                      o: 4 (valid) 0x565-0x566 (1)
0x560|                  04                           |      .         |                    l: 4 0x566-0x567 (1)
     |                                               |                |                  [3]{}: in 0x567-0x569 (2)
0x560|                     41                        |       A        |                    opcode: "i32.const" (0x41) 0x567-0x568 (1)
0x560|                        00                     |        .       |                    n: 0 (valid) 0x568-0x569 (1)
     |                                               |                |                  [4]{}: in 0x569-0x56c (3)
0x560|                           29                  |         )      |                    opcode: "i64.load" (0x29) 0x569-0x56a (1)
     |                                               |                |                    m{}: 0x56a-0x56c (2)
0x560|                              03               |          .     |                      a: 3 (valid) 0x56a-0x56b (1)
0x560|                                 04            |           .    |                      o: 4 (valid) 0x56b-0x56c (1)
     |                                               |                |                  [5]{}: in 0x56c-0x56e (2)
0x560|                                    21         |            !   |                    opcode: "local.set" (0x21) 0x56c-0x56d (1)
0x560|                                       01      |             .  |                    x: 1 (valid) 0x56d-0x56e (1)
     |                                               |                |                  [6]{}: in 0x56e-0x570 (2)
0x560|                                          41   |              A |                    opcode: "i32.const" (0x41) 0x56e-0x56f (1)
0x560|                                             00|               .|                    n: 0 (valid) 0x56f-0x570 (1)
     |                                               |                |                  [7]{}: in 0x570-0x572 (2)
0x570|23                                             |#               |                    opcode: "global.get" (0x23) 0x570-0x571 (1)
0x570|   00                                          | .              |                    x: 0 (valid) 0x571-0x572 (1)
     |                                               |                |                  [8]{}: in 0x572-0x576 (4)
0x570|      fd                                       |  .             |                    opcode: "vector" (0xfd) 0x572-0x573 (1)
0x570|         0b                                    |   .            |                    v_opcode: "v128.store" (11) 0x573-0x574 (1)
     |                                               |                |                    m{}: 0x574-0x576 (2)
0x570|            04                                 |    .           |                      a: 4 (valid) 0x574-0x575 (1)
0x570|               04                              |     .          |                      o: 4 (valid) 0x575-0x576 (1)
     |                                               |                |                  [9]{}: in 0x576-0x578 (2)
0x570|                  20                           |                |                    opcode: "local.get" (0x20) 0x576-0x577 (1)
0x570|                     01                        |       .        |                    x: 1 (valid) 0x577-0x578 (1)
     |                                               |                |                  [10]{}: in 0x578-0x579 (1)
0x570|                        0b                     |        .       |                    opcode: "end" (0xb) 0x578-0x579 (1)
     |                                               |                |            [13]{}: code 0x579-0x598 (31)
0x570|                           1e                  |         .      |              size: 30 (valid) 0x579-0x57a (1)
     |                                               |                |              code{}: 0x57a-0x598 (30)
     |                                               |                |                t{}: 0x57a-0x57d (3)
0x570|                              01               |          .     |                  n: 1 (valid) 0x57a-0x57b (1)
     |                                               |                |                  x[0:1]: 0x57b-0x57d (2)
     |                                               |                |                    [0]{}: t 0x57b-0x57d (2)
0x570|                                 01            |           .    |                      n: 1 (valid) 0x57b-0x57c (1)
0x570|                                    7e         |            ~   |                      t: "i64" (0x7e) 0x57c-0x57d (1)
     |                                               |                |                e[0:11]: 0x57d-0x598 (27)
     |                                               |                |                  [0]{}: in 0x57d-0x57f (2)
0x570|                                       41      |             A  |                    opcode: "i32.const" (0x41) 0x57d-0x57e (1)
0x570|                                          00   |              . |                    n: 0 (valid) 0x57e-0x57f (1)
     |                                               |                |                  [1]{}: in 0x57f-0x581 (2)
0x570|                                             20|                |                    opcode: "local.get" (0x20) 0x57f-0x580 (1)
0x580|00                                             |.               |                    x: 0 (valid) 0x580-0x581 (1)
     |                                               |                |                  [2]{}: in 0x581-0x586 (5)
0x580|   fd                                          | .              |                    opcode: "vector" (0xfd) 0x581-0x582 (1)
0x580|      59                                       |  Y             |                    v_opcode: "v128.store16_lane" (89) 0x582-0x583 (1)
     |                                               |                |                    m{}: 0x583-0x585 (2)
0x580|         01                                    |   .            |                      a: 1 (valid) 0x583-0x584 (1)
0x580|            05                                 |    .           |                      o: 5 (valid) 0x584-0x585 (1)
0x580|               05                              |     .          |                    l: 5 0x585-0x586 (1)
     |                                               |                |                  [3]{}: in 0x586-0x588 (2)
0x580|                  41                           |      A         |                    opcode: "i32.const" (0x41) 0x586-0x587 (1)
0x580|                     00                        |       .        |                    n: 0 (valid) 0x587-0x588 (1)
     |                                               |                |                  [4]{}: in 0x588-0x58b (3)
0x580|                        29                     |        )       |                    opcode: "i64.load" (0x29) 0x588-0x589 (1)
     |                                               |                |                    m{}: 0x589-0x58b (2)
0x580|                           03                  |         .      |                      a: 3 (valid) 0x589-0x58a (1)
0x580|                              05               |          .     |                      o: 5 (valid) 0x58a-0x58b (1)
     |                                               |                |                  [5]{}: in 0x58b-0x58d (2)
0x580|                                 21            |           !    |                    opcode: "local.set" (0x21) 0x58b-0x58c (1)
0x580|                                    01         |            .   |                    x: 1 (valid) 0x58c-0x58d (1)
     |                                               |                |                  [6]{}: in 0x58d-0x58f (2)
0x580|                                       41      |             A  |                    opcode: "i32.const" (0x41) 0x58d-0x58e (1)
0x580|                                          00   |              . |                    n: 0 (valid) 0x58e-0x58f (1)
     |                                               |                |                  [7]{}: in 0x58f-0x591 (2)
0x580|                                             23|               #|                    opcode: "global.get" (0x23) 0x58f-0x590 (1)
0x590|00                                             |.               |                    x: 0 (valid) 0x590-0x591 (1)
     |                                               |                |                  [8]{}: in 0x591-0x595 (4)
0x590|   fd                                          | .              |                    opcode: "vector" (0xfd) 0x591-0x592 (1)
0x590|      0b                                       |  .             |                    v_opcode: "v128.store" (11) 0x592-0x593 (1)
     |                                               |                |                    m{}: 0x593-0x595 (2)
0x590|         04                                    |   .            |                      a: 4 (valid) 0x593-0x594 (1)
0x590|            05                                 |    .           |                      o: 5 (valid) 0x594-0x595 (1)
     |                                               |                |                  [9]{}: in 0x595-0x597 (2)
0x590|               20                              |                |                    opcode: "local.get" (0x20) 0x595-0x596 (1)
0x590|                  01                           |      .         |                    x: 1 (valid) 0x596-0x597 (1)
     |                                               |                |                  [10]{}: in 0x597-0x598 (1)
0x590|                     0b                        |       .        |                    opcode: "end" (0xb) 0x597-0x598 (1)
     |                                               |                |            [14]{}: code 0x598-0x5b7 (31)
0x590|                        1e                     |        .       |              size: 30 (valid) 0x598-0x599 (1)
     |                                               |                |              code{}: 0x599-0x5b7 (30)
     |                                               |                |                t{}: 0x599-0x59c (3)
0x590|                           01                  |         .      |                  n: 1 (valid) 0x599-0x59a (1)
     |                                               |                |                  x[0:1]: 0x59a-0x59c (2)
     |                                               |                |                    [0]{}: t 0x59a-0x59c (2)
0x590|                              01               |          .     |                      n: 1 (valid) 0x59a-0x59b (1)
0x590|                                 7e            |           ~    |                      t: "i64" (0x7e) 0x59b-0x59c (1)
     |                                               |                |                e[0:11]: 0x59c-0x5b7 (27)
     |                                               |                |                  [0]{}: in 0x59c-0x59e (2)
0x590|                                    41         |            A   |                    opcode: "i32.const" (0x41) 0x59c-0x59d (1)
0x590|                                       00      |             .  |                    n: 0 (valid) 0x59d-0x59e (1)
     |                                               |                |                  [1]{}: in 0x59e-0x5a0 (2)
0x590|                                          20   |                |                    opcode: "local.get" (0x20) 0x59e-0x59f (1)
0x590|                                             00|               .|                    x: 0 (valid) 0x59f-0x5a0 (1)
     |                                               |                |                  [2]{}: in 0x5a0-0x5a5 (5)
0x5a0|fd                                             |.               |                    opcode: "vector" (0xfd) 0x5a0-0x5a1 (1)
0x5a0|   59                                          | Y              |                    v_opcode: "v128.store16_lane" (89) 0x5a1-0x5a2 (1)
     |                                               |                |                    m{}: 0x5a2-0x5a4 (2)
0x5a0|      01                                       |  .             |                      a: 1 (valid) 0x5a2-0x5a3 (1)
0x5a0|         06                                    |   .            |                      o: 6 (valid) 0x5a3-0x5a4 (1)
0x5a0|            06                                 |    .           |                    l: 6 0x5a4-0x5a5 (1)
     |                                               |                |                  [3]{}: in 0x5a5-0x5a7 (2)
0x5a0|               41                              |     A          |                    opcode: "i32.const" (0x41) 0x5a5-0x5a6 (1)
0x5a0|                  00                           |      .         |                    n: 0 (valid) 0x5a6-0x5a7 (1)
     |                                               |                |                  [4]{}: in 0x5a7-0x5aa (3)
0x5a0|                     29                        |       )        |                    opcode: "i64.load" (0x29) 0x5a7-0x5a8 (1)
     |                                               |                |                    m{}: 0x5a8-0x5aa (2)
0x5a0|                        03                     |        .       |                      a: 3 (valid) 0x5a8-0x5a9 (1)
0x5a0|                           06                  |         .      |                      o: 6 (valid) 0x5a9-0x5aa (1)
     |                                               |                |                  [5]{}: in 0x5aa-0x5ac (2)
0x5a0|                              21               |          !     |                    opcode: "local.set" (0x21) 0x5aa-0x5ab (1)
0x5a0|                                 01            |           .    |                    x: 1 (valid) 0x5ab-0x5ac (1)
     |                                               |                |                  [6]{}: in 0x5ac-0x5ae (2)
0x5a0|                                    41         |            A   |                    opcode: "i32.const" (0x41) 0x5ac-0x5ad (1)
0x5a0|                                       00      |             .  |                    n: 0 (valid) 0x5ad-0x5ae (1)
     |                                               |                |                  [7]{}: in 0x5ae-0x5b0 (2)
0x5a0|                                          23   |              # |                    opcode: "global.get" (0x23) 0x5ae-0x5af (1)
0x5a0|                                             00|               .|                    x: 0 (valid) 0x5af-0x5b0 (1)
     |                                               |                |                  [8]{}: in 0x5b0-0x5b4 (4)
0x5b0|fd                                             |.               |                    opcode: "vector" (0xfd) 0x5b0-0x5b1 (1)
0x5b0|   0b                                          | .              |                    v_opcode: "v128.store" (11) 0x5b1-0x5b2 (1)
     |                                               |                |                    m{}: 0x5b2-0x5b4 (2)
0x5b0|      04                                       |  .             |                      a: 4 (valid) 0x5b2-0x5b3 (1)
0x5b0|         06                                    |   .            |                      o: 6 (valid) 0x5b3-0x5b4 (1)
     |                                               |                |                  [9]{}: in 0x5b4-0x5b6 (2)
0x5b0|            20                                 |                |                    opcode: "local.get" (0x20) 0x5b4-0x5b5 (1)
0x5b0|               01                              |     .          |                    x: 1 (valid) 0x5b5-0x5b6 (1)
     |                                               |                |                  [10]{}: in 0x5b6-0x5b7 (1)
0x5b0|                  0b                           |      .         |                    opcode: "end" (0xb) 0x5b6-0x5b7 (1)
     |                                               |                |            [15]{}: code 0x5b7-0x5d6 (31)
0x5b0|                     1e                        |       .        |              size: 30 (valid) 0x5b7-0x5b8 (1)
     |                                               |                |              code{}: 0x5b8-0x5d6 (30)
     |                                               |                |                t{}: 0x5b8-0x5bb (3)
0x5b0|                        01                     |        .       |                  n: 1 (valid) 0x5b8-0x5b9 (1)
     |                                               |                |                  x[0:1]: 0x5b9-0x5bb (2)
     |                                               |                |                    [0]{}: t 0x5b9-0x5bb (2)
0x5b0|                           01                  |         .      |                      n: 1 (valid) 0x5b9-0x5ba (1)
0x5b0|                              7e               |          ~     |                      t: "i64" (0x7e) 0x5ba-0x5bb (1)
     |                                               |                |                e[0:11]: 0x5bb-0x5d6 (27)
     |                                               |                |                  [0]{}: in 0x5bb-0x5bd (2)
0x5b0|                                 41            |           A    |                    opcode: "i32.const" (0x41) 0x5bb-0x5bc (1)
0x5b0|                                    00         |            .   |                    n: 0 (valid) 0x5bc-0x5bd (1)
     |                                               |                |                  [1]{}: in 0x5bd-0x5bf (2)
0x5b0|                                       20      |                |                    opcode: "local.get" (0x20) 0x5bd-0x5be (1)
0x5b0|                                          00   |              . |                    x: 0 (valid) 0x5be-0x5bf (1)
     |                                               |                |                  [2]{}: in 0x5bf-0x5c4 (5)
0x5b0|                                             fd|               .|                    opcode: "vector" (0xfd) 0x5bf-0x5c0 (1)
0x5c0|59                                             |Y               |                    v_opcode: "v128.store16_lane" (89) 0x5c0-0x5c1 (1)
     |                                               |                |                    m{}: 0x5c1-0x5c3 (2)
0x5c0|   01                                          | .              |                      a: 1 (valid) 0x5c1-0x5c2 (1)
0x5c0|      07                                       |  .             |                      o: 7 (valid) 0x5c2-0x5c3 (1)
0x5c0|         07                                    |   .            |                    l: 7 0x5c3-0x5c4 (1)
     |                                               |                |                  [3]{}: in 0x5c4-0x5c6 (2)
0x5c0|            41                                 |    A           |                    opcode: "i32.const" (0x41) 0x5c4-0x5c5 (1)
0x5c0|               00                              |     .          |                    n: 0 (valid) 0x5c5-0x5c6 (1)
     |                                               |                |                  [4]{}: in 0x5c6-0x5c9 (3)
0x5c0|                  29                           |      )         |                    opcode: "i64.load" (0x29) 0x5c6-0x5c7 (1)
     |                                               |                |                    m{}: 0x5c7-0x5c9 (2)
0x5c0|                     03                        |       .        |                      a: 3 (valid) 0x5c7-0x5c8 (1)
0x5c0|                        07                     |        .       |                      o: 7 (valid) 0x5c8-0x5c9 (1)
     |                                               |                |                  [5]{}: in 0x5c9-0x5cb (2)
0x5c0|                           21                  |         !      |                    opcode: "local.set" (0x21) 0x5c9-0x5ca (1)
0x5c0|                              01               |          .     |                    x: 1 (valid) 0x5ca-0x5cb (1)
     |                                               |                |                  [6]{}: in 0x5cb-0x5cd (2)
0x5c0|                                 41            |           A    |                    opcode: "i32.const" (0x41) 0x5cb-0x5cc (1)
0x5c0|                                    00         |            .   |                    n: 0 (valid) 0x5cc-0x5cd (1)
     |                                               |                |                  [7]{}: in 0x5cd-0x5cf (2)
0x5c0|                                       23      |             #  |                    opcode: "global.get" (0x23) 0x5cd-0x5ce (1)
0x5c0|                                          00   |              . |                    x: 0 (valid) 0x5ce-0x5cf (1)
     |                                               |                |                  [8]{}: in 0x5cf-0x5d3 (4)
0x5c0|                                             fd|               .|                    opcode: "vector" (0xfd) 0x5cf-0x5d0 (1)
0x5d0|0b                                             |.               |                    v_opcode: "v128.store" (11) 0x5d0-0x5d1 (1)
     |                                               |                |                    m{}: 0x5d1-0x5d3 (2)
0x5d0|   04                                          | .              |                      a: 4 (valid) 0x5d1-0x5d2 (1)
0x5d0|      07                                       |  .             |                      o: 7 (valid) 0x5d2-0x5d3 (1)
     |                                               |                |                  [9]{}: in 0x5d3-0x5d5 (2)
0x5d0|         20                                    |                |                    opcode: "local.get" (0x20) 0x5d3-0x5d4 (1)
0x5d0|            01                                 |    .           |                    x: 1 (valid) 0x5d4-0x5d5 (1)
     |                                               |                |                  [10]{}: in 0x5d5-0x5d6 (1)
0x5d0|               0b                              |     .          |                    opcode: "end" (0xb) 0x5d5-0x5d6 (1)
     |                                               |                |            [16]{}: code 0x5d6-0x5f5 (31)
0x5d0|                  1e                           |      .         |              size: 30 (valid) 0x5d6-0x5d7 (1)
     |                                               |                |              code{}: 0x5d7-0x5f5 (30)
     |                                               |                |                t{}: 0x5d7-0x5da (3)
0x5d0|                     01                        |       .        |                  n: 1 (valid) 0x5d7-0x5d8 (1)
     |                                               |                |                  x[0:1]: 0x5d8-0x5da (2)
     |                                               |                |                    [0]{}: t 0x5d8-0x5da (2)
0x5d0|                        01                     |        .       |                      n: 1 (valid) 0x5d8-0x5d9 (1)
0x5d0|                           7e                  |         ~      |                      t: "i64" (0x7e) 0x5d9-0x5da (1)
     |                                               |                |                e[0:11]: 0x5da-0x5f5 (27)
     |                                               |                |                  [0]{}: in 0x5da-0x5dc (2)
0x5d0|                              20               |                |                    opcode: "local.get" (0x20) 0x5da-0x5db (1)
0x5d0|                                 00            |           .    |                    x: 0 (valid) 0x5db-0x5dc (1)
     |                                               |                |                  [1]{}: in 0x5dc-0x5de (2)
0x5d0|                                    20         |                |                    opcode: "local.get" (0x20) 0x5dc-0x5dd (1)
0x5d0|                                       01      |             .  |                    x: 1 (valid) 0x5dd-0x5de (1)
     |                                               |                |                  [2]{}: in 0x5de-0x5e3 (5)
0x5d0|                                          fd   |              . |                    opcode: "vector" (0xfd) 0x5de-0x5df (1)
0x5d0|                                             59|               Y|                    v_opcode: "v128.store16_lane" (89) 0x5df-0x5e0 (1)
     |                                               |                |                    m{}: 0x5e0-0x5e2 (2)
0x5e0|00                                             |.               |                      a: 0 (valid) 0x5e0-0x5e1 (1)
0x5e0|   00                                          | .              |                      o: 0 (valid) 0x5e1-0x5e2 (1)
0x5e0|      00                                       |  .             |                    l: 0 0x5e2-0x5e3 (1)
     |                                               |                |                  [3]{}: in 0x5e3-0x5e5 (2)
0x5e0|         20                                    |                |                    opcode: "local.get" (0x20) 0x5e3-0x5e4 (1)
0x5e0|            00                                 |    .           |                    x: 0 (valid) 0x5e4-0x5e5 (1)
     |                                               |                |                  [4]{}: in 0x5e5-0x5e8 (3)
0x5e0|               29                              |     )          |                    opcode: "i64.load" (0x29) 0x5e5-0x5e6 (1)
     |                                               |                |                    m{}: 0x5e6-0x5e8 (2)
0x5e0|                  03                           |      .         |                      a: 3 (valid) 0x5e6-0x5e7 (1)
0x5e0|                     00                        |       .        |                      o: 0 (valid) 0x5e7-0x5e8 (1)
     |                                               |                |                  [5]{}: in 0x5e8-0x5ea (2)
0x5e0|                        21                     |        !       |                    opcode: "local.set" (0x21) 0x5e8-0x5e9 (1)
0x5e0|                           02                  |         .      |                    x: 2 (valid) 0x5e9-0x5ea (1)
     |                                               |                |                  [6]{}: in 0x5ea-0x5ec (2)
0x5e0|                              41               |          A     |                    opcode: "i32.const" (0x41) 0x5ea-0x5eb (1)
0x5e0|                                 00            |           .    |                    n: 0 (valid) 0x5eb-0x5ec (1)
     |                                               |                |                  [7]{}: in 0x5ec-0x5ee (2)
0x5e0|                                    23         |            #   |                    opcode: "global.get" (0x23) 0x5ec-0x5ed (1)
0x5e0|                                       00      |             .  |                    x: 0 (valid) 0x5ed-0x5ee (1)
     |                                               |                |                  [8]{}: in 0x5ee-0x5f2 (4)
0x5e0|                                          fd   |              . |                    opcode: "vector" (0xfd) 0x5ee-0x5ef (1)
0x5e0|                                             0b|               .|                    v_opcode: "v128.store" (11) 0x5ef-0x5f0 (1)
     |                                               |                |                    m{}: 0x5f0-0x5f2 (2)
0x5f0|04                                             |.               |                      a: 4 (valid) 0x5f0-0x5f1 (1)
0x5f0|   00                                          | .              |                      o: 0 (valid) 0x5f1-0x5f2 (1)
     |                                               |                |                  [9]{}: in 0x5f2-0x5f4 (2)
0x5f0|      20                                       |                |                    opcode: "local.get" (0x20) 0x5f2-0x5f3 (1)
0x5f0|         02                                    |   .            |                    x: 2 (valid) 0x5f3-0x5f4 (1)
     |                                               |                |                  [10]{}: in 0x5f4-0x5f5 (1)
0x5f0|            0b                                 |    .           |                    opcode: "end" (0xb) 0x5f4-0x5f5 (1)
     |                                               |                |            [17]{}: code 0x5f5-0x614 (31)
0x5f0|               1e                              |     .          |              size: 30 (valid) 0x5f5-0x5f6 (1)
     |                                               |                |              code{}: 0x5f6-0x614 (30)
     |                                               |                |                t{}: 0x5f6-0x5f9 (3)
0x5f0|                  01                           |      .         |                  n: 1 (valid) 0x5f6-0x5f7 (1)
     |                                               |                |                  x[0:1]: 0x5f7-0x5f9 (2)
     |                                               |                |                    [0]{}: t 0x5f7-0x5f9 (2)
0x5f0|                     01                        |       .        |                      n: 1 (valid) 0x5f7-0x5f8 (1)
0x5f0|                        7e                     |        ~       |                      t: "i64" (0x7e) 0x5f8-0x5f9 (1)
     |                                               |                |                e[0:11]: 0x5f9-0x614 (27)
     |                                               |                |                  [0]{}: in 0x5f9-0x5fb (2)
0x5f0|                           20                  |                |                    opcode: "local.get" (0x20) 0x5f9-0x5fa (1)
0x5f0|                              00               |          .     |                    x: 0 (valid) 0x5fa-0x5fb (1)
     |                                               |                |                  [1]{}: in 0x5fb-0x5fd (2)
0x5f0|                                 20            |                |                    opcode: "local.get" (0x20) 0x5fb-0x5fc (1)
0x5f0|                                    01         |            .   |                    x: 1 (valid) 0x5fc-0x5fd (1)
     |                                               |                |                  [2]{}: in 0x5fd-0x602 (5)
0x5f0|                                       fd      |             .  |                    opcode: "vector" (0xfd) 0x5fd-0x5fe (1)
0x5f0|                                          59   |              Y |                    v_opcode: "v128.store16_lane" (89) 0x5fe-0x5ff (1)
     |                                               |                |                    m{}: 0x5ff-0x601 (2)
0x5f0|                                             01|               .|                      a: 1 (valid) 0x5ff-0x600 (1)
0x600|00                                             |.               |                      o: 0 (valid) 0x600-0x601 (1)
0x600|   00                                          | .              |                    l: 0 0x601-0x602 (1)
     |                                               |                |                  [3]{}: in 0x602-0x604 (2)
0x600|      20                                       |                |                    opcode: "local.get" (0x20) 0x602-0x603 (1)
0x600|         00                                    |   .            |                    x: 0 (valid) 0x603-0x604 (1)
     |                                               |                |                  [4]{}: in 0x604-0x607 (3)
0x600|            29                                 |    )           |                    opcode: "i64.load" (0x29) 0x604-0x605 (1)
     |                                               |                |                    m{}: 0x605-0x607 (2)
0x600|               03                              |     .          |                      a: 3 (valid) 0x605-0x606 (1)
0x600|                  00                           |      .         |                      o: 0 (valid) 0x606-0x607 (1)
     |                                               |                |                  [5]{}: in 0x607-0x609 (2)
0x600|                     21                        |       !        |                    opcode: "local.set" (0x21) 0x607-0x608 (1)
0x600|                        02                     |        .       |                    x: 2 (valid) 0x608-0x609 (1)
     |                                               |                |                  [6]{}: in 0x609-0x60b (2)
0x600|                           41                  |         A      |                    opcode: "i32.const" (0x41) 0x609-0x60a (1)
0x600|                              00               |          .     |                    n: 0 (valid) 0x60a-0x60b (1)
     |                                               |                |                  [7]{}: in 0x60b-0x60d (2)
0x600|                                 23            |           #    |                    opcode: "global.get" (0x23) 0x60b-0x60c (1)
0x600|                                    00         |            .   |                    x: 0 (valid) 0x60c-0x60d (1)
     |                                               |                |                  [8]{}: in 0x60d-0x611 (4)
0x600|                                       fd      |             .  |                    opcode: "vector" (0xfd) 0x60d-0x60e (1)
0x600|                                          0b   |              . |                    v_opcode: "v128.store" (11) 0x60e-0x60f (1)
     |                                               |                |                    m{}: 0x60f-0x611 (2)
0x600|                                             04|               .|                      a: 4 (valid) 0x60f-0x610 (1)
0x610|00                                             |.               |                      o: 0 (valid) 0x610-0x611 (1)
     |                                               |                |                  [9]{}: in 0x611-0x613 (2)
0x610|   20                                          |                |                    opcode: "local.get" (0x20) 0x611-0x612 (1)
0x610|      02                                       |  .             |                    x: 2 (valid) 0x612-0x613 (1)
     |                                               |                |                  [10]{}: in 0x613-0x614 (1)
0x610|         0b                                    |   .            |                    opcode: "end" (0xb) 0x613-0x614 (1)
     |                                               |                |            [18]{}: code 0x614-0x633 (31)
0x610|            1e                                 |    .           |              size: 30 (valid) 0x614-0x615 (1)
     |                                               |                |              code{}: 0x615-0x633 (30)
     |                                               |                |                t{}: 0x615-0x618 (3)
0x610|               01                              |     .          |                  n: 1 (valid) 0x615-0x616 (1)
     |                                               |                |                  x[0:1]: 0x616-0x618 (2)
     |                                               |                |                    [0]{}: t 0x616-0x618 (2)
0x610|                  01                           |      .         |                      n: 1 (valid) 0x616-0x617 (1)
0x610|                     7e                        |       ~        |                      t: "i64" (0x7e) 0x617-0x618 (1)
     |                                               |                |                e[0:11]: 0x618-0x633 (27)
     |                                               |                |                  [0]{}: in 0x618-0x61a (2)
0x610|                        20                     |                |                    opcode: "local.get" (0x20) 0x618-0x619 (1)
0x610|                           00                  |         .      |                    x: 0 (valid) 0x619-0x61a (1)
     |                                               |                |                  [1]{}: in 0x61a-0x61c (2)
0x610|                              20               |                |                    opcode: "local.get" (0x20) 0x61a-0x61b (1)
0x610|                                 01            |           .    |                    x: 1 (valid) 0x61b-0x61c (1)
     |                                               |                |                  [2]{}: in 0x61c-0x621 (5)
0x610|                                    fd         |            .   |                    opcode: "vector" (0xfd) 0x61c-0x61d (1)
0x610|                                       59      |             Y  |                    v_opcode: "v128.store16_lane" (89) 0x61d-0x61e (1)
     |                                               |                |                    m{}: 0x61e-0x620 (2)
0x610|                                          00   |              . |                      a: 0 (valid) 0x61e-0x61f (1)
0x610|                                             00|               .|                      o: 0 (valid) 0x61f-0x620 (1)
0x620|01                                             |.               |                    l: 1 0x620-0x621 (1)
     |                                               |                |                  [3]{}: in 0x621-0x623 (2)
0x620|   20                                          |                |                    opcode: "local.get" (0x20) 0x621-0x622 (1)
0x620|      00                                       |  .             |                    x: 0 (valid) 0x622-0x623 (1)
     |                                               |                |                  [4]{}: in 0x623-0x626 (3)
0x620|         29                                    |   )            |                    opcode: "i64.load" (0x29) 0x623-0x624 (1)
     |                                               |                |                    m{}: 0x624-0x626 (2)
0x620|            03                                 |    .           |                      a: 3 (valid) 0x624-0x625 (1)
0x620|               00                              |     .          |                      o: 0 (valid) 0x625-0x626 (1)
     |                                               |                |                  [5]{}: in 0x626-0x628 (2)
0x620|                  21                           |      !         |                    opcode: "local.set" (0x21) 0x626-0x627 (1)
0x620|                     02                        |       .        |                    x: 2 (valid) 0x627-0x628 (1)
     |                                               |                |                  [6]{}: in 0x628-0x62a (2)
0x620|                        41                     |        A       |                    opcode: "i32.const" (0x41) 0x628-0x629 (1)
0x620|                           00                  |         .      |                    n: 0 (valid) 0x629-0x62a (1)
     |                                               |                |                  [7]{}: in 0x62a-0x62c (2)
0x620|                              23               |          #     |                    opcode: "global.get" (0x23) 0x62a-0x62b (1)
0x620|                                 00            |           .    |                    x: 0 (valid) 0x62b-0x62c (1)
     |                                               |                |                  [8]{}: in 0x62c-0x630 (4)
0x620|                                    fd         |            .   |                    opcode: "vector" (0xfd) 0x62c-0x62d (1)
0x620|                                       0b      |             .  |                    v_opcode: "v128.store" (11) 0x62d-0x62e (1)
     |                                               |                |                    m{}: 0x62e-0x630 (2)
0x620|                                          04   |              . |                      a: 4 (valid) 0x62e-0x62f (1)
0x620|                                             01|               .|                      o: 1 (valid) 0x62f-0x630 (1)
     |                                               |                |                  [9]{}: in 0x630-0x632 (2)
0x630|20                                             |                |                    opcode: "local.get" (0x20) 0x630-0x631 (1)
0x630|   02                                          | .              |                    x: 2 (valid) 0x631-0x632 (1)
     |                                               |                |                  [10]{}: in 0x632-0x633 (1)
0x630|      0b                                       |  .             |                    opcode: "end" (0xb) 0x632-0x633 (1)
     |                                               |                |            [19]{}: code 0x633-0x652 (31)
0x630|         1e                                    |   .            |              size: 30 (valid) 0x633-0x634 (1)
     |                                               |                |              code{}: 0x634-0x652 (30)
     |                                               |                |                t{}: 0x634-0x637 (3)
0x630|            01                                 |    .           |                  n: 1 (valid) 0x634-0x635 (1)
     |                                               |                |                  x[0:1]: 0x635-0x637 (2)
     |                                               |                |                    [0]{}: t 0x635-0x637 (2)
0x630|               01                              |     .          |                      n: 1 (valid) 0x635-0x636 (1)
0x630|                  7e                           |      ~         |                      t: "i64" (0x7e) 0x636-0x637 (1)
     |                                               |                |                e[0:11]: 0x637-0x652 (27)
     |                                               |                |                  [0]{}: in 0x637-0x639 (2)
0x630|                     20                        |                |                    opcode: "local.get" (0x20) 0x637-0x638 (1)
0x630|                        00                     |        .       |                    x: 0 (valid) 0x638-0x639 (1)
     |                                               |                |                  [1]{}: in 0x639-0x63b (2)
0x630|                           20                  |                |                    opcode: "local.get" (0x20) 0x639-0x63a (1)
0x630|                              01               |          .     |                    x: 1 (valid) 0x63a-0x63b (1)
     |                                               |                |                  [2]{}: in 0x63b-0x640 (5)
0x630|                                 fd            |           .    |                    opcode: "vector" (0xfd) 0x63b-0x63c (1)
0x630|                                    59         |            Y   |                    v_opcode: "v128.store16_lane" (89) 0x63c-0x63d (1)
     |                                               |                |                    m{}: 0x63d-0x63f (2)
0x630|                                       01      |             .  |                      a: 1 (valid) 0x63d-0x63e (1)
0x630|                                          00   |              . |                      o: 0 (valid) 0x63e-0x63f (1)
0x630|                                             01|               .|                    l: 1 0x63f-0x640 (1)
     |                                               |                |                  [3]{}: in 0x640-0x642 (2)
0x640|20                                             |                |                    opcode: "local.get" (0x20) 0x640-0x641 (1)
0x640|   00                                          | .              |                    x: 0 (valid) 0x641-0x642 (1)
     |                                               |                |                  [4]{}: in 0x642-0x645 (3)
0x640|      29                                       |  )             |                    opcode: "i64.load" (0x29) 0x642-0x643 (1)
     |                                               |                |                    m{}: 0x643-0x645 (2)
0x640|         03                                    |   .            |                      a: 3 (valid) 0x643-0x644 (1)
0x640|            00                                 |    .           |                      o: 0 (valid) 0x644-0x645 (1)
     |                                               |                |                  [5]{}: in 0x645-0x647 (2)
0x640|               21                              |     !          |                    opcode: "local.set" (0x21) 0x645-0x646 (1)
0x640|                  02                           |      .         |                    x: 2 (valid) 0x646-0x647 (1)
     |                                               |                |                  [6]{}: in 0x647-0x649 (2)
0x640|                     41                        |       A        |                    opcode: "i32.const" (0x41) 0x647-0x648 (1)
0x640|                        00                     |        .       |                    n: 0 (valid) 0x648-0x649 (1)
     |                                               |                |                  [7]{}: in 0x649-0x64b (2)
0x640|                           23                  |         #      |                    opcode: "global.get" (0x23) 0x649-0x64a (1)
0x640|                              00               |          .     |                    x: 0 (valid) 0x64a-0x64b (1)
     |                                               |                |                  [8]{}: in 0x64b-0x64f (4)
0x640|                                 fd            |           .    |                    opcode: "vector" (0xfd) 0x64b-0x64c (1)
0x640|                                    0b         |            .   |                    v_opcode: "v128.store" (11) 0x64c-0x64d (1)
     |                                               |                |                    m{}: 0x64d-0x64f (2)
0x640|                                       04      |             .  |                      a: 4 (valid) 0x64d-0x64e (1)
0x640|                                          01   |              . |                      o: 1 (valid) 0x64e-0x64f (1)
     |                                               |                |                  [9]{}: in 0x64f-0x651 (2)
0x640|                                             20|                |                    opcode: "local.get" (0x20) 0x64f-0x650 (1)
0x650|02                                             |.               |                    x: 2 (valid) 0x650-0x651 (1)
     |                                               |                |                  [10]{}: in 0x651-0x652 (1)
0x650|   0b                                          | .              |                    opcode: "end" (0xb) 0x651-0x652 (1)
     |                                               |                |            [20]{}: code 0x652-0x671 (31)
0x650|      1e                                       |  .             |              size: 30 (valid) 0x652-0x653 (1)
     |                                               |                |              code{}: 0x653-0x671 (30)
     |                                               |                |                t{}: 0x653-0x656 (3)
0x650|         01                                    |   .            |                  n: 1 (valid) 0x653-0x654 (1)
     |                                               |                |                  x[0:1]: 0x654-0x656 (2)
     |                                               |                |                    [0]{}: t 0x654-0x656 (2)
0x650|            01                                 |    .           |                      n: 1 (valid) 0x654-0x655 (1)
0x650|               7e                              |     ~          |                      t: "i64" (0x7e) 0x655-0x656 (1)
     |                                               |                |                e[0:11]: 0x656-0x671 (27)
     |                                               |                |                  [0]{}: in 0x656-0x658 (2)
0x650|                  20                           |                |                    opcode: "local.get" (0x20) 0x656-0x657 (1)
0x650|                     00                        |       .        |                    x: 0 (valid) 0x657-0x658 (1)
     |                                               |                |                  [1]{}: in 0x658-0x65a (2)
0x650|                        20                     |                |                    opcode: "local.get" (0x20) 0x658-0x659 (1)
0x650|                           01                  |         .      |                    x: 1 (valid) 0x659-0x65a (1)
     |                                               |                |                  [2]{}: in 0x65a-0x65f (5)
0x650|                              fd               |          .     |                    opcode: "vector" (0xfd) 0x65a-0x65b (1)
0x650|                                 59            |           Y    |                    v_opcode: "v128.store16_lane" (89) 0x65b-0x65c (1)
     |                                               |                |                    m{}: 0x65c-0x65e (2)
0x650|                                    00         |            .   |                      a: 0 (valid) 0x65c-0x65d (1)
0x650|                                       00      |             .  |                      o: 0 (valid) 0x65d-0x65e (1)
0x650|                                          02   |              . |                    l: 2 0x65e-0x65f (1)
     |                                               |                |                  [3]{}: in 0x65f-0x661 (2)
0x650|                                             20|                |                    opcode: "local.get" (0x20) 0x65f-0x660 (1)
0x660|00                                             |.               |                    x: 0 (valid) 0x660-0x661 (1)
     |                                               |                |                  [4]{}: in 0x661-0x664 (3)
0x660|   29                                          | )              |                    opcode: "i64.load" (0x29) 0x661-0x662 (1)
     |                                               |                |                    m{}: 0x662-0x664 (2)
0x660|      03                                       |  .             |                      a: 3 (valid) 0x662-0x663 (1)
0x660|         00                                    |   .            |                      o: 0 (valid) 0x663-0x664 (1)
     |                                               |                |                  [5]{}: in 0x664-0x666 (2)
0x660|            21                                 |    !           |                    opcode: "local.set" (0x21) 0x664-0x665 (1)
0x660|               02                              |     .          |                    x: 2 (valid) 0x665-0x666 (1)
     |                                               |                |                  [6]{}: in 0x666-0x668 (2)
0x660|                  41                           |      A         |                    opcode: "i32.const" (0x41) 0x666-0x667 (1)
0x660|                     00                        |       .        |                    n: 0 (valid) 0x667-0x668 (1)
     |                                               |                |                  [7]{}: in 0x668-0x66a (2)
0x660|                        23                     |        #       |                    opcode: "global.get" (0x23) 0x668-0x669 (1)
0x660|                           00                  |         .      |                    x: 0 (valid) 0x669-0x66a (1)
     |                                               |                |                  [8]{}: in 0x66a-0x66e (4)
0x660|                              fd               |          .     |                    opcode: "vector" (0xfd) 0x66a-0x66b (1)
0x660|                                 0b            |           .    |                    v_opcode: "v128.store" (11) 0x66b-0x66c (1)
     |                                               |                |                    m{}: 0x66c-0x66e (2)
0x660|                                    04         |            .   |                      a: 4 (valid) 0x66c-0x66d (1)
0x660|                                       02      |             .  |                      o: 2 (valid) 0x66d-0x66e (1)
     |                                               |                |                  [9]{}: in 0x66e-0x670 (2)
0x660|                                          20   |                |                    opcode: "local.get" (0x20) 0x66e-0x66f (1)
0x660|                                             02|               .|                    x: 2 (valid) 0x66f-0x670 (1)
     |                                               |                |                  [10]{}: in 0x670-0x671 (1)
0x670|0b                                             |.               |                    opcode: "end" (0xb) 0x670-0x671 (1)
     |                                               |                |            [21]{}: code 0x671-0x690 (31)
0x670|   1e                                          | .              |              size: 30 (valid) 0x671-0x672 (1)
     |                                               |                |              code{}: 0x672-0x690 (30)
     |                                               |                |                t{}: 0x672-0x675 (3)
0x670|      01                                       |  .             |                  n: 1 (valid) 0x672-0x673 (1)
     |                                               |                |                  x[0:1]: 0x673-0x675 (2)
     |                                               |                |                    [0]{}: t 0x673-0x675 (2)
0x670|         01                                    |   .            |                      n: 1 (valid) 0x673-0x674 (1)
0x670|            7e                                 |    ~           |                      t: "i64" (0x7e) 0x674-0x675 (1)
     |                                               |                |                e[0:11]: 0x675-0x690 (27)
     |                                               |                |                  [0]{}: in 0x675-0x677 (2)
0x670|               20                              |                |                    opcode: "local.get" (0x20) 0x675-0x676 (1)
0x670|                  00                           |      .         |                    x: 0 (valid) 0x676-0x677 (1)
     |                                               |                |                  [1]{}: in 0x677-0x679 (2)
0x670|                     20                        |                |                    opcode: "local.get" (0x20) 0x677-0x678 (1)
0x670|                        01                     |        .       |                    x: 1 (valid) 0x678-0x679 (1)
     |                                               |                |                  [2]{}: in 0x679-0x67e (5)
0x670|                           fd                  |         .      |                    opcode: "vector" (0xfd) 0x679-0x67a (1)
0x670|                              59               |          Y     |                    v_opcode: "v128.store16_lane" (89) 0x67a-0x67b (1)
     |                                               |                |                    m{}: 0x67b-0x67d (2)
0x670|                                 01            |           .    |                      a: 1 (valid) 0x67b-0x67c (1)
0x670|                                    00         |            .   |                      o: 0 (valid) 0x67c-0x67d (1)
0x670|                                       02      |             .  |                    l: 2 0x67d-0x67e (1)
     |                                               |                |                  [3]{}: in 0x67e-0x680 (2)
0x670|                                          20   |                |                    opcode: "local.get" (0x20) 0x67e-0x67f (1)
0x670|                                             00|               .|                    x: 0 (valid) 0x67f-0x680 (1)
     |                                               |                |                  [4]{}: in 0x680-0x683 (3)
0x680|29                                             |)               |                    opcode: "i64.load" (0x29) 0x680-0x681 (1)
     |                                               |                |                    m{}: 0x681-0x683 (2)
0x680|   03                                          | .              |                      a: 3 (valid) 0x681-0x682 (1)
0x680|      00                                       |  .             |                      o: 0 (valid) 0x682-0x683 (1)
     |                                               |                |                  [5]{}: in 0x683-0x685 (2)
0x680|         21                                    |   !            |                    opcode: "local.set" (0x21) 0x683-0x684 (1)
0x680|            02                                 |    .           |                    x: 2 (valid) 0x684-0x685 (1)
     |                                               |                |                  [6]{}: in 0x685-0x687 (2)
0x680|               41                              |     A          |                    opcode: "i32.const" (0x41) 0x685-0x686 (1)
0x680|                  00                           |      .         |                    n: 0 (valid) 0x686-0x687 (1)
     |                                               |                |                  [7]{}: in 0x687-0x689 (2)
0x680|                     23                        |       #        |                    opcode: "global.get" (0x23) 0x687-0x688 (1)
0x680|                        00                     |        .       |                    x: 0 (valid) 0x688-0x689 (1)
     |                                               |                |                  [8]{}: in 0x689-0x68d (4)
0x680|                           fd                  |         .      |                    opcode: "vector" (0xfd) 0x689-0x68a (1)
0x680|                              0b               |          .     |                    v_opcode: "v128.store" (11) 0x68a-0x68b (1)
     |                                               |                |                    m{}: 0x68b-0x68d (2)
0x680|                                 04            |           .    |                      a: 4 (valid) 0x68b-0x68c (1)
0x680|                                    02         |            .   |                      o: 2 (valid) 0x68c-0x68d (1)
     |                                               |                |                  [9]{}: in 0x68d-0x68f (2)
0x680|                                       20      |                |                    opcode: "local.get" (0x20) 0x68d-0x68e (1)
0x680|                                          02   |              . |                    x: 2 (valid) 0x68e-0x68f (1)
     |                                               |                |                  [10]{}: in 0x68f-0x690 (1)
0x680|                                             0b|               .|                    opcode: "end" (0xb) 0x68f-0x690 (1)
     |                                               |                |            [22]{}: code 0x690-0x6af (31)
0x690|1e                                             |.               |              size: 30 (valid) 0x690-0x691 (1)
     |                                               |                |              code{}: 0x691-0x6af (30)
     |                                               |                |                t{}: 0x691-0x694 (3)
0x690|   01                                          | .              |                  n: 1 (valid) 0x691-0x692 (1)
     |                                               |                |                  x[0:1]: 0x692-0x694 (2)
     |                                               |                |                    [0]{}: t 0x692-0x694 (2)
0x690|      01                                       |  .             |                      n: 1 (valid) 0x692-0x693 (1)
0x690|         7e                                    |   ~            |                      t: "i64" (0x7e) 0x693-0x694 (1)
     |                                               |                |                e[0:11]: 0x694-0x6af (27)
     |                                               |                |                  [0]{}: in 0x694-0x696 (2)
0x690|            20                                 |                |                    opcode: "local.get" (0x20) 0x694-0x695 (1)
0x690|               00                              |     .          |                    x: 0 (valid) 0x695-0x696 (1)
     |                                               |                |                  [1]{}: in 0x696-0x698 (2)
0x690|                  20                           |                |                    opcode: "local.get" (0x20) 0x696-0x697 (1)
0x690|                     01                        |       .        |                    x: 1 (valid) 0x697-0x698 (1)
     |                                               |                |                  [2]{}: in 0x698-0x69d (5)
0x690|                        fd                     |        .       |                    opcode: "vector" (0xfd) 0x698-0x699 (1)
0x690|                           59                  |         Y      |                    v_opcode: "v128.store16_lane" (89) 0x699-0x69a (1)
     |                                               |                |                    m{}: 0x69a-0x69c (2)
0x690|                              00               |          .     |                      a: 0 (valid) 0x69a-0x69b (1)
0x690|                                 00            |           .    |                      o: 0 (valid) 0x69b-0x69c (1)
0x690|                                    03         |            .   |                    l: 3 0x69c-0x69d (1)
     |                                               |                |                  [3]{}: in 0x69d-0x69f (2)
0x690|                                       20      |                |                    opcode: "local.get" (0x20) 0x69d-0x69e (1)
0x690|                                          00   |              . |                    x: 0 (valid) 0x69e-0x69f (1)
     |                                               |                |                  [4]{}: in 0x69f-0x6a2 (3)
0x690|                                             29|               )|                    opcode: "i64.load" (0x29) 0x69f-0x6a0 (1)
     |                                               |                |                    m{}: 0x6a0-0x6a2 (2)
0x6a0|03                                             |.               |                      a: 3 (valid) 0x6a0-0x6a1 (1)
0x6a0|   00                                          | .              |                      o: 0 (valid) 0x6a1-0x6a2 (1)
     |                                               |                |                  [5]{}: in 0x6a2-0x6a4 (2)
0x6a0|      21                                       |  !             |                    opcode: "local.set" (0x21) 0x6a2-0x6a3 (1)
0x6a0|         02                                    |   .            |                    x: 2 (valid) 0x6a3-0x6a4 (1)
     |                                               |                |                  [6]{}: in 0x6a4-0x6a6 (2)
0x6a0|            41                                 |    A           |                    opcode: "i32.const" (0x41) 0x6a4-0x6a5 (1)
0x6a0|               00                              |     .          |                    n: 0 (valid) 0x6a5-0x6a6 (1)
     |                                               |                |                  [7]{}: in 0x6a6-0x6a8 (2)
0x6a0|                  23                           |      #         |                    opcode: "global.get" (0x23) 0x6a6-0x6a7 (1)
0x6a0|                     00                        |       .        |                    x: 0 (valid) 0x6a7-0x6a8 (1)
     |                                               |                |                  [8]{}: in 0x6a8-0x6ac (4)
0x6a0|                        fd                     |        .       |                    opcode: "vector" (0xfd) 0x6a8-0x6a9 (1)
0x6a0|                           0b                  |         .      |                    v_opcode: "v128.store" (11) 0x6a9-0x6aa (1)
     |                                               |                |                    m{}: 0x6aa-0x6ac (2)
0x6a0|                              04               |          .     |                      a: 4 (valid) 0x6aa-0x6ab (1)
0x6a0|                                 03            |           .    |                      o: 3 (valid) 0x6ab-0x6ac (1)
     |                                               |                |                  [9]{}: in 0x6ac-0x6ae (2)
0x6a0|                                    20         |                |                    opcode: "local.get" (0x20) 0x6ac-0x6ad (1)
0x6a0|                                       02      |             .  |                    x: 2 (valid) 0x6ad-0x6ae (1)
     |                                               |                |                  [10]{}: in 0x6ae-0x6af (1)
0x6a0|                                          0b   |              . |                    opcode: "end" (0xb) 0x6ae-0x6af (1)
     |                                               |                |            [23]{}: code 0x6af-0x6ce (31)
0x6a0|                                             1e|               .|              size: 30 (valid) 0x6af-0x6b0 (1)
     |                                               |                |              code{}: 0x6b0-0x6ce (30)
     |                                               |                |                t{}: 0x6b0-0x6b3 (3)
0x6b0|01                                             |.               |                  n: 1 (valid) 0x6b0-0x6b1 (1)
     |                                               |                |                  x[0:1]: 0x6b1-0x6b3 (2)
     |                                               |                |                    [0]{}: t 0x6b1-0x6b3 (2)
0x6b0|   01                                          | .              |                      n: 1 (valid) 0x6b1-0x6b2 (1)
0x6b0|      7e                                       |  ~             |                      t: "i64" (0x7e) 0x6b2-0x6b3 (1)
     |                                               |                |                e[0:11]: 0x6b3-0x6ce (27)
     |                                               |                |                  [0]{}: in 0x6b3-0x6b5 (2)
0x6b0|         20                                    |                |                    opcode: "local.get" (0x20) 0x6b3-0x6b4 (1)
0x6b0|            00                                 |    .           |                    x: 0 (valid) 0x6b4-0x6b5 (1)
     |                                               |                |                  [1]{}: in 0x6b5-0x6b7 (2)
0x6b0|               20                              |                |                    opcode: "local.get" (0x20) 0x6b5-0x6b6 (1)
0x6b0|                  01                           |      .         |                    x: 1 (valid) 0x6b6-0x6b7 (1)
     |                                               |                |                  [2]{}: in 0x6b7-0x6bc (5)
0x6b0|                     fd                        |       .        |                    opcode: "vector" (0xfd) 0x6b7-0x6b8 (1)
0x6b0|                        59                     |        Y       |                    v_opcode: "v128.store16_lane" (89) 0x6b8-0x6b9 (1)
     |                                               |                |                    m{}: 0x6b9-0x6bb (2)
0x6b0|                           01                  |         .      |                      a: 1 (valid) 0x6b9-0x6ba (1)
0x6b0|                              00               |          .     |                      o: 0 (valid) 0x6ba-0x6bb (1)
0x6b0|                                 03            |           .    |                    l: 3 0x6bb-0x6bc (1)
     |                                               |                |                  [3]{}: in 0x6bc-0x6be (2)
0x6b0|                                    20         |                |                    opcode: "local.get" (0x20) 0x6bc-0x6bd (1)
0x6b0|                                       00      |             .  |                    x: 0 (valid) 0x6bd-0x6be (1)
     |                                               |                |                  [4]{}: in 0x6be-0x6c1 (3)
0x6b0|                                          29   |              ) |                    opcode: "i64.load" (0x29) 0x6be-0x6bf (1)
     |                                               |                |                    m{}: 0x6bf-0x6c1 (2)
0x6b0|                                             03|               .|                      a: 3 (valid) 0x6bf-0x6c0 (1)
0x6c0|00                                             |.               |                      o: 0 (valid) 0x6c0-0x6c1 (1)
     |                                               |                |                  [5]{}: in 0x6c1-0x6c3 (2)
0x6c0|   21                                          | !              |                    opcode: "local.set" (0x21) 0x6c1-0x6c2 (1)
0x6c0|      02                                       |  .             |                    x: 2 (valid) 0x6c2-0x6c3 (1)
     |                                               |                |                  [6]{}: in 0x6c3-0x6c5 (2)
0x6c0|         41                                    |   A            |                    opcode: "i32.const" (0x41) 0x6c3-0x6c4 (1)
0x6c0|            00                                 |    .           |                    n: 0 (valid) 0x6c4-0x6c5 (1)
     |                                               |                |                  [7]{}: in 0x6c5-0x6c7 (2)
0x6c0|               23                              |     #          |                    opcode: "global.get" (0x23) 0x6c5-0x6c6 (1)
0x6c0|                  00                           |      .         |                    x: 0 (valid) 0x6c6-0x6c7 (1)
     |                                               |                |                  [8]{}: in 0x6c7-0x6cb (4)
0x6c0|                     fd                        |       .        |                    opcode: "vector" (0xfd) 0x6c7-0x6c8 (1)
0x6c0|                        0b                     |        .       |                    v_opcode: "v128.store" (11) 0x6c8-0x6c9 (1)
     |                                               |                |                    m{}: 0x6c9-0x6cb (2)
0x6c0|                           04                  |         .      |                      a: 4 (valid) 0x6c9-0x6ca (1)
0x6c0|                              03               |          .     |                      o: 3 (valid) 0x6ca-0x6cb (1)
     |                                               |                |                  [9]{}: in 0x6cb-0x6cd (2)
0x6c0|                                 20            |                |                    opcode: "local.get" (0x20) 0x6cb-0x6cc (1)
0x6c0|                                    02         |            .   |                    x: 2 (valid) 0x6cc-0x6cd (1)
     |                                               |                |                  [10]{}: in 0x6cd-0x6ce (1)
0x6c0|                                       0b      |             .  |                    opcode: "end" (0xb) 0x6cd-0x6ce (1)
     |                                               |                |            [24]{}: code 0x6ce-0x6ed (31)
0x6c0|                                          1e   |              . |              size: 30 (valid) 0x6ce-0x6cf (1)
     |                                               |                |              code{}: 0x6cf-0x6ed (30)
     |                                               |                |                t{}: 0x6cf-0x6d2 (3)
0x6c0|                                             01|               .|                  n: 1 (valid) 0x6cf-0x6d0 (1)
     |                                               |                |                  x[0:1]: 0x6d0-0x6d2 (2)
     |                                               |                |                    [0]{}: t 0x6d0-0x6d2 (2)
0x6d0|01                                             |.               |                      n: 1 (valid) 0x6d0-0x6d1 (1)
0x6d0|   7e                                          | ~              |                      t: "i64" (0x7e) 0x6d1-0x6d2 (1)
     |                                               |                |                e[0:11]: 0x6d2-0x6ed (27)
     |                                               |                |                  [0]{}: in 0x6d2-0x6d4 (2)
0x6d0|      20                                       |                |                    opcode: "local.get" (0x20) 0x6d2-0x6d3 (1)
0x6d0|         00                                    |   .            |                    x: 0 (valid) 0x6d3-0x6d4 (1)
     |                                               |                |                  [1]{}: in 0x6d4-0x6d6 (2)
0x6d0|            20                                 |                |                    opcode: "local.get" (0x20) 0x6d4-0x6d5 (1)
0x6d0|               01                              |     .          |                    x: 1 (valid) 0x6d5-0x6d6 (1)
     |                                               |                |                  [2]{}: in 0x6d6-0x6db (5)
0x6d0|                  fd                           |      .         |                    opcode: "vector" (0xfd) 0x6d6-0x6d7 (1)
0x6d0|                     59                        |       Y        |                    v_opcode: "v128.store16_lane" (89) 0x6d7-0x6d8 (1)
     |                                               |                |                    m{}: 0x6d8-0x6da (2)
0x6d0|                        00                     |        .       |                      a: 0 (valid) 0x6d8-0x6d9 (1)
0x6d0|                           00                  |         .      |                      o: 0 (valid) 0x6d9-0x6da (1)
0x6d0|                              04               |          .     |                    l: 4 0x6da-0x6db (1)
     |                                               |                |                  [3]{}: in 0x6db-0x6dd (2)
0x6d0|                                 20            |                |                    opcode: "local.get" (0x20) 0x6db-0x6dc (1)
0x6d0|                                    00         |            .   |                    x: 0 (valid) 0x6dc-0x6dd (1)
     |                                               |                |                  [4]{}: in 0x6dd-0x6e0 (3)
0x6d0|                                       29      |             )  |                    opcode: "i64.load" (0x29) 0x6dd-0x6de (1)
     |                                               |                |                    m{}: 0x6de-0x6e0 (2)
0x6d0|                                          03   |              . |                      a: 3 (valid) 0x6de-0x6df (1)
0x6d0|                                             00|               .|                      o: 0 (valid) 0x6df-0x6e0 (1)
     |                                               |                |                  [5]{}: in 0x6e0-0x6e2 (2)
0x6e0|21                                             |!               |                    opcode: "local.set" (0x21) 0x6e0-0x6e1 (1)
0x6e0|   02                                          | .              |                    x: 2 (valid) 0x6e1-0x6e2 (1)
     |                                               |                |                  [6]{}: in 0x6e2-0x6e4 (2)
0x6e0|      41                                       |  A             |                    opcode: "i32.const" (0x41) 0x6e2-0x6e3 (1)
0x6e0|         00                                    |   .            |                    n: 0 (valid) 0x6e3-0x6e4 (1)
     |                                               |                |                  [7]{}: in 0x6e4-0x6e6 (2)
0x6e0|            23                                 |    #           |                    opcode: "global.get" (0x23) 0x6e4-0x6e5 (1)
0x6e0|               00                              |     .          |                    x: 0 (valid) 0x6e5-0x6e6 (1)
     |                                               |                |                  [8]{}: in 0x6e6-0x6ea (4)
0x6e0|                  fd                           |      .         |                    opcode: "vector" (0xfd) 0x6e6-0x6e7 (1)
0x6e0|                     0b                        |       .        |                    v_opcode: "v128.store" (11) 0x6e7-0x6e8 (1)
     |                                               |                |                    m{}: 0x6e8-0x6ea (2)
0x6e0|                        04                     |        .       |                      a: 4 (valid) 0x6e8-0x6e9 (1)
0x6e0|                           04                  |         .      |                      o: 4 (valid) 0x6e9-0x6ea (1)
     |                                               |                |                  [9]{}: in 0x6ea-0x6ec (2)
0x6e0|                              20               |                |                    opcode: "local.get" (0x20) 0x6ea-0x6eb (1)
0x6e0|                                 02            |           .    |                    x: 2 (valid) 0x6eb-0x6ec (1)
     |                                               |                |                  [10]{}: in 0x6ec-0x6ed (1)
0x6e0|                                    0b         |            .   |                    opcode: "end" (0xb) 0x6ec-0x6ed (1)
     |                                               |                |            [25]{}: code 0x6ed-0x70c (31)
0x6e0|                                       1e      |             .  |              size: 30 (valid) 0x6ed-0x6ee (1)
     |                                               |                |              code{}: 0x6ee-0x70c (30)
     |                                               |                |                t{}: 0x6ee-0x6f1 (3)
0x6e0|                                          01   |              . |                  n: 1 (valid) 0x6ee-0x6ef (1)
     |                                               |                |                  x[0:1]: 0x6ef-0x6f1 (2)
     |                                               |                |                    [0]{}: t 0x6ef-0x6f1 (2)
0x6e0|                                             01|               .|                      n: 1 (valid) 0x6ef-0x6f0 (1)
0x6f0|7e                                             |~               |                      t: "i64" (0x7e) 0x6f0-0x6f1 (1)
     |                                               |                |                e[0:11]: 0x6f1-0x70c (27)
     |                                               |                |                  [0]{}: in 0x6f1-0x6f3 (2)
0x6f0|   20                                          |                |                    opcode: "local.get" (0x20) 0x6f1-0x6f2 (1)
0x6f0|      00                                       |  .             |                    x: 0 (valid) 0x6f2-0x6f3 (1)
     |                                               |                |                  [1]{}: in 0x6f3-0x6f5 (2)
0x6f0|         20                                    |                |                    opcode: "local.get" (0x20) 0x6f3-0x6f4 (1)
0x6f0|            01                                 |    .           |                    x: 1 (valid) 0x6f4-0x6f5 (1)
     |                                               |                |                  [2]{}: in 0x6f5-0x6fa (5)
0x6f0|               fd                              |     .          |                    opcode: "vector" (0xfd) 0x6f5-0x6f6 (1)
0x6f0|                  59                           |      Y         |                    v_opcode: "v128.store16_lane" (89) 0x6f6-0x6f7 (1)
     |                                               |                |                    m{}: 0x6f7-0x6f9 (2)
0x6f0|                     01                        |       .        |                      a: 1 (valid) 0x6f7-0x6f8 (1)
0x6f0|                        00                     |        .       |                      o: 0 (valid) 0x6f8-0x6f9 (1)
0x6f0|                           04                  |         .      |                    l: 4 0x6f9-0x6fa (1)
     |                                               |                |                  [3]{}: in 0x6fa-0x6fc (2)
0x6f0|                              20               |                |                    opcode: "local.get" (0x20) 0x6fa-0x6fb (1)
0x6f0|                                 00            |           .    |                    x: 0 (valid) 0x6fb-0x6fc (1)
     |                                               |                |                  [4]{}: in 0x6fc-0x6ff (3)
0x6f0|                                    29         |            )   |                    opcode: "i64.load" (0x29) 0x6fc-0x6fd (1)
     |                                               |                |                    m{}: 0x6fd-0x6ff (2)
0x6f0|                                       03      |             .  |                      a: 3 (valid) 0x6fd-0x6fe (1)
0x6f0|                                          00   |              . |                      o: 0 (valid) 0x6fe-0x6ff (1)
     |                                               |                |                  [5]{}: in 0x6ff-0x701 (2)
0x6f0|                                             21|               !|                    opcode: "local.set" (0x21) 0x6ff-0x700 (1)
0x700|02                                             |.               |                    x: 2 (valid) 0x700-0x701 (1)
     |                                               |                |                  [6]{}: in 0x701-0x703 (2)
0x700|   41                                          | A              |                    opcode: "i32.const" (0x41) 0x701-0x702 (1)
0x700|      00                                       |  .             |                    n: 0 (valid) 0x702-0x703 (1)
     |                                               |                |                  [7]{}: in 0x703-0x705 (2)
0x700|         23                                    |   #            |                    opcode: "global.get" (0x23) 0x703-0x704 (1)
0x700|            00                                 |    .           |                    x: 0 (valid) 0x704-0x705 (1)
     |                                               |                |                  [8]{}: in 0x705-0x709 (4)
0x700|               fd                              |     .          |                    opcode: "vector" (0xfd) 0x705-0x706 (1)
0x700|                  0b                           |      .         |                    v_opcode: "v128.store" (11) 0x706-0x707 (1)
     |                                               |                |                    m{}: 0x707-0x709 (2)
0x700|                     04                        |       .        |                      a: 4 (valid) 0x707-0x708 (1)
0x700|                        04                     |        .       |                      o: 4 (valid) 0x708-0x709 (1)
     |                                               |                |                  [9]{}: in 0x709-0x70b (2)
0x700|                           20                  |                |                    opcode: "local.get" (0x20) 0x709-0x70a (1)
0x700|                              02               |          .     |                    x: 2 (valid) 0x70a-0x70b (1)
     |                                               |                |                  [10]{}: in 0x70b-0x70c (1)
0x700|                                 0b            |           .    |                    opcode: "end" (0xb) 0x70b-0x70c (1)
     |                                               |                |            [26]{}: code 0x70c-0x72b (31)
0x700|                                    1e         |            .   |              size: 30 (valid) 0x70c-0x70d (1)
     |                                               |                |              code{}: 0x70d-0x72b (30)
     |                                               |                |                t{}: 0x70d-0x710 (3)
0x700|                                       01      |             .  |                  n: 1 (valid) 0x70d-0x70e (1)
     |                                               |                |                  x[0:1]: 0x70e-0x710 (2)
     |                                               |                |                    [0]{}: t 0x70e-0x710 (2)
0x700|                                          01   |              . |                      n: 1 (valid) 0x70e-0x70f (1)
0x700|                                             7e|               ~|                      t: "i64" (0x7e) 0x70f-0x710 (1)
     |                                               |                |                e[0:11]: 0x710-0x72b (27)
     |                                               |                |                  [0]{}: in 0x710-0x712 (2)
0x710|20                                             |                |                    opcode: "local.get" (0x20) 0x710-0x711 (1)
0x710|   00                                          | .              |                    x: 0 (valid) 0x711-0x712 (1)
     |                                               |                |                  [1]{}: in 0x712-0x714 (2)
0x710|      20                                       |                |                    opcode: "local.get" (0x20) 0x712-0x713 (1)
0x710|         01                                    |   .            |                    x: 1 (valid) 0x713-0x714 (1)
     |                                               |                |                  [2]{}: in 0x714-0x719 (5)
0x710|            fd                                 |    .           |                    opcode: "vector" (0xfd) 0x714-0x715 (1)
0x710|               59                              |     Y          |                    v_opcode: "v128.store16_lane" (89) 0x715-0x716 (1)
     |                                               |                |                    m{}: 0x716-0x718 (2)
0x710|                  00                           |      .         |                      a: 0 (valid) 0x716-0x717 (1)
0x710|                     00                        |       .        |                      o: 0 (valid) 0x717-0x718 (1)
0x710|                        05                     |        .       |                    l: 5 0x718-0x719 (1)
     |                                               |                |                  [3]{}: in 0x719-0x71b (2)
0x710|                           20                  |                |                    opcode: "local.get" (0x20) 0x719-0x71a (1)
0x710|                              00               |          .     |                    x: 0 (valid) 0x71a-0x71b (1)
     |                                               |                |                  [4]{}: in 0x71b-0x71e (3)
0x710|                                 29            |           )    |                    opcode: "i64.load" (0x29) 0x71b-0x71c (1)
     |                                               |                |                    m{}: 0x71c-0x71e (2)
0x710|                                    03         |            .   |                      a: 3 (valid) 0x71c-0x71d (1)
0x710|                                       00      |             .  |                      o: 0 (valid) 0x71d-0x71e (1)
     |                                               |                |                  [5]{}: in 0x71e-0x720 (2)
0x710|                                          21   |              ! |                    opcode: "local.set" (0x21) 0x71e-0x71f (1)
0x710|                                             02|               .|                    x: 2 (valid) 0x71f-0x720 (1)
     |                                               |                |                  [6]{}: in 0x720-0x722 (2)
0x720|41                                             |A               |                    opcode: "i32.const" (0x41) 0x720-0x721 (1)
0x720|   00                                          | .              |                    n: 0 (valid) 0x721-0x722 (1)
     |                                               |                |                  [7]{}: in 0x722-0x724 (2)
0x720|      23                                       |  #             |                    opcode: "global.get" (0x23) 0x722-0x723 (1)
0x720|         00                                    |   .            |                    x: 0 (valid) 0x723-0x724 (1)
     |                                               |                |                  [8]{}: in 0x724-0x728 (4)
0x720|            fd                                 |    .           |                    opcode: "vector" (0xfd) 0x724-0x725 (1)
0x720|               0b                              |     .          |                    v_opcode: "v128.store" (11) 0x725-0x726 (1)
     |                                               |                |                    m{}: 0x726-0x728 (2)
0x720|                  04                           |      .         |                      a: 4 (valid) 0x726-0x727 (1)
0x720|                     05                        |       .        |                      o: 5 (valid) 0x727-0x728 (1)
     |                                               |                |                  [9]{}: in 0x728-0x72a (2)
0x720|                        20                     |                |                    opcode: "local.get" (0x20) 0x728-0x729 (1)
0x720|                           02                  |         .      |                    x: 2 (valid) 0x729-0x72a (1)
     |                                               |                |                  [10]{}: in 0x72a-0x72b (1)
0x720|                              0b               |          .     |                    opcode: "end" (0xb) 0x72a-0x72b (1)
     |                                               |                |            [27]{}: code 0x72b-0x74a (31)
0x720|                                 1e            |           .    |              size: 30 (valid) 0x72b-0x72c (1)
     |                                               |                |              code{}: 0x72c-0x74a (30)
     |                                               |                |                t{}: 0x72c-0x72f (3)
0x720|                                    01         |            .   |                  n: 1 (valid) 0x72c-0x72d (1)
     |                                               |                |                  x[0:1]: 0x72d-0x72f (2)
     |                                               |                |                    [0]{}: t 0x72d-0x72f (2)
0x720|                                       01      |             .  |                      n: 1 (valid) 0x72d-0x72e (1)
0x720|                                          7e   |              ~ |                      t: "i64" (0x7e) 0x72e-0x72f (1)
     |                                               |                |                e[0:11]: 0x72f-0x74a (27)
     |                                               |                |                  [0]{}: in 0x72f-0x731 (2)
0x720|                                             20|                |                    opcode: "local.get" (0x20) 0x72f-0x730 (1)
0x730|00                                             |.               |                    x: 0 (valid) 0x730-0x731 (1)
     |                                               |                |                  [1]{}: in 0x731-0x733 (2)
0x730|   20                                          |                |                    opcode: "local.get" (0x20) 0x731-0x732 (1)
0x730|      01                                       |  .             |                    x: 1 (valid) 0x732-0x733 (1)
     |                                               |                |                  [2]{}: in 0x733-0x738 (5)
0x730|         fd                                    |   .            |                    opcode: "vector" (0xfd) 0x733-0x734 (1)
0x730|            59                                 |    Y           |                    v_opcode: "v128.store16_lane" (89) 0x734-0x735 (1)
     |                                               |                |                    m{}: 0x735-0x737 (2)
0x730|               01                              |     .          |                      a: 1 (valid) 0x735-0x736 (1)
0x730|                  00                           |      .         |                      o: 0 (valid) 0x736-0x737 (1)
0x730|                     05                        |       .        |                    l: 5 0x737-0x738 (1)
     |                                               |                |                  [3]{}: in 0x738-0x73a (2)
0x730|                        20                     |                |                    opcode: "local.get" (0x20) 0x738-0x739 (1)
0x730|                           00                  |         .      |                    x: 0 (valid) 0x739-0x73a (1)
     |                                               |                |                  [4]{}: in 0x73a-0x73d (3)
0x730|                              29               |          )     |                    opcode: "i64.load" (0x29) 0x73a-0x73b (1)
     |                                               |                |                    m{}: 0x73b-0x73d (2)
0x730|                                 03            |           .    |                      a: 3 (valid) 0x73b-0x73c (1)
0x730|                                    00         |            .   |                      o: 0 (valid) 0x73c-0x73d (1)
     |                                               |                |                  [5]{}: in 0x73d-0x73f (2)
0x730|                                       21      |             !  |                    opcode: "local.set" (0x21) 0x73d-0x73e (1)
0x730|                                          02   |              . |                    x: 2 (valid) 0x73e-0x73f (1)
     |                                               |                |                  [6]{}: in 0x73f-0x741 (2)
0x730|                                             41|               A|                    opcode: "i32.const" (0x41) 0x73f-0x740 (1)
0x740|00                                             |.               |                    n: 0 (valid) 0x740-0x741 (1)
     |                                               |                |                  [7]{}: in 0x741-0x743 (2)
0x740|   23                                          | #              |                    opcode: "global.get" (0x23) 0x741-0x742 (1)
0x740|      00                                       |  .             |                    x: 0 (valid) 0x742-0x743 (1)
     |                                               |                |                  [8]{}: in 0x743-0x747 (4)
0x740|         fd                                    |   .            |                    opcode: "vector" (0xfd) 0x743-0x744 (1)
0x740|            0b                                 |    .           |                    v_opcode: "v128.store" (11) 0x744-0x745 (1)
     |                                               |                |                    m{}: 0x745-0x747 (2)
0x740|               04                              |     .          |                      a: 4 (valid) 0x745-0x746 (1)
0x740|                  05                           |      .         |                      o: 5 (valid) 0x746-0x747 (1)
     |                                               |                |                  [9]{}: in 0x747-0x749 (2)
0x740|                     20                        |                |                    opcode: "local.get" (0x20) 0x747-0x748 (1)
0x740|                        02                     |        .       |                    x: 2 (valid) 0x748-0x749 (1)
     |                                               |                |                  [10]{}: in 0x749-0x74a (1)
0x740|                           0b                  |         .      |                    opcode: "end" (0xb) 0x749-0x74a (1)
     |                                               |                |            [28]{}: code 0x74a-0x769 (31)
0x740|                              1e               |          .     |              size: 30 (valid) 0x74a-0x74b (1)
     |                                               |                |              code{}: 0x74b-0x769 (30)
     |                                               |                |                t{}: 0x74b-0x74e (3)
0x740|                                 01            |           .    |                  n: 1 (valid) 0x74b-0x74c (1)
     |                                               |                |                  x[0:1]: 0x74c-0x74e (2)
     |                                               |                |                    [0]{}: t 0x74c-0x74e (2)
0x740|                                    01         |            .   |                      n: 1 (valid) 0x74c-0x74d (1)
0x740|                                       7e      |             ~  |                      t: "i64" (0x7e) 0x74d-0x74e (1)
     |                                               |                |                e[0:11]: 0x74e-0x769 (27)
     |                                               |                |                  [0]{}: in 0x74e-0x750 (2)
0x740|                                          20   |                |                    opcode: "local.get" (0x20) 0x74e-0x74f (1)
0x740|                                             00|               .|                    x: 0 (valid) 0x74f-0x750 (1)
     |                                               |                |                  [1]{}: in 0x750-0x752 (2)
0x750|20                                             |                |                    opcode: "local.get" (0x20) 0x750-0x751 (1)
0x750|   01                                          | .              |                    x: 1 (valid) 0x751-0x752 (1)
     |                                               |                |                  [2]{}: in 0x752-0x757 (5)
0x750|      fd                                       |  .             |                    opcode: "vector" (0xfd) 0x752-0x753 (1)
0x750|         59                                    |   Y            |                    v_opcode: "v128.store16_lane" (89) 0x753-0x754 (1)
     |                                               |                |                    m{}: 0x754-0x756 (2)
0x750|            00                                 |    .           |                      a: 0 (valid) 0x754-0x755 (1)
0x750|               00                              |     .          |                      o: 0 (valid) 0x755-0x756 (1)
0x750|                  06                           |      .         |                    l: 6 0x756-0x757 (1)
     |                                               |                |                  [3]{}: in 0x757-0x759 (2)
0x750|                     20                        |                |                    opcode: "local.get" (0x20) 0x757-0x758 (1)
0x750|                        00                     |        .       |                    x: 0 (valid) 0x758-0x759 (1)
     |                                               |                |                  [4]{}: in 0x759-0x75c (3)
0x750|                           29                  |         )      |                    opcode: "i64.load" (0x29) 0x759-0x75a (1)
     |                                               |                |                    m{}: 0x75a-0x75c (2)
0x750|                              03               |          .     |                      a: 3 (valid) 0x75a-0x75b (1)
0x750|                                 00            |           .    |                      o: 0 (valid) 0x75b-0x75c (1)
     |                                               |                |                  [5]{}: in 0x75c-0x75e (2)
0x750|                                    21         |            !   |                    opcode: "local.set" (0x21) 0x75c-0x75d (1)
0x750|                                       02      |             .  |                    x: 2 (valid) 0x75d-0x75e (1)
     |                                               |                |                  [6]{}: in 0x75e-0x760 (2)
0x750|                                          41   |              A |                    opcode: "i32.const" (0x41) 0x75e-0x75f (1)
0x750|                                             00|               .|                    n: 0 (valid) 0x75f-0x760 (1)
     |                                               |                |                  [7]{}: in 0x760-0x762 (2)
0x760|23                                             |#               |                    opcode: "global.get" (0x23) 0x760-0x761 (1)
0x760|   00                                          | .              |                    x: 0 (valid) 0x761-0x762 (1)
     |                                               |                |                  [8]{}: in 0x762-0x766 (4)
0x760|      fd                                       |  .             |                    opcode: "vector" (0xfd) 0x762-0x763 (1)
0x760|         0b                                    |   .            |                    v_opcode: "v128.store" (11) 0x763-0x764 (1)
     |                                               |                |                    m{}: 0x764-0x766 (2)
0x760|            04                                 |    .           |                      a: 4 (valid) 0x764-0x765 (1)
0x760|               06                              |     .          |                      o: 6 (valid) 0x765-0x766 (1)
     |                                               |                |                  [9]{}: in 0x766-0x768 (2)
0x760|                  20                           |                |                    opcode: "local.get" (0x20) 0x766-0x767 (1)
0x760|                     02                        |       .        |                    x: 2 (valid) 0x767-0x768 (1)
     |                                               |                |                  [10]{}: in 0x768-0x769 (1)
0x760|                        0b                     |        .       |                    opcode: "end" (0xb) 0x768-0x769 (1)
     |                                               |                |            [29]{}: code 0x769-0x788 (31)
0x760|                           1e                  |         .      |              size: 30 (valid) 0x769-0x76a (1)
     |                                               |                |              code{}: 0x76a-0x788 (30)
     |                                               |                |                t{}: 0x76a-0x76d (3)
0x760|                              01               |          .     |                  n: 1 (valid) 0x76a-0x76b (1)
     |                                               |                |                  x[0:1]: 0x76b-0x76d (2)
     |                                               |                |                    [0]{}: t 0x76b-0x76d (2)
0x760|                                 01            |           .    |                      n: 1 (valid) 0x76b-0x76c (1)
0x760|                                    7e         |            ~   |                      t: "i64" (0x7e) 0x76c-0x76d (1)
     |                                               |                |                e[0:11]: 0x76d-0x788 (27)
     |                                               |                |                  [0]{}: in 0x76d-0x76f (2)
0x760|                                       20      |                |                    opcode: "local.get" (0x20) 0x76d-0x76e (1)
0x760|                                          00   |              . |                    x: 0 (valid) 0x76e-0x76f (1)
     |                                               |                |                  [1]{}: in 0x76f-0x771 (2)
0x760|                                             20|                |                    opcode: "local.get" (0x20) 0x76f-0x770 (1)
0x770|01                                             |.               |                    x: 1 (valid) 0x770-0x771 (1)
     |                                               |                |                  [2]{}: in 0x771-0x776 (5)
0x770|   fd                                          | .              |                    opcode: "vector" (0xfd) 0x771-0x772 (1)
0x770|      59                                       |  Y             |                    v_opcode: "v128.store16_lane" (89) 0x772-0x773 (1)
     |                                               |                |                    m{}: 0x773-0x775 (2)
0x770|         01                                    |   .            |                      a: 1 (valid) 0x773-0x774 (1)
0x770|            00                                 |    .           |                      o: 0 (valid) 0x774-0x775 (1)
0x770|               06                              |     .          |                    l: 6 0x775-0x776 (1)
     |                                               |                |                  [3]{}: in 0x776-0x778 (2)
0x770|                  20                           |                |                    opcode: "local.get" (0x20) 0x776-0x777 (1)
0x770|                     00                        |       .        |                    x: 0 (valid) 0x777-0x778 (1)
     |                                               |                |                  [4]{}: in 0x778-0x77b (3)
0x770|                        29                     |        )       |                    opcode: "i64.load" (0x29) 0x778-0x779 (1)
     |                                               |                |                    m{}: 0x779-0x77b (2)
0x770|                           03                  |         .      |                      a: 3 (valid) 0x779-0x77a (1)
0x770|                              00               |          .     |                      o: 0 (valid) 0x77a-0x77b (1)
     |                                               |                |                  [5]{}: in 0x77b-0x77d (2)
0x770|                                 21            |           !    |                    opcode: "local.set" (0x21) 0x77b-0x77c (1)
0x770|                                    02         |            .   |                    x: 2 (valid) 0x77c-0x77d (1)
     |                                               |                |                  [6]{}: in 0x77d-0x77f (2)
0x770|                                       41      |             A  |                    opcode: "i32.const" (0x41) 0x77d-0x77e (1)
0x770|                                          00   |              . |                    n: 0 (valid) 0x77e-0x77f (1)
     |                                               |                |                  [7]{}: in 0x77f-0x781 (2)
0x770|                                             23|               #|                    opcode: "global.get" (0x23) 0x77f-0x780 (1)
0x780|00                                             |.               |                    x: 0 (valid) 0x780-0x781 (1)
     |                                               |                |                  [8]{}: in 0x781-0x785 (4)
0x780|   fd                                          | .              |                    opcode: "vector" (0xfd) 0x781-0x782 (1)
0x780|      0b                                       |  .             |                    v_opcode: "v128.store" (11) 0x782-0x783 (1)
     |                                               |                |                    m{}: 0x783-0x785 (2)
0x780|         04                                    |   .            |                      a: 4 (valid) 0x783-0x784 (1)
0x780|            06                                 |    .           |                      o: 6 (valid) 0x784-0x785 (1)
     |                                               |                |                  [9]{}: in 0x785-0x787 (2)
0x780|               20                              |                |                    opcode: "local.get" (0x20) 0x785-0x786 (1)
0x780|                  02                           |      .         |                    x: 2 (valid) 0x786-0x787 (1)
     |                                               |                |                  [10]{}: in 0x787-0x788 (1)
0x780|                     0b                        |       .        |                    opcode: "end" (0xb) 0x787-0x788 (1)
     |                                               |                |            [30]{}: code 0x788-0x7a7 (31)
0x780|                        1e                     |        .       |              size: 30 (valid) 0x788-0x789 (1)
     |                                               |                |              code{}: 0x789-0x7a7 (30)
     |                                               |                |                t{}: 0x789-0x78c (3)
0x780|                           01                  |         .      |                  n: 1 (valid) 0x789-0x78a (1)
     |                                               |                |                  x[0:1]: 0x78a-0x78c (2)
     |                                               |                |                    [0]{}: t 0x78a-0x78c (2)
0x780|                              01               |          .     |                      n: 1 (valid) 0x78a-0x78b (1)
0x780|                                 7e            |           ~    |                      t: "i64" (0x7e) 0x78b-0x78c (1)
     |                                               |                |                e[0:11]: 0x78c-0x7a7 (27)
     |                                               |                |                  [0]{}: in 0x78c-0x78e (2)
0x780|                                    20         |                |                    opcode: "local.get" (0x20) 0x78c-0x78d (1)
0x780|                                       00      |             .  |                    x: 0 (valid) 0x78d-0x78e (1)
     |                                               |                |                  [1]{}: in 0x78e-0x790 (2)
0x780|                                          20   |                |                    opcode: "local.get" (0x20) 0x78e-0x78f (1)
0x780|                                             01|               .|                    x: 1 (valid) 0x78f-0x790 (1)
     |                                               |                |                  [2]{}: in 0x790-0x795 (5)
0x790|fd                                             |.               |                    opcode: "vector" (0xfd) 0x790-0x791 (1)
0x790|   59                                          | Y              |                    v_opcode: "v128.store16_lane" (89) 0x791-0x792 (1)
     |                                               |                |                    m{}: 0x792-0x794 (2)
0x790|      00                                       |  .             |                      a: 0 (valid) 0x792-0x793 (1)
0x790|         00                                    |   .            |                      o: 0 (valid) 0x793-0x794 (1)
0x790|            07                                 |    .           |                    l: 7 0x794-0x795 (1)
     |                                               |                |                  [3]{}: in 0x795-0x797 (2)
0x790|               20                              |                |                    opcode: "local.get" (0x20) 0x795-0x796 (1)
0x790|                  00                           |      .         |                    x: 0 (valid) 0x796-0x797 (1)
     |                                               |                |                  [4]{}: in 0x797-0x79a (3)
0x790|                     29                        |       )        |                    opcode: "i64.load" (0x29) 0x797-0x798 (1)
     |                                               |                |                    m{}: 0x798-0x79a (2)
0x790|                        03                     |        .       |                      a: 3 (valid) 0x798-0x799 (1)
0x790|                           00                  |         .      |                      o: 0 (valid) 0x799-0x79a (1)
     |                                               |                |                  [5]{}: in 0x79a-0x79c (2)
0x790|                              21               |          !     |                    opcode: "local.set" (0x21) 0x79a-0x79b (1)
0x790|                                 02            |           .    |                    x: 2 (valid) 0x79b-0x79c (1)
     |                                               |                |                  [6]{}: in 0x79c-0x79e (2)
0x790|                                    41         |            A   |                    opcode: "i32.const" (0x41) 0x79c-0x79d (1)
0x790|                                       00      |             .  |                    n: 0 (valid) 0x79d-0x79e (1)
     |                                               |                |                  [7]{}: in 0x79e-0x7a0 (2)
0x790|                                          23   |              # |                    opcode: "global.get" (0x23) 0x79e-0x79f (1)
0x790|                                             00|               .|                    x: 0 (valid) 0x79f-0x7a0 (1)
     |                                               |                |                  [8]{}: in 0x7a0-0x7a4 (4)
0x7a0|fd                                             |.               |                    opcode: "vector" (0xfd) 0x7a0-0x7a1 (1)
0x7a0|   0b                                          | .              |                    v_opcode: "v128.store" (11) 0x7a1-0x7a2 (1)
     |                                               |                |                    m{}: 0x7a2-0x7a4 (2)
0x7a0|      04                                       |  .             |                      a: 4 (valid) 0x7a2-0x7a3 (1)
0x7a0|         07                                    |   .            |                      o: 7 (valid) 0x7a3-0x7a4 (1)
     |                                               |                |                  [9]{}: in 0x7a4-0x7a6 (2)
0x7a0|            20                                 |                |                    opcode: "local.get" (0x20) 0x7a4-0x7a5 (1)
0x7a0|               02                              |     .          |                    x: 2 (valid) 0x7a5-0x7a6 (1)
     |                                               |                |                  [10]{}: in 0x7a6-0x7a7 (1)
0x7a0|                  0b                           |      .         |                    opcode: "end" (0xb) 0x7a6-0x7a7 (1)
     |                                               |                |            [31]{}: code 0x7a7-0x7c6 (31)
0x7a0|                     1e                        |       .        |              size: 30 (valid) 0x7a7-0x7a8 (1)
     |                                               |                |              code{}: 0x7a8-0x7c6 (30)
     |                                               |                |                t{}: 0x7a8-0x7ab (3)
0x7a0|                        01                     |        .       |                  n: 1 (valid) 0x7a8-0x7a9 (1)
     |                                               |                |                  x[0:1]: 0x7a9-0x7ab (2)
     |                                               |                |                    [0]{}: t 0x7a9-0x7ab (2)
0x7a0|                           01                  |         .      |                      n: 1 (valid) 0x7a9-0x7aa (1)
0x7a0|                              7e               |          ~     |                      t: "i64" (0x7e) 0x7aa-0x7ab (1)
     |                                               |                |                e[0:11]: 0x7ab-0x7c6 (27)
     |                                               |                |                  [0]{}: in 0x7ab-0x7ad (2)
0x7a0|                                 20            |                |                    opcode: "local.get" (0x20) 0x7ab-0x7ac (1)
0x7a0|                                    00         |            .   |                    x: 0 (valid) 0x7ac-0x7ad (1)
     |                                               |                |                  [1]{}: in 0x7ad-0x7af (2)
0x7a0|                                       20      |                |                    opcode: "local.get" (0x20) 0x7ad-0x7ae (1)
0x7a0|                                          01   |              . |                    x: 1 (valid) 0x7ae-0x7af (1)
     |                                               |                |                  [2]{}: in 0x7af-0x7b4 (5)
0x7a0|                                             fd|               .|                    opcode: "vector" (0xfd) 0x7af-0x7b0 (1)
0x7b0|59                                             |Y               |                    v_opcode: "v128.store16_lane" (89) 0x7b0-0x7b1 (1)
     |                                               |                |                    m{}: 0x7b1-0x7b3 (2)
0x7b0|   01                                          | .              |                      a: 1 (valid) 0x7b1-0x7b2 (1)
0x7b0|      00                                       |  .             |                      o: 0 (valid) 0x7b2-0x7b3 (1)
0x7b0|         07                                    |   .            |                    l: 7 0x7b3-0x7b4 (1)
     |                                               |                |                  [3]{}: in 0x7b4-0x7b6 (2)
0x7b0|            20                                 |                |                    opcode: "local.get" (0x20) 0x7b4-0x7b5 (1)
0x7b0|               00                              |     .          |                    x: 0 (valid) 0x7b5-0x7b6 (1)
     |                                               |                |                  [4]{}: in 0x7b6-0x7b9 (3)
0x7b0|                  29                           |      )         |                    opcode: "i64.load" (0x29) 0x7b6-0x7b7 (1)
     |                                               |                |                    m{}: 0x7b7-0x7b9 (2)
0x7b0|                     03                        |       .        |                      a: 3 (valid) 0x7b7-0x7b8 (1)
0x7b0|                        00                     |        .       |                      o: 0 (valid) 0x7b8-0x7b9 (1)
     |                                               |                |                  [5]{}: in 0x7b9-0x7bb (2)
0x7b0|                           21                  |         !      |                    opcode: "local.set" (0x21) 0x7b9-0x7ba (1)
0x7b0|                              02               |          .     |                    x: 2 (valid) 0x7ba-0x7bb (1)
     |                                               |                |                  [6]{}: in 0x7bb-0x7bd (2)
0x7b0|                                 41            |           A    |                    opcode: "i32.const" (0x41) 0x7bb-0x7bc (1)
0x7b0|                                    00         |            .   |                    n: 0 (valid) 0x7bc-0x7bd (1)
     |                                               |                |                  [7]{}: in 0x7bd-0x7bf (2)
0x7b0|                                       23      |             #  |                    opcode: "global.get" (0x23) 0x7bd-0x7be (1)
0x7b0|                                          00   |              . |                    x: 0 (valid) 0x7be-0x7bf (1)
     |                                               |                |                  [8]{}: in 0x7bf-0x7c3 (4)
0x7b0|                                             fd|               .|                    opcode: "vector" (0xfd) 0x7bf-0x7c0 (1)
0x7c0|0b                                             |.               |                    v_opcode: "v128.store" (11) 0x7c0-0x7c1 (1)
     |                                               |                |                    m{}: 0x7c1-0x7c3 (2)
0x7c0|   04                                          | .              |                      a: 4 (valid) 0x7c1-0x7c2 (1)
0x7c0|      07                                       |  .             |                      o: 7 (valid) 0x7c2-0x7c3 (1)
     |                                               |                |                  [9]{}: in 0x7c3-0x7c5 (2)
0x7c0|         20                                    |                |                    opcode: "local.get" (0x20) 0x7c3-0x7c4 (1)
0x7c0|            02                                 |    .           |                    x: 2 (valid) 0x7c4-0x7c5 (1)
     |                                               |                |                  [10]{}: in 0x7c5-0x7c6 (1)
0x7c0|               0b|                             |     .|         |                    opcode: "end" (0xb) 0x7c5-0x7c6 (1)
