$ fq -d wasm dv simd_load8_lane-0.wasm
     |00 01 02 03 04 05 06 07 08 09 0a 0b 0c 0d 0e 0f|0123456789abcdef|.{}: simd_load8_lane-0.wasm (wasm) 0x0-0x796 (1942)
0x000|00 61 73 6d                                    |.asm            |  magic: raw bits (valid) 0x0-0x4 (4)
0x000|            01 00 00 00                        |    ....        |  version: 1 0x4-0x8 (4)
     |                                               |                |  sections[0:6]: 0x8-0x796 (1934)
     |                                               |                |    [0]{}: section 0x8-0x16 (14)
0x000|                        01                     |        .       |      id: "type_section" (1) 0x8-0x9 (1)
0x000|                           0c                  |         .      |      size: 12 (valid) 0x9-0xa (1)
     |                                               |                |      content{}: 0xa-0x16 (12)
     |                                               |                |        ft{}: 0xa-0x16 (12)
0x000|                              02               |          .     |          n: 2 (valid) 0xa-0xb (1)
     |                                               |                |          x[0:2]: 0xb-0x16 (11)
     |                                               |                |            [0]{}: ft 0xb-0x11 (6)
0x000|                                 60            |           `    |              tag: 0x60 (valid) 0xb-0xc (1)
     |                                               |                |              rt1{}: 0xc-0xf (3)
0x000|                                    02         |            .   |                n: 2 (valid) 0xc-0xd (1)
     |                                               |                |                x[0:2]: 0xd-0xf (2)
0x000|                                       7f      |             .  |                  [0]: "i32" (0x7f) t 0xd-0xe (1)
0x000|                                          7b   |              { |                  [1]: "v128" (0x7b) t 0xe-0xf (1)
     |                                               |                |              rt2{}: 0xf-0x11 (2)
0x000|                                             01|               .|                n: 1 (valid) 0xf-0x10 (1)
     |                                               |                |                x[0:1]: 0x10-0x11 (1)
0x010|7b                                             |{               |                  [0]: "v128" (0x7b) t 0x10-0x11 (1)
     |                                               |                |            [1]{}: ft 0x11-0x16 (5)
0x010|   60                                          | `              |              tag: 0x60 (valid) 0x11-0x12 (1)
     |                                               |                |              rt1{}: 0x12-0x14 (2)
0x010|      01                                       |  .             |                n: 1 (valid) 0x12-0x13 (1)
     |                                               |                |                x[0:1]: 0x13-0x14 (1)
0x010|         7b                                    |   {            |                  [0]: "v128" (0x7b) t 0x13-0x14 (1)
     |                                               |                |              rt2{}: 0x14-0x16 (2)
0x010|            01                                 |    .           |                n: 1 (valid) 0x14-0x15 (1)
     |                                               |                |                x[0:1]: 0x15-0x16 (1)
0x010|               7b                              |     {          |                  [0]: "v128" (0x7b) t 0x15-0x16 (1)
     |                                               |                |    [1]{}: section 0x16-0x49 (51)
0x010|                  03                           |      .         |      id: "function_section" (3) 0x16-0x17 (1)
0x010|                     31                        |       1        |      size: 49 (valid) 0x17-0x18 (1)
     |                                               |                |      content{}: 0x18-0x49 (49)
     |                                               |                |        x{}: 0x18-0x49 (49)
0x010|                        30                     |        0       |          n: 48 (valid) 0x18-0x19 (1)
     |                                               |                |          x[0:48]: 0x19-0x49 (48)
0x010|                           00                  |         .      |            [0]: 0 x (valid) 0x19-0x1a (1)
0x010|                              00               |          .     |            [1]: 0 x (valid) 0x1a-0x1b (1)
0x010|                                 00            |           .    |            [2]: 0 x (valid) 0x1b-0x1c (1)
0x010|                                    00         |            .   |            [3]: 0 x (valid) 0x1c-0x1d (1)
0x010|                                       00      |             .  |            [4]: 0 x (valid) 0x1d-0x1e (1)
0x010|                                          00   |              . |            [5]: 0 x (valid) 0x1e-0x1f (1)
0x010|                                             00|               .|            [6]: 0 x (valid) 0x1f-0x20 (1)
0x020|00                                             |.               |            [7]: 0 x (valid) 0x20-0x21 (1)
0x020|   00                                          | .              |            [8]: 0 x (valid) 0x21-0x22 (1)
0x020|      00                                       |  .             |            [9]: 0 x (valid) 0x22-0x23 (1)
0x020|         00                                    |   .            |            [10]: 0 x (valid) 0x23-0x24 (1)
0x020|            00                                 |    .           |            [11]: 0 x (valid) 0x24-0x25 (1)
0x020|               00                              |     .          |            [12]: 0 x (valid) 0x25-0x26 (1)
0x020|                  00                           |      .         |            [13]: 0 x (valid) 0x26-0x27 (1)
0x020|                     00                        |       .        |            [14]: 0 x (valid) 0x27-0x28 (1)
0x020|                        00                     |        .       |            [15]: 0 x (valid) 0x28-0x29 (1)
0x020|                           01                  |         .      |            [16]: 1 x (valid) 0x29-0x2a (1)
0x020|                              01               |          .     |            [17]: 1 x (valid) 0x2a-0x2b (1)
0x020|                                 01            |           .    |            [18]: 1 x (valid) 0x2b-0x2c (1)
0x020|                                    01         |            .   |            [19]: 1 x (valid) 0x2c-0x2d (1)
0x020|                                       01      |             .  |            [20]: 1 x (valid) 0x2d-0x2e (1)
0x020|                                          01   |              . |            [21]: 1 x (valid) 0x2e-0x2f (1)
0x020|                                             01|               .|            [22]: 1 x (valid) 0x2f-0x30 (1)
0x030|01                                             |.               |            [23]: 1 x (valid) 0x30-0x31 (1)
0x030|   01                                          | .              |            [24]: 1 x (valid) 0x31-0x32 (1)
0x030|      01                                       |  .             |            [25]: 1 x (valid) 0x32-0x33 (1)
0x030|         01                                    |   .            |            [26]: 1 x (valid) 0x33-0x34 (1)
0x030|            01                                 |    .           |            [27]: 1 x (valid) 0x34-0x35 (1)
0x030|               01                              |     .          |            [28]: 1 x (valid) 0x35-0x36 (1)
0x030|                  01                           |      .         |            [29]: 1 x (valid) 0x36-0x37 (1)
0x030|                     01                        |       .        |            [30]: 1 x (valid) 0x37-0x38 (1)
0x030|                        01                     |        .       |            [31]: 1 x (valid) 0x38-0x39 (1)
0x030|                           00                  |         .      |            [32]: 0 x (valid) 0x39-0x3a (1)
0x030|                              00               |          .     |            [33]: 0 x (valid) 0x3a-0x3b (1)
0x030|                                 00            |           .    |            [34]: 0 x (valid) 0x3b-0x3c (1)
0x030|                                    00         |            .   |            [35]: 0 x (valid) 0x3c-0x3d (1)
0x030|                                       00      |             .  |            [36]: 0 x (valid) 0x3d-0x3e (1)
0x030|                                          00   |              . |            [37]: 0 x (valid) 0x3e-0x3f (1)
0x030|                                             00|               .|            [38]: 0 x (valid) 0x3f-0x40 (1)
0x040|00                                             |.               |            [39]: 0 x (valid) 0x40-0x41 (1)
0x040|   00                                          | .              |            [40]: 0 x (valid) 0x41-0x42 (1)
0x040|      00                                       |  .             |            [41]: 0 x (valid) 0x42-0x43 (1)
0x040|         00                                    |   .            |            [42]: 0 x (valid) 0x43-0x44 (1)
0x040|            00                                 |    .           |            [43]: 0 x (valid) 0x44-0x45 (1)
0x040|               00                              |     .          |            [44]: 0 x (valid) 0x45-0x46 (1)
0x040|                  00                           |      .         |            [45]: 0 x (valid) 0x46-0x47 (1)
0x040|                     00                        |       .        |            [46]: 0 x (valid) 0x47-0x48 (1)
0x040|                        00                     |        .       |            [47]: 0 x (valid) 0x48-0x49 (1)
     |                                               |                |    [2]{}: section 0x49-0x4e (5)
0x040|                           05                  |         .      |      id: "memory_section" (5) 0x49-0x4a (1)
0x040|                              03               |          .     |      size: 3 (valid) 0x4a-0x4b (1)
     |                                               |                |      content{}: 0x4b-0x4e (3)
     |                                               |                |        mem{}: 0x4b-0x4e (3)
0x040|                                 01            |           .    |          n: 1 (valid) 0x4b-0x4c (1)
     |                                               |                |          x[0:1]: 0x4c-0x4e (2)
     |                                               |                |            [0]{}: mem 0x4c-0x4e (2)
     |                                               |                |              lim{}: 0x4c-0x4e (2)
0x040|                                    00         |            .   |                tag: 0x0 0x4c-0x4d (1)
0x040|                                       01      |             .  |                n: 1 (valid) 0x4d-0x4e (1)
     |                                               |                |    [3]{}: section 0x4e-0x53a (1260)
0x040|                                          07   |              . |      id: "export_section" (7) 0x4e-0x4f (1)
0x040|                                             e9|               .|      size: 1257 (valid) 0x4f-0x51 (2)
0x050|09                                             |.               |
     |                                               |                |      content{}: 0x51-0x53a (1257)
     |                                               |                |        ex{}: 0x51-0x53a (1257)
0x050|   30                                          | 0              |          n: 48 (valid) 0x51-0x52 (1)
     |                                               |                |          x[0:48]: 0x52-0x53a (1256)
     |                                               |                |            [0]{}: ex 0x52-0x66 (20)
     |                                               |                |              nm{}: 0x52-0x64 (18)
0x050|      11                                       |  .             |                n: 17 (valid) 0x52-0x53 (1)
0x050|         76 31 32 38 2e 6c 6f 61 64 38 5f 6c 61|   v128.load8_la|                b: "v128.load8_lane_0" 0x53-0x64 (17)
0x060|6e 65 5f 30                                    |ne_0            |
     |                                               |                |              d{}: 0x64-0x66 (2)
0x060|            00                                 |    .           |                tag: "funcidx" (0x0) 0x64-0x65 (1)
0x060|               00                              |     .          |                x: 0 (valid) 0x65-0x66 (1)
     |                                               |                |            [1]{}: ex 0x66-0x7a (20)
     |                                               |                |              nm{}: 0x66-0x78 (18)
0x060|                  11                           |      .         |                n: 17 (valid) 0x66-0x67 (1)
0x060|                     76 31 32 38 2e 6c 6f 61 64|       v128.load|                b: "v128.load8_lane_1" 0x67-0x78 (17)
0x070|38 5f 6c 61 6e 65 5f 31                        |8_lane_1        |
     |                                               |                |              d{}: 0x78-0x7a (2)
0x070|                        00                     |        .       |                tag: "funcidx" (0x0) 0x78-0x79 (1)
0x070|                           01                  |         .      |                x: 1 (valid) 0x79-0x7a (1)
     |                                               |                |            [2]{}: ex 0x7a-0x8e (20)
     |                                               |                |              nm{}: 0x7a-0x8c (18)
0x070|                              11               |          .     |                n: 17 (valid) 0x7a-0x7b (1)
0x070|                                 76 31 32 38 2e|           v128.|                b: "v128.load8_lane_2" 0x7b-0x8c (17)
0x080|6c 6f 61 64 38 5f 6c 61 6e 65 5f 32            |load8_lane_2    |
     |                                               |                |              d{}: 0x8c-0x8e (2)
0x080|                                    00         |            .   |                tag: "funcidx" (0x0) 0x8c-0x8d (1)
0x080|                                       02      |             .  |                x: 2 (valid) 0x8d-0x8e (1)
     |                                               |                |            [3]{}: ex 0x8e-0xa2 (20)
     |                                               |                |              nm{}: 0x8e-0xa0 (18)
0x080|                                          11   |              . |                n: 17 (valid) 0x8e-0x8f (1)
0x080|                                             76|               v|                b: "v128.load8_lane_3" 0x8f-0xa0 (17)
0x090|31 32 38 2e 6c 6f 61 64 38 5f 6c 61 6e 65 5f 33|128.load8_lane_3|
     |                                               |                |              d{}: 0xa0-0xa2 (2)
0x0a0|00                                             |.               |                tag: "funcidx" (0x0) 0xa0-0xa1 (1)
0x0a0|   03                                          | .              |                x: 3 (valid) 0xa1-0xa2 (1)
     |                                               |                |            [4]{}: ex 0xa2-0xb6 (20)
     |                                               |                |              nm{}: 0xa2-0xb4 (18)
0x0a0|      11                                       |  .             |                n: 17 (valid) 0xa2-0xa3 (1)
0x0a0|         76 31 32 38 2e 6c 6f 61 64 38 5f 6c 61|   v128.load8_la|                b: "v128.load8_lane_4" 0xa3-0xb4 (17)
0x0b0|6e 65 5f 34                                    |ne_4            |
     |                                               |                |              d{}: 0xb4-0xb6 (2)
0x0b0|            00                                 |    .           |                tag: "funcidx" (0x0) 0xb4-0xb5 (1)
0x0b0|               04                              |     .          |                x: 4 (valid) 0xb5-0xb6 (1)
     |                                               |                |            [5]{}: ex 0xb6-0xca (20)
     |                                               |                |              nm{}: 0xb6-0xc8 (18)
0x0b0|                  11                           |      .         |                n: 17 (valid) 0xb6-0xb7 (1)
0x0b0|                     76 31 32 38 2e 6c 6f 61 64|       v128.load|                b: "v128.load8_lane_5" 0xb7-0xc8 (17)
0x0c0|38 5f 6c 61 6e 65 5f 35                        |8_lane_5        |
     |                                               |                |              d{}: 0xc8-0xca (2)
0x0c0|                        00                     |        .       |                tag: "funcidx" (0x0) 0xc8-0xc9 (1)
0x0c0|                           05                  |         .      |                x: 5 (valid) 0xc9-0xca (1)
     |                                               |                |            [6]{}: ex 0xca-0xde (20)
     |                                               |                |              nm{}: 0xca-0xdc (18)
0x0c0|                              11               |          .     |                n: 17 (valid) 0xca-0xcb (1)
0x0c0|                                 76 31 32 38 2e|           v128.|                b: "v128.load8_lane_6" 0xcb-0xdc (17)
0x0d0|6c 6f 61 64 38 5f 6c 61 6e 65 5f 36            |load8_lane_6    |
     |                                               |                |              d{}: 0xdc-0xde (2)
0x0d0|                                    00         |            .   |                tag: "funcidx" (0x0) 0xdc-0xdd (1)
0x0d0|                                       06      |             .  |                x: 6 (valid) 0xdd-0xde (1)
     |                                               |                |            [7]{}: ex 0xde-0xf2 (20)
     |                                               |                |              nm{}: 0xde-0xf0 (18)
0x0d0|                                          11   |              . |                n: 17 (valid) 0xde-0xdf (1)
0x0d0|                                             76|               v|                b: "v128.load8_lane_7" 0xdf-0xf0 (17)
0x0e0|31 32 38 2e 6c 6f 61 64 38 5f 6c 61 6e 65 5f 37|128.load8_lane_7|
     |                                               |                |              d{}: 0xf0-0xf2 (2)
0x0f0|00                                             |.               |                tag: "funcidx" (0x0) 0xf0-0xf1 (1)
0x0f0|   07                                          | .              |                x: 7 (valid) 0xf1-0xf2 (1)
     |                                               |                |            [8]{}: ex 0xf2-0x106 (20)
     |                                               |                |              nm{}: 0xf2-0x104 (18)
0x0f0|      11                                       |  .             |                n: 17 (valid) 0xf2-0xf3 (1)
0x0f0|         76 31 32 38 2e 6c 6f 61 64 38 5f 6c 61|   v128.load8_la|                b: "v128.load8_lane_8" 0xf3-0x104 (17)
0x100|6e 65 5f 38                                    |ne_8            |
     |                                               |                |              d{}: 0x104-0x106 (2)
0x100|            00                                 |    .           |                tag: "funcidx" (0x0) 0x104-0x105 (1)
0x100|               08                              |     .          |                x: 8 (valid) 0x105-0x106 (1)
     |                                               |                |            [9]{}: ex 0x106-0x11a (20)
     |                                               |                |              nm{}: 0x106-0x118 (18)
0x100|                  11                           |      .         |                n: 17 (valid) 0x106-0x107 (1)
0x100|                     76 31 32 38 2e 6c 6f 61 64|       v128.load|                b: "v128.load8_lane_9" 0x107-0x118 (17)
0x110|38 5f 6c 61 6e 65 5f 39                        |8_lane_9        |
     |                                               |                |              d{}: 0x118-0x11a (2)
0x110|                        00                     |        .       |                tag: "funcidx" (0x0) 0x118-0x119 (1)
0x110|                           09                  |         .      |                x: 9 (valid) 0x119-0x11a (1)
     |                                               |                |            [10]{}: ex 0x11a-0x12f (21)
     |                                               |                |              nm{}: 0x11a-0x12d (19)
0x110|                              12               |          .     |                n: 18 (valid) 0x11a-0x11b (1)
0x110|                                 76 31 32 38 2e|           v128.|                b: "v128.load8_lane_10" 0x11b-0x12d (18)
0x120|6c 6f 61 64 38 5f 6c 61 6e 65 5f 31 30         |load8_lane_10   |
     |                                               |                |              d{}: 0x12d-0x12f (2)
0x120|                                       00      |             .  |                tag: "funcidx" (0x0) 0x12d-0x12e (1)
0x120|                                          0a   |              . |                x: 10 (valid) 0x12e-0x12f (1)
     |                                               |                |            [11]{}: ex 0x12f-0x144 (21)
     |                                               |                |              nm{}: 0x12f-0x142 (19)
0x120|                                             12|               .|                n: 18 (valid) 0x12f-0x130 (1)
0x130|76 31 32 38 2e 6c 6f 61 64 38 5f 6c 61 6e 65 5f|v128.load8_lane_|                b: "v128.load8_lane_11" 0x130-0x142 (18)
0x140|31 31                                          |11              |
     |                                               |                |              d{}: 0x142-0x144 (2)
0x140|      00                                       |  .             |                tag: "funcidx" (0x0) 0x142-0x143 (1)
0x140|         0b                                    |   .            |                x: 11 (valid) 0x143-0x144 (1)
     |                                               |                |            [12]{}: ex 0x144-0x159 (21)
     |                                               |                |              nm{}: 0x144-0x157 (19)
0x140|            12                                 |    .           |                n: 18 (valid) 0x144-0x145 (1)
0x140|               76 31 32 38 2e 6c 6f 61 64 38 5f|     v128.load8_|                b: "v128.load8_lane_12" 0x145-0x157 (18)
0x150|6c 61 6e 65 5f 31 32                           |lane_12         |
     |                                               |                |              d{}: 0x157-0x159 (2)
0x150|                     00                        |       .        |                tag: "funcidx" (0x0) 0x157-0x158 (1)
0x150|                        0c                     |        .       |                x: 12 (valid) 0x158-0x159 (1)
     |                                               |                |            [13]{}: ex 0x159-0x16e (21)
     |                                               |                |              nm{}: 0x159-0x16c (19)
0x150|                           12                  |         .      |                n: 18 (valid) 0x159-0x15a (1)
0x150|                              76 31 32 38 2e 6c|          v128.l|                b: "v128.load8_lane_13" 0x15a-0x16c (18)
0x160|6f 61 64 38 5f 6c 61 6e 65 5f 31 33            |oad8_lane_13    |
     |                                               |                |              d{}: 0x16c-0x16e (2)
0x160|                                    00         |            .   |                tag: "funcidx" (0x0) 0x16c-0x16d (1)
0x160|                                       0d      |             .  |                x: 13 (valid) 0x16d-0x16e (1)
     |                                               |                |            [14]{}: ex 0x16e-0x183 (21)
     |                                               |                |              nm{}: 0x16e-0x181 (19)
0x160|                                          12   |              . |                n: 18 (valid) 0x16e-0x16f (1)
0x160|                                             76|               v|                b: "v128.load8_lane_14" 0x16f-0x181 (18)
0x170|31 32 38 2e 6c 6f 61 64 38 5f 6c 61 6e 65 5f 31|128.load8_lane_1|
0x180|34                                             |4               |
     |                                               |                |              d{}: 0x181-0x183 (2)
0x180|   00                                          | .              |                tag: "funcidx" (0x0) 0x181-0x182 (1)
0x180|      0e                                       |  .             |                x: 14 (valid) 0x182-0x183 (1)
     |                                               |                |            [15]{}: ex 0x183-0x198 (21)
     |                                               |                |              nm{}: 0x183-0x196 (19)
0x180|         12                                    |   .            |                n: 18 (valid) 0x183-0x184 (1)
0x180|            76 31 32 38 2e 6c 6f 61 64 38 5f 6c|    v128.load8_l|                b: "v128.load8_lane_15" 0x184-0x196 (18)
0x190|61 6e 65 5f 31 35                              |ane_15          |
     |                                               |                |              d{}: 0x196-0x198 (2)
0x190|                  00                           |      .         |                tag: "funcidx" (0x0) 0x196-0x197 (1)
0x190|                     0f                        |       .        |                x: 15 (valid) 0x197-0x198 (1)
     |                                               |                |            [16]{}: ex 0x198-0x1b5 (29)
     |                                               |                |              nm{}: 0x198-0x1b3 (27)
0x190|                        1a                     |        .       |                n: 26 (valid) 0x198-0x199 (1)
0x190|                           76 31 32 38 2e 6c 6f|         v128.lo|                b: "v128.load8_lane_0_offset_0" 0x199-0x1b3 (26)
0x1a0|61 64 38 5f 6c 61 6e 65 5f 30 5f 6f 66 66 73 65|ad8_lane_0_offse|
0x1b0|74 5f 30                                       |t_0             |
     |                                               |                |              d{}: 0x1b3-0x1b5 (2)
0x1b0|         00                                    |   .            |                tag: "funcidx" (0x0) 0x1b3-0x1b4 (1)
0x1b0|            10                                 |    .           |                x: 16 (valid) 0x1b4-0x1b5 (1)
     |                                               |                |            [17]{}: ex 0x1b5-0x1d2 (29)
     |                                               |                |              nm{}: 0x1b5-0x1d0 (27)
0x1b0|               1a                              |     .          |                n: 26 (valid) 0x1b5-0x1b6 (1)
0x1b0|                  76 31 32 38 2e 6c 6f 61 64 38|      v128.load8|                b: "v128.load8_lane_1_offset_1" 0x1b6-0x1d0 (26)
0x1c0|5f 6c 61 6e 65 5f 31 5f 6f 66 66 73 65 74 5f 31|_lane_1_offset_1|
     |                                               |                |              d{}: 0x1d0-0x1d2 (2)
0x1d0|00                                             |.               |                tag: "funcidx" (0x0) 0x1d0-0x1d1 (1)
0x1d0|   11                                          | .              |                x: 17 (valid) 0x1d1-0x1d2 (1)
     |                                               |                |            [18]{}: ex 0x1d2-0x1ef (29)
     |                                               |                |              nm{}: 0x1d2-0x1ed (27)
0x1d0|      1a                                       |  .             |                n: 26 (valid) 0x1d2-0x1d3 (1)
0x1d0|         76 31 32 38 2e 6c 6f 61 64 38 5f 6c 61|   v128.load8_la|                b: "v128.load8_lane_2_offset_2" 0x1d3-0x1ed (26)
0x1e0|6e 65 5f 32 5f 6f 66 66 73 65 74 5f 32         |ne_2_offset_2   |
     |                                               |                |              d{}: 0x1ed-0x1ef (2)
0x1e0|                                       00      |             .  |                tag: "funcidx" (0x0) 0x1ed-0x1ee (1)
0x1e0|                                          12   |              . |                x: 18 (valid) 0x1ee-0x1ef (1)
     |                                               |                |            [19]{}: ex 0x1ef-0x20c (29)
     |                                               |                |              nm{}: 0x1ef-0x20a (27)
0x1e0|                                             1a|               .|                n: 26 (valid) 0x1ef-0x1f0 (1)
0x1f0|76 31 32 38 2e 6c 6f 61 64 38 5f 6c 61 6e 65 5f|v128.load8_lane_|                b: "v128.load8_lane_3_offset_3" 0x1f0-0x20a (26)
0x200|33 5f 6f 66 66 73 65 74 5f 33                  |3_offset_3      |
     |                                               |                |              d{}: 0x20a-0x20c (2)
0x200|                              00               |          .     |                tag: "funcidx" (0x0) 0x20a-0x20b (1)
0x200|                                 13            |           .    |                x: 19 (valid) 0x20b-0x20c (1)
     |                                               |                |            [20]{}: ex 0x20c-0x229 (29)
     |                                               |                |              nm{}: 0x20c-0x227 (27)
0x200|                                    1a         |            .   |                n: 26 (valid) 0x20c-0x20d (1)
0x200|                                       76 31 32|             v12|                b: "v128.load8_lane_4_offset_4" 0x20d-0x227 (26)
0x210|38 2e 6c 6f 61 64 38 5f 6c 61 6e 65 5f 34 5f 6f|8.load8_lane_4_o|
0x220|66 66 73 65 74 5f 34                           |ffset_4         |
     |                                               |                |              d{}: 0x227-0x229 (2)
0x220|                     00                        |       .        |                tag: "funcidx" (0x0) 0x227-0x228 (1)
0x220|                        14                     |        .       |                x: 20 (valid) 0x228-0x229 (1)
     |                                               |                |            [21]{}: ex 0x229-0x246 (29)
     |                                               |                |              nm{}: 0x229-0x244 (27)
0x220|                           1a                  |         .      |                n: 26 (valid) 0x229-0x22a (1)
0x220|                              76 31 32 38 2e 6c|          v128.l|                b: "v128.load8_lane_5_offset_5" 0x22a-0x244 (26)
0x230|6f 61 64 38 5f 6c 61 6e 65 5f 35 5f 6f 66 66 73|oad8_lane_5_offs|
0x240|65 74 5f 35                                    |et_5            |
     |                                               |                |              d{}: 0x244-0x246 (2)
0x240|            00                                 |    .           |                tag: "funcidx" (0x0) 0x244-0x245 (1)
0x240|               15                              |     .          |                x: 21 (valid) 0x245-0x246 (1)
     |                                               |                |            [22]{}: ex 0x246-0x263 (29)
     |                                               |                |              nm{}: 0x246-0x261 (27)
0x240|                  1a                           |      .         |                n: 26 (valid) 0x246-0x247 (1)
0x240|                     76 31 32 38 2e 6c 6f 61 64|       v128.load|                b: "v128.load8_lane_6_offset_6" 0x247-0x261 (26)
0x250|38 5f 6c 61 6e 65 5f 36 5f 6f 66 66 73 65 74 5f|8_lane_6_offset_|
0x260|36                                             |6               |
     |                                               |                |              d{}: 0x261-0x263 (2)
0x260|   00                                          | .              |                tag: "funcidx" (0x0) 0x261-0x262 (1)
0x260|      16                                       |  .             |                x: 22 (valid) 0x262-0x263 (1)
     |                                               |                |            [23]{}: ex 0x263-0x280 (29)
     |                                               |                |              nm{}: 0x263-0x27e (27)
0x260|         1a                                    |   .            |                n: 26 (valid) 0x263-0x264 (1)
0x260|            76 31 32 38 2e 6c 6f 61 64 38 5f 6c|    v128.load8_l|                b: "v128.load8_lane_7_offset_7" 0x264-0x27e (26)
0x270|61 6e 65 5f 37 5f 6f 66 66 73 65 74 5f 37      |ane_7_offset_7  |
     |                                               |                |              d{}: 0x27e-0x280 (2)
0x270|                                          00   |              . |                tag: "funcidx" (0x0) 0x27e-0x27f (1)
0x270|                                             17|               .|                x: 23 (valid) 0x27f-0x280 (1)
     |                                               |                |            [24]{}: ex 0x280-0x29d (29)
     |                                               |                |              nm{}: 0x280-0x29b (27)
0x280|1a                                             |.               |                n: 26 (valid) 0x280-0x281 (1)
0x280|   76 31 32 38 2e 6c 6f 61 64 38 5f 6c 61 6e 65| v128.load8_lane|                b: "v128.load8_lane_8_offset_8" 0x281-0x29b (26)
0x290|5f 38 5f 6f 66 66 73 65 74 5f 38               |_8_offset_8     |
     |                                               |                |              d{}: 0x29b-0x29d (2)
0x290|                                 00            |           .    |                tag: "funcidx" (0x0) 0x29b-0x29c (1)
0x290|                                    18         |            .   |                x: 24 (valid) 0x29c-0x29d (1)
     |                                               |                |            [25]{}: ex 0x29d-0x2ba (29)
     |                                               |                |              nm{}: 0x29d-0x2b8 (27)
0x290|                                       1a      |             .  |                n: 26 (valid) 0x29d-0x29e (1)
0x290|                                          76 31|              v1|                b: "v128.load8_lane_9_offset_9" 0x29e-0x2b8 (26)
0x2a0|32 38 2e 6c 6f 61 64 38 5f 6c 61 6e 65 5f 39 5f|28.load8_lane_9_|
0x2b0|6f 66 66 73 65 74 5f 39                        |offset_9        |
     |                                               |                |              d{}: 0x2b8-0x2ba (2)
0x2b0|                        00                     |        .       |                tag: "funcidx" (0x0) 0x2b8-0x2b9 (1)
0x2b0|                           19                  |         .      |                x: 25 (valid) 0x2b9-0x2ba (1)
     |                                               |                |            [26]{}: ex 0x2ba-0x2d9 (31)
     |                                               |                |              nm{}: 0x2ba-0x2d7 (29)
0x2b0|                              1c               |          .     |                n: 28 (valid) 0x2ba-0x2bb (1)
0x2b0|                                 76 31 32 38 2e|           v128.|                b: "v128.load8_lane_10_offset_10" 0x2bb-0x2d7 (28)
0x2c0|6c 6f 61 64 38 5f 6c 61 6e 65 5f 31 30 5f 6f 66|load8_lane_10_of|
0x2d0|66 73 65 74 5f 31 30                           |fset_10         |
     |                                               |                |              d{}: 0x2d7-0x2d9 (2)
0x2d0|                     00                        |       .        |                tag: "funcidx" (0x0) 0x2d7-0x2d8 (1)
0x2d0|                        1a                     |        .       |                x: 26 (valid) 0x2d8-0x2d9 (1)
     |                                               |                |            [27]{}: ex 0x2d9-0x2f8 (31)
     |                                               |                |              nm{}: 0x2d9-0x2f6 (29)
0x2d0|                           1c                  |         .      |                n: 28 (valid) 0x2d9-0x2da (1)
0x2d0|                              76 31 32 38 2e 6c|          v128.l|                b: "v128.load8_lane_11_offset_11" 0x2da-0x2f6 (28)
0x2e0|6f 61 64 38 5f 6c 61 6e 65 5f 31 31 5f 6f 66 66|oad8_lane_11_off|
0x2f0|73 65 74 5f 31 31                              |set_11          |
     |                                               |                |              d{}: 0x2f6-0x2f8 (2)
0x2f0|                  00                           |      .         |                tag: "funcidx" (0x0) 0x2f6-0x2f7 (1)
0x2f0|                     1b                        |       .        |                x: 27 (valid) 0x2f7-0x2f8 (1)
     |                                               |                |            [28]{}: ex 0x2f8-0x317 (31)
     |                                               |                |              nm{}: 0x2f8-0x315 (29)
0x2f0|                        1c                     |        .       |                n: 28 (valid) 0x2f8-0x2f9 (1)
0x2f0|                           76 31 32 38 2e 6c 6f|         v128.lo|                b: "v128.load8_lane_12_offset_12" 0x2f9-0x315 (28)
0x300|61 64 38 5f 6c 61 6e 65 5f 31 32 5f 6f 66 66 73|ad8_lane_12_offs|
0x310|65 74 5f 31 32                                 |et_12           |
     |                                               |                |              d{}: 0x315-0x317 (2)
0x310|               00                              |     .          |                tag: "funcidx" (0x0) 0x315-0x316 (1)
0x310|                  1c                           |      .         |                x: 28 (valid) 0x316-0x317 (1)
     |                                               |                |            [29]{}: ex 0x317-0x336 (31)
     |                                               |                |              nm{}: 0x317-0x334 (29)
0x310|                     1c                        |       .        |                n: 28 (valid) 0x317-0x318 (1)
0x310|                        76 31 32 38 2e 6c 6f 61|        v128.loa|                b: "v128.load8_lane_13_offset_13" 0x318-0x334 (28)
0x320|64 38 5f 6c 61 6e 65 5f 31 33 5f 6f 66 66 73 65|d8_lane_13_offse|
0x330|74 5f 31 33                                    |t_13            |
     |                                               |                |              d{}: 0x334-0x336 (2)
0x330|            00                                 |    .           |                tag: "funcidx" (0x0) 0x334-0x335 (1)
0x330|               1d                              |     .          |                x: 29 (valid) 0x335-0x336 (1)
     |                                               |                |            [30]{}: ex 0x336-0x355 (31)
     |                                               |                |              nm{}: 0x336-0x353 (29)
0x330|                  1c                           |      .         |                n: 28 (valid) 0x336-0x337 (1)
0x330|                     76 31 32 38 2e 6c 6f 61 64|       v128.load|                b: "v128.load8_lane_14_offset_14" 0x337-0x353 (28)
0x340|38 5f 6c 61 6e 65 5f 31 34 5f 6f 66 66 73 65 74|8_lane_14_offset|
0x350|5f 31 34                                       |_14             |
     |                                               |                |              d{}: 0x353-0x355 (2)
0x350|         00                                    |   .            |                tag: "funcidx" (0x0) 0x353-0x354 (1)
0x350|            1e                                 |    .           |                x: 30 (valid) 0x354-0x355 (1)
     |                                               |                |            [31]{}: ex 0x355-0x374 (31)
     |                                               |                |              nm{}: 0x355-0x372 (29)
0x350|               1c                              |     .          |                n: 28 (valid) 0x355-0x356 (1)
0x350|                  76 31 32 38 2e 6c 6f 61 64 38|      v128.load8|                b: "v128.load8_lane_15_offset_15" 0x356-0x372 (28)
0x360|5f 6c 61 6e 65 5f 31 35 5f 6f 66 66 73 65 74 5f|_lane_15_offset_|
0x370|31 35                                          |15              |
     |                                               |                |              d{}: 0x372-0x374 (2)
0x370|      00                                       |  .             |                tag: "funcidx" (0x0) 0x372-0x373 (1)
0x370|         1f                                    |   .            |                x: 31 (valid) 0x373-0x374 (1)
     |                                               |                |            [32]{}: ex 0x374-0x390 (28)
     |                                               |                |              nm{}: 0x374-0x38e (26)
0x370|            19                                 |    .           |                n: 25 (valid) 0x374-0x375 (1)
0x370|               76 31 32 38 2e 6c 6f 61 64 38 5f|     v128.load8_|                b: "v128.load8_lane_0_align_1" 0x375-0x38e (25)
0x380|6c 61 6e 65 5f 30 5f 61 6c 69 67 6e 5f 31      |lane_0_align_1  |
     |                                               |                |              d{}: 0x38e-0x390 (2)
0x380|                                          00   |              . |                tag: "funcidx" (0x0) 0x38e-0x38f (1)
0x380|                                             20|                |                x: 32 (valid) 0x38f-0x390 (1)
     |                                               |                |            [33]{}: ex 0x390-0x3ac (28)
     |                                               |                |              nm{}: 0x390-0x3aa (26)
0x390|19                                             |.               |                n: 25 (valid) 0x390-0x391 (1)
0x390|   76 31 32 38 2e 6c 6f 61 64 38 5f 6c 61 6e 65| v128.load8_lane|                b: "v128.load8_lane_1_align_1" 0x391-0x3aa (25)
0x3a0|5f 31 5f 61 6c 69 67 6e 5f 31                  |_1_align_1      |
     |                                               |                |              d{}: 0x3aa-0x3ac (2)
0x3a0|                              00               |          .     |                tag: "funcidx" (0x0) 0x3aa-0x3ab (1)
0x3a0|                                 21            |           !    |                x: 33 (valid) 0x3ab-0x3ac (1)
     |                                               |                |            [34]{}: ex 0x3ac-0x3c8 (28)
     |                                               |                |              nm{}: 0x3ac-0x3c6 (26)
0x3a0|                                    19         |            .   |                n: 25 (valid) 0x3ac-0x3ad (1)
0x3a0|                                       76 31 32|             v12|                b: "v128.load8_lane_2_align_1" 0x3ad-0x3c6 (25)
0x3b0|38 2e 6c 6f 61 64 38 5f 6c 61 6e 65 5f 32 5f 61|8.load8_lane_2_a|
0x3c0|6c 69 67 6e 5f 31                              |lign_1          |
     |                                               |                |              d{}: 0x3c6-0x3c8 (2)
0x3c0|                  00                           |      .         |                tag: "funcidx" (0x0) 0x3c6-0x3c7 (1)
0x3c0|                     22                        |       "        |                x: 34 (valid) 0x3c7-0x3c8 (1)
     |                                               |                |            [35]{}: ex 0x3c8-0x3e4 (28)
     |                                               |                |              nm{}: 0x3c8-0x3e2 (26)
0x3c0|                        19                     |        .       |                n: 25 (valid) 0x3c8-0x3c9 (1)
0x3c0|                           76 31 32 38 2e 6c 6f|         v128.lo|                b: "v128.load8_lane_3_align_1" 0x3c9-0x3e2 (25)
0x3d0|61 64 38 5f 6c 61 6e 65 5f 33 5f 61 6c 69 67 6e|ad8_lane_3_align|
0x3e0|5f 31                                          |_1              |
     |                                               |                |              d{}: 0x3e2-0x3e4 (2)
0x3e0|      00                                       |  .             |                tag: "funcidx" (0x0) 0x3e2-0x3e3 (1)
0x3e0|         23                                    |   #            |                x: 35 (valid) 0x3e3-0x3e4 (1)
     |                                               |                |            [36]{}: ex 0x3e4-0x400 (28)
     |                                               |                |              nm{}: 0x3e4-0x3fe (26)
0x3e0|            19                                 |    .           |                n: 25 (valid) 0x3e4-0x3e5 (1)
0x3e0|               76 31 32 38 2e 6c 6f 61 64 38 5f|     v128.load8_|                b: "v128.load8_lane_4_align_1" 0x3e5-0x3fe (25)
0x3f0|6c 61 6e 65 5f 34 5f 61 6c 69 67 6e 5f 31      |lane_4_align_1  |
     |                                               |                |              d{}: 0x3fe-0x400 (2)
0x3f0|                                          00   |              . |                tag: "funcidx" (0x0) 0x3fe-0x3ff (1)
0x3f0|                                             24|               $|                x: 36 (valid) 0x3ff-0x400 (1)
     |                                               |                |            [37]{}: ex 0x400-0x41c (28)
     |                                               |                |              nm{}: 0x400-0x41a (26)
0x400|19                                             |.               |                n: 25 (valid) 0x400-0x401 (1)
0x400|   76 31 32 38 2e 6c 6f 61 64 38 5f 6c 61 6e 65| v128.load8_lane|                b: "v128.load8_lane_5_align_1" 0x401-0x41a (25)
0x410|5f 35 5f 61 6c 69 67 6e 5f 31                  |_5_align_1      |
     |                                               |                |              d{}: 0x41a-0x41c (2)
0x410|                              00               |          .     |                tag: "funcidx" (0x0) 0x41a-0x41b (1)
0x410|                                 25            |           %    |                x: 37 (valid) 0x41b-0x41c (1)
     |                                               |                |            [38]{}: ex 0x41c-0x438 (28)
     |                                               |                |              nm{}: 0x41c-0x436 (26)
0x410|                                    19         |            .   |                n: 25 (valid) 0x41c-0x41d (1)
0x410|                                       76 31 32|             v12|                b: "v128.load8_lane_6_align_1" 0x41d-0x436 (25)
0x420|38 2e 6c 6f 61 64 38 5f 6c 61 6e 65 5f 36 5f 61|8.load8_lane_6_a|
0x430|6c 69 67 6e 5f 31                              |lign_1          |
     |                                               |                |              d{}: 0x436-0x438 (2)
0x430|                  00                           |      .         |                tag: "funcidx" (0x0) 0x436-0x437 (1)
0x430|                     26                        |       &        |                x: 38 (valid) 0x437-0x438 (1)
     |                                               |                |            [39]{}: ex 0x438-0x454 (28)
     |                                               |                |              nm{}: 0x438-0x452 (26)
0x430|                        19                     |        .       |                n: 25 (valid) 0x438-0x439 (1)
0x430|                           76 31 32 38 2e 6c 6f|         v128.lo|                b: "v128.load8_lane_7_align_1" 0x439-0x452 (25)
0x440|61 64 38 5f 6c 61 6e 65 5f 37 5f 61 6c 69 67 6e|ad8_lane_7_align|
0x450|5f 31                                          |_1              |
     |                                               |                |              d{}: 0x452-0x454 (2)
0x450|      00                                       |  .             |                tag: "funcidx" (0x0) 0x452-0x453 (1)
0x450|         27                                    |   '            |                x: 39 (valid) 0x453-0x454 (1)
     |                                               |                |            [40]{}: ex 0x454-0x470 (28)
     |                                               |                |              nm{}: 0x454-0x46e (26)
0x450|            19                                 |    .           |                n: 25 (valid) 0x454-0x455 (1)
0x450|               76 31 32 38 2e 6c 6f 61 64 38 5f|     v128.load8_|                b: "v128.load8_lane_8_align_1" 0x455-0x46e (25)
0x460|6c 61 6e 65 5f 38 5f 61 6c 69 67 6e 5f 31      |lane_8_align_1  |
     |                                               |                |              d{}: 0x46e-0x470 (2)
0x460|                                          00   |              . |                tag: "funcidx" (0x0) 0x46e-0x46f (1)
0x460|                                             28|               (|                x: 40 (valid) 0x46f-0x470 (1)
     |                                               |                |            [41]{}: ex 0x470-0x48c (28)
     |                                               |                |              nm{}: 0x470-0x48a (26)
0x470|19                                             |.               |                n: 25 (valid) 0x470-0x471 (1)
0x470|   76 31 32 38 2e 6c 6f 61 64 38 5f 6c 61 6e 65| v128.load8_lane|                b: "v128.load8_lane_9_align_1" 0x471-0x48a (25)
0x480|5f 39 5f 61 6c 69 67 6e 5f 31                  |_9_align_1      |
     |                                               |                |              d{}: 0x48a-0x48c (2)
0x480|                              00               |          .     |                tag: "funcidx" (0x0) 0x48a-0x48b (1)
0x480|                                 29            |           )    |                x: 41 (valid) 0x48b-0x48c (1)
     |                                               |                |            [42]{}: ex 0x48c-0x4a9 (29)
     |                                               |                |              nm{}: 0x48c-0x4a7 (27)
0x480|                                    1a         |            .   |                n: 26 (valid) 0x48c-0x48d (1)
0x480|                                       76 31 32|             v12|                b: "v128.load8_lane_10_align_1" 0x48d-0x4a7 (26)
0x490|38 2e 6c 6f 61 64 38 5f 6c 61 6e 65 5f 31 30 5f|8.load8_lane_10_|
0x4a0|61 6c 69 67 6e 5f 31                           |align_1         |
     |                                               |                |              d{}: 0x4a7-0x4a9 (2)
0x4a0|                     00                        |       .        |                tag: "funcidx" (0x0) 0x4a7-0x4a8 (1)
0x4a0|                        2a                     |        *       |                x: 42 (valid) 0x4a8-0x4a9 (1)
     |                                               |                |            [43]{}: ex 0x4a9-0x4c6 (29)
     |                                               |                |              nm{}: 0x4a9-0x4c4 (27)
0x4a0|                           1a                  |         .      |                n: 26 (valid) 0x4a9-0x4aa (1)
0x4a0|                              76 31 32 38 2e 6c|          v128.l|                b: "v128.load8_lane_11_align_1" 0x4aa-0x4c4 (26)
0x4b0|6f 61 64 38 5f 6c 61 6e 65 5f 31 31 5f 61 6c 69|oad8_lane_11_ali|
0x4c0|67 6e 5f 31                                    |gn_1            |
     |                                               |                |              d{}: 0x4c4-0x4c6 (2)
0x4c0|            00                                 |    .           |                tag: "funcidx" (0x0) 0x4c4-0x4c5 (1)
0x4c0|               2b                              |     +          |                x: 43 (valid) 0x4c5-0x4c6 (1)
     |                                               |                |            [44]{}: ex 0x4c6-0x4e3 (29)
     |                                               |                |              nm{}: 0x4c6-0x4e1 (27)
0x4c0|                  1a                           |      .         |                n: 26 (valid) 0x4c6-0x4c7 (1)
0x4c0|                     76 31 32 38 2e 6c 6f 61 64|       v128.load|                b: "v128.load8_lane_12_align_1" 0x4c7-0x4e1 (26)
0x4d0|38 5f 6c 61 6e 65 5f 31 32 5f 61 6c 69 67 6e 5f|8_lane_12_align_|
0x4e0|31                                             |1               |
     |                                               |                |              d{}: 0x4e1-0x4e3 (2)
0x4e0|   00                                          | .              |                tag: "funcidx" (0x0) 0x4e1-0x4e2 (1)
0x4e0|      2c                                       |  ,             |                x: 44 (valid) 0x4e2-0x4e3 (1)
     |                                               |                |            [45]{}: ex 0x4e3-0x500 (29)
     |                                               |                |              nm{}: 0x4e3-0x4fe (27)
0x4e0|         1a                                    |   .            |                n: 26 (valid) 0x4e3-0x4e4 (1)
0x4e0|            76 31 32 38 2e 6c 6f 61 64 38 5f 6c|    v128.load8_l|                b: "v128.load8_lane_13_align_1" 0x4e4-0x4fe (26)
0x4f0|61 6e 65 5f 31 33 5f 61 6c 69 67 6e 5f 31      |ane_13_align_1  |
     |                                               |                |              d{}: 0x4fe-0x500 (2)
0x4f0|                                          00   |              . |                tag: "funcidx" (0x0) 0x4fe-0x4ff (1)
0x4f0|                                             2d|               -|                x: 45 (valid) 0x4ff-0x500 (1)
     |                                               |                |            [46]{}: ex 0x500-0x51d (29)
     |                                               |                |              nm{}: 0x500-0x51b (27)
0x500|1a                                             |.               |                n: 26 (valid) 0x500-0x501 (1)
0x500|   76 31 32 38 2e 6c 6f 61 64 38 5f 6c 61 6e 65| v128.load8_lane|                b: "v128.load8_lane_14_align_1" 0x501-0x51b (26)
0x510|5f 31 34 5f 61 6c 69 67 6e 5f 31               |_14_align_1     |
     |                                               |                |              d{}: 0x51b-0x51d (2)
0x510|                                 00            |           .    |                tag: "funcidx" (0x0) 0x51b-0x51c (1)
0x510|                                    2e         |            .   |                x: 46 (valid) 0x51c-0x51d (1)
     |                                               |                |            [47]{}: ex 0x51d-0x53a (29)
     |                                               |                |              nm{}: 0x51d-0x538 (27)
0x510|                                       1a      |             .  |                n: 26 (valid) 0x51d-0x51e (1)
0x510|                                          76 31|              v1|                b: "v128.load8_lane_15_align_1" 0x51e-0x538 (26)
0x520|32 38 2e 6c 6f 61 64 38 5f 6c 61 6e 65 5f 31 35|28.load8_lane_15|
0x530|5f 61 6c 69 67 6e 5f 31                        |_align_1        |
     |                                               |                |              d{}: 0x538-0x53a (2)
0x530|                        00                     |        .       |                tag: "funcidx" (0x0) 0x538-0x539 (1)
0x530|                           2f                  |         /      |                x: 47 (valid) 0x539-0x53a (1)
     |                                               |                |    [4]{}: section 0x53a-0x77e (580)
0x530|                              0a               |          .     |      id: "code_section" (10) 0x53a-0x53b (1)
0x530|                                 c1 04         |           ..   |      size: 577 (valid) 0x53b-0x53d (2)
     |                                               |                |      content{}: 0x53d-0x77e (577)
     |                                               |                |        code{}: 0x53d-0x77e (577)
0x530|                                       30      |             0  |          n: 48 (valid) 0x53d-0x53e (1)
     |                                               |                |          x[0:48]: 0x53e-0x77e (576)
     |                                               |                |            [0]{}: code 0x53e-0x54a (12)
0x530|                                          0b   |              . |              size: 11 (valid) 0x53e-0x53f (1)
     |                                               |                |              code{}: 0x53f-0x54a (11)
     |                                               |                |                t{}: 0x53f-0x540 (1)
0x530|                                             00|               .|                  n: 0 (valid) 0x53f-0x540 (1)
     |                                               |                |                  x[0:0]: 0x540-0x540 (0)
     |                                               |                |                e[0:4]: 0x540-0x54a (10)
     |                                               |                |                  [0]{}: in 0x540-0x542 (2)
0x540|20                                             |                |                    opcode: "local.get" (0x20) 0x540-0x541 (1)
0x540|   00                                          | .              |                    x: 0 (valid) 0x541-0x542 (1)
     |                                               |                |                  [1]{}: in 0x542-0x544 (2)
0x540|      20                                       |                |                    opcode: "local.get" (0x20) 0x542-0x543 (1)
0x540|         01                                    |   .            |                    x: 1 (valid) 0x543-0x544 (1)
     |                                               |                |                  [2]{}: in 0x544-0x549 (5)
0x540|            fd                                 |    .           |                    opcode: "vector" (0xfd) 0x544-0x545 (1)
0x540|               54                              |     T          |                    v_opcode: "v128.load8_lane" (84) 0x545-0x546 (1)
     |                                               |                |                    m{}: 0x546-0x548 (2)
0x540|                  00                           |      .         |                      a: 0 (valid) 0x546-0x547 (1)
0x540|                     00                        |       .        |                      o: 0 (valid) 0x547-0x548 (1)
0x540|                        00                     |        .       |                    l: 0 0x548-0x549 (1)
     |                                               |                |                  [3]{}: in 0x549-0x54a (1)
0x540|                           0b                  |         .      |                    opcode: "end" (0xb) 0x549-0x54a (1)
     |                                               |                |            [1]{}: code 0x54a-0x556 (12)
0x540|                              0b               |          .     |              size: 11 (valid) 0x54a-0x54b (1)
     |                                               |                |              code{}: 0x54b-0x556 (11)
     |                                               |                |                t{}: 0x54b-0x54c (1)
0x540|                                 00            |           .    |                  n: 0 (valid) 0x54b-0x54c (1)
     |                                               |                |                  x[0:0]: 0x54c-0x54c (0)
     |                                               |                |                e[0:4]: 0x54c-0x556 (10)
     |                                               |                |                  [0]{}: in 0x54c-0x54e (2)
0x540|                                    20         |                |                    opcode: "local.get" (0x20) 0x54c-0x54d (1)
0x540|                                       00      |             .  |                    x: 0 (valid) 0x54d-0x54e (1)
     |                                               |                |                  [1]{}: in 0x54e-0x550 (2)
0x540|                                          20   |                |                    opcode: "local.get" (0x20) 0x54e-0x54f (1)
0x540|                                             01|               .|                    x: 1 (valid) 0x54f-0x550 (1)
     |                                               |                |                  [2]{}: in 0x550-0x555 (5)
0x550|fd                                             |.               |                    opcode: "vector" (0xfd) 0x550-0x551 (1)
0x550|   54                                          | T              |                    v_opcode: "v128.load8_lane" (84) 0x551-0x552 (1)
     |                                               |                |                    m{}: 0x552-0x554 (2)
0x550|      00                                       |  .             |                      a: 0 (valid) 0x552-0x553 (1)
0x550|         00                                    |   .            |                      o: 0 (valid) 0x553-0x554 (1)
0x550|            01                                 |    .           |                    l: 1 0x554-0x555 (1)
     |                                               |                |                  [3]{}: in 0x555-0x556 (1)
0x550|               0b                              |     .          |                    opcode: "end" (0xb) 0x555-0x556 (1)
     |                                               |                |            [2]{}: code 0x556-0x562 (12)
0x550|                  0b                           |      .         |              size: 11 (valid) 0x556-0x557 (1)
     |                                               |                |              code{}: 0x557-0x562 (11)
     |                                               |                |                t{}: 0x557-0x558 (1)
0x550|                     00                        |       .        |                  n: 0 (valid) 0x557-0x558 (1)
     |                                               |                |                  x[0:0]: 0x558-0x558 (0)
     |                                               |                |                e[0:4]: 0x558-0x562 (10)
     |                                               |                |                  [0]{}: in 0x558-0x55a (2)
0x550|                        20                     |                |                    opcode: "local.get" (0x20) 0x558-0x559 (1)
0x550|                           00                  |         .      |                    x: 0 (valid) 0x559-0x55a (1)
     |                                               |                |                  [1]{}: in 0x55a-0x55c (2)
0x550|                              20               |                |                    opcode: "local.get" (0x20) 0x55a-0x55b (1)
0x550|                                 01            |           .    |                    x: 1 (valid) 0x55b-0x55c (1)
     |                                               |                |                  [2]{}: in 0x55c-0x561 (5)
0x550|                                    fd         |            .   |                    opcode: "vector" (0xfd) 0x55c-0x55d (1)
0x550|                                       54      |             T  |                    v_opcode: "v128.load8_lane" (84) 0x55d-0x55e (1)
     |                                               |                |                    m{}: 0x55e-0x560 (2)
0x550|                                          00   |              . |                      a: 0 (valid) 0x55e-0x55f (1)
0x550|                                             00|               .|                      o: 0 (valid) 0x55f-0x560 (1)
0x560|02                                             |.               |                    l: 2 0x560-0x561 (1)
     |                                               |                |                  [3]{}: in 0x561-0x562 (1)
0x560|   0b                                          | .              |                    opcode: "end" (0xb) 0x561-0x562 (1)
     |                                               |                |            [3]{}: code 0x562-0x56e (12)
0x560|      0b                                       |  .             |              size: 11 (valid) 0x562-0x563 (1)
     |                                               |                |              code{}: 0x563-0x56e (11)
     |                                               |                |                t{}: 0x563-0x564 (1)
0x560|         00                                    |   .            |                  n: 0 (valid) 0x563-0x564 (1)
     |                                               |                |                  x[0:0]: 0x564-0x564 (0)
     |                                               |                |                e[0:4]: 0x564-0x56e (10)
     |                                               |                |                  [0]{}: in 0x564-0x566 (2)
0x560|            20                                 |                |                    opcode: "local.get" (0x20) 0x564-0x565 (1)
0x560|               00                              |     .          |                    x: 0 (valid) 0x565-0x566 (1)
     |                                               |                |                  [1]{}: in 0x566-0x568 (2)
0x560|                  20                           |                |                    opcode: "local.get" (0x20) 0x566-0x567 (1)
0x560|                     01                        |       .        |                    x: 1 (valid) 0x567-0x568 (1)
     |                                               |                |                  [2]{}: in 0x568-0x56d (5)
0x560|                        fd                     |        .       |                    opcode: "vector" (0xfd) 0x568-0x569 (1)
0x560|                           54                  |         T      |                    v_opcode: "v128.load8_lane" (84) 0x569-0x56a (1)
     |                                               |                |                    m{}: 0x56a-0x56c (2)
0x560|                              00               |          .     |                      a: 0 (valid) 0x56a-0x56b (1)
0x560|                                 00            |           .    |                      o: 0 (valid) 0x56b-0x56c (1)
0x560|                                    03         |            .   |                    l: 3 0x56c-0x56d (1)
     |                                               |                |                  [3]{}: in 0x56d-0x56e (1)
0x560|                                       0b      |             .  |                    opcode: "end" (0xb) 0x56d-0x56e (1)
     |                                               |                |            [4]{}: code 0x56e-0x57a (12)
0x560|                                          0b   |              . |              size: 11 (valid) 0x56e-0x56f (1)
     |                                               |                |              code{}: 0x56f-0x57a (11)
     |                                               |                |                t{}: 0x56f-0x570 (1)
0x560|                                             00|               .|                  n: 0 (valid) 0x56f-0x570 (1)
     |                                               |                |                  x[0:0]: 0x570-0x570 (0)
     |                                               |                |                e[0:4]: 0x570-0x57a (10)
     |                                               |                |                  [0]{}: in 0x570-0x572 (2)
0x570|20                                             |                |                    opcode: "local.get" (0x20) 0x570-0x571 (1)
0x570|   00                                          | .              |                    x: 0 (valid) 0x571-0x572 (1)
     |                                               |                |                  [1]{}: in 0x572-0x574 (2)
0x570|      20                                       |                |                    opcode: "local.get" (0x20) 0x572-0x573 (1)
0x570|         01                                    |   .            |                    x: 1 (valid) 0x573-0x574 (1)
     |                                               |                |                  [2]{}: in 0x574-0x579 (5)
0x570|            fd                                 |    .           |                    opcode: "vector" (0xfd) 0x574-0x575 (1)
0x570|               54                              |     T          |                    v_opcode: "v128.load8_lane" (84) 0x575-0x576 (1)
     |                                               |                |                    m{}: 0x576-0x578 (2)
0x570|                  00                           |      .         |                      a: 0 (valid) 0x576-0x577 (1)
0x570|                     00                        |       .        |                      o: 0 (valid) 0x577-0x578 (1)
0x570|                        04                     |        .       |                    l: 4 0x578-0x579 (1)
     |                                               |                |                  [3]{}: in 0x579-0x57a (1)
0x570|                           0b                  |         .      |                    opcode: "end" (0xb) 0x579-0x57a (1)
     |                                               |                |            [5]{}: code 0x57a-0x586 (12)
0x570|                              0b               |          .     |              size: 11 (valid) 0x57a-0x57b (1)
     |                                               |                |              code{}: 0x57b-0x586 (11)
     |                                               |                |                t{}: 0x57b-0x57c (1)
0x570|                                 00            |           .    |                  n: 0 (valid) 0x57b-0x57c (1)
     |                                               |                |                  x[0:0]: 0x57c-0x57c (0)
     |                                               |                |                e[0:4]: 0x57c-0x586 (10)
     |                                               |                |                  [0]{}: in 0x57c-0x57e (2)
0x570|                                    20         |                |                    opcode: "local.get" (0x20) 0x57c-0x57d (1)
0x570|                                       00      |             .  |                    x: 0 (valid) 0x57d-0x57e (1)
     |                                               |                |                  [1]{}: in 0x57e-0x580 (2)
0x570|                                          20   |                |                    opcode: "local.get" (0x20) 0x57e-0x57f (1)
0x570|                                             01|               .|                    x: 1 (valid) 0x57f-0x580 (1)
     |                                               |                |                  [2]{}: in 0x580-0x585 (5)
0x580|fd                                             |.               |                    opcode: "vector" (0xfd) 0x580-0x581 (1)
0x580|   54                                          | T              |                    v_opcode: "v128.load8_lane" (84) 0x581-0x582 (1)
     |                                               |                |                    m{}: 0x582-0x584 (2)
0x580|      00                                       |  .             |                      a: 0 (valid) 0x582-0x583 (1)
0x580|         00                                    |   .            |                      o: 0 (valid) 0x583-0x584 (1)
0x580|            05                                 |    .           |                    l: 5 0x584-0x585 (1)
     |                                               |                |                  [3]{}: in 0x585-0x586 (1)
0x580|               0b                              |     .          |                    opcode: "end" (0xb) 0x585-0x586 (1)
     |                                               |                |            [6]{}: code 0x586-0x592 (12)
0x580|                  0b                           |      .         |              size: 11 (valid) 0x586-0x587 (1)
     |                                               |                |              code{}: 0x587-0x592 (11)
     |                                               |                |                t{}: 0x587-0x588 (1)
0x580|                     00                        |       .        |                  n: 0 (valid) 0x587-0x588 (1)
     |                                               |                |                  x[0:0]: 0x588-0x588 (0)
     |                                               |                |                e[0:4]: 0x588-0x592 (10)
     |                                               |                |                  [0]{}: in 0x588-0x58a (2)
0x580|                        20                     |                |                    opcode: "local.get" (0x20) 0x588-0x589 (1)
0x580|                           00                  |         .      |                    x: 0 (valid) 0x589-0x58a (1)
     |                                               |                |                  [1]{}: in 0x58a-0x58c (2)
0x580|                              20               |                |                    opcode: "local.get" (0x20) 0x58a-0x58b (1)
0x580|                                 01            |           .    |                    x: 1 (valid) 0x58b-0x58c (1)
     |                                               |                |                  [2]{}: in 0x58c-0x591 (5)
0x580|                                    fd         |            .   |                    opcode: "vector" (0xfd) 0x58c-0x58d (1)
0x580|                                       54      |             T  |                    v_opcode: "v128.load8_lane" (84) 0x58d-0x58e (1)
     |                                               |                |                    m{}: 0x58e-0x590 (2)
0x580|                                          00   |              . |                      a: 0 (valid) 0x58e-0x58f (1)
0x580|                                             00|               .|                      o: 0 (valid) 0x58f-0x590 (1)
0x590|06                                             |.               |                    l: 6 0x590-0x591 (1)
     |                                               |                |                  [3]{}: in 0x591-0x592 (1)
0x590|   0b                                          | .              |                    opcode: "end" (0xb) 0x591-0x592 (1)
     |                                               |                |            [7]{}: code 0x592-0x59e (12)
0x590|      0b                                       |  .             |              size: 11 (valid) 0x592-0x593 (1)
     |                                               |                |              code{}: 0x593-0x59e (11)
     |                                               |                |                t{}: 0x593-0x594 (1)
0x590|         00                                    |   .            |                  n: 0 (valid) 0x593-0x594 (1)
     |                                               |                |                  x[0:0]: 0x594-0x594 (0)
     |                                               |                |                e[0:4]: 0x594-0x59e (10)
     |                                               |                |                  [0]{}: in 0x594-0x596 (2)
0x590|            20                                 |                |                    opcode: "local.get" (0x20) 0x594-0x595 (1)
0x590|               00                              |     .          |                    x: 0 (valid) 0x595-0x596 (1)
     |                                               |                |                  [1]{}: in 0x596-0x598 (2)
0x590|                  20                           |                |                    opcode: "local.get" (0x20) 0x596-0x597 (1)
0x590|                     01                        |       .        |                    x: 1 (valid) 0x597-0x598 (1)
     |                                               |                |                  [2]{}: in 0x598-0x59d (5)
0x590|                        fd                     |        .       |                    opcode: "vector" (0xfd) 0x598-0x599 (1)
0x590|                           54                  |         T      |                    v_opcode: "v128.load8_lane" (84) 0x599-0x59a (1)
     |                                               |                |                    m{}: 0x59a-0x59c (2)
0x590|                              00               |          .     |                      a: 0 (valid) 0x59a-0x59b (1)
0x590|                                 00            |           .    |                      o: 0 (valid) 0x59b-0x59c (1)
0x590|                                    07         |            .   |                    l: 7 0x59c-0x59d (1)
     |                                               |                |                  [3]{}: in 0x59d-0x59e (1)
0x590|                                       0b      |             .  |                    opcode: "end" (0xb) 0x59d-0x59e (1)
     |                                               |                |            [8]{}: code 0x59e-0x5aa (12)
0x590|                                          0b   |              . |              size: 11 (valid) 0x59e-0x59f (1)
     |                                               |                |              code{}: 0x59f-0x5aa (11)
     |                                               |                |                t{}: 0x59f-0x5a0 (1)
0x590|                                             00|               .|                  n: 0 (valid) 0x59f-0x5a0 (1)
     |                                               |                |                  x[0:0]: 0x5a0-0x5a0 (0)
     |                                               |                |                e[0:4]: 0x5a0-0x5aa (10)
     |                                               |                |                  [0]{}: in 0x5a0-0x5a2 (2)
0x5a0|20                                             |                |                    opcode: "local.get" (0x20) 0x5a0-0x5a1 (1)
0x5a0|   00                                          | .              |                    x: 0 (valid) 0x5a1-0x5a2 (1)
     |                                               |                |                  [1]{}: in 0x5a2-0x5a4 (2)
0x5a0|      20                                       |                |                    opcode: "local.get" (0x20) 0x5a2-0x5a3 (1)
0x5a0|         01                                    |   .            |                    x: 1 (valid) 0x5a3-0x5a4 (1)
     |                                               |                |                  [2]{}: in 0x5a4-0x5a9 (5)
0x5a0|            fd                                 |    .           |                    opcode: "vector" (0xfd) 0x5a4-0x5a5 (1)
0x5a0|               54                              |     T          |                    v_opcode: "v128.load8_lane" (84) 0x5a5-0x5a6 (1)
     |                                               |                |                    m{}: 0x5a6-0x5a8 (2)
0x5a0|                  00                           |      .         |                      a: 0 (valid) 0x5a6-0x5a7 (1)
0x5a0|                     00                        |       .        |                      o: 0 (valid) 0x5a7-0x5a8 (1)
0x5a0|                        08                     |        .       |                    l: 8 0x5a8-0x5a9 (1)
     |                                               |                |                  [3]{}: in 0x5a9-0x5aa (1)
0x5a0|                           0b                  |         .      |                    opcode: "end" (0xb) 0x5a9-0x5aa (1)
     |                                               |                |            [9]{}: code 0x5aa-0x5b6 (12)
0x5a0|                              0b               |          .     |              size: 11 (valid) 0x5aa-0x5ab (1)
     |                                               |                |              code{}: 0x5ab-0x5b6 (11)
     |                                               |                |                t{}: 0x5ab-0x5ac (1)
0x5a0|                                 00            |           .    |                  n: 0 (valid) 0x5ab-0x5ac (1)
     |                                               |                |                  x[0:0]: 0x5ac-0x5ac (0)
     |                                               |                |                e[0:4]: 0x5ac-0x5b6 (10)
     |                                               |                |                  [0]{}: in 0x5ac-0x5ae (2)
0x5a0|                                    20         |                |                    opcode: "local.get" (0x20) 0x5ac-0x5ad (1)
0x5a0|                                       00      |             .  |                    x: 0 (valid) 0x5ad-0x5ae (1)
     |                                               |                |                  [1]{}: in 0x5ae-0x5b0 (2)
0x5a0|                                          20   |                |                    opcode: "local.get" (0x20) 0x5ae-0x5af (1)
0x5a0|                                             01|               .|                    x: 1 (valid) 0x5af-0x5b0 (1)
     |                                               |                |                  [2]{}: in 0x5b0-0x5b5 (5)
0x5b0|fd                                             |.               |                    opcode: "vector" (0xfd) 0x5b0-0x5b1 (1)
0x5b0|   54                                          | T              |                    v_opcode: "v128.load8_lane" (84) 0x5b1-0x5b2 (1)
     |                                               |                |                    m{}: 0x5b2-0x5b4 (2)
0x5b0|      00                                       |  .             |                      a: 0 (valid) 0x5b2-0x5b3 (1)
0x5b0|         00                                    |   .            |                      o: 0 (valid) 0x5b3-0x5b4 (1)
0x5b0|            09                                 |    .           |                    l: 9 0x5b4-0x5b5 (1)
     |                                               |                |                  [3]{}: in 0x5b5-0x5b6 (1)
0x5b0|               0b                              |     .          |                    opcode: "end" (0xb) 0x5b5-0x5b6 (1)
     |                                               |                |            [10]{}: code 0x5b6-0x5c2 (12)
0x5b0|                  0b                           |      .         |              size: 11 (valid) 0x5b6-0x5b7 (1)
     |                                               |                |              code{}: 0x5b7-0x5c2 (11)
     |                                               |                |                t{}: 0x5b7-0x5b8 (1)
0x5b0|                     00                        |       .        |                  n: 0 (valid) 0x5b7-0x5b8 (1)
     |                                               |                |                  x[0:0]: 0x5b8-0x5b8 (0)
     |                                               |                |                e[0:4]: 0x5b8-0x5c2 (10)
     |                                               |                |                  [0]{}: in 0x5b8-0x5ba (2)
0x5b0|                        20                     |                |                    opcode: "local.get" (0x20) 0x5b8-0x5b9 (1)
0x5b0|                           00                  |         .      |                    x: 0 (valid) 0x5b9-0x5ba (1)
     |                                               |                |                  [1]{}: in 0x5ba-0x5bc (2)
0x5b0|                              20               |                |                    opcode: "local.get" (0x20) 0x5ba-0x5bb (1)
0x5b0|                                 01            |           .    |                    x: 1 (valid) 0x5bb-0x5bc (1)
     |                                               |                |                  [2]{}: in 0x5bc-0x5c1 (5)
0x5b0|                                    fd         |            .   |                    opcode: "vector" (0xfd) 0x5bc-0x5bd (1)
0x5b0|                                       54      |             T  |                    v_opcode: "v128.load8_lane" (84) 0x5bd-0x5be (1)
     |                                               |                |                    m{}: 0x5be-0x5c0 (2)
0x5b0|                                          00   |              . |                      a: 0 (valid) 0x5be-0x5bf (1)
0x5b0|                                             00|               .|                      o: 0 (valid) 0x5bf-0x5c0 (1)
0x5c0|0a                                             |.               |                    l: 10 0x5c0-0x5c1 (1)
     |                                               |                |                  [3]{}: in 0x5c1-0x5c2 (1)
0x5c0|   0b                                          | .              |                    opcode: "end" (0xb) 0x5c1-0x5c2 (1)
     |                                               |                |            [11]{}: code 0x5c2-0x5ce (12)
0x5c0|      0b                                       |  .             |              size: 11 (valid) 0x5c2-0x5c3 (1)
     |                                               |                |              code{}: 0x5c3-0x5ce (11)
     |                                               |                |                t{}: 0x5c3-0x5c4 (1)
0x5c0|         00                                    |   .            |                  n: 0 (valid) 0x5c3-0x5c4 (1)
     |                                               |                |                  x[0:0]: 0x5c4-0x5c4 (0)
     |                                               |                |                e[0:4]: 0x5c4-0x5ce (10)
     |                                               |                |                  [0]{}: in 0x5c4-0x5c6 (2)
0x5c0|            20                                 |                |                    opcode: "local.get" (0x20) 0x5c4-0x5c5 (1)
0x5c0|               00                              |     .          |                    x: 0 (valid) 0x5c5-0x5c6 (1)
     |                                               |                |                  [1]{}: in 0x5c6-0x5c8 (2)
0x5c0|                  20                           |                |                    opcode: "local.get" (0x20) 0x5c6-0x5c7 (1)
0x5c0|                     01                        |       .        |                    x: 1 (valid) 0x5c7-0x5c8 (1)
     |                                               |                |                  [2]{}: in 0x5c8-0x5cd (5)
0x5c0|                        fd                     |        .       |                    opcode: "vector" (0xfd) 0x5c8-0x5c9 (1)
0x5c0|                           54                  |         T      |                    v_opcode: "v128.load8_lane" (84) 0x5c9-0x5ca (1)
     |                                               |                |                    m{}: 0x5ca-0x5cc (2)
0x5c0|                              00               |          .     |                      a: 0 (valid) 0x5ca-0x5cb (1)
0x5c0|                                 00            |           .    |                      o: 0 (valid) 0x5cb-0x5cc (1)
0x5c0|                                    0b         |            .   |                    l: 11 0x5cc-0x5cd (1)
     |                                               |                |                  [3]{}: in 0x5cd-0x5ce (1)
0x5c0|                                       0b      |             .  |                    opcode: "end" (0xb) 0x5cd-0x5ce (1)
     |                                               |                |            [12]{}: code 0x5ce-0x5da (12)
0x5c0|                                          0b   |              . |              size: 11 (valid) 0x5ce-0x5cf (1)
     |                                               |                |              code{}: 0x5cf-0x5da (11)
     |                                               |                |                t{}: 0x5cf-0x5d0 (1)
0x5c0|                                             00|               .|                  n: 0 (valid) 0x5cf-0x5d0 (1)
     |                                               |                |                  x[0:0]: 0x5d0-0x5d0 (0)
     |                                               |                |                e[0:4]: 0x5d0-0x5da (10)
     |                                               |                |                  [0]{}: in 0x5d0-0x5d2 (2)
0x5d0|20                                             |                |                    opcode: "local.get" (0x20) 0x5d0-0x5d1 (1)
0x5d0|   00                                          | .              |                    x: 0 (valid) 0x5d1-0x5d2 (1)
     |                                               |                |                  [1]{}: in 0x5d2-0x5d4 (2)
0x5d0|      20                                       |                |                    opcode: "local.get" (0x20) 0x5d2-0x5d3 (1)
0x5d0|         01                                    |   .            |                    x: 1 (valid) 0x5d3-0x5d4 (1)
     |                                               |                |                  [2]{}: in 0x5d4-0x5d9 (5)
0x5d0|            fd                                 |    .           |                    opcode: "vector" (0xfd) 0x5d4-0x5d5 (1)
0x5d0|               54                              |     T          |                    v_opcode: "v128.load8_lane" (84) 0x5d5-0x5d6 (1)
     |                                               |                |                    m{}: 0x5d6-0x5d8 (2)
0x5d0|                  00                           |      .         |                      a: 0 (valid) 0x5d6-0x5d7 (1)
0x5d0|                     00                        |       .        |                      o: 0 (valid) 0x5d7-0x5d8 (1)
0x5d0|                        0c                     |        .       |                    l: 12 0x5d8-0x5d9 (1)
     |                                               |                |                  [3]{}: in 0x5d9-0x5da (1)
0x5d0|                           0b                  |         .      |                    opcode: "end" (0xb) 0x5d9-0x5da (1)
     |                                               |                |            [13]{}: code 0x5da-0x5e6 (12)
0x5d0|                              0b               |          .     |              size: 11 (valid) 0x5da-0x5db (1)
     |                                               |                |              code{}: 0x5db-0x5e6 (11)
     |                                               |                |                t{}: 0x5db-0x5dc (1)
0x5d0|                                 00            |           .    |                  n: 0 (valid) 0x5db-0x5dc (1)
     |                                               |                |                  x[0:0]: 0x5dc-0x5dc (0)
     |                                               |                |                e[0:4]: 0x5dc-0x5e6 (10)
     |                                               |                |                  [0]{}: in 0x5dc-0x5de (2)
0x5d0|                                    20         |                |                    opcode: "local.get" (0x20) 0x5dc-0x5dd (1)
0x5d0|                                       00      |             .  |                    x: 0 (valid) 0x5dd-0x5de (1)
     |                                               |                |                  [1]{}: in 0x5de-0x5e0 (2)
0x5d0|                                          20   |                |                    opcode: "local.get" (0x20) 0x5de-0x5df (1)
0x5d0|                                             01|               .|                    x: 1 (valid) 0x5df-0x5e0 (1)
     |                                               |                |                  [2]{}: in 0x5e0-0x5e5 (5)
0x5e0|fd                                             |.               |                    opcode: "vector" (0xfd) 0x5e0-0x5e1 (1)
0x5e0|   54                                          | T              |                    v_opcode: "v128.load8_lane" (84) 0x5e1-0x5e2 (1)
     |                                               |                |                    m{}: 0x5e2-0x5e4 (2)
0x5e0|      00                                       |  .             |                      a: 0 (valid) 0x5e2-0x5e3 (1)
0x5e0|         00                                    |   .            |                      o: 0 (valid) 0x5e3-0x5e4 (1)
0x5e0|            0d                                 |    .           |                    l: 13 0x5e4-0x5e5 (1)
     |                                               |                |                  [3]{}: in 0x5e5-0x5e6 (1)
0x5e0|               0b                              |     .          |                    opcode: "end" (0xb) 0x5e5-0x5e6 (1)
     |                                               |                |            [14]{}: code 0x5e6-0x5f2 (12)
0x5e0|                  0b                           |      .         |              size: 11 (valid) 0x5e6-0x5e7 (1)
     |                                               |                |              code{}: 0x5e7-0x5f2 (11)
     |                                               |                |                t{}: 0x5e7-0x5e8 (1)
0x5e0|                     00                        |       .        |                  n: 0 (valid) 0x5e7-0x5e8 (1)
     |                                               |                |                  x[0:0]: 0x5e8-0x5e8 (0)
     |                                               |                |                e[0:4]: 0x5e8-0x5f2 (10)
     |                                               |                |                  [0]{}: in 0x5e8-0x5ea (2)
0x5e0|                        20                     |                |                    opcode: "local.get" (0x20) 0x5e8-0x5e9 (1)
0x5e0|                           00                  |         .      |                    x: 0 (valid) 0x5e9-0x5ea (1)
     |                                               |                |                  [1]{}: in 0x5ea-0x5ec (2)
0x5e0|                              20               |                |                    opcode: "local.get" (0x20) 0x5ea-0x5eb (1)
0x5e0|                                 01            |           .    |                    x: 1 (valid) 0x5eb-0x5ec (1)
     |                                               |                |                  [2]{}: in 0x5ec-0x5f1 (5)
0x5e0|                                    fd         |            .   |                    opcode: "vector" (0xfd) 0x5ec-0x5ed (1)
0x5e0|                                       54      |             T  |                    v_opcode: "v128.load8_lane" (84) 0x5ed-0x5ee (1)
     |                                               |                |                    m{}: 0x5ee-0x5f0 (2)
0x5e0|                                          00   |              . |                      a: 0 (valid) 0x5ee-0x5ef (1)
0x5e0|                                             00|               .|                      o: 0 (valid) 0x5ef-0x5f0 (1)
0x5f0|0e                                             |.               |                    l: 14 0x5f0-0x5f1 (1)
     |                                               |                |                  [3]{}: in 0x5f1-0x5f2 (1)
0x5f0|   0b                                          | .              |                    opcode: "end" (0xb) 0x5f1-0x5f2 (1)
     |                                               |                |            [15]{}: code 0x5f2-0x5fe (12)
0x5f0|      0b                                       |  .             |              size: 11 (valid) 0x5f2-0x5f3 (1)
     |                                               |                |              code{}: 0x5f3-0x5fe (11)
     |                                               |                |                t{}: 0x5f3-0x5f4 (1)
0x5f0|         00                                    |   .            |                  n: 0 (valid) 0x5f3-0x5f4 (1)
     |                                               |                |                  x[0:0]: 0x5f4-0x5f4 (0)
     |                                               |                |                e[0:4]: 0x5f4-0x5fe (10)
     |                                               |                |                  [0]{}: in 0x5f4-0x5f6 (2)
0x5f0|            20                                 |                |                    opcode: "local.get" (0x20) 0x5f4-0x5f5 (1)
0x5f0|               00                              |     .          |                    x: 0 (valid) 0x5f5-0x5f6 (1)
     |                                               |                |                  [1]{}: in 0x5f6-0x5f8 (2)
0x5f0|                  20                           |                |                    opcode: "local.get" (0x20) 0x5f6-0x5f7 (1)
0x5f0|                     01                        |       .        |                    x: 1 (valid) 0x5f7-0x5f8 (1)
     |                                               |                |                  [2]{}: in 0x5f8-0x5fd (5)
0x5f0|                        fd                     |        .       |                    opcode: "vector" (0xfd) 0x5f8-0x5f9 (1)
0x5f0|                           54                  |         T      |                    v_opcode: "v128.load8_lane" (84) 0x5f9-0x5fa (1)
     |                                               |                |                    m{}: 0x5fa-0x5fc (2)
0x5f0|                              00               |          .     |                      a: 0 (valid) 0x5fa-0x5fb (1)
0x5f0|                                 00            |           .    |                      o: 0 (valid) 0x5fb-0x5fc (1)
0x5f0|                                    0f         |            .   |                    l: 15 0x5fc-0x5fd (1)
     |                                               |                |                  [3]{}: in 0x5fd-0x5fe (1)
0x5f0|                                       0b      |             .  |                    opcode: "end" (0xb) 0x5fd-0x5fe (1)
     |                                               |                |            [16]{}: code 0x5fe-0x60a (12)
0x5f0|                                          0b   |              . |              size: 11 (valid) 0x5fe-0x5ff (1)
     |                                               |                |              code{}: 0x5ff-0x60a (11)
     |                                               |                |                t{}: 0x5ff-0x600 (1)
0x5f0|                                             00|               .|                  n: 0 (valid) 0x5ff-0x600 (1)
     |                                               |                |                  x[0:0]: 0x600-0x600 (0)
     |                                               |                |                e[0:4]: 0x600-0x60a (10)
     |                                               |                |                  [0]{}: in 0x600-0x602 (2)
0x600|41                                             |A               |                    opcode: "i32.const" (0x41) 0x600-0x601 (1)
0x600|   00                                          | .              |                    n: 0 (valid) 0x601-0x602 (1)
     |                                               |                |                  [1]{}: in 0x602-0x604 (2)
0x600|      20                                       |                |                    opcode: "local.get" (0x20) 0x602-0x603 (1)
0x600|         00                                    |   .            |                    x: 0 (valid) 0x603-0x604 (1)
     |                                               |                |                  [2]{}: in 0x604-0x609 (5)
0x600|            fd                                 |    .           |                    opcode: "vector" (0xfd) 0x604-0x605 (1)
0x600|               54                              |     T          |                    v_opcode: "v128.load8_lane" (84) 0x605-0x606 (1)
     |                                               |                |                    m{}: 0x606-0x608 (2)
0x600|                  00                           |      .         |                      a: 0 (valid) 0x606-0x607 (1)
0x600|                     00                        |       .        |                      o: 0 (valid) 0x607-0x608 (1)
0x600|                        00                     |        .       |                    l: 0 0x608-0x609 (1)
     |                                               |                |                  [3]{}: in 0x609-0x60a (1)
0x600|                           0b                  |         .      |                    opcode: "end" (0xb) 0x609-0x60a (1)
     |                                               |                |            [17]{}: code 0x60a-0x616 (12)
0x600|                              0b               |          .     |              size: 11 (valid) 0x60a-0x60b (1)
     |                                               |                |              code{}: 0x60b-0x616 (11)
     |                                               |                |                t{}: 0x60b-0x60c (1)
0x600|                                 00            |           .    |                  n: 0 (valid) 0x60b-0x60c (1)
     |                                               |                |                  x[0:0]: 0x60c-0x60c (0)
     |                                               |                |                e[0:4]: 0x60c-0x616 (10)
     |                                               |                |                  [0]{}: in 0x60c-0x60e (2)
0x600|                                    41         |            A   |                    opcode: "i32.const" (0x41) 0x60c-0x60d (1)
0x600|                                       00      |             .  |                    n: 0 (valid) 0x60d-0x60e (1)
     |                                               |                |                  [1]{}: in 0x60e-0x610 (2)
0x600|                                          20   |                |                    opcode: "local.get" (0x20) 0x60e-0x60f (1)
0x600|                                             00|               .|                    x: 0 (valid) 0x60f-0x610 (1)
     |                                               |                |                  [2]{}: in 0x610-0x615 (5)
0x610|fd                                             |.               |                    opcode: "vector" (0xfd) 0x610-0x611 (1)
0x610|   54                                          | T              |                    v_opcode: "v128.load8_lane" (84) 0x611-0x612 (1)
     |                                               |                |                    m{}: 0x612-0x614 (2)
0x610|      00                                       |  .             |                      a: 0 (valid) 0x612-0x613 (1)
0x610|         01                                    |   .            |                      o: 1 (valid) 0x613-0x614 (1)
0x610|            01                                 |    .           |                    l: 1 0x614-0x615 (1)
     |                                               |                |                  [3]{}: in 0x615-0x616 (1)
0x610|               0b                              |     .          |                    opcode: "end" (0xb) 0x615-0x616 (1)
     |                                               |                |            [18]{}: code 0x616-0x622 (12)
0x610|                  0b                           |      .         |              size: 11 (valid) 0x616-0x617 (1)
     |                                               |                |              code{}: 0x617-0x622 (11)
     |                                               |                |                t{}: 0x617-0x618 (1)
0x610|                     00                        |       .        |                  n: 0 (valid) 0x617-0x618 (1)
     |                                               |                |                  x[0:0]: 0x618-0x618 (0)
     |                                               |                |                e[0:4]: 0x618-0x622 (10)
     |                                               |                |                  [0]{}: in 0x618-0x61a (2)
0x610|                        41                     |        A       |                    opcode: "i32.const" (0x41) 0x618-0x619 (1)
0x610|                           00                  |         .      |                    n: 0 (valid) 0x619-0x61a (1)
     |                                               |                |                  [1]{}: in 0x61a-0x61c (2)
0x610|                              20               |                |                    opcode: "local.get" (0x20) 0x61a-0x61b (1)
0x610|                                 00            |           .    |                    x: 0 (valid) 0x61b-0x61c (1)
     |                                               |                |                  [2]{}: in 0x61c-0x621 (5)
0x610|                                    fd         |            .   |                    opcode: "vector" (0xfd) 0x61c-0x61d (1)
0x610|                                       54      |             T  |                    v_opcode: "v128.load8_lane" (84) 0x61d-0x61e (1)
     |                                               |                |                    m{}: 0x61e-0x620 (2)
0x610|                                          00   |              . |                      a: 0 (valid) 0x61e-0x61f (1)
0x610|                                             02|               .|                      o: 2 (valid) 0x61f-0x620 (1)
0x620|02                                             |.               |                    l: 2 0x620-0x621 (1)
     |                                               |                |                  [3]{}: in 0x621-0x622 (1)
0x620|   0b                                          | .              |                    opcode: "end" (0xb) 0x621-0x622 (1)
     |                                               |                |            [19]{}: code 0x622-0x62e (12)
0x620|      0b                                       |  .             |              size: 11 (valid) 0x622-0x623 (1)
     |                                               |                |              code{}: 0x623-0x62e (11)
     |                                               |                |                t{}: 0x623-0x624 (1)
0x620|         00                                    |   .            |                  n: 0 (valid) 0x623-0x624 (1)
     |                                               |                |                  x[0:0]: 0x624-0x624 (0)
     |                                               |                |                e[0:4]: 0x624-0x62e (10)
     |                                               |                |                  [0]{}: in 0x624-0x626 (2)
0x620|            41                                 |    A           |                    opcode: "i32.const" (0x41) 0x624-0x625 (1)
0x620|               00                              |     .          |                    n: 0 (valid) 0x625-0x626 (1)
     |                                               |                |                  [1]{}: in 0x626-0x628 (2)
0x620|                  20                           |                |                    opcode: "local.get" (0x20) 0x626-0x627 (1)
0x620|                     00                        |       .        |                    x: 0 (valid) 0x627-0x628 (1)
     |                                               |                |                  [2]{}: in 0x628-0x62d (5)
0x620|                        fd                     |        .       |                    opcode: "vector" (0xfd) 0x628-0x629 (1)
0x620|                           54                  |         T      |                    v_opcode: "v128.load8_lane" (84) 0x629-0x62a (1)
     |                                               |                |                    m{}: 0x62a-0x62c (2)
0x620|                              00               |          .     |                      a: 0 (valid) 0x62a-0x62b (1)
0x620|                                 03            |           .    |                      o: 3 (valid) 0x62b-0x62c (1)
0x620|                                    03         |            .   |                    l: 3 0x62c-0x62d (1)
     |                                               |                |                  [3]{}: in 0x62d-0x62e (1)
0x620|                                       0b      |             .  |                    opcode: "end" (0xb) 0x62d-0x62e (1)
     |                                               |                |            [20]{}: code 0x62e-0x63a (12)
0x620|                                          0b   |              . |              size: 11 (valid) 0x62e-0x62f (1)
     |                                               |                |              code{}: 0x62f-0x63a (11)
     |                                               |                |                t{}: 0x62f-0x630 (1)
0x620|                                             00|               .|                  n: 0 (valid) 0x62f-0x630 (1)
     |                                               |                |                  x[0:0]: 0x630-0x630 (0)
     |                                               |                |                e[0:4]: 0x630-0x63a (10)
     |                                               |                |                  [0]{}: in 0x630-0x632 (2)
0x630|41                                             |A               |                    opcode: "i32.const" (0x41) 0x630-0x631 (1)
0x630|   00                                          | .              |                    n: 0 (valid) 0x631-0x632 (1)
     |                                               |                |                  [1]{}: in 0x632-0x634 (2)
0x630|      20                                       |                |                    opcode: "local.get" (0x20) 0x632-0x633 (1)
0x630|         00                                    |   .            |                    x: 0 (valid) 0x633-0x634 (1)
     |                                               |                |                  [2]{}: in 0x634-0x639 (5)
0x630|            fd                                 |    .           |                    opcode: "vector" (0xfd) 0x634-0x635 (1)
0x630|               54                              |     T          |                    v_opcode: "v128.load8_lane" (84) 0x635-0x636 (1)
     |                                               |                |                    m{}: 0x636-0x638 (2)
0x630|                  00                           |      .         |                      a: 0 (valid) 0x636-0x637 (1)
0x630|                     04                        |       .        |                      o: 4 (valid) 0x637-0x638 (1)
0x630|                        04                     |        .       |                    l: 4 0x638-0x639 (1)
     |                                               |                |                  [3]{}: in 0x639-0x63a (1)
0x630|                           0b                  |         .      |                    opcode: "end" (0xb) 0x639-0x63a (1)
     |                                               |                |            [21]{}: code 0x63a-0x646 (12)
0x630|                              0b               |          .     |              size: 11 (valid) 0x63a-0x63b (1)
     |                                               |                |              code{}: 0x63b-0x646 (11)
     |                                               |                |                t{}: 0x63b-0x63c (1)
0x630|                                 00            |           .    |                  n: 0 (valid) 0x63b-0x63c (1)
     |                                               |                |                  x[0:0]: 0x63c-0x63c (0)
     |                                               |                |                e[0:4]: 0x63c-0x646 (10)
     |                                               |                |                  [0]{}: in 0x63c-0x63e (2)
0x630|                                    41         |            A   |                    opcode: "i32.const" (0x41) 0x63c-0x63d (1)
0x630|                                       00      |             .  |                    n: 0 (valid) 0x63d-0x63e (1)
     |                                               |                |                  [1]{}: in 0x63e-0x640 (2)
0x630|                                          20   |                |                    opcode: "local.get" (0x20) 0x63e-0x63f (1)
0x630|                                             00|               .|                    x: 0 (valid) 0x63f-0x640 (1)
     |                                               |                |                  [2]{}: in 0x640-0x645 (5)
0x640|fd                                             |.               |                    opcode: "vector" (0xfd) 0x640-0x641 (1)
0x640|   54                                          | T              |                    v_opcode: "v128.load8_lane" (84) 0x641-0x642 (1)
     |                                               |                |                    m{}: 0x642-0x644 (2)
0x640|      00                                       |  .             |                      a: 0 (valid) 0x642-0x643 (1)
0x640|         05                                    |   .            |                      o: 5 (valid) 0x643-0x644 (1)
0x640|            05                                 |    .           |                    l: 5 0x644-0x645 (1)
     |                                               |                |                  [3]{}: in 0x645-0x646 (1)
0x640|               0b                              |     .          |                    opcode: "end" (0xb) 0x645-0x646 (1)
     |                                               |                |            [22]{}: code 0x646-0x652 (12)
0x640|                  0b                           |      .         |              size: 11 (valid) 0x646-0x647 (1)
     |                                               |                |              code{}: 0x647-0x652 (11)
     |                                               |                |                t{}: 0x647-0x648 (1)
0x640|                     00                        |       .        |                  n: 0 (valid) 0x647-0x648 (1)
     |                                               |                |                  x[0:0]: 0x648-0x648 (0)
     |                                               |                |                e[0:4]: 0x648-0x652 (10)
     |                                               |                |                  [0]{}: in 0x648-0x64a (2)
0x640|                        41                     |        A       |                    opcode: "i32.const" (0x41) 0x648-0x649 (1)
0x640|                           00                  |         .      |                    n: 0 (valid) 0x649-0x64a (1)
     |                                               |                |                  [1]{}: in 0x64a-0x64c (2)
0x640|                              20               |                |                    opcode: "local.get" (0x20) 0x64a-0x64b (1)
0x640|                                 00            |           .    |                    x: 0 (valid) 0x64b-0x64c (1)
     |                                               |                |                  [2]{}: in 0x64c-0x651 (5)
0x640|                                    fd         |            .   |                    opcode: "vector" (0xfd) 0x64c-0x64d (1)
0x640|                                       54      |             T  |                    v_opcode: "v128.load8_lane" (84) 0x64d-0x64e (1)
     |                                               |                |                    m{}: 0x64e-0x650 (2)
0x640|                                          00   |              . |                      a: 0 (valid) 0x64e-0x64f (1)
0x640|                                             06|               .|                      o: 6 (valid) 0x64f-0x650 (1)
0x650|06                                             |.               |                    l: 6 0x650-0x651 (1)
     |                                               |                |                  [3]{}: in 0x651-0x652 (1)
0x650|   0b                                          | .              |                    opcode: "end" (0xb) 0x651-0x652 (1)
     |                                               |                |            [23]{}: code 0x652-0x65e (12)
0x650|      0b                                       |  .             |              size: 11 (valid) 0x652-0x653 (1)
     |                                               |                |              code{}: 0x653-0x65e (11)
     |                                               |                |                t{}: 0x653-0x654 (1)
0x650|         00                                    |   .            |                  n: 0 (valid) 0x653-0x654 (1)
     |                                               |                |                  x[0:0]: 0x654-0x654 (0)
     |                                               |                |                e[0:4]: 0x654-0x65e (10)
     |                                               |                |                  [0]{}: in 0x654-0x656 (2)
0x650|            41                                 |    A           |                    opcode: "i32.const" (0x41) 0x654-0x655 (1)
0x650|               00                              |     .          |                    n: 0 (valid) 0x655-0x656 (1)
     |                                               |                |                  [1]{}: in 0x656-0x658 (2)
0x650|                  20                           |                |                    opcode: "local.get" (0x20) 0x656-0x657 (1)
0x650|                     00                        |       .        |                    x: 0 (valid) 0x657-0x658 (1)
     |                                               |                |                  [2]{}: in 0x658-0x65d (5)
0x650|                        fd                     |        .       |                    opcode: "vector" (0xfd) 0x658-0x659 (1)
0x650|                           54                  |         T      |                    v_opcode: "v128.load8_lane" (84) 0x659-0x65a (1)
     |                                               |                |                    m{}: 0x65a-0x65c (2)
0x650|                              00               |          .     |                      a: 0 (valid) 0x65a-0x65b (1)
0x650|                                 07            |           .    |                      o: 7 (valid) 0x65b-0x65c (1)
0x650|                                    07         |            .   |                    l: 7 0x65c-0x65d (1)
     |                                               |                |                  [3]{}: in 0x65d-0x65e (1)
0x650|                                       0b      |             .  |                    opcode: "end" (0xb) 0x65d-0x65e (1)
     |                                               |                |            [24]{}: code 0x65e-0x66a (12)
0x650|                                          0b   |              . |              size: 11 (valid) 0x65e-0x65f (1)
     |                                               |                |              code{}: 0x65f-0x66a (11)
     |                                               |                |                t{}: 0x65f-0x660 (1)
0x650|                                             00|               .|                  n: 0 (valid) 0x65f-0x660 (1)
     |                                               |                |                  x[0:0]: 0x660-0x660 (0)
     |                                               |                |                e[0:4]: 0x660-0x66a (10)
     |                                               |                |                  [0]{}: in 0x660-0x662 (2)
0x660|41                                             |A               |                    opcode: "i32.const" (0x41) 0x660-0x661 (1)
0x660|   00                                          | .              |                    n: 0 (valid) 0x661-0x662 (1)
     |                                               |                |                  [1]{}: in 0x662-0x664 (2)
0x660|      20                                       |                |                    opcode: "local.get" (0x20) 0x662-0x663 (1)
0x660|         00                                    |   .            |                    x: 0 (valid) 0x663-0x664 (1)
     |                                               |                |                  [2]{}: in 0x664-0x669 (5)
0x660|            fd                                 |    .           |                    opcode: "vector" (0xfd) 0x664-0x665 (1)
0x660|               54                              |     T          |                    v_opcode: "v128.load8_lane" (84) 0x665-0x666 (1)
     |                                               |                |                    m{}: 0x666-0x668 (2)
0x660|                  00                           |      .         |                      a: 0 (valid) 0x666-0x667 (1)
0x660|                     08                        |       .        |                      o: 8 (valid) 0x667-0x668 (1)
0x660|                        08                     |        .       |                    l: 8 0x668-0x669 (1)
     |                                               |                |                  [3]{}: in 0x669-0x66a (1)
0x660|                           0b                  |         .      |                    opcode: "end" (0xb) 0x669-0x66a (1)
     |                                               |                |            [25]{}: code 0x66a-0x676 (12)
0x660|                              0b               |          .     |              size: 11 (valid) 0x66a-0x66b (1)
     |                                               |                |              code{}: 0x66b-0x676 (11)
     |                                               |                |                t{}: 0x66b-0x66c (1)
0x660|                                 00            |           .    |                  n: 0 (valid) 0x66b-0x66c (1)
     |                                               |                |                  x[0:0]: 0x66c-0x66c (0)
     |                                               |                |                e[0:4]: 0x66c-0x676 (10)
     |                                               |                |                  [0]{}: in 0x66c-0x66e (2)
0x660|                                    41         |            A   |                    opcode: "i32.const" (0x41) 0x66c-0x66d (1)
0x660|                                       00      |             .  |                    n: 0 (valid) 0x66d-0x66e (1)
     |                                               |                |                  [1]{}: in 0x66e-0x670 (2)
0x660|                                          20   |                |                    opcode: "local.get" (0x20) 0x66e-0x66f (1)
0x660|                                             00|               .|                    x: 0 (valid) 0x66f-0x670 (1)
     |                                               |                |                  [2]{}: in 0x670-0x675 (5)
0x670|fd                                             |.               |                    opcode: "vector" (0xfd) 0x670-0x671 (1)
0x670|   54                                          | T              |                    v_opcode: "v128.load8_lane" (84) 0x671-0x672 (1)
     |                                               |                |                    m{}: 0x672-0x674 (2)
0x670|      00                                       |  .             |                      a: 0 (valid) 0x672-0x673 (1)
0x670|         09                                    |   .            |                      o: 9 (valid) 0x673-0x674 (1)
0x670|            09                                 |    .           |                    l: 9 0x674-0x675 (1)
     |                                               |                |                  [3]{}: in 0x675-0x676 (1)
0x670|               0b                              |     .          |                    opcode: "end" (0xb) 0x675-0x676 (1)
     |                                               |                |            [26]{}: code 0x676-0x682 (12)
0x670|                  0b                           |      .         |              size: 11 (valid) 0x676-0x677 (1)
     |                                               |                |              code{}: 0x677-0x682 (11)
     |                                               |                |                t{}: 0x677-0x678 (1)
0x670|                     00                        |       .        |                  n: 0 (valid) 0x677-0x678 (1)
     |                                               |                |                  x[0:0]: 0x678-0x678 (0)
     |                                               |                |                e[0:4]: 0x678-0x682 (10)
     |                                               |                |                  [0]{}: in 0x678-0x67a (2)
0x670|                        41                     |        A       |                    opcode: "i32.const" (0x41) 0x678-0x679 (1)
0x670|                           00                  |         .      |                    n: 0 (valid) 0x679-0x67a (1)
     |                                               |                |                  [1]{}: in 0x67a-0x67c (2)
0x670|                              20               |                |                    opcode: "local.get" (0x20) 0x67a-0x67b (1)
0x670|                                 00            |           .    |                    x: 0 (valid) 0x67b-0x67c (1)
     |                                               |                |                  [2]{}: in 0x67c-0x681 (5)
0x670|                                    fd         |            .   |                    opcode: "vector" (0xfd) 0x67c-0x67d (1)
0x670|                                       54      |             T  |                    v_opcode: "v128.load8_lane" (84) 0x67d-0x67e (1)
     |                                               |                |                    m{}: 0x67e-0x680 (2)
0x670|                                          00   |              . |                      a: 0 (valid) 0x67e-0x67f (1)
0x670|                                             0a|               .|                      o: 10 (valid) 0x67f-0x680 (1)
0x680|0a                                             |.               |                    l: 10 0x680-0x681 (1)
     |                                               |                |                  [3]{}: in 0x681-0x682 (1)
0x680|   0b                                          | .              |                    opcode: "end" (0xb) 0x681-0x682 (1)
     |                                               |                |            [27]{}: code 0x682-0x68e (12)
0x680|      0b                                       |  .             |              size: 11 (valid) 0x682-0x683 (1)
     |                                               |                |              code{}: 0x683-0x68e (11)
     |                                               |                |                t{}: 0x683-0x684 (1)
0x680|         00                                    |   .            |                  n: 0 (valid) 0x683-0x684 (1)
     |                                               |                |                  x[0:0]: 0x684-0x684 (0)
     |                                               |                |                e[0:4]: 0x684-0x68e (10)
     |                                               |                |                  [0]{}: in 0x684-0x686 (2)
0x680|            41                                 |    A           |                    opcode: "i32.const" (0x41) 0x684-0x685 (1)
0x680|               00                              |     .          |                    n: 0 (valid) 0x685-0x686 (1)
     |                                               |                |                  [1]{}: in 0x686-0x688 (2)
0x680|                  20                           |                |                    opcode: "local.get" (0x20) 0x686-0x687 (1)
0x680|                     00                        |       .        |                    x: 0 (valid) 0x687-0x688 (1)
     |                                               |                |                  [2]{}: in 0x688-0x68d (5)
0x680|                        fd                     |        .       |                    opcode: "vector" (0xfd) 0x688-0x689 (1)
0x680|                           54                  |         T      |                    v_opcode: "v128.load8_lane" (84) 0x689-0x68a (1)
     |                                               |                |                    m{}: 0x68a-0x68c (2)
0x680|                              00               |          .     |                      a: 0 (valid) 0x68a-0x68b (1)
0x680|                                 0b            |           .    |                      o: 11 (valid) 0x68b-0x68c (1)
0x680|                                    0b         |            .   |                    l: 11 0x68c-0x68d (1)
     |                                               |                |                  [3]{}: in 0x68d-0x68e (1)
0x680|                                       0b      |             .  |                    opcode: "end" (0xb) 0x68d-0x68e (1)
     |                                               |                |            [28]{}: code 0x68e-0x69a (12)
0x680|                                          0b   |              . |              size: 11 (valid) 0x68e-0x68f (1)
     |                                               |                |              code{}: 0x68f-0x69a (11)
     |                                               |                |                t{}: 0x68f-0x690 (1)
0x680|                                             00|               .|                  n: 0 (valid) 0x68f-0x690 (1)
     |                                               |                |                  x[0:0]: 0x690-0x690 (0)
     |                                               |                |                e[0:4]: 0x690-0x69a (10)
     |                                               |                |                  [0]{}: in 0x690-0x692 (2)
0x690|41                                             |A               |                    opcode: "i32.const" (0x41) 0x690-0x691 (1)
0x690|   00                                          | .              |                    n: 0 (valid) 0x691-0x692 (1)
     |                                               |                |                  [1]{}: in 0x692-0x694 (2)
0x690|      20                                       |                |                    opcode: "local.get" (0x20) 0x692-0x693 (1)
0x690|         00                                    |   .            |                    x: 0 (valid) 0x693-0x694 (1)
     |                                               |                |                  [2]{}: in 0x694-0x699 (5)
0x690|            fd                                 |    .           |                    opcode: "vector" (0xfd) 0x694-0x695 (1)
0x690|               54                              |     T          |                    v_opcode: "v128.load8_lane" (84) 0x695-0x696 (1)
     |                                               |                |                    m{}: 0x696-0x698 (2)
0x690|                  00                           |      .         |                      a: 0 (valid) 0x696-0x697 (1)
0x690|                     0c                        |       .        |                      o: 12 (valid) 0x697-0x698 (1)
0x690|                        0c                     |        .       |                    l: 12 0x698-0x699 (1)
     |                                               |                |                  [3]{}: in 0x699-0x69a (1)
0x690|                           0b                  |         .      |                    opcode: "end" (0xb) 0x699-0x69a (1)
     |                                               |                |            [29]{}: code 0x69a-0x6a6 (12)
0x690|                              0b               |          .     |              size: 11 (valid) 0x69a-0x69b (1)
     |                                               |                |              code{}: 0x69b-0x6a6 (11)
     |                                               |                |                t{}: 0x69b-0x69c (1)
0x690|                                 00            |           .    |                  n: 0 (valid) 0x69b-0x69c (1)
     |                                               |                |                  x[0:0]: 0x69c-0x69c (0)
     |                                               |                |                e[0:4]: 0x69c-0x6a6 (10)
     |                                               |                |                  [0]{}: in 0x69c-0x69e (2)
0x690|                                    41         |            A   |                    opcode: "i32.const" (0x41) 0x69c-0x69d (1)
0x690|                                       00      |             .  |                    n: 0 (valid) 0x69d-0x69e (1)
     |                                               |                |                  [1]{}: in 0x69e-0x6a0 (2)
0x690|                                          20   |                |                    opcode: "local.get" (0x20) 0x69e-0x69f (1)
0x690|                                             00|               .|                    x: 0 (valid) 0x69f-0x6a0 (1)
     |                                               |                |                  [2]{}: in 0x6a0-0x6a5 (5)
0x6a0|fd                                             |.               |                    opcode: "vector" (0xfd) 0x6a0-0x6a1 (1)
0x6a0|   54                                          | T              |                    v_opcode: "v128.load8_lane" (84) 0x6a1-0x6a2 (1)
     |                                               |                |                    m{}: 0x6a2-0x6a4 (2)
0x6a0|      00                                       |  .             |                      a: 0 (valid) 0x6a2-0x6a3 (1)
0x6a0|         0d                                    |   .            |                      o: 13 (valid) 0x6a3-0x6a4 (1)
0x6a0|            0d                                 |    .           |                    l: 13 0x6a4-0x6a5 (1)
     |                                               |                |                  [3]{}: in 0x6a5-0x6a6 (1)
0x6a0|               0b                              |     .          |                    opcode: "end" (0xb) 0x6a5-0x6a6 (1)
     |                                               |                |            [30]{}: code 0x6a6-0x6b2 (12)
0x6a0|                  0b                           |      .         |              size: 11 (valid) 0x6a6-0x6a7 (1)
     |                                               |                |              code{}: 0x6a7-0x6b2 (11)
     |                                               |                |                t{}: 0x6a7-0x6a8 (1)
0x6a0|                     00                        |       .        |                  n: 0 (valid) 0x6a7-0x6a8 (1)
     |                                               |                |                  x[0:0]: 0x6a8-0x6a8 (0)
     |                                               |                |                e[0:4]: 0x6a8-0x6b2 (10)
     |                                               |                |                  [0]{}: in 0x6a8-0x6aa (2)
0x6a0|                        41                     |        A       |                    opcode: "i32.const" (0x41) 0x6a8-0x6a9 (1)
0x6a0|                           00                  |         .      |                    n: 0 (valid) 0x6a9-0x6aa (1)
     |                                               |                |                  [1]{}: in 0x6aa-0x6ac (2)
0x6a0|                              20               |                |                    opcode: "local.get" (0x20) 0x6aa-0x6ab (1)
0x6a0|                                 00            |           .    |                    x: 0 (valid) 0x6ab-0x6ac (1)
     |                                               |                |                  [2]{}: in 0x6ac-0x6b1 (5)
0x6a0|                                    fd         |            .   |                    opcode: "vector" (0xfd) 0x6ac-0x6ad (1)
0x6a0|                                       54      |             T  |                    v_opcode: "v128.load8_lane" (84) 0x6ad-0x6ae (1)
     |                                               |                |                    m{}: 0x6ae-0x6b0 (2)
0x6a0|                                          00   |              . |                      a: 0 (valid) 0x6ae-0x6af (1)
0x6a0|                                             0e|               .|                      o: 14 (valid) 0x6af-0x6b0 (1)
0x6b0|0e                                             |.               |                    l: 14 0x6b0-0x6b1 (1)
     |                                               |                |                  [3]{}: in 0x6b1-0x6b2 (1)
0x6b0|   0b                                          | .              |                    opcode: "end" (0xb) 0x6b1-0x6b2 (1)
     |                                               |                |            [31]{}: code 0x6b2-0x6be (12)
0x6b0|      0b                                       |  .             |              size: 11 (valid) 0x6b2-0x6b3 (1)
     |                                               |                |              code{}: 0x6b3-0x6be (11)
     |                                               |                |                t{}: 0x6b3-0x6b4 (1)
0x6b0|         00                                    |   .            |                  n: 0 (valid) 0x6b3-0x6b4 (1)
     |                                               |                |                  x[0:0]: 0x6b4-0x6b4 (0)
     |                                               |                |                e[0:4]: 0x6b4-0x6be (10)
     |                                               |                |                  [0]{}: in 0x6b4-0x6b6 (2)
0x6b0|            41                                 |    A           |                    opcode: "i32.const" (0x41) 0x6b4-0x6b5 (1)
0x6b0|               00                              |     .          |                    n: 0 (valid) 0x6b5-0x6b6 (1)
     |                                               |                |                  [1]{}: in 0x6b6-0x6b8 (2)
0x6b0|                  20                           |                |                    opcode: "local.get" (0x20) 0x6b6-0x6b7 (1)
0x6b0|                     00                        |       .        |                    x: 0 (valid) 0x6b7-0x6b8 (1)
     |                                               |                |                  [2]{}: in 0x6b8-0x6bd (5)
0x6b0|                        fd                     |        .       |                    opcode: "vector" (0xfd) 0x6b8-0x6b9 (1)
0x6b0|                           54                  |         T      |                    v_opcode: "v128.load8_lane" (84) 0x6b9-0x6ba (1)
     |                                               |                |                    m{}: 0x6ba-0x6bc (2)
0x6b0|                              00               |          .     |                      a: 0 (valid) 0x6ba-0x6bb (1)
0x6b0|                                 0f            |           .    |                      o: 15 (valid) 0x6bb-0x6bc (1)
0x6b0|                                    0f         |            .   |                    l: 15 0x6bc-0x6bd (1)
     |                                               |                |                  [3]{}: in 0x6bd-0x6be (1)
0x6b0|                                       0b      |             .  |                    opcode: "end" (0xb) 0x6bd-0x6be (1)
     |                                               |                |            [32]{}: code 0x6be-0x6ca (12)
0x6b0|                                          0b   |              . |              size: 11 (valid) 0x6be-0x6bf (1)
     |                                               |                |              code{}: 0x6bf-0x6ca (11)
     |                                               |                |                t{}: 0x6bf-0x6c0 (1)
0x6b0|                                             00|               .|                  n: 0 (valid) 0x6bf-0x6c0 (1)
     |                                               |                |                  x[0:0]: 0x6c0-0x6c0 (0)
     |                                               |                |                e[0:4]: 0x6c0-0x6ca (10)
     |                                               |                |                  [0]{}: in 0x6c0-0x6c2 (2)
0x6c0|20                                             |                |                    opcode: "local.get" (0x20) 0x6c0-0x6c1 (1)
0x6c0|   00                                          | .              |                    x: 0 (valid) 0x6c1-0x6c2 (1)
     |                                               |                |                  [1]{}: in 0x6c2-0x6c4 (2)
0x6c0|      20                                       |                |                    opcode: "local.get" (0x20) 0x6c2-0x6c3 (1)
0x6c0|         01                                    |   .            |                    x: 1 (valid) 0x6c3-0x6c4 (1)
     |                                               |                |                  [2]{}: in 0x6c4-0x6c9 (5)
0x6c0|            fd                                 |    .           |                    opcode: "vector" (0xfd) 0x6c4-0x6c5 (1)
0x6c0|               54                              |     T          |                    v_opcode: "v128.load8_lane" (84) 0x6c5-0x6c6 (1)
     |                                               |                |                    m{}: 0x6c6-0x6c8 (2)
0x6c0|                  00                           |      .         |                      a: 0 (valid) 0x6c6-0x6c7 (1)
0x6c0|                     00                        |       .        |                      o: 0 (valid) 0x6c7-0x6c8 (1)
0x6c0|                        00                     |        .       |                    l: 0 0x6c8-0x6c9 (1)
     |                                               |                |                  [3]{}: in 0x6c9-0x6ca (1)
0x6c0|                           0b                  |         .      |                    opcode: "end" (0xb) 0x6c9-0x6ca (1)
     |                                               |                |            [33]{}: code 0x6ca-0x6d6 (12)
0x6c0|                              0b               |          .     |              size: 11 (valid) 0x6ca-0x6cb (1)
     |                                               |                |              code{}: 0x6cb-0x6d6 (11)
     |                                               |                |                t{}: 0x6cb-0x6cc (1)
0x6c0|                                 00            |           .    |                  n: 0 (valid) 0x6cb-0x6cc (1)
     |                                               |                |                  x[0:0]: 0x6cc-0x6cc (0)
     |                                               |                |                e[0:4]: 0x6cc-0x6d6 (10)
     |                                               |                |                  [0]{}: in 0x6cc-0x6ce (2)
0x6c0|                                    20         |                |                    opcode: "local.get" (0x20) 0x6cc-0x6cd (1)
0x6c0|                                       00      |             .  |                    x: 0 (valid) 0x6cd-0x6ce (1)
     |                                               |                |                  [1]{}: in 0x6ce-0x6d0 (2)
0x6c0|                                          20   |                |                    opcode: "local.get" (0x20) 0x6ce-0x6cf (1)
0x6c0|                                             01|               .|                    x: 1 (valid) 0x6cf-0x6d0 (1)
     |                                               |                |                  [2]{}: in 0x6d0-0x6d5 (5)
0x6d0|fd                                             |.               |                    opcode: "vector" (0xfd) 0x6d0-0x6d1 (1)
0x6d0|   54                                          | T              |                    v_opcode: "v128.load8_lane" (84) 0x6d1-0x6d2 (1)
     |                                               |                |                    m{}: 0x6d2-0x6d4 (2)
0x6d0|      00                                       |  .             |                      a: 0 (valid) 0x6d2-0x6d3 (1)
0x6d0|         00                                    |   .            |                      o: 0 (valid) 0x6d3-0x6d4 (1)
0x6d0|            01                                 |    .           |                    l: 1 0x6d4-0x6d5 (1)
     |                                               |                |                  [3]{}: in 0x6d5-0x6d6 (1)
0x6d0|               0b                              |     .          |                    opcode: "end" (0xb) 0x6d5-0x6d6 (1)
     |                                               |                |            [34]{}: code 0x6d6-0x6e2 (12)
0x6d0|                  0b                           |      .         |              size: 11 (valid) 0x6d6-0x6d7 (1)
     |                                               |                |              code{}: 0x6d7-0x6e2 (11)
     |                                               |                |                t{}: 0x6d7-0x6d8 (1)
0x6d0|                     00                        |       .        |                  n: 0 (valid) 0x6d7-0x6d8 (1)
     |                                               |                |                  x[0:0]: 0x6d8-0x6d8 (0)
     |                                               |                |                e[0:4]: 0x6d8-0x6e2 (10)
     |                                               |                |                  [0]{}: in 0x6d8-0x6da (2)
0x6d0|                        20                     |                |                    opcode: "local.get" (0x20) 0x6d8-0x6d9 (1)
0x6d0|                           00                  |         .      |                    x: 0 (valid) 0x6d9-0x6da (1)
     |                                               |                |                  [1]{}: in 0x6da-0x6dc (2)
0x6d0|                              20               |                |                    opcode: "local.get" (0x20) 0x6da-0x6db (1)
0x6d0|                                 01            |           .    |                    x: 1 (valid) 0x6db-0x6dc (1)
     |                                               |                |                  [2]{}: in 0x6dc-0x6e1 (5)
0x6d0|                                    fd         |            .   |                    opcode: "vector" (0xfd) 0x6dc-0x6dd (1)
0x6d0|                                       54      |             T  |                    v_opcode: "v128.load8_lane" (84) 0x6dd-0x6de (1)
     |                                               |                |                    m{}: 0x6de-0x6e0 (2)
0x6d0|                                          00   |              . |                      a: 0 (valid) 0x6de-0x6df (1)
0x6d0|                                             00|               .|                      o: 0 (valid) 0x6df-0x6e0 (1)
0x6e0|02                                             |.               |                    l: 2 0x6e0-0x6e1 (1)
     |                                               |                |                  [3]{}: in 0x6e1-0x6e2 (1)
0x6e0|   0b                                          | .              |                    opcode: "end" (0xb) 0x6e1-0x6e2 (1)
     |                                               |                |            [35]{}: code 0x6e2-0x6ee (12)
0x6e0|      0b                                       |  .             |              size: 11 (valid) 0x6e2-0x6e3 (1)
     |                                               |                |              code{}: 0x6e3-0x6ee (11)
     |                                               |                |                t{}: 0x6e3-0x6e4 (1)
0x6e0|         00                                    |   .            |                  n: 0 (valid) 0x6e3-0x6e4 (1)
     |                                               |                |                  x[0:0]: 0x6e4-0x6e4 (0)
     |                                               |                |                e[0:4]: 0x6e4-0x6ee (10)
     |                                               |                |                  [0]{}: in 0x6e4-0x6e6 (2)
0x6e0|            20                                 |                |                    opcode: "local.get" (0x20) 0x6e4-0x6e5 (1)
0x6e0|               00                              |     .          |                    x: 0 (valid) 0x6e5-0x6e6 (1)
     |                                               |                |                  [1]{}: in 0x6e6-0x6e8 (2)
0x6e0|                  20                           |                |                    opcode: "local.get" (0x20) 0x6e6-0x6e7 (1)
0x6e0|                     01                        |       .        |                    x: 1 (valid) 0x6e7-0x6e8 (1)
     |                                               |                |                  [2]{}: in 0x6e8-0x6ed (5)
0x6e0|                        fd                     |        .       |                    opcode: "vector" (0xfd) 0x6e8-0x6e9 (1)
0x6e0|                           54                  |         T      |                    v_opcode: "v128.load8_lane" (84) 0x6e9-0x6ea (1)
     |                                               |                |                    m{}: 0x6ea-0x6ec (2)
0x6e0|                              00               |          .     |                      a: 0 (valid) 0x6ea-0x6eb (1)
0x6e0|                                 00            |           .    |                      o: 0 (valid) 0x6eb-0x6ec (1)
0x6e0|                                    03         |            .   |                    l: 3 0x6ec-0x6ed (1)
     |                                               |                |                  [3]{}: in 0x6ed-0x6ee (1)
0x6e0|                                       0b      |             .  |                    opcode: "end" (0xb) 0x6ed-0x6ee (1)
     |                                               |                |            [36]{}: code 0x6ee-0x6fa (12)
0x6e0|                                          0b   |              . |              size: 11 (valid) 0x6ee-0x6ef (1)
     |                                               |                |              code{}: 0x6ef-0x6fa (11)
     |                                               |                |                t{}: 0x6ef-0x6f0 (1)
0x6e0|                                             00|               .|                  n: 0 (valid) 0x6ef-0x6f0 (1)
     |                                               |                |                  x[0:0]: 0x6f0-0x6f0 (0)
     |                                               |                |                e[0:4]: 0x6f0-0x6fa (10)
     |                                               |                |                  [0]{}: in 0x6f0-0x6f2 (2)
0x6f0|20                                             |                |                    opcode: "local.get" (0x20) 0x6f0-0x6f1 (1)
0x6f0|   00                                          | .              |                    x: 0 (valid) 0x6f1-0x6f2 (1)
     |                                               |                |                  [1]{}: in 0x6f2-0x6f4 (2)
0x6f0|      20                                       |                |                    opcode: "local.get" (0x20) 0x6f2-0x6f3 (1)
0x6f0|         01                                    |   .            |                    x: 1 (valid) 0x6f3-0x6f4 (1)
     |                                               |                |                  [2]{}: in 0x6f4-0x6f9 (5)
0x6f0|            fd                                 |    .           |                    opcode: "vector" (0xfd) 0x6f4-0x6f5 (1)
0x6f0|               54                              |     T          |                    v_opcode: "v128.load8_lane" (84) 0x6f5-0x6f6 (1)
     |                                               |                |                    m{}: 0x6f6-0x6f8 (2)
0x6f0|                  00                           |      .         |                      a: 0 (valid) 0x6f6-0x6f7 (1)
0x6f0|                     00                        |       .        |                      o: 0 (valid) 0x6f7-0x6f8 (1)
0x6f0|                        04                     |        .       |                    l: 4 0x6f8-0x6f9 (1)
     |                                               |                |                  [3]{}: in 0x6f9-0x6fa (1)
0x6f0|                           0b                  |         .      |                    opcode: "end" (0xb) 0x6f9-0x6fa (1)
     |                                               |                |            [37]{}: code 0x6fa-0x706 (12)
0x6f0|                              0b               |          .     |              size: 11 (valid) 0x6fa-0x6fb (1)
     |                                               |                |              code{}: 0x6fb-0x706 (11)
     |                                               |                |                t{}: 0x6fb-0x6fc (1)
0x6f0|                                 00            |           .    |                  n: 0 (valid) 0x6fb-0x6fc (1)
     |                                               |                |                  x[0:0]: 0x6fc-0x6fc (0)
     |                                               |                |                e[0:4]: 0x6fc-0x706 (10)
     |                                               |                |                  [0]{}: in 0x6fc-0x6fe (2)
0x6f0|                                    20         |                |                    opcode: "local.get" (0x20) 0x6fc-0x6fd (1)
0x6f0|                                       00      |             .  |                    x: 0 (valid) 0x6fd-0x6fe (1)
     |                                               |                |                  [1]{}: in 0x6fe-0x700 (2)
0x6f0|                                          20   |                |                    opcode: "local.get" (0x20) 0x6fe-0x6ff (1)
0x6f0|                                             01|               .|                    x: 1 (valid) 0x6ff-0x700 (1)
     |                                               |                |                  [2]{}: in 0x700-0x705 (5)
0x700|fd                                             |.               |                    opcode: "vector" (0xfd) 0x700-0x701 (1)
0x700|   54                                          | T              |                    v_opcode: "v128.load8_lane" (84) 0x701-0x702 (1)
     |                                               |                |                    m{}: 0x702-0x704 (2)
0x700|      00                                       |  .             |                      a: 0 (valid) 0x702-0x703 (1)
0x700|         00                                    |   .            |                      o: 0 (valid) 0x703-0x704 (1)
0x700|            05                                 |    .           |                    l: 5 0x704-0x705 (1)
     |                                               |                |                  [3]{}: in 0x705-0x706 (1)
0x700|               0b                              |     .          |                    opcode: "end" (0xb) 0x705-0x706 (1)
     |                                               |                |            [38]{}: code 0x706-0x712 (12)
0x700|                  0b                           |      .         |              size: 11 (valid) 0x706-0x707 (1)
     |                                               |                |              code{}: 0x707-0x712 (11)
     |                                               |                |                t{}: 0x707-0x708 (1)
0x700|                     00                        |       .        |                  n: 0 (valid) 0x707-0x708 (1)
     |                                               |                |                  x[0:0]: 0x708-0x708 (0)
     |                                               |                |                e[0:4]: 0x708-0x712 (10)
     |                                               |                |                  [0]{}: in 0x708-0x70a (2)
0x700|                        20                     |                |                    opcode: "local.get" (0x20) 0x708-0x709 (1)
0x700|                           00                  |         .      |                    x: 0 (valid) 0x709-0x70a (1)
     |                                               |                |                  [1]{}: in 0x70a-0x70c (2)
0x700|                              20               |                |                    opcode: "local.get" (0x20) 0x70a-0x70b (1)
0x700|                                 01            |           .    |                    x: 1 (valid) 0x70b-0x70c (1)
     |                                               |                |                  [2]{}: in 0x70c-0x711 (5)
0x700|                                    fd         |            .   |                    opcode: "vector" (0xfd) 0x70c-0x70d (1)
0x700|                                       54      |             T  |                    v_opcode: "v128.load8_lane" (84) 0x70d-0x70e (1)
     |                                               |                |                    m{}: 0x70e-0x710 (2)
0x700|                                          00   |              . |                      a: 0 (valid) 0x70e-0x70f (1)
0x700|                                             00|               .|                      o: 0 (valid) 0x70f-0x710 (1)
0x710|06                                             |.               |                    l: 6 0x710-0x711 (1)
     |                                               |                |                  [3]{}: in 0x711-0x712 (1)
0x710|   0b                                          | .              |                    opcode: "end" (0xb) 0x711-0x712 (1)
     |                                               |                |            [39]{}: code 0x712-0x71e (12)
0x710|      0b                                       |  .             |              size: 11 (valid) 0x712-0x713 (1)
     |                                               |                |              code{}: 0x713-0x71e (11)
     |                                               |                |                t{}: 0x713-0x714 (1)
0x710|         00                                    |   .            |                  n: 0 (valid) 0x713-0x714 (1)
     |                                               |                |                  x[0:0]: 0x714-0x714 (0)
     |                                               |                |                e[0:4]: 0x714-0x71e (10)
     |                                               |                |                  [0]{}: in 0x714-0x716 (2)
0x710|            20                                 |                |                    opcode: "local.get" (0x20) 0x714-0x715 (1)
0x710|               00                              |     .          |                    x: 0 (valid) 0x715-0x716 (1)
     |                                               |                |                  [1]{}: in 0x716-0x718 (2)
0x710|                  20                           |                |                    opcode: "local.get" (0x20) 0x716-0x717 (1)
0x710|                     01                        |       .        |                    x: 1 (valid) 0x717-0x718 (1)
     |                                               |                |                  [2]{}: in 0x718-0x71d (5)
0x710|                        fd                     |        .       |                    opcode: "vector" (0xfd) 0x718-0x719 (1)
0x710|                           54                  |         T      |                    v_opcode: "v128.load8_lane" (84) 0x719-0x71a (1)
     |                                               |                |                    m{}: 0x71a-0x71c (2)
0x710|                              00               |          .     |                      a: 0 (valid) 0x71a-0x71b (1)
0x710|                                 00            |           .    |                      o: 0 (valid) 0x71b-0x71c (1)
0x710|                                    07         |            .   |                    l: 7 0x71c-0x71d (1)
     |                                               |                |                  [3]{}: in 0x71d-0x71e (1)
0x710|                                       0b      |             .  |                    opcode: "end" (0xb) 0x71d-0x71e (1)
     |                                               |                |            [40]{}: code 0x71e-0x72a (12)
0x710|                                          0b   |              . |              size: 11 (valid) 0x71e-0x71f (1)
     |                                               |                |              code{}: 0x71f-0x72a (11)
     |                                               |                |                t{}: 0x71f-0x720 (1)
0x710|                                             00|               .|                  n: 0 (valid) 0x71f-0x720 (1)
     |                                               |                |                  x[0:0]: 0x720-0x720 (0)
     |                                               |                |                e[0:4]: 0x720-0x72a (10)
     |                                               |                |                  [0]{}: in 0x720-0x722 (2)
0x720|20                                             |                |                    opcode: "local.get" (0x20) 0x720-0x721 (1)
0x720|   00                                          | .              |                    x: 0 (valid) 0x721-0x722 (1)
     |                                               |                |                  [1]{}: in 0x722-0x724 (2)
0x720|      20                                       |                |                    opcode: "local.get" (0x20) 0x722-0x723 (1)
0x720|         01                                    |   .            |                    x: 1 (valid) 0x723-0x724 (1)
     |                                               |                |                  [2]{}: in 0x724-0x729 (5)
0x720|            fd                                 |    .           |                    opcode: "vector" (0xfd) 0x724-0x725 (1)
0x720|               54                              |     T          |                    v_opcode: "v128.load8_lane" (84) 0x725-0x726 (1)
     |                                               |                |                    m{}: 0x726-0x728 (2)
0x720|                  00                           |      .         |                      a: 0 (valid) 0x726-0x727 (1)
0x720|                     00                        |       .        |                      o: 0 (valid) 0x727-0x728 (1)
0x720|                        08                     |        .       |                    l: 8 0x728-0x729 (1)
     |                                               |                |                  [3]{}: in 0x729-0x72a (1)
0x720|                           0b                  |         .      |                    opcode: "end" (0xb) 0x729-0x72a (1)
     |                                               |                |            [41]{}: code 0x72a-0x736 (12)
0x720|                              0b               |          .     |              size: 11 (valid) 0x72a-0x72b (1)
     |                                               |                |              code{}: 0x72b-0x736 (11)
     |                                               |                |                t{}: 0x72b-0x72c (1)
0x720|                                 00            |           .    |                  n: 0 (valid) 0x72b-0x72c (1)
     |                                               |                |                  x[0:0]: 0x72c-0x72c (0)
     |                                               |                |                e[0:4]: 0x72c-0x736 (10)
     |                                               |                |                  [0]{}: in 0x72c-0x72e (2)
0x720|                                    20         |                |                    opcode: "local.get" (0x20) 0x72c-0x72d (1)
0x720|                                       00      |             .  |                    x: 0 (valid) 0x72d-0x72e (1)
     |                                               |                |                  [1]{}: in 0x72e-0x730 (2)
0x720|                                          20   |                |                    opcode: "local.get" (0x20) 0x72e-0x72f (1)
0x720|                                             01|               .|                    x: 1 (valid) 0x72f-0x730 (1)
     |                                               |                |                  [2]{}: in 0x730-0x735 (5)
0x730|fd                                             |.               |                    opcode: "vector" (0xfd) 0x730-0x731 (1)
0x730|   54                                          | T              |                    v_opcode: "v128.load8_lane" (84) 0x731-0x732 (1)
     |                                               |                |                    m{}: 0x732-0x734 (2)
0x730|      00                                       |  .             |                      a: 0 (valid) 0x732-0x733 (1)
0x730|         00                                    |   .            |                      o: 0 (valid) 0x733-0x734 (1)
0x730|            09                                 |    .           |                    l: 9 0x734-0x735 (1)
     |                                               |                |                  [3]{}: in 0x735-0x736 (1)
0x730|               0b                              |     .          |                    opcode: "end" (0xb) 0x735-0x736 (1)
     |                                               |                |            [42]{}: code 0x736-0x742 (12)
0x730|                  0b                           |      .         |              size: 11 (valid) 0x736-0x737 (1)
     |                                               |                |              code{}: 0x737-0x742 (11)
     |                                               |                |                t{}: 0x737-0x738 (1)
0x730|                     00                        |       .        |                  n: 0 (valid) 0x737-0x738 (1)
     |                                               |                |                  x[0:0]: 0x738-0x738 (0)
     |                                               |                |                e[0:4]: 0x738-0x742 (10)
     |                                               |                |                  [0]{}: in 0x738-0x73a (2)
0x730|                        20                     |                |                    opcode: "local.get" (0x20) 0x738-0x739 (1)
0x730|                           00                  |         .      |                    x: 0 (valid) 0x739-0x73a (1)
     |                                               |                |                  [1]{}: in 0x73a-0x73c (2)
0x730|                              20               |                |                    opcode: "local.get" (0x20) 0x73a-0x73b (1)
0x730|                                 01            |           .    |                    x: 1 (valid) 0x73b-0x73c (1)
     |                                               |                |                  [2]{}: in 0x73c-0x741 (5)
0x730|                                    fd         |            .   |                    opcode: "vector" (0xfd) 0x73c-0x73d (1)
0x730|                                       54      |             T  |                    v_opcode: "v128.load8_lane" (84) 0x73d-0x73e (1)
     |                                               |                |                    m{}: 0x73e-0x740 (2)
0x730|                                          00   |              . |                      a: 0 (valid) 0x73e-0x73f (1)
0x730|                                             00|               .|                      o: 0 (valid) 0x73f-0x740 (1)
0x740|0a                                             |.               |                    l: 10 0x740-0x741 (1)
     |                                               |                |                  [3]{}: in 0x741-0x742 (1)
0x740|   0b                                          | .              |                    opcode: "end" (0xb) 0x741-0x742 (1)
     |                                               |                |            [43]{}: code 0x742-0x74e (12)
0x740|      0b                                       |  .             |              size: 11 (valid) 0x742-0x743 (1)
     |                                               |                |              code{}: 0x743-0x74e (11)
     |                                               |                |                t{}: 0x743-0x744 (1)
0x740|         00                                    |   .            |                  n: 0 (valid) 0x743-0x744 (1)
     |                                               |                |                  x[0:0]: 0x744-0x744 (0)
     |                                               |                |                e[0:4]: 0x744-0x74e (10)
     |                                               |                |                  [0]{}: in 0x744-0x746 (2)
0x740|            20                                 |                |                    opcode: "local.get" (0x20) 0x744-0x745 (1)
0x740|               00                              |     .          |                    x: 0 (valid) 0x745-0x746 (1)
     |                                               |                |                  [1]{}: in 0x746-0x748 (2)
0x740|                  20                           |                |                    opcode: "local.get" (0x20) 0x746-0x747 (1)
0x740|                     01                        |       .        |                    x: 1 (valid) 0x747-0x748 (1)
     |                                               |                |                  [2]{}: in 0x748-0x74d (5)
0x740|                        fd                     |        .       |                    opcode: "vector" (0xfd) 0x748-0x749 (1)
0x740|                           54                  |         T      |                    v_opcode: "v128.load8_lane" (84) 0x749-0x74a (1)
     |                                               |                |                    m{}: 0x74a-0x74c (2)
0x740|                              00               |          .     |                      a: 0 (valid) 0x74a-0x74b (1)
0x740|                                 00            |           .    |                      o: 0 (valid) 0x74b-0x74c (1)
0x740|                                    0b         |            .   |                    l: 11 0x74c-0x74d (1)
     |                                               |                |                  [3]{}: in 0x74d-0x74e (1)
0x740|                                       0b      |             .  |                    opcode: "end" (0xb) 0x74d-0x74e (1)
     |                                               |                |            [44]{}: code 0x74e-0x75a (12)
0x740|                                          0b   |              . |              size: 11 (valid) 0x74e-0x74f (1)
     |                                               |                |              code{}: 0x74f-0x75a (11)
     |                                               |                |                t{}: 0x74f-0x750 (1)
0x740|                                             00|               .|                  n: 0 (valid) 0x74f-0x750 (1)
     |                                               |                |                  x[0:0]: 0x750-0x750 (0)
     |                                               |                |                e[0:4]: 0x750-0x75a (10)
     |                                               |                |                  [0]{}: in 0x750-0x752 (2)
0x750|20                                             |                |                    opcode: "local.get" (0x20) 0x750-0x751 (1)
0x750|   00                                          | .              |                    x: 0 (valid) 0x751-0x752 (1)
     |                                               |                |                  [1]{}: in 0x752-0x754 (2)
0x750|      20                                       |                |                    opcode: "local.get" (0x20) 0x752-0x753 (1)
0x750|         01                                    |   .            |                    x: 1 (valid) 0x753-0x754 (1)
     |                                               |                |                  [2]{}: in 0x754-0x759 (5)
0x750|            fd                                 |    .           |                    opcode: "vector" (0xfd) 0x754-0x755 (1)
0x750|               54                              |     T          |                    v_opcode: "v128.load8_lane" (84) 0x755-0x756 (1)
     |                                               |                |                    m{}: 0x756-0x758 (2)
0x750|                  00                           |      .         |                      a: 0 (valid) 0x756-0x757 (1)
0x750|                     00                        |       .        |                      o: 0 (valid) 0x757-0x758 (1)
0x750|                        0c                     |        .       |                    l: 12 0x758-0x759 (1)
     |                                               |                |                  [3]{}: in 0x759-0x75a (1)
0x750|                           0b                  |         .      |                    opcode: "end" (0xb) 0x759-0x75a (1)
     |                                               |                |            [45]{}: code 0x75a-0x766 (12)
0x750|                              0b               |          .     |              size: 11 (valid) 0x75a-0x75b (1)
     |                                               |                |              code{}: 0x75b-0x766 (11)
     |                                               |                |                t{}: 0x75b-0x75c (1)
0x750|                                 00            |           .    |                  n: 0 (valid) 0x75b-0x75c (1)
     |                                               |                |                  x[0:0]: 0x75c-0x75c (0)
     |                                               |                |                e[0:4]: 0x75c-0x766 (10)
     |                                               |                |                  [0]{}: in 0x75c-0x75e (2)
0x750|                                    20         |                |                    opcode: "local.get" (0x20) 0x75c-0x75d (1)
0x750|                                       00      |             .  |                    x: 0 (valid) 0x75d-0x75e (1)
     |                                               |                |                  [1]{}: in 0x75e-0x760 (2)
0x750|                                          20   |                |                    opcode: "local.get" (0x20) 0x75e-0x75f (1)
0x750|                                             01|               .|                    x: 1 (valid) 0x75f-0x760 (1)
     |                                               |                |                  [2]{}: in 0x760-0x765 (5)
0x760|fd                                             |.               |                    opcode: "vector" (0xfd) 0x760-0x761 (1)
0x760|   54                                          | T              |                    v_opcode: "v128.load8_lane" (84) 0x761-0x762 (1)
     |                                               |                |                    m{}: 0x762-0x764 (2)
0x760|      00                                       |  .             |                      a: 0 (valid) 0x762-0x763 (1)
0x760|         00                                    |   .            |                      o: 0 (valid) 0x763-0x764 (1)
0x760|            0d                                 |    .           |                    l: 13 0x764-0x765 (1)
     |                                               |                |                  [3]{}: in 0x765-0x766 (1)
0x760|               0b                              |     .          |                    opcode: "end" (0xb) 0x765-0x766 (1)
     |                                               |                |            [46]{}: code 0x766-0x772 (12)
0x760|                  0b                           |      .         |              size: 11 (valid) 0x766-0x767 (1)
     |                                               |                |              code{}: 0x767-0x772 (11)
     |                                               |                |                t{}: 0x767-0x768 (1)
0x760|                     00                        |       .        |                  n: 0 (valid) 0x767-0x768 (1)
     |                                               |                |                  x[0:0]: 0x768-0x768 (0)
     |                                               |                |                e[0:4]: 0x768-0x772 (10)
     |                                               |                |                  [0]{}: in 0x768-0x76a (2)
0x760|                        20                     |                |                    opcode: "local.get" (0x20) 0x768-0x769 (1)
0x760|                           00                  |         .      |                    x: 0 (valid) 0x769-0x76a (1)
     |                                               |                |                  [1]{}: in 0x76a-0x76c (2)
0x760|                              20               |                |                    opcode: "local.get" (0x20) 0x76a-0x76b (1)
0x760|                                 01            |           .    |                    x: 1 (valid) 0x76b-0x76c (1)
     |                                               |                |                  [2]{}: in 0x76c-0x771 (5)
0x760|                                    fd         |            .   |                    opcode: "vector" (0xfd) 0x76c-0x76d (1)
0x760|                                       54      |             T  |                    v_opcode: "v128.load8_lane" (84) 0x76d-0x76e (1)
     |                                               |                |                    m{}: 0x76e-0x770 (2)
0x760|                                          00   |              . |                      a: 0 (valid) 0x76e-0x76f (1)
0x760|                                             00|               .|                      o: 0 (valid) 0x76f-0x770 (1)
0x770|0e                                             |.               |                    l: 14 0x770-0x771 (1)
     |                                               |                |                  [3]{}: in 0x771-0x772 (1)
0x770|   0b                                          | .              |                    opcode: "end" (0xb) 0x771-0x772 (1)
     |                                               |                |            [47]{}: code 0x772-0x77e (12)
0x770|      0b                                       |  .             |              size: 11 (valid) 0x772-0x773 (1)
     |                                               |                |              code{}: 0x773-0x77e (11)
     |                                               |                |                t{}: 0x773-0x774 (1)
0x770|         00                                    |   .            |                  n: 0 (valid) 0x773-0x774 (1)
     |                                               |                |                  x[0:0]: 0x774-0x774 (0)
     |                                               |                |                e[0:4]: 0x774-0x77e (10)
     |                                               |                |                  [0]{}: in 0x774-0x776 (2)
0x770|            20                                 |                |                    opcode: "local.get" (0x20) 0x774-0x775 (1)
0x770|               00                              |     .          |                    x: 0 (valid) 0x775-0x776 (1)
     |                                               |                |                  [1]{}: in 0x776-0x778 (2)
0x770|                  20                           |                |                    opcode: "local.get" (0x20) 0x776-0x777 (1)
0x770|                     01                        |       .        |                    x: 1 (valid) 0x777-0x778 (1)
     |                                               |                |                  [2]{}: in 0x778-0x77d (5)
0x770|                        fd                     |        .       |                    opcode: "vector" (0xfd) 0x778-0x779 (1)
0x770|                           54                  |         T      |                    v_opcode: "v128.load8_lane" (84) 0x779-0x77a (1)
     |                                               |                |                    m{}: 0x77a-0x77c (2)
0x770|                              00               |          .     |                      a: 0 (valid) 0x77a-0x77b (1)
0x770|                                 00            |           .    |                      o: 0 (valid) 0x77b-0x77c (1)
0x770|                                    0f         |            .   |                    l: 15 0x77c-0x77d (1)
     |                                               |                |                  [3]{}: in 0x77d-0x77e (1)
0x770|                                       0b      |             .  |                    opcode: "end" (0xb) 0x77d-0x77e (1)
     |                                               |                |    [5]{}: section 0x77e-0x796 (24)
0x770|                                          0b   |              . |      id: "data_section" (11) 0x77e-0x77f (1)
0x770|                                             16|               .|      size: 22 (valid) 0x77f-0x780 (1)
     |                                               |                |      content{}: 0x780-0x796 (22)
     |                                               |                |        seg{}: 0x780-0x796 (22)
0x780|01                                             |.               |          n: 1 (valid) 0x780-0x781 (1)
     |                                               |                |          x[0:1]: 0x781-0x796 (21)
     |                                               |                |            [0]{}: seg 0x781-0x796 (21)
0x780|   00                                          | .              |              tag: 0 (valid) 0x781-0x782 (1)
     |                                               |                |              e[0:2]: 0x782-0x785 (3)
     |                                               |                |                [0]{}: in 0x782-0x784 (2)
0x780|      41                                       |  A             |                  opcode: "i32.const" (0x41) 0x782-0x783 (1)
0x780|         00                                    |   .            |                  n: 0 (valid) 0x783-0x784 (1)
     |                                               |                |                [1]{}: in 0x784-0x785 (1)
0x780|            0b                                 |    .           |                  opcode: "end" (0xb) 0x784-0x785 (1)
     |                                               |                |              b{}: 0x785-0x796 (17)
0x780|               10                              |     .          |                n: 16 (valid) 0x785-0x786 (1)
0x780|                  00 01 02 03 04 05 06 07 08 09|      ..........|                x: raw bits 0x786-0x796 (16)
0x790|0a 0b 0c 0d 0e 0f|                             |......|         |
