$ fq -d wasm dv simd_store32_lane-0.wasm
     |00 01 02 03 04 05 06 07 08 09 0a 0b 0c 0d 0e 0f|0123456789abcdef|.{}: simd_store32_lane-0.wasm (wasm) 0x0-0x4fa (1274)
0x000|00 61 73 6d                                    |.asm            |  magic: raw bits (valid) 0x0-0x4 (4)
0x000|            01 00 00 00                        |    ....        |  version: 1 0x4-0x8 (4)
     |                                               |                |  sections[0:6]: 0x8-0x4fa (1266)
     |                                               |                |    [0]{}: section 0x8-0x16 (14)
0x000|                        01                     |        .       |      id: "type_section" (1) 0x8-0x9 (1)
0x000|                           0c                  |         .      |      size: 12 (valid) 0x9-0xa (1)
     |                                               |                |      content{}: 0xa-0x16 (12)
     |                                               |                |        ft{}: 0xa-0x16 (12)
0x000|                              02               |          .     |          n: 2 (valid) 0xa-0xb (1)
     |                                               |                |          x[0:2]: 0xb-0x16 (11)
     |                                               |                |            [0]{}: ft 0xb-0x11 (6)
0x000|                                 60            |           `    |              tag: 0x60 (valid) 0xb-0xc (1)
     |                                               |                |              rt1{}: 0xc-0xf (3)
0x000|                                    02         |            .   |                n: 2 (valid) 0xc-0xd (1)
     |                                               |                |                x[0:2]: 0xd-0xf (2)
0x000|                                       7f      |             .  |                  [0]: "i32" (0x7f) t 0xd-0xe (1)
0x000|                                          7b   |              { |                  [1]: "v128" (0x7b) t 0xe-0xf (1)
     |                                               |                |              rt2{}: 0xf-0x11 (2)
0x000|                                             01|               .|                n: 1 (valid) 0xf-0x10 (1)
     |                                               |                |                x[0:1]: 0x10-0x11 (1)
0x010|7e                                             |~               |                  [0]: "i64" (0x7e) t 0x10-0x11 (1)
     |                                               |                |            [1]{}: ft 0x11-0x16 (5)
0x010|   60                                          | `              |              tag: 0x60 (valid) 0x11-0x12 (1)
     |                                               |                |              rt1{}: 0x12-0x14 (2)
0x010|      01                                       |  .             |                n: 1 (valid) 0x12-0x13 (1)
     |                                               |                |                x[0:1]: 0x13-0x14 (1)
0x010|         7b                                    |   {            |                  [0]: "v128" (0x7b) t 0x13-0x14 (1)
     |                                               |                |              rt2{}: 0x14-0x16 (2)
0x010|            01                                 |    .           |                n: 1 (valid) 0x14-0x15 (1)
     |                                               |                |                x[0:1]: 0x15-0x16 (1)
0x010|               7e                              |     ~          |                  [0]: "i64" (0x7e) t 0x15-0x16 (1)
     |                                               |                |    [1]{}: section 0x16-0x2d (23)
0x010|                  03                           |      .         |      id: "function_section" (3) 0x16-0x17 (1)
0x010|                     15                        |       .        |      size: 21 (valid) 0x17-0x18 (1)
     |                                               |                |      content{}: 0x18-0x2d (21)
     |                                               |                |        x{}: 0x18-0x2d (21)
0x010|                        14                     |        .       |          n: 20 (valid) 0x18-0x19 (1)
     |                                               |                |          x[0:20]: 0x19-0x2d (20)
0x010|                           00                  |         .      |            [0]: 0 x (valid) 0x19-0x1a (1)
0x010|                              00               |          .     |            [1]: 0 x (valid) 0x1a-0x1b (1)
0x010|                                 00            |           .    |            [2]: 0 x (valid) 0x1b-0x1c (1)
0x010|                                    00         |            .   |            [3]: 0 x (valid) 0x1c-0x1d (1)
0x010|                                       01      |             .  |            [4]: 1 x (valid) 0x1d-0x1e (1)
0x010|                                          01   |              . |            [5]: 1 x (valid) 0x1e-0x1f (1)
0x010|                                             01|               .|            [6]: 1 x (valid) 0x1f-0x20 (1)
0x020|01                                             |.               |            [7]: 1 x (valid) 0x20-0x21 (1)
0x020|   00                                          | .              |            [8]: 0 x (valid) 0x21-0x22 (1)
0x020|      00                                       |  .             |            [9]: 0 x (valid) 0x22-0x23 (1)
0x020|         00                                    |   .            |            [10]: 0 x (valid) 0x23-0x24 (1)
0x020|            00                                 |    .           |            [11]: 0 x (valid) 0x24-0x25 (1)
0x020|               00                              |     .          |            [12]: 0 x (valid) 0x25-0x26 (1)
0x020|                  00                           |      .         |            [13]: 0 x (valid) 0x26-0x27 (1)
0x020|                     00                        |       .        |            [14]: 0 x (valid) 0x27-0x28 (1)
0x020|                        00                     |        .       |            [15]: 0 x (valid) 0x28-0x29 (1)
0x020|                           00                  |         .      |            [16]: 0 x (valid) 0x29-0x2a (1)
0x020|                              00               |          .     |            [17]: 0 x (valid) 0x2a-0x2b (1)
0x020|                                 00            |           .    |            [18]: 0 x (valid) 0x2b-0x2c (1)
0x020|                                    00         |            .   |            [19]: 0 x (valid) 0x2c-0x2d (1)
     |                                               |                |    [2]{}: section 0x2d-0x32 (5)
0x020|                                       05      |             .  |      id: "memory_section" (5) 0x2d-0x2e (1)
0x020|                                          03   |              . |      size: 3 (valid) 0x2e-0x2f (1)
     |                                               |                |      content{}: 0x2f-0x32 (3)
     |                                               |                |        mem{}: 0x2f-0x32 (3)
0x020|                                             01|               .|          n: 1 (valid) 0x2f-0x30 (1)
     |                                               |                |          x[0:1]: 0x30-0x32 (2)
     |                                               |                |            [0]{}: mem 0x30-0x32 (2)
     |                                               |                |              lim{}: 0x30-0x32 (2)
0x030|00                                             |.               |                tag: 0x0 0x30-0x31 (1)
0x030|   01                                          | .              |                n: 1 (valid) 0x31-0x32 (1)
     |                                               |                |    [3]{}: section 0x32-0x4a (24)
0x030|      06                                       |  .             |      id: "global_section" (6) 0x32-0x33 (1)
0x030|         16                                    |   .            |      size: 22 (valid) 0x33-0x34 (1)
     |                                               |                |      content{}: 0x34-0x4a (22)
     |                                               |                |        glob{}: 0x34-0x4a (22)
0x030|            01                                 |    .           |          n: 1 (valid) 0x34-0x35 (1)
     |                                               |                |          x[0:1]: 0x35-0x4a (21)
     |                                               |                |            [0]{}: glob 0x35-0x4a (21)
     |                                               |                |              gt{}: 0x35-0x37 (2)
0x030|               7b                              |     {          |                t: "v128" (0x7b) 0x35-0x36 (1)
0x030|                  01                           |      .         |                m: "var" (1) 0x36-0x37 (1)
     |                                               |                |              e[0:2]: 0x37-0x4a (19)
     |                                               |                |                [0]{}: in 0x37-0x49 (18)
0x030|                     fd                        |       .        |                  opcode: "vector" (0xfd) 0x37-0x38 (1)
0x030|                        0c                     |        .       |                  v_opcode: "v128.const" (12) 0x38-0x39 (1)
0x030|                           00 00 00 00 00 00 00|         .......|                  bytes: raw bits 0x39-0x49 (16)
0x040|00 00 00 00 00 00 00 00 00                     |.........       |
     |                                               |                |                [1]{}: in 0x49-0x4a (1)
0x040|                           0b                  |         .      |                  opcode: "end" (0xb) 0x49-0x4a (1)
     |                                               |                |    [4]{}: section 0x4a-0x28a (576)
0x040|                              07               |          .     |      id: "export_section" (7) 0x4a-0x4b (1)
0x040|                                 bd 04         |           ..   |      size: 573 (valid) 0x4b-0x4d (2)
     |                                               |                |      content{}: 0x4d-0x28a (573)
     |                                               |                |        ex{}: 0x4d-0x28a (573)
0x040|                                       14      |             .  |          n: 20 (valid) 0x4d-0x4e (1)
     |                                               |                |          x[0:20]: 0x4e-0x28a (572)
     |                                               |                |            [0]{}: ex 0x4e-0x64 (22)
     |                                               |                |              nm{}: 0x4e-0x62 (20)
0x040|                                          13   |              . |                n: 19 (valid) 0x4e-0x4f (1)
0x040|                                             76|               v|                b: "v128.store32_lane_0" 0x4f-0x62 (19)
0x050|31 32 38 2e 73 74 6f 72 65 33 32 5f 6c 61 6e 65|128.store32_lane|
0x060|5f 30                                          |_0              |
     |                                               |                |              d{}: 0x62-0x64 (2)
0x060|      00                                       |  .             |                tag: "funcidx" (0x0) 0x62-0x63 (1)
0x060|         00                                    |   .            |                x: 0 (valid) 0x63-0x64 (1)
     |                                               |                |            [1]{}: ex 0x64-0x7a (22)
     |                                               |                |              nm{}: 0x64-0x78 (20)
0x060|            13                                 |    .           |                n: 19 (valid) 0x64-0x65 (1)
0x060|               76 31 32 38 2e 73 74 6f 72 65 33|     v128.store3|                b: "v128.store32_lane_1" 0x65-0x78 (19)
0x070|32 5f 6c 61 6e 65 5f 31                        |2_lane_1        |
     |                                               |                |              d{}: 0x78-0x7a (2)
0x070|                        00                     |        .       |                tag: "funcidx" (0x0) 0x78-0x79 (1)
0x070|                           01                  |         .      |                x: 1 (valid) 0x79-0x7a (1)
     |                                               |                |            [2]{}: ex 0x7a-0x90 (22)
     |                                               |                |              nm{}: 0x7a-0x8e (20)
0x070|                              13               |          .     |                n: 19 (valid) 0x7a-0x7b (1)
0x070|                                 76 31 32 38 2e|           v128.|                b: "v128.store32_lane_2" 0x7b-0x8e (19)
0x080|73 74 6f 72 65 33 32 5f 6c 61 6e 65 5f 32      |store32_lane_2  |
     |                                               |                |              d{}: 0x8e-0x90 (2)
0x080|                                          00   |              . |                tag: "funcidx" (0x0) 0x8e-0x8f (1)
0x080|                                             02|               .|                x: 2 (valid) 0x8f-0x90 (1)
     |                                               |                |            [3]{}: ex 0x90-0xa6 (22)
     |                                               |                |              nm{}: 0x90-0xa4 (20)
0x090|13                                             |.               |                n: 19 (valid) 0x90-0x91 (1)
0x090|   76 31 32 38 2e 73 74 6f 72 65 33 32 5f 6c 61| v128.store32_la|                b: "v128.store32_lane_3" 0x91-0xa4 (19)
0x0a0|6e 65 5f 33                                    |ne_3            |
     |                                               |                |              d{}: 0xa4-0xa6 (2)
0x0a0|            00                                 |    .           |                tag: "funcidx" (0x0) 0xa4-0xa5 (1)
0x0a0|               03                              |     .          |                x: 3 (valid) 0xa5-0xa6 (1)
     |                                               |                |            [4]{}: ex 0xa6-0xc5 (31)
     |                                               |                |              nm{}: 0xa6-0xc3 (29)
0x0a0|                  1c                           |      .         |                n: 28 (valid) 0xa6-0xa7 (1)
0x0a0|                     76 31 32 38 2e 73 74 6f 72|       v128.stor|                b: "v128.store32_lane_0_offset_0" 0xa7-0xc3 (28)
0x0b0|65 33 32 5f 6c 61 6e 65 5f 30 5f 6f 66 66 73 65|e32_lane_0_offse|
0x0c0|74 5f 30                                       |t_0             |
     |                                               |                |              d{}: 0xc3-0xc5 (2)
0x0c0|         00                                    |   .            |                tag: "funcidx" (0x0) 0xc3-0xc4 (1)
0x0c0|            04                                 |    .           |                x: 4 (valid) 0xc4-0xc5 (1)
     |                                               |                |            [5]{}: ex 0xc5-0xe4 (31)
     |                                               |                |              nm{}: 0xc5-0xe2 (29)
0x0c0|               1c                              |     .          |                n: 28 (valid) 0xc5-0xc6 (1)
0x0c0|                  76 31 32 38 2e 73 74 6f 72 65|      v128.store|                b: "v128.store32_lane_1_offset_1" 0xc6-0xe2 (28)
0x0d0|33 32 5f 6c 61 6e 65 5f 31 5f 6f 66 66 73 65 74|32_lane_1_offset|
0x0e0|5f 31                                          |_1              |
     |                                               |                |              d{}: 0xe2-0xe4 (2)
0x0e0|      00                                       |  .             |                tag: "funcidx" (0x0) 0xe2-0xe3 (1)
0x0e0|         05                                    |   .            |                x: 5 (valid) 0xe3-0xe4 (1)
     |                                               |                |            [6]{}: ex 0xe4-0x103 (31)
     |                                               |                |              nm{}: 0xe4-0x101 (29)
0x0e0|            1c                                 |    .           |                n: 28 (valid) 0xe4-0xe5 (1)
0x0e0|               76 31 32 38 2e 73 74 6f 72 65 33|     v128.store3|                b: "v128.store32_lane_2_offset_2" 0xe5-0x101 (28)
0x0f0|32 5f 6c 61 6e 65 5f 32 5f 6f 66 66 73 65 74 5f|2_lane_2_offset_|
0x100|32                                             |2               |
     |                                               |                |              d{}: 0x101-0x103 (2)
0x100|   00                                          | .              |                tag: "funcidx" (0x0) 0x101-0x102 (1)
0x100|      06                                       |  .             |                x: 6 (valid) 0x102-0x103 (1)
     |                                               |                |            [7]{}: ex 0x103-0x122 (31)
     |                                               |                |              nm{}: 0x103-0x120 (29)
0x100|         1c                                    |   .            |                n: 28 (valid) 0x103-0x104 (1)
0x100|            76 31 32 38 2e 73 74 6f 72 65 33 32|    v128.store32|                b: "v128.store32_lane_3_offset_3" 0x104-0x120 (28)
0x110|5f 6c 61 6e 65 5f 33 5f 6f 66 66 73 65 74 5f 33|_lane_3_offset_3|
     |                                               |                |              d{}: 0x120-0x122 (2)
0x120|00                                             |.               |                tag: "funcidx" (0x0) 0x120-0x121 (1)
0x120|   07                                          | .              |                x: 7 (valid) 0x121-0x122 (1)
     |                                               |                |            [8]{}: ex 0x122-0x140 (30)
     |                                               |                |              nm{}: 0x122-0x13e (28)
0x120|      1b                                       |  .             |                n: 27 (valid) 0x122-0x123 (1)
0x120|         76 31 32 38 2e 73 74 6f 72 65 33 32 5f|   v128.store32_|                b: "v128.store32_lane_0_align_1" 0x123-0x13e (27)
0x130|6c 61 6e 65 5f 30 5f 61 6c 69 67 6e 5f 31      |lane_0_align_1  |
     |                                               |                |              d{}: 0x13e-0x140 (2)
0x130|                                          00   |              . |                tag: "funcidx" (0x0) 0x13e-0x13f (1)
0x130|                                             08|               .|                x: 8 (valid) 0x13f-0x140 (1)
     |                                               |                |            [9]{}: ex 0x140-0x15e (30)
     |                                               |                |              nm{}: 0x140-0x15c (28)
0x140|1b                                             |.               |                n: 27 (valid) 0x140-0x141 (1)
0x140|   76 31 32 38 2e 73 74 6f 72 65 33 32 5f 6c 61| v128.store32_la|                b: "v128.store32_lane_0_align_2" 0x141-0x15c (27)
0x150|6e 65 5f 30 5f 61 6c 69 67 6e 5f 32            |ne_0_align_2    |
     |                                               |                |              d{}: 0x15c-0x15e (2)
0x150|                                    00         |            .   |                tag: "funcidx" (0x0) 0x15c-0x15d (1)
0x150|                                       09      |             .  |                x: 9 (valid) 0x15d-0x15e (1)
     |                                               |                |            [10]{}: ex 0x15e-0x17c (30)
     |                                               |                |              nm{}: 0x15e-0x17a (28)
0x150|                                          1b   |              . |                n: 27 (valid) 0x15e-0x15f (1)
0x150|                                             76|               v|                b: "v128.store32_lane_0_align_4" 0x15f-0x17a (27)
0x160|31 32 38 2e 73 74 6f 72 65 33 32 5f 6c 61 6e 65|128.store32_lane|
0x170|5f 30 5f 61 6c 69 67 6e 5f 34                  |_0_align_4      |
     |                                               |                |              d{}: 0x17a-0x17c (2)
0x170|                              00               |          .     |                tag: "funcidx" (0x0) 0x17a-0x17b (1)
0x170|                                 0a            |           .    |                x: 10 (valid) 0x17b-0x17c (1)
     |                                               |                |            [11]{}: ex 0x17c-0x19a (30)
     |                                               |                |              nm{}: 0x17c-0x198 (28)
0x170|                                    1b         |            .   |                n: 27 (valid) 0x17c-0x17d (1)
0x170|                                       76 31 32|             v12|                b: "v128.store32_lane_1_align_1" 0x17d-0x198 (27)
0x180|38 2e 73 74 6f 72 65 33 32 5f 6c 61 6e 65 5f 31|8.store32_lane_1|
0x190|5f 61 6c 69 67 6e 5f 31                        |_align_1        |
     |                                               |                |              d{}: 0x198-0x19a (2)
0x190|                        00                     |        .       |                tag: "funcidx" (0x0) 0x198-0x199 (1)
0x190|                           0b                  |         .      |                x: 11 (valid) 0x199-0x19a (1)
     |                                               |                |            [12]{}: ex 0x19a-0x1b8 (30)
     |                                               |                |              nm{}: 0x19a-0x1b6 (28)
0x190|                              1b               |          .     |                n: 27 (valid) 0x19a-0x19b (1)
0x190|                                 76 31 32 38 2e|           v128.|                b: "v128.store32_lane_1_align_2" 0x19b-0x1b6 (27)
0x1a0|73 74 6f 72 65 33 32 5f 6c 61 6e 65 5f 31 5f 61|store32_lane_1_a|
0x1b0|6c 69 67 6e 5f 32                              |lign_2          |
     |                                               |                |              d{}: 0x1b6-0x1b8 (2)
0x1b0|                  00                           |      .         |                tag: "funcidx" (0x0) 0x1b6-0x1b7 (1)
0x1b0|                     0c                        |       .        |                x: 12 (valid) 0x1b7-0x1b8 (1)
     |                                               |                |            [13]{}: ex 0x1b8-0x1d6 (30)
     |                                               |                |              nm{}: 0x1b8-0x1d4 (28)
0x1b0|                        1b                     |        .       |                n: 27 (valid) 0x1b8-0x1b9 (1)
0x1b0|                           76 31 32 38 2e 73 74|         v128.st|                b: "v128.store32_lane_1_align_4" 0x1b9-0x1d4 (27)
0x1c0|6f 72 65 33 32 5f 6c 61 6e 65 5f 31 5f 61 6c 69|ore32_lane_1_ali|
0x1d0|67 6e 5f 34                                    |gn_4            |
     |                                               |                |              d{}: 0x1d4-0x1d6 (2)
0x1d0|            00                                 |    .           |                tag: "funcidx" (0x0) 0x1d4-0x1d5 (1)
0x1d0|               0d                              |     .          |                x: 13 (valid) 0x1d5-0x1d6 (1)
     |                                               |                |            [14]{}: ex 0x1d6-0x1f4 (30)
     |                                               |                |              nm{}: 0x1d6-0x1f2 (28)
0x1d0|                  1b                           |      .         |                n: 27 (valid) 0x1d6-0x1d7 (1)
0x1d0|                     76 31 32 38 2e 73 74 6f 72|       v128.stor|                b: "v128.store32_lane_2_align_1" 0x1d7-0x1f2 (27)
0x1e0|65 33 32 5f 6c 61 6e 65 5f 32 5f 61 6c 69 67 6e|e32_lane_2_align|
0x1f0|5f 31                                          |_1              |
     |                                               |                |              d{}: 0x1f2-0x1f4 (2)
0x1f0|      00                                       |  .             |                tag: "funcidx" (0x0) 0x1f2-0x1f3 (1)
0x1f0|         0e                                    |   .            |                x: 14 (valid) 0x1f3-0x1f4 (1)
     |                                               |                |            [15]{}: ex 0x1f4-0x212 (30)
     |                                               |                |              nm{}: 0x1f4-0x210 (28)
0x1f0|            1b                                 |    .           |                n: 27 (valid) 0x1f4-0x1f5 (1)
0x1f0|               76 31 32 38 2e 73 74 6f 72 65 33|     v128.store3|                b: "v128.store32_lane_2_align_2" 0x1f5-0x210 (27)
0x200|32 5f 6c 61 6e 65 5f 32 5f 61 6c 69 67 6e 5f 32|2_lane_2_align_2|
     |                                               |                |              d{}: 0x210-0x212 (2)
0x210|00                                             |.               |                tag: "funcidx" (0x0) 0x210-0x211 (1)
0x210|   0f                                          | .              |                x: 15 (valid) 0x211-0x212 (1)
     |                                               |                |            [16]{}: ex 0x212-0x230 (30)
     |                                               |                |              nm{}: 0x212-0x22e (28)
0x210|      1b                                       |  .             |                n: 27 (valid) 0x212-0x213 (1)
0x210|         76 31 32 38 2e 73 74 6f 72 65 33 32 5f|   v128.store32_|                b: "v128.store32_lane_2_align_4" 0x213-0x22e (27)
0x220|6c 61 6e 65 5f 32 5f 61 6c 69 67 6e 5f 34      |lane_2_align_4  |
     |                                               |                |              d{}: 0x22e-0x230 (2)
0x220|                                          00   |              . |                tag: "funcidx" (0x0) 0x22e-0x22f (1)
0x220|                                             10|               .|                x: 16 (valid) 0x22f-0x230 (1)
     |                                               |                |            [17]{}: ex 0x230-0x24e (30)
     |                                               |                |              nm{}: 0x230-0x24c (28)
0x230|1b                                             |.               |                n: 27 (valid) 0x230-0x231 (1)
0x230|   76 31 32 38 2e 73 74 6f 72 65 33 32 5f 6c 61| v128.store32_la|                b: "v128.store32_lane_3_align_1" 0x231-0x24c (27)
0x240|6e 65 5f 33 5f 61 6c 69 67 6e 5f 31            |ne_3_align_1    |
     |                                               |                |              d{}: 0x24c-0x24e (2)
0x240|                                    00         |            .   |                tag: "funcidx" (0x0) 0x24c-0x24d (1)
0x240|                                       11      |             .  |                x: 17 (valid) 0x24d-0x24e (1)
     |                                               |                |            [18]{}: ex 0x24e-0x26c (30)
     |                                               |                |              nm{}: 0x24e-0x26a (28)
0x240|                                          1b   |              . |                n: 27 (valid) 0x24e-0x24f (1)
0x240|                                             76|               v|                b: "v128.store32_lane_3_align_2" 0x24f-0x26a (27)
0x250|31 32 38 2e 73 74 6f 72 65 33 32 5f 6c 61 6e 65|128.store32_lane|
0x260|5f 33 5f 61 6c 69 67 6e 5f 32                  |_3_align_2      |
     |                                               |                |              d{}: 0x26a-0x26c (2)
0x260|                              00               |          .     |                tag: "funcidx" (0x0) 0x26a-0x26b (1)
0x260|                                 12            |           .    |                x: 18 (valid) 0x26b-0x26c (1)
     |                                               |                |            [19]{}: ex 0x26c-0x28a (30)
     |                                               |                |              nm{}: 0x26c-0x288 (28)
0x260|                                    1b         |            .   |                n: 27 (valid) 0x26c-0x26d (1)
0x260|                                       76 31 32|             v12|                b: "v128.store32_lane_3_align_4" 0x26d-0x288 (27)
0x270|38 2e 73 74 6f 72 65 33 32 5f 6c 61 6e 65 5f 33|8.store32_lane_3|
0x280|5f 61 6c 69 67 6e 5f 34                        |_align_4        |
     |                                               |                |              d{}: 0x288-0x28a (2)
0x280|                        00                     |        .       |                tag: "funcidx" (0x0) 0x288-0x289 (1)
0x280|                           13                  |         .      |                x: 19 (valid) 0x289-0x28a (1)
     |                                               |                |    [5]{}: section 0x28a-0x4fa (624)
0x280|                              0a               |          .     |      id: "code_section" (10) 0x28a-0x28b (1)
0x280|                                 ed 04         |           ..   |      size: 621 (valid) 0x28b-0x28d (2)
     |                                               |                |      content{}: 0x28d-0x4fa (621)
     |                                               |                |        code{}: 0x28d-0x4fa (621)
0x280|                                       14      |             .  |          n: 20 (valid) 0x28d-0x28e (1)
     |                                               |                |          x[0:20]: 0x28e-0x4fa (620)
     |                                               |                |            [0]{}: code 0x28e-0x2ad (31)
0x280|                                          1e   |              . |              size: 30 (valid) 0x28e-0x28f (1)
     |                                               |                |              code{}: 0x28f-0x2ad (30)
     |                                               |                |                t{}: 0x28f-0x292 (3)
0x280|                                             01|               .|                  n: 1 (valid) 0x28f-0x290 (1)
     |                                               |                |                  x[0:1]: 0x290-0x292 (2)
     |                                               |                |                    [0]{}: t 0x290-0x292 (2)
0x290|01                                             |.               |                      n: 1 (valid) 0x290-0x291 (1)
0x290|   7e                                          | ~              |                      t: "i64" (0x7e) 0x291-0x292 (1)
     |                                               |                |                e[0:11]: 0x292-0x2ad (27)
     |                                               |                |                  [0]{}: in 0x292-0x294 (2)
0x290|      20                                       |                |                    opcode: "local.get" (0x20) 0x292-0x293 (1)
0x290|         00                                    |   .            |                    x: 0 (valid) 0x293-0x294 (1)
     |                                               |                |                  [1]{}: in 0x294-0x296 (2)
0x290|            20                                 |                |                    opcode: "local.get" (0x20) 0x294-0x295 (1)
0x290|               01                              |     .          |                    x: 1 (valid) 0x295-0x296 (1)
     |                                               |                |                  [2]{}: in 0x296-0x29b (5)
0x290|                  fd                           |      .         |                    opcode: "vector" (0xfd) 0x296-0x297 (1)
0x290|                     5a                        |       Z        |                    v_opcode: "v128.store32_lane" (90) 0x297-0x298 (1)
     |                                               |                |                    m{}: 0x298-0x29a (2)
0x290|                        02                     |        .       |                      a: 2 (valid) 0x298-0x299 (1)
0x290|                           00                  |         .      |                      o: 0 (valid) 0x299-0x29a (1)
0x290|                              00               |          .     |                    l: 0 0x29a-0x29b (1)
     |                                               |                |                  [3]{}: in 0x29b-0x29d (2)
0x290|                                 20            |                |                    opcode: "local.get" (0x20) 0x29b-0x29c (1)
0x290|                                    00         |            .   |                    x: 0 (valid) 0x29c-0x29d (1)
     |                                               |                |                  [4]{}: in 0x29d-0x2a0 (3)
0x290|                                       29      |             )  |                    opcode: "i64.load" (0x29) 0x29d-0x29e (1)
     |                                               |                |                    m{}: 0x29e-0x2a0 (2)
0x290|                                          03   |              . |                      a: 3 (valid) 0x29e-0x29f (1)
0x290|                                             00|               .|                      o: 0 (valid) 0x29f-0x2a0 (1)
     |                                               |                |                  [5]{}: in 0x2a0-0x2a2 (2)
0x2a0|21                                             |!               |                    opcode: "local.set" (0x21) 0x2a0-0x2a1 (1)
0x2a0|   02                                          | .              |                    x: 2 (valid) 0x2a1-0x2a2 (1)
     |                                               |                |                  [6]{}: in 0x2a2-0x2a4 (2)
0x2a0|      20                                       |                |                    opcode: "local.get" (0x20) 0x2a2-0x2a3 (1)
0x2a0|         00                                    |   .            |                    x: 0 (valid) 0x2a3-0x2a4 (1)
     |                                               |                |                  [7]{}: in 0x2a4-0x2a6 (2)
0x2a0|            23                                 |    #           |                    opcode: "global.get" (0x23) 0x2a4-0x2a5 (1)
0x2a0|               00                              |     .          |                    x: 0 (valid) 0x2a5-0x2a6 (1)
     |                                               |                |                  [8]{}: in 0x2a6-0x2aa (4)
0x2a0|                  fd                           |      .         |                    opcode: "vector" (0xfd) 0x2a6-0x2a7 (1)
0x2a0|                     0b                        |       .        |                    v_opcode: "v128.store" (11) 0x2a7-0x2a8 (1)
     |                                               |                |                    m{}: 0x2a8-0x2aa (2)
0x2a0|                        04                     |        .       |                      a: 4 (valid) 0x2a8-0x2a9 (1)
0x2a0|                           00                  |         .      |                      o: 0 (valid) 0x2a9-0x2aa (1)
     |                                               |                |                  [9]{}: in 0x2aa-0x2ac (2)
0x2a0|                              20               |                |                    opcode: "local.get" (0x20) 0x2aa-0x2ab (1)
0x2a0|                                 02            |           .    |                    x: 2 (valid) 0x2ab-0x2ac (1)
     |                                               |                |                  [10]{}: in 0x2ac-0x2ad (1)
0x2a0|                                    0b         |            .   |                    opcode: "end" (0xb) 0x2ac-0x2ad (1)
     |                                               |                |            [1]{}: code 0x2ad-0x2cc (31)
0x2a0|                                       1e      |             .  |              size: 30 (valid) 0x2ad-0x2ae (1)
     |                                               |                |              code{}: 0x2ae-0x2cc (30)
     |                                               |                |                t{}: 0x2ae-0x2b1 (3)
0x2a0|                                          01   |              . |                  n: 1 (valid) 0x2ae-0x2af (1)
     |                                               |                |                  x[0:1]: 0x2af-0x2b1 (2)
     |                                               |                |                    [0]{}: t 0x2af-0x2b1 (2)
0x2a0|                                             01|               .|                      n: 1 (valid) 0x2af-0x2b0 (1)
0x2b0|7e                                             |~               |                      t: "i64" (0x7e) 0x2b0-0x2b1 (1)
     |                                               |                |                e[0:11]: 0x2b1-0x2cc (27)
     |                                               |                |                  [0]{}: in 0x2b1-0x2b3 (2)
0x2b0|   20                                          |                |                    opcode: "local.get" (0x20) 0x2b1-0x2b2 (1)
0x2b0|      00                                       |  .             |                    x: 0 (valid) 0x2b2-0x2b3 (1)
     |                                               |                |                  [1]{}: in 0x2b3-0x2b5 (2)
0x2b0|         20                                    |                |                    opcode: "local.get" (0x20) 0x2b3-0x2b4 (1)
0x2b0|            01                                 |    .           |                    x: 1 (valid) 0x2b4-0x2b5 (1)
     |                                               |                |                  [2]{}: in 0x2b5-0x2ba (5)
0x2b0|               fd                              |     .          |                    opcode: "vector" (0xfd) 0x2b5-0x2b6 (1)
0x2b0|                  5a                           |      Z         |                    v_opcode: "v128.store32_lane" (90) 0x2b6-0x2b7 (1)
     |                                               |                |                    m{}: 0x2b7-0x2b9 (2)
0x2b0|                     02                        |       .        |                      a: 2 (valid) 0x2b7-0x2b8 (1)
0x2b0|                        00                     |        .       |                      o: 0 (valid) 0x2b8-0x2b9 (1)
0x2b0|                           01                  |         .      |                    l: 1 0x2b9-0x2ba (1)
     |                                               |                |                  [3]{}: in 0x2ba-0x2bc (2)
0x2b0|                              20               |                |                    opcode: "local.get" (0x20) 0x2ba-0x2bb (1)
0x2b0|                                 00            |           .    |                    x: 0 (valid) 0x2bb-0x2bc (1)
     |                                               |                |                  [4]{}: in 0x2bc-0x2bf (3)
0x2b0|                                    29         |            )   |                    opcode: "i64.load" (0x29) 0x2bc-0x2bd (1)
     |                                               |                |                    m{}: 0x2bd-0x2bf (2)
0x2b0|                                       03      |             .  |                      a: 3 (valid) 0x2bd-0x2be (1)
0x2b0|                                          00   |              . |                      o: 0 (valid) 0x2be-0x2bf (1)
     |                                               |                |                  [5]{}: in 0x2bf-0x2c1 (2)
0x2b0|                                             21|               !|                    opcode: "local.set" (0x21) 0x2bf-0x2c0 (1)
0x2c0|02                                             |.               |                    x: 2 (valid) 0x2c0-0x2c1 (1)
     |                                               |                |                  [6]{}: in 0x2c1-0x2c3 (2)
0x2c0|   20                                          |                |                    opcode: "local.get" (0x20) 0x2c1-0x2c2 (1)
0x2c0|      00                                       |  .             |                    x: 0 (valid) 0x2c2-0x2c3 (1)
     |                                               |                |                  [7]{}: in 0x2c3-0x2c5 (2)
0x2c0|         23                                    |   #            |                    opcode: "global.get" (0x23) 0x2c3-0x2c4 (1)
0x2c0|            00                                 |    .           |                    x: 0 (valid) 0x2c4-0x2c5 (1)
     |                                               |                |                  [8]{}: in 0x2c5-0x2c9 (4)
0x2c0|               fd                              |     .          |                    opcode: "vector" (0xfd) 0x2c5-0x2c6 (1)
0x2c0|                  0b                           |      .         |                    v_opcode: "v128.store" (11) 0x2c6-0x2c7 (1)
     |                                               |                |                    m{}: 0x2c7-0x2c9 (2)
0x2c0|                     04                        |       .        |                      a: 4 (valid) 0x2c7-0x2c8 (1)
0x2c0|                        00                     |        .       |                      o: 0 (valid) 0x2c8-0x2c9 (1)
     |                                               |                |                  [9]{}: in 0x2c9-0x2cb (2)
0x2c0|                           20                  |                |                    opcode: "local.get" (0x20) 0x2c9-0x2ca (1)
0x2c0|                              02               |          .     |                    x: 2 (valid) 0x2ca-0x2cb (1)
     |                                               |                |                  [10]{}: in 0x2cb-0x2cc (1)
0x2c0|                                 0b            |           .    |                    opcode: "end" (0xb) 0x2cb-0x2cc (1)
     |                                               |                |            [2]{}: code 0x2cc-0x2eb (31)
0x2c0|                                    1e         |            .   |              size: 30 (valid) 0x2cc-0x2cd (1)
     |                                               |                |              code{}: 0x2cd-0x2eb (30)
     |                                               |                |                t{}: 0x2cd-0x2d0 (3)
0x2c0|                                       01      |             .  |                  n: 1 (valid) 0x2cd-0x2ce (1)
     |                                               |                |                  x[0:1]: 0x2ce-0x2d0 (2)
     |                                               |                |                    [0]{}: t 0x2ce-0x2d0 (2)
0x2c0|                                          01   |              . |                      n: 1 (valid) 0x2ce-0x2cf (1)
0x2c0|                                             7e|               ~|                      t: "i64" (0x7e) 0x2cf-0x2d0 (1)
     |                                               |                |                e[0:11]: 0x2d0-0x2eb (27)
     |                                               |                |                  [0]{}: in 0x2d0-0x2d2 (2)
0x2d0|20                                             |                |                    opcode: "local.get" (0x20) 0x2d0-0x2d1 (1)
0x2d0|   00                                          | .              |                    x: 0 (valid) 0x2d1-0x2d2 (1)
     |                                               |                |                  [1]{}: in 0x2d2-0x2d4 (2)
0x2d0|      20                                       |                |                    opcode: "local.get" (0x20) 0x2d2-0x2d3 (1)
0x2d0|         01                                    |   .            |                    x: 1 (valid) 0x2d3-0x2d4 (1)
     |                                               |                |                  [2]{}: in 0x2d4-0x2d9 (5)
0x2d0|            fd                                 |    .           |                    opcode: "vector" (0xfd) 0x2d4-0x2d5 (1)
0x2d0|               5a                              |     Z          |                    v_opcode: "v128.store32_lane" (90) 0x2d5-0x2d6 (1)
     |                                               |                |                    m{}: 0x2d6-0x2d8 (2)
0x2d0|                  02                           |      .         |                      a: 2 (valid) 0x2d6-0x2d7 (1)
0x2d0|                     00                        |       .        |                      o: 0 (valid) 0x2d7-0x2d8 (1)
0x2d0|                        02                     |        .       |                    l: 2 0x2d8-0x2d9 (1)
     |                                               |                |                  [3]{}: in 0x2d9-0x2db (2)
0x2d0|                           20                  |                |                    opcode: "local.get" (0x20) 0x2d9-0x2da (1)
0x2d0|                              00               |          .     |                    x: 0 (valid) 0x2da-0x2db (1)
     |                                               |                |                  [4]{}: in 0x2db-0x2de (3)
0x2d0|                                 29            |           )    |                    opcode: "i64.load" (0x29) 0x2db-0x2dc (1)
     |                                               |                |                    m{}: 0x2dc-0x2de (2)
0x2d0|                                    03         |            .   |                      a: 3 (valid) 0x2dc-0x2dd (1)
0x2d0|                                       00      |             .  |                      o: 0 (valid) 0x2dd-0x2de (1)
     |                                               |                |                  [5]{}: in 0x2de-0x2e0 (2)
0x2d0|                                          21   |              ! |                    opcode: "local.set" (0x21) 0x2de-0x2df (1)
0x2d0|                                             02|               .|                    x: 2 (valid) 0x2df-0x2e0 (1)
     |                                               |                |                  [6]{}: in 0x2e0-0x2e2 (2)
0x2e0|20                                             |                |                    opcode: "local.get" (0x20) 0x2e0-0x2e1 (1)
0x2e0|   00                                          | .              |                    x: 0 (valid) 0x2e1-0x2e2 (1)
     |                                               |                |                  [7]{}: in 0x2e2-0x2e4 (2)
0x2e0|      23                                       |  #             |                    opcode: "global.get" (0x23) 0x2e2-0x2e3 (1)
0x2e0|         00                                    |   .            |                    x: 0 (valid) 0x2e3-0x2e4 (1)
     |                                               |                |                  [8]{}: in 0x2e4-0x2e8 (4)
0x2e0|            fd                                 |    .           |                    opcode: "vector" (0xfd) 0x2e4-0x2e5 (1)
0x2e0|               0b                              |     .          |                    v_opcode: "v128.store" (11) 0x2e5-0x2e6 (1)
     |                                               |                |                    m{}: 0x2e6-0x2e8 (2)
0x2e0|                  04                           |      .         |                      a: 4 (valid) 0x2e6-0x2e7 (1)
0x2e0|                     00                        |       .        |                      o: 0 (valid) 0x2e7-0x2e8 (1)
     |                                               |                |                  [9]{}: in 0x2e8-0x2ea (2)
0x2e0|                        20                     |                |                    opcode: "local.get" (0x20) 0x2e8-0x2e9 (1)
0x2e0|                           02                  |         .      |                    x: 2 (valid) 0x2e9-0x2ea (1)
     |                                               |                |                  [10]{}: in 0x2ea-0x2eb (1)
0x2e0|                              0b               |          .     |                    opcode: "end" (0xb) 0x2ea-0x2eb (1)
     |                                               |                |            [3]{}: code 0x2eb-0x30a (31)
0x2e0|                                 1e            |           .    |              size: 30 (valid) 0x2eb-0x2ec (1)
     |                                               |                |              code{}: 0x2ec-0x30a (30)
     |                                               |                |                t{}: 0x2ec-0x2ef (3)
0x2e0|                                    01         |            .   |                  n: 1 (valid) 0x2ec-0x2ed (1)
     |                                               |                |                  x[0:1]: 0x2ed-0x2ef (2)
     |                                               |                |                    [0]{}: t 0x2ed-0x2ef (2)
0x2e0|                                       01      |             .  |                      n: 1 (valid) 0x2ed-0x2ee (1)
0x2e0|                                          7e   |              ~ |                      t: "i64" (0x7e) 0x2ee-0x2ef (1)
     |                                               |                |                e[0:11]: 0x2ef-0x30a (27)
     |                                               |                |                  [0]{}: in 0x2ef-0x2f1 (2)
0x2e0|                                             20|                |                    opcode: "local.get" (0x20) 0x2ef-0x2f0 (1)
0x2f0|00                                             |.               |                    x: 0 (valid) 0x2f0-0x2f1 (1)
     |                                               |                |                  [1]{}: in 0x2f1-0x2f3 (2)
0x2f0|   20                                          |                |                    opcode: "local.get" (0x20) 0x2f1-0x2f2 (1)
0x2f0|      01                                       |  .             |                    x: 1 (valid) 0x2f2-0x2f3 (1)
     |                                               |                |                  [2]{}: in 0x2f3-0x2f8 (5)
0x2f0|         fd                                    |   .            |                    opcode: "vector" (0xfd) 0x2f3-0x2f4 (1)
0x2f0|            5a                                 |    Z           |                    v_opcode: "v128.store32_lane" (90) 0x2f4-0x2f5 (1)
     |                                               |                |                    m{}: 0x2f5-0x2f7 (2)
0x2f0|               02                              |     .          |                      a: 2 (valid) 0x2f5-0x2f6 (1)
0x2f0|                  00                           |      .         |                      o: 0 (valid) 0x2f6-0x2f7 (1)
0x2f0|                     03                        |       .        |                    l: 3 0x2f7-0x2f8 (1)
     |                                               |                |                  [3]{}: in 0x2f8-0x2fa (2)
0x2f0|                        20                     |                |                    opcode: "local.get" (0x20) 0x2f8-0x2f9 (1)
0x2f0|                           00                  |         .      |                    x: 0 (valid) 0x2f9-0x2fa (1)
     |                                               |                |                  [4]{}: in 0x2fa-0x2fd (3)
0x2f0|                              29               |          )     |                    opcode: "i64.load" (0x29) 0x2fa-0x2fb (1)
     |                                               |                |                    m{}: 0x2fb-0x2fd (2)
0x2f0|                                 03            |           .    |                      a: 3 (valid) 0x2fb-0x2fc (1)
0x2f0|                                    00         |            .   |                      o: 0 (valid) 0x2fc-0x2fd (1)
     |                                               |                |                  [5]{}: in 0x2fd-0x2ff (2)
0x2f0|                                       21      |             !  |                    opcode: "local.set" (0x21) 0x2fd-0x2fe (1)
0x2f0|                                          02   |              . |                    x: 2 (valid) 0x2fe-0x2ff (1)
     |                                               |                |                  [6]{}: in 0x2ff-0x301 (2)
0x2f0|                                             20|                |                    opcode: "local.get" (0x20) 0x2ff-0x300 (1)
0x300|00                                             |.               |                    x: 0 (valid) 0x300-0x301 (1)
     |                                               |                |                  [7]{}: in 0x301-0x303 (2)
0x300|   23                                          | #              |                    opcode: "global.get" (0x23) 0x301-0x302 (1)
0x300|      00                                       |  .             |                    x: 0 (valid) 0x302-0x303 (1)
     |                                               |                |                  [8]{}: in 0x303-0x307 (4)
0x300|         fd                                    |   .            |                    opcode: "vector" (0xfd) 0x303-0x304 (1)
0x300|            0b                                 |    .           |                    v_opcode: "v128.store" (11) 0x304-0x305 (1)
     |                                               |                |                    m{}: 0x305-0x307 (2)
0x300|               04                              |     .          |                      a: 4 (valid) 0x305-0x306 (1)
0x300|                  00                           |      .         |                      o: 0 (valid) 0x306-0x307 (1)
     |                                               |                |                  [9]{}: in 0x307-0x309 (2)
0x300|                     20                        |                |                    opcode: "local.get" (0x20) 0x307-0x308 (1)
0x300|                        02                     |        .       |                    x: 2 (valid) 0x308-0x309 (1)
     |                                               |                |                  [10]{}: in 0x309-0x30a (1)
0x300|                           0b                  |         .      |                    opcode: "end" (0xb) 0x309-0x30a (1)
     |                                               |                |            [4]{}: code 0x30a-0x329 (31)
0x300|                              1e               |          .     |              size: 30 (valid) 0x30a-0x30b (1)
     |                                               |                |              code{}: 0x30b-0x329 (30)
     |                                               |                |                t{}: 0x30b-0x30e (3)
0x300|                                 01            |           .    |                  n: 1 (valid) 0x30b-0x30c (1)
     |                                               |                |                  x[0:1]: 0x30c-0x30e (2)
     |                                               |                |                    [0]{}: t 0x30c-0x30e (2)
0x300|                                    01         |            .   |                      n: 1 (valid) 0x30c-0x30d (1)
0x300|                                       7e      |             ~  |                      t: "i64" (0x7e) 0x30d-0x30e (1)
     |                                               |                |                e[0:11]: 0x30e-0x329 (27)
     |                                               |                |                  [0]{}: in 0x30e-0x310 (2)
0x300|                                          41   |              A |                    opcode: "i32.const" (0x41) 0x30e-0x30f (1)
0x300|                                             00|               .|                    n: 0 (valid) 0x30f-0x310 (1)
     |                                               |                |                  [1]{}: in 0x310-0x312 (2)
0x310|20                                             |                |                    opcode: "local.get" (0x20) 0x310-0x311 (1)
0x310|   00                                          | .              |                    x: 0 (valid) 0x311-0x312 (1)
     |                                               |                |                  [2]{}: in 0x312-0x317 (5)
0x310|      fd                                       |  .             |                    opcode: "vector" (0xfd) 0x312-0x313 (1)
0x310|         5a                                    |   Z            |                    v_opcode: "v128.store32_lane" (90) 0x313-0x314 (1)
     |                                               |                |                    m{}: 0x314-0x316 (2)
0x310|            02                                 |    .           |                      a: 2 (valid) 0x314-0x315 (1)
0x310|               00                              |     .          |                      o: 0 (valid) 0x315-0x316 (1)
0x310|                  00                           |      .         |                    l: 0 0x316-0x317 (1)
     |                                               |                |                  [3]{}: in 0x317-0x319 (2)
0x310|                     41                        |       A        |                    opcode: "i32.const" (0x41) 0x317-0x318 (1)
0x310|                        00                     |        .       |                    n: 0 (valid) 0x318-0x319 (1)
     |                                               |                |                  [4]{}: in 0x319-0x31c (3)
0x310|                           29                  |         )      |                    opcode: "i64.load" (0x29) 0x319-0x31a (1)
     |                                               |                |                    m{}: 0x31a-0x31c (2)
0x310|                              03               |          .     |                      a: 3 (valid) 0x31a-0x31b (1)
0x310|                                 00            |           .    |                      o: 0 (valid) 0x31b-0x31c (1)
     |                                               |                |                  [5]{}: in 0x31c-0x31e (2)
0x310|                                    21         |            !   |                    opcode: "local.set" (0x21) 0x31c-0x31d (1)
0x310|                                       01      |             .  |                    x: 1 (valid) 0x31d-0x31e (1)
     |                                               |                |                  [6]{}: in 0x31e-0x320 (2)
0x310|                                          41   |              A |                    opcode: "i32.const" (0x41) 0x31e-0x31f (1)
0x310|                                             00|               .|                    n: 0 (valid) 0x31f-0x320 (1)
     |                                               |                |                  [7]{}: in 0x320-0x322 (2)
0x320|23                                             |#               |                    opcode: "global.get" (0x23) 0x320-0x321 (1)
0x320|   00                                          | .              |                    x: 0 (valid) 0x321-0x322 (1)
     |                                               |                |                  [8]{}: in 0x322-0x326 (4)
0x320|      fd                                       |  .             |                    opcode: "vector" (0xfd) 0x322-0x323 (1)
0x320|         0b                                    |   .            |                    v_opcode: "v128.store" (11) 0x323-0x324 (1)
     |                                               |                |                    m{}: 0x324-0x326 (2)
0x320|            04                                 |    .           |                      a: 4 (valid) 0x324-0x325 (1)
0x320|               00                              |     .          |                      o: 0 (valid) 0x325-0x326 (1)
     |                                               |                |                  [9]{}: in 0x326-0x328 (2)
0x320|                  20                           |                |                    opcode: "local.get" (0x20) 0x326-0x327 (1)
0x320|                     01                        |       .        |                    x: 1 (valid) 0x327-0x328 (1)
     |                                               |                |                  [10]{}: in 0x328-0x329 (1)
0x320|                        0b                     |        .       |                    opcode: "end" (0xb) 0x328-0x329 (1)
     |                                               |                |            [5]{}: code 0x329-0x348 (31)
0x320|                           1e                  |         .      |              size: 30 (valid) 0x329-0x32a (1)
     |                                               |                |              code{}: 0x32a-0x348 (30)
     |                                               |                |                t{}: 0x32a-0x32d (3)
0x320|                              01               |          .     |                  n: 1 (valid) 0x32a-0x32b (1)
     |                                               |                |                  x[0:1]: 0x32b-0x32d (2)
     |                                               |                |                    [0]{}: t 0x32b-0x32d (2)
0x320|                                 01            |           .    |                      n: 1 (valid) 0x32b-0x32c (1)
0x320|                                    7e         |            ~   |                      t: "i64" (0x7e) 0x32c-0x32d (1)
     |                                               |                |                e[0:11]: 0x32d-0x348 (27)
     |                                               |                |                  [0]{}: in 0x32d-0x32f (2)
0x320|                                       41      |             A  |                    opcode: "i32.const" (0x41) 0x32d-0x32e (1)
0x320|                                          00   |              . |                    n: 0 (valid) 0x32e-0x32f (1)
     |                                               |                |                  [1]{}: in 0x32f-0x331 (2)
0x320|                                             20|                |                    opcode: "local.get" (0x20) 0x32f-0x330 (1)
0x330|00                                             |.               |                    x: 0 (valid) 0x330-0x331 (1)
     |                                               |                |                  [2]{}: in 0x331-0x336 (5)
0x330|   fd                                          | .              |                    opcode: "vector" (0xfd) 0x331-0x332 (1)
0x330|      5a                                       |  Z             |                    v_opcode: "v128.store32_lane" (90) 0x332-0x333 (1)
     |                                               |                |                    m{}: 0x333-0x335 (2)
0x330|         02                                    |   .            |                      a: 2 (valid) 0x333-0x334 (1)
0x330|            01                                 |    .           |                      o: 1 (valid) 0x334-0x335 (1)
0x330|               01                              |     .          |                    l: 1 0x335-0x336 (1)
     |                                               |                |                  [3]{}: in 0x336-0x338 (2)
0x330|                  41                           |      A         |                    opcode: "i32.const" (0x41) 0x336-0x337 (1)
0x330|                     00                        |       .        |                    n: 0 (valid) 0x337-0x338 (1)
     |                                               |                |                  [4]{}: in 0x338-0x33b (3)
0x330|                        29                     |        )       |                    opcode: "i64.load" (0x29) 0x338-0x339 (1)
     |                                               |                |                    m{}: 0x339-0x33b (2)
0x330|                           03                  |         .      |                      a: 3 (valid) 0x339-0x33a (1)
0x330|                              01               |          .     |                      o: 1 (valid) 0x33a-0x33b (1)
     |                                               |                |                  [5]{}: in 0x33b-0x33d (2)
0x330|                                 21            |           !    |                    opcode: "local.set" (0x21) 0x33b-0x33c (1)
0x330|                                    01         |            .   |                    x: 1 (valid) 0x33c-0x33d (1)
     |                                               |                |                  [6]{}: in 0x33d-0x33f (2)
0x330|                                       41      |             A  |                    opcode: "i32.const" (0x41) 0x33d-0x33e (1)
0x330|                                          00   |              . |                    n: 0 (valid) 0x33e-0x33f (1)
     |                                               |                |                  [7]{}: in 0x33f-0x341 (2)
0x330|                                             23|               #|                    opcode: "global.get" (0x23) 0x33f-0x340 (1)
0x340|00                                             |.               |                    x: 0 (valid) 0x340-0x341 (1)
     |                                               |                |                  [8]{}: in 0x341-0x345 (4)
0x340|   fd                                          | .              |                    opcode: "vector" (0xfd) 0x341-0x342 (1)
0x340|      0b                                       |  .             |                    v_opcode: "v128.store" (11) 0x342-0x343 (1)
     |                                               |                |                    m{}: 0x343-0x345 (2)
0x340|         04                                    |   .            |                      a: 4 (valid) 0x343-0x344 (1)
0x340|            01                                 |    .           |                      o: 1 (valid) 0x344-0x345 (1)
     |                                               |                |                  [9]{}: in 0x345-0x347 (2)
0x340|               20                              |                |                    opcode: "local.get" (0x20) 0x345-0x346 (1)
0x340|                  01                           |      .         |                    x: 1 (valid) 0x346-0x347 (1)
     |                                               |                |                  [10]{}: in 0x347-0x348 (1)
0x340|                     0b                        |       .        |                    opcode: "end" (0xb) 0x347-0x348 (1)
     |                                               |                |            [6]{}: code 0x348-0x367 (31)
0x340|                        1e                     |        .       |              size: 30 (valid) 0x348-0x349 (1)
     |                                               |                |              code{}: 0x349-0x367 (30)
     |                                               |                |                t{}: 0x349-0x34c (3)
0x340|                           01                  |         .      |                  n: 1 (valid) 0x349-0x34a (1)
     |                                               |                |                  x[0:1]: 0x34a-0x34c (2)
     |                                               |                |                    [0]{}: t 0x34a-0x34c (2)
0x340|                              01               |          .     |                      n: 1 (valid) 0x34a-0x34b (1)
0x340|                                 7e            |           ~    |                      t: "i64" (0x7e) 0x34b-0x34c (1)
     |                                               |                |                e[0:11]: 0x34c-0x367 (27)
     |                                               |                |                  [0]{}: in 0x34c-0x34e (2)
0x340|                                    41         |            A   |                    opcode: "i32.const" (0x41) 0x34c-0x34d (1)
0x340|                                       00      |             .  |                    n: 0 (valid) 0x34d-0x34e (1)
     |                                               |                |                  [1]{}: in 0x34e-0x350 (2)
0x340|                                          20   |                |                    opcode: "local.get" (0x20) 0x34e-0x34f (1)
0x340|                                             00|               .|                    x: 0 (valid) 0x34f-0x350 (1)
     |                                               |                |                  [2]{}: in 0x350-0x355 (5)
0x350|fd                                             |.               |                    opcode: "vector" (0xfd) 0x350-0x351 (1)
0x350|   5a                                          | Z              |                    v_opcode: "v128.store32_lane" (90) 0x351-0x352 (1)
     |                                               |                |                    m{}: 0x352-0x354 (2)
0x350|      02                                       |  .             |                      a: 2 (valid) 0x352-0x353 (1)
0x350|         02                                    |   .            |                      o: 2 (valid) 0x353-0x354 (1)
0x350|            02                                 |    .           |                    l: 2 0x354-0x355 (1)
     |                                               |                |                  [3]{}: in 0x355-0x357 (2)
0x350|               41                              |     A          |                    opcode: "i32.const" (0x41) 0x355-0x356 (1)
0x350|                  00                           |      .         |                    n: 0 (valid) 0x356-0x357 (1)
     |                                               |                |                  [4]{}: in 0x357-0x35a (3)
0x350|                     29                        |       )        |                    opcode: "i64.load" (0x29) 0x357-0x358 (1)
     |                                               |                |                    m{}: 0x358-0x35a (2)
0x350|                        03                     |        .       |                      a: 3 (valid) 0x358-0x359 (1)
0x350|                           02                  |         .      |                      o: 2 (valid) 0x359-0x35a (1)
     |                                               |                |                  [5]{}: in 0x35a-0x35c (2)
0x350|                              21               |          !     |                    opcode: "local.set" (0x21) 0x35a-0x35b (1)
0x350|                                 01            |           .    |                    x: 1 (valid) 0x35b-0x35c (1)
     |                                               |                |                  [6]{}: in 0x35c-0x35e (2)
0x350|                                    41         |            A   |                    opcode: "i32.const" (0x41) 0x35c-0x35d (1)
0x350|                                       00      |             .  |                    n: 0 (valid) 0x35d-0x35e (1)
     |                                               |                |                  [7]{}: in 0x35e-0x360 (2)
0x350|                                          23   |              # |                    opcode: "global.get" (0x23) 0x35e-0x35f (1)
0x350|                                             00|               .|                    x: 0 (valid) 0x35f-0x360 (1)
     |                                               |                |                  [8]{}: in 0x360-0x364 (4)
0x360|fd                                             |.               |                    opcode: "vector" (0xfd) 0x360-0x361 (1)
0x360|   0b                                          | .              |                    v_opcode: "v128.store" (11) 0x361-0x362 (1)
     |                                               |                |                    m{}: 0x362-0x364 (2)
0x360|      04                                       |  .             |                      a: 4 (valid) 0x362-0x363 (1)
0x360|         02                                    |   .            |                      o: 2 (valid) 0x363-0x364 (1)
     |                                               |                |                  [9]{}: in 0x364-0x366 (2)
0x360|            20                                 |                |                    opcode: "local.get" (0x20) 0x364-0x365 (1)
0x360|               01                              |     .          |                    x: 1 (valid) 0x365-0x366 (1)
     |                                               |                |                  [10]{}: in 0x366-0x367 (1)
0x360|                  0b                           |      .         |                    opcode: "end" (0xb) 0x366-0x367 (1)
     |                                               |                |            [7]{}: code 0x367-0x386 (31)
0x360|                     1e                        |       .        |              size: 30 (valid) 0x367-0x368 (1)
     |                                               |                |              code{}: 0x368-0x386 (30)
     |                                               |                |                t{}: 0x368-0x36b (3)
0x360|                        01                     |        .       |                  n: 1 (valid) 0x368-0x369 (1)
     |                                               |                |                  x[0:1]: 0x369-0x36b (2)
     |                                               |                |                    [0]{}: t 0x369-0x36b (2)
0x360|                           01                  |         .      |                      n: 1 (valid) 0x369-0x36a (1)
0x360|                              7e               |          ~     |                      t: "i64" (0x7e) 0x36a-0x36b (1)
     |                                               |                |                e[0:11]: 0x36b-0x386 (27)
     |                                               |                |                  [0]{}: in 0x36b-0x36d (2)
0x360|                                 41            |           A    |                    opcode: "i32.const" (0x41) 0x36b-0x36c (1)
0x360|                                    00         |            .   |                    n: 0 (valid) 0x36c-0x36d (1)
     |                                               |                |                  [1]{}: in 0x36d-0x36f (2)
0x360|                                       20      |                |                    opcode: "local.get" (0x20) 0x36d-0x36e (1)
0x360|                                          00   |              . |                    x: 0 (valid) 0x36e-0x36f (1)
     |                                               |                |                  [2]{}: in 0x36f-0x374 (5)
0x360|                                             fd|               .|                    opcode: "vector" (0xfd) 0x36f-0x370 (1)
0x370|5a                                             |Z               |                    v_opcode: "v128.store32_lane" (90) 0x370-0x371 (1)
     |                                               |                |                    m{}: 0x371-0x373 (2)
0x370|   02                                          | .              |                      a: 2 (valid) 0x371-0x372 (1)
0x370|      03                                       |  .             |                      o: 3 (valid) 0x372-0x373 (1)
0x370|         03                                    |   .            |                    l: 3 0x373-0x374 (1)
     |                                               |                |                  [3]{}: in 0x374-0x376 (2)
0x370|            41                                 |    A           |                    opcode: "i32.const" (0x41) 0x374-0x375 (1)
0x370|               00                              |     .          |                    n: 0 (valid) 0x375-0x376 (1)
     |                                               |                |                  [4]{}: in 0x376-0x379 (3)
0x370|                  29                           |      )         |                    opcode: "i64.load" (0x29) 0x376-0x377 (1)
     |                                               |                |                    m{}: 0x377-0x379 (2)
0x370|                     03                        |       .        |                      a: 3 (valid) 0x377-0x378 (1)
0x370|                        03                     |        .       |                      o: 3 (valid) 0x378-0x379 (1)
     |                                               |                |                  [5]{}: in 0x379-0x37b (2)
0x370|                           21                  |         !      |                    opcode: "local.set" (0x21) 0x379-0x37a (1)
0x370|                              01               |          .     |                    x: 1 (valid) 0x37a-0x37b (1)
     |                                               |                |                  [6]{}: in 0x37b-0x37d (2)
0x370|                                 41            |           A    |                    opcode: "i32.const" (0x41) 0x37b-0x37c (1)
0x370|                                    00         |            .   |                    n: 0 (valid) 0x37c-0x37d (1)
     |                                               |                |                  [7]{}: in 0x37d-0x37f (2)
0x370|                                       23      |             #  |                    opcode: "global.get" (0x23) 0x37d-0x37e (1)
0x370|                                          00   |              . |                    x: 0 (valid) 0x37e-0x37f (1)
     |                                               |                |                  [8]{}: in 0x37f-0x383 (4)
0x370|                                             fd|               .|                    opcode: "vector" (0xfd) 0x37f-0x380 (1)
0x380|0b                                             |.               |                    v_opcode: "v128.store" (11) 0x380-0x381 (1)
     |                                               |                |                    m{}: 0x381-0x383 (2)
0x380|   04                                          | .              |                      a: 4 (valid) 0x381-0x382 (1)
0x380|      03                                       |  .             |                      o: 3 (valid) 0x382-0x383 (1)
     |                                               |                |                  [9]{}: in 0x383-0x385 (2)
0x380|         20                                    |                |                    opcode: "local.get" (0x20) 0x383-0x384 (1)
0x380|            01                                 |    .           |                    x: 1 (valid) 0x384-0x385 (1)
     |                                               |                |                  [10]{}: in 0x385-0x386 (1)
0x380|               0b                              |     .          |                    opcode: "end" (0xb) 0x385-0x386 (1)
     |                                               |                |            [8]{}: code 0x386-0x3a5 (31)
0x380|                  1e                           |      .         |              size: 30 (valid) 0x386-0x387 (1)
     |                                               |                |              code{}: 0x387-0x3a5 (30)
     |                                               |                |                t{}: 0x387-0x38a (3)
0x380|                     01                        |       .        |                  n: 1 (valid) 0x387-0x388 (1)
     |                                               |                |                  x[0:1]: 0x388-0x38a (2)
     |                                               |                |                    [0]{}: t 0x388-0x38a (2)
0x380|                        01                     |        .       |                      n: 1 (valid) 0x388-0x389 (1)
0x380|                           7e                  |         ~      |                      t: "i64" (0x7e) 0x389-0x38a (1)
     |                                               |                |                e[0:11]: 0x38a-0x3a5 (27)
     |                                               |                |                  [0]{}: in 0x38a-0x38c (2)
0x380|                              20               |                |                    opcode: "local.get" (0x20) 0x38a-0x38b (1)
0x380|                                 00            |           .    |                    x: 0 (valid) 0x38b-0x38c (1)
     |                                               |                |                  [1]{}: in 0x38c-0x38e (2)
0x380|                                    20         |                |                    opcode: "local.get" (0x20) 0x38c-0x38d (1)
0x380|                                       01      |             .  |                    x: 1 (valid) 0x38d-0x38e (1)
     |                                               |                |                  [2]{}: in 0x38e-0x393 (5)
0x380|                                          fd   |              . |                    opcode: "vector" (0xfd) 0x38e-0x38f (1)
0x380|                                             5a|               Z|                    v_opcode: "v128.store32_lane" (90) 0x38f-0x390 (1)
     |                                               |                |                    m{}: 0x390-0x392 (2)
0x390|00                                             |.               |                      a: 0 (valid) 0x390-0x391 (1)
0x390|   00                                          | .              |                      o: 0 (valid) 0x391-0x392 (1)
0x390|      00                                       |  .             |                    l: 0 0x392-0x393 (1)
     |                                               |                |                  [3]{}: in 0x393-0x395 (2)
0x390|         20                                    |                |                    opcode: "local.get" (0x20) 0x393-0x394 (1)
0x390|            00                                 |    .           |                    x: 0 (valid) 0x394-0x395 (1)
     |                                               |                |                  [4]{}: in 0x395-0x398 (3)
0x390|               29                              |     )          |                    opcode: "i64.load" (0x29) 0x395-0x396 (1)
     |                                               |                |                    m{}: 0x396-0x398 (2)
0x390|                  03                           |      .         |                      a: 3 (valid) 0x396-0x397 (1)
0x390|                     00                        |       .        |                      o: 0 (valid) 0x397-0x398 (1)
     |                                               |                |                  [5]{}: in 0x398-0x39a (2)
0x390|                        21                     |        !       |                    opcode: "local.set" (0x21) 0x398-0x399 (1)
0x390|                           02                  |         .      |                    x: 2 (valid) 0x399-0x39a (1)
     |                                               |                |                  [6]{}: in 0x39a-0x39c (2)
0x390|                              41               |          A     |                    opcode: "i32.const" (0x41) 0x39a-0x39b (1)
0x390|                                 00            |           .    |                    n: 0 (valid) 0x39b-0x39c (1)
     |                                               |                |                  [7]{}: in 0x39c-0x39e (2)
0x390|                                    23         |            #   |                    opcode: "global.get" (0x23) 0x39c-0x39d (1)
0x390|                                       00      |             .  |                    x: 0 (valid) 0x39d-0x39e (1)
     |                                               |                |                  [8]{}: in 0x39e-0x3a2 (4)
0x390|                                          fd   |              . |                    opcode: "vector" (0xfd) 0x39e-0x39f (1)
0x390|                                             0b|               .|                    v_opcode: "v128.store" (11) 0x39f-0x3a0 (1)
     |                                               |                |                    m{}: 0x3a0-0x3a2 (2)
0x3a0|04                                             |.               |                      a: 4 (valid) 0x3a0-0x3a1 (1)
0x3a0|   00                                          | .              |                      o: 0 (valid) 0x3a1-0x3a2 (1)
     |                                               |                |                  [9]{}: in 0x3a2-0x3a4 (2)
0x3a0|      20                                       |                |                    opcode: "local.get" (0x20) 0x3a2-0x3a3 (1)
0x3a0|         02                                    |   .            |                    x: 2 (valid) 0x3a3-0x3a4 (1)
     |                                               |                |                  [10]{}: in 0x3a4-0x3a5 (1)
0x3a0|            0b                                 |    .           |                    opcode: "end" (0xb) 0x3a4-0x3a5 (1)
     |                                               |                |            [9]{}: code 0x3a5-0x3c4 (31)
0x3a0|               1e                              |     .          |              size: 30 (valid) 0x3a5-0x3a6 (1)
     |                                               |                |              code{}: 0x3a6-0x3c4 (30)
     |                                               |                |                t{}: 0x3a6-0x3a9 (3)
0x3a0|                  01                           |      .         |                  n: 1 (valid) 0x3a6-0x3a7 (1)
     |                                               |                |                  x[0:1]: 0x3a7-0x3a9 (2)
     |                                               |                |                    [0]{}: t 0x3a7-0x3a9 (2)
0x3a0|                     01                        |       .        |                      n: 1 (valid) 0x3a7-0x3a8 (1)
0x3a0|                        7e                     |        ~       |                      t: "i64" (0x7e) 0x3a8-0x3a9 (1)
     |                                               |                |                e[0:11]: 0x3a9-0x3c4 (27)
     |                                               |                |                  [0]{}: in 0x3a9-0x3ab (2)
0x3a0|                           20                  |                |                    opcode: "local.get" (0x20) 0x3a9-0x3aa (1)
0x3a0|                              00               |          .     |                    x: 0 (valid) 0x3aa-0x3ab (1)
     |                                               |                |                  [1]{}: in 0x3ab-0x3ad (2)
0x3a0|                                 20            |                |                    opcode: "local.get" (0x20) 0x3ab-0x3ac (1)
0x3a0|                                    01         |            .   |                    x: 1 (valid) 0x3ac-0x3ad (1)
     |                                               |                |                  [2]{}: in 0x3ad-0x3b2 (5)
0x3a0|                                       fd      |             .  |                    opcode: "vector" (0xfd) 0x3ad-0x3ae (1)
0x3a0|                                          5a   |              Z |                    v_opcode: "v128.store32_lane" (90) 0x3ae-0x3af (1)
     |                                               |                |                    m{}: 0x3af-0x3b1 (2)
0x3a0|                                             01|               .|                      a: 1 (valid) 0x3af-0x3b0 (1)
0x3b0|00                                             |.               |                      o: 0 (valid) 0x3b0-0x3b1 (1)
0x3b0|   00                                          | .              |                    l: 0 0x3b1-0x3b2 (1)
     |                                               |                |                  [3]{}: in 0x3b2-0x3b4 (2)
0x3b0|      20                                       |                |                    opcode: "local.get" (0x20) 0x3b2-0x3b3 (1)
0x3b0|         00                                    |   .            |                    x: 0 (valid) 0x3b3-0x3b4 (1)
     |                                               |                |                  [4]{}: in 0x3b4-0x3b7 (3)
0x3b0|            29                                 |    )           |                    opcode: "i64.load" (0x29) 0x3b4-0x3b5 (1)
     |                                               |                |                    m{}: 0x3b5-0x3b7 (2)
0x3b0|               03                              |     .          |                      a: 3 (valid) 0x3b5-0x3b6 (1)
0x3b0|                  00                           |      .         |                      o: 0 (valid) 0x3b6-0x3b7 (1)
     |                                               |                |                  [5]{}: in 0x3b7-0x3b9 (2)
0x3b0|                     21                        |       !        |                    opcode: "local.set" (0x21) 0x3b7-0x3b8 (1)
0x3b0|                        02                     |        .       |                    x: 2 (valid) 0x3b8-0x3b9 (1)
     |                                               |                |                  [6]{}: in 0x3b9-0x3bb (2)
0x3b0|                           41                  |         A      |                    opcode: "i32.const" (0x41) 0x3b9-0x3ba (1)
0x3b0|                              00               |          .     |                    n: 0 (valid) 0x3ba-0x3bb (1)
     |                                               |                |                  [7]{}: in 0x3bb-0x3bd (2)
0x3b0|                                 23            |           #    |                    opcode: "global.get" (0x23) 0x3bb-0x3bc (1)
0x3b0|                                    00         |            .   |                    x: 0 (valid) 0x3bc-0x3bd (1)
     |                                               |                |                  [8]{}: in 0x3bd-0x3c1 (4)
0x3b0|                                       fd      |             .  |                    opcode: "vector" (0xfd) 0x3bd-0x3be (1)
0x3b0|                                          0b   |              . |                    v_opcode: "v128.store" (11) 0x3be-0x3bf (1)
     |                                               |                |                    m{}: 0x3bf-0x3c1 (2)
0x3b0|                                             04|               .|                      a: 4 (valid) 0x3bf-0x3c0 (1)
0x3c0|00                                             |.               |                      o: 0 (valid) 0x3c0-0x3c1 (1)
     |                                               |                |                  [9]{}: in 0x3c1-0x3c3 (2)
0x3c0|   20                                          |                |                    opcode: "local.get" (0x20) 0x3c1-0x3c2 (1)
0x3c0|      02                                       |  .             |                    x: 2 (valid) 0x3c2-0x3c3 (1)
     |                                               |                |                  [10]{}: in 0x3c3-0x3c4 (1)
0x3c0|         0b                                    |   .            |                    opcode: "end" (0xb) 0x3c3-0x3c4 (1)
     |                                               |                |            [10]{}: code 0x3c4-0x3e3 (31)
0x3c0|            1e                                 |    .           |              size: 30 (valid) 0x3c4-0x3c5 (1)
     |                                               |                |              code{}: 0x3c5-0x3e3 (30)
     |                                               |                |                t{}: 0x3c5-0x3c8 (3)
0x3c0|               01                              |     .          |                  n: 1 (valid) 0x3c5-0x3c6 (1)
     |                                               |                |                  x[0:1]: 0x3c6-0x3c8 (2)
     |                                               |                |                    [0]{}: t 0x3c6-0x3c8 (2)
0x3c0|                  01                           |      .         |                      n: 1 (valid) 0x3c6-0x3c7 (1)
0x3c0|                     7e                        |       ~        |                      t: "i64" (0x7e) 0x3c7-0x3c8 (1)
     |                                               |                |                e[0:11]: 0x3c8-0x3e3 (27)
     |                                               |                |                  [0]{}: in 0x3c8-0x3ca (2)
0x3c0|                        20                     |                |                    opcode: "local.get" (0x20) 0x3c8-0x3c9 (1)
0x3c0|                           00                  |         .      |                    x: 0 (valid) 0x3c9-0x3ca (1)
     |                                               |                |                  [1]{}: in 0x3ca-0x3cc (2)
0x3c0|                              20               |                |                    opcode: "local.get" (0x20) 0x3ca-0x3cb (1)
0x3c0|                                 01            |           .    |                    x: 1 (valid) 0x3cb-0x3cc (1)
     |                                               |                |                  [2]{}: in 0x3cc-0x3d1 (5)
0x3c0|                                    fd         |            .   |                    opcode: "vector" (0xfd) 0x3cc-0x3cd (1)
0x3c0|                                       5a      |             Z  |                    v_opcode: "v128.store32_lane" (90) 0x3cd-0x3ce (1)
     |                                               |                |                    m{}: 0x3ce-0x3d0 (2)
0x3c0|                                          02   |              . |                      a: 2 (valid) 0x3ce-0x3cf (1)
0x3c0|                                             00|               .|                      o: 0 (valid) 0x3cf-0x3d0 (1)
0x3d0|00                                             |.               |                    l: 0 0x3d0-0x3d1 (1)
     |                                               |                |                  [3]{}: in 0x3d1-0x3d3 (2)
0x3d0|   20                                          |                |                    opcode: "local.get" (0x20) 0x3d1-0x3d2 (1)
0x3d0|      00                                       |  .             |                    x: 0 (valid) 0x3d2-0x3d3 (1)
     |                                               |                |                  [4]{}: in 0x3d3-0x3d6 (3)
0x3d0|         29                                    |   )            |                    opcode: "i64.load" (0x29) 0x3d3-0x3d4 (1)
     |                                               |                |                    m{}: 0x3d4-0x3d6 (2)
0x3d0|            03                                 |    .           |                      a: 3 (valid) 0x3d4-0x3d5 (1)
0x3d0|               00                              |     .          |                      o: 0 (valid) 0x3d5-0x3d6 (1)
     |                                               |                |                  [5]{}: in 0x3d6-0x3d8 (2)
0x3d0|                  21                           |      !         |                    opcode: "local.set" (0x21) 0x3d6-0x3d7 (1)
0x3d0|                     02                        |       .        |                    x: 2 (valid) 0x3d7-0x3d8 (1)
     |                                               |                |                  [6]{}: in 0x3d8-0x3da (2)
0x3d0|                        41                     |        A       |                    opcode: "i32.const" (0x41) 0x3d8-0x3d9 (1)
0x3d0|                           00                  |         .      |                    n: 0 (valid) 0x3d9-0x3da (1)
     |                                               |                |                  [7]{}: in 0x3da-0x3dc (2)
0x3d0|                              23               |          #     |                    opcode: "global.get" (0x23) 0x3da-0x3db (1)
0x3d0|                                 00            |           .    |                    x: 0 (valid) 0x3db-0x3dc (1)
     |                                               |                |                  [8]{}: in 0x3dc-0x3e0 (4)
0x3d0|                                    fd         |            .   |                    opcode: "vector" (0xfd) 0x3dc-0x3dd (1)
0x3d0|                                       0b      |             .  |                    v_opcode: "v128.store" (11) 0x3dd-0x3de (1)
     |                                               |                |                    m{}: 0x3de-0x3e0 (2)
0x3d0|                                          04   |              . |                      a: 4 (valid) 0x3de-0x3df (1)
0x3d0|                                             00|               .|                      o: 0 (valid) 0x3df-0x3e0 (1)
     |                                               |                |                  [9]{}: in 0x3e0-0x3e2 (2)
0x3e0|20                                             |                |                    opcode: "local.get" (0x20) 0x3e0-0x3e1 (1)
0x3e0|   02                                          | .              |                    x: 2 (valid) 0x3e1-0x3e2 (1)
     |                                               |                |                  [10]{}: in 0x3e2-0x3e3 (1)
0x3e0|      0b                                       |  .             |                    opcode: "end" (0xb) 0x3e2-0x3e3 (1)
     |                                               |                |            [11]{}: code 0x3e3-0x402 (31)
0x3e0|         1e                                    |   .            |              size: 30 (valid) 0x3e3-0x3e4 (1)
     |                                               |                |              code{}: 0x3e4-0x402 (30)
     |                                               |                |                t{}: 0x3e4-0x3e7 (3)
0x3e0|            01                                 |    .           |                  n: 1 (valid) 0x3e4-0x3e5 (1)
     |                                               |                |                  x[0:1]: 0x3e5-0x3e7 (2)
     |                                               |                |                    [0]{}: t 0x3e5-0x3e7 (2)
0x3e0|               01                              |     .          |                      n: 1 (valid) 0x3e5-0x3e6 (1)
0x3e0|                  7e                           |      ~         |                      t: "i64" (0x7e) 0x3e6-0x3e7 (1)
     |                                               |                |                e[0:11]: 0x3e7-0x402 (27)
     |                                               |                |                  [0]{}: in 0x3e7-0x3e9 (2)
0x3e0|                     20                        |                |                    opcode: "local.get" (0x20) 0x3e7-0x3e8 (1)
0x3e0|                        00                     |        .       |                    x: 0 (valid) 0x3e8-0x3e9 (1)
     |                                               |                |                  [1]{}: in 0x3e9-0x3eb (2)
0x3e0|                           20                  |                |                    opcode: "local.get" (0x20) 0x3e9-0x3ea (1)
0x3e0|                              01               |          .     |                    x: 1 (valid) 0x3ea-0x3eb (1)
     |                                               |                |                  [2]{}: in 0x3eb-0x3f0 (5)
0x3e0|                                 fd            |           .    |                    opcode: "vector" (0xfd) 0x3eb-0x3ec (1)
0x3e0|                                    5a         |            Z   |                    v_opcode: "v128.store32_lane" (90) 0x3ec-0x3ed (1)
     |                                               |                |                    m{}: 0x3ed-0x3ef (2)
0x3e0|                                       00      |             .  |                      a: 0 (valid) 0x3ed-0x3ee (1)
0x3e0|                                          00   |              . |                      o: 0 (valid) 0x3ee-0x3ef (1)
0x3e0|                                             01|               .|                    l: 1 0x3ef-0x3f0 (1)
     |                                               |                |                  [3]{}: in 0x3f0-0x3f2 (2)
0x3f0|20                                             |                |                    opcode: "local.get" (0x20) 0x3f0-0x3f1 (1)
0x3f0|   00                                          | .              |                    x: 0 (valid) 0x3f1-0x3f2 (1)
     |                                               |                |                  [4]{}: in 0x3f2-0x3f5 (3)
0x3f0|      29                                       |  )             |                    opcode: "i64.load" (0x29) 0x3f2-0x3f3 (1)
     |                                               |                |                    m{}: 0x3f3-0x3f5 (2)
0x3f0|         03                                    |   .            |                      a: 3 (valid) 0x3f3-0x3f4 (1)
0x3f0|            00                                 |    .           |                      o: 0 (valid) 0x3f4-0x3f5 (1)
     |                                               |                |                  [5]{}: in 0x3f5-0x3f7 (2)
0x3f0|               21                              |     !          |                    opcode: "local.set" (0x21) 0x3f5-0x3f6 (1)
0x3f0|                  02                           |      .         |                    x: 2 (valid) 0x3f6-0x3f7 (1)
     |                                               |                |                  [6]{}: in 0x3f7-0x3f9 (2)
0x3f0|                     41                        |       A        |                    opcode: "i32.const" (0x41) 0x3f7-0x3f8 (1)
0x3f0|                        00                     |        .       |                    n: 0 (valid) 0x3f8-0x3f9 (1)
     |                                               |                |                  [7]{}: in 0x3f9-0x3fb (2)
0x3f0|                           23                  |         #      |                    opcode: "global.get" (0x23) 0x3f9-0x3fa (1)
0x3f0|                              00               |          .     |                    x: 0 (valid) 0x3fa-0x3fb (1)
     |                                               |                |                  [8]{}: in 0x3fb-0x3ff (4)
0x3f0|                                 fd            |           .    |                    opcode: "vector" (0xfd) 0x3fb-0x3fc (1)
0x3f0|                                    0b         |            .   |                    v_opcode: "v128.store" (11) 0x3fc-0x3fd (1)
     |                                               |                |                    m{}: 0x3fd-0x3ff (2)
0x3f0|                                       04      |             .  |                      a: 4 (valid) 0x3fd-0x3fe (1)
0x3f0|                                          01   |              . |                      o: 1 (valid) 0x3fe-0x3ff (1)
     |                                               |                |                  [9]{}: in 0x3ff-0x401 (2)
0x3f0|                                             20|                |                    opcode: "local.get" (0x20) 0x3ff-0x400 (1)
0x400|02                                             |.               |                    x: 2 (valid) 0x400-0x401 (1)
     |                                               |                |                  [10]{}: in 0x401-0x402 (1)
0x400|   0b                                          | .              |                    opcode: "end" (0xb) 0x401-0x402 (1)
     |                                               |                |            [12]{}: code 0x402-0x421 (31)
0x400|      1e                                       |  .             |              size: 30 (valid) 0x402-0x403 (1)
     |                                               |                |              code{}: 0x403-0x421 (30)
     |                                               |                |                t{}: 0x403-0x406 (3)
0x400|         01                                    |   .            |                  n: 1 (valid) 0x403-0x404 (1)
     |                                               |                |                  x[0:1]: 0x404-0x406 (2)
     |                                               |                |                    [0]{}: t 0x404-0x406 (2)
0x400|            01                                 |    .           |                      n: 1 (valid) 0x404-0x405 (1)
0x400|               7e                              |     ~          |                      t: "i64" (0x7e) 0x405-0x406 (1)
     |                                               |                |                e[0:11]: 0x406-0x421 (27)
     |                                               |                |                  [0]{}: in 0x406-0x408 (2)
0x400|                  20                           |                |                    opcode: "local.get" (0x20) 0x406-0x407 (1)
0x400|                     00                        |       .        |                    x: 0 (valid) 0x407-0x408 (1)
     |                                               |                |                  [1]{}: in 0x408-0x40a (2)
0x400|                        20                     |                |                    opcode: "local.get" (0x20) 0x408-0x409 (1)
0x400|                           01                  |         .      |                    x: 1 (valid) 0x409-0x40a (1)
     |                                               |                |                  [2]{}: in 0x40a-0x40f (5)
0x400|                              fd               |          .     |                    opcode: "vector" (0xfd) 0x40a-0x40b (1)
0x400|                                 5a            |           Z    |                    v_opcode: "v128.store32_lane" (90) 0x40b-0x40c (1)
     |                                               |                |                    m{}: 0x40c-0x40e (2)
0x400|                                    01         |            .   |                      a: 1 (valid) 0x40c-0x40d (1)
0x400|                                       00      |             .  |                      o: 0 (valid) 0x40d-0x40e (1)
0x400|                                          01   |              . |                    l: 1 0x40e-0x40f (1)
     |                                               |                |                  [3]{}: in 0x40f-0x411 (2)
0x400|                                             20|                |                    opcode: "local.get" (0x20) 0x40f-0x410 (1)
0x410|00                                             |.               |                    x: 0 (valid) 0x410-0x411 (1)
     |                                               |                |                  [4]{}: in 0x411-0x414 (3)
0x410|   29                                          | )              |                    opcode: "i64.load" (0x29) 0x411-0x412 (1)
     |                                               |                |                    m{}: 0x412-0x414 (2)
0x410|      03                                       |  .             |                      a: 3 (valid) 0x412-0x413 (1)
0x410|         00                                    |   .            |                      o: 0 (valid) 0x413-0x414 (1)
     |                                               |                |                  [5]{}: in 0x414-0x416 (2)
0x410|            21                                 |    !           |                    opcode: "local.set" (0x21) 0x414-0x415 (1)
0x410|               02                              |     .          |                    x: 2 (valid) 0x415-0x416 (1)
     |                                               |                |                  [6]{}: in 0x416-0x418 (2)
0x410|                  41                           |      A         |                    opcode: "i32.const" (0x41) 0x416-0x417 (1)
0x410|                     00                        |       .        |                    n: 0 (valid) 0x417-0x418 (1)
     |                                               |                |                  [7]{}: in 0x418-0x41a (2)
0x410|                        23                     |        #       |                    opcode: "global.get" (0x23) 0x418-0x419 (1)
0x410|                           00                  |         .      |                    x: 0 (valid) 0x419-0x41a (1)
     |                                               |                |                  [8]{}: in 0x41a-0x41e (4)
0x410|                              fd               |          .     |                    opcode: "vector" (0xfd) 0x41a-0x41b (1)
0x410|                                 0b            |           .    |                    v_opcode: "v128.store" (11) 0x41b-0x41c (1)
     |                                               |                |                    m{}: 0x41c-0x41e (2)
0x410|                                    04         |            .   |                      a: 4 (valid) 0x41c-0x41d (1)
0x410|                                       01      |             .  |                      o: 1 (valid) 0x41d-0x41e (1)
     |                                               |                |                  [9]{}: in 0x41e-0x420 (2)
0x410|                                          20   |                |                    opcode: "local.get" (0x20) 0x41e-0x41f (1)
0x410|                                             02|               .|                    x: 2 (valid) 0x41f-0x420 (1)
     |                                               |                |                  [10]{}: in 0x420-0x421 (1)
0x420|0b                                             |.               |                    opcode: "end" (0xb) 0x420-0x421 (1)
     |                                               |                |            [13]{}: code 0x421-0x440 (31)
0x420|   1e                                          | .              |              size: 30 (valid) 0x421-0x422 (1)
     |                                               |                |              code{}: 0x422-0x440 (30)
     |                                               |                |                t{}: 0x422-0x425 (3)
0x420|      01                                       |  .             |                  n: 1 (valid) 0x422-0x423 (1)
     |                                               |                |                  x[0:1]: 0x423-0x425 (2)
     |                                               |                |                    [0]{}: t 0x423-0x425 (2)
0x420|         01                                    |   .            |                      n: 1 (valid) 0x423-0x424 (1)
0x420|            7e                                 |    ~           |                      t: "i64" (0x7e) 0x424-0x425 (1)
     |                                               |                |                e[0:11]: 0x425-0x440 (27)
     |                                               |                |                  [0]{}: in 0x425-0x427 (2)
0x420|               20                              |                |                    opcode: "local.get" (0x20) 0x425-0x426 (1)
0x420|                  00                           |      .         |                    x: 0 (valid) 0x426-0x427 (1)
     |                                               |                |                  [1]{}: in 0x427-0x429 (2)
0x420|                     20                        |                |                    opcode: "local.get" (0x20) 0x427-0x428 (1)
0x420|                        01                     |        .       |                    x: 1 (valid) 0x428-0x429 (1)
     |                                               |                |                  [2]{}: in 0x429-0x42e (5)
0x420|                           fd                  |         .      |                    opcode: "vector" (0xfd) 0x429-0x42a (1)
0x420|                              5a               |          Z     |                    v_opcode: "v128.store32_lane" (90) 0x42a-0x42b (1)
     |                                               |                |                    m{}: 0x42b-0x42d (2)
0x420|                                 02            |           .    |                      a: 2 (valid) 0x42b-0x42c (1)
0x420|                                    00         |            .   |                      o: 0 (valid) 0x42c-0x42d (1)
0x420|                                       01      |             .  |                    l: 1 0x42d-0x42e (1)
     |                                               |                |                  [3]{}: in 0x42e-0x430 (2)
0x420|                                          20   |                |                    opcode: "local.get" (0x20) 0x42e-0x42f (1)
0x420|                                             00|               .|                    x: 0 (valid) 0x42f-0x430 (1)
     |                                               |                |                  [4]{}: in 0x430-0x433 (3)
0x430|29                                             |)               |                    opcode: "i64.load" (0x29) 0x430-0x431 (1)
     |                                               |                |                    m{}: 0x431-0x433 (2)
0x430|   03                                          | .              |                      a: 3 (valid) 0x431-0x432 (1)
0x430|      00                                       |  .             |                      o: 0 (valid) 0x432-0x433 (1)
     |                                               |                |                  [5]{}: in 0x433-0x435 (2)
0x430|         21                                    |   !            |                    opcode: "local.set" (0x21) 0x433-0x434 (1)
0x430|            02                                 |    .           |                    x: 2 (valid) 0x434-0x435 (1)
     |                                               |                |                  [6]{}: in 0x435-0x437 (2)
0x430|               41                              |     A          |                    opcode: "i32.const" (0x41) 0x435-0x436 (1)
0x430|                  00                           |      .         |                    n: 0 (valid) 0x436-0x437 (1)
     |                                               |                |                  [7]{}: in 0x437-0x439 (2)
0x430|                     23                        |       #        |                    opcode: "global.get" (0x23) 0x437-0x438 (1)
0x430|                        00                     |        .       |                    x: 0 (valid) 0x438-0x439 (1)
     |                                               |                |                  [8]{}: in 0x439-0x43d (4)
0x430|                           fd                  |         .      |                    opcode: "vector" (0xfd) 0x439-0x43a (1)
0x430|                              0b               |          .     |                    v_opcode: "v128.store" (11) 0x43a-0x43b (1)
     |                                               |                |                    m{}: 0x43b-0x43d (2)
0x430|                                 04            |           .    |                      a: 4 (valid) 0x43b-0x43c (1)
0x430|                                    01         |            .   |                      o: 1 (valid) 0x43c-0x43d (1)
     |                                               |                |                  [9]{}: in 0x43d-0x43f (2)
0x430|                                       20      |                |                    opcode: "local.get" (0x20) 0x43d-0x43e (1)
0x430|                                          02   |              . |                    x: 2 (valid) 0x43e-0x43f (1)
     |                                               |                |                  [10]{}: in 0x43f-0x440 (1)
0x430|                                             0b|               .|                    opcode: "end" (0xb) 0x43f-0x440 (1)
     |                                               |                |            [14]{}: code 0x440-0x45f (31)
0x440|1e                                             |.               |              size: 30 (valid) 0x440-0x441 (1)
     |                                               |                |              code{}: 0x441-0x45f (30)
     |                                               |                |                t{}: 0x441-0x444 (3)
0x440|   01                                          | .              |                  n: 1 (valid) 0x441-0x442 (1)
     |                                               |                |                  x[0:1]: 0x442-0x444 (2)
     |                                               |                |                    [0]{}: t 0x442-0x444 (2)
0x440|      01                                       |  .             |                      n: 1 (valid) 0x442-0x443 (1)
0x440|         7e                                    |   ~            |                      t: "i64" (0x7e) 0x443-0x444 (1)
     |                                               |                |                e[0:11]: 0x444-0x45f (27)
     |                                               |                |                  [0]{}: in 0x444-0x446 (2)
0x440|            20                                 |                |                    opcode: "local.get" (0x20) 0x444-0x445 (1)
0x440|               00                              |     .          |                    x: 0 (valid) 0x445-0x446 (1)
     |                                               |                |                  [1]{}: in 0x446-0x448 (2)
0x440|                  20                           |                |                    opcode: "local.get" (0x20) 0x446-0x447 (1)
0x440|                     01                        |       .        |                    x: 1 (valid) 0x447-0x448 (1)
     |                                               |                |                  [2]{}: in 0x448-0x44d (5)
0x440|                        fd                     |        .       |                    opcode: "vector" (0xfd) 0x448-0x449 (1)
0x440|                           5a                  |         Z      |                    v_opcode: "v128.store32_lane" (90) 0x449-0x44a (1)
     |                                               |                |                    m{}: 0x44a-0x44c (2)
0x440|                              00               |          .     |                      a: 0 (valid) 0x44a-0x44b (1)
0x440|                                 00            |           .    |                      o: 0 (valid) 0x44b-0x44c (1)
0x440|                                    02         |            .   |                    l: 2 0x44c-0x44d (1)
     |                                               |                |                  [3]{}: in 0x44d-0x44f (2)
0x440|                                       20      |                |                    opcode: "local.get" (0x20) 0x44d-0x44e (1)
0x440|                                          00   |              . |                    x: 0 (valid) 0x44e-0x44f (1)
     |                                               |                |                  [4]{}: in 0x44f-0x452 (3)
0x440|                                             29|               )|                    opcode: "i64.load" (0x29) 0x44f-0x450 (1)
     |                                               |                |                    m{}: 0x450-0x452 (2)
0x450|03                                             |.               |                      a: 3 (valid) 0x450-0x451 (1)
0x450|   00                                          | .              |                      o: 0 (valid) 0x451-0x452 (1)
     |                                               |                |                  [5]{}: in 0x452-0x454 (2)
0x450|      21                                       |  !             |                    opcode: "local.set" (0x21) 0x452-0x453 (1)
0x450|         02                                    |   .            |                    x: 2 (valid) 0x453-0x454 (1)
     |                                               |                |                  [6]{}: in 0x454-0x456 (2)
0x450|            41                                 |    A           |                    opcode: "i32.const" (0x41) 0x454-0x455 (1)
0x450|               00                              |     .          |                    n: 0 (valid) 0x455-0x456 (1)
     |                                               |                |                  [7]{}: in 0x456-0x458 (2)
0x450|                  23                           |      #         |                    opcode: "global.get" (0x23) 0x456-0x457 (1)
0x450|                     00                        |       .        |                    x: 0 (valid) 0x457-0x458 (1)
     |                                               |                |                  [8]{}: in 0x458-0x45c (4)
0x450|                        fd                     |        .       |                    opcode: "vector" (0xfd) 0x458-0x459 (1)
0x450|                           0b                  |         .      |                    v_opcode: "v128.store" (11) 0x459-0x45a (1)
     |                                               |                |                    m{}: 0x45a-0x45c (2)
0x450|                              04               |          .     |                      a: 4 (valid) 0x45a-0x45b (1)
0x450|                                 02            |           .    |                      o: 2 (valid) 0x45b-0x45c (1)
     |                                               |                |                  [9]{}: in 0x45c-0x45e (2)
0x450|                                    20         |                |                    opcode: "local.get" (0x20) 0x45c-0x45d (1)
0x450|                                       02      |             .  |                    x: 2 (valid) 0x45d-0x45e (1)
     |                                               |                |                  [10]{}: in 0x45e-0x45f (1)
0x450|                                          0b   |              . |                    opcode: "end" (0xb) 0x45e-0x45f (1)
     |                                               |                |            [15]{}: code 0x45f-0x47e (31)
0x450|                                             1e|               .|              size: 30 (valid) 0x45f-0x460 (1)
     |                                               |                |              code{}: 0x460-0x47e (30)
     |                                               |                |                t{}: 0x460-0x463 (3)
0x460|01                                             |.               |                  n: 1 (valid) 0x460-0x461 (1)
     |                                               |                |                  x[0:1]: 0x461-0x463 (2)
     |                                               |                |                    [0]{}: t 0x461-0x463 (2)
0x460|   01                                          | .              |                      n: 1 (valid) 0x461-0x462 (1)
0x460|      7e                                       |  ~             |                      t: "i64" (0x7e) 0x462-0x463 (1)
     |                                               |                |                e[0:11]: 0x463-0x47e (27)
     |                                               |                |                  [0]{}: in 0x463-0x465 (2)
0x460|         20                                    |                |                    opcode: "local.get" (0x20) 0x463-0x464 (1)
0x460|            00                                 |    .           |                    x: 0 (valid) 0x464-0x465 (1)
     |                                               |                |                  [1]{}: in 0x465-0x467 (2)
0x460|               20                              |                |                    opcode: "local.get" (0x20) 0x465-0x466 (1)
0x460|                  01                           |      .         |                    x: 1 (valid) 0x466-0x467 (1)
     |                                               |                |                  [2]{}: in 0x467-0x46c (5)
0x460|                     fd                        |       .        |                    opcode: "vector" (0xfd) 0x467-0x468 (1)
0x460|                        5a                     |        Z       |                    v_opcode: "v128.store32_lane" (90) 0x468-0x469 (1)
     |                                               |                |                    m{}: 0x469-0x46b (2)
0x460|                           01                  |         .      |                      a: 1 (valid) 0x469-0x46a (1)
0x460|                              00               |          .     |                      o: 0 (valid) 0x46a-0x46b (1)
0x460|                                 02            |           .    |                    l: 2 0x46b-0x46c (1)
     |                                               |                |                  [3]{}: in 0x46c-0x46e (2)
0x460|                                    20         |                |                    opcode: "local.get" (0x20) 0x46c-0x46d (1)
0x460|                                       00      |             .  |                    x: 0 (valid) 0x46d-0x46e (1)
     |                                               |                |                  [4]{}: in 0x46e-0x471 (3)
0x460|                                          29   |              ) |                    opcode: "i64.load" (0x29) 0x46e-0x46f (1)
     |                                               |                |                    m{}: 0x46f-0x471 (2)
0x460|                                             03|               .|                      a: 3 (valid) 0x46f-0x470 (1)
0x470|00                                             |.               |                      o: 0 (valid) 0x470-0x471 (1)
     |                                               |                |                  [5]{}: in 0x471-0x473 (2)
0x470|   21                                          | !              |                    opcode: "local.set" (0x21) 0x471-0x472 (1)
0x470|      02                                       |  .             |                    x: 2 (valid) 0x472-0x473 (1)
     |                                               |                |                  [6]{}: in 0x473-0x475 (2)
0x470|         41                                    |   A            |                    opcode: "i32.const" (0x41) 0x473-0x474 (1)
0x470|            00                                 |    .           |                    n: 0 (valid) 0x474-0x475 (1)
     |                                               |                |                  [7]{}: in 0x475-0x477 (2)
0x470|               23                              |     #          |                    opcode: "global.get" (0x23) 0x475-0x476 (1)
0x470|                  00                           |      .         |                    x: 0 (valid) 0x476-0x477 (1)
     |                                               |                |                  [8]{}: in 0x477-0x47b (4)
0x470|                     fd                        |       .        |                    opcode: "vector" (0xfd) 0x477-0x478 (1)
0x470|                        0b                     |        .       |                    v_opcode: "v128.store" (11) 0x478-0x479 (1)
     |                                               |                |                    m{}: 0x479-0x47b (2)
0x470|                           04                  |         .      |                      a: 4 (valid) 0x479-0x47a (1)
0x470|                              02               |          .     |                      o: 2 (valid) 0x47a-0x47b (1)
     |                                               |                |                  [9]{}: in 0x47b-0x47d (2)
0x470|                                 20            |                |                    opcode: "local.get" (0x20) 0x47b-0x47c (1)
0x470|                                    02         |            .   |                    x: 2 (valid) 0x47c-0x47d (1)
     |                                               |                |                  [10]{}: in 0x47d-0x47e (1)
0x470|                                       0b      |             .  |                    opcode: "end" (0xb) 0x47d-0x47e (1)
     |                                               |                |            [16]{}: code 0x47e-0x49d (31)
0x470|                                          1e   |              . |              size: 30 (valid) 0x47e-0x47f (1)
     |                                               |                |              code{}: 0x47f-0x49d (30)
     |                                               |                |                t{}: 0x47f-0x482 (3)
0x470|                                             01|               .|                  n: 1 (valid) 0x47f-0x480 (1)
     |                                               |                |                  x[0:1]: 0x480-0x482 (2)
     |                                               |                |                    [0]{}: t 0x480-0x482 (2)
0x480|01                                             |.               |                      n: 1 (valid) 0x480-0x481 (1)
0x480|   7e                                          | ~              |                      t: "i64" (0x7e) 0x481-0x482 (1)
     |                                               |                |                e[0:11]: 0x482-0x49d (27)
     |                                               |                |                  [0]{}: in 0x482-0x484 (2)
0x480|      20                                       |                |                    opcode: "local.get" (0x20) 0x482-0x483 (1)
0x480|         00                                    |   .            |                    x: 0 (valid) 0x483-0x484 (1)
     |                                               |                |                  [1]{}: in 0x484-0x486 (2)
0x480|            20                                 |                |                    opcode: "local.get" (0x20) 0x484-0x485 (1)
0x480|               01                              |     .          |                    x: 1 (valid) 0x485-0x486 (1)
     |                                               |                |                  [2]{}: in 0x486-0x48b (5)
0x480|                  fd                           |      .         |                    opcode: "vector" (0xfd) 0x486-0x487 (1)
0x480|                     5a                        |       Z        |                    v_opcode: "v128.store32_lane" (90) 0x487-0x488 (1)
     |                                               |                |                    m{}: 0x488-0x48a (2)
0x480|                        02                     |        .       |                      a: 2 (valid) 0x488-0x489 (1)
0x480|                           00                  |         .      |                      o: 0 (valid) 0x489-0x48a (1)
0x480|                              02               |          .     |                    l: 2 0x48a-0x48b (1)
     |                                               |                |                  [3]{}: in 0x48b-0x48d (2)
0x480|                                 20            |                |                    opcode: "local.get" (0x20) 0x48b-0x48c (1)
0x480|                                    00         |            .   |                    x: 0 (valid) 0x48c-0x48d (1)
     |                                               |                |                  [4]{}: in 0x48d-0x490 (3)
0x480|                                       29      |             )  |                    opcode: "i64.load" (0x29) 0x48d-0x48e (1)
     |                                               |                |                    m{}: 0x48e-0x490 (2)
0x480|                                          03   |              . |                      a: 3 (valid) 0x48e-0x48f (1)
0x480|                                             00|               .|                      o: 0 (valid) 0x48f-0x490 (1)
     |                                               |                |                  [5]{}: in 0x490-0x492 (2)
0x490|21                                             |!               |                    opcode: "local.set" (0x21) 0x490-0x491 (1)
0x490|   02                                          | .              |                    x: 2 (valid) 0x491-0x492 (1)
     |                                               |                |                  [6]{}: in 0x492-0x494 (2)
0x490|      41                                       |  A             |                    opcode: "i32.const" (0x41) 0x492-0x493 (1)
0x490|         00                                    |   .            |                    n: 0 (valid) 0x493-0x494 (1)
     |                                               |                |                  [7]{}: in 0x494-0x496 (2)
0x490|            23                                 |    #           |                    opcode: "global.get" (0x23) 0x494-0x495 (1)
0x490|               00                              |     .          |                    x: 0 (valid) 0x495-0x496 (1)
     |                                               |                |                  [8]{}: in 0x496-0x49a (4)
0x490|                  fd                           |      .         |                    opcode: "vector" (0xfd) 0x496-0x497 (1)
0x490|                     0b                        |       .        |                    v_opcode: "v128.store" (11) 0x497-0x498 (1)
     |                                               |                |                    m{}: 0x498-0x49a (2)
0x490|                        04                     |        .       |                      a: 4 (valid) 0x498-0x499 (1)
0x490|                           02                  |         .      |                      o: 2 (valid) 0x499-0x49a (1)
     |                                               |                |                  [9]{}: in 0x49a-0x49c (2)
0x490|                              20               |                |                    opcode: "local.get" (0x20) 0x49a-0x49b (1)
0x490|                                 02            |           .    |                    x: 2 (valid) 0x49b-0x49c (1)
     |                                               |                |                  [10]{}: in 0x49c-0x49d (1)
0x490|                                    0b         |            .   |                    opcode: "end" (0xb) 0x49c-0x49d (1)
     |                                               |                |            [17]{}: code 0x49d-0x4bc (31)
0x490|                                       1e      |             .  |              size: 30 (valid) 0x49d-0x49e (1)
     |                                               |                |              code{}: 0x49e-0x4bc (30)
     |                                               |                |                t{}: 0x49e-0x4a1 (3)
0x490|                                          01   |              . |                  n: 1 (valid) 0x49e-0x49f (1)
     |                                               |                |                  x[0:1]: 0x49f-0x4a1 (2)
     |                                               |                |                    [0]{}: t 0x49f-0x4a1 (2)
0x490|                                             01|               .|                      n: 1 (valid) 0x49f-0x4a0 (1)
0x4a0|7e                                             |~               |                      t: "i64" (0x7e) 0x4a0-0x4a1 (1)
     |                                               |                |                e[0:11]: 0x4a1-0x4bc (27)
     |                                               |                |                  [0]{}: in 0x4a1-0x4a3 (2)
0x4a0|   20                                          |                |                    opcode: "local.get" (0x20) 0x4a1-0x4a2 (1)
0x4a0|      00                                       |  .             |                    x: 0 (valid) 0x4a2-0x4a3 (1)
     |                                               |                |                  [1]{}: in 0x4a3-0x4a5 (2)
0x4a0|         20                                    |                |                    opcode: "local.get" (0x20) 0x4a3-0x4a4 (1)
0x4a0|            01                                 |    .           |                    x: 1 (valid) 0x4a4-0x4a5 (1)
     |                                               |                |                  [2]{}: in 0x4a5-0x4aa (5)
0x4a0|               fd                              |     .          |                    opcode: "vector" (0xfd) 0x4a5-0x4a6 (1)
0x4a0|                  5a                           |      Z         |                    v_opcode: "v128.store32_lane" (90) 0x4a6-0x4a7 (1)
     |                                               |                |                    m{}: 0x4a7-0x4a9 (2)
0x4a0|                     00                        |       .        |                      a: 0 (valid) 0x4a7-0x4a8 (1)
0x4a0|                        00                     |        .       |                      o: 0 (valid) 0x4a8-0x4a9 (1)
0x4a0|                           03                  |         .      |                    l: 3 0x4a9-0x4aa (1)
     |                                               |                |                  [3]{}: in 0x4aa-0x4ac (2)
0x4a0|                              20               |                |                    opcode: "local.get" (0x20) 0x4aa-0x4ab (1)
0x4a0|                                 00            |           .    |                    x: 0 (valid) 0x4ab-0x4ac (1)
     |                                               |                |                  [4]{}: in 0x4ac-0x4af (3)
0x4a0|                                    29         |            )   |                    opcode: "i64.load" (0x29) 0x4ac-0x4ad (1)
     |                                               |                |                    m{}: 0x4ad-0x4af (2)
0x4a0|                                       03      |             .  |                      a: 3 (valid) 0x4ad-0x4ae (1)
0x4a0|                                          00   |              . |                      o: 0 (valid) 0x4ae-0x4af (1)
     |                                               |                |                  [5]{}: in 0x4af-0x4b1 (2)
0x4a0|                                             21|               !|                    opcode: "local.set" (0x21) 0x4af-0x4b0 (1)
0x4b0|02                                             |.               |                    x: 2 (valid) 0x4b0-0x4b1 (1)
     |                                               |                |                  [6]{}: in 0x4b1-0x4b3 (2)
0x4b0|   41                                          | A              |                    opcode: "i32.const" (0x41) 0x4b1-0x4b2 (1)
0x4b0|      00                                       |  .             |                    n: 0 (valid) 0x4b2-0x4b3 (1)
     |                                               |                |                  [7]{}: in 0x4b3-0x4b5 (2)
0x4b0|         23                                    |   #            |                    opcode: "global.get" (0x23) 0x4b3-0x4b4 (1)
0x4b0|            00                                 |    .           |                    x: 0 (valid) 0x4b4-0x4b5 (1)
     |                                               |                |                  [8]{}: in 0x4b5-0x4b9 (4)
0x4b0|               fd                              |     .          |                    opcode: "vector" (0xfd) 0x4b5-0x4b6 (1)
0x4b0|                  0b                           |      .         |                    v_opcode: "v128.store" (11) 0x4b6-0x4b7 (1)
     |                                               |                |                    m{}: 0x4b7-0x4b9 (2)
0x4b0|                     04                        |       .        |                      a: 4 (valid) 0x4b7-0x4b8 (1)
0x4b0|                        03                     |        .       |                      o: 3 (valid) 0x4b8-0x4b9 (1)
     |                                               |                |                  [9]{}: in 0x4b9-0x4bb (2)
0x4b0|                           20                  |                |                    opcode: "local.get" (0x20) 0x4b9-0x4ba (1)
0x4b0|                              02               |          .     |                    x: 2 (valid) 0x4ba-0x4bb (1)
     |                                               |                |                  [10]{}: in 0x4bb-0x4bc (1)
0x4b0|                                 0b            |           .    |                    opcode: "end" (0xb) 0x4bb-0x4bc (1)
     |                                               |                |            [18]{}: code 0x4bc-0x4db (31)
0x4b0|                                    1e         |            .   |              size: 30 (valid) 0x4bc-0x4bd (1)
     |                                               |                |              code{}: 0x4bd-0x4db (30)
     |                                               |                |                t{}: 0x4bd-0x4c0 (3)
0x4b0|                                       01      |             .  |                  n: 1 (valid) 0x4bd-0x4be (1)
     |                                               |                |                  x[0:1]: 0x4be-0x4c0 (2)
     |                                               |                |                    [0]{}: t 0x4be-0x4c0 (2)
0x4b0|                                          01   |              . |                      n: 1 (valid) 0x4be-0x4bf (1)
0x4b0|                                             7e|               ~|                      t: "i64" (0x7e) 0x4bf-0x4c0 (1)
     |                                               |                |                e[0:11]: 0x4c0-0x4db (27)
     |                                               |                |                  [0]{}: in 0x4c0-0x4c2 (2)
0x4c0|20                                             |                |                    opcode: "local.get" (0x20) 0x4c0-0x4c1 (1)
0x4c0|   00                                          | .              |                    x: 0 (valid) 0x4c1-0x4c2 (1)
     |                                               |                |                  [1]{}: in 0x4c2-0x4c4 (2)
0x4c0|      20                                       |                |                    opcode: "local.get" (0x20) 0x4c2-0x4c3 (1)
0x4c0|         01                                    |   .            |                    x: 1 (valid) 0x4c3-0x4c4 (1)
     |                                               |                |                  [2]{}: in 0x4c4-0x4c9 (5)
0x4c0|            fd                                 |    .           |                    opcode: "vector" (0xfd) 0x4c4-0x4c5 (1)
0x4c0|               5a                              |     Z          |                    v_opcode: "v128.store32_lane" (90) 0x4c5-0x4c6 (1)
     |                                               |                |                    m{}: 0x4c6-0x4c8 (2)
0x4c0|                  01                           |      .         |                      a: 1 (valid) 0x4c6-0x4c7 (1)
0x4c0|                     00                        |       .        |                      o: 0 (valid) 0x4c7-0x4c8 (1)
0x4c0|                        03                     |        .       |                    l: 3 0x4c8-0x4c9 (1)
     |                                               |                |                  [3]{}: in 0x4c9-0x4cb (2)
0x4c0|                           20                  |                |                    opcode: "local.get" (0x20) 0x4c9-0x4ca (1)
0x4c0|                              00               |          .     |                    x: 0 (valid) 0x4ca-0x4cb (1)
     |                                               |                |                  [4]{}: in 0x4cb-0x4ce (3)
0x4c0|                                 29            |           )    |                    opcode: "i64.load" (0x29) 0x4cb-0x4cc (1)
     |                                               |                |                    m{}: 0x4cc-0x4ce (2)
0x4c0|                                    03         |            .   |                      a: 3 (valid) 0x4cc-0x4cd (1)
0x4c0|                                       00      |             .  |                      o: 0 (valid) 0x4cd-0x4ce (1)
     |                                               |                |                  [5]{}: in 0x4ce-0x4d0 (2)
0x4c0|                                          21   |              ! |                    opcode: "local.set" (0x21) 0x4ce-0x4cf (1)
0x4c0|                                             02|               .|                    x: 2 (valid) 0x4cf-0x4d0 (1)
     |                                               |                |                  [6]{}: in 0x4d0-0x4d2 (2)
0x4d0|41                                             |A               |                    opcode: "i32.const" (0x41) 0x4d0-0x4d1 (1)
0x4d0|   00                                          | .              |                    n: 0 (valid) 0x4d1-0x4d2 (1)
     |                                               |                |                  [7]{}: in 0x4d2-0x4d4 (2)
0x4d0|      23                                       |  #             |                    opcode: "global.get" (0x23) 0x4d2-0x4d3 (1)
0x4d0|         00                                    |   .            |                    x: 0 (valid) 0x4d3-0x4d4 (1)
     |                                               |                |                  [8]{}: in 0x4d4-0x4d8 (4)
0x4d0|            fd                                 |    .           |                    opcode: "vector" (0xfd) 0x4d4-0x4d5 (1)
0x4d0|               0b                              |     .          |                    v_opcode: "v128.store" (11) 0x4d5-0x4d6 (1)
     |                                               |                |                    m{}: 0x4d6-0x4d8 (2)
0x4d0|                  04                           |      .         |                      a: 4 (valid) 0x4d6-0x4d7 (1)
0x4d0|                     03                        |       .        |                      o: 3 (valid) 0x4d7-0x4d8 (1)
     |                                               |                |                  [9]{}: in 0x4d8-0x4da (2)
0x4d0|                        20                     |                |                    opcode: "local.get" (0x20) 0x4d8-0x4d9 (1)
0x4d0|                           02                  |         .      |                    x: 2 (valid) 0x4d9-0x4da (1)
     |                                               |                |                  [10]{}: in 0x4da-0x4db (1)
0x4d0|                              0b               |          .     |                    opcode: "end" (0xb) 0x4da-0x4db (1)
     |                                               |                |            [19]{}: code 0x4db-0x4fa (31)
0x4d0|                                 1e            |           .    |              size: 30 (valid) 0x4db-0x4dc (1)
     |                                               |                |              code{}: 0x4dc-0x4fa (30)
     |                                               |                |                t{}: 0x4dc-0x4df (3)
0x4d0|                                    01         |            .   |                  n: 1 (valid) 0x4dc-0x4dd (1)
     |                                               |                |                  x[0:1]: 0x4dd-0x4df (2)
     |                                               |                |                    [0]{}: t 0x4dd-0x4df (2)
0x4d0|                                       01      |             .  |                      n: 1 (valid) 0x4dd-0x4de (1)
0x4d0|                                          7e   |              ~ |                      t: "i64" (0x7e) 0x4de-0x4df (1)
     |                                               |                |                e[0:11]: 0x4df-0x4fa (27)
     |                                               |                |                  [0]{}: in 0x4df-0x4e1 (2)
0x4d0|                                             20|                |                    opcode: "local.get" (0x20) 0x4df-0x4e0 (1)
0x4e0|00                                             |.               |                    x: 0 (valid) 0x4e0-0x4e1 (1)
     |                                               |                |                  [1]{}: in 0x4e1-0x4e3 (2)
0x4e0|   20                                          |                |                    opcode: "local.get" (0x20) 0x4e1-0x4e2 (1)
0x4e0|      01                                       |  .             |                    x: 1 (valid) 0x4e2-0x4e3 (1)
     |                                               |                |                  [2]{}: in 0x4e3-0x4e8 (5)
0x4e0|         fd                                    |   .            |                    opcode: "vector" (0xfd) 0x4e3-0x4e4 (1)
0x4e0|            5a                                 |    Z           |                    v_opcode: "v128.store32_lane" (90) 0x4e4-0x4e5 (1)
     |                                               |                |                    m{}: 0x4e5-0x4e7 (2)
0x4e0|               02                              |     .          |                      a: 2 (valid) 0x4e5-0x4e6 (1)
0x4e0|                  00                           |      .         |                      o: 0 (valid) 0x4e6-0x4e7 (1)
0x4e0|                     03                        |       .        |                    l: 3 0x4e7-0x4e8 (1)
     |                                               |                |                  [3]{}: in 0x4e8-0x4ea (2)
0x4e0|                        20                     |                |                    opcode: "local.get" (0x20) 0x4e8-0x4e9 (1)
0x4e0|                           00                  |         .      |                    x: 0 (valid) 0x4e9-0x4ea (1)
     |                                               |                |                  [4]{}: in 0x4ea-0x4ed (3)
0x4e0|                              29               |          )     |                    opcode: "i64.load" (0x29) 0x4ea-0x4eb (1)
     |                                               |                |                    m{}: 0x4eb-0x4ed (2)
0x4e0|                                 03            |           .    |                      a: 3 (valid) 0x4eb-0x4ec (1)
0x4e0|                                    00         |            .   |                      o: 0 (valid) 0x4ec-0x4ed (1)
     |                                               |                |                  [5]{}: in 0x4ed-0x4ef (2)
0x4e0|                                       21      |             !  |                    opcode: "local.set" (0x21) 0x4ed-0x4ee (1)
0x4e0|                                          02   |              . |                    x: 2 (valid) 0x4ee-0x4ef (1)
     |                                               |                |                  [6]{}: in 0x4ef-0x4f1 (2)
0x4e0|                                             41|               A|                    opcode: "i32.const" (0x41) 0x4ef-0x4f0 (1)
0x4f0|00                                             |.               |                    n: 0 (valid) 0x4f0-0x4f1 (1)
     |                                               |                |                  [7]{}: in 0x4f1-0x4f3 (2)
0x4f0|   23                                          | #              |                    opcode: "global.get" (0x23) 0x4f1-0x4f2 (1)
0x4f0|      00                                       |  .             |                    x: 0 (valid) 0x4f2-0x4f3 (1)
     |                                               |                |                  [8]{}: in 0x4f3-0x4f7 (4)
0x4f0|         fd                                    |   .            |                    opcode: "vector" (0xfd) 0x4f3-0x4f4 (1)
0x4f0|            0b                                 |    .           |                    v_opcode: "v128.store" (11) 0x4f4-0x4f5 (1)
     |                                               |                |                    m{}: 0x4f5-0x4f7 (2)
0x4f0|               04                              |     .          |                      a: 4 (valid) 0x4f5-0x4f6 (1)
0x4f0|                  03                           |      .         |                      o: 3 (valid) 0x4f6-0x4f7 (1)
     |                                               |                |                  [9]{}: in 0x4f7-0x4f9 (2)
0x4f0|                     20                        |                |                    opcode: "local.get" (0x20) 0x4f7-0x4f8 (1)
0x4f0|                        02                     |        .       |                    x: 2 (valid) 0x4f8-0x4f9 (1)
     |                                               |                |                  [10]{}: in 0x4f9-0x4fa (1)
0x4f0|                           0b|                 |         .|     |                    opcode: "end" (0xb) 0x4f9-0x4fa (1)
