$ fq -d wasm dv simd_load32_lane-0.wasm
     |00 01 02 03 04 05 06 07 08 09 0a 0b 0c 0d 0e 0f|0123456789abcdef|.{}: simd_load32_lane-0.wasm (wasm) 0x0-0x36a (874)
0x000|00 61 73 6d                                    |.asm            |  magic: raw bits (valid) 0x0-0x4 (4)
0x000|            01 00 00 00                        |    ....        |  version: 1 0x4-0x8 (4)
     |                                               |                |  sections[0:6]: 0x8-0x36a (866)
     |                                               |                |    [0]{}: section 0x8-0x16 (14)
0x000|                        01                     |        .       |      id: "type_section" (1) 0x8-0x9 (1)
0x000|                           0c                  |         .      |      size: 12 (valid) 0x9-0xa (1)
     |                                               |                |      content{}: 0xa-0x16 (12)
     |                                               |                |        ft{}: 0xa-0x16 (12)
0x000|                              02               |          .     |          n: 2 (valid) 0xa-0xb (1)
     |                                               |                |          x[0:2]: 0xb-0x16 (11)
     |                                               |                |            [0]{}: ft 0xb-0x11 (6)
0x000|                                 60            |           `    |              tag: 0x60 (valid) 0xb-0xc (1)
     |                                               |                |              rt1{}: 0xc-0xf (3)
0x000|                                    02         |            .   |                n: 2 (valid) 0xc-0xd (1)
     |                                               |                |                x[0:2]: 0xd-0xf (2)
0x000|                                       7f      |             .  |                  [0]: "i32" (0x7f) t 0xd-0xe (1)
0x000|                                          7b   |              { |                  [1]: "v128" (0x7b) t 0xe-0xf (1)
     |                                               |                |              rt2{}: 0xf-0x11 (2)
0x000|                                             01|               .|                n: 1 (valid) 0xf-0x10 (1)
     |                                               |                |                x[0:1]: 0x10-0x11 (1)
0x010|7b                                             |{               |                  [0]: "v128" (0x7b) t 0x10-0x11 (1)
     |                                               |                |            [1]{}: ft 0x11-0x16 (5)
0x010|   60                                          | `              |              tag: 0x60 (valid) 0x11-0x12 (1)
     |                                               |                |              rt1{}: 0x12-0x14 (2)
0x010|      01                                       |  .             |                n: 1 (valid) 0x12-0x13 (1)
     |                                               |                |                x[0:1]: 0x13-0x14 (1)
0x010|         7b                                    |   {            |                  [0]: "v128" (0x7b) t 0x13-0x14 (1)
     |                                               |                |              rt2{}: 0x14-0x16 (2)
0x010|            01                                 |    .           |                n: 1 (valid) 0x14-0x15 (1)
     |                                               |                |                x[0:1]: 0x15-0x16 (1)
0x010|               7b                              |     {          |                  [0]: "v128" (0x7b) t 0x15-0x16 (1)
     |                                               |                |    [1]{}: section 0x16-0x2d (23)
0x010|                  03                           |      .         |      id: "function_section" (3) 0x16-0x17 (1)
0x010|                     15                        |       .        |      size: 21 (valid) 0x17-0x18 (1)
     |                                               |                |      content{}: 0x18-0x2d (21)
     |                                               |                |        x{}: 0x18-0x2d (21)
0x010|                        14                     |        .       |          n: 20 (valid) 0x18-0x19 (1)
     |                                               |                |          x[0:20]: 0x19-0x2d (20)
0x010|                           00                  |         .      |            [0]: 0 x (valid) 0x19-0x1a (1)
0x010|                              00               |          .     |            [1]: 0 x (valid) 0x1a-0x1b (1)
0x010|                                 00            |           .    |            [2]: 0 x (valid) 0x1b-0x1c (1)
0x010|                                    00         |            .   |            [3]: 0 x (valid) 0x1c-0x1d (1)
0x010|                                       01      |             .  |            [4]: 1 x (valid) 0x1d-0x1e (1)
0x010|                                          01   |              . |            [5]: 1 x (valid) 0x1e-0x1f (1)
0x010|                                             01|               .|            [6]: 1 x (valid) 0x1f-0x20 (1)
0x020|01                                             |.               |            [7]: 1 x (valid) 0x20-0x21 (1)
0x020|   00                                          | .              |            [8]: 0 x (valid) 0x21-0x22 (1)
0x020|      00                                       |  .             |            [9]: 0 x (valid) 0x22-0x23 (1)
0x020|         00                                    |   .            |            [10]: 0 x (valid) 0x23-0x24 (1)
0x020|            00                                 |    .           |            [11]: 0 x (valid) 0x24-0x25 (1)
0x020|               00                              |     .          |            [12]: 0 x (valid) 0x25-0x26 (1)
0x020|                  00                           |      .         |            [13]: 0 x (valid) 0x26-0x27 (1)
0x020|                     00                        |       .        |            [14]: 0 x (valid) 0x27-0x28 (1)
0x020|                        00                     |        .       |            [15]: 0 x (valid) 0x28-0x29 (1)
0x020|                           00                  |         .      |            [16]: 0 x (valid) 0x29-0x2a (1)
0x020|                              00               |          .     |            [17]: 0 x (valid) 0x2a-0x2b (1)
0x020|                                 00            |           .    |            [18]: 0 x (valid) 0x2b-0x2c (1)
0x020|                                    00         |            .   |            [19]: 0 x (valid) 0x2c-0x2d (1)
     |                                               |                |    [2]{}: section 0x2d-0x32 (5)
0x020|                                       05      |             .  |      id: "memory_section" (5) 0x2d-0x2e (1)
0x020|                                          03   |              . |      size: 3 (valid) 0x2e-0x2f (1)
     |                                               |                |      content{}: 0x2f-0x32 (3)
     |                                               |                |        mem{}: 0x2f-0x32 (3)
0x020|                                             01|               .|          n: 1 (valid) 0x2f-0x30 (1)
     |                                               |                |          x[0:1]: 0x30-0x32 (2)
     |                                               |                |            [0]{}: mem 0x30-0x32 (2)
     |                                               |                |              lim{}: 0x30-0x32 (2)
0x030|00                                             |.               |                tag: 0x0 0x30-0x31 (1)
0x030|   01                                          | .              |                n: 1 (valid) 0x31-0x32 (1)
     |                                               |                |    [3]{}: section 0x32-0x25e (556)
0x030|      07                                       |  .             |      id: "export_section" (7) 0x32-0x33 (1)
0x030|         a9 04                                 |   ..           |      size: 553 (valid) 0x33-0x35 (2)
     |                                               |                |      content{}: 0x35-0x25e (553)
     |                                               |                |        ex{}: 0x35-0x25e (553)
0x030|               14                              |     .          |          n: 20 (valid) 0x35-0x36 (1)
     |                                               |                |          x[0:20]: 0x36-0x25e (552)
     |                                               |                |            [0]{}: ex 0x36-0x4b (21)
     |                                               |                |              nm{}: 0x36-0x49 (19)
0x030|                  12                           |      .         |                n: 18 (valid) 0x36-0x37 (1)
0x030|                     76 31 32 38 2e 6c 6f 61 64|       v128.load|                b: "v128.load32_lane_0" 0x37-0x49 (18)
0x040|33 32 5f 6c 61 6e 65 5f 30                     |32_lane_0       |
     |                                               |                |              d{}: 0x49-0x4b (2)
0x040|                           00                  |         .      |                tag: "funcidx" (0x0) 0x49-0x4a (1)
0x040|                              00               |          .     |                x: 0 (valid) 0x4a-0x4b (1)
     |                                               |                |            [1]{}: ex 0x4b-0x60 (21)
     |                                               |                |              nm{}: 0x4b-0x5e (19)
0x040|                                 12            |           .    |                n: 18 (valid) 0x4b-0x4c (1)
0x040|                                    76 31 32 38|            v128|                b: "v128.load32_lane_1" 0x4c-0x5e (18)
0x050|2e 6c 6f 61 64 33 32 5f 6c 61 6e 65 5f 31      |.load32_lane_1  |
     |                                               |                |              d{}: 0x5e-0x60 (2)
0x050|                                          00   |              . |                tag: "funcidx" (0x0) 0x5e-0x5f (1)
0x050|                                             01|               .|                x: 1 (valid) 0x5f-0x60 (1)
     |                                               |                |            [2]{}: ex 0x60-0x75 (21)
     |                                               |                |              nm{}: 0x60-0x73 (19)
0x060|12                                             |.               |                n: 18 (valid) 0x60-0x61 (1)
0x060|   76 31 32 38 2e 6c 6f 61 64 33 32 5f 6c 61 6e| v128.load32_lan|                b: "v128.load32_lane_2" 0x61-0x73 (18)
0x070|65 5f 32                                       |e_2             |
     |                                               |                |              d{}: 0x73-0x75 (2)
0x070|         00                                    |   .            |                tag: "funcidx" (0x0) 0x73-0x74 (1)
0x070|            02                                 |    .           |                x: 2 (valid) 0x74-0x75 (1)
     |                                               |                |            [3]{}: ex 0x75-0x8a (21)
     |                                               |                |              nm{}: 0x75-0x88 (19)
0x070|               12                              |     .          |                n: 18 (valid) 0x75-0x76 (1)
0x070|                  76 31 32 38 2e 6c 6f 61 64 33|      v128.load3|                b: "v128.load32_lane_3" 0x76-0x88 (18)
0x080|32 5f 6c 61 6e 65 5f 33                        |2_lane_3        |
     |                                               |                |              d{}: 0x88-0x8a (2)
0x080|                        00                     |        .       |                tag: "funcidx" (0x0) 0x88-0x89 (1)
0x080|                           03                  |         .      |                x: 3 (valid) 0x89-0x8a (1)
     |                                               |                |            [4]{}: ex 0x8a-0xa8 (30)
     |                                               |                |              nm{}: 0x8a-0xa6 (28)
0x080|                              1b               |          .     |                n: 27 (valid) 0x8a-0x8b (1)
0x080|                                 76 31 32 38 2e|           v128.|                b: "v128.load32_lane_0_offset_0" 0x8b-0xa6 (27)
0x090|6c 6f 61 64 33 32 5f 6c 61 6e 65 5f 30 5f 6f 66|load32_lane_0_of|
0x0a0|66 73 65 74 5f 30                              |fset_0          |
     |                                               |                |              d{}: 0xa6-0xa8 (2)
0x0a0|                  00                           |      .         |                tag: "funcidx" (0x0) 0xa6-0xa7 (1)
0x0a0|                     04                        |       .        |                x: 4 (valid) 0xa7-0xa8 (1)
     |                                               |                |            [5]{}: ex 0xa8-0xc6 (30)
     |                                               |                |              nm{}: 0xa8-0xc4 (28)
0x0a0|                        1b                     |        .       |                n: 27 (valid) 0xa8-0xa9 (1)
0x0a0|                           76 31 32 38 2e 6c 6f|         v128.lo|                b: "v128.load32_lane_1_offset_1" 0xa9-0xc4 (27)
0x0b0|61 64 33 32 5f 6c 61 6e 65 5f 31 5f 6f 66 66 73|ad32_lane_1_offs|
0x0c0|65 74 5f 31                                    |et_1            |
     |                                               |                |              d{}: 0xc4-0xc6 (2)
0x0c0|            00                                 |    .           |                tag: "funcidx" (0x0) 0xc4-0xc5 (1)
0x0c0|               05                              |     .          |                x: 5 (valid) 0xc5-0xc6 (1)
     |                                               |                |            [6]{}: ex 0xc6-0xe4 (30)
     |                                               |                |              nm{}: 0xc6-0xe2 (28)
0x0c0|                  1b                           |      .         |                n: 27 (valid) 0xc6-0xc7 (1)
0x0c0|                     76 31 32 38 2e 6c 6f 61 64|       v128.load|                b: "v128.load32_lane_2_offset_2" 0xc7-0xe2 (27)
0x0d0|33 32 5f 6c 61 6e 65 5f 32 5f 6f 66 66 73 65 74|32_lane_2_offset|
0x0e0|5f 32                                          |_2              |
     |                                               |                |              d{}: 0xe2-0xe4 (2)
0x0e0|      00                                       |  .             |                tag: "funcidx" (0x0) 0xe2-0xe3 (1)
0x0e0|         06                                    |   .            |                x: 6 (valid) 0xe3-0xe4 (1)
     |                                               |                |            [7]{}: ex 0xe4-0x102 (30)
     |                                               |                |              nm{}: 0xe4-0x100 (28)
0x0e0|            1b                                 |    .           |                n: 27 (valid) 0xe4-0xe5 (1)
0x0e0|               76 31 32 38 2e 6c 6f 61 64 33 32|     v128.load32|                b: "v128.load32_lane_3_offset_3" 0xe5-0x100 (27)
0x0f0|5f 6c 61 6e 65 5f 33 5f 6f 66 66 73 65 74 5f 33|_lane_3_offset_3|
     |                                               |                |              d{}: 0x100-0x102 (2)
0x100|00                                             |.               |                tag: "funcidx" (0x0) 0x100-0x101 (1)
0x100|   07                                          | .              |                x: 7 (valid) 0x101-0x102 (1)
     |                                               |                |            [8]{}: ex 0x102-0x11f (29)
     |                                               |                |              nm{}: 0x102-0x11d (27)
0x100|      1a                                       |  .             |                n: 26 (valid) 0x102-0x103 (1)
0x100|         76 31 32 38 2e 6c 6f 61 64 33 32 5f 6c|   v128.load32_l|                b: "v128.load32_lane_0_align_1" 0x103-0x11d (26)
0x110|61 6e 65 5f 30 5f 61 6c 69 67 6e 5f 31         |ane_0_align_1   |
     |                                               |                |              d{}: 0x11d-0x11f (2)
0x110|                                       00      |             .  |                tag: "funcidx" (0x0) 0x11d-0x11e (1)
0x110|                                          08   |              . |                x: 8 (valid) 0x11e-0x11f (1)
     |                                               |                |            [9]{}: ex 0x11f-0x13c (29)
     |                                               |                |              nm{}: 0x11f-0x13a (27)
0x110|                                             1a|               .|                n: 26 (valid) 0x11f-0x120 (1)
0x120|76 31 32 38 2e 6c 6f 61 64 33 32 5f 6c 61 6e 65|v128.load32_lane|                b: "v128.load32_lane_0_align_2" 0x120-0x13a (26)
0x130|5f 30 5f 61 6c 69 67 6e 5f 32                  |_0_align_2      |
     |                                               |                |              d{}: 0x13a-0x13c (2)
0x130|                              00               |          .     |                tag: "funcidx" (0x0) 0x13a-0x13b (1)
0x130|                                 09            |           .    |                x: 9 (valid) 0x13b-0x13c (1)
     |                                               |                |            [10]{}: ex 0x13c-0x159 (29)
     |                                               |                |              nm{}: 0x13c-0x157 (27)
0x130|                                    1a         |            .   |                n: 26 (valid) 0x13c-0x13d (1)
0x130|                                       76 31 32|             v12|                b: "v128.load32_lane_0_align_4" 0x13d-0x157 (26)
0x140|38 2e 6c 6f 61 64 33 32 5f 6c 61 6e 65 5f 30 5f|8.load32_lane_0_|
0x150|61 6c 69 67 6e 5f 34                           |align_4         |
     |                                               |                |              d{}: 0x157-0x159 (2)
0x150|                     00                        |       .        |                tag: "funcidx" (0x0) 0x157-0x158 (1)
0x150|                        0a                     |        .       |                x: 10 (valid) 0x158-0x159 (1)
     |                                               |                |            [11]{}: ex 0x159-0x176 (29)
     |                                               |                |              nm{}: 0x159-0x174 (27)
0x150|                           1a                  |         .      |                n: 26 (valid) 0x159-0x15a (1)
0x150|                              76 31 32 38 2e 6c|          v128.l|                b: "v128.load32_lane_1_align_1" 0x15a-0x174 (26)
0x160|6f 61 64 33 32 5f 6c 61 6e 65 5f 31 5f 61 6c 69|oad32_lane_1_ali|
0x170|67 6e 5f 31                                    |gn_1            |
     |                                               |                |              d{}: 0x174-0x176 (2)
0x170|            00                                 |    .           |                tag: "funcidx" (0x0) 0x174-0x175 (1)
0x170|               0b                              |     .          |                x: 11 (valid) 0x175-0x176 (1)
     |                                               |                |            [12]{}: ex 0x176-0x193 (29)
     |                                               |                |              nm{}: 0x176-0x191 (27)
0x170|                  1a                           |      .         |                n: 26 (valid) 0x176-0x177 (1)
0x170|                     76 31 32 38 2e 6c 6f 61 64|       v128.load|                b: "v128.load32_lane_1_align_2" 0x177-0x191 (26)
0x180|33 32 5f 6c 61 6e 65 5f 31 5f 61 6c 69 67 6e 5f|32_lane_1_align_|
0x190|32                                             |2               |
     |                                               |                |              d{}: 0x191-0x193 (2)
0x190|   00                                          | .              |                tag: "funcidx" (0x0) 0x191-0x192 (1)
0x190|      0c                                       |  .             |                x: 12 (valid) 0x192-0x193 (1)
     |                                               |                |            [13]{}: ex 0x193-0x1b0 (29)
     |                                               |                |              nm{}: 0x193-0x1ae (27)
0x190|         1a                                    |   .            |                n: 26 (valid) 0x193-0x194 (1)
0x190|            76 31 32 38 2e 6c 6f 61 64 33 32 5f|    v128.load32_|                b: "v128.load32_lane_1_align_4" 0x194-0x1ae (26)
0x1a0|6c 61 6e 65 5f 31 5f 61 6c 69 67 6e 5f 34      |lane_1_align_4  |
     |                                               |                |              d{}: 0x1ae-0x1b0 (2)
0x1a0|                                          00   |              . |                tag: "funcidx" (0x0) 0x1ae-0x1af (1)
0x1a0|                                             0d|               .|                x: 13 (valid) 0x1af-0x1b0 (1)
     |                                               |                |            [14]{}: ex 0x1b0-0x1cd (29)
     |                                               |                |              nm{}: 0x1b0-0x1cb (27)
0x1b0|1a                                             |.               |                n: 26 (valid) 0x1b0-0x1b1 (1)
0x1b0|   76 31 32 38 2e 6c 6f 61 64 33 32 5f 6c 61 6e| v128.load32_lan|                b: "v128.load32_lane_2_align_1" 0x1b1-0x1cb (26)
0x1c0|65 5f 32 5f 61 6c 69 67 6e 5f 31               |e_2_align_1     |
     |                                               |                |              d{}: 0x1cb-0x1cd (2)
0x1c0|                                 00            |           .    |                tag: "funcidx" (0x0) 0x1cb-0x1cc (1)
0x1c0|                                    0e         |            .   |                x: 14 (valid) 0x1cc-0x1cd (1)
     |                                               |                |            [15]{}: ex 0x1cd-0x1ea (29)
     |                                               |                |              nm{}: 0x1cd-0x1e8 (27)
0x1c0|                                       1a      |             .  |                n: 26 (valid) 0x1cd-0x1ce (1)
0x1c0|                                          76 31|              v1|                b: "v128.load32_lane_2_align_2" 0x1ce-0x1e8 (26)
0x1d0|32 38 2e 6c 6f 61 64 33 32 5f 6c 61 6e 65 5f 32|28.load32_lane_2|
0x1e0|5f 61 6c 69 67 6e 5f 32                        |_align_2        |
     |                                               |                |              d{}: 0x1e8-0x1ea (2)
0x1e0|                        00                     |        .       |                tag: "funcidx" (0x0) 0x1e8-0x1e9 (1)
0x1e0|                           0f                  |         .      |                x: 15 (valid) 0x1e9-0x1ea (1)
     |                                               |                |            [16]{}: ex 0x1ea-0x207 (29)
     |                                               |                |              nm{}: 0x1ea-0x205 (27)
0x1e0|                              1a               |          .     |                n: 26 (valid) 0x1ea-0x1eb (1)
0x1e0|                                 76 31 32 38 2e|           v128.|                b: "v128.load32_lane_2_align_4" 0x1eb-0x205 (26)
0x1f0|6c 6f 61 64 33 32 5f 6c 61 6e 65 5f 32 5f 61 6c|load32_lane_2_al|
0x200|69 67 6e 5f 34                                 |ign_4           |
     |                                               |                |              d{}: 0x205-0x207 (2)
0x200|               00                              |     .          |                tag: "funcidx" (0x0) 0x205-0x206 (1)
0x200|                  10                           |      .         |                x: 16 (valid) 0x206-0x207 (1)
     |                                               |                |            [17]{}: ex 0x207-0x224 (29)
     |                                               |                |              nm{}: 0x207-0x222 (27)
0x200|                     1a                        |       .        |                n: 26 (valid) 0x207-0x208 (1)
0x200|                        76 31 32 38 2e 6c 6f 61|        v128.loa|                b: "v128.load32_lane_3_align_1" 0x208-0x222 (26)
0x210|64 33 32 5f 6c 61 6e 65 5f 33 5f 61 6c 69 67 6e|d32_lane_3_align|
0x220|5f 31                                          |_1              |
     |                                               |                |              d{}: 0x222-0x224 (2)
0x220|      00                                       |  .             |                tag: "funcidx" (0x0) 0x222-0x223 (1)
0x220|         11                                    |   .            |                x: 17 (valid) 0x223-0x224 (1)
     |                                               |                |            [18]{}: ex 0x224-0x241 (29)
     |                                               |                |              nm{}: 0x224-0x23f (27)
0x220|            1a                                 |    .           |                n: 26 (valid) 0x224-0x225 (1)
0x220|               76 31 32 38 2e 6c 6f 61 64 33 32|     v128.load32|                b: "v128.load32_lane_3_align_2" 0x225-0x23f (26)
0x230|5f 6c 61 6e 65 5f 33 5f 61 6c 69 67 6e 5f 32   |_lane_3_align_2 |
     |                                               |                |              d{}: 0x23f-0x241 (2)
0x230|                                             00|               .|                tag: "funcidx" (0x0) 0x23f-0x240 (1)
0x240|12                                             |.               |                x: 18 (valid) 0x240-0x241 (1)
     |                                               |                |            [19]{}: ex 0x241-0x25e (29)
     |                                               |                |              nm{}: 0x241-0x25c (27)
0x240|   1a                                          | .              |                n: 26 (valid) 0x241-0x242 (1)
0x240|      76 31 32 38 2e 6c 6f 61 64 33 32 5f 6c 61|  v128.load32_la|                b: "v128.load32_lane_3_align_4" 0x242-0x25c (26)
0x250|6e 65 5f 33 5f 61 6c 69 67 6e 5f 34            |ne_3_align_4    |
     |                                               |                |              d{}: 0x25c-0x25e (2)
0x250|                                    00         |            .   |                tag: "funcidx" (0x0) 0x25c-0x25d (1)
0x250|                                       13      |             .  |                x: 19 (valid) 0x25d-0x25e (1)
     |                                               |                |    [4]{}: section 0x25e-0x352 (244)
0x250|                                          0a   |              . |      id: "code_section" (10) 0x25e-0x25f (1)
0x250|                                             f1|               .|      size: 241 (valid) 0x25f-0x261 (2)
0x260|01                                             |.               |
     |                                               |                |      content{}: 0x261-0x352 (241)
     |                                               |                |        code{}: 0x261-0x352 (241)
0x260|   14                                          | .              |          n: 20 (valid) 0x261-0x262 (1)
     |                                               |                |          x[0:20]: 0x262-0x352 (240)
     |                                               |                |            [0]{}: code 0x262-0x26e (12)
0x260|      0b                                       |  .             |              size: 11 (valid) 0x262-0x263 (1)
     |                                               |                |              code{}: 0x263-0x26e (11)
     |                                               |                |                t{}: 0x263-0x264 (1)
0x260|         00                                    |   .            |                  n: 0 (valid) 0x263-0x264 (1)
     |                                               |                |                  x[0:0]: 0x264-0x264 (0)
     |                                               |                |                e[0:4]: 0x264-0x26e (10)
     |                                               |                |                  [0]{}: in 0x264-0x266 (2)
0x260|            20                                 |                |                    opcode: "local.get" (0x20) 0x264-0x265 (1)
0x260|               00                              |     .          |                    x: 0 (valid) 0x265-0x266 (1)
     |                                               |                |                  [1]{}: in 0x266-0x268 (2)
0x260|                  20                           |                |                    opcode: "local.get" (0x20) 0x266-0x267 (1)
0x260|                     01                        |       .        |                    x: 1 (valid) 0x267-0x268 (1)
     |                                               |                |                  [2]{}: in 0x268-0x26d (5)
0x260|                        fd                     |        .       |                    opcode: "vector" (0xfd) 0x268-0x269 (1)
0x260|                           56                  |         V      |                    v_opcode: "v128.load32_lane" (86) 0x269-0x26a (1)
     |                                               |                |                    m{}: 0x26a-0x26c (2)
0x260|                              02               |          .     |                      a: 2 (valid) 0x26a-0x26b (1)
0x260|                                 00            |           .    |                      o: 0 (valid) 0x26b-0x26c (1)
0x260|                                    00         |            .   |                    l: 0 0x26c-0x26d (1)
     |                                               |                |                  [3]{}: in 0x26d-0x26e (1)
0x260|                                       0b      |             .  |                    opcode: "end" (0xb) 0x26d-0x26e (1)
     |                                               |                |            [1]{}: code 0x26e-0x27a (12)
0x260|                                          0b   |              . |              size: 11 (valid) 0x26e-0x26f (1)
     |                                               |                |              code{}: 0x26f-0x27a (11)
     |                                               |                |                t{}: 0x26f-0x270 (1)
0x260|                                             00|               .|                  n: 0 (valid) 0x26f-0x270 (1)
     |                                               |                |                  x[0:0]: 0x270-0x270 (0)
     |                                               |                |                e[0:4]: 0x270-0x27a (10)
     |                                               |                |                  [0]{}: in 0x270-0x272 (2)
0x270|20                                             |                |                    opcode: "local.get" (0x20) 0x270-0x271 (1)
0x270|   00                                          | .              |                    x: 0 (valid) 0x271-0x272 (1)
     |                                               |                |                  [1]{}: in 0x272-0x274 (2)
0x270|      20                                       |                |                    opcode: "local.get" (0x20) 0x272-0x273 (1)
0x270|         01                                    |   .            |                    x: 1 (valid) 0x273-0x274 (1)
     |                                               |                |                  [2]{}: in 0x274-0x279 (5)
0x270|            fd                                 |    .           |                    opcode: "vector" (0xfd) 0x274-0x275 (1)
0x270|               56                              |     V          |                    v_opcode: "v128.load32_lane" (86) 0x275-0x276 (1)
     |                                               |                |                    m{}: 0x276-0x278 (2)
0x270|                  02                           |      .         |                      a: 2 (valid) 0x276-0x277 (1)
0x270|                     00                        |       .        |                      o: 0 (valid) 0x277-0x278 (1)
0x270|                        01                     |        .       |                    l: 1 0x278-0x279 (1)
     |                                               |                |                  [3]{}: in 0x279-0x27a (1)
0x270|                           0b                  |         .      |                    opcode: "end" (0xb) 0x279-0x27a (1)
     |                                               |                |            [2]{}: code 0x27a-0x286 (12)
0x270|                              0b               |          .     |              size: 11 (valid) 0x27a-0x27b (1)
     |                                               |                |              code{}: 0x27b-0x286 (11)
     |                                               |                |                t{}: 0x27b-0x27c (1)
0x270|                                 00            |           .    |                  n: 0 (valid) 0x27b-0x27c (1)
     |                                               |                |                  x[0:0]: 0x27c-0x27c (0)
     |                                               |                |                e[0:4]: 0x27c-0x286 (10)
     |                                               |                |                  [0]{}: in 0x27c-0x27e (2)
0x270|                                    20         |                |                    opcode: "local.get" (0x20) 0x27c-0x27d (1)
0x270|                                       00      |             .  |                    x: 0 (valid) 0x27d-0x27e (1)
     |                                               |                |                  [1]{}: in 0x27e-0x280 (2)
0x270|                                          20   |                |                    opcode: "local.get" (0x20) 0x27e-0x27f (1)
0x270|                                             01|               .|                    x: 1 (valid) 0x27f-0x280 (1)
     |                                               |                |                  [2]{}: in 0x280-0x285 (5)
0x280|fd                                             |.               |                    opcode: "vector" (0xfd) 0x280-0x281 (1)
0x280|   56                                          | V              |                    v_opcode: "v128.load32_lane" (86) 0x281-0x282 (1)
     |                                               |                |                    m{}: 0x282-0x284 (2)
0x280|      02                                       |  .             |                      a: 2 (valid) 0x282-0x283 (1)
0x280|         00                                    |   .            |                      o: 0 (valid) 0x283-0x284 (1)
0x280|            02                                 |    .           |                    l: 2 0x284-0x285 (1)
     |                                               |                |                  [3]{}: in 0x285-0x286 (1)
0x280|               0b                              |     .          |                    opcode: "end" (0xb) 0x285-0x286 (1)
     |                                               |                |            [3]{}: code 0x286-0x292 (12)
0x280|                  0b                           |      .         |              size: 11 (valid) 0x286-0x287 (1)
     |                                               |                |              code{}: 0x287-0x292 (11)
     |                                               |                |                t{}: 0x287-0x288 (1)
0x280|                     00                        |       .        |                  n: 0 (valid) 0x287-0x288 (1)
     |                                               |                |                  x[0:0]: 0x288-0x288 (0)
     |                                               |                |                e[0:4]: 0x288-0x292 (10)
     |                                               |                |                  [0]{}: in 0x288-0x28a (2)
0x280|                        20                     |                |                    opcode: "local.get" (0x20) 0x288-0x289 (1)
0x280|                           00                  |         .      |                    x: 0 (valid) 0x289-0x28a (1)
     |                                               |                |                  [1]{}: in 0x28a-0x28c (2)
0x280|                              20               |                |                    opcode: "local.get" (0x20) 0x28a-0x28b (1)
0x280|                                 01            |           .    |                    x: 1 (valid) 0x28b-0x28c (1)
     |                                               |                |                  [2]{}: in 0x28c-0x291 (5)
0x280|                                    fd         |            .   |                    opcode: "vector" (0xfd) 0x28c-0x28d (1)
0x280|                                       56      |             V  |                    v_opcode: "v128.load32_lane" (86) 0x28d-0x28e (1)
     |                                               |                |                    m{}: 0x28e-0x290 (2)
0x280|                                          02   |              . |                      a: 2 (valid) 0x28e-0x28f (1)
0x280|                                             00|               .|                      o: 0 (valid) 0x28f-0x290 (1)
0x290|03                                             |.               |                    l: 3 0x290-0x291 (1)
     |                                               |                |                  [3]{}: in 0x291-0x292 (1)
0x290|   0b                                          | .              |                    opcode: "end" (0xb) 0x291-0x292 (1)
     |                                               |                |            [4]{}: code 0x292-0x29e (12)
0x290|      0b                                       |  .             |              size: 11 (valid) 0x292-0x293 (1)
     |                                               |                |              code{}: 0x293-0x29e (11)
     |                                               |                |                t{}: 0x293-0x294 (1)
0x290|         00                                    |   .            |                  n: 0 (valid) 0x293-0x294 (1)
     |                                               |                |                  x[0:0]: 0x294-0x294 (0)
     |                                               |                |                e[0:4]: 0x294-0x29e (10)
     |                                               |                |                  [0]{}: in 0x294-0x296 (2)
0x290|            41                                 |    A           |                    opcode: "i32.const" (0x41) 0x294-0x295 (1)
0x290|               00                              |     .          |                    n: 0 (valid) 0x295-0x296 (1)
     |                                               |                |                  [1]{}: in 0x296-0x298 (2)
0x290|                  20                           |                |                    opcode: "local.get" (0x20) 0x296-0x297 (1)
0x290|                     00                        |       .        |                    x: 0 (valid) 0x297-0x298 (1)
     |                                               |                |                  [2]{}: in 0x298-0x29d (5)
0x290|                        fd                     |        .       |                    opcode: "vector" (0xfd) 0x298-0x299 (1)
0x290|                           56                  |         V      |                    v_opcode: "v128.load32_lane" (86) 0x299-0x29a (1)
     |                                               |                |                    m{}: 0x29a-0x29c (2)
0x290|                              02               |          .     |                      a: 2 (valid) 0x29a-0x29b (1)
0x290|                                 00            |           .    |                      o: 0 (valid) 0x29b-0x29c (1)
0x290|                                    00         |            .   |                    l: 0 0x29c-0x29d (1)
     |                                               |                |                  [3]{}: in 0x29d-0x29e (1)
0x290|                                       0b      |             .  |                    opcode: "end" (0xb) 0x29d-0x29e (1)
     |                                               |                |            [5]{}: code 0x29e-0x2aa (12)
0x290|                                          0b   |              . |              size: 11 (valid) 0x29e-0x29f (1)
     |                                               |                |              code{}: 0x29f-0x2aa (11)
     |                                               |                |                t{}: 0x29f-0x2a0 (1)
0x290|                                             00|               .|                  n: 0 (valid) 0x29f-0x2a0 (1)
     |                                               |                |                  x[0:0]: 0x2a0-0x2a0 (0)
     |                                               |                |                e[0:4]: 0x2a0-0x2aa (10)
     |                                               |                |                  [0]{}: in 0x2a0-0x2a2 (2)
0x2a0|41                                             |A               |                    opcode: "i32.const" (0x41) 0x2a0-0x2a1 (1)
0x2a0|   00                                          | .              |                    n: 0 (valid) 0x2a1-0x2a2 (1)
     |                                               |                |                  [1]{}: in 0x2a2-0x2a4 (2)
0x2a0|      20                                       |                |                    opcode: "local.get" (0x20) 0x2a2-0x2a3 (1)
0x2a0|         00                                    |   .            |                    x: 0 (valid) 0x2a3-0x2a4 (1)
     |                                               |                |                  [2]{}: in 0x2a4-0x2a9 (5)
0x2a0|            fd                                 |    .           |                    opcode: "vector" (0xfd) 0x2a4-0x2a5 (1)
0x2a0|               56                              |     V          |                    v_opcode: "v128.load32_lane" (86) 0x2a5-0x2a6 (1)
     |                                               |                |                    m{}: 0x2a6-0x2a8 (2)
0x2a0|                  02                           |      .         |                      a: 2 (valid) 0x2a6-0x2a7 (1)
0x2a0|                     01                        |       .        |                      o: 1 (valid) 0x2a7-0x2a8 (1)
0x2a0|                        01                     |        .       |                    l: 1 0x2a8-0x2a9 (1)
     |                                               |                |                  [3]{}: in 0x2a9-0x2aa (1)
0x2a0|                           0b                  |         .      |                    opcode: "end" (0xb) 0x2a9-0x2aa (1)
     |                                               |                |            [6]{}: code 0x2aa-0x2b6 (12)
0x2a0|                              0b               |          .     |              size: 11 (valid) 0x2aa-0x2ab (1)
     |                                               |                |              code{}: 0x2ab-0x2b6 (11)
     |                                               |                |                t{}: 0x2ab-0x2ac (1)
0x2a0|                                 00            |           .    |                  n: 0 (valid) 0x2ab-0x2ac (1)
     |                                               |                |                  x[0:0]: 0x2ac-0x2ac (0)
     |                                               |                |                e[0:4]: 0x2ac-0x2b6 (10)
     |                                               |                |                  [0]{}: in 0x2ac-0x2ae (2)
0x2a0|                                    41         |            A   |                    opcode: "i32.const" (0x41) 0x2ac-0x2ad (1)
0x2a0|                                       00      |             .  |                    n: 0 (valid) 0x2ad-0x2ae (1)
     |                                               |                |                  [1]{}: in 0x2ae-0x2b0 (2)
0x2a0|                                          20   |                |                    opcode: "local.get" (0x20) 0x2ae-0x2af (1)
0x2a0|                                             00|               .|                    x: 0 (valid) 0x2af-0x2b0 (1)
     |                                               |                |                  [2]{}: in 0x2b0-0x2b5 (5)
0x2b0|fd                                             |.               |                    opcode: "vector" (0xfd) 0x2b0-0x2b1 (1)
0x2b0|   56                                          | V              |                    v_opcode: "v128.load32_lane" (86) 0x2b1-0x2b2 (1)
     |                                               |                |                    m{}: 0x2b2-0x2b4 (2)
0x2b0|      02                                       |  .             |                      a: 2 (valid) 0x2b2-0x2b3 (1)
0x2b0|         02                                    |   .            |                      o: 2 (valid) 0x2b3-0x2b4 (1)
0x2b0|            02                                 |    .           |                    l: 2 0x2b4-0x2b5 (1)
     |                                               |                |                  [3]{}: in 0x2b5-0x2b6 (1)
0x2b0|               0b                              |     .          |                    opcode: "end" (0xb) 0x2b5-0x2b6 (1)
     |                                               |                |            [7]{}: code 0x2b6-0x2c2 (12)
0x2b0|                  0b                           |      .         |              size: 11 (valid) 0x2b6-0x2b7 (1)
     |                                               |                |              code{}: 0x2b7-0x2c2 (11)
     |                                               |                |                t{}: 0x2b7-0x2b8 (1)
0x2b0|                     00                        |       .        |                  n: 0 (valid) 0x2b7-0x2b8 (1)
     |                                               |                |                  x[0:0]: 0x2b8-0x2b8 (0)
     |                                               |                |                e[0:4]: 0x2b8-0x2c2 (10)
     |                                               |                |                  [0]{}: in 0x2b8-0x2ba (2)
0x2b0|                        41                     |        A       |                    opcode: "i32.const" (0x41) 0x2b8-0x2b9 (1)
0x2b0|                           00                  |         .      |                    n: 0 (valid) 0x2b9-0x2ba (1)
     |                                               |                |                  [1]{}: in 0x2ba-0x2bc (2)
0x2b0|                              20               |                |                    opcode: "local.get" (0x20) 0x2ba-0x2bb (1)
0x2b0|                                 00            |           .    |                    x: 0 (valid) 0x2bb-0x2bc (1)
     |                                               |                |                  [2]{}: in 0x2bc-0x2c1 (5)
0x2b0|                                    fd         |            .   |                    opcode: "vector" (0xfd) 0x2bc-0x2bd (1)
0x2b0|                                       56      |             V  |                    v_opcode: "v128.load32_lane" (86) 0x2bd-0x2be (1)
     |                                               |                |                    m{}: 0x2be-0x2c0 (2)
0x2b0|                                          02   |              . |                      a: 2 (valid) 0x2be-0x2bf (1)
0x2b0|                                             03|               .|                      o: 3 (valid) 0x2bf-0x2c0 (1)
0x2c0|03                                             |.               |                    l: 3 0x2c0-0x2c1 (1)
     |                                               |                |                  [3]{}: in 0x2c1-0x2c2 (1)
0x2c0|   0b                                          | .              |                    opcode: "end" (0xb) 0x2c1-0x2c2 (1)
     |                                               |                |            [8]{}: code 0x2c2-0x2ce (12)
0x2c0|      0b                                       |  .             |              size: 11 (valid) 0x2c2-0x2c3 (1)
     |                                               |                |              code{}: 0x2c3-0x2ce (11)
     |                                               |                |                t{}: 0x2c3-0x2c4 (1)
0x2c0|         00                                    |   .            |                  n: 0 (valid) 0x2c3-0x2c4 (1)
     |                                               |                |                  x[0:0]: 0x2c4-0x2c4 (0)
     |                                               |                |                e[0:4]: 0x2c4-0x2ce (10)
     |                                               |                |                  [0]{}: in 0x2c4-0x2c6 (2)
0x2c0|            20                                 |                |                    opcode: "local.get" (0x20) 0x2c4-0x2c5 (1)
0x2c0|               00                              |     .          |                    x: 0 (valid) 0x2c5-0x2c6 (1)
     |                                               |                |                  [1]{}: in 0x2c6-0x2c8 (2)
0x2c0|                  20                           |                |                    opcode: "local.get" (0x20) 0x2c6-0x2c7 (1)
0x2c0|                     01                        |       .        |                    x: 1 (valid) 0x2c7-0x2c8 (1)
     |                                               |                |                  [2]{}: in 0x2c8-0x2cd (5)
0x2c0|                        fd                     |        .       |                    opcode: "vector" (0xfd) 0x2c8-0x2c9 (1)
0x2c0|                           56                  |         V      |                    v_opcode: "v128.load32_lane" (86) 0x2c9-0x2ca (1)
     |                                               |                |                    m{}: 0x2ca-0x2cc (2)
0x2c0|                              00               |          .     |                      a: 0 (valid) 0x2ca-0x2cb (1)
0x2c0|                                 00            |           .    |                      o: 0 (valid) 0x2cb-0x2cc (1)
0x2c0|                                    00         |            .   |                    l: 0 0x2cc-0x2cd (1)
     |                                               |                |                  [3]{}: in 0x2cd-0x2ce (1)
0x2c0|                                       0b      |             .  |                    opcode: "end" (0xb) 0x2cd-0x2ce (1)
     |                                               |                |            [9]{}: code 0x2ce-0x2da (12)
0x2c0|                                          0b   |              . |              size: 11 (valid) 0x2ce-0x2cf (1)
     |                                               |                |              code{}: 0x2cf-0x2da (11)
     |                                               |                |                t{}: 0x2cf-0x2d0 (1)
0x2c0|                                             00|               .|                  n: 0 (valid) 0x2cf-0x2d0 (1)
     |                                               |                |                  x[0:0]: 0x2d0-0x2d0 (0)
     |                                               |                |                e[0:4]: 0x2d0-0x2da (10)
     |                                               |                |                  [0]{}: in 0x2d0-0x2d2 (2)
0x2d0|20                                             |                |                    opcode: "local.get" (0x20) 0x2d0-0x2d1 (1)
0x2d0|   00                                          | .              |                    x: 0 (valid) 0x2d1-0x2d2 (1)
     |                                               |                |                  [1]{}: in 0x2d2-0x2d4 (2)
0x2d0|      20                                       |                |                    opcode: "local.get" (0x20) 0x2d2-0x2d3 (1)
0x2d0|         01                                    |   .            |                    x: 1 (valid) 0x2d3-0x2d4 (1)
     |                                               |                |                  [2]{}: in 0x2d4-0x2d9 (5)
0x2d0|            fd                                 |    .           |                    opcode: "vector" (0xfd) 0x2d4-0x2d5 (1)
0x2d0|               56                              |     V          |                    v_opcode: "v128.load32_lane" (86) 0x2d5-0x2d6 (1)
     |                                               |                |                    m{}: 0x2d6-0x2d8 (2)
0x2d0|                  01                           |      .         |                      a: 1 (valid) 0x2d6-0x2d7 (1)
0x2d0|                     00                        |       .        |                      o: 0 (valid) 0x2d7-0x2d8 (1)
0x2d0|                        00                     |        .       |                    l: 0 0x2d8-0x2d9 (1)
     |                                               |                |                  [3]{}: in 0x2d9-0x2da (1)
0x2d0|                           0b                  |         .      |                    opcode: "end" (0xb) 0x2d9-0x2da (1)
     |                                               |                |            [10]{}: code 0x2da-0x2e6 (12)
0x2d0|                              0b               |          .     |              size: 11 (valid) 0x2da-0x2db (1)
     |                                               |                |              code{}: 0x2db-0x2e6 (11)
     |                                               |                |                t{}: 0x2db-0x2dc (1)
0x2d0|                                 00            |           .    |                  n: 0 (valid) 0x2db-0x2dc (1)
     |                                               |                |                  x[0:0]: 0x2dc-0x2dc (0)
     |                                               |                |                e[0:4]: 0x2dc-0x2e6 (10)
     |                                               |                |                  [0]{}: in 0x2dc-0x2de (2)
0x2d0|                                    20         |                |                    opcode: "local.get" (0x20) 0x2dc-0x2dd (1)
0x2d0|                                       00      |             .  |                    x: 0 (valid) 0x2dd-0x2de (1)
     |                                               |                |                  [1]{}: in 0x2de-0x2e0 (2)
0x2d0|                                          20   |                |                    opcode: "local.get" (0x20) 0x2de-0x2df (1)
0x2d0|                                             01|               .|                    x: 1 (valid) 0x2df-0x2e0 (1)
     |                                               |                |                  [2]{}: in 0x2e0-0x2e5 (5)
0x2e0|fd                                             |.               |                    opcode: "vector" (0xfd) 0x2e0-0x2e1 (1)
0x2e0|   56                                          | V              |                    v_opcode: "v128.load32_lane" (86) 0x2e1-0x2e2 (1)
     |                                               |                |                    m{}: 0x2e2-0x2e4 (2)
0x2e0|      02                                       |  .             |                      a: 2 (valid) 0x2e2-0x2e3 (1)
0x2e0|         00                                    |   .            |                      o: 0 (valid) 0x2e3-0x2e4 (1)
0x2e0|            00                                 |    .           |                    l: 0 0x2e4-0x2e5 (1)
     |                                               |                |                  [3]{}: in 0x2e5-0x2e6 (1)
0x2e0|               0b                              |     .          |                    opcode: "end" (0xb) 0x2e5-0x2e6 (1)
     |                                               |                |            [11]{}: code 0x2e6-0x2f2 (12)
0x2e0|                  0b                           |      .         |              size: 11 (valid) 0x2e6-0x2e7 (1)
     |                                               |                |              code{}: 0x2e7-0x2f2 (11)
     |                                               |                |                t{}: 0x2e7-0x2e8 (1)
0x2e0|                     00                        |       .        |                  n: 0 (valid) 0x2e7-0x2e8 (1)
     |                                               |                |                  x[0:0]: 0x2e8-0x2e8 (0)
     |                                               |                |                e[0:4]: 0x2e8-0x2f2 (10)
     |                                               |                |                  [0]{}: in 0x2e8-0x2ea (2)
0x2e0|                        20                     |                |                    opcode: "local.get" (0x20) 0x2e8-0x2e9 (1)
0x2e0|                           00                  |         .      |                    x: 0 (valid) 0x2e9-0x2ea (1)
     |                                               |                |                  [1]{}: in 0x2ea-0x2ec (2)
0x2e0|                              20               |                |                    opcode: "local.get" (0x20) 0x2ea-0x2eb (1)
0x2e0|                                 01            |           .    |                    x: 1 (valid) 0x2eb-0x2ec (1)
     |                                               |                |                  [2]{}: in 0x2ec-0x2f1 (5)
0x2e0|                                    fd         |            .   |                    opcode: "vector" (0xfd) 0x2ec-0x2ed (1)
0x2e0|                                       56      |             V  |                    v_opcode: "v128.load32_lane" (86) 0x2ed-0x2ee (1)
     |                                               |                |                    m{}: 0x2ee-0x2f0 (2)
0x2e0|                                          00   |              . |                      a: 0 (valid) 0x2ee-0x2ef (1)
0x2e0|                                             00|               .|                      o: 0 (valid) 0x2ef-0x2f0 (1)
0x2f0|01                                             |.               |                    l: 1 0x2f0-0x2f1 (1)
     |                                               |                |                  [3]{}: in 0x2f1-0x2f2 (1)
0x2f0|   0b                                          | .              |                    opcode: "end" (0xb) 0x2f1-0x2f2 (1)
     |                                               |                |            [12]{}: code 0x2f2-0x2fe (12)
0x2f0|      0b                                       |  .             |              size: 11 (valid) 0x2f2-0x2f3 (1)
     |                                               |                |              code{}: 0x2f3-0x2fe (11)
     |                                               |                |                t{}: 0x2f3-0x2f4 (1)
0x2f0|         00                                    |   .            |                  n: 0 (valid) 0x2f3-0x2f4 (1)
     |                                               |                |                  x[0:0]: 0x2f4-0x2f4 (0)
     |                                               |                |                e[0:4]: 0x2f4-0x2fe (10)
     |                                               |                |                  [0]{}: in 0x2f4-0x2f6 (2)
0x2f0|            20                                 |                |                    opcode: "local.get" (0x20) 0x2f4-0x2f5 (1)
0x2f0|               00                              |     .          |                    x: 0 (valid) 0x2f5-0x2f6 (1)
     |                                               |                |                  [1]{}: in 0x2f6-0x2f8 (2)
0x2f0|                  20                           |                |                    opcode: "local.get" (0x20) 0x2f6-0x2f7 (1)
0x2f0|                     01                        |       .        |                    x: 1 (valid) 0x2f7-0x2f8 (1)
     |                                               |                |                  [2]{}: in 0x2f8-0x2fd (5)
0x2f0|                        fd                     |        .       |                    opcode: "vector" (0xfd) 0x2f8-0x2f9 (1)
0x2f0|                           56                  |         V      |                    v_opcode: "v128.load32_lane" (86) 0x2f9-0x2fa (1)
     |                                               |                |                    m{}: 0x2fa-0x2fc (2)
0x2f0|                              01               |          .     |                      a: 1 (valid) 0x2fa-0x2fb (1)
0x2f0|                                 00            |           .    |                      o: 0 (valid) 0x2fb-0x2fc (1)
0x2f0|                                    01         |            .   |                    l: 1 0x2fc-0x2fd (1)
     |                                               |                |                  [3]{}: in 0x2fd-0x2fe (1)
0x2f0|                                       0b      |             .  |                    opcode: "end" (0xb) 0x2fd-0x2fe (1)
     |                                               |                |            [13]{}: code 0x2fe-0x30a (12)
0x2f0|                                          0b   |              . |              size: 11 (valid) 0x2fe-0x2ff (1)
     |                                               |                |              code{}: 0x2ff-0x30a (11)
     |                                               |                |                t{}: 0x2ff-0x300 (1)
0x2f0|                                             00|               .|                  n: 0 (valid) 0x2ff-0x300 (1)
     |                                               |                |                  x[0:0]: 0x300-0x300 (0)
     |                                               |                |                e[0:4]: 0x300-0x30a (10)
     |                                               |                |                  [0]{}: in 0x300-0x302 (2)
0x300|20                                             |                |                    opcode: "local.get" (0x20) 0x300-0x301 (1)
0x300|   00                                          | .              |                    x: 0 (valid) 0x301-0x302 (1)
     |                                               |                |                  [1]{}: in 0x302-0x304 (2)
0x300|      20                                       |                |                    opcode: "local.get" (0x20) 0x302-0x303 (1)
0x300|         01                                    |   .            |                    x: 1 (valid) 0x303-0x304 (1)
     |                                               |                |                  [2]{}: in 0x304-0x309 (5)
0x300|            fd                                 |    .           |                    opcode: "vector" (0xfd) 0x304-0x305 (1)
0x300|               56                              |     V          |                    v_opcode: "v128.load32_lane" (86) 0x305-0x306 (1)
     |                                               |                |                    m{}: 0x306-0x308 (2)
0x300|                  02                           |      .         |                      a: 2 (valid) 0x306-0x307 (1)
0x300|                     00                        |       .        |                      o: 0 (valid) 0x307-0x308 (1)
0x300|                        01                     |        .       |                    l: 1 0x308-0x309 (1)
     |                                               |                |                  [3]{}: in 0x309-0x30a (1)
0x300|                           0b                  |         .      |                    opcode: "end" (0xb) 0x309-0x30a (1)
     |                                               |                |            [14]{}: code 0x30a-0x316 (12)
0x300|                              0b               |          .     |              size: 11 (valid) 0x30a-0x30b (1)
     |                                               |                |              code{}: 0x30b-0x316 (11)
     |                                               |                |                t{}: 0x30b-0x30c (1)
0x300|                                 00            |           .    |                  n: 0 (valid) 0x30b-0x30c (1)
     |                                               |                |                  x[0:0]: 0x30c-0x30c (0)
     |                                               |                |                e[0:4]: 0x30c-0x316 (10)
     |                                               |                |                  [0]{}: in 0x30c-0x30e (2)
0x300|                                    20         |                |                    opcode: "local.get" (0x20) 0x30c-0x30d (1)
0x300|                                       00      |             .  |                    x: 0 (valid) 0x30d-0x30e (1)
     |                                               |                |                  [1]{}: in 0x30e-0x310 (2)
0x300|                                          20   |                |                    opcode: "local.get" (0x20) 0x30e-0x30f (1)
0x300|                                             01|               .|                    x: 1 (valid) 0x30f-0x310 (1)
     |                                               |                |                  [2]{}: in 0x310-0x315 (5)
0x310|fd                                             |.               |                    opcode: "vector" (0xfd) 0x310-0x311 (1)
0x310|   56                                          | V              |                    v_opcode: "v128.load32_lane" (86) 0x311-0x312 (1)
     |                                               |                |                    m{}: 0x312-0x314 (2)
0x310|      00                                       |  .             |                      a: 0 (valid) 0x312-0x313 (1)
0x310|         00                                    |   .            |                      o: 0 (valid) 0x313-0x314 (1)
0x310|            02                                 |    .           |                    l: 2 0x314-0x315 (1)
     |                                               |                |                  [3]{}: in 0x315-0x316 (1)
0x310|               0b                              |     .          |                    opcode: "end" (0xb) 0x315-0x316 (1)
     |                                               |                |            [15]{}: code 0x316-0x322 (12)
0x310|                  0b                           |      .         |              size: 11 (valid) 0x316-0x317 (1)
     |                                               |                |              code{}: 0x317-0x322 (11)
     |                                               |                |                t{}: 0x317-0x318 (1)
0x310|                     00                        |       .        |                  n: 0 (valid) 0x317-0x318 (1)
     |                                               |                |                  x[0:0]: 0x318-0x318 (0)
     |                                               |                |                e[0:4]: 0x318-0x322 (10)
     |                                               |                |                  [0]{}: in 0x318-0x31a (2)
0x310|                        20                     |                |                    opcode: "local.get" (0x20) 0x318-0x319 (1)
0x310|                           00                  |         .      |                    x: 0 (valid) 0x319-0x31a (1)
     |                                               |                |                  [1]{}: in 0x31a-0x31c (2)
0x310|                              20               |                |                    opcode: "local.get" (0x20) 0x31a-0x31b (1)
0x310|                                 01            |           .    |                    x: 1 (valid) 0x31b-0x31c (1)
     |                                               |                |                  [2]{}: in 0x31c-0x321 (5)
0x310|                                    fd         |            .   |                    opcode: "vector" (0xfd) 0x31c-0x31d (1)
0x310|                                       56      |             V  |                    v_opcode: "v128.load32_lane" (86) 0x31d-0x31e (1)
     |                                               |                |                    m{}: 0x31e-0x320 (2)
0x310|                                          01   |              . |                      a: 1 (valid) 0x31e-0x31f (1)
0x310|                                             00|               .|                      o: 0 (valid) 0x31f-0x320 (1)
0x320|02                                             |.               |                    l: 2 0x320-0x321 (1)
     |                                               |                |                  [3]{}: in 0x321-0x322 (1)
0x320|   0b                                          | .              |                    opcode: "end" (0xb) 0x321-0x322 (1)
     |                                               |                |            [16]{}: code 0x322-0x32e (12)
0x320|      0b                                       |  .             |              size: 11 (valid) 0x322-0x323 (1)
     |                                               |                |              code{}: 0x323-0x32e (11)
     |                                               |                |                t{}: 0x323-0x324 (1)
0x320|         00                                    |   .            |                  n: 0 (valid) 0x323-0x324 (1)
     |                                               |                |                  x[0:0]: 0x324-0x324 (0)
     |                                               |                |                e[0:4]: 0x324-0x32e (10)
     |                                               |                |                  [0]{}: in 0x324-0x326 (2)
0x320|            20                                 |                |                    opcode: "local.get" (0x20) 0x324-0x325 (1)
0x320|               00                              |     .          |                    x: 0 (valid) 0x325-0x326 (1)
     |                                               |                |                  [1]{}: in 0x326-0x328 (2)
0x320|                  20                           |                |                    opcode: "local.get" (0x20) 0x326-0x327 (1)
0x320|                     01                        |       .        |                    x: 1 (valid) 0x327-0x328 (1)
     |                                               |                |                  [2]{}: in 0x328-0x32d (5)
0x320|                        fd                     |        .       |                    opcode: "vector" (0xfd) 0x328-0x329 (1)
0x320|                           56                  |         V      |                    v_opcode: "v128.load32_lane" (86) 0x329-0x32a (1)
     |                                               |                |                    m{}: 0x32a-0x32c (2)
0x320|                              02               |          .     |                      a: 2 (valid) 0x32a-0x32b (1)
0x320|                                 00            |           .    |                      o: 0 (valid) 0x32b-0x32c (1)
0x320|                                    02         |            .   |                    l: 2 0x32c-0x32d (1)
     |                                               |                |                  [3]{}: in 0x32d-0x32e (1)
0x320|                                       0b      |             .  |                    opcode: "end" (0xb) 0x32d-0x32e (1)
     |                                               |                |            [17]{}: code 0x32e-0x33a (12)
0x320|                                          0b   |              . |              size: 11 (valid) 0x32e-0x32f (1)
     |                                               |                |              code{}: 0x32f-0x33a (11)
     |                                               |                |                t{}: 0x32f-0x330 (1)
0x320|                                             00|               .|                  n: 0 (valid) 0x32f-0x330 (1)
     |                                               |                |                  x[0:0]: 0x330-0x330 (0)
     |                                               |                |                e[0:4]: 0x330-0x33a (10)
     |                                               |                |                  [0]{}: in 0x330-0x332 (2)
0x330|20                                             |                |                    opcode: "local.get" (0x20) 0x330-0x331 (1)
0x330|   00                                          | .              |                    x: 0 (valid) 0x331-0x332 (1)
     |                                               |                |                  [1]{}: in 0x332-0x334 (2)
0x330|      20                                       |                |                    opcode: "local.get" (0x20) 0x332-0x333 (1)
0x330|         01                                    |   .            |                    x: 1 (valid) 0x333-0x334 (1)
     |                                               |                |                  [2]{}: in 0x334-0x339 (5)
0x330|            fd                                 |    .           |                    opcode: "vector" (0xfd) 0x334-0x335 (1)
0x330|               56                              |     V          |                    v_opcode: "v128.load32_lane" (86) 0x335-0x336 (1)
     |                                               |                |                    m{}: 0x336-0x338 (2)
0x330|                  00                           |      .         |                      a: 0 (valid) 0x336-0x337 (1)
0x330|                     00                        |       .        |                      o: 0 (valid) 0x337-0x338 (1)
0x330|                        03                     |        .       |                    l: 3 0x338-0x339 (1)
     |                                               |                |                  [3]{}: in 0x339-0x33a (1)
0x330|                           0b                  |         .      |                    opcode: "end" (0xb) 0x339-0x33a (1)
     |                                               |                |            [18]{}: code 0x33a-0x346 (12)
0x330|                              0b               |          .     |              size: 11 (valid) 0x33a-0x33b (1)
     |                                               |                |              code{}: 0x33b-0x346 (11)
     |                                               |                |                t{}: 0x33b-0x33c (1)
0x330|                                 00            |           .    |                  n: 0 (valid) 0x33b-0x33c (1)
     |                                               |                |                  x[0:0]: 0x33c-0x33c (0)
     |                                               |                |                e[0:4]: 0x33c-0x346 (10)
     |                                               |                |                  [0]{}: in 0x33c-0x33e (2)
0x330|                                    20         |                |                    opcode: "local.get" (0x20) 0x33c-0x33d (1)
0x330|                                       00      |             .  |                    x: 0 (valid) 0x33d-0x33e (1)
     |                                               |                |                  [1]{}: in 0x33e-0x340 (2)
0x330|                                          20   |                |                    opcode: "local.get" (0x20) 0x33e-0x33f (1)
0x330|                                             01|               .|                    x: 1 (valid) 0x33f-0x340 (1)
     |                                               |                |                  [2]{}: in 0x340-0x345 (5)
0x340|fd                                             |.               |                    opcode: "vector" (0xfd) 0x340-0x341 (1)
0x340|   56                                          | V              |                    v_opcode: "v128.load32_lane" (86) 0x341-0x342 (1)
     |                                               |                |                    m{}: 0x342-0x344 (2)
0x340|      01                                       |  .             |                      a: 1 (valid) 0x342-0x343 (1)
0x340|         00                                    |   .            |                      o: 0 (valid) 0x343-0x344 (1)
0x340|            03                                 |    .           |                    l: 3 0x344-0x345 (1)
     |                                               |                |                  [3]{}: in 0x345-0x346 (1)
0x340|               0b                              |     .          |                    opcode: "end" (0xb) 0x345-0x346 (1)
     |                                               |                |            [19]{}: code 0x346-0x352 (12)
0x340|                  0b                           |      .         |              size: 11 (valid) 0x346-0x347 (1)
     |                                               |                |              code{}: 0x347-0x352 (11)
     |                                               |                |                t{}: 0x347-0x348 (1)
0x340|                     00                        |       .        |                  n: 0 (valid) 0x347-0x348 (1)
     |                                               |                |                  x[0:0]: 0x348-0x348 (0)
     |                                               |                |                e[0:4]: 0x348-0x352 (10)
     |                                               |                |                  [0]{}: in 0x348-0x34a (2)
0x340|                        20                     |                |                    opcode: "local.get" (0x20) 0x348-0x349 (1)
0x340|                           00                  |         .      |                    x: 0 (valid) 0x349-0x34a (1)
     |                                               |                |                  [1]{}: in 0x34a-0x34c (2)
0x340|                              20               |                |                    opcode: "local.get" (0x20) 0x34a-0x34b (1)
0x340|                                 01            |           .    |                    x: 1 (valid) 0x34b-0x34c (1)
     |                                               |                |                  [2]{}: in 0x34c-0x351 (5)
0x340|                                    fd         |            .   |                    opcode: "vector" (0xfd) 0x34c-0x34d (1)
0x340|                                       56      |             V  |                    v_opcode: "v128.load32_lane" (86) 0x34d-0x34e (1)
     |                                               |                |                    m{}: 0x34e-0x350 (2)
0x340|                                          02   |              . |                      a: 2 (valid) 0x34e-0x34f (1)
0x340|                                             00|               .|                      o: 0 (valid) 0x34f-0x350 (1)
0x350|03                                             |.               |                    l: 3 0x350-0x351 (1)
     |                                               |                |                  [3]{}: in 0x351-0x352 (1)
0x350|   0b                                          | .              |                    opcode: "end" (0xb) 0x351-0x352 (1)
     |                                               |                |    [5]{}: section 0x352-0x36a (24)
0x350|      0b                                       |  .             |      id: "data_section" (11) 0x352-0x353 (1)
0x350|         16                                    |   .            |      size: 22 (valid) 0x353-0x354 (1)
     |                                               |                |      content{}: 0x354-0x36a (22)
     |                                               |                |        seg{}: 0x354-0x36a (22)
0x350|            01                                 |    .           |          n: 1 (valid) 0x354-0x355 (1)
     |                                               |                |          x[0:1]: 0x355-0x36a (21)
     |                                               |                |            [0]{}: seg 0x355-0x36a (21)
0x350|               00                              |     .          |              tag: 0 (valid) 0x355-0x356 (1)
     |                                               |                |              e[0:2]: 0x356-0x359 (3)
     |                                               |                |                [0]{}: in 0x356-0x358 (2)
0x350|                  41                           |      A         |                  opcode: "i32.const" (0x41) 0x356-0x357 (1)
0x350|                     00                        |       .        |                  n: 0 (valid) 0x357-0x358 (1)
     |                                               |                |                [1]{}: in 0x358-0x359 (1)
0x350|                        0b                     |        .       |                  opcode: "end" (0xb) 0x358-0x359 (1)
     |                                               |                |              b{}: 0x359-0x36a (17)
0x350|                           10                  |         .      |                n: 16 (valid) 0x359-0x35a (1)
0x350|                              00 01 02 03 04 05|          ......|                x: raw bits 0x35a-0x36a (16)
0x360|06 07 08 09 0a 0b 0c 0d 0e 0f|                 |..........|     |
