$ fq -d wasm dv simd_const-302.wasm
    |00 01 02 03 04 05 06 07 08 09 0a 0b 0c 0d 0e 0f|0123456789abcdef|.{}: simd_const-302.wasm (wasm) 0x0-0xe4 (228)
0x00|00 61 73 6d                                    |.asm            |  magic: raw bits (valid) 0x0-0x4 (4)
0x00|            01 00 00 00                        |    ....        |  version: 1 0x4-0x8 (4)
    |                                               |                |  sections[0:5]: 0x8-0xe4 (220)
    |                                               |                |    [0]{}: section 0x8-0x14 (12)
0x00|                        01                     |        .       |      id: "type_section" (1) 0x8-0x9 (1)
0x00|                           0a                  |         .      |      size: 10 (valid) 0x9-0xa (1)
    |                                               |                |      content{}: 0xa-0x14 (10)
    |                                               |                |        ft{}: 0xa-0x14 (10)
0x00|                              02               |          .     |          n: 2 (valid) 0xa-0xb (1)
    |                                               |                |          x[0:2]: 0xb-0x14 (9)
    |                                               |                |            [0]{}: ft 0xb-0x10 (5)
0x00|                                 60            |           `    |              tag: 0x60 (valid) 0xb-0xc (1)
    |                                               |                |              rt1{}: 0xc-0xe (2)
0x00|                                    01         |            .   |                n: 1 (valid) 0xc-0xd (1)
    |                                               |                |                x[0:1]: 0xd-0xe (1)
0x00|                                       7b      |             {  |                  [0]: "v128" (0x7b) t 0xd-0xe (1)
    |                                               |                |              rt2{}: 0xe-0x10 (2)
0x00|                                          01   |              . |                n: 1 (valid) 0xe-0xf (1)
    |                                               |                |                x[0:1]: 0xf-0x10 (1)
0x00|                                             7b|               {|                  [0]: "v128" (0x7b) t 0xf-0x10 (1)
    |                                               |                |            [1]{}: ft 0x10-0x14 (4)
0x10|60                                             |`               |              tag: 0x60 (valid) 0x10-0x11 (1)
    |                                               |                |              rt1{}: 0x11-0x12 (1)
0x10|   00                                          | .              |                n: 0 (valid) 0x11-0x12 (1)
    |                                               |                |                x[0:0]: 0x12-0x12 (0)
    |                                               |                |              rt2{}: 0x12-0x14 (2)
0x10|      01                                       |  .             |                n: 1 (valid) 0x12-0x13 (1)
    |                                               |                |                x[0:1]: 0x13-0x14 (1)
0x10|         7b                                    |   {            |                  [0]: "v128" (0x7b) t 0x13-0x14 (1)
    |                                               |                |    [1]{}: section 0x14-0x1b (7)
0x10|            03                                 |    .           |      id: "function_section" (3) 0x14-0x15 (1)
0x10|               05                              |     .          |      size: 5 (valid) 0x15-0x16 (1)
    |                                               |                |      content{}: 0x16-0x1b (5)
    |                                               |                |        x{}: 0x16-0x1b (5)
0x10|                  04                           |      .         |          n: 4 (valid) 0x16-0x17 (1)
    |                                               |                |          x[0:4]: 0x17-0x1b (4)
0x10|                     00                        |       .        |            [0]: 0 x (valid) 0x17-0x18 (1)
0x10|                        00                     |        .       |            [1]: 0 x (valid) 0x18-0x19 (1)
0x10|                           00                  |         .      |            [2]: 0 x (valid) 0x19-0x1a (1)
0x10|                              01               |          .     |            [3]: 1 x (valid) 0x1a-0x1b (1)
    |                                               |                |    [2]{}: section 0x1b-0x20 (5)
0x10|                                 05            |           .    |      id: "memory_section" (5) 0x1b-0x1c (1)
0x10|                                    03         |            .   |      size: 3 (valid) 0x1c-0x1d (1)
    |                                               |                |      content{}: 0x1d-0x20 (3)
    |                                               |                |        mem{}: 0x1d-0x20 (3)
0x10|                                       01      |             .  |          n: 1 (valid) 0x1d-0x1e (1)
    |                                               |                |          x[0:1]: 0x1e-0x20 (2)
    |                                               |                |            [0]{}: mem 0x1e-0x20 (2)
    |                                               |                |              lim{}: 0x1e-0x20 (2)
0x10|                                          00   |              . |                tag: 0x0 0x1e-0x1f (1)
0x10|                                             01|               .|                n: 1 (valid) 0x1f-0x20 (1)
    |                                               |                |    [3]{}: section 0x20-0x8f (111)
0x20|07                                             |.               |      id: "export_section" (7) 0x20-0x21 (1)
0x20|   6d                                          | m              |      size: 109 (valid) 0x21-0x22 (1)
    |                                               |                |      content{}: 0x22-0x8f (109)
    |                                               |                |        ex{}: 0x22-0x8f (109)
0x20|      04                                       |  .             |          n: 4 (valid) 0x22-0x23 (1)
    |                                               |                |          x[0:4]: 0x23-0x8f (108)
    |                                               |                |            [0]{}: ex 0x23-0x40 (29)
    |                                               |                |              nm{}: 0x23-0x3e (27)
0x20|         1a                                    |   .            |                n: 26 (valid) 0x23-0x24 (1)
0x20|            61 73 2d 6c 6f 63 61 6c 2e 73 65 74|    as-local.set|                b: "as-local.set/get-value_0_0" 0x24-0x3e (26)
0x30|2f 67 65 74 2d 76 61 6c 75 65 5f 30 5f 30      |/get-value_0_0  |
    |                                               |                |              d{}: 0x3e-0x40 (2)
0x30|                                          00   |              . |                tag: "funcidx" (0x0) 0x3e-0x3f (1)
0x30|                                             00|               .|                x: 0 (valid) 0x3f-0x40 (1)
    |                                               |                |            [1]{}: ex 0x40-0x5d (29)
    |                                               |                |              nm{}: 0x40-0x5b (27)
0x40|1a                                             |.               |                n: 26 (valid) 0x40-0x41 (1)
0x40|   61 73 2d 6c 6f 63 61 6c 2e 73 65 74 2f 67 65| as-local.set/ge|                b: "as-local.set/get-value_0_1" 0x41-0x5b (26)
0x50|74 2d 76 61 6c 75 65 5f 30 5f 31               |t-value_0_1     |
    |                                               |                |              d{}: 0x5b-0x5d (2)
0x50|                                 00            |           .    |                tag: "funcidx" (0x0) 0x5b-0x5c (1)
0x50|                                    01         |            .   |                x: 1 (valid) 0x5c-0x5d (1)
    |                                               |                |            [2]{}: ex 0x5d-0x7a (29)
    |                                               |                |              nm{}: 0x5d-0x78 (27)
0x50|                                       1a      |             .  |                n: 26 (valid) 0x5d-0x5e (1)
0x50|                                          61 73|              as|                b: "as-local.set/get-value_3_0" 0x5e-0x78 (26)
0x60|2d 6c 6f 63 61 6c 2e 73 65 74 2f 67 65 74 2d 76|-local.set/get-v|
0x70|61 6c 75 65 5f 33 5f 30                        |alue_3_0        |
    |                                               |                |              d{}: 0x78-0x7a (2)
0x70|                        00                     |        .       |                tag: "funcidx" (0x0) 0x78-0x79 (1)
0x70|                           02                  |         .      |                x: 2 (valid) 0x79-0x7a (1)
    |                                               |                |            [3]{}: ex 0x7a-0x8f (21)
    |                                               |                |              nm{}: 0x7a-0x8d (19)
0x70|                              12               |          .     |                n: 18 (valid) 0x7a-0x7b (1)
0x70|                                 61 73 2d 6c 6f|           as-lo|                b: "as-local.tee-value" 0x7b-0x8d (18)
0x80|63 61 6c 2e 74 65 65 2d 76 61 6c 75 65         |cal.tee-value   |
    |                                               |                |              d{}: 0x8d-0x8f (2)
0x80|                                       00      |             .  |                tag: "funcidx" (0x0) 0x8d-0x8e (1)
0x80|                                          03   |              . |                x: 3 (valid) 0x8e-0x8f (1)
    |                                               |                |    [4]{}: section 0x8f-0xe4 (85)
0x80|                                             0a|               .|      id: "code_section" (10) 0x8f-0x90 (1)
0x90|53                                             |S               |      size: 83 (valid) 0x90-0x91 (1)
    |                                               |                |      content{}: 0x91-0xe4 (83)
    |                                               |                |        code{}: 0x91-0xe4 (83)
0x90|   04                                          | .              |          n: 4 (valid) 0x91-0x92 (1)
    |                                               |                |          x[0:4]: 0x92-0xe4 (82)
    |                                               |                |            [0]{}: code 0x92-0x9d (11)
0x90|      0a                                       |  .             |              size: 10 (valid) 0x92-0x93 (1)
    |                                               |                |              code{}: 0x93-0x9d (10)
    |                                               |                |                t{}: 0x93-0x96 (3)
0x90|         01                                    |   .            |                  n: 1 (valid) 0x93-0x94 (1)
    |                                               |                |                  x[0:1]: 0x94-0x96 (2)
    |                                               |                |                    [0]{}: t 0x94-0x96 (2)
0x90|            04                                 |    .           |                      n: 4 (valid) 0x94-0x95 (1)
0x90|               7b                              |     {          |                      t: "v128" (0x7b) 0x95-0x96 (1)
    |                                               |                |                e[0:4]: 0x96-0x9d (7)
    |                                               |                |                  [0]{}: in 0x96-0x98 (2)
0x90|                  20                           |                |                    opcode: "local.get" (0x20) 0x96-0x97 (1)
0x90|                     00                        |       .        |                    x: 0 (valid) 0x97-0x98 (1)
    |                                               |                |                  [1]{}: in 0x98-0x9a (2)
0x90|                        21                     |        !       |                    opcode: "local.set" (0x21) 0x98-0x99 (1)
0x90|                           00                  |         .      |                    x: 0 (valid) 0x99-0x9a (1)
    |                                               |                |                  [2]{}: in 0x9a-0x9c (2)
0x90|                              20               |                |                    opcode: "local.get" (0x20) 0x9a-0x9b (1)
0x90|                                 00            |           .    |                    x: 0 (valid) 0x9b-0x9c (1)
    |                                               |                |                  [3]{}: in 0x9c-0x9d (1)
0x90|                                    0b         |            .   |                    opcode: "end" (0xb) 0x9c-0x9d (1)
    |                                               |                |            [1]{}: code 0x9d-0xb4 (23)
0x90|                                       16      |             .  |              size: 22 (valid) 0x9d-0x9e (1)
    |                                               |                |              code{}: 0x9e-0xb4 (22)
    |                                               |                |                t{}: 0x9e-0xa1 (3)
0x90|                                          01   |              . |                  n: 1 (valid) 0x9e-0x9f (1)
    |                                               |                |                  x[0:1]: 0x9f-0xa1 (2)
    |                                               |                |                    [0]{}: t 0x9f-0xa1 (2)
0x90|                                             04|               .|                      n: 4 (valid) 0x9f-0xa0 (1)
0xa0|7b                                             |{               |                      t: "v128" (0x7b) 0xa0-0xa1 (1)
    |                                               |                |                e[0:10]: 0xa1-0xb4 (19)
    |                                               |                |                  [0]{}: in 0xa1-0xa3 (2)
0xa0|   20                                          |                |                    opcode: "local.get" (0x20) 0xa1-0xa2 (1)
0xa0|      00                                       |  .             |                    x: 0 (valid) 0xa2-0xa3 (1)
    |                                               |                |                  [1]{}: in 0xa3-0xa5 (2)
0xa0|         21                                    |   !            |                    opcode: "local.set" (0x21) 0xa3-0xa4 (1)
0xa0|            00                                 |    .           |                    x: 0 (valid) 0xa4-0xa5 (1)
    |                                               |                |                  [2]{}: in 0xa5-0xa7 (2)
0xa0|               20                              |                |                    opcode: "local.get" (0x20) 0xa5-0xa6 (1)
0xa0|                  00                           |      .         |                    x: 0 (valid) 0xa6-0xa7 (1)
    |                                               |                |                  [3]{}: in 0xa7-0xa9 (2)
0xa0|                     21                        |       !        |                    opcode: "local.set" (0x21) 0xa7-0xa8 (1)
0xa0|                        01                     |        .       |                    x: 1 (valid) 0xa8-0xa9 (1)
    |                                               |                |                  [4]{}: in 0xa9-0xab (2)
0xa0|                           20                  |                |                    opcode: "local.get" (0x20) 0xa9-0xaa (1)
0xa0|                              01               |          .     |                    x: 1 (valid) 0xaa-0xab (1)
    |                                               |                |                  [5]{}: in 0xab-0xad (2)
0xa0|                                 21            |           !    |                    opcode: "local.set" (0x21) 0xab-0xac (1)
0xa0|                                    02         |            .   |                    x: 2 (valid) 0xac-0xad (1)
    |                                               |                |                  [6]{}: in 0xad-0xaf (2)
0xa0|                                       20      |                |                    opcode: "local.get" (0x20) 0xad-0xae (1)
0xa0|                                          02   |              . |                    x: 2 (valid) 0xae-0xaf (1)
    |                                               |                |                  [7]{}: in 0xaf-0xb1 (2)
0xa0|                                             21|               !|                    opcode: "local.set" (0x21) 0xaf-0xb0 (1)
0xb0|03                                             |.               |                    x: 3 (valid) 0xb0-0xb1 (1)
    |                                               |                |                  [8]{}: in 0xb1-0xb3 (2)
0xb0|   20                                          |                |                    opcode: "local.get" (0x20) 0xb1-0xb2 (1)
0xb0|      00                                       |  .             |                    x: 0 (valid) 0xb2-0xb3 (1)
    |                                               |                |                  [9]{}: in 0xb3-0xb4 (1)
0xb0|         0b                                    |   .            |                    opcode: "end" (0xb) 0xb3-0xb4 (1)
    |                                               |                |            [2]{}: code 0xb4-0xcb (23)
0xb0|            16                                 |    .           |              size: 22 (valid) 0xb4-0xb5 (1)
    |                                               |                |              code{}: 0xb5-0xcb (22)
    |                                               |                |                t{}: 0xb5-0xb8 (3)
0xb0|               01                              |     .          |                  n: 1 (valid) 0xb5-0xb6 (1)
    |                                               |                |                  x[0:1]: 0xb6-0xb8 (2)
    |                                               |                |                    [0]{}: t 0xb6-0xb8 (2)
0xb0|                  04                           |      .         |                      n: 4 (valid) 0xb6-0xb7 (1)
0xb0|                     7b                        |       {        |                      t: "v128" (0x7b) 0xb7-0xb8 (1)
    |                                               |                |                e[0:10]: 0xb8-0xcb (19)
    |                                               |                |                  [0]{}: in 0xb8-0xba (2)
0xb0|                        20                     |                |                    opcode: "local.get" (0x20) 0xb8-0xb9 (1)
0xb0|                           00                  |         .      |                    x: 0 (valid) 0xb9-0xba (1)
    |                                               |                |                  [1]{}: in 0xba-0xbc (2)
0xb0|                              21               |          !     |                    opcode: "local.set" (0x21) 0xba-0xbb (1)
0xb0|                                 00            |           .    |                    x: 0 (valid) 0xbb-0xbc (1)
    |                                               |                |                  [2]{}: in 0xbc-0xbe (2)
0xb0|                                    20         |                |                    opcode: "local.get" (0x20) 0xbc-0xbd (1)
0xb0|                                       00      |             .  |                    x: 0 (valid) 0xbd-0xbe (1)
    |                                               |                |                  [3]{}: in 0xbe-0xc0 (2)
0xb0|                                          21   |              ! |                    opcode: "local.set" (0x21) 0xbe-0xbf (1)
0xb0|                                             01|               .|                    x: 1 (valid) 0xbf-0xc0 (1)
    |                                               |                |                  [4]{}: in 0xc0-0xc2 (2)
0xc0|20                                             |                |                    opcode: "local.get" (0x20) 0xc0-0xc1 (1)
0xc0|   01                                          | .              |                    x: 1 (valid) 0xc1-0xc2 (1)
    |                                               |                |                  [5]{}: in 0xc2-0xc4 (2)
0xc0|      21                                       |  !             |                    opcode: "local.set" (0x21) 0xc2-0xc3 (1)
0xc0|         02                                    |   .            |                    x: 2 (valid) 0xc3-0xc4 (1)
    |                                               |                |                  [6]{}: in 0xc4-0xc6 (2)
0xc0|            20                                 |                |                    opcode: "local.get" (0x20) 0xc4-0xc5 (1)
0xc0|               02                              |     .          |                    x: 2 (valid) 0xc5-0xc6 (1)
    |                                               |                |                  [7]{}: in 0xc6-0xc8 (2)
0xc0|                  21                           |      !         |                    opcode: "local.set" (0x21) 0xc6-0xc7 (1)
0xc0|                     03                        |       .        |                    x: 3 (valid) 0xc7-0xc8 (1)
    |                                               |                |                  [8]{}: in 0xc8-0xca (2)
0xc0|                        20                     |                |                    opcode: "local.get" (0x20) 0xc8-0xc9 (1)
0xc0|                           03                  |         .      |                    x: 3 (valid) 0xc9-0xca (1)
    |                                               |                |                  [9]{}: in 0xca-0xcb (1)
0xc0|                              0b               |          .     |                    opcode: "end" (0xb) 0xca-0xcb (1)
    |                                               |                |            [3]{}: code 0xcb-0xe4 (25)
0xc0|                                 18            |           .    |              size: 24 (valid) 0xcb-0xcc (1)
    |                                               |                |              code{}: 0xcc-0xe4 (24)
    |                                               |                |                t{}: 0xcc-0xcf (3)
0xc0|                                    01         |            .   |                  n: 1 (valid) 0xcc-0xcd (1)
    |                                               |                |                  x[0:1]: 0xcd-0xcf (2)
    |                                               |                |                    [0]{}: t 0xcd-0xcf (2)
0xc0|                                       01      |             .  |                      n: 1 (valid) 0xcd-0xce (1)
0xc0|                                          7b   |              { |                      t: "v128" (0x7b) 0xce-0xcf (1)
    |                                               |                |                e[0:3]: 0xcf-0xe4 (21)
    |                                               |                |                  [0]{}: in 0xcf-0xe1 (18)
0xc0|                                             fd|               .|                    opcode: "vector" (0xfd) 0xcf-0xd0 (1)
0xd0|0c                                             |.               |                    v_opcode: "v128.const" (12) 0xd0-0xd1 (1)
0xd0|   00 00 00 00 01 00 00 00 02 00 00 00 03 00 00| ...............|                    bytes: raw bits 0xd1-0xe1 (16)
0xe0|00                                             |.               |
    |                                               |                |                  [1]{}: in 0xe1-0xe3 (2)
0xe0|   22                                          | "              |                    opcode: "local.tee" (0x22) 0xe1-0xe2 (1)
0xe0|      00                                       |  .             |                    x: 0 (valid) 0xe2-0xe3 (1)
    |                                               |                |                  [2]{}: in 0xe3-0xe4 (1)
0xe0|         0b|                                   |   .|           |                    opcode: "end" (0xb) 0xe3-0xe4 (1)
