$ fq -d wasm dv simd_f32x4_cmp-1.wasm
     |00 01 02 03 04 05 06 07 08 09 0a 0b 0c 0d 0e 0f|0123456789abcdef|.{}: simd_f32x4_cmp-1.wasm (wasm) 0x0-0x353.7 (852)
0x000|00 61 73 6d                                    |.asm            |  magic: raw bits (valid) 0x0-0x3.7 (4)
0x000|            01 00 00 00                        |    ....        |  version: 1 0x4-0x7.7 (4)
     |                                               |                |  sections[0:5]: 0x8-0x353.7 (844)
     |                                               |                |    [0]{}: section 0x8-0xd.7 (6)
0x000|                        01                     |        .       |      id: "type section" (1) 0x8-0x8.7 (1)
0x000|                           04                  |         .      |      size: 4 0x9-0x9.7 (1)
     |                                               |                |      content{}: 0xa-0xd.7 (4)
     |                                               |                |        ft{}: 0xa-0xd.7 (4)
0x000|                              01               |          .     |          n: 1 0xa-0xa.7 (1)
     |                                               |                |          x[0:1]: 0xb-0xd.7 (3)
     |                                               |                |            [0]{}: ft 0xb-0xd.7 (3)
0x000|                                 60            |           `    |              tag: 0x60 (valid) 0xb-0xb.7 (1)
     |                                               |                |              rt1{}: 0xc-0xc.7 (1)
0x000|                                    00         |            .   |                n: 0 0xc-0xc.7 (1)
     |                                               |                |                x[0:0]: 0xd-NA (0)
     |                                               |                |              rt2{}: 0xd-0xd.7 (1)
0x000|                                       00      |             .  |                n: 0 0xd-0xd.7 (1)
     |                                               |                |                x[0:0]: 0xe-NA (0)
     |                                               |                |    [1]{}: section 0xe-0x1d.7 (16)
0x000|                                          03   |              . |      id: "function section" (3) 0xe-0xe.7 (1)
0x000|                                             0e|               .|      size: 14 0xf-0xf.7 (1)
     |                                               |                |      content{}: 0x10-0x1d.7 (14)
     |                                               |                |        x{}: 0x10-0x1d.7 (14)
0x010|0d                                             |.               |          n: 13 0x10-0x10.7 (1)
     |                                               |                |          x[0:13]: 0x11-0x1d.7 (13)
0x010|   00                                          | .              |            [0]: 0 x 0x11-0x11.7 (1)
0x010|      00                                       |  .             |            [1]: 0 x 0x12-0x12.7 (1)
0x010|         00                                    |   .            |            [2]: 0 x 0x13-0x13.7 (1)
0x010|            00                                 |    .           |            [3]: 0 x 0x14-0x14.7 (1)
0x010|               00                              |     .          |            [4]: 0 x 0x15-0x15.7 (1)
0x010|                  00                           |      .         |            [5]: 0 x 0x16-0x16.7 (1)
0x010|                     00                        |       .        |            [6]: 0 x 0x17-0x17.7 (1)
0x010|                        00                     |        .       |            [7]: 0 x 0x18-0x18.7 (1)
0x010|                           00                  |         .      |            [8]: 0 x 0x19-0x19.7 (1)
0x010|                              00               |          .     |            [9]: 0 x 0x1a-0x1a.7 (1)
0x010|                                 00            |           .    |            [10]: 0 x 0x1b-0x1b.7 (1)
0x010|                                    00         |            .   |            [11]: 0 x 0x1c-0x1c.7 (1)
0x010|                                       00      |             .  |            [12]: 0 x 0x1d-0x1d.7 (1)
     |                                               |                |    [2]{}: section 0x1e-0x22.7 (5)
0x010|                                          05   |              . |      id: "memory section" (5) 0x1e-0x1e.7 (1)
0x010|                                             03|               .|      size: 3 0x1f-0x1f.7 (1)
     |                                               |                |      content{}: 0x20-0x22.7 (3)
     |                                               |                |        mem{}: 0x20-0x22.7 (3)
0x020|01                                             |.               |          n: 1 0x20-0x20.7 (1)
     |                                               |                |          x[0:1]: 0x21-0x22.7 (2)
     |                                               |                |            [0]{}: mem 0x21-0x22.7 (2)
     |                                               |                |              lim{}: 0x21-0x22.7 (2)
0x020|   00                                          | .              |                tag: 0x0 0x21-0x21.7 (1)
0x020|      01                                       |  .             |                n: 1 0x22-0x22.7 (1)
     |                                               |                |    [3]{}: section 0x23-0xcd.7 (171)
0x020|         07                                    |   .            |      id: "export section" (7) 0x23-0x23.7 (1)
0x020|            a8 01                              |    ..          |      size: 168 0x24-0x25.7 (2)
     |                                               |                |      content{}: 0x26-0xcd.7 (168)
     |                                               |                |        ex{}: 0x26-0xcd.7 (168)
0x020|                  0d                           |      .         |          n: 13 0x26-0x26.7 (1)
     |                                               |                |          x[0:13]: 0x27-0xcd.7 (167)
     |                                               |                |            [0]{}: ex 0x27-0x34.7 (14)
     |                                               |                |              nm{}: 0x27-0x32.7 (12)
0x020|                     0b                        |       .        |                n: 11 0x27-0x27.7 (1)
0x020|                        65 71 2d 69 6e 2d 62 6c|        eq-in-bl|                b: "eq-in-block" 0x28-0x32.7 (11)
0x030|6f 63 6b                                       |ock             |
     |                                               |                |              d{}: 0x33-0x34.7 (2)
0x030|         00                                    |   .            |                tag: "funcidx" (0x0) 0x33-0x33.7 (1)
0x030|            00                                 |    .           |                x: 0 0x34-0x34.7 (1)
     |                                               |                |            [1]{}: ex 0x35-0x42.7 (14)
     |                                               |                |              nm{}: 0x35-0x40.7 (12)
0x030|               0b                              |     .          |                n: 11 0x35-0x35.7 (1)
0x030|                  6e 65 2d 69 6e 2d 62 6c 6f 63|      ne-in-bloc|                b: "ne-in-block" 0x36-0x40.7 (11)
0x040|6b                                             |k               |
     |                                               |                |              d{}: 0x41-0x42.7 (2)
0x040|   00                                          | .              |                tag: "funcidx" (0x0) 0x41-0x41.7 (1)
0x040|      01                                       |  .             |                x: 1 0x42-0x42.7 (1)
     |                                               |                |            [2]{}: ex 0x43-0x50.7 (14)
     |                                               |                |              nm{}: 0x43-0x4e.7 (12)
0x040|         0b                                    |   .            |                n: 11 0x43-0x43.7 (1)
0x040|            6c 74 2d 69 6e 2d 62 6c 6f 63 6b   |    lt-in-block |                b: "lt-in-block" 0x44-0x4e.7 (11)
     |                                               |                |              d{}: 0x4f-0x50.7 (2)
0x040|                                             00|               .|                tag: "funcidx" (0x0) 0x4f-0x4f.7 (1)
0x050|02                                             |.               |                x: 2 0x50-0x50.7 (1)
     |                                               |                |            [3]{}: ex 0x51-0x5e.7 (14)
     |                                               |                |              nm{}: 0x51-0x5c.7 (12)
0x050|   0b                                          | .              |                n: 11 0x51-0x51.7 (1)
0x050|      6c 65 2d 69 6e 2d 62 6c 6f 63 6b         |  le-in-block   |                b: "le-in-block" 0x52-0x5c.7 (11)
     |                                               |                |              d{}: 0x5d-0x5e.7 (2)
0x050|                                       00      |             .  |                tag: "funcidx" (0x0) 0x5d-0x5d.7 (1)
0x050|                                          03   |              . |                x: 3 0x5e-0x5e.7 (1)
     |                                               |                |            [4]{}: ex 0x5f-0x6c.7 (14)
     |                                               |                |              nm{}: 0x5f-0x6a.7 (12)
0x050|                                             0b|               .|                n: 11 0x5f-0x5f.7 (1)
0x060|67 74 2d 69 6e 2d 62 6c 6f 63 6b               |gt-in-block     |                b: "gt-in-block" 0x60-0x6a.7 (11)
     |                                               |                |              d{}: 0x6b-0x6c.7 (2)
0x060|                                 00            |           .    |                tag: "funcidx" (0x0) 0x6b-0x6b.7 (1)
0x060|                                    04         |            .   |                x: 4 0x6c-0x6c.7 (1)
     |                                               |                |            [5]{}: ex 0x6d-0x7a.7 (14)
     |                                               |                |              nm{}: 0x6d-0x78.7 (12)
0x060|                                       0b      |             .  |                n: 11 0x6d-0x6d.7 (1)
0x060|                                          67 65|              ge|                b: "ge-in-block" 0x6e-0x78.7 (11)
0x070|2d 69 6e 2d 62 6c 6f 63 6b                     |-in-block       |
     |                                               |                |              d{}: 0x79-0x7a.7 (2)
0x070|                           00                  |         .      |                tag: "funcidx" (0x0) 0x79-0x79.7 (1)
0x070|                              05               |          .     |                x: 5 0x7a-0x7a.7 (1)
     |                                               |                |            [6]{}: ex 0x7b-0x86.7 (12)
     |                                               |                |              nm{}: 0x7b-0x84.7 (10)
0x070|                                 09            |           .    |                n: 9 0x7b-0x7b.7 (1)
0x070|                                    6e 65 73 74|            nest|                b: "nested-eq" 0x7c-0x84.7 (9)
0x080|65 64 2d 65 71                                 |ed-eq           |
     |                                               |                |              d{}: 0x85-0x86.7 (2)
0x080|               00                              |     .          |                tag: "funcidx" (0x0) 0x85-0x85.7 (1)
0x080|                  06                           |      .         |                x: 6 0x86-0x86.7 (1)
     |                                               |                |            [7]{}: ex 0x87-0x92.7 (12)
     |                                               |                |              nm{}: 0x87-0x90.7 (10)
0x080|                     09                        |       .        |                n: 9 0x87-0x87.7 (1)
0x080|                        6e 65 73 74 65 64 2d 6e|        nested-n|                b: "nested-ne" 0x88-0x90.7 (9)
0x090|65                                             |e               |
     |                                               |                |              d{}: 0x91-0x92.7 (2)
0x090|   00                                          | .              |                tag: "funcidx" (0x0) 0x91-0x91.7 (1)
0x090|      07                                       |  .             |                x: 7 0x92-0x92.7 (1)
     |                                               |                |            [8]{}: ex 0x93-0x9e.7 (12)
     |                                               |                |              nm{}: 0x93-0x9c.7 (10)
0x090|         09                                    |   .            |                n: 9 0x93-0x93.7 (1)
0x090|            6e 65 73 74 65 64 2d 6c 74         |    nested-lt   |                b: "nested-lt" 0x94-0x9c.7 (9)
     |                                               |                |              d{}: 0x9d-0x9e.7 (2)
0x090|                                       00      |             .  |                tag: "funcidx" (0x0) 0x9d-0x9d.7 (1)
0x090|                                          08   |              . |                x: 8 0x9e-0x9e.7 (1)
     |                                               |                |            [9]{}: ex 0x9f-0xaa.7 (12)
     |                                               |                |              nm{}: 0x9f-0xa8.7 (10)
0x090|                                             09|               .|                n: 9 0x9f-0x9f.7 (1)
0x0a0|6e 65 73 74 65 64 2d 6c 65                     |nested-le       |                b: "nested-le" 0xa0-0xa8.7 (9)
     |                                               |                |              d{}: 0xa9-0xaa.7 (2)
0x0a0|                           00                  |         .      |                tag: "funcidx" (0x0) 0xa9-0xa9.7 (1)
0x0a0|                              09               |          .     |                x: 9 0xaa-0xaa.7 (1)
     |                                               |                |            [10]{}: ex 0xab-0xb6.7 (12)
     |                                               |                |              nm{}: 0xab-0xb4.7 (10)
0x0a0|                                 09            |           .    |                n: 9 0xab-0xab.7 (1)
0x0a0|                                    6e 65 73 74|            nest|                b: "nested-gt" 0xac-0xb4.7 (9)
0x0b0|65 64 2d 67 74                                 |ed-gt           |
     |                                               |                |              d{}: 0xb5-0xb6.7 (2)
0x0b0|               00                              |     .          |                tag: "funcidx" (0x0) 0xb5-0xb5.7 (1)
0x0b0|                  0a                           |      .         |                x: 10 0xb6-0xb6.7 (1)
     |                                               |                |            [11]{}: ex 0xb7-0xc2.7 (12)
     |                                               |                |              nm{}: 0xb7-0xc0.7 (10)
0x0b0|                     09                        |       .        |                n: 9 0xb7-0xb7.7 (1)
0x0b0|                        6e 65 73 74 65 64 2d 67|        nested-g|                b: "nested-ge" 0xb8-0xc0.7 (9)
0x0c0|65                                             |e               |
     |                                               |                |              d{}: 0xc1-0xc2.7 (2)
0x0c0|   00                                          | .              |                tag: "funcidx" (0x0) 0xc1-0xc1.7 (1)
0x0c0|      0b                                       |  .             |                x: 11 0xc2-0xc2.7 (1)
     |                                               |                |            [12]{}: ex 0xc3-0xcd.7 (11)
     |                                               |                |              nm{}: 0xc3-0xcb.7 (9)
0x0c0|         08                                    |   .            |                n: 8 0xc3-0xc3.7 (1)
0x0c0|            61 73 2d 70 61 72 61 6d            |    as-param    |                b: "as-param" 0xc4-0xcb.7 (8)
     |                                               |                |              d{}: 0xcc-0xcd.7 (2)
0x0c0|                                    00         |            .   |                tag: "funcidx" (0x0) 0xcc-0xcc.7 (1)
0x0c0|                                       0c      |             .  |                x: 12 0xcd-0xcd.7 (1)
     |                                               |                |    [4]{}: section 0xce-0x353.7 (646)
0x0c0|                                          0a   |              . |      id: "code section" (10) 0xce-0xce.7 (1)
0x0c0|                                             83|               .|      size: 643 0xcf-0xd0.7 (2)
0x0d0|05                                             |.               |
     |                                               |                |      content{}: 0xd1-0x353.7 (643)
     |                                               |                |        code{}: 0xd1-0x353.7 (643)
0x0d0|   0d                                          | .              |          n: 13 0xd1-0xd1.7 (1)
     |                                               |                |          x[0:13]: 0xd2-0x353.7 (642)
     |                                               |                |            [0]{}: code 0xd2-0xef.7 (30)
0x0d0|      1d                                       |  .             |              size: 29 0xd2-0xd2.7 (1)
     |                                               |                |              code{}: 0xd3-0xef.7 (29)
     |                                               |                |                t{}: 0xd3-0xd3.7 (1)
0x0d0|         00                                    |   .            |                  n: 0 0xd3-0xd3.7 (1)
     |                                               |                |                  x[0:0]: 0xd4-NA (0)
     |                                               |                |                e[0:2]: 0xd4-0xef.7 (28)
     |                                               |                |                  [0]{}: in 0xd4-0xee.7 (27)
0x0d0|            02                                 |    .           |                    block: 0x2 (valid) 0xd4-0xd4.7 (1)
0x0d0|               40                              |     @          |                    bt: "ε" (64) 0xd5-0xd5.7 (1)
     |                                               |                |                    instructions[0:2]: 0xd6-0xed.7 (24)
     |                                               |                |                      [0]{}: instr 0xd6-0xec.7 (23)
0x0d0|                  02                           |      .         |                        block: 0x2 (valid) 0xd6-0xd6.7 (1)
0x0d0|                     7b                        |       {        |                        bt: "v128" (123) 0xd7-0xd7.7 (1)
     |                                               |                |                        instructions[0:3]: 0xd8-0xeb.7 (20)
     |                                               |                |                          [0]{}: instr 0xd8-0xe0.7 (9)
0x0d0|                        02                     |        .       |                            block: 0x2 (valid) 0xd8-0xd8.7 (1)
0x0d0|                           7b                  |         {      |                            bt: "v128" (123) 0xd9-0xd9.7 (1)
     |                                               |                |                            instructions[0:2]: 0xda-0xdf.7 (6)
     |                                               |                |                              [0]{}: instr 0xda-0xdb.7 (2)
0x0d0|                              41               |          A     |                                i32.const: 0x41 (valid) 0xda-0xda.7 (1)
0x0d0|                                 00            |           .    |                                n: 0 0xdb-0xdb.7 (1)
     |                                               |                |                              [1]{}: instr 0xdc-0xdf.7 (4)
0x0d0|                                    fd         |            .   |                                prefix: 0xfd (valid) 0xdc-0xdc.7 (1)
0x0d0|                                       00      |             .  |                                v128.load: 0 (valid) 0xdd-0xdd.7 (1)
     |                                               |                |                                m{}: 0xde-0xdf.7 (2)
0x0d0|                                          04   |              . |                                  a: 4 0xde-0xde.7 (1)
0x0d0|                                             00|               .|                                  o: 0 0xdf-0xdf.7 (1)
0x0e0|0b                                             |.               |                            end: 11 (valid) 0xe0-0xe0.7 (1)
     |                                               |                |                          [1]{}: instr 0xe1-0xe9.7 (9)
0x0e0|   02                                          | .              |                            block: 0x2 (valid) 0xe1-0xe1.7 (1)
0x0e0|      7b                                       |  {             |                            bt: "v128" (123) 0xe2-0xe2.7 (1)
     |                                               |                |                            instructions[0:2]: 0xe3-0xe8.7 (6)
     |                                               |                |                              [0]{}: instr 0xe3-0xe4.7 (2)
0x0e0|         41                                    |   A            |                                i32.const: 0x41 (valid) 0xe3-0xe3.7 (1)
0x0e0|            01                                 |    .           |                                n: 1 0xe4-0xe4.7 (1)
     |                                               |                |                              [1]{}: instr 0xe5-0xe8.7 (4)
0x0e0|               fd                              |     .          |                                prefix: 0xfd (valid) 0xe5-0xe5.7 (1)
0x0e0|                  00                           |      .         |                                v128.load: 0 (valid) 0xe6-0xe6.7 (1)
     |                                               |                |                                m{}: 0xe7-0xe8.7 (2)
0x0e0|                     04                        |       .        |                                  a: 4 0xe7-0xe7.7 (1)
0x0e0|                        00                     |        .       |                                  o: 0 0xe8-0xe8.7 (1)
0x0e0|                           0b                  |         .      |                            end: 11 (valid) 0xe9-0xe9.7 (1)
     |                                               |                |                          [2]{}: instr 0xea-0xeb.7 (2)
0x0e0|                              fd               |          .     |                            prefix: 0xfd (valid) 0xea-0xea.7 (1)
0x0e0|                                 41            |           A    |                            f32x4.eq: 65 (valid) 0xeb-0xeb.7 (1)
0x0e0|                                    0b         |            .   |                        end: 11 (valid) 0xec-0xec.7 (1)
     |                                               |                |                      [1]{}: instr 0xed-0xed.7 (1)
0x0e0|                                       1a      |             .  |                        drop: 0x1a (valid) 0xed-0xed.7 (1)
0x0e0|                                          0b   |              . |                    end: 11 (valid) 0xee-0xee.7 (1)
     |                                               |                |                  [1]{}: in 0xef-0xef.7 (1)
0x0e0|                                             0b|               .|                    end: 0xb (valid) 0xef-0xef.7 (1)
     |                                               |                |            [1]{}: code 0xf0-0x10d.7 (30)
0x0f0|1d                                             |.               |              size: 29 0xf0-0xf0.7 (1)
     |                                               |                |              code{}: 0xf1-0x10d.7 (29)
     |                                               |                |                t{}: 0xf1-0xf1.7 (1)
0x0f0|   00                                          | .              |                  n: 0 0xf1-0xf1.7 (1)
     |                                               |                |                  x[0:0]: 0xf2-NA (0)
     |                                               |                |                e[0:2]: 0xf2-0x10d.7 (28)
     |                                               |                |                  [0]{}: in 0xf2-0x10c.7 (27)
0x0f0|      02                                       |  .             |                    block: 0x2 (valid) 0xf2-0xf2.7 (1)
0x0f0|         40                                    |   @            |                    bt: "ε" (64) 0xf3-0xf3.7 (1)
     |                                               |                |                    instructions[0:2]: 0xf4-0x10b.7 (24)
     |                                               |                |                      [0]{}: instr 0xf4-0x10a.7 (23)
0x0f0|            02                                 |    .           |                        block: 0x2 (valid) 0xf4-0xf4.7 (1)
0x0f0|               7b                              |     {          |                        bt: "v128" (123) 0xf5-0xf5.7 (1)
     |                                               |                |                        instructions[0:3]: 0xf6-0x109.7 (20)
     |                                               |                |                          [0]{}: instr 0xf6-0xfe.7 (9)
0x0f0|                  02                           |      .         |                            block: 0x2 (valid) 0xf6-0xf6.7 (1)
0x0f0|                     7b                        |       {        |                            bt: "v128" (123) 0xf7-0xf7.7 (1)
     |                                               |                |                            instructions[0:2]: 0xf8-0xfd.7 (6)
     |                                               |                |                              [0]{}: instr 0xf8-0xf9.7 (2)
0x0f0|                        41                     |        A       |                                i32.const: 0x41 (valid) 0xf8-0xf8.7 (1)
0x0f0|                           00                  |         .      |                                n: 0 0xf9-0xf9.7 (1)
     |                                               |                |                              [1]{}: instr 0xfa-0xfd.7 (4)
0x0f0|                              fd               |          .     |                                prefix: 0xfd (valid) 0xfa-0xfa.7 (1)
0x0f0|                                 00            |           .    |                                v128.load: 0 (valid) 0xfb-0xfb.7 (1)
     |                                               |                |                                m{}: 0xfc-0xfd.7 (2)
0x0f0|                                    04         |            .   |                                  a: 4 0xfc-0xfc.7 (1)
0x0f0|                                       00      |             .  |                                  o: 0 0xfd-0xfd.7 (1)
0x0f0|                                          0b   |              . |                            end: 11 (valid) 0xfe-0xfe.7 (1)
     |                                               |                |                          [1]{}: instr 0xff-0x107.7 (9)
0x0f0|                                             02|               .|                            block: 0x2 (valid) 0xff-0xff.7 (1)
0x100|7b                                             |{               |                            bt: "v128" (123) 0x100-0x100.7 (1)
     |                                               |                |                            instructions[0:2]: 0x101-0x106.7 (6)
     |                                               |                |                              [0]{}: instr 0x101-0x102.7 (2)
0x100|   41                                          | A              |                                i32.const: 0x41 (valid) 0x101-0x101.7 (1)
0x100|      01                                       |  .             |                                n: 1 0x102-0x102.7 (1)
     |                                               |                |                              [1]{}: instr 0x103-0x106.7 (4)
0x100|         fd                                    |   .            |                                prefix: 0xfd (valid) 0x103-0x103.7 (1)
0x100|            00                                 |    .           |                                v128.load: 0 (valid) 0x104-0x104.7 (1)
     |                                               |                |                                m{}: 0x105-0x106.7 (2)
0x100|               04                              |     .          |                                  a: 4 0x105-0x105.7 (1)
0x100|                  00                           |      .         |                                  o: 0 0x106-0x106.7 (1)
0x100|                     0b                        |       .        |                            end: 11 (valid) 0x107-0x107.7 (1)
     |                                               |                |                          [2]{}: instr 0x108-0x109.7 (2)
0x100|                        fd                     |        .       |                            prefix: 0xfd (valid) 0x108-0x108.7 (1)
0x100|                           42                  |         B      |                            f32x4.ne: 66 (valid) 0x109-0x109.7 (1)
0x100|                              0b               |          .     |                        end: 11 (valid) 0x10a-0x10a.7 (1)
     |                                               |                |                      [1]{}: instr 0x10b-0x10b.7 (1)
0x100|                                 1a            |           .    |                        drop: 0x1a (valid) 0x10b-0x10b.7 (1)
0x100|                                    0b         |            .   |                    end: 11 (valid) 0x10c-0x10c.7 (1)
     |                                               |                |                  [1]{}: in 0x10d-0x10d.7 (1)
0x100|                                       0b      |             .  |                    end: 0xb (valid) 0x10d-0x10d.7 (1)
     |                                               |                |            [2]{}: code 0x10e-0x12b.7 (30)
0x100|                                          1d   |              . |              size: 29 0x10e-0x10e.7 (1)
     |                                               |                |              code{}: 0x10f-0x12b.7 (29)
     |                                               |                |                t{}: 0x10f-0x10f.7 (1)
0x100|                                             00|               .|                  n: 0 0x10f-0x10f.7 (1)
     |                                               |                |                  x[0:0]: 0x110-NA (0)
     |                                               |                |                e[0:2]: 0x110-0x12b.7 (28)
     |                                               |                |                  [0]{}: in 0x110-0x12a.7 (27)
0x110|02                                             |.               |                    block: 0x2 (valid) 0x110-0x110.7 (1)
0x110|   40                                          | @              |                    bt: "ε" (64) 0x111-0x111.7 (1)
     |                                               |                |                    instructions[0:2]: 0x112-0x129.7 (24)
     |                                               |                |                      [0]{}: instr 0x112-0x128.7 (23)
0x110|      02                                       |  .             |                        block: 0x2 (valid) 0x112-0x112.7 (1)
0x110|         7b                                    |   {            |                        bt: "v128" (123) 0x113-0x113.7 (1)
     |                                               |                |                        instructions[0:3]: 0x114-0x127.7 (20)
     |                                               |                |                          [0]{}: instr 0x114-0x11c.7 (9)
0x110|            02                                 |    .           |                            block: 0x2 (valid) 0x114-0x114.7 (1)
0x110|               7b                              |     {          |                            bt: "v128" (123) 0x115-0x115.7 (1)
     |                                               |                |                            instructions[0:2]: 0x116-0x11b.7 (6)
     |                                               |                |                              [0]{}: instr 0x116-0x117.7 (2)
0x110|                  41                           |      A         |                                i32.const: 0x41 (valid) 0x116-0x116.7 (1)
0x110|                     00                        |       .        |                                n: 0 0x117-0x117.7 (1)
     |                                               |                |                              [1]{}: instr 0x118-0x11b.7 (4)
0x110|                        fd                     |        .       |                                prefix: 0xfd (valid) 0x118-0x118.7 (1)
0x110|                           00                  |         .      |                                v128.load: 0 (valid) 0x119-0x119.7 (1)
     |                                               |                |                                m{}: 0x11a-0x11b.7 (2)
0x110|                              04               |          .     |                                  a: 4 0x11a-0x11a.7 (1)
0x110|                                 00            |           .    |                                  o: 0 0x11b-0x11b.7 (1)
0x110|                                    0b         |            .   |                            end: 11 (valid) 0x11c-0x11c.7 (1)
     |                                               |                |                          [1]{}: instr 0x11d-0x125.7 (9)
0x110|                                       02      |             .  |                            block: 0x2 (valid) 0x11d-0x11d.7 (1)
0x110|                                          7b   |              { |                            bt: "v128" (123) 0x11e-0x11e.7 (1)
     |                                               |                |                            instructions[0:2]: 0x11f-0x124.7 (6)
     |                                               |                |                              [0]{}: instr 0x11f-0x120.7 (2)
0x110|                                             41|               A|                                i32.const: 0x41 (valid) 0x11f-0x11f.7 (1)
0x120|01                                             |.               |                                n: 1 0x120-0x120.7 (1)
     |                                               |                |                              [1]{}: instr 0x121-0x124.7 (4)
0x120|   fd                                          | .              |                                prefix: 0xfd (valid) 0x121-0x121.7 (1)
0x120|      00                                       |  .             |                                v128.load: 0 (valid) 0x122-0x122.7 (1)
     |                                               |                |                                m{}: 0x123-0x124.7 (2)
0x120|         04                                    |   .            |                                  a: 4 0x123-0x123.7 (1)
0x120|            00                                 |    .           |                                  o: 0 0x124-0x124.7 (1)
0x120|               0b                              |     .          |                            end: 11 (valid) 0x125-0x125.7 (1)
     |                                               |                |                          [2]{}: instr 0x126-0x127.7 (2)
0x120|                  fd                           |      .         |                            prefix: 0xfd (valid) 0x126-0x126.7 (1)
0x120|                     43                        |       C        |                            f32x4.lt: 67 (valid) 0x127-0x127.7 (1)
0x120|                        0b                     |        .       |                        end: 11 (valid) 0x128-0x128.7 (1)
     |                                               |                |                      [1]{}: instr 0x129-0x129.7 (1)
0x120|                           1a                  |         .      |                        drop: 0x1a (valid) 0x129-0x129.7 (1)
0x120|                              0b               |          .     |                    end: 11 (valid) 0x12a-0x12a.7 (1)
     |                                               |                |                  [1]{}: in 0x12b-0x12b.7 (1)
0x120|                                 0b            |           .    |                    end: 0xb (valid) 0x12b-0x12b.7 (1)
     |                                               |                |            [3]{}: code 0x12c-0x149.7 (30)
0x120|                                    1d         |            .   |              size: 29 0x12c-0x12c.7 (1)
     |                                               |                |              code{}: 0x12d-0x149.7 (29)
     |                                               |                |                t{}: 0x12d-0x12d.7 (1)
0x120|                                       00      |             .  |                  n: 0 0x12d-0x12d.7 (1)
     |                                               |                |                  x[0:0]: 0x12e-NA (0)
     |                                               |                |                e[0:2]: 0x12e-0x149.7 (28)
     |                                               |                |                  [0]{}: in 0x12e-0x148.7 (27)
0x120|                                          02   |              . |                    block: 0x2 (valid) 0x12e-0x12e.7 (1)
0x120|                                             40|               @|                    bt: "ε" (64) 0x12f-0x12f.7 (1)
     |                                               |                |                    instructions[0:2]: 0x130-0x147.7 (24)
     |                                               |                |                      [0]{}: instr 0x130-0x146.7 (23)
0x130|02                                             |.               |                        block: 0x2 (valid) 0x130-0x130.7 (1)
0x130|   7b                                          | {              |                        bt: "v128" (123) 0x131-0x131.7 (1)
     |                                               |                |                        instructions[0:3]: 0x132-0x145.7 (20)
     |                                               |                |                          [0]{}: instr 0x132-0x13a.7 (9)
0x130|      02                                       |  .             |                            block: 0x2 (valid) 0x132-0x132.7 (1)
0x130|         7b                                    |   {            |                            bt: "v128" (123) 0x133-0x133.7 (1)
     |                                               |                |                            instructions[0:2]: 0x134-0x139.7 (6)
     |                                               |                |                              [0]{}: instr 0x134-0x135.7 (2)
0x130|            41                                 |    A           |                                i32.const: 0x41 (valid) 0x134-0x134.7 (1)
0x130|               00                              |     .          |                                n: 0 0x135-0x135.7 (1)
     |                                               |                |                              [1]{}: instr 0x136-0x139.7 (4)
0x130|                  fd                           |      .         |                                prefix: 0xfd (valid) 0x136-0x136.7 (1)
0x130|                     00                        |       .        |                                v128.load: 0 (valid) 0x137-0x137.7 (1)
     |                                               |                |                                m{}: 0x138-0x139.7 (2)
0x130|                        04                     |        .       |                                  a: 4 0x138-0x138.7 (1)
0x130|                           00                  |         .      |                                  o: 0 0x139-0x139.7 (1)
0x130|                              0b               |          .     |                            end: 11 (valid) 0x13a-0x13a.7 (1)
     |                                               |                |                          [1]{}: instr 0x13b-0x143.7 (9)
0x130|                                 02            |           .    |                            block: 0x2 (valid) 0x13b-0x13b.7 (1)
0x130|                                    7b         |            {   |                            bt: "v128" (123) 0x13c-0x13c.7 (1)
     |                                               |                |                            instructions[0:2]: 0x13d-0x142.7 (6)
     |                                               |                |                              [0]{}: instr 0x13d-0x13e.7 (2)
0x130|                                       41      |             A  |                                i32.const: 0x41 (valid) 0x13d-0x13d.7 (1)
0x130|                                          01   |              . |                                n: 1 0x13e-0x13e.7 (1)
     |                                               |                |                              [1]{}: instr 0x13f-0x142.7 (4)
0x130|                                             fd|               .|                                prefix: 0xfd (valid) 0x13f-0x13f.7 (1)
0x140|00                                             |.               |                                v128.load: 0 (valid) 0x140-0x140.7 (1)
     |                                               |                |                                m{}: 0x141-0x142.7 (2)
0x140|   04                                          | .              |                                  a: 4 0x141-0x141.7 (1)
0x140|      00                                       |  .             |                                  o: 0 0x142-0x142.7 (1)
0x140|         0b                                    |   .            |                            end: 11 (valid) 0x143-0x143.7 (1)
     |                                               |                |                          [2]{}: instr 0x144-0x145.7 (2)
0x140|            fd                                 |    .           |                            prefix: 0xfd (valid) 0x144-0x144.7 (1)
0x140|               45                              |     E          |                            f32x4.le: 69 (valid) 0x145-0x145.7 (1)
0x140|                  0b                           |      .         |                        end: 11 (valid) 0x146-0x146.7 (1)
     |                                               |                |                      [1]{}: instr 0x147-0x147.7 (1)
0x140|                     1a                        |       .        |                        drop: 0x1a (valid) 0x147-0x147.7 (1)
0x140|                        0b                     |        .       |                    end: 11 (valid) 0x148-0x148.7 (1)
     |                                               |                |                  [1]{}: in 0x149-0x149.7 (1)
0x140|                           0b                  |         .      |                    end: 0xb (valid) 0x149-0x149.7 (1)
     |                                               |                |            [4]{}: code 0x14a-0x167.7 (30)
0x140|                              1d               |          .     |              size: 29 0x14a-0x14a.7 (1)
     |                                               |                |              code{}: 0x14b-0x167.7 (29)
     |                                               |                |                t{}: 0x14b-0x14b.7 (1)
0x140|                                 00            |           .    |                  n: 0 0x14b-0x14b.7 (1)
     |                                               |                |                  x[0:0]: 0x14c-NA (0)
     |                                               |                |                e[0:2]: 0x14c-0x167.7 (28)
     |                                               |                |                  [0]{}: in 0x14c-0x166.7 (27)
0x140|                                    02         |            .   |                    block: 0x2 (valid) 0x14c-0x14c.7 (1)
0x140|                                       40      |             @  |                    bt: "ε" (64) 0x14d-0x14d.7 (1)
     |                                               |                |                    instructions[0:2]: 0x14e-0x165.7 (24)
     |                                               |                |                      [0]{}: instr 0x14e-0x164.7 (23)
0x140|                                          02   |              . |                        block: 0x2 (valid) 0x14e-0x14e.7 (1)
0x140|                                             7b|               {|                        bt: "v128" (123) 0x14f-0x14f.7 (1)
     |                                               |                |                        instructions[0:3]: 0x150-0x163.7 (20)
     |                                               |                |                          [0]{}: instr 0x150-0x158.7 (9)
0x150|02                                             |.               |                            block: 0x2 (valid) 0x150-0x150.7 (1)
0x150|   7b                                          | {              |                            bt: "v128" (123) 0x151-0x151.7 (1)
     |                                               |                |                            instructions[0:2]: 0x152-0x157.7 (6)
     |                                               |                |                              [0]{}: instr 0x152-0x153.7 (2)
0x150|      41                                       |  A             |                                i32.const: 0x41 (valid) 0x152-0x152.7 (1)
0x150|         00                                    |   .            |                                n: 0 0x153-0x153.7 (1)
     |                                               |                |                              [1]{}: instr 0x154-0x157.7 (4)
0x150|            fd                                 |    .           |                                prefix: 0xfd (valid) 0x154-0x154.7 (1)
0x150|               00                              |     .          |                                v128.load: 0 (valid) 0x155-0x155.7 (1)
     |                                               |                |                                m{}: 0x156-0x157.7 (2)
0x150|                  04                           |      .         |                                  a: 4 0x156-0x156.7 (1)
0x150|                     00                        |       .        |                                  o: 0 0x157-0x157.7 (1)
0x150|                        0b                     |        .       |                            end: 11 (valid) 0x158-0x158.7 (1)
     |                                               |                |                          [1]{}: instr 0x159-0x161.7 (9)
0x150|                           02                  |         .      |                            block: 0x2 (valid) 0x159-0x159.7 (1)
0x150|                              7b               |          {     |                            bt: "v128" (123) 0x15a-0x15a.7 (1)
     |                                               |                |                            instructions[0:2]: 0x15b-0x160.7 (6)
     |                                               |                |                              [0]{}: instr 0x15b-0x15c.7 (2)
0x150|                                 41            |           A    |                                i32.const: 0x41 (valid) 0x15b-0x15b.7 (1)
0x150|                                    01         |            .   |                                n: 1 0x15c-0x15c.7 (1)
     |                                               |                |                              [1]{}: instr 0x15d-0x160.7 (4)
0x150|                                       fd      |             .  |                                prefix: 0xfd (valid) 0x15d-0x15d.7 (1)
0x150|                                          00   |              . |                                v128.load: 0 (valid) 0x15e-0x15e.7 (1)
     |                                               |                |                                m{}: 0x15f-0x160.7 (2)
0x150|                                             04|               .|                                  a: 4 0x15f-0x15f.7 (1)
0x160|00                                             |.               |                                  o: 0 0x160-0x160.7 (1)
0x160|   0b                                          | .              |                            end: 11 (valid) 0x161-0x161.7 (1)
     |                                               |                |                          [2]{}: instr 0x162-0x163.7 (2)
0x160|      fd                                       |  .             |                            prefix: 0xfd (valid) 0x162-0x162.7 (1)
0x160|         44                                    |   D            |                            f32x4.gt: 68 (valid) 0x163-0x163.7 (1)
0x160|            0b                                 |    .           |                        end: 11 (valid) 0x164-0x164.7 (1)
     |                                               |                |                      [1]{}: instr 0x165-0x165.7 (1)
0x160|               1a                              |     .          |                        drop: 0x1a (valid) 0x165-0x165.7 (1)
0x160|                  0b                           |      .         |                    end: 11 (valid) 0x166-0x166.7 (1)
     |                                               |                |                  [1]{}: in 0x167-0x167.7 (1)
0x160|                     0b                        |       .        |                    end: 0xb (valid) 0x167-0x167.7 (1)
     |                                               |                |            [5]{}: code 0x168-0x185.7 (30)
0x160|                        1d                     |        .       |              size: 29 0x168-0x168.7 (1)
     |                                               |                |              code{}: 0x169-0x185.7 (29)
     |                                               |                |                t{}: 0x169-0x169.7 (1)
0x160|                           00                  |         .      |                  n: 0 0x169-0x169.7 (1)
     |                                               |                |                  x[0:0]: 0x16a-NA (0)
     |                                               |                |                e[0:2]: 0x16a-0x185.7 (28)
     |                                               |                |                  [0]{}: in 0x16a-0x184.7 (27)
0x160|                              02               |          .     |                    block: 0x2 (valid) 0x16a-0x16a.7 (1)
0x160|                                 40            |           @    |                    bt: "ε" (64) 0x16b-0x16b.7 (1)
     |                                               |                |                    instructions[0:2]: 0x16c-0x183.7 (24)
     |                                               |                |                      [0]{}: instr 0x16c-0x182.7 (23)
0x160|                                    02         |            .   |                        block: 0x2 (valid) 0x16c-0x16c.7 (1)
0x160|                                       7b      |             {  |                        bt: "v128" (123) 0x16d-0x16d.7 (1)
     |                                               |                |                        instructions[0:3]: 0x16e-0x181.7 (20)
     |                                               |                |                          [0]{}: instr 0x16e-0x176.7 (9)
0x160|                                          02   |              . |                            block: 0x2 (valid) 0x16e-0x16e.7 (1)
0x160|                                             7b|               {|                            bt: "v128" (123) 0x16f-0x16f.7 (1)
     |                                               |                |                            instructions[0:2]: 0x170-0x175.7 (6)
     |                                               |                |                              [0]{}: instr 0x170-0x171.7 (2)
0x170|41                                             |A               |                                i32.const: 0x41 (valid) 0x170-0x170.7 (1)
0x170|   00                                          | .              |                                n: 0 0x171-0x171.7 (1)
     |                                               |                |                              [1]{}: instr 0x172-0x175.7 (4)
0x170|      fd                                       |  .             |                                prefix: 0xfd (valid) 0x172-0x172.7 (1)
0x170|         00                                    |   .            |                                v128.load: 0 (valid) 0x173-0x173.7 (1)
     |                                               |                |                                m{}: 0x174-0x175.7 (2)
0x170|            04                                 |    .           |                                  a: 4 0x174-0x174.7 (1)
0x170|               00                              |     .          |                                  o: 0 0x175-0x175.7 (1)
0x170|                  0b                           |      .         |                            end: 11 (valid) 0x176-0x176.7 (1)
     |                                               |                |                          [1]{}: instr 0x177-0x17f.7 (9)
0x170|                     02                        |       .        |                            block: 0x2 (valid) 0x177-0x177.7 (1)
0x170|                        7b                     |        {       |                            bt: "v128" (123) 0x178-0x178.7 (1)
     |                                               |                |                            instructions[0:2]: 0x179-0x17e.7 (6)
     |                                               |                |                              [0]{}: instr 0x179-0x17a.7 (2)
0x170|                           41                  |         A      |                                i32.const: 0x41 (valid) 0x179-0x179.7 (1)
0x170|                              01               |          .     |                                n: 1 0x17a-0x17a.7 (1)
     |                                               |                |                              [1]{}: instr 0x17b-0x17e.7 (4)
0x170|                                 fd            |           .    |                                prefix: 0xfd (valid) 0x17b-0x17b.7 (1)
0x170|                                    00         |            .   |                                v128.load: 0 (valid) 0x17c-0x17c.7 (1)
     |                                               |                |                                m{}: 0x17d-0x17e.7 (2)
0x170|                                       04      |             .  |                                  a: 4 0x17d-0x17d.7 (1)
0x170|                                          00   |              . |                                  o: 0 0x17e-0x17e.7 (1)
0x170|                                             0b|               .|                            end: 11 (valid) 0x17f-0x17f.7 (1)
     |                                               |                |                          [2]{}: instr 0x180-0x181.7 (2)
0x180|fd                                             |.               |                            prefix: 0xfd (valid) 0x180-0x180.7 (1)
0x180|   46                                          | F              |                            f32x4.ge: 70 (valid) 0x181-0x181.7 (1)
0x180|      0b                                       |  .             |                        end: 11 (valid) 0x182-0x182.7 (1)
     |                                               |                |                      [1]{}: instr 0x183-0x183.7 (1)
0x180|         1a                                    |   .            |                        drop: 0x1a (valid) 0x183-0x183.7 (1)
0x180|            0b                                 |    .           |                    end: 11 (valid) 0x184-0x184.7 (1)
     |                                               |                |                  [1]{}: in 0x185-0x185.7 (1)
0x180|               0b                              |     .          |                    end: 0xb (valid) 0x185-0x185.7 (1)
     |                                               |                |            [6]{}: code 0x186-0x1c7.7 (66)
0x180|                  41                           |      A         |              size: 65 0x186-0x186.7 (1)
     |                                               |                |              code{}: 0x187-0x1c7.7 (65)
     |                                               |                |                t{}: 0x187-0x187.7 (1)
0x180|                     00                        |       .        |                  n: 0 0x187-0x187.7 (1)
     |                                               |                |                  x[0:0]: 0x188-NA (0)
     |                                               |                |                e[0:25]: 0x188-0x1c7.7 (64)
     |                                               |                |                  [0]{}: in 0x188-0x189.7 (2)
0x180|                        41                     |        A       |                    i32.const: 0x41 (valid) 0x188-0x188.7 (1)
0x180|                           00                  |         .      |                    n: 0 0x189-0x189.7 (1)
     |                                               |                |                  [1]{}: in 0x18a-0x18d.7 (4)
0x180|                              fd               |          .     |                    prefix: 0xfd (valid) 0x18a-0x18a.7 (1)
0x180|                                 00            |           .    |                    v128.load: 0 (valid) 0x18b-0x18b.7 (1)
     |                                               |                |                    m{}: 0x18c-0x18d.7 (2)
0x180|                                    04         |            .   |                      a: 4 0x18c-0x18c.7 (1)
0x180|                                       00      |             .  |                      o: 0 0x18d-0x18d.7 (1)
     |                                               |                |                  [2]{}: in 0x18e-0x18f.7 (2)
0x180|                                          41   |              A |                    i32.const: 0x41 (valid) 0x18e-0x18e.7 (1)
0x180|                                             01|               .|                    n: 1 0x18f-0x18f.7 (1)
     |                                               |                |                  [3]{}: in 0x190-0x193.7 (4)
0x190|fd                                             |.               |                    prefix: 0xfd (valid) 0x190-0x190.7 (1)
0x190|   00                                          | .              |                    v128.load: 0 (valid) 0x191-0x191.7 (1)
     |                                               |                |                    m{}: 0x192-0x193.7 (2)
0x190|      04                                       |  .             |                      a: 4 0x192-0x192.7 (1)
0x190|         00                                    |   .            |                      o: 0 0x193-0x193.7 (1)
     |                                               |                |                  [4]{}: in 0x194-0x195.7 (2)
0x190|            fd                                 |    .           |                    prefix: 0xfd (valid) 0x194-0x194.7 (1)
0x190|               41                              |     A          |                    f32x4.eq: 65 (valid) 0x195-0x195.7 (1)
     |                                               |                |                  [5]{}: in 0x196-0x197.7 (2)
0x190|                  41                           |      A         |                    i32.const: 0x41 (valid) 0x196-0x196.7 (1)
0x190|                     02                        |       .        |                    n: 2 0x197-0x197.7 (1)
     |                                               |                |                  [6]{}: in 0x198-0x19b.7 (4)
0x190|                        fd                     |        .       |                    prefix: 0xfd (valid) 0x198-0x198.7 (1)
0x190|                           00                  |         .      |                    v128.load: 0 (valid) 0x199-0x199.7 (1)
     |                                               |                |                    m{}: 0x19a-0x19b.7 (2)
0x190|                              04               |          .     |                      a: 4 0x19a-0x19a.7 (1)
0x190|                                 00            |           .    |                      o: 0 0x19b-0x19b.7 (1)
     |                                               |                |                  [7]{}: in 0x19c-0x19d.7 (2)
0x190|                                    41         |            A   |                    i32.const: 0x41 (valid) 0x19c-0x19c.7 (1)
0x190|                                       03      |             .  |                    n: 3 0x19d-0x19d.7 (1)
     |                                               |                |                  [8]{}: in 0x19e-0x1a1.7 (4)
0x190|                                          fd   |              . |                    prefix: 0xfd (valid) 0x19e-0x19e.7 (1)
0x190|                                             00|               .|                    v128.load: 0 (valid) 0x19f-0x19f.7 (1)
     |                                               |                |                    m{}: 0x1a0-0x1a1.7 (2)
0x1a0|04                                             |.               |                      a: 4 0x1a0-0x1a0.7 (1)
0x1a0|   00                                          | .              |                      o: 0 0x1a1-0x1a1.7 (1)
     |                                               |                |                  [9]{}: in 0x1a2-0x1a3.7 (2)
0x1a0|      fd                                       |  .             |                    prefix: 0xfd (valid) 0x1a2-0x1a2.7 (1)
0x1a0|         41                                    |   A            |                    f32x4.eq: 65 (valid) 0x1a3-0x1a3.7 (1)
     |                                               |                |                  [10]{}: in 0x1a4-0x1a5.7 (2)
0x1a0|            fd                                 |    .           |                    prefix: 0xfd (valid) 0x1a4-0x1a4.7 (1)
0x1a0|               41                              |     A          |                    f32x4.eq: 65 (valid) 0x1a5-0x1a5.7 (1)
     |                                               |                |                  [11]{}: in 0x1a6-0x1a7.7 (2)
0x1a0|                  41                           |      A         |                    i32.const: 0x41 (valid) 0x1a6-0x1a6.7 (1)
0x1a0|                     00                        |       .        |                    n: 0 0x1a7-0x1a7.7 (1)
     |                                               |                |                  [12]{}: in 0x1a8-0x1ab.7 (4)
0x1a0|                        fd                     |        .       |                    prefix: 0xfd (valid) 0x1a8-0x1a8.7 (1)
0x1a0|                           00                  |         .      |                    v128.load: 0 (valid) 0x1a9-0x1a9.7 (1)
     |                                               |                |                    m{}: 0x1aa-0x1ab.7 (2)
0x1a0|                              04               |          .     |                      a: 4 0x1aa-0x1aa.7 (1)
0x1a0|                                 00            |           .    |                      o: 0 0x1ab-0x1ab.7 (1)
     |                                               |                |                  [13]{}: in 0x1ac-0x1ad.7 (2)
0x1a0|                                    41         |            A   |                    i32.const: 0x41 (valid) 0x1ac-0x1ac.7 (1)
0x1a0|                                       01      |             .  |                    n: 1 0x1ad-0x1ad.7 (1)
     |                                               |                |                  [14]{}: in 0x1ae-0x1b1.7 (4)
0x1a0|                                          fd   |              . |                    prefix: 0xfd (valid) 0x1ae-0x1ae.7 (1)
0x1a0|                                             00|               .|                    v128.load: 0 (valid) 0x1af-0x1af.7 (1)
     |                                               |                |                    m{}: 0x1b0-0x1b1.7 (2)
0x1b0|04                                             |.               |                      a: 4 0x1b0-0x1b0.7 (1)
0x1b0|   00                                          | .              |                      o: 0 0x1b1-0x1b1.7 (1)
     |                                               |                |                  [15]{}: in 0x1b2-0x1b3.7 (2)
0x1b0|      fd                                       |  .             |                    prefix: 0xfd (valid) 0x1b2-0x1b2.7 (1)
0x1b0|         41                                    |   A            |                    f32x4.eq: 65 (valid) 0x1b3-0x1b3.7 (1)
     |                                               |                |                  [16]{}: in 0x1b4-0x1b5.7 (2)
0x1b0|            41                                 |    A           |                    i32.const: 0x41 (valid) 0x1b4-0x1b4.7 (1)
0x1b0|               02                              |     .          |                    n: 2 0x1b5-0x1b5.7 (1)
     |                                               |                |                  [17]{}: in 0x1b6-0x1b9.7 (4)
0x1b0|                  fd                           |      .         |                    prefix: 0xfd (valid) 0x1b6-0x1b6.7 (1)
0x1b0|                     00                        |       .        |                    v128.load: 0 (valid) 0x1b7-0x1b7.7 (1)
     |                                               |                |                    m{}: 0x1b8-0x1b9.7 (2)
0x1b0|                        04                     |        .       |                      a: 4 0x1b8-0x1b8.7 (1)
0x1b0|                           00                  |         .      |                      o: 0 0x1b9-0x1b9.7 (1)
     |                                               |                |                  [18]{}: in 0x1ba-0x1bb.7 (2)
0x1b0|                              41               |          A     |                    i32.const: 0x41 (valid) 0x1ba-0x1ba.7 (1)
0x1b0|                                 03            |           .    |                    n: 3 0x1bb-0x1bb.7 (1)
     |                                               |                |                  [19]{}: in 0x1bc-0x1bf.7 (4)
0x1b0|                                    fd         |            .   |                    prefix: 0xfd (valid) 0x1bc-0x1bc.7 (1)
0x1b0|                                       00      |             .  |                    v128.load: 0 (valid) 0x1bd-0x1bd.7 (1)
     |                                               |                |                    m{}: 0x1be-0x1bf.7 (2)
0x1b0|                                          04   |              . |                      a: 4 0x1be-0x1be.7 (1)
0x1b0|                                             00|               .|                      o: 0 0x1bf-0x1bf.7 (1)
     |                                               |                |                  [20]{}: in 0x1c0-0x1c1.7 (2)
0x1c0|fd                                             |.               |                    prefix: 0xfd (valid) 0x1c0-0x1c0.7 (1)
0x1c0|   41                                          | A              |                    f32x4.eq: 65 (valid) 0x1c1-0x1c1.7 (1)
     |                                               |                |                  [21]{}: in 0x1c2-0x1c3.7 (2)
0x1c0|      fd                                       |  .             |                    prefix: 0xfd (valid) 0x1c2-0x1c2.7 (1)
0x1c0|         41                                    |   A            |                    f32x4.eq: 65 (valid) 0x1c3-0x1c3.7 (1)
     |                                               |                |                  [22]{}: in 0x1c4-0x1c5.7 (2)
0x1c0|            fd                                 |    .           |                    prefix: 0xfd (valid) 0x1c4-0x1c4.7 (1)
0x1c0|               41                              |     A          |                    f32x4.eq: 65 (valid) 0x1c5-0x1c5.7 (1)
     |                                               |                |                  [23]{}: in 0x1c6-0x1c6.7 (1)
0x1c0|                  1a                           |      .         |                    drop: 0x1a (valid) 0x1c6-0x1c6.7 (1)
     |                                               |                |                  [24]{}: in 0x1c7-0x1c7.7 (1)
0x1c0|                     0b                        |       .        |                    end: 0xb (valid) 0x1c7-0x1c7.7 (1)
     |                                               |                |            [7]{}: code 0x1c8-0x209.7 (66)
0x1c0|                        41                     |        A       |              size: 65 0x1c8-0x1c8.7 (1)
     |                                               |                |              code{}: 0x1c9-0x209.7 (65)
     |                                               |                |                t{}: 0x1c9-0x1c9.7 (1)
0x1c0|                           00                  |         .      |                  n: 0 0x1c9-0x1c9.7 (1)
     |                                               |                |                  x[0:0]: 0x1ca-NA (0)
     |                                               |                |                e[0:25]: 0x1ca-0x209.7 (64)
     |                                               |                |                  [0]{}: in 0x1ca-0x1cb.7 (2)
0x1c0|                              41               |          A     |                    i32.const: 0x41 (valid) 0x1ca-0x1ca.7 (1)
0x1c0|                                 00            |           .    |                    n: 0 0x1cb-0x1cb.7 (1)
     |                                               |                |                  [1]{}: in 0x1cc-0x1cf.7 (4)
0x1c0|                                    fd         |            .   |                    prefix: 0xfd (valid) 0x1cc-0x1cc.7 (1)
0x1c0|                                       00      |             .  |                    v128.load: 0 (valid) 0x1cd-0x1cd.7 (1)
     |                                               |                |                    m{}: 0x1ce-0x1cf.7 (2)
0x1c0|                                          04   |              . |                      a: 4 0x1ce-0x1ce.7 (1)
0x1c0|                                             00|               .|                      o: 0 0x1cf-0x1cf.7 (1)
     |                                               |                |                  [2]{}: in 0x1d0-0x1d1.7 (2)
0x1d0|41                                             |A               |                    i32.const: 0x41 (valid) 0x1d0-0x1d0.7 (1)
0x1d0|   01                                          | .              |                    n: 1 0x1d1-0x1d1.7 (1)
     |                                               |                |                  [3]{}: in 0x1d2-0x1d5.7 (4)
0x1d0|      fd                                       |  .             |                    prefix: 0xfd (valid) 0x1d2-0x1d2.7 (1)
0x1d0|         00                                    |   .            |                    v128.load: 0 (valid) 0x1d3-0x1d3.7 (1)
     |                                               |                |                    m{}: 0x1d4-0x1d5.7 (2)
0x1d0|            04                                 |    .           |                      a: 4 0x1d4-0x1d4.7 (1)
0x1d0|               00                              |     .          |                      o: 0 0x1d5-0x1d5.7 (1)
     |                                               |                |                  [4]{}: in 0x1d6-0x1d7.7 (2)
0x1d0|                  fd                           |      .         |                    prefix: 0xfd (valid) 0x1d6-0x1d6.7 (1)
0x1d0|                     42                        |       B        |                    f32x4.ne: 66 (valid) 0x1d7-0x1d7.7 (1)
     |                                               |                |                  [5]{}: in 0x1d8-0x1d9.7 (2)
0x1d0|                        41                     |        A       |                    i32.const: 0x41 (valid) 0x1d8-0x1d8.7 (1)
0x1d0|                           02                  |         .      |                    n: 2 0x1d9-0x1d9.7 (1)
     |                                               |                |                  [6]{}: in 0x1da-0x1dd.7 (4)
0x1d0|                              fd               |          .     |                    prefix: 0xfd (valid) 0x1da-0x1da.7 (1)
0x1d0|                                 00            |           .    |                    v128.load: 0 (valid) 0x1db-0x1db.7 (1)
     |                                               |                |                    m{}: 0x1dc-0x1dd.7 (2)
0x1d0|                                    04         |            .   |                      a: 4 0x1dc-0x1dc.7 (1)
0x1d0|                                       00      |             .  |                      o: 0 0x1dd-0x1dd.7 (1)
     |                                               |                |                  [7]{}: in 0x1de-0x1df.7 (2)
0x1d0|                                          41   |              A |                    i32.const: 0x41 (valid) 0x1de-0x1de.7 (1)
0x1d0|                                             03|               .|                    n: 3 0x1df-0x1df.7 (1)
     |                                               |                |                  [8]{}: in 0x1e0-0x1e3.7 (4)
0x1e0|fd                                             |.               |                    prefix: 0xfd (valid) 0x1e0-0x1e0.7 (1)
0x1e0|   00                                          | .              |                    v128.load: 0 (valid) 0x1e1-0x1e1.7 (1)
     |                                               |                |                    m{}: 0x1e2-0x1e3.7 (2)
0x1e0|      04                                       |  .             |                      a: 4 0x1e2-0x1e2.7 (1)
0x1e0|         00                                    |   .            |                      o: 0 0x1e3-0x1e3.7 (1)
     |                                               |                |                  [9]{}: in 0x1e4-0x1e5.7 (2)
0x1e0|            fd                                 |    .           |                    prefix: 0xfd (valid) 0x1e4-0x1e4.7 (1)
0x1e0|               42                              |     B          |                    f32x4.ne: 66 (valid) 0x1e5-0x1e5.7 (1)
     |                                               |                |                  [10]{}: in 0x1e6-0x1e7.7 (2)
0x1e0|                  fd                           |      .         |                    prefix: 0xfd (valid) 0x1e6-0x1e6.7 (1)
0x1e0|                     42                        |       B        |                    f32x4.ne: 66 (valid) 0x1e7-0x1e7.7 (1)
     |                                               |                |                  [11]{}: in 0x1e8-0x1e9.7 (2)
0x1e0|                        41                     |        A       |                    i32.const: 0x41 (valid) 0x1e8-0x1e8.7 (1)
0x1e0|                           00                  |         .      |                    n: 0 0x1e9-0x1e9.7 (1)
     |                                               |                |                  [12]{}: in 0x1ea-0x1ed.7 (4)
0x1e0|                              fd               |          .     |                    prefix: 0xfd (valid) 0x1ea-0x1ea.7 (1)
0x1e0|                                 00            |           .    |                    v128.load: 0 (valid) 0x1eb-0x1eb.7 (1)
     |                                               |                |                    m{}: 0x1ec-0x1ed.7 (2)
0x1e0|                                    04         |            .   |                      a: 4 0x1ec-0x1ec.7 (1)
0x1e0|                                       00      |             .  |                      o: 0 0x1ed-0x1ed.7 (1)
     |                                               |                |                  [13]{}: in 0x1ee-0x1ef.7 (2)
0x1e0|                                          41   |              A |                    i32.const: 0x41 (valid) 0x1ee-0x1ee.7 (1)
0x1e0|                                             01|               .|                    n: 1 0x1ef-0x1ef.7 (1)
     |                                               |                |                  [14]{}: in 0x1f0-0x1f3.7 (4)
0x1f0|fd                                             |.               |                    prefix: 0xfd (valid) 0x1f0-0x1f0.7 (1)
0x1f0|   00                                          | .              |                    v128.load: 0 (valid) 0x1f1-0x1f1.7 (1)
     |                                               |                |                    m{}: 0x1f2-0x1f3.7 (2)
0x1f0|      04                                       |  .             |                      a: 4 0x1f2-0x1f2.7 (1)
0x1f0|         00                                    |   .            |                      o: 0 0x1f3-0x1f3.7 (1)
     |                                               |                |                  [15]{}: in 0x1f4-0x1f5.7 (2)
0x1f0|            fd                                 |    .           |                    prefix: 0xfd (valid) 0x1f4-0x1f4.7 (1)
0x1f0|               42                              |     B          |                    f32x4.ne: 66 (valid) 0x1f5-0x1f5.7 (1)
     |                                               |                |                  [16]{}: in 0x1f6-0x1f7.7 (2)
0x1f0|                  41                           |      A         |                    i32.const: 0x41 (valid) 0x1f6-0x1f6.7 (1)
0x1f0|                     02                        |       .        |                    n: 2 0x1f7-0x1f7.7 (1)
     |                                               |                |                  [17]{}: in 0x1f8-0x1fb.7 (4)
0x1f0|                        fd                     |        .       |                    prefix: 0xfd (valid) 0x1f8-0x1f8.7 (1)
0x1f0|                           00                  |         .      |                    v128.load: 0 (valid) 0x1f9-0x1f9.7 (1)
     |                                               |                |                    m{}: 0x1fa-0x1fb.7 (2)
0x1f0|                              04               |          .     |                      a: 4 0x1fa-0x1fa.7 (1)
0x1f0|                                 00            |           .    |                      o: 0 0x1fb-0x1fb.7 (1)
     |                                               |                |                  [18]{}: in 0x1fc-0x1fd.7 (2)
0x1f0|                                    41         |            A   |                    i32.const: 0x41 (valid) 0x1fc-0x1fc.7 (1)
0x1f0|                                       03      |             .  |                    n: 3 0x1fd-0x1fd.7 (1)
     |                                               |                |                  [19]{}: in 0x1fe-0x201.7 (4)
0x1f0|                                          fd   |              . |                    prefix: 0xfd (valid) 0x1fe-0x1fe.7 (1)
0x1f0|                                             00|               .|                    v128.load: 0 (valid) 0x1ff-0x1ff.7 (1)
     |                                               |                |                    m{}: 0x200-0x201.7 (2)
0x200|04                                             |.               |                      a: 4 0x200-0x200.7 (1)
0x200|   00                                          | .              |                      o: 0 0x201-0x201.7 (1)
     |                                               |                |                  [20]{}: in 0x202-0x203.7 (2)
0x200|      fd                                       |  .             |                    prefix: 0xfd (valid) 0x202-0x202.7 (1)
0x200|         42                                    |   B            |                    f32x4.ne: 66 (valid) 0x203-0x203.7 (1)
     |                                               |                |                  [21]{}: in 0x204-0x205.7 (2)
0x200|            fd                                 |    .           |                    prefix: 0xfd (valid) 0x204-0x204.7 (1)
0x200|               42                              |     B          |                    f32x4.ne: 66 (valid) 0x205-0x205.7 (1)
     |                                               |                |                  [22]{}: in 0x206-0x207.7 (2)
0x200|                  fd                           |      .         |                    prefix: 0xfd (valid) 0x206-0x206.7 (1)
0x200|                     42                        |       B        |                    f32x4.ne: 66 (valid) 0x207-0x207.7 (1)
     |                                               |                |                  [23]{}: in 0x208-0x208.7 (1)
0x200|                        1a                     |        .       |                    drop: 0x1a (valid) 0x208-0x208.7 (1)
     |                                               |                |                  [24]{}: in 0x209-0x209.7 (1)
0x200|                           0b                  |         .      |                    end: 0xb (valid) 0x209-0x209.7 (1)
     |                                               |                |            [8]{}: code 0x20a-0x24b.7 (66)
0x200|                              41               |          A     |              size: 65 0x20a-0x20a.7 (1)
     |                                               |                |              code{}: 0x20b-0x24b.7 (65)
     |                                               |                |                t{}: 0x20b-0x20b.7 (1)
0x200|                                 00            |           .    |                  n: 0 0x20b-0x20b.7 (1)
     |                                               |                |                  x[0:0]: 0x20c-NA (0)
     |                                               |                |                e[0:25]: 0x20c-0x24b.7 (64)
     |                                               |                |                  [0]{}: in 0x20c-0x20d.7 (2)
0x200|                                    41         |            A   |                    i32.const: 0x41 (valid) 0x20c-0x20c.7 (1)
0x200|                                       00      |             .  |                    n: 0 0x20d-0x20d.7 (1)
     |                                               |                |                  [1]{}: in 0x20e-0x211.7 (4)
0x200|                                          fd   |              . |                    prefix: 0xfd (valid) 0x20e-0x20e.7 (1)
0x200|                                             00|               .|                    v128.load: 0 (valid) 0x20f-0x20f.7 (1)
     |                                               |                |                    m{}: 0x210-0x211.7 (2)
0x210|04                                             |.               |                      a: 4 0x210-0x210.7 (1)
0x210|   00                                          | .              |                      o: 0 0x211-0x211.7 (1)
     |                                               |                |                  [2]{}: in 0x212-0x213.7 (2)
0x210|      41                                       |  A             |                    i32.const: 0x41 (valid) 0x212-0x212.7 (1)
0x210|         01                                    |   .            |                    n: 1 0x213-0x213.7 (1)
     |                                               |                |                  [3]{}: in 0x214-0x217.7 (4)
0x210|            fd                                 |    .           |                    prefix: 0xfd (valid) 0x214-0x214.7 (1)
0x210|               00                              |     .          |                    v128.load: 0 (valid) 0x215-0x215.7 (1)
     |                                               |                |                    m{}: 0x216-0x217.7 (2)
0x210|                  04                           |      .         |                      a: 4 0x216-0x216.7 (1)
0x210|                     00                        |       .        |                      o: 0 0x217-0x217.7 (1)
     |                                               |                |                  [4]{}: in 0x218-0x219.7 (2)
0x210|                        fd                     |        .       |                    prefix: 0xfd (valid) 0x218-0x218.7 (1)
0x210|                           43                  |         C      |                    f32x4.lt: 67 (valid) 0x219-0x219.7 (1)
     |                                               |                |                  [5]{}: in 0x21a-0x21b.7 (2)
0x210|                              41               |          A     |                    i32.const: 0x41 (valid) 0x21a-0x21a.7 (1)
0x210|                                 02            |           .    |                    n: 2 0x21b-0x21b.7 (1)
     |                                               |                |                  [6]{}: in 0x21c-0x21f.7 (4)
0x210|                                    fd         |            .   |                    prefix: 0xfd (valid) 0x21c-0x21c.7 (1)
0x210|                                       00      |             .  |                    v128.load: 0 (valid) 0x21d-0x21d.7 (1)
     |                                               |                |                    m{}: 0x21e-0x21f.7 (2)
0x210|                                          04   |              . |                      a: 4 0x21e-0x21e.7 (1)
0x210|                                             00|               .|                      o: 0 0x21f-0x21f.7 (1)
     |                                               |                |                  [7]{}: in 0x220-0x221.7 (2)
0x220|41                                             |A               |                    i32.const: 0x41 (valid) 0x220-0x220.7 (1)
0x220|   03                                          | .              |                    n: 3 0x221-0x221.7 (1)
     |                                               |                |                  [8]{}: in 0x222-0x225.7 (4)
0x220|      fd                                       |  .             |                    prefix: 0xfd (valid) 0x222-0x222.7 (1)
0x220|         00                                    |   .            |                    v128.load: 0 (valid) 0x223-0x223.7 (1)
     |                                               |                |                    m{}: 0x224-0x225.7 (2)
0x220|            04                                 |    .           |                      a: 4 0x224-0x224.7 (1)
0x220|               00                              |     .          |                      o: 0 0x225-0x225.7 (1)
     |                                               |                |                  [9]{}: in 0x226-0x227.7 (2)
0x220|                  fd                           |      .         |                    prefix: 0xfd (valid) 0x226-0x226.7 (1)
0x220|                     43                        |       C        |                    f32x4.lt: 67 (valid) 0x227-0x227.7 (1)
     |                                               |                |                  [10]{}: in 0x228-0x229.7 (2)
0x220|                        fd                     |        .       |                    prefix: 0xfd (valid) 0x228-0x228.7 (1)
0x220|                           43                  |         C      |                    f32x4.lt: 67 (valid) 0x229-0x229.7 (1)
     |                                               |                |                  [11]{}: in 0x22a-0x22b.7 (2)
0x220|                              41               |          A     |                    i32.const: 0x41 (valid) 0x22a-0x22a.7 (1)
0x220|                                 00            |           .    |                    n: 0 0x22b-0x22b.7 (1)
     |                                               |                |                  [12]{}: in 0x22c-0x22f.7 (4)
0x220|                                    fd         |            .   |                    prefix: 0xfd (valid) 0x22c-0x22c.7 (1)
0x220|                                       00      |             .  |                    v128.load: 0 (valid) 0x22d-0x22d.7 (1)
     |                                               |                |                    m{}: 0x22e-0x22f.7 (2)
0x220|                                          04   |              . |                      a: 4 0x22e-0x22e.7 (1)
0x220|                                             00|               .|                      o: 0 0x22f-0x22f.7 (1)
     |                                               |                |                  [13]{}: in 0x230-0x231.7 (2)
0x230|41                                             |A               |                    i32.const: 0x41 (valid) 0x230-0x230.7 (1)
0x230|   01                                          | .              |                    n: 1 0x231-0x231.7 (1)
     |                                               |                |                  [14]{}: in 0x232-0x235.7 (4)
0x230|      fd                                       |  .             |                    prefix: 0xfd (valid) 0x232-0x232.7 (1)
0x230|         00                                    |   .            |                    v128.load: 0 (valid) 0x233-0x233.7 (1)
     |                                               |                |                    m{}: 0x234-0x235.7 (2)
0x230|            04                                 |    .           |                      a: 4 0x234-0x234.7 (1)
0x230|               00                              |     .          |                      o: 0 0x235-0x235.7 (1)
     |                                               |                |                  [15]{}: in 0x236-0x237.7 (2)
0x230|                  fd                           |      .         |                    prefix: 0xfd (valid) 0x236-0x236.7 (1)
0x230|                     43                        |       C        |                    f32x4.lt: 67 (valid) 0x237-0x237.7 (1)
     |                                               |                |                  [16]{}: in 0x238-0x239.7 (2)
0x230|                        41                     |        A       |                    i32.const: 0x41 (valid) 0x238-0x238.7 (1)
0x230|                           02                  |         .      |                    n: 2 0x239-0x239.7 (1)
     |                                               |                |                  [17]{}: in 0x23a-0x23d.7 (4)
0x230|                              fd               |          .     |                    prefix: 0xfd (valid) 0x23a-0x23a.7 (1)
0x230|                                 00            |           .    |                    v128.load: 0 (valid) 0x23b-0x23b.7 (1)
     |                                               |                |                    m{}: 0x23c-0x23d.7 (2)
0x230|                                    04         |            .   |                      a: 4 0x23c-0x23c.7 (1)
0x230|                                       00      |             .  |                      o: 0 0x23d-0x23d.7 (1)
     |                                               |                |                  [18]{}: in 0x23e-0x23f.7 (2)
0x230|                                          41   |              A |                    i32.const: 0x41 (valid) 0x23e-0x23e.7 (1)
0x230|                                             03|               .|                    n: 3 0x23f-0x23f.7 (1)
     |                                               |                |                  [19]{}: in 0x240-0x243.7 (4)
0x240|fd                                             |.               |                    prefix: 0xfd (valid) 0x240-0x240.7 (1)
0x240|   00                                          | .              |                    v128.load: 0 (valid) 0x241-0x241.7 (1)
     |                                               |                |                    m{}: 0x242-0x243.7 (2)
0x240|      04                                       |  .             |                      a: 4 0x242-0x242.7 (1)
0x240|         00                                    |   .            |                      o: 0 0x243-0x243.7 (1)
     |                                               |                |                  [20]{}: in 0x244-0x245.7 (2)
0x240|            fd                                 |    .           |                    prefix: 0xfd (valid) 0x244-0x244.7 (1)
0x240|               43                              |     C          |                    f32x4.lt: 67 (valid) 0x245-0x245.7 (1)
     |                                               |                |                  [21]{}: in 0x246-0x247.7 (2)
0x240|                  fd                           |      .         |                    prefix: 0xfd (valid) 0x246-0x246.7 (1)
0x240|                     43                        |       C        |                    f32x4.lt: 67 (valid) 0x247-0x247.7 (1)
     |                                               |                |                  [22]{}: in 0x248-0x249.7 (2)
0x240|                        fd                     |        .       |                    prefix: 0xfd (valid) 0x248-0x248.7 (1)
0x240|                           43                  |         C      |                    f32x4.lt: 67 (valid) 0x249-0x249.7 (1)
     |                                               |                |                  [23]{}: in 0x24a-0x24a.7 (1)
0x240|                              1a               |          .     |                    drop: 0x1a (valid) 0x24a-0x24a.7 (1)
     |                                               |                |                  [24]{}: in 0x24b-0x24b.7 (1)
0x240|                                 0b            |           .    |                    end: 0xb (valid) 0x24b-0x24b.7 (1)
     |                                               |                |            [9]{}: code 0x24c-0x28d.7 (66)
0x240|                                    41         |            A   |              size: 65 0x24c-0x24c.7 (1)
     |                                               |                |              code{}: 0x24d-0x28d.7 (65)
     |                                               |                |                t{}: 0x24d-0x24d.7 (1)
0x240|                                       00      |             .  |                  n: 0 0x24d-0x24d.7 (1)
     |                                               |                |                  x[0:0]: 0x24e-NA (0)
     |                                               |                |                e[0:25]: 0x24e-0x28d.7 (64)
     |                                               |                |                  [0]{}: in 0x24e-0x24f.7 (2)
0x240|                                          41   |              A |                    i32.const: 0x41 (valid) 0x24e-0x24e.7 (1)
0x240|                                             00|               .|                    n: 0 0x24f-0x24f.7 (1)
     |                                               |                |                  [1]{}: in 0x250-0x253.7 (4)
0x250|fd                                             |.               |                    prefix: 0xfd (valid) 0x250-0x250.7 (1)
0x250|   00                                          | .              |                    v128.load: 0 (valid) 0x251-0x251.7 (1)
     |                                               |                |                    m{}: 0x252-0x253.7 (2)
0x250|      04                                       |  .             |                      a: 4 0x252-0x252.7 (1)
0x250|         00                                    |   .            |                      o: 0 0x253-0x253.7 (1)
     |                                               |                |                  [2]{}: in 0x254-0x255.7 (2)
0x250|            41                                 |    A           |                    i32.const: 0x41 (valid) 0x254-0x254.7 (1)
0x250|               01                              |     .          |                    n: 1 0x255-0x255.7 (1)
     |                                               |                |                  [3]{}: in 0x256-0x259.7 (4)
0x250|                  fd                           |      .         |                    prefix: 0xfd (valid) 0x256-0x256.7 (1)
0x250|                     00                        |       .        |                    v128.load: 0 (valid) 0x257-0x257.7 (1)
     |                                               |                |                    m{}: 0x258-0x259.7 (2)
0x250|                        04                     |        .       |                      a: 4 0x258-0x258.7 (1)
0x250|                           00                  |         .      |                      o: 0 0x259-0x259.7 (1)
     |                                               |                |                  [4]{}: in 0x25a-0x25b.7 (2)
0x250|                              fd               |          .     |                    prefix: 0xfd (valid) 0x25a-0x25a.7 (1)
0x250|                                 45            |           E    |                    f32x4.le: 69 (valid) 0x25b-0x25b.7 (1)
     |                                               |                |                  [5]{}: in 0x25c-0x25d.7 (2)
0x250|                                    41         |            A   |                    i32.const: 0x41 (valid) 0x25c-0x25c.7 (1)
0x250|                                       02      |             .  |                    n: 2 0x25d-0x25d.7 (1)
     |                                               |                |                  [6]{}: in 0x25e-0x261.7 (4)
0x250|                                          fd   |              . |                    prefix: 0xfd (valid) 0x25e-0x25e.7 (1)
0x250|                                             00|               .|                    v128.load: 0 (valid) 0x25f-0x25f.7 (1)
     |                                               |                |                    m{}: 0x260-0x261.7 (2)
0x260|04                                             |.               |                      a: 4 0x260-0x260.7 (1)
0x260|   00                                          | .              |                      o: 0 0x261-0x261.7 (1)
     |                                               |                |                  [7]{}: in 0x262-0x263.7 (2)
0x260|      41                                       |  A             |                    i32.const: 0x41 (valid) 0x262-0x262.7 (1)
0x260|         03                                    |   .            |                    n: 3 0x263-0x263.7 (1)
     |                                               |                |                  [8]{}: in 0x264-0x267.7 (4)
0x260|            fd                                 |    .           |                    prefix: 0xfd (valid) 0x264-0x264.7 (1)
0x260|               00                              |     .          |                    v128.load: 0 (valid) 0x265-0x265.7 (1)
     |                                               |                |                    m{}: 0x266-0x267.7 (2)
0x260|                  04                           |      .         |                      a: 4 0x266-0x266.7 (1)
0x260|                     00                        |       .        |                      o: 0 0x267-0x267.7 (1)
     |                                               |                |                  [9]{}: in 0x268-0x269.7 (2)
0x260|                        fd                     |        .       |                    prefix: 0xfd (valid) 0x268-0x268.7 (1)
0x260|                           45                  |         E      |                    f32x4.le: 69 (valid) 0x269-0x269.7 (1)
     |                                               |                |                  [10]{}: in 0x26a-0x26b.7 (2)
0x260|                              fd               |          .     |                    prefix: 0xfd (valid) 0x26a-0x26a.7 (1)
0x260|                                 45            |           E    |                    f32x4.le: 69 (valid) 0x26b-0x26b.7 (1)
     |                                               |                |                  [11]{}: in 0x26c-0x26d.7 (2)
0x260|                                    41         |            A   |                    i32.const: 0x41 (valid) 0x26c-0x26c.7 (1)
0x260|                                       00      |             .  |                    n: 0 0x26d-0x26d.7 (1)
     |                                               |                |                  [12]{}: in 0x26e-0x271.7 (4)
0x260|                                          fd   |              . |                    prefix: 0xfd (valid) 0x26e-0x26e.7 (1)
0x260|                                             00|               .|                    v128.load: 0 (valid) 0x26f-0x26f.7 (1)
     |                                               |                |                    m{}: 0x270-0x271.7 (2)
0x270|04                                             |.               |                      a: 4 0x270-0x270.7 (1)
0x270|   00                                          | .              |                      o: 0 0x271-0x271.7 (1)
     |                                               |                |                  [13]{}: in 0x272-0x273.7 (2)
0x270|      41                                       |  A             |                    i32.const: 0x41 (valid) 0x272-0x272.7 (1)
0x270|         01                                    |   .            |                    n: 1 0x273-0x273.7 (1)
     |                                               |                |                  [14]{}: in 0x274-0x277.7 (4)
0x270|            fd                                 |    .           |                    prefix: 0xfd (valid) 0x274-0x274.7 (1)
0x270|               00                              |     .          |                    v128.load: 0 (valid) 0x275-0x275.7 (1)
     |                                               |                |                    m{}: 0x276-0x277.7 (2)
0x270|                  04                           |      .         |                      a: 4 0x276-0x276.7 (1)
0x270|                     00                        |       .        |                      o: 0 0x277-0x277.7 (1)
     |                                               |                |                  [15]{}: in 0x278-0x279.7 (2)
0x270|                        fd                     |        .       |                    prefix: 0xfd (valid) 0x278-0x278.7 (1)
0x270|                           45                  |         E      |                    f32x4.le: 69 (valid) 0x279-0x279.7 (1)
     |                                               |                |                  [16]{}: in 0x27a-0x27b.7 (2)
0x270|                              41               |          A     |                    i32.const: 0x41 (valid) 0x27a-0x27a.7 (1)
0x270|                                 02            |           .    |                    n: 2 0x27b-0x27b.7 (1)
     |                                               |                |                  [17]{}: in 0x27c-0x27f.7 (4)
0x270|                                    fd         |            .   |                    prefix: 0xfd (valid) 0x27c-0x27c.7 (1)
0x270|                                       00      |             .  |                    v128.load: 0 (valid) 0x27d-0x27d.7 (1)
     |                                               |                |                    m{}: 0x27e-0x27f.7 (2)
0x270|                                          04   |              . |                      a: 4 0x27e-0x27e.7 (1)
0x270|                                             00|               .|                      o: 0 0x27f-0x27f.7 (1)
     |                                               |                |                  [18]{}: in 0x280-0x281.7 (2)
0x280|41                                             |A               |                    i32.const: 0x41 (valid) 0x280-0x280.7 (1)
0x280|   03                                          | .              |                    n: 3 0x281-0x281.7 (1)
     |                                               |                |                  [19]{}: in 0x282-0x285.7 (4)
0x280|      fd                                       |  .             |                    prefix: 0xfd (valid) 0x282-0x282.7 (1)
0x280|         00                                    |   .            |                    v128.load: 0 (valid) 0x283-0x283.7 (1)
     |                                               |                |                    m{}: 0x284-0x285.7 (2)
0x280|            04                                 |    .           |                      a: 4 0x284-0x284.7 (1)
0x280|               00                              |     .          |                      o: 0 0x285-0x285.7 (1)
     |                                               |                |                  [20]{}: in 0x286-0x287.7 (2)
0x280|                  fd                           |      .         |                    prefix: 0xfd (valid) 0x286-0x286.7 (1)
0x280|                     45                        |       E        |                    f32x4.le: 69 (valid) 0x287-0x287.7 (1)
     |                                               |                |                  [21]{}: in 0x288-0x289.7 (2)
0x280|                        fd                     |        .       |                    prefix: 0xfd (valid) 0x288-0x288.7 (1)
0x280|                           45                  |         E      |                    f32x4.le: 69 (valid) 0x289-0x289.7 (1)
     |                                               |                |                  [22]{}: in 0x28a-0x28b.7 (2)
0x280|                              fd               |          .     |                    prefix: 0xfd (valid) 0x28a-0x28a.7 (1)
0x280|                                 45            |           E    |                    f32x4.le: 69 (valid) 0x28b-0x28b.7 (1)
     |                                               |                |                  [23]{}: in 0x28c-0x28c.7 (1)
0x280|                                    1a         |            .   |                    drop: 0x1a (valid) 0x28c-0x28c.7 (1)
     |                                               |                |                  [24]{}: in 0x28d-0x28d.7 (1)
0x280|                                       0b      |             .  |                    end: 0xb (valid) 0x28d-0x28d.7 (1)
     |                                               |                |            [10]{}: code 0x28e-0x2cf.7 (66)
0x280|                                          41   |              A |              size: 65 0x28e-0x28e.7 (1)
     |                                               |                |              code{}: 0x28f-0x2cf.7 (65)
     |                                               |                |                t{}: 0x28f-0x28f.7 (1)
0x280|                                             00|               .|                  n: 0 0x28f-0x28f.7 (1)
     |                                               |                |                  x[0:0]: 0x290-NA (0)
     |                                               |                |                e[0:25]: 0x290-0x2cf.7 (64)
     |                                               |                |                  [0]{}: in 0x290-0x291.7 (2)
0x290|41                                             |A               |                    i32.const: 0x41 (valid) 0x290-0x290.7 (1)
0x290|   00                                          | .              |                    n: 0 0x291-0x291.7 (1)
     |                                               |                |                  [1]{}: in 0x292-0x295.7 (4)
0x290|      fd                                       |  .             |                    prefix: 0xfd (valid) 0x292-0x292.7 (1)
0x290|         00                                    |   .            |                    v128.load: 0 (valid) 0x293-0x293.7 (1)
     |                                               |                |                    m{}: 0x294-0x295.7 (2)
0x290|            04                                 |    .           |                      a: 4 0x294-0x294.7 (1)
0x290|               00                              |     .          |                      o: 0 0x295-0x295.7 (1)
     |                                               |                |                  [2]{}: in 0x296-0x297.7 (2)
0x290|                  41                           |      A         |                    i32.const: 0x41 (valid) 0x296-0x296.7 (1)
0x290|                     01                        |       .        |                    n: 1 0x297-0x297.7 (1)
     |                                               |                |                  [3]{}: in 0x298-0x29b.7 (4)
0x290|                        fd                     |        .       |                    prefix: 0xfd (valid) 0x298-0x298.7 (1)
0x290|                           00                  |         .      |                    v128.load: 0 (valid) 0x299-0x299.7 (1)
     |                                               |                |                    m{}: 0x29a-0x29b.7 (2)
0x290|                              04               |          .     |                      a: 4 0x29a-0x29a.7 (1)
0x290|                                 00            |           .    |                      o: 0 0x29b-0x29b.7 (1)
     |                                               |                |                  [4]{}: in 0x29c-0x29d.7 (2)
0x290|                                    fd         |            .   |                    prefix: 0xfd (valid) 0x29c-0x29c.7 (1)
0x290|                                       44      |             D  |                    f32x4.gt: 68 (valid) 0x29d-0x29d.7 (1)
     |                                               |                |                  [5]{}: in 0x29e-0x29f.7 (2)
0x290|                                          41   |              A |                    i32.const: 0x41 (valid) 0x29e-0x29e.7 (1)
0x290|                                             02|               .|                    n: 2 0x29f-0x29f.7 (1)
     |                                               |                |                  [6]{}: in 0x2a0-0x2a3.7 (4)
0x2a0|fd                                             |.               |                    prefix: 0xfd (valid) 0x2a0-0x2a0.7 (1)
0x2a0|   00                                          | .              |                    v128.load: 0 (valid) 0x2a1-0x2a1.7 (1)
     |                                               |                |                    m{}: 0x2a2-0x2a3.7 (2)
0x2a0|      04                                       |  .             |                      a: 4 0x2a2-0x2a2.7 (1)
0x2a0|         00                                    |   .            |                      o: 0 0x2a3-0x2a3.7 (1)
     |                                               |                |                  [7]{}: in 0x2a4-0x2a5.7 (2)
0x2a0|            41                                 |    A           |                    i32.const: 0x41 (valid) 0x2a4-0x2a4.7 (1)
0x2a0|               03                              |     .          |                    n: 3 0x2a5-0x2a5.7 (1)
     |                                               |                |                  [8]{}: in 0x2a6-0x2a9.7 (4)
0x2a0|                  fd                           |      .         |                    prefix: 0xfd (valid) 0x2a6-0x2a6.7 (1)
0x2a0|                     00                        |       .        |                    v128.load: 0 (valid) 0x2a7-0x2a7.7 (1)
     |                                               |                |                    m{}: 0x2a8-0x2a9.7 (2)
0x2a0|                        04                     |        .       |                      a: 4 0x2a8-0x2a8.7 (1)
0x2a0|                           00                  |         .      |                      o: 0 0x2a9-0x2a9.7 (1)
     |                                               |                |                  [9]{}: in 0x2aa-0x2ab.7 (2)
0x2a0|                              fd               |          .     |                    prefix: 0xfd (valid) 0x2aa-0x2aa.7 (1)
0x2a0|                                 44            |           D    |                    f32x4.gt: 68 (valid) 0x2ab-0x2ab.7 (1)
     |                                               |                |                  [10]{}: in 0x2ac-0x2ad.7 (2)
0x2a0|                                    fd         |            .   |                    prefix: 0xfd (valid) 0x2ac-0x2ac.7 (1)
0x2a0|                                       44      |             D  |                    f32x4.gt: 68 (valid) 0x2ad-0x2ad.7 (1)
     |                                               |                |                  [11]{}: in 0x2ae-0x2af.7 (2)
0x2a0|                                          41   |              A |                    i32.const: 0x41 (valid) 0x2ae-0x2ae.7 (1)
0x2a0|                                             00|               .|                    n: 0 0x2af-0x2af.7 (1)
     |                                               |                |                  [12]{}: in 0x2b0-0x2b3.7 (4)
0x2b0|fd                                             |.               |                    prefix: 0xfd (valid) 0x2b0-0x2b0.7 (1)
0x2b0|   00                                          | .              |                    v128.load: 0 (valid) 0x2b1-0x2b1.7 (1)
     |                                               |                |                    m{}: 0x2b2-0x2b3.7 (2)
0x2b0|      04                                       |  .             |                      a: 4 0x2b2-0x2b2.7 (1)
0x2b0|         00                                    |   .            |                      o: 0 0x2b3-0x2b3.7 (1)
     |                                               |                |                  [13]{}: in 0x2b4-0x2b5.7 (2)
0x2b0|            41                                 |    A           |                    i32.const: 0x41 (valid) 0x2b4-0x2b4.7 (1)
0x2b0|               01                              |     .          |                    n: 1 0x2b5-0x2b5.7 (1)
     |                                               |                |                  [14]{}: in 0x2b6-0x2b9.7 (4)
0x2b0|                  fd                           |      .         |                    prefix: 0xfd (valid) 0x2b6-0x2b6.7 (1)
0x2b0|                     00                        |       .        |                    v128.load: 0 (valid) 0x2b7-0x2b7.7 (1)
     |                                               |                |                    m{}: 0x2b8-0x2b9.7 (2)
0x2b0|                        04                     |        .       |                      a: 4 0x2b8-0x2b8.7 (1)
0x2b0|                           00                  |         .      |                      o: 0 0x2b9-0x2b9.7 (1)
     |                                               |                |                  [15]{}: in 0x2ba-0x2bb.7 (2)
0x2b0|                              fd               |          .     |                    prefix: 0xfd (valid) 0x2ba-0x2ba.7 (1)
0x2b0|                                 44            |           D    |                    f32x4.gt: 68 (valid) 0x2bb-0x2bb.7 (1)
     |                                               |                |                  [16]{}: in 0x2bc-0x2bd.7 (2)
0x2b0|                                    41         |            A   |                    i32.const: 0x41 (valid) 0x2bc-0x2bc.7 (1)
0x2b0|                                       02      |             .  |                    n: 2 0x2bd-0x2bd.7 (1)
     |                                               |                |                  [17]{}: in 0x2be-0x2c1.7 (4)
0x2b0|                                          fd   |              . |                    prefix: 0xfd (valid) 0x2be-0x2be.7 (1)
0x2b0|                                             00|               .|                    v128.load: 0 (valid) 0x2bf-0x2bf.7 (1)
     |                                               |                |                    m{}: 0x2c0-0x2c1.7 (2)
0x2c0|04                                             |.               |                      a: 4 0x2c0-0x2c0.7 (1)
0x2c0|   00                                          | .              |                      o: 0 0x2c1-0x2c1.7 (1)
     |                                               |                |                  [18]{}: in 0x2c2-0x2c3.7 (2)
0x2c0|      41                                       |  A             |                    i32.const: 0x41 (valid) 0x2c2-0x2c2.7 (1)
0x2c0|         03                                    |   .            |                    n: 3 0x2c3-0x2c3.7 (1)
     |                                               |                |                  [19]{}: in 0x2c4-0x2c7.7 (4)
0x2c0|            fd                                 |    .           |                    prefix: 0xfd (valid) 0x2c4-0x2c4.7 (1)
0x2c0|               00                              |     .          |                    v128.load: 0 (valid) 0x2c5-0x2c5.7 (1)
     |                                               |                |                    m{}: 0x2c6-0x2c7.7 (2)
0x2c0|                  04                           |      .         |                      a: 4 0x2c6-0x2c6.7 (1)
0x2c0|                     00                        |       .        |                      o: 0 0x2c7-0x2c7.7 (1)
     |                                               |                |                  [20]{}: in 0x2c8-0x2c9.7 (2)
0x2c0|                        fd                     |        .       |                    prefix: 0xfd (valid) 0x2c8-0x2c8.7 (1)
0x2c0|                           44                  |         D      |                    f32x4.gt: 68 (valid) 0x2c9-0x2c9.7 (1)
     |                                               |                |                  [21]{}: in 0x2ca-0x2cb.7 (2)
0x2c0|                              fd               |          .     |                    prefix: 0xfd (valid) 0x2ca-0x2ca.7 (1)
0x2c0|                                 44            |           D    |                    f32x4.gt: 68 (valid) 0x2cb-0x2cb.7 (1)
     |                                               |                |                  [22]{}: in 0x2cc-0x2cd.7 (2)
0x2c0|                                    fd         |            .   |                    prefix: 0xfd (valid) 0x2cc-0x2cc.7 (1)
0x2c0|                                       44      |             D  |                    f32x4.gt: 68 (valid) 0x2cd-0x2cd.7 (1)
     |                                               |                |                  [23]{}: in 0x2ce-0x2ce.7 (1)
0x2c0|                                          1a   |              . |                    drop: 0x1a (valid) 0x2ce-0x2ce.7 (1)
     |                                               |                |                  [24]{}: in 0x2cf-0x2cf.7 (1)
0x2c0|                                             0b|               .|                    end: 0xb (valid) 0x2cf-0x2cf.7 (1)
     |                                               |                |            [11]{}: code 0x2d0-0x311.7 (66)
0x2d0|41                                             |A               |              size: 65 0x2d0-0x2d0.7 (1)
     |                                               |                |              code{}: 0x2d1-0x311.7 (65)
     |                                               |                |                t{}: 0x2d1-0x2d1.7 (1)
0x2d0|   00                                          | .              |                  n: 0 0x2d1-0x2d1.7 (1)
     |                                               |                |                  x[0:0]: 0x2d2-NA (0)
     |                                               |                |                e[0:25]: 0x2d2-0x311.7 (64)
     |                                               |                |                  [0]{}: in 0x2d2-0x2d3.7 (2)
0x2d0|      41                                       |  A             |                    i32.const: 0x41 (valid) 0x2d2-0x2d2.7 (1)
0x2d0|         00                                    |   .            |                    n: 0 0x2d3-0x2d3.7 (1)
     |                                               |                |                  [1]{}: in 0x2d4-0x2d7.7 (4)
0x2d0|            fd                                 |    .           |                    prefix: 0xfd (valid) 0x2d4-0x2d4.7 (1)
0x2d0|               00                              |     .          |                    v128.load: 0 (valid) 0x2d5-0x2d5.7 (1)
     |                                               |                |                    m{}: 0x2d6-0x2d7.7 (2)
0x2d0|                  04                           |      .         |                      a: 4 0x2d6-0x2d6.7 (1)
0x2d0|                     00                        |       .        |                      o: 0 0x2d7-0x2d7.7 (1)
     |                                               |                |                  [2]{}: in 0x2d8-0x2d9.7 (2)
0x2d0|                        41                     |        A       |                    i32.const: 0x41 (valid) 0x2d8-0x2d8.7 (1)
0x2d0|                           01                  |         .      |                    n: 1 0x2d9-0x2d9.7 (1)
     |                                               |                |                  [3]{}: in 0x2da-0x2dd.7 (4)
0x2d0|                              fd               |          .     |                    prefix: 0xfd (valid) 0x2da-0x2da.7 (1)
0x2d0|                                 00            |           .    |                    v128.load: 0 (valid) 0x2db-0x2db.7 (1)
     |                                               |                |                    m{}: 0x2dc-0x2dd.7 (2)
0x2d0|                                    04         |            .   |                      a: 4 0x2dc-0x2dc.7 (1)
0x2d0|                                       00      |             .  |                      o: 0 0x2dd-0x2dd.7 (1)
     |                                               |                |                  [4]{}: in 0x2de-0x2df.7 (2)
0x2d0|                                          fd   |              . |                    prefix: 0xfd (valid) 0x2de-0x2de.7 (1)
0x2d0|                                             46|               F|                    f32x4.ge: 70 (valid) 0x2df-0x2df.7 (1)
     |                                               |                |                  [5]{}: in 0x2e0-0x2e1.7 (2)
0x2e0|41                                             |A               |                    i32.const: 0x41 (valid) 0x2e0-0x2e0.7 (1)
0x2e0|   02                                          | .              |                    n: 2 0x2e1-0x2e1.7 (1)
     |                                               |                |                  [6]{}: in 0x2e2-0x2e5.7 (4)
0x2e0|      fd                                       |  .             |                    prefix: 0xfd (valid) 0x2e2-0x2e2.7 (1)
0x2e0|         00                                    |   .            |                    v128.load: 0 (valid) 0x2e3-0x2e3.7 (1)
     |                                               |                |                    m{}: 0x2e4-0x2e5.7 (2)
0x2e0|            04                                 |    .           |                      a: 4 0x2e4-0x2e4.7 (1)
0x2e0|               00                              |     .          |                      o: 0 0x2e5-0x2e5.7 (1)
     |                                               |                |                  [7]{}: in 0x2e6-0x2e7.7 (2)
0x2e0|                  41                           |      A         |                    i32.const: 0x41 (valid) 0x2e6-0x2e6.7 (1)
0x2e0|                     03                        |       .        |                    n: 3 0x2e7-0x2e7.7 (1)
     |                                               |                |                  [8]{}: in 0x2e8-0x2eb.7 (4)
0x2e0|                        fd                     |        .       |                    prefix: 0xfd (valid) 0x2e8-0x2e8.7 (1)
0x2e0|                           00                  |         .      |                    v128.load: 0 (valid) 0x2e9-0x2e9.7 (1)
     |                                               |                |                    m{}: 0x2ea-0x2eb.7 (2)
0x2e0|                              04               |          .     |                      a: 4 0x2ea-0x2ea.7 (1)
0x2e0|                                 00            |           .    |                      o: 0 0x2eb-0x2eb.7 (1)
     |                                               |                |                  [9]{}: in 0x2ec-0x2ed.7 (2)
0x2e0|                                    fd         |            .   |                    prefix: 0xfd (valid) 0x2ec-0x2ec.7 (1)
0x2e0|                                       46      |             F  |                    f32x4.ge: 70 (valid) 0x2ed-0x2ed.7 (1)
     |                                               |                |                  [10]{}: in 0x2ee-0x2ef.7 (2)
0x2e0|                                          fd   |              . |                    prefix: 0xfd (valid) 0x2ee-0x2ee.7 (1)
0x2e0|                                             46|               F|                    f32x4.ge: 70 (valid) 0x2ef-0x2ef.7 (1)
     |                                               |                |                  [11]{}: in 0x2f0-0x2f1.7 (2)
0x2f0|41                                             |A               |                    i32.const: 0x41 (valid) 0x2f0-0x2f0.7 (1)
0x2f0|   00                                          | .              |                    n: 0 0x2f1-0x2f1.7 (1)
     |                                               |                |                  [12]{}: in 0x2f2-0x2f5.7 (4)
0x2f0|      fd                                       |  .             |                    prefix: 0xfd (valid) 0x2f2-0x2f2.7 (1)
0x2f0|         00                                    |   .            |                    v128.load: 0 (valid) 0x2f3-0x2f3.7 (1)
     |                                               |                |                    m{}: 0x2f4-0x2f5.7 (2)
0x2f0|            04                                 |    .           |                      a: 4 0x2f4-0x2f4.7 (1)
0x2f0|               00                              |     .          |                      o: 0 0x2f5-0x2f5.7 (1)
     |                                               |                |                  [13]{}: in 0x2f6-0x2f7.7 (2)
0x2f0|                  41                           |      A         |                    i32.const: 0x41 (valid) 0x2f6-0x2f6.7 (1)
0x2f0|                     01                        |       .        |                    n: 1 0x2f7-0x2f7.7 (1)
     |                                               |                |                  [14]{}: in 0x2f8-0x2fb.7 (4)
0x2f0|                        fd                     |        .       |                    prefix: 0xfd (valid) 0x2f8-0x2f8.7 (1)
0x2f0|                           00                  |         .      |                    v128.load: 0 (valid) 0x2f9-0x2f9.7 (1)
     |                                               |                |                    m{}: 0x2fa-0x2fb.7 (2)
0x2f0|                              04               |          .     |                      a: 4 0x2fa-0x2fa.7 (1)
0x2f0|                                 00            |           .    |                      o: 0 0x2fb-0x2fb.7 (1)
     |                                               |                |                  [15]{}: in 0x2fc-0x2fd.7 (2)
0x2f0|                                    fd         |            .   |                    prefix: 0xfd (valid) 0x2fc-0x2fc.7 (1)
0x2f0|                                       46      |             F  |                    f32x4.ge: 70 (valid) 0x2fd-0x2fd.7 (1)
     |                                               |                |                  [16]{}: in 0x2fe-0x2ff.7 (2)
0x2f0|                                          41   |              A |                    i32.const: 0x41 (valid) 0x2fe-0x2fe.7 (1)
0x2f0|                                             02|               .|                    n: 2 0x2ff-0x2ff.7 (1)
     |                                               |                |                  [17]{}: in 0x300-0x303.7 (4)
0x300|fd                                             |.               |                    prefix: 0xfd (valid) 0x300-0x300.7 (1)
0x300|   00                                          | .              |                    v128.load: 0 (valid) 0x301-0x301.7 (1)
     |                                               |                |                    m{}: 0x302-0x303.7 (2)
0x300|      04                                       |  .             |                      a: 4 0x302-0x302.7 (1)
0x300|         00                                    |   .            |                      o: 0 0x303-0x303.7 (1)
     |                                               |                |                  [18]{}: in 0x304-0x305.7 (2)
0x300|            41                                 |    A           |                    i32.const: 0x41 (valid) 0x304-0x304.7 (1)
0x300|               03                              |     .          |                    n: 3 0x305-0x305.7 (1)
     |                                               |                |                  [19]{}: in 0x306-0x309.7 (4)
0x300|                  fd                           |      .         |                    prefix: 0xfd (valid) 0x306-0x306.7 (1)
0x300|                     00                        |       .        |                    v128.load: 0 (valid) 0x307-0x307.7 (1)
     |                                               |                |                    m{}: 0x308-0x309.7 (2)
0x300|                        04                     |        .       |                      a: 4 0x308-0x308.7 (1)
0x300|                           00                  |         .      |                      o: 0 0x309-0x309.7 (1)
     |                                               |                |                  [20]{}: in 0x30a-0x30b.7 (2)
0x300|                              fd               |          .     |                    prefix: 0xfd (valid) 0x30a-0x30a.7 (1)
0x300|                                 46            |           F    |                    f32x4.ge: 70 (valid) 0x30b-0x30b.7 (1)
     |                                               |                |                  [21]{}: in 0x30c-0x30d.7 (2)
0x300|                                    fd         |            .   |                    prefix: 0xfd (valid) 0x30c-0x30c.7 (1)
0x300|                                       46      |             F  |                    f32x4.ge: 70 (valid) 0x30d-0x30d.7 (1)
     |                                               |                |                  [22]{}: in 0x30e-0x30f.7 (2)
0x300|                                          fd   |              . |                    prefix: 0xfd (valid) 0x30e-0x30e.7 (1)
0x300|                                             46|               F|                    f32x4.ge: 70 (valid) 0x30f-0x30f.7 (1)
     |                                               |                |                  [23]{}: in 0x310-0x310.7 (1)
0x310|1a                                             |.               |                    drop: 0x1a (valid) 0x310-0x310.7 (1)
     |                                               |                |                  [24]{}: in 0x311-0x311.7 (1)
0x310|   0b                                          | .              |                    end: 0xb (valid) 0x311-0x311.7 (1)
     |                                               |                |            [12]{}: code 0x312-0x353.7 (66)
0x310|      41                                       |  A             |              size: 65 0x312-0x312.7 (1)
     |                                               |                |              code{}: 0x313-0x353.7 (65)
     |                                               |                |                t{}: 0x313-0x313.7 (1)
0x310|         00                                    |   .            |                  n: 0 0x313-0x313.7 (1)
     |                                               |                |                  x[0:0]: 0x314-NA (0)
     |                                               |                |                e[0:25]: 0x314-0x353.7 (64)
     |                                               |                |                  [0]{}: in 0x314-0x315.7 (2)
0x310|            41                                 |    A           |                    i32.const: 0x41 (valid) 0x314-0x314.7 (1)
0x310|               00                              |     .          |                    n: 0 0x315-0x315.7 (1)
     |                                               |                |                  [1]{}: in 0x316-0x319.7 (4)
0x310|                  fd                           |      .         |                    prefix: 0xfd (valid) 0x316-0x316.7 (1)
0x310|                     00                        |       .        |                    v128.load: 0 (valid) 0x317-0x317.7 (1)
     |                                               |                |                    m{}: 0x318-0x319.7 (2)
0x310|                        04                     |        .       |                      a: 4 0x318-0x318.7 (1)
0x310|                           00                  |         .      |                      o: 0 0x319-0x319.7 (1)
     |                                               |                |                  [2]{}: in 0x31a-0x31b.7 (2)
0x310|                              41               |          A     |                    i32.const: 0x41 (valid) 0x31a-0x31a.7 (1)
0x310|                                 01            |           .    |                    n: 1 0x31b-0x31b.7 (1)
     |                                               |                |                  [3]{}: in 0x31c-0x31f.7 (4)
0x310|                                    fd         |            .   |                    prefix: 0xfd (valid) 0x31c-0x31c.7 (1)
0x310|                                       00      |             .  |                    v128.load: 0 (valid) 0x31d-0x31d.7 (1)
     |                                               |                |                    m{}: 0x31e-0x31f.7 (2)
0x310|                                          04   |              . |                      a: 4 0x31e-0x31e.7 (1)
0x310|                                             00|               .|                      o: 0 0x31f-0x31f.7 (1)
     |                                               |                |                  [4]{}: in 0x320-0x321.7 (2)
0x320|fd                                             |.               |                    prefix: 0xfd (valid) 0x320-0x320.7 (1)
0x320|   43                                          | C              |                    f32x4.lt: 67 (valid) 0x321-0x321.7 (1)
     |                                               |                |                  [5]{}: in 0x322-0x323.7 (2)
0x320|      41                                       |  A             |                    i32.const: 0x41 (valid) 0x322-0x322.7 (1)
0x320|         02                                    |   .            |                    n: 2 0x323-0x323.7 (1)
     |                                               |                |                  [6]{}: in 0x324-0x327.7 (4)
0x320|            fd                                 |    .           |                    prefix: 0xfd (valid) 0x324-0x324.7 (1)
0x320|               00                              |     .          |                    v128.load: 0 (valid) 0x325-0x325.7 (1)
     |                                               |                |                    m{}: 0x326-0x327.7 (2)
0x320|                  04                           |      .         |                      a: 4 0x326-0x326.7 (1)
0x320|                     00                        |       .        |                      o: 0 0x327-0x327.7 (1)
     |                                               |                |                  [7]{}: in 0x328-0x329.7 (2)
0x320|                        41                     |        A       |                    i32.const: 0x41 (valid) 0x328-0x328.7 (1)
0x320|                           03                  |         .      |                    n: 3 0x329-0x329.7 (1)
     |                                               |                |                  [8]{}: in 0x32a-0x32d.7 (4)
0x320|                              fd               |          .     |                    prefix: 0xfd (valid) 0x32a-0x32a.7 (1)
0x320|                                 00            |           .    |                    v128.load: 0 (valid) 0x32b-0x32b.7 (1)
     |                                               |                |                    m{}: 0x32c-0x32d.7 (2)
0x320|                                    04         |            .   |                      a: 4 0x32c-0x32c.7 (1)
0x320|                                       00      |             .  |                      o: 0 0x32d-0x32d.7 (1)
     |                                               |                |                  [9]{}: in 0x32e-0x32f.7 (2)
0x320|                                          fd   |              . |                    prefix: 0xfd (valid) 0x32e-0x32e.7 (1)
0x320|                                             45|               E|                    f32x4.le: 69 (valid) 0x32f-0x32f.7 (1)
     |                                               |                |                  [10]{}: in 0x330-0x331.7 (2)
0x330|fd                                             |.               |                    prefix: 0xfd (valid) 0x330-0x330.7 (1)
0x330|   41                                          | A              |                    f32x4.eq: 65 (valid) 0x331-0x331.7 (1)
     |                                               |                |                  [11]{}: in 0x332-0x333.7 (2)
0x330|      41                                       |  A             |                    i32.const: 0x41 (valid) 0x332-0x332.7 (1)
0x330|         00                                    |   .            |                    n: 0 0x333-0x333.7 (1)
     |                                               |                |                  [12]{}: in 0x334-0x337.7 (4)
0x330|            fd                                 |    .           |                    prefix: 0xfd (valid) 0x334-0x334.7 (1)
0x330|               00                              |     .          |                    v128.load: 0 (valid) 0x335-0x335.7 (1)
     |                                               |                |                    m{}: 0x336-0x337.7 (2)
0x330|                  04                           |      .         |                      a: 4 0x336-0x336.7 (1)
0x330|                     00                        |       .        |                      o: 0 0x337-0x337.7 (1)
     |                                               |                |                  [13]{}: in 0x338-0x339.7 (2)
0x330|                        41                     |        A       |                    i32.const: 0x41 (valid) 0x338-0x338.7 (1)
0x330|                           01                  |         .      |                    n: 1 0x339-0x339.7 (1)
     |                                               |                |                  [14]{}: in 0x33a-0x33d.7 (4)
0x330|                              fd               |          .     |                    prefix: 0xfd (valid) 0x33a-0x33a.7 (1)
0x330|                                 00            |           .    |                    v128.load: 0 (valid) 0x33b-0x33b.7 (1)
     |                                               |                |                    m{}: 0x33c-0x33d.7 (2)
0x330|                                    04         |            .   |                      a: 4 0x33c-0x33c.7 (1)
0x330|                                       00      |             .  |                      o: 0 0x33d-0x33d.7 (1)
     |                                               |                |                  [15]{}: in 0x33e-0x33f.7 (2)
0x330|                                          fd   |              . |                    prefix: 0xfd (valid) 0x33e-0x33e.7 (1)
0x330|                                             44|               D|                    f32x4.gt: 68 (valid) 0x33f-0x33f.7 (1)
     |                                               |                |                  [16]{}: in 0x340-0x341.7 (2)
0x340|41                                             |A               |                    i32.const: 0x41 (valid) 0x340-0x340.7 (1)
0x340|   02                                          | .              |                    n: 2 0x341-0x341.7 (1)
     |                                               |                |                  [17]{}: in 0x342-0x345.7 (4)
0x340|      fd                                       |  .             |                    prefix: 0xfd (valid) 0x342-0x342.7 (1)
0x340|         00                                    |   .            |                    v128.load: 0 (valid) 0x343-0x343.7 (1)
     |                                               |                |                    m{}: 0x344-0x345.7 (2)
0x340|            04                                 |    .           |                      a: 4 0x344-0x344.7 (1)
0x340|               00                              |     .          |                      o: 0 0x345-0x345.7 (1)
     |                                               |                |                  [18]{}: in 0x346-0x347.7 (2)
0x340|                  41                           |      A         |                    i32.const: 0x41 (valid) 0x346-0x346.7 (1)
0x340|                     03                        |       .        |                    n: 3 0x347-0x347.7 (1)
     |                                               |                |                  [19]{}: in 0x348-0x34b.7 (4)
0x340|                        fd                     |        .       |                    prefix: 0xfd (valid) 0x348-0x348.7 (1)
0x340|                           00                  |         .      |                    v128.load: 0 (valid) 0x349-0x349.7 (1)
     |                                               |                |                    m{}: 0x34a-0x34b.7 (2)
0x340|                              04               |          .     |                      a: 4 0x34a-0x34a.7 (1)
0x340|                                 00            |           .    |                      o: 0 0x34b-0x34b.7 (1)
     |                                               |                |                  [20]{}: in 0x34c-0x34d.7 (2)
0x340|                                    fd         |            .   |                    prefix: 0xfd (valid) 0x34c-0x34c.7 (1)
0x340|                                       43      |             C  |                    f32x4.lt: 67 (valid) 0x34d-0x34d.7 (1)
     |                                               |                |                  [21]{}: in 0x34e-0x34f.7 (2)
0x340|                                          fd   |              . |                    prefix: 0xfd (valid) 0x34e-0x34e.7 (1)
0x340|                                             42|               B|                    f32x4.ne: 66 (valid) 0x34f-0x34f.7 (1)
     |                                               |                |                  [22]{}: in 0x350-0x351.7 (2)
0x350|fd                                             |.               |                    prefix: 0xfd (valid) 0x350-0x350.7 (1)
0x350|   46                                          | F              |                    f32x4.ge: 70 (valid) 0x351-0x351.7 (1)
     |                                               |                |                  [23]{}: in 0x352-0x352.7 (1)
0x350|      1a                                       |  .             |                    drop: 0x1a (valid) 0x352-0x352.7 (1)
     |                                               |                |                  [24]{}: in 0x353-0x353.7 (1)
0x350|         0b|                                   |   .|           |                    end: 0xb (valid) 0x353-0x353.7 (1)
