$ fq -d wasm dv simd_load_splat-1.wasm
     |00 01 02 03 04 05 06 07 08 09 0a 0b 0c 0d 0e 0f|0123456789abcdef|.{}: simd_load_splat-1.wasm (wasm) 0x0-0x283 (643)
0x000|00 61 73 6d                                    |.asm            |  magic: raw bits (valid) 0x0-0x4 (4)
0x000|            01 00 00 00                        |    ....        |  version: 1 0x4-0x8 (4)
     |                                               |                |  sections[0:6]: 0x8-0x283 (635)
     |                                               |                |    [0]{}: section 0x8-0x13 (11)
0x000|                        01                     |        .       |      id: "type_section" (1) 0x8-0x9 (1)
0x000|                           09                  |         .      |      size: 9 (valid) 0x9-0xa (1)
     |                                               |                |      content{}: 0xa-0x13 (9)
     |                                               |                |        ft{}: 0xa-0x13 (9)
0x000|                              02               |          .     |          n: 2 (valid) 0xa-0xb (1)
     |                                               |                |          x[0:2]: 0xb-0x13 (8)
     |                                               |                |            [0]{}: ft 0xb-0xf (4)
0x000|                                 60            |           `    |              tag: 0x60 (valid) 0xb-0xc (1)
     |                                               |                |              rt1{}: 0xc-0xd (1)
0x000|                                    00         |            .   |                n: 0 (valid) 0xc-0xd (1)
     |                                               |                |                x[0:0]: 0xd-0xd (0)
     |                                               |                |              rt2{}: 0xd-0xf (2)
0x000|                                       01      |             .  |                n: 1 (valid) 0xd-0xe (1)
     |                                               |                |                x[0:1]: 0xe-0xf (1)
0x000|                                          7b   |              { |                  [0]: "v128" (0x7b) t 0xe-0xf (1)
     |                                               |                |            [1]{}: ft 0xf-0x13 (4)
0x000|                                             60|               `|              tag: 0x60 (valid) 0xf-0x10 (1)
     |                                               |                |              rt1{}: 0x10-0x11 (1)
0x010|00                                             |.               |                n: 0 (valid) 0x10-0x11 (1)
     |                                               |                |                x[0:0]: 0x11-0x11 (0)
     |                                               |                |              rt2{}: 0x11-0x13 (2)
0x010|   01                                          | .              |                n: 1 (valid) 0x11-0x12 (1)
     |                                               |                |                x[0:1]: 0x12-0x13 (1)
0x010|      7f                                       |  .             |                  [0]: "i32" (0x7f) t 0x12-0x13 (1)
     |                                               |                |    [1]{}: section 0x13-0x22 (15)
0x010|         03                                    |   .            |      id: "function_section" (3) 0x13-0x14 (1)
0x010|            0d                                 |    .           |      size: 13 (valid) 0x14-0x15 (1)
     |                                               |                |      content{}: 0x15-0x22 (13)
     |                                               |                |        x{}: 0x15-0x22 (13)
0x010|               0c                              |     .          |          n: 12 (valid) 0x15-0x16 (1)
     |                                               |                |          x[0:12]: 0x16-0x22 (12)
0x010|                  00                           |      .         |            [0]: 0 x (valid) 0x16-0x17 (1)
0x010|                     00                        |       .        |            [1]: 0 x (valid) 0x17-0x18 (1)
0x010|                        00                     |        .       |            [2]: 0 x (valid) 0x18-0x19 (1)
0x010|                           00                  |         .      |            [3]: 0 x (valid) 0x19-0x1a (1)
0x010|                              00               |          .     |            [4]: 0 x (valid) 0x1a-0x1b (1)
0x010|                                 00            |           .    |            [5]: 0 x (valid) 0x1b-0x1c (1)
0x010|                                    00         |            .   |            [6]: 0 x (valid) 0x1c-0x1d (1)
0x010|                                       00      |             .  |            [7]: 0 x (valid) 0x1d-0x1e (1)
0x010|                                          01   |              . |            [8]: 1 x (valid) 0x1e-0x1f (1)
0x010|                                             01|               .|            [9]: 1 x (valid) 0x1f-0x20 (1)
0x020|01                                             |.               |            [10]: 1 x (valid) 0x20-0x21 (1)
0x020|   01                                          | .              |            [11]: 1 x (valid) 0x21-0x22 (1)
     |                                               |                |    [2]{}: section 0x22-0x27 (5)
0x020|      05                                       |  .             |      id: "memory_section" (5) 0x22-0x23 (1)
0x020|         03                                    |   .            |      size: 3 (valid) 0x23-0x24 (1)
     |                                               |                |      content{}: 0x24-0x27 (3)
     |                                               |                |        mem{}: 0x24-0x27 (3)
0x020|            01                                 |    .           |          n: 1 (valid) 0x24-0x25 (1)
     |                                               |                |          x[0:1]: 0x25-0x27 (2)
     |                                               |                |            [0]{}: mem 0x25-0x27 (2)
     |                                               |                |              lim{}: 0x25-0x27 (2)
0x020|               00                              |     .          |                tag: 0x0 0x25-0x26 (1)
0x020|                  01                           |      .         |                n: 1 (valid) 0x26-0x27 (1)
     |                                               |                |    [3]{}: section 0x27-0x1c8 (417)
0x020|                     07                        |       .        |      id: "export_section" (7) 0x27-0x28 (1)
0x020|                        9e 03                  |        ..      |      size: 414 (valid) 0x28-0x2a (2)
     |                                               |                |      content{}: 0x2a-0x1c8 (414)
     |                                               |                |        ex{}: 0x2a-0x1c8 (414)
0x020|                              0c               |          .     |          n: 12 (valid) 0x2a-0x2b (1)
     |                                               |                |          x[0:12]: 0x2b-0x1c8 (413)
     |                                               |                |            [0]{}: ex 0x2b-0x47 (28)
     |                                               |                |              nm{}: 0x2b-0x45 (26)
0x020|                                 19            |           .    |                n: 25 (valid) 0x2b-0x2c (1)
0x020|                                    76 31 32 38|            v128|                b: "v128.load8_splat-in-block" 0x2c-0x45 (25)
0x030|2e 6c 6f 61 64 38 5f 73 70 6c 61 74 2d 69 6e 2d|.load8_splat-in-|
0x040|62 6c 6f 63 6b                                 |block           |
     |                                               |                |              d{}: 0x45-0x47 (2)
0x040|               00                              |     .          |                tag: "funcidx" (0x0) 0x45-0x46 (1)
0x040|                  00                           |      .         |                x: 0 (valid) 0x46-0x47 (1)
     |                                               |                |            [1]{}: ex 0x47-0x64 (29)
     |                                               |                |              nm{}: 0x47-0x62 (27)
0x040|                     1a                        |       .        |                n: 26 (valid) 0x47-0x48 (1)
0x040|                        76 31 32 38 2e 6c 6f 61|        v128.loa|                b: "v128.load16_splat-in-block" 0x48-0x62 (26)
0x050|64 31 36 5f 73 70 6c 61 74 2d 69 6e 2d 62 6c 6f|d16_splat-in-blo|
0x060|63 6b                                          |ck              |
     |                                               |                |              d{}: 0x62-0x64 (2)
0x060|      00                                       |  .             |                tag: "funcidx" (0x0) 0x62-0x63 (1)
0x060|         01                                    |   .            |                x: 1 (valid) 0x63-0x64 (1)
     |                                               |                |            [2]{}: ex 0x64-0x81 (29)
     |                                               |                |              nm{}: 0x64-0x7f (27)
0x060|            1a                                 |    .           |                n: 26 (valid) 0x64-0x65 (1)
0x060|               76 31 32 38 2e 6c 6f 61 64 33 32|     v128.load32|                b: "v128.load32_splat-in-block" 0x65-0x7f (26)
0x070|5f 73 70 6c 61 74 2d 69 6e 2d 62 6c 6f 63 6b   |_splat-in-block |
     |                                               |                |              d{}: 0x7f-0x81 (2)
0x070|                                             00|               .|                tag: "funcidx" (0x0) 0x7f-0x80 (1)
0x080|02                                             |.               |                x: 2 (valid) 0x80-0x81 (1)
     |                                               |                |            [3]{}: ex 0x81-0x9e (29)
     |                                               |                |              nm{}: 0x81-0x9c (27)
0x080|   1a                                          | .              |                n: 26 (valid) 0x81-0x82 (1)
0x080|      76 31 32 38 2e 6c 6f 61 64 36 34 5f 73 70|  v128.load64_sp|                b: "v128.load64_splat-in-block" 0x82-0x9c (26)
0x090|6c 61 74 2d 69 6e 2d 62 6c 6f 63 6b            |lat-in-block    |
     |                                               |                |              d{}: 0x9c-0x9e (2)
0x090|                                    00         |            .   |                tag: "funcidx" (0x0) 0x9c-0x9d (1)
0x090|                                       03      |             .  |                x: 3 (valid) 0x9d-0x9e (1)
     |                                               |                |            [4]{}: ex 0x9e-0xbd (31)
     |                                               |                |              nm{}: 0x9e-0xbb (29)
0x090|                                          1c   |              . |                n: 28 (valid) 0x9e-0x9f (1)
0x090|                                             76|               v|                b: "v128.load8_splat-as-br-value" 0x9f-0xbb (28)
0x0a0|31 32 38 2e 6c 6f 61 64 38 5f 73 70 6c 61 74 2d|128.load8_splat-|
0x0b0|61 73 2d 62 72 2d 76 61 6c 75 65               |as-br-value     |
     |                                               |                |              d{}: 0xbb-0xbd (2)
0x0b0|                                 00            |           .    |                tag: "funcidx" (0x0) 0xbb-0xbc (1)
0x0b0|                                    04         |            .   |                x: 4 (valid) 0xbc-0xbd (1)
     |                                               |                |            [5]{}: ex 0xbd-0xdd (32)
     |                                               |                |              nm{}: 0xbd-0xdb (30)
0x0b0|                                       1d      |             .  |                n: 29 (valid) 0xbd-0xbe (1)
0x0b0|                                          76 31|              v1|                b: "v128.load16_splat-as-br-value" 0xbe-0xdb (29)
0x0c0|32 38 2e 6c 6f 61 64 31 36 5f 73 70 6c 61 74 2d|28.load16_splat-|
0x0d0|61 73 2d 62 72 2d 76 61 6c 75 65               |as-br-value     |
     |                                               |                |              d{}: 0xdb-0xdd (2)
0x0d0|                                 00            |           .    |                tag: "funcidx" (0x0) 0xdb-0xdc (1)
0x0d0|                                    05         |            .   |                x: 5 (valid) 0xdc-0xdd (1)
     |                                               |                |            [6]{}: ex 0xdd-0xfd (32)
     |                                               |                |              nm{}: 0xdd-0xfb (30)
0x0d0|                                       1d      |             .  |                n: 29 (valid) 0xdd-0xde (1)
0x0d0|                                          76 31|              v1|                b: "v128.load32_splat-as-br-value" 0xde-0xfb (29)
0x0e0|32 38 2e 6c 6f 61 64 33 32 5f 73 70 6c 61 74 2d|28.load32_splat-|
0x0f0|61 73 2d 62 72 2d 76 61 6c 75 65               |as-br-value     |
     |                                               |                |              d{}: 0xfb-0xfd (2)
0x0f0|                                 00            |           .    |                tag: "funcidx" (0x0) 0xfb-0xfc (1)
0x0f0|                                    06         |            .   |                x: 6 (valid) 0xfc-0xfd (1)
     |                                               |                |            [7]{}: ex 0xfd-0x11d (32)
     |                                               |                |              nm{}: 0xfd-0x11b (30)
0x0f0|                                       1d      |             .  |                n: 29 (valid) 0xfd-0xfe (1)
0x0f0|                                          76 31|              v1|                b: "v128.load64_splat-as-br-value" 0xfe-0x11b (29)
0x100|32 38 2e 6c 6f 61 64 36 34 5f 73 70 6c 61 74 2d|28.load64_splat-|
0x110|61 73 2d 62 72 2d 76 61 6c 75 65               |as-br-value     |
     |                                               |                |              d{}: 0x11b-0x11d (2)
0x110|                                 00            |           .    |                tag: "funcidx" (0x0) 0x11b-0x11c (1)
0x110|                                    07         |            .   |                x: 7 (valid) 0x11c-0x11d (1)
     |                                               |                |            [8]{}: ex 0x11d-0x147 (42)
     |                                               |                |              nm{}: 0x11d-0x145 (40)
0x110|                                       27      |             '  |                n: 39 (valid) 0x11d-0x11e (1)
0x110|                                          76 31|              v1|                b: "v128.load8_splat-extract_lane_s-operand" 0x11e-0x145 (39)
0x120|32 38 2e 6c 6f 61 64 38 5f 73 70 6c 61 74 2d 65|28.load8_splat-e|
*    |until 0x144.7 (39)                             |                |
     |                                               |                |              d{}: 0x145-0x147 (2)
0x140|               00                              |     .          |                tag: "funcidx" (0x0) 0x145-0x146 (1)
0x140|                  08                           |      .         |                x: 8 (valid) 0x146-0x147 (1)
     |                                               |                |            [9]{}: ex 0x147-0x172 (43)
     |                                               |                |              nm{}: 0x147-0x170 (41)
0x140|                     28                        |       (        |                n: 40 (valid) 0x147-0x148 (1)
0x140|                        76 31 32 38 2e 6c 6f 61|        v128.loa|                b: "v128.load16_splat-extract_lane_s-operand" 0x148-0x170 (40)
0x150|64 31 36 5f 73 70 6c 61 74 2d 65 78 74 72 61 63|d16_splat-extrac|
0x160|74 5f 6c 61 6e 65 5f 73 2d 6f 70 65 72 61 6e 64|t_lane_s-operand|
     |                                               |                |              d{}: 0x170-0x172 (2)
0x170|00                                             |.               |                tag: "funcidx" (0x0) 0x170-0x171 (1)
0x170|   09                                          | .              |                x: 9 (valid) 0x171-0x172 (1)
     |                                               |                |            [10]{}: ex 0x172-0x19d (43)
     |                                               |                |              nm{}: 0x172-0x19b (41)
0x170|      28                                       |  (             |                n: 40 (valid) 0x172-0x173 (1)
0x170|         76 31 32 38 2e 6c 6f 61 64 33 32 5f 73|   v128.load32_s|                b: "v128.load32_splat-extract_lane_s-operand" 0x173-0x19b (40)
0x180|70 6c 61 74 2d 65 78 74 72 61 63 74 5f 6c 61 6e|plat-extract_lan|
0x190|65 5f 73 2d 6f 70 65 72 61 6e 64               |e_s-operand     |
     |                                               |                |              d{}: 0x19b-0x19d (2)
0x190|                                 00            |           .    |                tag: "funcidx" (0x0) 0x19b-0x19c (1)
0x190|                                    0a         |            .   |                x: 10 (valid) 0x19c-0x19d (1)
     |                                               |                |            [11]{}: ex 0x19d-0x1c8 (43)
     |                                               |                |              nm{}: 0x19d-0x1c6 (41)
0x190|                                       28      |             (  |                n: 40 (valid) 0x19d-0x19e (1)
0x190|                                          76 31|              v1|                b: "v128.load64_splat-extract_lane_s-operand" 0x19e-0x1c6 (40)
0x1a0|32 38 2e 6c 6f 61 64 36 34 5f 73 70 6c 61 74 2d|28.load64_splat-|
*    |until 0x1c5.7 (40)                             |                |
     |                                               |                |              d{}: 0x1c6-0x1c8 (2)
0x1c0|                  00                           |      .         |                tag: "funcidx" (0x0) 0x1c6-0x1c7 (1)
0x1c0|                     0b                        |       .        |                x: 11 (valid) 0x1c7-0x1c8 (1)
     |                                               |                |    [4]{}: section 0x1c8-0x270 (168)
0x1c0|                        0a                     |        .       |      id: "code_section" (10) 0x1c8-0x1c9 (1)
0x1c0|                           a5 01               |         ..     |      size: 165 (valid) 0x1c9-0x1cb (2)
     |                                               |                |      content{}: 0x1cb-0x270 (165)
     |                                               |                |        code{}: 0x1cb-0x270 (165)
0x1c0|                                 0c            |           .    |          n: 12 (valid) 0x1cb-0x1cc (1)
     |                                               |                |          x[0:12]: 0x1cc-0x270 (164)
     |                                               |                |            [0]{}: code 0x1cc-0x1db (15)
0x1c0|                                    0e         |            .   |              size: 14 (valid) 0x1cc-0x1cd (1)
     |                                               |                |              code{}: 0x1cd-0x1db (14)
     |                                               |                |                t{}: 0x1cd-0x1ce (1)
0x1c0|                                       00      |             .  |                  n: 0 (valid) 0x1cd-0x1ce (1)
     |                                               |                |                  x[0:0]: 0x1ce-0x1ce (0)
     |                                               |                |                e[0:2]: 0x1ce-0x1db (13)
     |                                               |                |                  [0]{}: in 0x1ce-0x1da (12)
0x1c0|                                          02   |              . |                    opcode: "block" (0x2) 0x1ce-0x1cf (1)
0x1c0|                                             7b|               {|                    bt: "v128" (123) 0x1cf-0x1d0 (1)
     |                                               |                |                    instructions[0:1]: 0x1d0-0x1d9 (9)
     |                                               |                |                      [0]{}: instr 0x1d0-0x1d9 (9)
0x1d0|02                                             |.               |                        opcode: "block" (0x2) 0x1d0-0x1d1 (1)
0x1d0|   7b                                          | {              |                        bt: "v128" (123) 0x1d1-0x1d2 (1)
     |                                               |                |                        instructions[0:2]: 0x1d2-0x1d8 (6)
     |                                               |                |                          [0]{}: instr 0x1d2-0x1d4 (2)
0x1d0|      41                                       |  A             |                            opcode: "i32.const" (0x41) 0x1d2-0x1d3 (1)
0x1d0|         00                                    |   .            |                            n: 0 (valid) 0x1d3-0x1d4 (1)
     |                                               |                |                          [1]{}: instr 0x1d4-0x1d8 (4)
0x1d0|            fd                                 |    .           |                            opcode: "vector" (0xfd) 0x1d4-0x1d5 (1)
0x1d0|               07                              |     .          |                            v_opcode: "v128.load8_splat" (7) 0x1d5-0x1d6 (1)
     |                                               |                |                            m{}: 0x1d6-0x1d8 (2)
0x1d0|                  00                           |      .         |                              a: 0 (valid) 0x1d6-0x1d7 (1)
0x1d0|                     00                        |       .        |                              o: 0 (valid) 0x1d7-0x1d8 (1)
0x1d0|                        0b                     |        .       |                        end: 0xb (valid) 0x1d8-0x1d9 (1)
0x1d0|                           0b                  |         .      |                    end: 0xb (valid) 0x1d9-0x1da (1)
     |                                               |                |                  [1]{}: in 0x1da-0x1db (1)
0x1d0|                              0b               |          .     |                    opcode: "end" (0xb) 0x1da-0x1db (1)
     |                                               |                |            [1]{}: code 0x1db-0x1ea (15)
0x1d0|                                 0e            |           .    |              size: 14 (valid) 0x1db-0x1dc (1)
     |                                               |                |              code{}: 0x1dc-0x1ea (14)
     |                                               |                |                t{}: 0x1dc-0x1dd (1)
0x1d0|                                    00         |            .   |                  n: 0 (valid) 0x1dc-0x1dd (1)
     |                                               |                |                  x[0:0]: 0x1dd-0x1dd (0)
     |                                               |                |                e[0:2]: 0x1dd-0x1ea (13)
     |                                               |                |                  [0]{}: in 0x1dd-0x1e9 (12)
0x1d0|                                       02      |             .  |                    opcode: "block" (0x2) 0x1dd-0x1de (1)
0x1d0|                                          7b   |              { |                    bt: "v128" (123) 0x1de-0x1df (1)
     |                                               |                |                    instructions[0:1]: 0x1df-0x1e8 (9)
     |                                               |                |                      [0]{}: instr 0x1df-0x1e8 (9)
0x1d0|                                             02|               .|                        opcode: "block" (0x2) 0x1df-0x1e0 (1)
0x1e0|7b                                             |{               |                        bt: "v128" (123) 0x1e0-0x1e1 (1)
     |                                               |                |                        instructions[0:2]: 0x1e1-0x1e7 (6)
     |                                               |                |                          [0]{}: instr 0x1e1-0x1e3 (2)
0x1e0|   41                                          | A              |                            opcode: "i32.const" (0x41) 0x1e1-0x1e2 (1)
0x1e0|      01                                       |  .             |                            n: 1 (valid) 0x1e2-0x1e3 (1)
     |                                               |                |                          [1]{}: instr 0x1e3-0x1e7 (4)
0x1e0|         fd                                    |   .            |                            opcode: "vector" (0xfd) 0x1e3-0x1e4 (1)
0x1e0|            08                                 |    .           |                            v_opcode: "v128.load16_splat" (8) 0x1e4-0x1e5 (1)
     |                                               |                |                            m{}: 0x1e5-0x1e7 (2)
0x1e0|               01                              |     .          |                              a: 1 (valid) 0x1e5-0x1e6 (1)
0x1e0|                  00                           |      .         |                              o: 0 (valid) 0x1e6-0x1e7 (1)
0x1e0|                     0b                        |       .        |                        end: 0xb (valid) 0x1e7-0x1e8 (1)
0x1e0|                        0b                     |        .       |                    end: 0xb (valid) 0x1e8-0x1e9 (1)
     |                                               |                |                  [1]{}: in 0x1e9-0x1ea (1)
0x1e0|                           0b                  |         .      |                    opcode: "end" (0xb) 0x1e9-0x1ea (1)
     |                                               |                |            [2]{}: code 0x1ea-0x1f9 (15)
0x1e0|                              0e               |          .     |              size: 14 (valid) 0x1ea-0x1eb (1)
     |                                               |                |              code{}: 0x1eb-0x1f9 (14)
     |                                               |                |                t{}: 0x1eb-0x1ec (1)
0x1e0|                                 00            |           .    |                  n: 0 (valid) 0x1eb-0x1ec (1)
     |                                               |                |                  x[0:0]: 0x1ec-0x1ec (0)
     |                                               |                |                e[0:2]: 0x1ec-0x1f9 (13)
     |                                               |                |                  [0]{}: in 0x1ec-0x1f8 (12)
0x1e0|                                    02         |            .   |                    opcode: "block" (0x2) 0x1ec-0x1ed (1)
0x1e0|                                       7b      |             {  |                    bt: "v128" (123) 0x1ed-0x1ee (1)
     |                                               |                |                    instructions[0:1]: 0x1ee-0x1f7 (9)
     |                                               |                |                      [0]{}: instr 0x1ee-0x1f7 (9)
0x1e0|                                          02   |              . |                        opcode: "block" (0x2) 0x1ee-0x1ef (1)
0x1e0|                                             7b|               {|                        bt: "v128" (123) 0x1ef-0x1f0 (1)
     |                                               |                |                        instructions[0:2]: 0x1f0-0x1f6 (6)
     |                                               |                |                          [0]{}: instr 0x1f0-0x1f2 (2)
0x1f0|41                                             |A               |                            opcode: "i32.const" (0x41) 0x1f0-0x1f1 (1)
0x1f0|   02                                          | .              |                            n: 2 (valid) 0x1f1-0x1f2 (1)
     |                                               |                |                          [1]{}: instr 0x1f2-0x1f6 (4)
0x1f0|      fd                                       |  .             |                            opcode: "vector" (0xfd) 0x1f2-0x1f3 (1)
0x1f0|         09                                    |   .            |                            v_opcode: "v128.load32_splat" (9) 0x1f3-0x1f4 (1)
     |                                               |                |                            m{}: 0x1f4-0x1f6 (2)
0x1f0|            02                                 |    .           |                              a: 2 (valid) 0x1f4-0x1f5 (1)
0x1f0|               00                              |     .          |                              o: 0 (valid) 0x1f5-0x1f6 (1)
0x1f0|                  0b                           |      .         |                        end: 0xb (valid) 0x1f6-0x1f7 (1)
0x1f0|                     0b                        |       .        |                    end: 0xb (valid) 0x1f7-0x1f8 (1)
     |                                               |                |                  [1]{}: in 0x1f8-0x1f9 (1)
0x1f0|                        0b                     |        .       |                    opcode: "end" (0xb) 0x1f8-0x1f9 (1)
     |                                               |                |            [3]{}: code 0x1f9-0x208 (15)
0x1f0|                           0e                  |         .      |              size: 14 (valid) 0x1f9-0x1fa (1)
     |                                               |                |              code{}: 0x1fa-0x208 (14)
     |                                               |                |                t{}: 0x1fa-0x1fb (1)
0x1f0|                              00               |          .     |                  n: 0 (valid) 0x1fa-0x1fb (1)
     |                                               |                |                  x[0:0]: 0x1fb-0x1fb (0)
     |                                               |                |                e[0:2]: 0x1fb-0x208 (13)
     |                                               |                |                  [0]{}: in 0x1fb-0x207 (12)
0x1f0|                                 02            |           .    |                    opcode: "block" (0x2) 0x1fb-0x1fc (1)
0x1f0|                                    7b         |            {   |                    bt: "v128" (123) 0x1fc-0x1fd (1)
     |                                               |                |                    instructions[0:1]: 0x1fd-0x206 (9)
     |                                               |                |                      [0]{}: instr 0x1fd-0x206 (9)
0x1f0|                                       02      |             .  |                        opcode: "block" (0x2) 0x1fd-0x1fe (1)
0x1f0|                                          7b   |              { |                        bt: "v128" (123) 0x1fe-0x1ff (1)
     |                                               |                |                        instructions[0:2]: 0x1ff-0x205 (6)
     |                                               |                |                          [0]{}: instr 0x1ff-0x201 (2)
0x1f0|                                             41|               A|                            opcode: "i32.const" (0x41) 0x1ff-0x200 (1)
0x200|09                                             |.               |                            n: 9 (valid) 0x200-0x201 (1)
     |                                               |                |                          [1]{}: instr 0x201-0x205 (4)
0x200|   fd                                          | .              |                            opcode: "vector" (0xfd) 0x201-0x202 (1)
0x200|      0a                                       |  .             |                            v_opcode: "v128.load64_splat" (10) 0x202-0x203 (1)
     |                                               |                |                            m{}: 0x203-0x205 (2)
0x200|         03                                    |   .            |                              a: 3 (valid) 0x203-0x204 (1)
0x200|            00                                 |    .           |                              o: 0 (valid) 0x204-0x205 (1)
0x200|               0b                              |     .          |                        end: 0xb (valid) 0x205-0x206 (1)
0x200|                  0b                           |      .         |                    end: 0xb (valid) 0x206-0x207 (1)
     |                                               |                |                  [1]{}: in 0x207-0x208 (1)
0x200|                     0b                        |       .        |                    opcode: "end" (0xb) 0x207-0x208 (1)
     |                                               |                |            [4]{}: code 0x208-0x216 (14)
0x200|                        0d                     |        .       |              size: 13 (valid) 0x208-0x209 (1)
     |                                               |                |              code{}: 0x209-0x216 (13)
     |                                               |                |                t{}: 0x209-0x20a (1)
0x200|                           00                  |         .      |                  n: 0 (valid) 0x209-0x20a (1)
     |                                               |                |                  x[0:0]: 0x20a-0x20a (0)
     |                                               |                |                e[0:2]: 0x20a-0x216 (12)
     |                                               |                |                  [0]{}: in 0x20a-0x215 (11)
0x200|                              02               |          .     |                    opcode: "block" (0x2) 0x20a-0x20b (1)
0x200|                                 7b            |           {    |                    bt: "v128" (123) 0x20b-0x20c (1)
     |                                               |                |                    instructions[0:3]: 0x20c-0x214 (8)
     |                                               |                |                      [0]{}: instr 0x20c-0x20e (2)
0x200|                                    41         |            A   |                        opcode: "i32.const" (0x41) 0x20c-0x20d (1)
0x200|                                       03      |             .  |                        n: 3 (valid) 0x20d-0x20e (1)
     |                                               |                |                      [1]{}: instr 0x20e-0x212 (4)
0x200|                                          fd   |              . |                        opcode: "vector" (0xfd) 0x20e-0x20f (1)
0x200|                                             07|               .|                        v_opcode: "v128.load8_splat" (7) 0x20f-0x210 (1)
     |                                               |                |                        m{}: 0x210-0x212 (2)
0x210|00                                             |.               |                          a: 0 (valid) 0x210-0x211 (1)
0x210|   00                                          | .              |                          o: 0 (valid) 0x211-0x212 (1)
     |                                               |                |                      [2]{}: instr 0x212-0x214 (2)
0x210|      0c                                       |  .             |                        opcode: "br" (0xc) 0x212-0x213 (1)
0x210|         00                                    |   .            |                        l: 0 (valid) 0x213-0x214 (1)
0x210|            0b                                 |    .           |                    end: 0xb (valid) 0x214-0x215 (1)
     |                                               |                |                  [1]{}: in 0x215-0x216 (1)
0x210|               0b                              |     .          |                    opcode: "end" (0xb) 0x215-0x216 (1)
     |                                               |                |            [5]{}: code 0x216-0x224 (14)
0x210|                  0d                           |      .         |              size: 13 (valid) 0x216-0x217 (1)
     |                                               |                |              code{}: 0x217-0x224 (13)
     |                                               |                |                t{}: 0x217-0x218 (1)
0x210|                     00                        |       .        |                  n: 0 (valid) 0x217-0x218 (1)
     |                                               |                |                  x[0:0]: 0x218-0x218 (0)
     |                                               |                |                e[0:2]: 0x218-0x224 (12)
     |                                               |                |                  [0]{}: in 0x218-0x223 (11)
0x210|                        02                     |        .       |                    opcode: "block" (0x2) 0x218-0x219 (1)
0x210|                           7b                  |         {      |                    bt: "v128" (123) 0x219-0x21a (1)
     |                                               |                |                    instructions[0:3]: 0x21a-0x222 (8)
     |                                               |                |                      [0]{}: instr 0x21a-0x21c (2)
0x210|                              41               |          A     |                        opcode: "i32.const" (0x41) 0x21a-0x21b (1)
0x210|                                 04            |           .    |                        n: 4 (valid) 0x21b-0x21c (1)
     |                                               |                |                      [1]{}: instr 0x21c-0x220 (4)
0x210|                                    fd         |            .   |                        opcode: "vector" (0xfd) 0x21c-0x21d (1)
0x210|                                       08      |             .  |                        v_opcode: "v128.load16_splat" (8) 0x21d-0x21e (1)
     |                                               |                |                        m{}: 0x21e-0x220 (2)
0x210|                                          01   |              . |                          a: 1 (valid) 0x21e-0x21f (1)
0x210|                                             00|               .|                          o: 0 (valid) 0x21f-0x220 (1)
     |                                               |                |                      [2]{}: instr 0x220-0x222 (2)
0x220|0c                                             |.               |                        opcode: "br" (0xc) 0x220-0x221 (1)
0x220|   00                                          | .              |                        l: 0 (valid) 0x221-0x222 (1)
0x220|      0b                                       |  .             |                    end: 0xb (valid) 0x222-0x223 (1)
     |                                               |                |                  [1]{}: in 0x223-0x224 (1)
0x220|         0b                                    |   .            |                    opcode: "end" (0xb) 0x223-0x224 (1)
     |                                               |                |            [6]{}: code 0x224-0x232 (14)
0x220|            0d                                 |    .           |              size: 13 (valid) 0x224-0x225 (1)
     |                                               |                |              code{}: 0x225-0x232 (13)
     |                                               |                |                t{}: 0x225-0x226 (1)
0x220|               00                              |     .          |                  n: 0 (valid) 0x225-0x226 (1)
     |                                               |                |                  x[0:0]: 0x226-0x226 (0)
     |                                               |                |                e[0:2]: 0x226-0x232 (12)
     |                                               |                |                  [0]{}: in 0x226-0x231 (11)
0x220|                  02                           |      .         |                    opcode: "block" (0x2) 0x226-0x227 (1)
0x220|                     7b                        |       {        |                    bt: "v128" (123) 0x227-0x228 (1)
     |                                               |                |                    instructions[0:3]: 0x228-0x230 (8)
     |                                               |                |                      [0]{}: instr 0x228-0x22a (2)
0x220|                        41                     |        A       |                        opcode: "i32.const" (0x41) 0x228-0x229 (1)
0x220|                           05                  |         .      |                        n: 5 (valid) 0x229-0x22a (1)
     |                                               |                |                      [1]{}: instr 0x22a-0x22e (4)
0x220|                              fd               |          .     |                        opcode: "vector" (0xfd) 0x22a-0x22b (1)
0x220|                                 09            |           .    |                        v_opcode: "v128.load32_splat" (9) 0x22b-0x22c (1)
     |                                               |                |                        m{}: 0x22c-0x22e (2)
0x220|                                    02         |            .   |                          a: 2 (valid) 0x22c-0x22d (1)
0x220|                                       00      |             .  |                          o: 0 (valid) 0x22d-0x22e (1)
     |                                               |                |                      [2]{}: instr 0x22e-0x230 (2)
0x220|                                          0c   |              . |                        opcode: "br" (0xc) 0x22e-0x22f (1)
0x220|                                             00|               .|                        l: 0 (valid) 0x22f-0x230 (1)
0x230|0b                                             |.               |                    end: 0xb (valid) 0x230-0x231 (1)
     |                                               |                |                  [1]{}: in 0x231-0x232 (1)
0x230|   0b                                          | .              |                    opcode: "end" (0xb) 0x231-0x232 (1)
     |                                               |                |            [7]{}: code 0x232-0x240 (14)
0x230|      0d                                       |  .             |              size: 13 (valid) 0x232-0x233 (1)
     |                                               |                |              code{}: 0x233-0x240 (13)
     |                                               |                |                t{}: 0x233-0x234 (1)
0x230|         00                                    |   .            |                  n: 0 (valid) 0x233-0x234 (1)
     |                                               |                |                  x[0:0]: 0x234-0x234 (0)
     |                                               |                |                e[0:2]: 0x234-0x240 (12)
     |                                               |                |                  [0]{}: in 0x234-0x23f (11)
0x230|            02                                 |    .           |                    opcode: "block" (0x2) 0x234-0x235 (1)
0x230|               7b                              |     {          |                    bt: "v128" (123) 0x235-0x236 (1)
     |                                               |                |                    instructions[0:3]: 0x236-0x23e (8)
     |                                               |                |                      [0]{}: instr 0x236-0x238 (2)
0x230|                  41                           |      A         |                        opcode: "i32.const" (0x41) 0x236-0x237 (1)
0x230|                     0a                        |       .        |                        n: 10 (valid) 0x237-0x238 (1)
     |                                               |                |                      [1]{}: instr 0x238-0x23c (4)
0x230|                        fd                     |        .       |                        opcode: "vector" (0xfd) 0x238-0x239 (1)
0x230|                           0a                  |         .      |                        v_opcode: "v128.load64_splat" (10) 0x239-0x23a (1)
     |                                               |                |                        m{}: 0x23a-0x23c (2)
0x230|                              03               |          .     |                          a: 3 (valid) 0x23a-0x23b (1)
0x230|                                 00            |           .    |                          o: 0 (valid) 0x23b-0x23c (1)
     |                                               |                |                      [2]{}: instr 0x23c-0x23e (2)
0x230|                                    0c         |            .   |                        opcode: "br" (0xc) 0x23c-0x23d (1)
0x230|                                       00      |             .  |                        l: 0 (valid) 0x23d-0x23e (1)
0x230|                                          0b   |              . |                    end: 0xb (valid) 0x23e-0x23f (1)
     |                                               |                |                  [1]{}: in 0x23f-0x240 (1)
0x230|                                             0b|               .|                    opcode: "end" (0xb) 0x23f-0x240 (1)
     |                                               |                |            [8]{}: code 0x240-0x24c (12)
0x240|0b                                             |.               |              size: 11 (valid) 0x240-0x241 (1)
     |                                               |                |              code{}: 0x241-0x24c (11)
     |                                               |                |                t{}: 0x241-0x242 (1)
0x240|   00                                          | .              |                  n: 0 (valid) 0x241-0x242 (1)
     |                                               |                |                  x[0:0]: 0x242-0x242 (0)
     |                                               |                |                e[0:4]: 0x242-0x24c (10)
     |                                               |                |                  [0]{}: in 0x242-0x244 (2)
0x240|      41                                       |  A             |                    opcode: "i32.const" (0x41) 0x242-0x243 (1)
0x240|         06                                    |   .            |                    n: 6 (valid) 0x243-0x244 (1)
     |                                               |                |                  [1]{}: in 0x244-0x248 (4)
0x240|            fd                                 |    .           |                    opcode: "vector" (0xfd) 0x244-0x245 (1)
0x240|               07                              |     .          |                    v_opcode: "v128.load8_splat" (7) 0x245-0x246 (1)
     |                                               |                |                    m{}: 0x246-0x248 (2)
0x240|                  00                           |      .         |                      a: 0 (valid) 0x246-0x247 (1)
0x240|                     00                        |       .        |                      o: 0 (valid) 0x247-0x248 (1)
     |                                               |                |                  [2]{}: in 0x248-0x24b (3)
0x240|                        fd                     |        .       |                    opcode: "vector" (0xfd) 0x248-0x249 (1)
0x240|                           15                  |         .      |                    v_opcode: "i8x16.extract_lane_s" (21) 0x249-0x24a (1)
0x240|                              00               |          .     |                    l: 0 0x24a-0x24b (1)
     |                                               |                |                  [3]{}: in 0x24b-0x24c (1)
0x240|                                 0b            |           .    |                    opcode: "end" (0xb) 0x24b-0x24c (1)
     |                                               |                |            [9]{}: code 0x24c-0x258 (12)
0x240|                                    0b         |            .   |              size: 11 (valid) 0x24c-0x24d (1)
     |                                               |                |              code{}: 0x24d-0x258 (11)
     |                                               |                |                t{}: 0x24d-0x24e (1)
0x240|                                       00      |             .  |                  n: 0 (valid) 0x24d-0x24e (1)
     |                                               |                |                  x[0:0]: 0x24e-0x24e (0)
     |                                               |                |                e[0:4]: 0x24e-0x258 (10)
     |                                               |                |                  [0]{}: in 0x24e-0x250 (2)
0x240|                                          41   |              A |                    opcode: "i32.const" (0x41) 0x24e-0x24f (1)
0x240|                                             07|               .|                    n: 7 (valid) 0x24f-0x250 (1)
     |                                               |                |                  [1]{}: in 0x250-0x254 (4)
0x250|fd                                             |.               |                    opcode: "vector" (0xfd) 0x250-0x251 (1)
0x250|   08                                          | .              |                    v_opcode: "v128.load16_splat" (8) 0x251-0x252 (1)
     |                                               |                |                    m{}: 0x252-0x254 (2)
0x250|      01                                       |  .             |                      a: 1 (valid) 0x252-0x253 (1)
0x250|         00                                    |   .            |                      o: 0 (valid) 0x253-0x254 (1)
     |                                               |                |                  [2]{}: in 0x254-0x257 (3)
0x250|            fd                                 |    .           |                    opcode: "vector" (0xfd) 0x254-0x255 (1)
0x250|               15                              |     .          |                    v_opcode: "i8x16.extract_lane_s" (21) 0x255-0x256 (1)
0x250|                  00                           |      .         |                    l: 0 0x256-0x257 (1)
     |                                               |                |                  [3]{}: in 0x257-0x258 (1)
0x250|                     0b                        |       .        |                    opcode: "end" (0xb) 0x257-0x258 (1)
     |                                               |                |            [10]{}: code 0x258-0x264 (12)
0x250|                        0b                     |        .       |              size: 11 (valid) 0x258-0x259 (1)
     |                                               |                |              code{}: 0x259-0x264 (11)
     |                                               |                |                t{}: 0x259-0x25a (1)
0x250|                           00                  |         .      |                  n: 0 (valid) 0x259-0x25a (1)
     |                                               |                |                  x[0:0]: 0x25a-0x25a (0)
     |                                               |                |                e[0:4]: 0x25a-0x264 (10)
     |                                               |                |                  [0]{}: in 0x25a-0x25c (2)
0x250|                              41               |          A     |                    opcode: "i32.const" (0x41) 0x25a-0x25b (1)
0x250|                                 08            |           .    |                    n: 8 (valid) 0x25b-0x25c (1)
     |                                               |                |                  [1]{}: in 0x25c-0x260 (4)
0x250|                                    fd         |            .   |                    opcode: "vector" (0xfd) 0x25c-0x25d (1)
0x250|                                       09      |             .  |                    v_opcode: "v128.load32_splat" (9) 0x25d-0x25e (1)
     |                                               |                |                    m{}: 0x25e-0x260 (2)
0x250|                                          02   |              . |                      a: 2 (valid) 0x25e-0x25f (1)
0x250|                                             00|               .|                      o: 0 (valid) 0x25f-0x260 (1)
     |                                               |                |                  [2]{}: in 0x260-0x263 (3)
0x260|fd                                             |.               |                    opcode: "vector" (0xfd) 0x260-0x261 (1)
0x260|   15                                          | .              |                    v_opcode: "i8x16.extract_lane_s" (21) 0x261-0x262 (1)
0x260|      00                                       |  .             |                    l: 0 0x262-0x263 (1)
     |                                               |                |                  [3]{}: in 0x263-0x264 (1)
0x260|         0b                                    |   .            |                    opcode: "end" (0xb) 0x263-0x264 (1)
     |                                               |                |            [11]{}: code 0x264-0x270 (12)
0x260|            0b                                 |    .           |              size: 11 (valid) 0x264-0x265 (1)
     |                                               |                |              code{}: 0x265-0x270 (11)
     |                                               |                |                t{}: 0x265-0x266 (1)
0x260|               00                              |     .          |                  n: 0 (valid) 0x265-0x266 (1)
     |                                               |                |                  x[0:0]: 0x266-0x266 (0)
     |                                               |                |                e[0:4]: 0x266-0x270 (10)
     |                                               |                |                  [0]{}: in 0x266-0x268 (2)
0x260|                  41                           |      A         |                    opcode: "i32.const" (0x41) 0x266-0x267 (1)
0x260|                     0b                        |       .        |                    n: 11 (valid) 0x267-0x268 (1)
     |                                               |                |                  [1]{}: in 0x268-0x26c (4)
0x260|                        fd                     |        .       |                    opcode: "vector" (0xfd) 0x268-0x269 (1)
0x260|                           0a                  |         .      |                    v_opcode: "v128.load64_splat" (10) 0x269-0x26a (1)
     |                                               |                |                    m{}: 0x26a-0x26c (2)
0x260|                              03               |          .     |                      a: 3 (valid) 0x26a-0x26b (1)
0x260|                                 00            |           .    |                      o: 0 (valid) 0x26b-0x26c (1)
     |                                               |                |                  [2]{}: in 0x26c-0x26f (3)
0x260|                                    fd         |            .   |                    opcode: "vector" (0xfd) 0x26c-0x26d (1)
0x260|                                       15      |             .  |                    v_opcode: "i8x16.extract_lane_s" (21) 0x26d-0x26e (1)
0x260|                                          00   |              . |                    l: 0 0x26e-0x26f (1)
     |                                               |                |                  [3]{}: in 0x26f-0x270 (1)
0x260|                                             0b|               .|                    opcode: "end" (0xb) 0x26f-0x270 (1)
     |                                               |                |    [5]{}: section 0x270-0x283 (19)
0x270|0b                                             |.               |      id: "data_section" (11) 0x270-0x271 (1)
0x270|   11                                          | .              |      size: 17 (valid) 0x271-0x272 (1)
     |                                               |                |      content{}: 0x272-0x283 (17)
     |                                               |                |        seg{}: 0x272-0x283 (17)
0x270|      01                                       |  .             |          n: 1 (valid) 0x272-0x273 (1)
     |                                               |                |          x[0:1]: 0x273-0x283 (16)
     |                                               |                |            [0]{}: seg 0x273-0x283 (16)
0x270|         00                                    |   .            |              tag: 0 (valid) 0x273-0x274 (1)
     |                                               |                |              e[0:2]: 0x274-0x277 (3)
     |                                               |                |                [0]{}: in 0x274-0x276 (2)
0x270|            41                                 |    A           |                  opcode: "i32.const" (0x41) 0x274-0x275 (1)
0x270|               00                              |     .          |                  n: 0 (valid) 0x275-0x276 (1)
     |                                               |                |                [1]{}: in 0x276-0x277 (1)
0x270|                  0b                           |      .         |                  opcode: "end" (0xb) 0x276-0x277 (1)
     |                                               |                |              b{}: 0x277-0x283 (12)
0x270|                     0b                        |       .        |                n: 11 (valid) 0x277-0x278 (1)
0x270|                        00 01 02 03 04 05 06 07|        ........|                x: raw bits 0x278-0x283 (11)
0x280|08 09 0a|                                      |...|            |
