$ fq -d wasm dv simd_load-5.wasm
    |00 01 02 03 04 05 06 07 08 09 0a 0b 0c 0d 0e 0f|0123456789abcdef|.{}: simd_load-5.wasm (wasm) 0x0-0x59.7 (90)
0x00|00 61 73 6d                                    |.asm            |  magic: raw bits (valid) 0x0-0x3.7 (4)
0x00|            01 00 00 00                        |    ....        |  version: 1 0x4-0x7.7 (4)
    |                                               |                |  sections[0:6]: 0x8-0x59.7 (82)
    |                                               |                |    [0]{}: section 0x8-0xe.7 (7)
0x00|                        01                     |        .       |      id: "type section" (1) 0x8-0x8.7 (1)
0x00|                           05                  |         .      |      size: 5 0x9-0x9.7 (1)
    |                                               |                |      content{}: 0xa-0xe.7 (5)
    |                                               |                |        ft{}: 0xa-0xe.7 (5)
0x00|                              01               |          .     |          n: 1 0xa-0xa.7 (1)
    |                                               |                |          x[0:1]: 0xb-0xe.7 (4)
    |                                               |                |            [0]{}: ft 0xb-0xe.7 (4)
0x00|                                 60            |           `    |              tag: 0x60 (valid) 0xb-0xb.7 (1)
    |                                               |                |              rt1{}: 0xc-0xc.7 (1)
0x00|                                    00         |            .   |                n: 0 0xc-0xc.7 (1)
    |                                               |                |                x[0:0]: 0xd-NA (0)
    |                                               |                |              rt2{}: 0xd-0xe.7 (2)
0x00|                                       01      |             .  |                n: 1 0xd-0xd.7 (1)
    |                                               |                |                x[0:1]: 0xe-0xe.7 (1)
0x00|                                          7b   |              { |                  [0]: "v128" (0x7b) t 0xe-0xe.7 (1)
    |                                               |                |    [1]{}: section 0xf-0x12.7 (4)
0x00|                                             03|               .|      id: "function section" (3) 0xf-0xf.7 (1)
0x10|02                                             |.               |      size: 2 0x10-0x10.7 (1)
    |                                               |                |      content{}: 0x11-0x12.7 (2)
    |                                               |                |        x{}: 0x11-0x12.7 (2)
0x10|   01                                          | .              |          n: 1 0x11-0x11.7 (1)
    |                                               |                |          x[0:1]: 0x12-0x12.7 (1)
0x10|      00                                       |  .             |            [0]: 0 x 0x12-0x12.7 (1)
    |                                               |                |    [2]{}: section 0x13-0x17.7 (5)
0x10|         05                                    |   .            |      id: "memory section" (5) 0x13-0x13.7 (1)
0x10|            03                                 |    .           |      size: 3 0x14-0x14.7 (1)
    |                                               |                |      content{}: 0x15-0x17.7 (3)
    |                                               |                |        mem{}: 0x15-0x17.7 (3)
0x10|               01                              |     .          |          n: 1 0x15-0x15.7 (1)
    |                                               |                |          x[0:1]: 0x16-0x17.7 (2)
    |                                               |                |            [0]{}: mem 0x16-0x17.7 (2)
    |                                               |                |              lim{}: 0x16-0x17.7 (2)
0x10|                  00                           |      .         |                tag: 0x0 0x16-0x16.7 (1)
0x10|                     01                        |       .        |                n: 1 0x17-0x17.7 (1)
    |                                               |                |    [3]{}: section 0x18-0x31.7 (26)
0x10|                        07                     |        .       |      id: "export section" (7) 0x18-0x18.7 (1)
0x10|                           18                  |         .      |      size: 24 0x19-0x19.7 (1)
    |                                               |                |      content{}: 0x1a-0x31.7 (24)
    |                                               |                |        ex{}: 0x1a-0x31.7 (24)
0x10|                              01               |          .     |          n: 1 0x1a-0x1a.7 (1)
    |                                               |                |          x[0:1]: 0x1b-0x31.7 (23)
    |                                               |                |            [0]{}: ex 0x1b-0x31.7 (23)
    |                                               |                |              nm{}: 0x1b-0x2f.7 (21)
0x10|                                 14            |           .    |                n: 20 0x1b-0x1b.7 (1)
0x10|                                    61 73 2d 69|            as-i|                b: "as-i8x16.shl-operand" 0x1c-0x2f.7 (20)
0x20|38 78 31 36 2e 73 68 6c 2d 6f 70 65 72 61 6e 64|8x16.shl-operand|
    |                                               |                |              d{}: 0x30-0x31.7 (2)
0x30|00                                             |.               |                tag: "funcidx" (0x0) 0x30-0x30.7 (1)
0x30|   00                                          | .              |                x: 0 0x31-0x31.7 (1)
    |                                               |                |    [4]{}: section 0x32-0x41.7 (16)
0x30|      0a                                       |  .             |      id: "code section" (10) 0x32-0x32.7 (1)
0x30|         0e                                    |   .            |      size: 14 0x33-0x33.7 (1)
    |                                               |                |      content{}: 0x34-0x41.7 (14)
    |                                               |                |        code{}: 0x34-0x41.7 (14)
0x30|            01                                 |    .           |          n: 1 0x34-0x34.7 (1)
    |                                               |                |          x[0:1]: 0x35-0x41.7 (13)
    |                                               |                |            [0]{}: code 0x35-0x41.7 (13)
0x30|               0c                              |     .          |              size: 12 0x35-0x35.7 (1)
    |                                               |                |              code{}: 0x36-0x41.7 (12)
    |                                               |                |                t{}: 0x36-0x36.7 (1)
0x30|                  00                           |      .         |                  n: 0 0x36-0x36.7 (1)
    |                                               |                |                  x[0:0]: 0x37-NA (0)
    |                                               |                |                e[0:5]: 0x37-0x41.7 (11)
    |                                               |                |                  [0]{}: in 0x37-0x38.7 (2)
0x30|                     41                        |       A        |                    i32.const: 0x41 (valid) 0x37-0x37.7 (1)
0x30|                        00                     |        .       |                    n: 0 0x38-0x38.7 (1)
    |                                               |                |                  [1]{}: in 0x39-0x3c.7 (4)
0x30|                           fd                  |         .      |                    prefix: 0xfd (valid) 0x39-0x39.7 (1)
0x30|                              00               |          .     |                    v128.load: 0 (valid) 0x3a-0x3a.7 (1)
    |                                               |                |                    m{}: 0x3b-0x3c.7 (2)
0x30|                                 04            |           .    |                      a: 4 0x3b-0x3b.7 (1)
0x30|                                    00         |            .   |                      o: 0 0x3c-0x3c.7 (1)
    |                                               |                |                  [2]{}: in 0x3d-0x3e.7 (2)
0x30|                                       41      |             A  |                    i32.const: 0x41 (valid) 0x3d-0x3d.7 (1)
0x30|                                          01   |              . |                    n: 1 0x3e-0x3e.7 (1)
    |                                               |                |                  [3]{}: in 0x3f-0x40.7 (2)
0x30|                                             fd|               .|                    prefix: 0xfd (valid) 0x3f-0x3f.7 (1)
0x40|6b                                             |k               |                    i8x16.shl: 107 (valid) 0x40-0x40.7 (1)
    |                                               |                |                  [4]{}: in 0x41-0x41.7 (1)
0x40|   0b                                          | .              |                    end: 0xb (valid) 0x41-0x41.7 (1)
    |                                               |                |    [5]{}: section 0x42-0x59.7 (24)
0x40|      0b                                       |  .             |      id: "data section" (11) 0x42-0x42.7 (1)
0x40|         16                                    |   .            |      size: 22 0x43-0x43.7 (1)
    |                                               |                |      content{}: 0x44-0x59.7 (22)
    |                                               |                |        seg{}: 0x44-0x59.7 (22)
0x40|            01                                 |    .           |          n: 1 0x44-0x44.7 (1)
    |                                               |                |          x[0:1]: 0x45-0x59.7 (21)
    |                                               |                |            [0]{}: seg 0x45-0x59.7 (21)
0x40|               00                              |     .          |              tag: 0 0x45-0x45.7 (1)
    |                                               |                |              e[0:2]: 0x46-0x48.7 (3)
    |                                               |                |                [0]{}: in 0x46-0x47.7 (2)
0x40|                  41                           |      A         |                  i32.const: 0x41 (valid) 0x46-0x46.7 (1)
0x40|                     00                        |       .        |                  n: 0 0x47-0x47.7 (1)
    |                                               |                |                [1]{}: in 0x48-0x48.7 (1)
0x40|                        0b                     |        .       |                  end: 0xb (valid) 0x48-0x48.7 (1)
    |                                               |                |              b{}: 0x49-0x59.7 (17)
0x40|                           10                  |         .      |                n: 16 0x49-0x49.7 (1)
0x40|                              aa aa aa aa aa aa|          ......|                x: raw bits 0x4a-0x59.7 (16)
0x50|aa aa aa aa aa aa aa aa aa aa|                 |..........|     |
