$ fq -d wasm dv simd_load-1.wasm
    |00 01 02 03 04 05 06 07 08 09 0a 0b 0c 0d 0e 0f|0123456789abcdef|.{}: simd_load-1.wasm (wasm) 0x0-0x67.7 (104)
0x00|00 61 73 6d                                    |.asm            |  magic: raw bits (valid) 0x0-0x3.7 (4)
0x00|            01 00 00 00                        |    ....        |  version: 1 0x4-0x7.7 (4)
    |                                               |                |  sections[0:6]: 0x8-0x67.7 (96)
    |                                               |                |    [0]{}: section 0x8-0xe.7 (7)
0x00|                        01                     |        .       |      id: "type section" (1) 0x8-0x8.7 (1)
0x00|                           05                  |         .      |      size: 5 0x9-0x9.7 (1)
    |                                               |                |      content{}: 0xa-0xe.7 (5)
    |                                               |                |        ft{}: 0xa-0xe.7 (5)
0x00|                              01               |          .     |          n: 1 0xa-0xa.7 (1)
    |                                               |                |          x[0:1]: 0xb-0xe.7 (4)
    |                                               |                |            [0]{}: ft 0xb-0xe.7 (4)
0x00|                                 60            |           `    |              tag: 0x60 (valid) 0xb-0xb.7 (1)
    |                                               |                |              rt1{}: 0xc-0xc.7 (1)
0x00|                                    00         |            .   |                n: 0 0xc-0xc.7 (1)
    |                                               |                |                x[0:0]: 0xd-NA (0)
    |                                               |                |              rt2{}: 0xd-0xe.7 (2)
0x00|                                       01      |             .  |                n: 1 0xd-0xd.7 (1)
    |                                               |                |                x[0:1]: 0xe-0xe.7 (1)
0x00|                                          7f   |              . |                  [0]: "i32" (0x7f) t 0xe-0xe.7 (1)
    |                                               |                |    [1]{}: section 0xf-0x12.7 (4)
0x00|                                             03|               .|      id: "function section" (3) 0xf-0xf.7 (1)
0x10|02                                             |.               |      size: 2 0x10-0x10.7 (1)
    |                                               |                |      content{}: 0x11-0x12.7 (2)
    |                                               |                |        x{}: 0x11-0x12.7 (2)
0x10|   01                                          | .              |          n: 1 0x11-0x11.7 (1)
    |                                               |                |          x[0:1]: 0x12-0x12.7 (1)
0x10|      00                                       |  .             |            [0]: 0 x 0x12-0x12.7 (1)
    |                                               |                |    [2]{}: section 0x13-0x17.7 (5)
0x10|         05                                    |   .            |      id: "memory section" (5) 0x13-0x13.7 (1)
0x10|            03                                 |    .           |      size: 3 0x14-0x14.7 (1)
    |                                               |                |      content{}: 0x15-0x17.7 (3)
    |                                               |                |        mem{}: 0x15-0x17.7 (3)
0x10|               01                              |     .          |          n: 1 0x15-0x15.7 (1)
    |                                               |                |          x[0:1]: 0x16-0x17.7 (2)
    |                                               |                |            [0]{}: mem 0x16-0x17.7 (2)
    |                                               |                |              lim{}: 0x16-0x17.7 (2)
0x10|                  00                           |      .         |                tag: 0x0 0x16-0x16.7 (1)
0x10|                     01                        |       .        |                n: 1 0x17-0x17.7 (1)
    |                                               |                |    [3]{}: section 0x18-0x3c.7 (37)
0x10|                        07                     |        .       |      id: "export section" (7) 0x18-0x18.7 (1)
0x10|                           23                  |         #      |      size: 35 0x19-0x19.7 (1)
    |                                               |                |      content{}: 0x1a-0x3c.7 (35)
    |                                               |                |        ex{}: 0x1a-0x3c.7 (35)
0x10|                              01               |          .     |          n: 1 0x1a-0x1a.7 (1)
    |                                               |                |          x[0:1]: 0x1b-0x3c.7 (34)
    |                                               |                |            [0]{}: ex 0x1b-0x3c.7 (34)
    |                                               |                |              nm{}: 0x1b-0x3a.7 (32)
0x10|                                 1f            |           .    |                n: 31 0x1b-0x1b.7 (1)
0x10|                                    61 73 2d 69|            as-i|                b: "as-i8x16_extract_lane_s-value/0" 0x1c-0x3a.7 (31)
0x20|38 78 31 36 5f 65 78 74 72 61 63 74 5f 6c 61 6e|8x16_extract_lan|
0x30|65 5f 73 2d 76 61 6c 75 65 2f 30               |e_s-value/0     |
    |                                               |                |              d{}: 0x3b-0x3c.7 (2)
0x30|                                 00            |           .    |                tag: "funcidx" (0x0) 0x3b-0x3b.7 (1)
0x30|                                    00         |            .   |                x: 0 0x3c-0x3c.7 (1)
    |                                               |                |    [4]{}: section 0x3d-0x4b.7 (15)
0x30|                                       0a      |             .  |      id: "code section" (10) 0x3d-0x3d.7 (1)
0x30|                                          0d   |              . |      size: 13 0x3e-0x3e.7 (1)
    |                                               |                |      content{}: 0x3f-0x4b.7 (13)
    |                                               |                |        code{}: 0x3f-0x4b.7 (13)
0x30|                                             01|               .|          n: 1 0x3f-0x3f.7 (1)
    |                                               |                |          x[0:1]: 0x40-0x4b.7 (12)
    |                                               |                |            [0]{}: code 0x40-0x4b.7 (12)
0x40|0b                                             |.               |              size: 11 0x40-0x40.7 (1)
    |                                               |                |              code{}: 0x41-0x4b.7 (11)
    |                                               |                |                t{}: 0x41-0x41.7 (1)
0x40|   00                                          | .              |                  n: 0 0x41-0x41.7 (1)
    |                                               |                |                  x[0:0]: 0x42-NA (0)
    |                                               |                |                e[0:4]: 0x42-0x4b.7 (10)
    |                                               |                |                  [0]{}: in 0x42-0x43.7 (2)
0x40|      41                                       |  A             |                    i32.const: 0x41 (valid) 0x42-0x42.7 (1)
0x40|         00                                    |   .            |                    n: 0 0x43-0x43.7 (1)
    |                                               |                |                  [1]{}: in 0x44-0x47.7 (4)
0x40|            fd                                 |    .           |                    prefix: 0xfd (valid) 0x44-0x44.7 (1)
0x40|               00                              |     .          |                    v128.load: 0 (valid) 0x45-0x45.7 (1)
    |                                               |                |                    m{}: 0x46-0x47.7 (2)
0x40|                  04                           |      .         |                      a: 4 0x46-0x46.7 (1)
0x40|                     00                        |       .        |                      o: 0 0x47-0x47.7 (1)
    |                                               |                |                  [2]{}: in 0x48-0x4a.7 (3)
0x40|                        fd                     |        .       |                    prefix: 0xfd (valid) 0x48-0x48.7 (1)
0x40|                           15                  |         .      |                    i8x16.extract_lane_s: 21 (valid) 0x49-0x49.7 (1)
0x40|                              00               |          .     |                    l: 0 0x4a-0x4a.7 (1)
    |                                               |                |                  [3]{}: in 0x4b-0x4b.7 (1)
0x40|                                 0b            |           .    |                    end: 0xb (valid) 0x4b-0x4b.7 (1)
    |                                               |                |    [5]{}: section 0x4c-0x67.7 (28)
0x40|                                    0b         |            .   |      id: "data section" (11) 0x4c-0x4c.7 (1)
0x40|                                       1a      |             .  |      size: 26 0x4d-0x4d.7 (1)
    |                                               |                |      content{}: 0x4e-0x67.7 (26)
    |                                               |                |        seg{}: 0x4e-0x67.7 (26)
0x40|                                          01   |              . |          n: 1 0x4e-0x4e.7 (1)
    |                                               |                |          x[0:1]: 0x4f-0x67.7 (25)
    |                                               |                |            [0]{}: seg 0x4f-0x67.7 (25)
0x40|                                             00|               .|              tag: 0 0x4f-0x4f.7 (1)
    |                                               |                |              e[0:2]: 0x50-0x52.7 (3)
    |                                               |                |                [0]{}: in 0x50-0x51.7 (2)
0x50|41                                             |A               |                  i32.const: 0x41 (valid) 0x50-0x50.7 (1)
0x50|   00                                          | .              |                  n: 0 0x51-0x51.7 (1)
    |                                               |                |                [1]{}: in 0x52-0x52.7 (1)
0x50|      0b                                       |  .             |                  end: 0xb (valid) 0x52-0x52.7 (1)
    |                                               |                |              b{}: 0x53-0x67.7 (21)
0x50|         14                                    |   .            |                n: 20 0x53-0x53.7 (1)
0x50|            00 01 02 03 04 05 06 07 08 09 0a 0b|    ............|                x: raw bits 0x54-0x67.7 (20)
0x60|0c 0d 0e 0f 00 01 02 03|                       |........|       |
