$ fq -d wasm dv simd_splat-1.wasm
     |00 01 02 03 04 05 06 07 08 09 0a 0b 0c 0d 0e 0f|0123456789abcdef|.{}: simd_splat-1.wasm (wasm) 0x0-0x10f (271)
0x000|00 61 73 6d                                    |.asm            |  magic: raw bits (valid) 0x0-0x4 (4)
0x000|            01 00 00 00                        |    ....        |  version: 1 0x4-0x8 (4)
     |                                               |                |  sections[0:5]: 0x8-0x10f (263)
     |                                               |                |    [0]{}: section 0x8-0x1a (18)
0x000|                        01                     |        .       |      id: "type_section" (1) 0x8-0x9 (1)
0x000|                           10                  |         .      |      size: 16 (valid) 0x9-0xa (1)
     |                                               |                |      content{}: 0xa-0x1a (16)
     |                                               |                |        ft{}: 0xa-0x1a (16)
0x000|                              03               |          .     |          n: 3 (valid) 0xa-0xb (1)
     |                                               |                |          x[0:3]: 0xb-0x1a (15)
     |                                               |                |            [0]{}: ft 0xb-0x10 (5)
0x000|                                 60            |           `    |              tag: 0x60 (valid) 0xb-0xc (1)
     |                                               |                |              rt1{}: 0xc-0xe (2)
0x000|                                    01         |            .   |                n: 1 (valid) 0xc-0xd (1)
     |                                               |                |                x[0:1]: 0xd-0xe (1)
0x000|                                       7f      |             .  |                  [0]: "i32" (0x7f) t 0xd-0xe (1)
     |                                               |                |              rt2{}: 0xe-0x10 (2)
0x000|                                          01   |              . |                n: 1 (valid) 0xe-0xf (1)
     |                                               |                |                x[0:1]: 0xf-0x10 (1)
0x000|                                             7b|               {|                  [0]: "v128" (0x7b) t 0xf-0x10 (1)
     |                                               |                |            [1]{}: ft 0x10-0x15 (5)
0x010|60                                             |`               |              tag: 0x60 (valid) 0x10-0x11 (1)
     |                                               |                |              rt1{}: 0x11-0x13 (2)
0x010|   01                                          | .              |                n: 1 (valid) 0x11-0x12 (1)
     |                                               |                |                x[0:1]: 0x12-0x13 (1)
0x010|      7e                                       |  ~             |                  [0]: "i64" (0x7e) t 0x12-0x13 (1)
     |                                               |                |              rt2{}: 0x13-0x15 (2)
0x010|         01                                    |   .            |                n: 1 (valid) 0x13-0x14 (1)
     |                                               |                |                x[0:1]: 0x14-0x15 (1)
0x010|            7b                                 |    {           |                  [0]: "v128" (0x7b) t 0x14-0x15 (1)
     |                                               |                |            [2]{}: ft 0x15-0x1a (5)
0x010|               60                              |     `          |              tag: 0x60 (valid) 0x15-0x16 (1)
     |                                               |                |              rt1{}: 0x16-0x18 (2)
0x010|                  01                           |      .         |                n: 1 (valid) 0x16-0x17 (1)
     |                                               |                |                x[0:1]: 0x17-0x18 (1)
0x010|                     7c                        |       |        |                  [0]: "f64" (0x7c) t 0x17-0x18 (1)
     |                                               |                |              rt2{}: 0x18-0x1a (2)
0x010|                        01                     |        .       |                n: 1 (valid) 0x18-0x19 (1)
     |                                               |                |                x[0:1]: 0x19-0x1a (1)
0x010|                           7b                  |         {      |                  [0]: "v128" (0x7b) t 0x19-0x1a (1)
     |                                               |                |    [1]{}: section 0x1a-0x22 (8)
0x010|                              03               |          .     |      id: "function_section" (3) 0x1a-0x1b (1)
0x010|                                 06            |           .    |      size: 6 (valid) 0x1b-0x1c (1)
     |                                               |                |      content{}: 0x1c-0x22 (6)
     |                                               |                |        x{}: 0x1c-0x22 (6)
0x010|                                    05         |            .   |          n: 5 (valid) 0x1c-0x1d (1)
     |                                               |                |          x[0:5]: 0x1d-0x22 (5)
0x010|                                       00      |             .  |            [0]: 0 x (valid) 0x1d-0x1e (1)
0x010|                                          00   |              . |            [1]: 0 x (valid) 0x1e-0x1f (1)
0x010|                                             00|               .|            [2]: 0 x (valid) 0x1f-0x20 (1)
0x020|01                                             |.               |            [3]: 1 x (valid) 0x20-0x21 (1)
0x020|   02                                          | .              |            [4]: 2 x (valid) 0x21-0x22 (1)
     |                                               |                |    [2]{}: section 0x22-0x27 (5)
0x020|      05                                       |  .             |      id: "memory_section" (5) 0x22-0x23 (1)
0x020|         03                                    |   .            |      size: 3 (valid) 0x23-0x24 (1)
     |                                               |                |      content{}: 0x24-0x27 (3)
     |                                               |                |        mem{}: 0x24-0x27 (3)
0x020|            01                                 |    .           |          n: 1 (valid) 0x24-0x25 (1)
     |                                               |                |          x[0:1]: 0x25-0x27 (2)
     |                                               |                |            [0]{}: mem 0x25-0x27 (2)
     |                                               |                |              lim{}: 0x25-0x27 (2)
0x020|               00                              |     .          |                tag: 0x0 0x25-0x26 (1)
0x020|                  01                           |      .         |                n: 1 (valid) 0x26-0x27 (1)
     |                                               |                |    [3]{}: section 0x27-0xad (134)
0x020|                     07                        |       .        |      id: "export_section" (7) 0x27-0x28 (1)
0x020|                        83 01                  |        ..      |      size: 131 (valid) 0x28-0x2a (2)
     |                                               |                |      content{}: 0x2a-0xad (131)
     |                                               |                |        ex{}: 0x2a-0xad (131)
0x020|                              05               |          .     |          n: 5 (valid) 0x2a-0x2b (1)
     |                                               |                |          x[0:5]: 0x2b-0xad (130)
     |                                               |                |            [0]{}: ex 0x2b-0x45 (26)
     |                                               |                |              nm{}: 0x2b-0x43 (24)
0x020|                                 17            |           .    |                n: 23 (valid) 0x2b-0x2c (1)
0x020|                                    61 73 2d 76|            as-v|                b: "as-v128_store-operand-1" 0x2c-0x43 (23)
0x030|31 32 38 5f 73 74 6f 72 65 2d 6f 70 65 72 61 6e|128_store-operan|
0x040|64 2d 31                                       |d-1             |
     |                                               |                |              d{}: 0x43-0x45 (2)
0x040|         00                                    |   .            |                tag: "funcidx" (0x0) 0x43-0x44 (1)
0x040|            00                                 |    .           |                x: 0 (valid) 0x44-0x45 (1)
     |                                               |                |            [1]{}: ex 0x45-0x5f (26)
     |                                               |                |              nm{}: 0x45-0x5d (24)
0x040|               17                              |     .          |                n: 23 (valid) 0x45-0x46 (1)
0x040|                  61 73 2d 76 31 32 38 5f 73 74|      as-v128_st|                b: "as-v128_store-operand-2" 0x46-0x5d (23)
0x050|6f 72 65 2d 6f 70 65 72 61 6e 64 2d 32         |ore-operand-2   |
     |                                               |                |              d{}: 0x5d-0x5f (2)
0x050|                                       00      |             .  |                tag: "funcidx" (0x0) 0x5d-0x5e (1)
0x050|                                          01   |              . |                x: 1 (valid) 0x5e-0x5f (1)
     |                                               |                |            [2]{}: ex 0x5f-0x79 (26)
     |                                               |                |              nm{}: 0x5f-0x77 (24)
0x050|                                             17|               .|                n: 23 (valid) 0x5f-0x60 (1)
0x060|61 73 2d 76 31 32 38 5f 73 74 6f 72 65 2d 6f 70|as-v128_store-op|                b: "as-v128_store-operand-3" 0x60-0x77 (23)
0x070|65 72 61 6e 64 2d 33                           |erand-3         |
     |                                               |                |              d{}: 0x77-0x79 (2)
0x070|                     00                        |       .        |                tag: "funcidx" (0x0) 0x77-0x78 (1)
0x070|                        02                     |        .       |                x: 2 (valid) 0x78-0x79 (1)
     |                                               |                |            [3]{}: ex 0x79-0x93 (26)
     |                                               |                |              nm{}: 0x79-0x91 (24)
0x070|                           17                  |         .      |                n: 23 (valid) 0x79-0x7a (1)
0x070|                              61 73 2d 76 31 32|          as-v12|                b: "as-v128_store-operand-4" 0x7a-0x91 (23)
0x080|38 5f 73 74 6f 72 65 2d 6f 70 65 72 61 6e 64 2d|8_store-operand-|
0x090|34                                             |4               |
     |                                               |                |              d{}: 0x91-0x93 (2)
0x090|   00                                          | .              |                tag: "funcidx" (0x0) 0x91-0x92 (1)
0x090|      03                                       |  .             |                x: 3 (valid) 0x92-0x93 (1)
     |                                               |                |            [4]{}: ex 0x93-0xad (26)
     |                                               |                |              nm{}: 0x93-0xab (24)
0x090|         17                                    |   .            |                n: 23 (valid) 0x93-0x94 (1)
0x090|            61 73 2d 76 31 32 38 5f 73 74 6f 72|    as-v128_stor|                b: "as-v128_store-operand-5" 0x94-0xab (23)
0x0a0|65 2d 6f 70 65 72 61 6e 64 2d 35               |e-operand-5     |
     |                                               |                |              d{}: 0xab-0xad (2)
0x0a0|                                 00            |           .    |                tag: "funcidx" (0x0) 0xab-0xac (1)
0x0a0|                                    04         |            .   |                x: 4 (valid) 0xac-0xad (1)
     |                                               |                |    [4]{}: section 0xad-0x10f (98)
0x0a0|                                       0a      |             .  |      id: "code_section" (10) 0xad-0xae (1)
0x0a0|                                          60   |              ` |      size: 96 (valid) 0xae-0xaf (1)
     |                                               |                |      content{}: 0xaf-0x10f (96)
     |                                               |                |        code{}: 0xaf-0x10f (96)
0x0a0|                                             05|               .|          n: 5 (valid) 0xaf-0xb0 (1)
     |                                               |                |          x[0:5]: 0xb0-0x10f (95)
     |                                               |                |            [0]{}: code 0xb0-0xc3 (19)
0x0b0|12                                             |.               |              size: 18 (valid) 0xb0-0xb1 (1)
     |                                               |                |              code{}: 0xb1-0xc3 (18)
     |                                               |                |                t{}: 0xb1-0xb2 (1)
0x0b0|   00                                          | .              |                  n: 0 (valid) 0xb1-0xb2 (1)
     |                                               |                |                  x[0:0]: 0xb2-0xb2 (0)
     |                                               |                |                e[0:7]: 0xb2-0xc3 (17)
     |                                               |                |                  [0]{}: in 0xb2-0xb4 (2)
0x0b0|      41                                       |  A             |                    opcode: "i32.const" (0x41) 0xb2-0xb3 (1)
0x0b0|         00                                    |   .            |                    n: 0 (valid) 0xb3-0xb4 (1)
     |                                               |                |                  [1]{}: in 0xb4-0xb6 (2)
0x0b0|            20                                 |                |                    opcode: "local.get" (0x20) 0xb4-0xb5 (1)
0x0b0|               00                              |     .          |                    x: 0 (valid) 0xb5-0xb6 (1)
     |                                               |                |                  [2]{}: in 0xb6-0xb8 (2)
0x0b0|                  fd                           |      .         |                    opcode: "vector" (0xfd) 0xb6-0xb7 (1)
0x0b0|                     0f                        |       .        |                    v_opcode: "i8x16.splat" (15) 0xb7-0xb8 (1)
     |                                               |                |                  [3]{}: in 0xb8-0xbc (4)
0x0b0|                        fd                     |        .       |                    opcode: "vector" (0xfd) 0xb8-0xb9 (1)
0x0b0|                           0b                  |         .      |                    v_opcode: "v128.store" (11) 0xb9-0xba (1)
     |                                               |                |                    m{}: 0xba-0xbc (2)
0x0b0|                              04               |          .     |                      a: 4 (valid) 0xba-0xbb (1)
0x0b0|                                 00            |           .    |                      o: 0 (valid) 0xbb-0xbc (1)
     |                                               |                |                  [4]{}: in 0xbc-0xbe (2)
0x0b0|                                    41         |            A   |                    opcode: "i32.const" (0x41) 0xbc-0xbd (1)
0x0b0|                                       00      |             .  |                    n: 0 (valid) 0xbd-0xbe (1)
     |                                               |                |                  [5]{}: in 0xbe-0xc2 (4)
0x0b0|                                          fd   |              . |                    opcode: "vector" (0xfd) 0xbe-0xbf (1)
0x0b0|                                             00|               .|                    v_opcode: "v128.load" (0) 0xbf-0xc0 (1)
     |                                               |                |                    m{}: 0xc0-0xc2 (2)
0x0c0|04                                             |.               |                      a: 4 (valid) 0xc0-0xc1 (1)
0x0c0|   00                                          | .              |                      o: 0 (valid) 0xc1-0xc2 (1)
     |                                               |                |                  [6]{}: in 0xc2-0xc3 (1)
0x0c0|      0b                                       |  .             |                    opcode: "end" (0xb) 0xc2-0xc3 (1)
     |                                               |                |            [1]{}: code 0xc3-0xd6 (19)
0x0c0|         12                                    |   .            |              size: 18 (valid) 0xc3-0xc4 (1)
     |                                               |                |              code{}: 0xc4-0xd6 (18)
     |                                               |                |                t{}: 0xc4-0xc5 (1)
0x0c0|            00                                 |    .           |                  n: 0 (valid) 0xc4-0xc5 (1)
     |                                               |                |                  x[0:0]: 0xc5-0xc5 (0)
     |                                               |                |                e[0:7]: 0xc5-0xd6 (17)
     |                                               |                |                  [0]{}: in 0xc5-0xc7 (2)
0x0c0|               41                              |     A          |                    opcode: "i32.const" (0x41) 0xc5-0xc6 (1)
0x0c0|                  00                           |      .         |                    n: 0 (valid) 0xc6-0xc7 (1)
     |                                               |                |                  [1]{}: in 0xc7-0xc9 (2)
0x0c0|                     20                        |                |                    opcode: "local.get" (0x20) 0xc7-0xc8 (1)
0x0c0|                        00                     |        .       |                    x: 0 (valid) 0xc8-0xc9 (1)
     |                                               |                |                  [2]{}: in 0xc9-0xcb (2)
0x0c0|                           fd                  |         .      |                    opcode: "vector" (0xfd) 0xc9-0xca (1)
0x0c0|                              10               |          .     |                    v_opcode: "i16x8.splat" (16) 0xca-0xcb (1)
     |                                               |                |                  [3]{}: in 0xcb-0xcf (4)
0x0c0|                                 fd            |           .    |                    opcode: "vector" (0xfd) 0xcb-0xcc (1)
0x0c0|                                    0b         |            .   |                    v_opcode: "v128.store" (11) 0xcc-0xcd (1)
     |                                               |                |                    m{}: 0xcd-0xcf (2)
0x0c0|                                       04      |             .  |                      a: 4 (valid) 0xcd-0xce (1)
0x0c0|                                          00   |              . |                      o: 0 (valid) 0xce-0xcf (1)
     |                                               |                |                  [4]{}: in 0xcf-0xd1 (2)
0x0c0|                                             41|               A|                    opcode: "i32.const" (0x41) 0xcf-0xd0 (1)
0x0d0|00                                             |.               |                    n: 0 (valid) 0xd0-0xd1 (1)
     |                                               |                |                  [5]{}: in 0xd1-0xd5 (4)
0x0d0|   fd                                          | .              |                    opcode: "vector" (0xfd) 0xd1-0xd2 (1)
0x0d0|      00                                       |  .             |                    v_opcode: "v128.load" (0) 0xd2-0xd3 (1)
     |                                               |                |                    m{}: 0xd3-0xd5 (2)
0x0d0|         04                                    |   .            |                      a: 4 (valid) 0xd3-0xd4 (1)
0x0d0|            00                                 |    .           |                      o: 0 (valid) 0xd4-0xd5 (1)
     |                                               |                |                  [6]{}: in 0xd5-0xd6 (1)
0x0d0|               0b                              |     .          |                    opcode: "end" (0xb) 0xd5-0xd6 (1)
     |                                               |                |            [2]{}: code 0xd6-0xe9 (19)
0x0d0|                  12                           |      .         |              size: 18 (valid) 0xd6-0xd7 (1)
     |                                               |                |              code{}: 0xd7-0xe9 (18)
     |                                               |                |                t{}: 0xd7-0xd8 (1)
0x0d0|                     00                        |       .        |                  n: 0 (valid) 0xd7-0xd8 (1)
     |                                               |                |                  x[0:0]: 0xd8-0xd8 (0)
     |                                               |                |                e[0:7]: 0xd8-0xe9 (17)
     |                                               |                |                  [0]{}: in 0xd8-0xda (2)
0x0d0|                        41                     |        A       |                    opcode: "i32.const" (0x41) 0xd8-0xd9 (1)
0x0d0|                           00                  |         .      |                    n: 0 (valid) 0xd9-0xda (1)
     |                                               |                |                  [1]{}: in 0xda-0xdc (2)
0x0d0|                              20               |                |                    opcode: "local.get" (0x20) 0xda-0xdb (1)
0x0d0|                                 00            |           .    |                    x: 0 (valid) 0xdb-0xdc (1)
     |                                               |                |                  [2]{}: in 0xdc-0xde (2)
0x0d0|                                    fd         |            .   |                    opcode: "vector" (0xfd) 0xdc-0xdd (1)
0x0d0|                                       11      |             .  |                    v_opcode: "i32x4.splat" (17) 0xdd-0xde (1)
     |                                               |                |                  [3]{}: in 0xde-0xe2 (4)
0x0d0|                                          fd   |              . |                    opcode: "vector" (0xfd) 0xde-0xdf (1)
0x0d0|                                             0b|               .|                    v_opcode: "v128.store" (11) 0xdf-0xe0 (1)
     |                                               |                |                    m{}: 0xe0-0xe2 (2)
0x0e0|04                                             |.               |                      a: 4 (valid) 0xe0-0xe1 (1)
0x0e0|   00                                          | .              |                      o: 0 (valid) 0xe1-0xe2 (1)
     |                                               |                |                  [4]{}: in 0xe2-0xe4 (2)
0x0e0|      41                                       |  A             |                    opcode: "i32.const" (0x41) 0xe2-0xe3 (1)
0x0e0|         00                                    |   .            |                    n: 0 (valid) 0xe3-0xe4 (1)
     |                                               |                |                  [5]{}: in 0xe4-0xe8 (4)
0x0e0|            fd                                 |    .           |                    opcode: "vector" (0xfd) 0xe4-0xe5 (1)
0x0e0|               00                              |     .          |                    v_opcode: "v128.load" (0) 0xe5-0xe6 (1)
     |                                               |                |                    m{}: 0xe6-0xe8 (2)
0x0e0|                  04                           |      .         |                      a: 4 (valid) 0xe6-0xe7 (1)
0x0e0|                     00                        |       .        |                      o: 0 (valid) 0xe7-0xe8 (1)
     |                                               |                |                  [6]{}: in 0xe8-0xe9 (1)
0x0e0|                        0b                     |        .       |                    opcode: "end" (0xb) 0xe8-0xe9 (1)
     |                                               |                |            [3]{}: code 0xe9-0xfc (19)
0x0e0|                           12                  |         .      |              size: 18 (valid) 0xe9-0xea (1)
     |                                               |                |              code{}: 0xea-0xfc (18)
     |                                               |                |                t{}: 0xea-0xeb (1)
0x0e0|                              00               |          .     |                  n: 0 (valid) 0xea-0xeb (1)
     |                                               |                |                  x[0:0]: 0xeb-0xeb (0)
     |                                               |                |                e[0:7]: 0xeb-0xfc (17)
     |                                               |                |                  [0]{}: in 0xeb-0xed (2)
0x0e0|                                 41            |           A    |                    opcode: "i32.const" (0x41) 0xeb-0xec (1)
0x0e0|                                    00         |            .   |                    n: 0 (valid) 0xec-0xed (1)
     |                                               |                |                  [1]{}: in 0xed-0xef (2)
0x0e0|                                       20      |                |                    opcode: "local.get" (0x20) 0xed-0xee (1)
0x0e0|                                          00   |              . |                    x: 0 (valid) 0xee-0xef (1)
     |                                               |                |                  [2]{}: in 0xef-0xf1 (2)
0x0e0|                                             fd|               .|                    opcode: "vector" (0xfd) 0xef-0xf0 (1)
0x0f0|12                                             |.               |                    v_opcode: "i64x2.splat" (18) 0xf0-0xf1 (1)
     |                                               |                |                  [3]{}: in 0xf1-0xf5 (4)
0x0f0|   fd                                          | .              |                    opcode: "vector" (0xfd) 0xf1-0xf2 (1)
0x0f0|      0b                                       |  .             |                    v_opcode: "v128.store" (11) 0xf2-0xf3 (1)
     |                                               |                |                    m{}: 0xf3-0xf5 (2)
0x0f0|         04                                    |   .            |                      a: 4 (valid) 0xf3-0xf4 (1)
0x0f0|            00                                 |    .           |                      o: 0 (valid) 0xf4-0xf5 (1)
     |                                               |                |                  [4]{}: in 0xf5-0xf7 (2)
0x0f0|               41                              |     A          |                    opcode: "i32.const" (0x41) 0xf5-0xf6 (1)
0x0f0|                  00                           |      .         |                    n: 0 (valid) 0xf6-0xf7 (1)
     |                                               |                |                  [5]{}: in 0xf7-0xfb (4)
0x0f0|                     fd                        |       .        |                    opcode: "vector" (0xfd) 0xf7-0xf8 (1)
0x0f0|                        00                     |        .       |                    v_opcode: "v128.load" (0) 0xf8-0xf9 (1)
     |                                               |                |                    m{}: 0xf9-0xfb (2)
0x0f0|                           04                  |         .      |                      a: 4 (valid) 0xf9-0xfa (1)
0x0f0|                              00               |          .     |                      o: 0 (valid) 0xfa-0xfb (1)
     |                                               |                |                  [6]{}: in 0xfb-0xfc (1)
0x0f0|                                 0b            |           .    |                    opcode: "end" (0xb) 0xfb-0xfc (1)
     |                                               |                |            [4]{}: code 0xfc-0x10f (19)
0x0f0|                                    12         |            .   |              size: 18 (valid) 0xfc-0xfd (1)
     |                                               |                |              code{}: 0xfd-0x10f (18)
     |                                               |                |                t{}: 0xfd-0xfe (1)
0x0f0|                                       00      |             .  |                  n: 0 (valid) 0xfd-0xfe (1)
     |                                               |                |                  x[0:0]: 0xfe-0xfe (0)
     |                                               |                |                e[0:7]: 0xfe-0x10f (17)
     |                                               |                |                  [0]{}: in 0xfe-0x100 (2)
0x0f0|                                          41   |              A |                    opcode: "i32.const" (0x41) 0xfe-0xff (1)
0x0f0|                                             00|               .|                    n: 0 (valid) 0xff-0x100 (1)
     |                                               |                |                  [1]{}: in 0x100-0x102 (2)
0x100|20                                             |                |                    opcode: "local.get" (0x20) 0x100-0x101 (1)
0x100|   00                                          | .              |                    x: 0 (valid) 0x101-0x102 (1)
     |                                               |                |                  [2]{}: in 0x102-0x104 (2)
0x100|      fd                                       |  .             |                    opcode: "vector" (0xfd) 0x102-0x103 (1)
0x100|         14                                    |   .            |                    v_opcode: "f64x2.splat" (20) 0x103-0x104 (1)
     |                                               |                |                  [3]{}: in 0x104-0x108 (4)
0x100|            fd                                 |    .           |                    opcode: "vector" (0xfd) 0x104-0x105 (1)
0x100|               0b                              |     .          |                    v_opcode: "v128.store" (11) 0x105-0x106 (1)
     |                                               |                |                    m{}: 0x106-0x108 (2)
0x100|                  04                           |      .         |                      a: 4 (valid) 0x106-0x107 (1)
0x100|                     00                        |       .        |                      o: 0 (valid) 0x107-0x108 (1)
     |                                               |                |                  [4]{}: in 0x108-0x10a (2)
0x100|                        41                     |        A       |                    opcode: "i32.const" (0x41) 0x108-0x109 (1)
0x100|                           00                  |         .      |                    n: 0 (valid) 0x109-0x10a (1)
     |                                               |                |                  [5]{}: in 0x10a-0x10e (4)
0x100|                              fd               |          .     |                    opcode: "vector" (0xfd) 0x10a-0x10b (1)
0x100|                                 00            |           .    |                    v_opcode: "v128.load" (0) 0x10b-0x10c (1)
     |                                               |                |                    m{}: 0x10c-0x10e (2)
0x100|                                    04         |            .   |                      a: 4 (valid) 0x10c-0x10d (1)
0x100|                                       00      |             .  |                      o: 0 (valid) 0x10d-0x10e (1)
     |                                               |                |                  [6]{}: in 0x10e-0x10f (1)
0x100|                                          0b|  |              .||                    opcode: "end" (0xb) 0x10e-0x10f (1)
