$ fq -d wasm dv simd_i8x16_sat_arith-0.wasm
    |00 01 02 03 04 05 06 07 08 09 0a 0b 0c 0d 0e 0f|0123456789abcdef|.{}: simd_i8x16_sat_arith-0.wasm (wasm) 0x0-0x89.7 (138)
0x00|00 61 73 6d                                    |.asm            |  magic: raw bits (valid) 0x0-0x3.7 (4)
0x00|            01 00 00 00                        |    ....        |  version: 1 0x4-0x7.7 (4)
    |                                               |                |  sections[0:4]: 0x8-0x89.7 (130)
    |                                               |                |    [0]{}: section 0x8-0x10.7 (9)
0x00|                        01                     |        .       |      id: "type_section" (1) 0x8-0x8.7 (1)
0x00|                           07                  |         .      |      size: 7 (valid) 0x9-0x9.7 (1)
    |                                               |                |      content{}: 0xa-0x10.7 (7)
    |                                               |                |        ft{}: 0xa-0x10.7 (7)
0x00|                              01               |          .     |          n: 1 (valid) 0xa-0xa.7 (1)
    |                                               |                |          x[0:1]: 0xb-0x10.7 (6)
    |                                               |                |            [0]{}: ft 0xb-0x10.7 (6)
0x00|                                 60            |           `    |              tag: 0x60 (valid) 0xb-0xb.7 (1)
    |                                               |                |              rt1{}: 0xc-0xe.7 (3)
0x00|                                    02         |            .   |                n: 2 (valid) 0xc-0xc.7 (1)
    |                                               |                |                x[0:2]: 0xd-0xe.7 (2)
0x00|                                       7b      |             {  |                  [0]: "v128" (0x7b) t 0xd-0xd.7 (1)
0x00|                                          7b   |              { |                  [1]: "v128" (0x7b) t 0xe-0xe.7 (1)
    |                                               |                |              rt2{}: 0xf-0x10.7 (2)
0x00|                                             01|               .|                n: 1 (valid) 0xf-0xf.7 (1)
    |                                               |                |                x[0:1]: 0x10-0x10.7 (1)
0x10|7b                                             |{               |                  [0]: "v128" (0x7b) t 0x10-0x10.7 (1)
    |                                               |                |    [1]{}: section 0x11-0x17.7 (7)
0x10|   03                                          | .              |      id: "function_section" (3) 0x11-0x11.7 (1)
0x10|      05                                       |  .             |      size: 5 (valid) 0x12-0x12.7 (1)
    |                                               |                |      content{}: 0x13-0x17.7 (5)
    |                                               |                |        x{}: 0x13-0x17.7 (5)
0x10|         04                                    |   .            |          n: 4 (valid) 0x13-0x13.7 (1)
    |                                               |                |          x[0:4]: 0x14-0x17.7 (4)
0x10|            00                                 |    .           |            [0]: 0 x (valid) 0x14-0x14.7 (1)
0x10|               00                              |     .          |            [1]: 0 x (valid) 0x15-0x15.7 (1)
0x10|                  00                           |      .         |            [2]: 0 x (valid) 0x16-0x16.7 (1)
0x10|                     00                        |       .        |            [3]: 0 x (valid) 0x17-0x17.7 (1)
    |                                               |                |    [2]{}: section 0x18-0x62.7 (75)
0x10|                        07                     |        .       |      id: "export_section" (7) 0x18-0x18.7 (1)
0x10|                           49                  |         I      |      size: 73 (valid) 0x19-0x19.7 (1)
    |                                               |                |      content{}: 0x1a-0x62.7 (73)
    |                                               |                |        ex{}: 0x1a-0x62.7 (73)
0x10|                              04               |          .     |          n: 4 (valid) 0x1a-0x1a.7 (1)
    |                                               |                |          x[0:4]: 0x1b-0x62.7 (72)
    |                                               |                |            [0]{}: ex 0x1b-0x2c.7 (18)
    |                                               |                |              nm{}: 0x1b-0x2a.7 (16)
0x10|                                 0f            |           .    |                n: 15 (valid) 0x1b-0x1b.7 (1)
0x10|                                    69 38 78 31|            i8x1|                b: "i8x16.add_sat_s" 0x1c-0x2a.7 (15)
0x20|36 2e 61 64 64 5f 73 61 74 5f 73               |6.add_sat_s     |
    |                                               |                |              d{}: 0x2b-0x2c.7 (2)
0x20|                                 00            |           .    |                tag: "funcidx" (0x0) 0x2b-0x2b.7 (1)
0x20|                                    00         |            .   |                x: 0 (valid) 0x2c-0x2c.7 (1)
    |                                               |                |            [1]{}: ex 0x2d-0x3e.7 (18)
    |                                               |                |              nm{}: 0x2d-0x3c.7 (16)
0x20|                                       0f      |             .  |                n: 15 (valid) 0x2d-0x2d.7 (1)
0x20|                                          69 38|              i8|                b: "i8x16.add_sat_u" 0x2e-0x3c.7 (15)
0x30|78 31 36 2e 61 64 64 5f 73 61 74 5f 75         |x16.add_sat_u   |
    |                                               |                |              d{}: 0x3d-0x3e.7 (2)
0x30|                                       00      |             .  |                tag: "funcidx" (0x0) 0x3d-0x3d.7 (1)
0x30|                                          01   |              . |                x: 1 (valid) 0x3e-0x3e.7 (1)
    |                                               |                |            [2]{}: ex 0x3f-0x50.7 (18)
    |                                               |                |              nm{}: 0x3f-0x4e.7 (16)
0x30|                                             0f|               .|                n: 15 (valid) 0x3f-0x3f.7 (1)
0x40|69 38 78 31 36 2e 73 75 62 5f 73 61 74 5f 73   |i8x16.sub_sat_s |                b: "i8x16.sub_sat_s" 0x40-0x4e.7 (15)
    |                                               |                |              d{}: 0x4f-0x50.7 (2)
0x40|                                             00|               .|                tag: "funcidx" (0x0) 0x4f-0x4f.7 (1)
0x50|02                                             |.               |                x: 2 (valid) 0x50-0x50.7 (1)
    |                                               |                |            [3]{}: ex 0x51-0x62.7 (18)
    |                                               |                |              nm{}: 0x51-0x60.7 (16)
0x50|   0f                                          | .              |                n: 15 (valid) 0x51-0x51.7 (1)
0x50|      69 38 78 31 36 2e 73 75 62 5f 73 61 74 5f|  i8x16.sub_sat_|                b: "i8x16.sub_sat_u" 0x52-0x60.7 (15)
0x60|75                                             |u               |
    |                                               |                |              d{}: 0x61-0x62.7 (2)
0x60|   00                                          | .              |                tag: "funcidx" (0x0) 0x61-0x61.7 (1)
0x60|      03                                       |  .             |                x: 3 (valid) 0x62-0x62.7 (1)
    |                                               |                |    [3]{}: section 0x63-0x89.7 (39)
0x60|         0a                                    |   .            |      id: "code_section" (10) 0x63-0x63.7 (1)
0x60|            25                                 |    %           |      size: 37 (valid) 0x64-0x64.7 (1)
    |                                               |                |      content{}: 0x65-0x89.7 (37)
    |                                               |                |        code{}: 0x65-0x89.7 (37)
0x60|               04                              |     .          |          n: 4 (valid) 0x65-0x65.7 (1)
    |                                               |                |          x[0:4]: 0x66-0x89.7 (36)
    |                                               |                |            [0]{}: code 0x66-0x6e.7 (9)
0x60|                  08                           |      .         |              size: 8 (valid) 0x66-0x66.7 (1)
    |                                               |                |              code{}: 0x67-0x6e.7 (8)
    |                                               |                |                t{}: 0x67-0x67.7 (1)
0x60|                     00                        |       .        |                  n: 0 (valid) 0x67-0x67.7 (1)
    |                                               |                |                  x[0:0]: 0x68-NA (0)
    |                                               |                |                e[0:4]: 0x68-0x6e.7 (7)
    |                                               |                |                  [0]{}: in 0x68-0x69.7 (2)
0x60|                        20                     |                |                    opcode: "local.get" (0x20) 0x68-0x68.7 (1)
0x60|                           00                  |         .      |                    x: 0 (valid) 0x69-0x69.7 (1)
    |                                               |                |                  [1]{}: in 0x6a-0x6b.7 (2)
0x60|                              20               |                |                    opcode: "local.get" (0x20) 0x6a-0x6a.7 (1)
0x60|                                 01            |           .    |                    x: 1 (valid) 0x6b-0x6b.7 (1)
    |                                               |                |                  [2]{}: in 0x6c-0x6d.7 (2)
0x60|                                    fd         |            .   |                    opcode: "vector" (0xfd) 0x6c-0x6c.7 (1)
0x60|                                       6f      |             o  |                    v_opcode: "i8x16.add_sat_s" (111) 0x6d-0x6d.7 (1)
    |                                               |                |                  [3]{}: in 0x6e-0x6e.7 (1)
0x60|                                          0b   |              . |                    opcode: "end" (0xb) 0x6e-0x6e.7 (1)
    |                                               |                |            [1]{}: code 0x6f-0x77.7 (9)
0x60|                                             08|               .|              size: 8 (valid) 0x6f-0x6f.7 (1)
    |                                               |                |              code{}: 0x70-0x77.7 (8)
    |                                               |                |                t{}: 0x70-0x70.7 (1)
0x70|00                                             |.               |                  n: 0 (valid) 0x70-0x70.7 (1)
    |                                               |                |                  x[0:0]: 0x71-NA (0)
    |                                               |                |                e[0:4]: 0x71-0x77.7 (7)
    |                                               |                |                  [0]{}: in 0x71-0x72.7 (2)
0x70|   20                                          |                |                    opcode: "local.get" (0x20) 0x71-0x71.7 (1)
0x70|      00                                       |  .             |                    x: 0 (valid) 0x72-0x72.7 (1)
    |                                               |                |                  [1]{}: in 0x73-0x74.7 (2)
0x70|         20                                    |                |                    opcode: "local.get" (0x20) 0x73-0x73.7 (1)
0x70|            01                                 |    .           |                    x: 1 (valid) 0x74-0x74.7 (1)
    |                                               |                |                  [2]{}: in 0x75-0x76.7 (2)
0x70|               fd                              |     .          |                    opcode: "vector" (0xfd) 0x75-0x75.7 (1)
0x70|                  70                           |      p         |                    v_opcode: "i8x16.add_sat_u" (112) 0x76-0x76.7 (1)
    |                                               |                |                  [3]{}: in 0x77-0x77.7 (1)
0x70|                     0b                        |       .        |                    opcode: "end" (0xb) 0x77-0x77.7 (1)
    |                                               |                |            [2]{}: code 0x78-0x80.7 (9)
0x70|                        08                     |        .       |              size: 8 (valid) 0x78-0x78.7 (1)
    |                                               |                |              code{}: 0x79-0x80.7 (8)
    |                                               |                |                t{}: 0x79-0x79.7 (1)
0x70|                           00                  |         .      |                  n: 0 (valid) 0x79-0x79.7 (1)
    |                                               |                |                  x[0:0]: 0x7a-NA (0)
    |                                               |                |                e[0:4]: 0x7a-0x80.7 (7)
    |                                               |                |                  [0]{}: in 0x7a-0x7b.7 (2)
0x70|                              20               |                |                    opcode: "local.get" (0x20) 0x7a-0x7a.7 (1)
0x70|                                 00            |           .    |                    x: 0 (valid) 0x7b-0x7b.7 (1)
    |                                               |                |                  [1]{}: in 0x7c-0x7d.7 (2)
0x70|                                    20         |                |                    opcode: "local.get" (0x20) 0x7c-0x7c.7 (1)
0x70|                                       01      |             .  |                    x: 1 (valid) 0x7d-0x7d.7 (1)
    |                                               |                |                  [2]{}: in 0x7e-0x7f.7 (2)
0x70|                                          fd   |              . |                    opcode: "vector" (0xfd) 0x7e-0x7e.7 (1)
0x70|                                             72|               r|                    v_opcode: "i8x16.sub_sat_s" (114) 0x7f-0x7f.7 (1)
    |                                               |                |                  [3]{}: in 0x80-0x80.7 (1)
0x80|0b                                             |.               |                    opcode: "end" (0xb) 0x80-0x80.7 (1)
    |                                               |                |            [3]{}: code 0x81-0x89.7 (9)
0x80|   08                                          | .              |              size: 8 (valid) 0x81-0x81.7 (1)
    |                                               |                |              code{}: 0x82-0x89.7 (8)
    |                                               |                |                t{}: 0x82-0x82.7 (1)
0x80|      00                                       |  .             |                  n: 0 (valid) 0x82-0x82.7 (1)
    |                                               |                |                  x[0:0]: 0x83-NA (0)
    |                                               |                |                e[0:4]: 0x83-0x89.7 (7)
    |                                               |                |                  [0]{}: in 0x83-0x84.7 (2)
0x80|         20                                    |                |                    opcode: "local.get" (0x20) 0x83-0x83.7 (1)
0x80|            00                                 |    .           |                    x: 0 (valid) 0x84-0x84.7 (1)
    |                                               |                |                  [1]{}: in 0x85-0x86.7 (2)
0x80|               20                              |                |                    opcode: "local.get" (0x20) 0x85-0x85.7 (1)
0x80|                  01                           |      .         |                    x: 1 (valid) 0x86-0x86.7 (1)
    |                                               |                |                  [2]{}: in 0x87-0x88.7 (2)
0x80|                     fd                        |       .        |                    opcode: "vector" (0xfd) 0x87-0x87.7 (1)
0x80|                        73                     |        s       |                    v_opcode: "i8x16.sub_sat_u" (115) 0x88-0x88.7 (1)
    |                                               |                |                  [3]{}: in 0x89-0x89.7 (1)
0x80|                           0b|                 |         .|     |                    opcode: "end" (0xb) 0x89-0x89.7 (1)
