$ fq -d wasm dv simd_i32x4_trunc_sat_f32x4-0.wasm
    |00 01 02 03 04 05 06 07 08 09 0a 0b 0c 0d 0e 0f|0123456789abcdef|.{}: simd_i32x4_trunc_sat_f32x4-0.wasm (wasm) 0x0-0x5e.7 (95)
0x00|00 61 73 6d                                    |.asm            |  magic: raw bits (valid) 0x0-0x3.7 (4)
0x00|            01 00 00 00                        |    ....        |  version: 1 0x4-0x7.7 (4)
    |                                               |                |  sections[0:4]: 0x8-0x5e.7 (87)
    |                                               |                |    [0]{}: section 0x8-0xf.7 (8)
0x00|                        01                     |        .       |      id: "type section" (1) 0x8-0x8.7 (1)
0x00|                           06                  |         .      |      size: 6 0x9-0x9.7 (1)
    |                                               |                |      content{}: 0xa-0xf.7 (6)
    |                                               |                |        ft{}: 0xa-0xf.7 (6)
0x00|                              01               |          .     |          n: 1 0xa-0xa.7 (1)
    |                                               |                |          x[0:1]: 0xb-0xf.7 (5)
    |                                               |                |            [0]{}: ft 0xb-0xf.7 (5)
0x00|                                 60            |           `    |              tag: 0x60 (valid) 0xb-0xb.7 (1)
    |                                               |                |              rt1{}: 0xc-0xd.7 (2)
0x00|                                    01         |            .   |                n: 1 0xc-0xc.7 (1)
    |                                               |                |                x[0:1]: 0xd-0xd.7 (1)
0x00|                                       7b      |             {  |                  [0]: "v128" (0x7b) t 0xd-0xd.7 (1)
    |                                               |                |              rt2{}: 0xe-0xf.7 (2)
0x00|                                          01   |              . |                n: 1 0xe-0xe.7 (1)
    |                                               |                |                x[0:1]: 0xf-0xf.7 (1)
0x00|                                             7b|               {|                  [0]: "v128" (0x7b) t 0xf-0xf.7 (1)
    |                                               |                |    [1]{}: section 0x10-0x14.7 (5)
0x10|03                                             |.               |      id: "function section" (3) 0x10-0x10.7 (1)
0x10|   03                                          | .              |      size: 3 0x11-0x11.7 (1)
    |                                               |                |      content{}: 0x12-0x14.7 (3)
    |                                               |                |        x{}: 0x12-0x14.7 (3)
0x10|      02                                       |  .             |          n: 2 0x12-0x12.7 (1)
    |                                               |                |          x[0:2]: 0x13-0x14.7 (2)
0x10|         00                                    |   .            |            [0]: 0 x 0x13-0x13.7 (1)
0x10|            00                                 |    .           |            [1]: 0 x 0x14-0x14.7 (1)
    |                                               |                |    [2]{}: section 0x15-0x4b.7 (55)
0x10|               07                              |     .          |      id: "export section" (7) 0x15-0x15.7 (1)
0x10|                  35                           |      5         |      size: 53 0x16-0x16.7 (1)
    |                                               |                |      content{}: 0x17-0x4b.7 (53)
    |                                               |                |        ex{}: 0x17-0x4b.7 (53)
0x10|                     02                        |       .        |          n: 2 0x17-0x17.7 (1)
    |                                               |                |          x[0:2]: 0x18-0x4b.7 (52)
    |                                               |                |            [0]{}: ex 0x18-0x31.7 (26)
    |                                               |                |              nm{}: 0x18-0x2f.7 (24)
0x10|                        17                     |        .       |                n: 23 0x18-0x18.7 (1)
0x10|                           69 33 32 78 34 2e 74|         i32x4.t|                b: "i32x4.trunc_sat_f32x4_s" 0x19-0x2f.7 (23)
0x20|72 75 6e 63 5f 73 61 74 5f 66 33 32 78 34 5f 73|runc_sat_f32x4_s|
    |                                               |                |              d{}: 0x30-0x31.7 (2)
0x30|00                                             |.               |                tag: "funcidx" (0x0) 0x30-0x30.7 (1)
0x30|   00                                          | .              |                x: 0 0x31-0x31.7 (1)
    |                                               |                |            [1]{}: ex 0x32-0x4b.7 (26)
    |                                               |                |              nm{}: 0x32-0x49.7 (24)
0x30|      17                                       |  .             |                n: 23 0x32-0x32.7 (1)
0x30|         69 33 32 78 34 2e 74 72 75 6e 63 5f 73|   i32x4.trunc_s|                b: "i32x4.trunc_sat_f32x4_u" 0x33-0x49.7 (23)
0x40|61 74 5f 66 33 32 78 34 5f 75                  |at_f32x4_u      |
    |                                               |                |              d{}: 0x4a-0x4b.7 (2)
0x40|                              00               |          .     |                tag: "funcidx" (0x0) 0x4a-0x4a.7 (1)
0x40|                                 01            |           .    |                x: 1 0x4b-0x4b.7 (1)
    |                                               |                |    [3]{}: section 0x4c-0x5e.7 (19)
0x40|                                    0a         |            .   |      id: "code section" (10) 0x4c-0x4c.7 (1)
0x40|                                       11      |             .  |      size: 17 0x4d-0x4d.7 (1)
    |                                               |                |      content{}: 0x4e-0x5e.7 (17)
    |                                               |                |        code{}: 0x4e-0x5e.7 (17)
0x40|                                          02   |              . |          n: 2 0x4e-0x4e.7 (1)
    |                                               |                |          x[0:2]: 0x4f-0x5e.7 (16)
    |                                               |                |            [0]{}: code 0x4f-0x56.7 (8)
0x40|                                             07|               .|              size: 7 0x4f-0x4f.7 (1)
    |                                               |                |              code{}: 0x50-0x56.7 (7)
    |                                               |                |                t{}: 0x50-0x50.7 (1)
0x50|00                                             |.               |                  n: 0 0x50-0x50.7 (1)
    |                                               |                |                  x[0:0]: 0x51-NA (0)
    |                                               |                |                e[0:3]: 0x51-0x56.7 (6)
    |                                               |                |                  [0]{}: in 0x51-0x52.7 (2)
0x50|   20                                          |                |                    local.get: 0x20 (valid) 0x51-0x51.7 (1)
0x50|      00                                       |  .             |                    x: 0 0x52-0x52.7 (1)
    |                                               |                |                  [1]{}: in 0x53-0x55.7 (3)
0x50|         fd                                    |   .            |                    prefix: 0xfd (valid) 0x53-0x53.7 (1)
0x50|            f8 01                              |    ..          |                    i32x4.trunc_sat_f32x4_s: 248 (valid) 0x54-0x55.7 (2)
    |                                               |                |                  [2]{}: in 0x56-0x56.7 (1)
0x50|                  0b                           |      .         |                    end: 0xb (valid) 0x56-0x56.7 (1)
    |                                               |                |            [1]{}: code 0x57-0x5e.7 (8)
0x50|                     07                        |       .        |              size: 7 0x57-0x57.7 (1)
    |                                               |                |              code{}: 0x58-0x5e.7 (7)
    |                                               |                |                t{}: 0x58-0x58.7 (1)
0x50|                        00                     |        .       |                  n: 0 0x58-0x58.7 (1)
    |                                               |                |                  x[0:0]: 0x59-NA (0)
    |                                               |                |                e[0:3]: 0x59-0x5e.7 (6)
    |                                               |                |                  [0]{}: in 0x59-0x5a.7 (2)
0x50|                           20                  |                |                    local.get: 0x20 (valid) 0x59-0x59.7 (1)
0x50|                              00               |          .     |                    x: 0 0x5a-0x5a.7 (1)
    |                                               |                |                  [1]{}: in 0x5b-0x5d.7 (3)
0x50|                                 fd            |           .    |                    prefix: 0xfd (valid) 0x5b-0x5b.7 (1)
0x50|                                    f9 01      |            ..  |                    i32x4.trunc_sat_f32x4_u: 249 (valid) 0x5c-0x5d.7 (2)
    |                                               |                |                  [2]{}: in 0x5e-0x5e.7 (1)
0x50|                                          0b|  |              .||                    end: 0xb (valid) 0x5e-0x5e.7 (1)
