$ fq -d wasm dv simd_load-3.wasm
    |00 01 02 03 04 05 06 07 08 09 0a 0b 0c 0d 0e 0f|0123456789abcdef|.{}: simd_load-3.wasm (wasm) 0x0-0x87 (135)
0x00|00 61 73 6d                                    |.asm            |  magic: raw bits (valid) 0x0-0x4 (4)
0x00|            01 00 00 00                        |    ....        |  version: 1 0x4-0x8 (4)
    |                                               |                |  sections[0:6]: 0x8-0x87 (127)
    |                                               |                |    [0]{}: section 0x8-0x13 (11)
0x00|                        01                     |        .       |      id: "type_section" (1) 0x8-0x9 (1)
0x00|                           09                  |         .      |      size: 9 (valid) 0x9-0xa (1)
    |                                               |                |      content{}: 0xa-0x13 (9)
    |                                               |                |        ft{}: 0xa-0x13 (9)
0x00|                              02               |          .     |          n: 2 (valid) 0xa-0xb (1)
    |                                               |                |          x[0:2]: 0xb-0x13 (8)
    |                                               |                |            [0]{}: ft 0xb-0xf (4)
0x00|                                 60            |           `    |              tag: 0x60 (valid) 0xb-0xc (1)
    |                                               |                |              rt1{}: 0xc-0xd (1)
0x00|                                    00         |            .   |                n: 0 (valid) 0xc-0xd (1)
    |                                               |                |                x[0:0]: 0xd-0xd (0)
    |                                               |                |              rt2{}: 0xd-0xf (2)
0x00|                                       01      |             .  |                n: 1 (valid) 0xd-0xe (1)
    |                                               |                |                x[0:1]: 0xe-0xf (1)
0x00|                                          7b   |              { |                  [0]: "v128" (0x7b) t 0xe-0xf (1)
    |                                               |                |            [1]{}: ft 0xf-0x13 (4)
0x00|                                             60|               `|              tag: 0x60 (valid) 0xf-0x10 (1)
    |                                               |                |              rt1{}: 0x10-0x11 (1)
0x10|00                                             |.               |                n: 0 (valid) 0x10-0x11 (1)
    |                                               |                |                x[0:0]: 0x11-0x11 (0)
    |                                               |                |              rt2{}: 0x11-0x13 (2)
0x10|   01                                          | .              |                n: 1 (valid) 0x11-0x12 (1)
    |                                               |                |                x[0:1]: 0x12-0x13 (1)
0x10|      7f                                       |  .             |                  [0]: "i32" (0x7f) t 0x12-0x13 (1)
    |                                               |                |    [1]{}: section 0x13-0x18 (5)
0x10|         03                                    |   .            |      id: "function_section" (3) 0x13-0x14 (1)
0x10|            03                                 |    .           |      size: 3 (valid) 0x14-0x15 (1)
    |                                               |                |      content{}: 0x15-0x18 (3)
    |                                               |                |        x{}: 0x15-0x18 (3)
0x10|               02                              |     .          |          n: 2 (valid) 0x15-0x16 (1)
    |                                               |                |          x[0:2]: 0x16-0x18 (2)
0x10|                  00                           |      .         |            [0]: 0 x (valid) 0x16-0x17 (1)
0x10|                     01                        |       .        |            [1]: 1 x (valid) 0x17-0x18 (1)
    |                                               |                |    [2]{}: section 0x18-0x1d (5)
0x10|                        05                     |        .       |      id: "memory_section" (5) 0x18-0x19 (1)
0x10|                           03                  |         .      |      size: 3 (valid) 0x19-0x1a (1)
    |                                               |                |      content{}: 0x1a-0x1d (3)
    |                                               |                |        mem{}: 0x1a-0x1d (3)
0x10|                              01               |          .     |          n: 1 (valid) 0x1a-0x1b (1)
    |                                               |                |          x[0:1]: 0x1b-0x1d (2)
    |                                               |                |            [0]{}: mem 0x1b-0x1d (2)
    |                                               |                |              lim{}: 0x1b-0x1d (2)
0x10|                                 00            |           .    |                tag: 0x0 0x1b-0x1c (1)
0x10|                                    01         |            .   |                n: 1 (valid) 0x1c-0x1d (1)
    |                                               |                |    [3]{}: section 0x1d-0x52 (53)
0x10|                                       07      |             .  |      id: "export_section" (7) 0x1d-0x1e (1)
0x10|                                          33   |              3 |      size: 51 (valid) 0x1e-0x1f (1)
    |                                               |                |      content{}: 0x1f-0x52 (51)
    |                                               |                |        ex{}: 0x1f-0x52 (51)
0x10|                                             02|               .|          n: 2 (valid) 0x1f-0x20 (1)
    |                                               |                |          x[0:2]: 0x20-0x52 (50)
    |                                               |                |            [0]{}: ex 0x20-0x36 (22)
    |                                               |                |              nm{}: 0x20-0x34 (20)
0x20|13                                             |.               |                n: 19 (valid) 0x20-0x21 (1)
0x20|   61 73 2d 76 31 32 38 2e 6e 6f 74 2d 6f 70 65| as-v128.not-ope|                b: "as-v128.not-operand" 0x21-0x34 (19)
0x30|72 61 6e 64                                    |rand            |
    |                                               |                |              d{}: 0x34-0x36 (2)
0x30|            00                                 |    .           |                tag: "funcidx" (0x0) 0x34-0x35 (1)
0x30|               00                              |     .          |                x: 0 (valid) 0x35-0x36 (1)
    |                                               |                |            [1]{}: ex 0x36-0x52 (28)
    |                                               |                |              nm{}: 0x36-0x50 (26)
0x30|                  19                           |      .         |                n: 25 (valid) 0x36-0x37 (1)
0x30|                     61 73 2d 69 38 78 31 36 2e|       as-i8x16.|                b: "as-i8x16.all_true-operand" 0x37-0x50 (25)
0x40|61 6c 6c 5f 74 72 75 65 2d 6f 70 65 72 61 6e 64|all_true-operand|
    |                                               |                |              d{}: 0x50-0x52 (2)
0x50|00                                             |.               |                tag: "funcidx" (0x0) 0x50-0x51 (1)
0x50|   01                                          | .              |                x: 1 (valid) 0x51-0x52 (1)
    |                                               |                |    [4]{}: section 0x52-0x6b (25)
0x50|      0a                                       |  .             |      id: "code_section" (10) 0x52-0x53 (1)
0x50|         17                                    |   .            |      size: 23 (valid) 0x53-0x54 (1)
    |                                               |                |      content{}: 0x54-0x6b (23)
    |                                               |                |        code{}: 0x54-0x6b (23)
0x50|            02                                 |    .           |          n: 2 (valid) 0x54-0x55 (1)
    |                                               |                |          x[0:2]: 0x55-0x6b (22)
    |                                               |                |            [0]{}: code 0x55-0x60 (11)
0x50|               0a                              |     .          |              size: 10 (valid) 0x55-0x56 (1)
    |                                               |                |              code{}: 0x56-0x60 (10)
    |                                               |                |                t{}: 0x56-0x57 (1)
0x50|                  00                           |      .         |                  n: 0 (valid) 0x56-0x57 (1)
    |                                               |                |                  x[0:0]: 0x57-0x57 (0)
    |                                               |                |                e[0:4]: 0x57-0x60 (9)
    |                                               |                |                  [0]{}: in 0x57-0x59 (2)
0x50|                     41                        |       A        |                    opcode: "i32.const" (0x41) 0x57-0x58 (1)
0x50|                        00                     |        .       |                    n: 0 (valid) 0x58-0x59 (1)
    |                                               |                |                  [1]{}: in 0x59-0x5d (4)
0x50|                           fd                  |         .      |                    opcode: "vector" (0xfd) 0x59-0x5a (1)
0x50|                              00               |          .     |                    v_opcode: "v128.load" (0) 0x5a-0x5b (1)
    |                                               |                |                    m{}: 0x5b-0x5d (2)
0x50|                                 04            |           .    |                      a: 4 (valid) 0x5b-0x5c (1)
0x50|                                    00         |            .   |                      o: 0 (valid) 0x5c-0x5d (1)
    |                                               |                |                  [2]{}: in 0x5d-0x5f (2)
0x50|                                       fd      |             .  |                    opcode: "vector" (0xfd) 0x5d-0x5e (1)
0x50|                                          4d   |              M |                    v_opcode: "v128.not" (77) 0x5e-0x5f (1)
    |                                               |                |                  [3]{}: in 0x5f-0x60 (1)
0x50|                                             0b|               .|                    opcode: "end" (0xb) 0x5f-0x60 (1)
    |                                               |                |            [1]{}: code 0x60-0x6b (11)
0x60|0a                                             |.               |              size: 10 (valid) 0x60-0x61 (1)
    |                                               |                |              code{}: 0x61-0x6b (10)
    |                                               |                |                t{}: 0x61-0x62 (1)
0x60|   00                                          | .              |                  n: 0 (valid) 0x61-0x62 (1)
    |                                               |                |                  x[0:0]: 0x62-0x62 (0)
    |                                               |                |                e[0:4]: 0x62-0x6b (9)
    |                                               |                |                  [0]{}: in 0x62-0x64 (2)
0x60|      41                                       |  A             |                    opcode: "i32.const" (0x41) 0x62-0x63 (1)
0x60|         00                                    |   .            |                    n: 0 (valid) 0x63-0x64 (1)
    |                                               |                |                  [1]{}: in 0x64-0x68 (4)
0x60|            fd                                 |    .           |                    opcode: "vector" (0xfd) 0x64-0x65 (1)
0x60|               00                              |     .          |                    v_opcode: "v128.load" (0) 0x65-0x66 (1)
    |                                               |                |                    m{}: 0x66-0x68 (2)
0x60|                  04                           |      .         |                      a: 4 (valid) 0x66-0x67 (1)
0x60|                     00                        |       .        |                      o: 0 (valid) 0x67-0x68 (1)
    |                                               |                |                  [2]{}: in 0x68-0x6a (2)
0x60|                        fd                     |        .       |                    opcode: "vector" (0xfd) 0x68-0x69 (1)
0x60|                           63                  |         c      |                    v_opcode: "i8x16.all_true" (99) 0x69-0x6a (1)
    |                                               |                |                  [3]{}: in 0x6a-0x6b (1)
0x60|                              0b               |          .     |                    opcode: "end" (0xb) 0x6a-0x6b (1)
    |                                               |                |    [5]{}: section 0x6b-0x87 (28)
0x60|                                 0b            |           .    |      id: "data_section" (11) 0x6b-0x6c (1)
0x60|                                    1a         |            .   |      size: 26 (valid) 0x6c-0x6d (1)
    |                                               |                |      content{}: 0x6d-0x87 (26)
    |                                               |                |        seg{}: 0x6d-0x87 (26)
0x60|                                       01      |             .  |          n: 1 (valid) 0x6d-0x6e (1)
    |                                               |                |          x[0:1]: 0x6e-0x87 (25)
    |                                               |                |            [0]{}: seg 0x6e-0x87 (25)
0x60|                                          00   |              . |              tag: 0 (valid) 0x6e-0x6f (1)
    |                                               |                |              e[0:2]: 0x6f-0x72 (3)
    |                                               |                |                [0]{}: in 0x6f-0x71 (2)
0x60|                                             41|               A|                  opcode: "i32.const" (0x41) 0x6f-0x70 (1)
0x70|00                                             |.               |                  n: 0 (valid) 0x70-0x71 (1)
    |                                               |                |                [1]{}: in 0x71-0x72 (1)
0x70|   0b                                          | .              |                  opcode: "end" (0xb) 0x71-0x72 (1)
    |                                               |                |              b{}: 0x72-0x87 (21)
0x70|      14                                       |  .             |                n: 20 (valid) 0x72-0x73 (1)
0x70|         00 01 02 03 04 05 06 07 08 09 0a 0b 0c|   .............|                x: raw bits 0x73-0x87 (20)
0x80|0d 0e 0f 00 01 02 03|                          |.......|        |
