$ fq -d wasm dv stack-0.wasm
     |00 01 02 03 04 05 06 07 08 09 0a 0b 0c 0d 0e 0f|0123456789abcdef|.{}: stack-0.wasm (wasm) 0x0-0x194.7 (405)
0x000|00 61 73 6d                                    |.asm            |  magic: raw bits (valid) 0x0-0x3.7 (4)
0x000|            01 00 00 00                        |    ....        |  version: 1 0x4-0x7.7 (4)
     |                                               |                |  sections[0:5]: 0x8-0x194.7 (397)
     |                                               |                |    [0]{}: section 0x8-0x16.7 (15)
0x000|                        01                     |        .       |      id: "type section" (1) 0x8-0x8.7 (1)
0x000|                           0d                  |         .      |      size: 13 0x9-0x9.7 (1)
     |                                               |                |      content{}: 0xa-0x16.7 (13)
     |                                               |                |        ft{}: 0xa-0x16.7 (13)
0x000|                              03               |          .     |          n: 3 0xa-0xa.7 (1)
     |                                               |                |          x[0:3]: 0xb-0x16.7 (12)
     |                                               |                |            [0]{}: ft 0xb-0xf.7 (5)
0x000|                                 60            |           `    |              tag: 0x60 (valid) 0xb-0xb.7 (1)
     |                                               |                |              rt1{}: 0xc-0xd.7 (2)
0x000|                                    01         |            .   |                n: 1 0xc-0xc.7 (1)
     |                                               |                |                x[0:1]: 0xd-0xd.7 (1)
0x000|                                       7e      |             ~  |                  [0]: "i64" (0x7e) t 0xd-0xd.7 (1)
     |                                               |                |              rt2{}: 0xe-0xf.7 (2)
0x000|                                          01   |              . |                n: 1 0xe-0xe.7 (1)
     |                                               |                |                x[0:1]: 0xf-0xf.7 (1)
0x000|                                             7e|               ~|                  [0]: "i64" (0x7e) t 0xf-0xf.7 (1)
     |                                               |                |            [1]{}: ft 0x10-0x13.7 (4)
0x010|60                                             |`               |              tag: 0x60 (valid) 0x10-0x10.7 (1)
     |                                               |                |              rt1{}: 0x11-0x11.7 (1)
0x010|   00                                          | .              |                n: 0 0x11-0x11.7 (1)
     |                                               |                |                x[0:0]: 0x12-NA (0)
     |                                               |                |              rt2{}: 0x12-0x13.7 (2)
0x010|      01                                       |  .             |                n: 1 0x12-0x12.7 (1)
     |                                               |                |                x[0:1]: 0x13-0x13.7 (1)
0x010|         7f                                    |   .            |                  [0]: "i32" (0x7f) t 0x13-0x13.7 (1)
     |                                               |                |            [2]{}: ft 0x14-0x16.7 (3)
0x010|            60                                 |    `           |              tag: 0x60 (valid) 0x14-0x14.7 (1)
     |                                               |                |              rt1{}: 0x15-0x15.7 (1)
0x010|               00                              |     .          |                n: 0 0x15-0x15.7 (1)
     |                                               |                |                x[0:0]: 0x16-NA (0)
     |                                               |                |              rt2{}: 0x16-0x16.7 (1)
0x010|                  00                           |      .         |                n: 0 0x16-0x16.7 (1)
     |                                               |                |                x[0:0]: 0x17-NA (0)
     |                                               |                |    [1]{}: section 0x17-0x21.7 (11)
0x010|                     03                        |       .        |      id: "function section" (3) 0x17-0x17.7 (1)
0x010|                        09                     |        .       |      size: 9 0x18-0x18.7 (1)
     |                                               |                |      content{}: 0x19-0x21.7 (9)
     |                                               |                |        x{}: 0x19-0x21.7 (9)
0x010|                           08                  |         .      |          n: 8 0x19-0x19.7 (1)
     |                                               |                |          x[0:8]: 0x1a-0x21.7 (8)
0x010|                              00               |          .     |            [0]: 0 x 0x1a-0x1a.7 (1)
0x010|                                 00            |           .    |            [1]: 0 x 0x1b-0x1b.7 (1)
0x010|                                    00         |            .   |            [2]: 0 x 0x1c-0x1c.7 (1)
0x010|                                       00      |             .  |            [3]: 0 x 0x1d-0x1d.7 (1)
0x010|                                          00   |              . |            [4]: 0 x 0x1e-0x1e.7 (1)
0x010|                                             01|               .|            [5]: 1 x 0x1f-0x1f.7 (1)
0x020|02                                             |.               |            [6]: 2 x 0x20-0x20.7 (1)
0x020|   01                                          | .              |            [7]: 1 x 0x21-0x21.7 (1)
     |                                               |                |    [2]{}: section 0x22-0x29.7 (8)
0x020|      06                                       |  .             |      id: "global section" (6) 0x22-0x22.7 (1)
0x020|         06                                    |   .            |      size: 6 0x23-0x23.7 (1)
     |                                               |                |      content{}: 0x24-0x29.7 (6)
     |                                               |                |        glob{}: 0x24-0x29.7 (6)
0x020|            01                                 |    .           |          n: 1 0x24-0x24.7 (1)
     |                                               |                |          x[0:1]: 0x25-0x29.7 (5)
     |                                               |                |            [0]{}: glob 0x25-0x29.7 (5)
     |                                               |                |              gt{}: 0x25-0x26.7 (2)
0x020|               7f                              |     .          |                t: "i32" (0x7f) 0x25-0x25.7 (1)
0x020|                  01                           |      .         |                m: "var" (1) 0x26-0x26.7 (1)
     |                                               |                |              e[0:2]: 0x27-0x29.7 (3)
     |                                               |                |                [0]{}: in 0x27-0x28.7 (2)
0x020|                     41                        |       A        |                  i32.const: 0x41 (valid) 0x27-0x27.7 (1)
0x020|                        00                     |        .       |                  n: 0 0x28-0x28.7 (1)
     |                                               |                |                [1]{}: in 0x29-0x29.7 (1)
0x020|                           0b                  |         .      |                  end: 0xb (valid) 0x29-0x29.7 (1)
     |                                               |                |    [3]{}: section 0x2a-0x82.7 (89)
0x020|                              07               |          .     |      id: "export section" (7) 0x2a-0x2a.7 (1)
0x020|                                 57            |           W    |      size: 87 0x2b-0x2b.7 (1)
     |                                               |                |      content{}: 0x2c-0x82.7 (87)
     |                                               |                |        ex{}: 0x2c-0x82.7 (87)
0x020|                                    06         |            .   |          n: 6 0x2c-0x2c.7 (1)
     |                                               |                |          x[0:6]: 0x2d-0x82.7 (86)
     |                                               |                |            [0]{}: ex 0x2d-0x37.7 (11)
     |                                               |                |              nm{}: 0x2d-0x35.7 (9)
0x020|                                       08      |             .  |                n: 8 0x2d-0x2d.7 (1)
0x020|                                          66 61|              fa|                b: "fac-expr" 0x2e-0x35.7 (8)
0x030|63 2d 65 78 70 72                              |c-expr          |
     |                                               |                |              d{}: 0x36-0x37.7 (2)
0x030|                  00                           |      .         |                tag: "funcidx" (0x0) 0x36-0x36.7 (1)
0x030|                     00                        |       .        |                x: 0 0x37-0x37.7 (1)
     |                                               |                |            [1]{}: ex 0x38-0x43.7 (12)
     |                                               |                |              nm{}: 0x38-0x41.7 (10)
0x030|                        09                     |        .       |                n: 9 0x38-0x38.7 (1)
0x030|                           66 61 63 2d 73 74 61|         fac-sta|                b: "fac-stack" 0x39-0x41.7 (9)
0x040|63 6b                                          |ck              |
     |                                               |                |              d{}: 0x42-0x43.7 (2)
0x040|      00                                       |  .             |                tag: "funcidx" (0x0) 0x42-0x42.7 (1)
0x040|         01                                    |   .            |                x: 1 0x43-0x43.7 (1)
     |                                               |                |            [2]{}: ex 0x44-0x53.7 (16)
     |                                               |                |              nm{}: 0x44-0x51.7 (14)
0x040|            0d                                 |    .           |                n: 13 0x44-0x44.7 (1)
0x040|               66 61 63 2d 73 74 61 63 6b 2d 72|     fac-stack-r|                b: "fac-stack-raw" 0x45-0x51.7 (13)
0x050|61 77                                          |aw              |
     |                                               |                |              d{}: 0x52-0x53.7 (2)
0x050|      00                                       |  .             |                tag: "funcidx" (0x0) 0x52-0x52.7 (1)
0x050|         02                                    |   .            |                x: 2 0x53-0x53.7 (1)
     |                                               |                |            [3]{}: ex 0x54-0x5f.7 (12)
     |                                               |                |              nm{}: 0x54-0x5d.7 (10)
0x050|            09                                 |    .           |                n: 9 0x54-0x54.7 (1)
0x050|               66 61 63 2d 6d 69 78 65 64      |     fac-mixed  |                b: "fac-mixed" 0x55-0x5d.7 (9)
     |                                               |                |              d{}: 0x5e-0x5f.7 (2)
0x050|                                          00   |              . |                tag: "funcidx" (0x0) 0x5e-0x5e.7 (1)
0x050|                                             03|               .|                x: 3 0x5f-0x5f.7 (1)
     |                                               |                |            [4]{}: ex 0x60-0x6f.7 (16)
     |                                               |                |              nm{}: 0x60-0x6d.7 (14)
0x060|0d                                             |.               |                n: 13 0x60-0x60.7 (1)
0x060|   66 61 63 2d 6d 69 78 65 64 2d 72 61 77      | fac-mixed-raw  |                b: "fac-mixed-raw" 0x61-0x6d.7 (13)
     |                                               |                |              d{}: 0x6e-0x6f.7 (2)
0x060|                                          00   |              . |                tag: "funcidx" (0x0) 0x6e-0x6e.7 (1)
0x060|                                             04|               .|                x: 4 0x6f-0x6f.7 (1)
     |                                               |                |            [5]{}: ex 0x70-0x82.7 (19)
     |                                               |                |              nm{}: 0x70-0x80.7 (17)
0x070|10                                             |.               |                n: 16 0x70-0x70.7 (1)
0x070|   6e 6f 74 2d 71 75 69 74 65 2d 61 2d 74 72 65| not-quite-a-tre|                b: "not-quite-a-tree" 0x71-0x80.7 (16)
0x080|65                                             |e               |
     |                                               |                |              d{}: 0x81-0x82.7 (2)
0x080|   00                                          | .              |                tag: "funcidx" (0x0) 0x81-0x81.7 (1)
0x080|      07                                       |  .             |                x: 7 0x82-0x82.7 (1)
     |                                               |                |    [4]{}: section 0x83-0x194.7 (274)
0x080|         0a                                    |   .            |      id: "code section" (10) 0x83-0x83.7 (1)
0x080|            8f 02                              |    ..          |      size: 271 0x84-0x85.7 (2)
     |                                               |                |      content{}: 0x86-0x194.7 (271)
     |                                               |                |        code{}: 0x86-0x194.7 (271)
0x080|                  08                           |      .         |          n: 8 0x86-0x86.7 (1)
     |                                               |                |          x[0:8]: 0x87-0x194.7 (270)
     |                                               |                |            [0]{}: code 0x87-0xb6.7 (48)
0x080|                     2f                        |       /        |              size: 47 0x87-0x87.7 (1)
     |                                               |                |              code{}: 0x88-0xb6.7 (47)
     |                                               |                |                t{}: 0x88-0x8a.7 (3)
0x080|                        01                     |        .       |                  n: 1 0x88-0x88.7 (1)
     |                                               |                |                  x[0:1]: 0x89-0x8a.7 (2)
     |                                               |                |                    [0]{}: t 0x89-0x8a.7 (2)
0x080|                           02                  |         .      |                      n: 2 0x89-0x89.7 (1)
0x080|                              7e               |          ~     |                      t: "i64" (0x7e) 0x8a-0x8a.7 (1)
     |                                               |                |                e[0:7]: 0x8b-0xb6.7 (44)
     |                                               |                |                  [0]{}: in 0x8b-0x8c.7 (2)
0x080|                                 20            |                |                    local.get: 0x20 (valid) 0x8b-0x8b.7 (1)
0x080|                                    00         |            .   |                    x: 0 0x8c-0x8c.7 (1)
     |                                               |                |                  [1]{}: in 0x8d-0x8e.7 (2)
0x080|                                       21      |             !  |                    local.set: 0x21 (valid) 0x8d-0x8d.7 (1)
0x080|                                          01   |              . |                    x: 1 0x8e-0x8e.7 (1)
     |                                               |                |                  [2]{}: in 0x8f-0x90.7 (2)
0x080|                                             42|               B|                    i64.const: 0x42 (valid) 0x8f-0x8f.7 (1)
0x090|01                                             |.               |                    n: 1 0x90-0x90.7 (1)
     |                                               |                |                  [3]{}: in 0x91-0x92.7 (2)
0x090|   21                                          | !              |                    local.set: 0x21 (valid) 0x91-0x91.7 (1)
0x090|      02                                       |  .             |                    x: 2 0x92-0x92.7 (1)
     |                                               |                |                  [4]{}: in 0x93-0xb3.7 (33)
0x090|         02                                    |   .            |                    block: 0x2 (valid) 0x93-0x93.7 (1)
0x090|            40                                 |    @           |                    bt: "ε" (64) 0x94-0x94.7 (1)
     |                                               |                |                    instructions[0:1]: 0x95-0xb2.7 (30)
     |                                               |                |                      [0]{}: instr 0x95-0xb2.7 (30)
0x090|               03                              |     .          |                        loop: 0x3 (valid) 0x95-0x95.7 (1)
0x090|                  40                           |      @         |                        bt: "ε" (64) 0x96-0x96.7 (1)
     |                                               |                |                        instructions[0:5]: 0x97-0xb1.7 (27)
     |                                               |                |                          [0]{}: instr 0x97-0x98.7 (2)
0x090|                     20                        |                |                            local.get: 0x20 (valid) 0x97-0x97.7 (1)
0x090|                        01                     |        .       |                            x: 1 0x98-0x98.7 (1)
     |                                               |                |                          [1]{}: instr 0x99-0x9a.7 (2)
0x090|                           42                  |         B      |                            i64.const: 0x42 (valid) 0x99-0x99.7 (1)
0x090|                              00               |          .     |                            n: 0 0x9a-0x9a.7 (1)
     |                                               |                |                          [2]{}: instr 0x9b-0x9b.7 (1)
0x090|                                 51            |           Q    |                            i64.eq: 0x51 (valid) 0x9b-0x9b.7 (1)
     |                                               |                |                          [3]{}: instr 0x9c-0xaf.7 (20)
0x090|                                    04         |            .   |                            if: 0x4 (valid) 0x9c-0x9c.7 (1)
0x090|                                       40      |             @  |                            bt: "ε" (64) 0x9d-0x9d.7 (1)
     |                                               |                |                            in1[0:1]: 0x9e-0x9f.7 (2)
     |                                               |                |                              [0]{}: instr 0x9e-0x9f.7 (2)
0x090|                                          0c   |              . |                                br: 0xc (valid) 0x9e-0x9e.7 (1)
0x090|                                             02|               .|                                l: 2 0x9f-0x9f.7 (1)
0x0a0|05                                             |.               |                            else: 0x5 (valid) 0xa0-0xa0.7 (1)
     |                                               |                |                            in2[0:8]: 0xa1-0xae.7 (14)
     |                                               |                |                              [0]{}: instr 0xa1-0xa2.7 (2)
0x0a0|   20                                          |                |                                local.get: 0x20 (valid) 0xa1-0xa1.7 (1)
0x0a0|      01                                       |  .             |                                x: 1 0xa2-0xa2.7 (1)
     |                                               |                |                              [1]{}: instr 0xa3-0xa4.7 (2)
0x0a0|         20                                    |                |                                local.get: 0x20 (valid) 0xa3-0xa3.7 (1)
0x0a0|            02                                 |    .           |                                x: 2 0xa4-0xa4.7 (1)
     |                                               |                |                              [2]{}: instr 0xa5-0xa5.7 (1)
0x0a0|               7e                              |     ~          |                                i64.mul: 0x7e (valid) 0xa5-0xa5.7 (1)
     |                                               |                |                              [3]{}: instr 0xa6-0xa7.7 (2)
0x0a0|                  21                           |      !         |                                local.set: 0x21 (valid) 0xa6-0xa6.7 (1)
0x0a0|                     02                        |       .        |                                x: 2 0xa7-0xa7.7 (1)
     |                                               |                |                              [4]{}: instr 0xa8-0xa9.7 (2)
0x0a0|                        20                     |                |                                local.get: 0x20 (valid) 0xa8-0xa8.7 (1)
0x0a0|                           01                  |         .      |                                x: 1 0xa9-0xa9.7 (1)
     |                                               |                |                              [5]{}: instr 0xaa-0xab.7 (2)
0x0a0|                              42               |          B     |                                i64.const: 0x42 (valid) 0xaa-0xaa.7 (1)
0x0a0|                                 01            |           .    |                                n: 1 0xab-0xab.7 (1)
     |                                               |                |                              [6]{}: instr 0xac-0xac.7 (1)
0x0a0|                                    7d         |            }   |                                i64.sub: 0x7d (valid) 0xac-0xac.7 (1)
     |                                               |                |                              [7]{}: instr 0xad-0xae.7 (2)
0x0a0|                                       21      |             !  |                                local.set: 0x21 (valid) 0xad-0xad.7 (1)
0x0a0|                                          01   |              . |                                x: 1 0xae-0xae.7 (1)
0x0a0|                                             0b|               .|                            end: 11 (valid) 0xaf-0xaf.7 (1)
     |                                               |                |                          [4]{}: instr 0xb0-0xb1.7 (2)
0x0b0|0c                                             |.               |                            br: 0xc (valid) 0xb0-0xb0.7 (1)
0x0b0|   00                                          | .              |                            l: 0 0xb1-0xb1.7 (1)
0x0b0|      0b                                       |  .             |                        end: 11 (valid) 0xb2-0xb2.7 (1)
0x0b0|         0b                                    |   .            |                    end: 11 (valid) 0xb3-0xb3.7 (1)
     |                                               |                |                  [5]{}: in 0xb4-0xb5.7 (2)
0x0b0|            20                                 |                |                    local.get: 0x20 (valid) 0xb4-0xb4.7 (1)
0x0b0|               02                              |     .          |                    x: 2 0xb5-0xb5.7 (1)
     |                                               |                |                  [6]{}: in 0xb6-0xb6.7 (1)
0x0b0|                  0b                           |      .         |                    end: 0xb (valid) 0xb6-0xb6.7 (1)
     |                                               |                |            [1]{}: code 0xb7-0xe6.7 (48)
0x0b0|                     2f                        |       /        |              size: 47 0xb7-0xb7.7 (1)
     |                                               |                |              code{}: 0xb8-0xe6.7 (47)
     |                                               |                |                t{}: 0xb8-0xba.7 (3)
0x0b0|                        01                     |        .       |                  n: 1 0xb8-0xb8.7 (1)
     |                                               |                |                  x[0:1]: 0xb9-0xba.7 (2)
     |                                               |                |                    [0]{}: t 0xb9-0xba.7 (2)
0x0b0|                           02                  |         .      |                      n: 2 0xb9-0xb9.7 (1)
0x0b0|                              7e               |          ~     |                      t: "i64" (0x7e) 0xba-0xba.7 (1)
     |                                               |                |                e[0:7]: 0xbb-0xe6.7 (44)
     |                                               |                |                  [0]{}: in 0xbb-0xbc.7 (2)
0x0b0|                                 20            |                |                    local.get: 0x20 (valid) 0xbb-0xbb.7 (1)
0x0b0|                                    00         |            .   |                    x: 0 0xbc-0xbc.7 (1)
     |                                               |                |                  [1]{}: in 0xbd-0xbe.7 (2)
0x0b0|                                       21      |             !  |                    local.set: 0x21 (valid) 0xbd-0xbd.7 (1)
0x0b0|                                          01   |              . |                    x: 1 0xbe-0xbe.7 (1)
     |                                               |                |                  [2]{}: in 0xbf-0xc0.7 (2)
0x0b0|                                             42|               B|                    i64.const: 0x42 (valid) 0xbf-0xbf.7 (1)
0x0c0|01                                             |.               |                    n: 1 0xc0-0xc0.7 (1)
     |                                               |                |                  [3]{}: in 0xc1-0xc2.7 (2)
0x0c0|   21                                          | !              |                    local.set: 0x21 (valid) 0xc1-0xc1.7 (1)
0x0c0|      02                                       |  .             |                    x: 2 0xc2-0xc2.7 (1)
     |                                               |                |                  [4]{}: in 0xc3-0xe3.7 (33)
0x0c0|         02                                    |   .            |                    block: 0x2 (valid) 0xc3-0xc3.7 (1)
0x0c0|            40                                 |    @           |                    bt: "ε" (64) 0xc4-0xc4.7 (1)
     |                                               |                |                    instructions[0:1]: 0xc5-0xe2.7 (30)
     |                                               |                |                      [0]{}: instr 0xc5-0xe2.7 (30)
0x0c0|               03                              |     .          |                        loop: 0x3 (valid) 0xc5-0xc5.7 (1)
0x0c0|                  40                           |      @         |                        bt: "ε" (64) 0xc6-0xc6.7 (1)
     |                                               |                |                        instructions[0:5]: 0xc7-0xe1.7 (27)
     |                                               |                |                          [0]{}: instr 0xc7-0xc8.7 (2)
0x0c0|                     20                        |                |                            local.get: 0x20 (valid) 0xc7-0xc7.7 (1)
0x0c0|                        01                     |        .       |                            x: 1 0xc8-0xc8.7 (1)
     |                                               |                |                          [1]{}: instr 0xc9-0xca.7 (2)
0x0c0|                           42                  |         B      |                            i64.const: 0x42 (valid) 0xc9-0xc9.7 (1)
0x0c0|                              00               |          .     |                            n: 0 0xca-0xca.7 (1)
     |                                               |                |                          [2]{}: instr 0xcb-0xcb.7 (1)
0x0c0|                                 51            |           Q    |                            i64.eq: 0x51 (valid) 0xcb-0xcb.7 (1)
     |                                               |                |                          [3]{}: instr 0xcc-0xdf.7 (20)
0x0c0|                                    04         |            .   |                            if: 0x4 (valid) 0xcc-0xcc.7 (1)
0x0c0|                                       40      |             @  |                            bt: "ε" (64) 0xcd-0xcd.7 (1)
     |                                               |                |                            in1[0:1]: 0xce-0xcf.7 (2)
     |                                               |                |                              [0]{}: instr 0xce-0xcf.7 (2)
0x0c0|                                          0c   |              . |                                br: 0xc (valid) 0xce-0xce.7 (1)
0x0c0|                                             02|               .|                                l: 2 0xcf-0xcf.7 (1)
0x0d0|05                                             |.               |                            else: 0x5 (valid) 0xd0-0xd0.7 (1)
     |                                               |                |                            in2[0:8]: 0xd1-0xde.7 (14)
     |                                               |                |                              [0]{}: instr 0xd1-0xd2.7 (2)
0x0d0|   20                                          |                |                                local.get: 0x20 (valid) 0xd1-0xd1.7 (1)
0x0d0|      01                                       |  .             |                                x: 1 0xd2-0xd2.7 (1)
     |                                               |                |                              [1]{}: instr 0xd3-0xd4.7 (2)
0x0d0|         20                                    |                |                                local.get: 0x20 (valid) 0xd3-0xd3.7 (1)
0x0d0|            02                                 |    .           |                                x: 2 0xd4-0xd4.7 (1)
     |                                               |                |                              [2]{}: instr 0xd5-0xd5.7 (1)
0x0d0|               7e                              |     ~          |                                i64.mul: 0x7e (valid) 0xd5-0xd5.7 (1)
     |                                               |                |                              [3]{}: instr 0xd6-0xd7.7 (2)
0x0d0|                  21                           |      !         |                                local.set: 0x21 (valid) 0xd6-0xd6.7 (1)
0x0d0|                     02                        |       .        |                                x: 2 0xd7-0xd7.7 (1)
     |                                               |                |                              [4]{}: instr 0xd8-0xd9.7 (2)
0x0d0|                        20                     |                |                                local.get: 0x20 (valid) 0xd8-0xd8.7 (1)
0x0d0|                           01                  |         .      |                                x: 1 0xd9-0xd9.7 (1)
     |                                               |                |                              [5]{}: instr 0xda-0xdb.7 (2)
0x0d0|                              42               |          B     |                                i64.const: 0x42 (valid) 0xda-0xda.7 (1)
0x0d0|                                 01            |           .    |                                n: 1 0xdb-0xdb.7 (1)
     |                                               |                |                              [6]{}: instr 0xdc-0xdc.7 (1)
0x0d0|                                    7d         |            }   |                                i64.sub: 0x7d (valid) 0xdc-0xdc.7 (1)
     |                                               |                |                              [7]{}: instr 0xdd-0xde.7 (2)
0x0d0|                                       21      |             !  |                                local.set: 0x21 (valid) 0xdd-0xdd.7 (1)
0x0d0|                                          01   |              . |                                x: 1 0xde-0xde.7 (1)
0x0d0|                                             0b|               .|                            end: 11 (valid) 0xdf-0xdf.7 (1)
     |                                               |                |                          [4]{}: instr 0xe0-0xe1.7 (2)
0x0e0|0c                                             |.               |                            br: 0xc (valid) 0xe0-0xe0.7 (1)
0x0e0|   00                                          | .              |                            l: 0 0xe1-0xe1.7 (1)
0x0e0|      0b                                       |  .             |                        end: 11 (valid) 0xe2-0xe2.7 (1)
0x0e0|         0b                                    |   .            |                    end: 11 (valid) 0xe3-0xe3.7 (1)
     |                                               |                |                  [5]{}: in 0xe4-0xe5.7 (2)
0x0e0|            20                                 |                |                    local.get: 0x20 (valid) 0xe4-0xe4.7 (1)
0x0e0|               02                              |     .          |                    x: 2 0xe5-0xe5.7 (1)
     |                                               |                |                  [6]{}: in 0xe6-0xe6.7 (1)
0x0e0|                  0b                           |      .         |                    end: 0xb (valid) 0xe6-0xe6.7 (1)
     |                                               |                |            [2]{}: code 0xe7-0x116.7 (48)
0x0e0|                     2f                        |       /        |              size: 47 0xe7-0xe7.7 (1)
     |                                               |                |              code{}: 0xe8-0x116.7 (47)
     |                                               |                |                t{}: 0xe8-0xea.7 (3)
0x0e0|                        01                     |        .       |                  n: 1 0xe8-0xe8.7 (1)
     |                                               |                |                  x[0:1]: 0xe9-0xea.7 (2)
     |                                               |                |                    [0]{}: t 0xe9-0xea.7 (2)
0x0e0|                           02                  |         .      |                      n: 2 0xe9-0xe9.7 (1)
0x0e0|                              7e               |          ~     |                      t: "i64" (0x7e) 0xea-0xea.7 (1)
     |                                               |                |                e[0:7]: 0xeb-0x116.7 (44)
     |                                               |                |                  [0]{}: in 0xeb-0xec.7 (2)
0x0e0|                                 20            |                |                    local.get: 0x20 (valid) 0xeb-0xeb.7 (1)
0x0e0|                                    00         |            .   |                    x: 0 0xec-0xec.7 (1)
     |                                               |                |                  [1]{}: in 0xed-0xee.7 (2)
0x0e0|                                       21      |             !  |                    local.set: 0x21 (valid) 0xed-0xed.7 (1)
0x0e0|                                          01   |              . |                    x: 1 0xee-0xee.7 (1)
     |                                               |                |                  [2]{}: in 0xef-0xf0.7 (2)
0x0e0|                                             42|               B|                    i64.const: 0x42 (valid) 0xef-0xef.7 (1)
0x0f0|01                                             |.               |                    n: 1 0xf0-0xf0.7 (1)
     |                                               |                |                  [3]{}: in 0xf1-0xf2.7 (2)
0x0f0|   21                                          | !              |                    local.set: 0x21 (valid) 0xf1-0xf1.7 (1)
0x0f0|      02                                       |  .             |                    x: 2 0xf2-0xf2.7 (1)
     |                                               |                |                  [4]{}: in 0xf3-0x113.7 (33)
0x0f0|         02                                    |   .            |                    block: 0x2 (valid) 0xf3-0xf3.7 (1)
0x0f0|            40                                 |    @           |                    bt: "ε" (64) 0xf4-0xf4.7 (1)
     |                                               |                |                    instructions[0:1]: 0xf5-0x112.7 (30)
     |                                               |                |                      [0]{}: instr 0xf5-0x112.7 (30)
0x0f0|               03                              |     .          |                        loop: 0x3 (valid) 0xf5-0xf5.7 (1)
0x0f0|                  40                           |      @         |                        bt: "ε" (64) 0xf6-0xf6.7 (1)
     |                                               |                |                        instructions[0:5]: 0xf7-0x111.7 (27)
     |                                               |                |                          [0]{}: instr 0xf7-0xf8.7 (2)
0x0f0|                     20                        |                |                            local.get: 0x20 (valid) 0xf7-0xf7.7 (1)
0x0f0|                        01                     |        .       |                            x: 1 0xf8-0xf8.7 (1)
     |                                               |                |                          [1]{}: instr 0xf9-0xfa.7 (2)
0x0f0|                           42                  |         B      |                            i64.const: 0x42 (valid) 0xf9-0xf9.7 (1)
0x0f0|                              00               |          .     |                            n: 0 0xfa-0xfa.7 (1)
     |                                               |                |                          [2]{}: instr 0xfb-0xfb.7 (1)
0x0f0|                                 51            |           Q    |                            i64.eq: 0x51 (valid) 0xfb-0xfb.7 (1)
     |                                               |                |                          [3]{}: instr 0xfc-0x10f.7 (20)
0x0f0|                                    04         |            .   |                            if: 0x4 (valid) 0xfc-0xfc.7 (1)
0x0f0|                                       40      |             @  |                            bt: "ε" (64) 0xfd-0xfd.7 (1)
     |                                               |                |                            in1[0:1]: 0xfe-0xff.7 (2)
     |                                               |                |                              [0]{}: instr 0xfe-0xff.7 (2)
0x0f0|                                          0c   |              . |                                br: 0xc (valid) 0xfe-0xfe.7 (1)
0x0f0|                                             02|               .|                                l: 2 0xff-0xff.7 (1)
0x100|05                                             |.               |                            else: 0x5 (valid) 0x100-0x100.7 (1)
     |                                               |                |                            in2[0:8]: 0x101-0x10e.7 (14)
     |                                               |                |                              [0]{}: instr 0x101-0x102.7 (2)
0x100|   20                                          |                |                                local.get: 0x20 (valid) 0x101-0x101.7 (1)
0x100|      01                                       |  .             |                                x: 1 0x102-0x102.7 (1)
     |                                               |                |                              [1]{}: instr 0x103-0x104.7 (2)
0x100|         20                                    |                |                                local.get: 0x20 (valid) 0x103-0x103.7 (1)
0x100|            02                                 |    .           |                                x: 2 0x104-0x104.7 (1)
     |                                               |                |                              [2]{}: instr 0x105-0x105.7 (1)
0x100|               7e                              |     ~          |                                i64.mul: 0x7e (valid) 0x105-0x105.7 (1)
     |                                               |                |                              [3]{}: instr 0x106-0x107.7 (2)
0x100|                  21                           |      !         |                                local.set: 0x21 (valid) 0x106-0x106.7 (1)
0x100|                     02                        |       .        |                                x: 2 0x107-0x107.7 (1)
     |                                               |                |                              [4]{}: instr 0x108-0x109.7 (2)
0x100|                        20                     |                |                                local.get: 0x20 (valid) 0x108-0x108.7 (1)
0x100|                           01                  |         .      |                                x: 1 0x109-0x109.7 (1)
     |                                               |                |                              [5]{}: instr 0x10a-0x10b.7 (2)
0x100|                              42               |          B     |                                i64.const: 0x42 (valid) 0x10a-0x10a.7 (1)
0x100|                                 01            |           .    |                                n: 1 0x10b-0x10b.7 (1)
     |                                               |                |                              [6]{}: instr 0x10c-0x10c.7 (1)
0x100|                                    7d         |            }   |                                i64.sub: 0x7d (valid) 0x10c-0x10c.7 (1)
     |                                               |                |                              [7]{}: instr 0x10d-0x10e.7 (2)
0x100|                                       21      |             !  |                                local.set: 0x21 (valid) 0x10d-0x10d.7 (1)
0x100|                                          01   |              . |                                x: 1 0x10e-0x10e.7 (1)
0x100|                                             0b|               .|                            end: 11 (valid) 0x10f-0x10f.7 (1)
     |                                               |                |                          [4]{}: instr 0x110-0x111.7 (2)
0x110|0c                                             |.               |                            br: 0xc (valid) 0x110-0x110.7 (1)
0x110|   00                                          | .              |                            l: 0 0x111-0x111.7 (1)
0x110|      0b                                       |  .             |                        end: 11 (valid) 0x112-0x112.7 (1)
0x110|         0b                                    |   .            |                    end: 11 (valid) 0x113-0x113.7 (1)
     |                                               |                |                  [5]{}: in 0x114-0x115.7 (2)
0x110|            20                                 |                |                    local.get: 0x20 (valid) 0x114-0x114.7 (1)
0x110|               02                              |     .          |                    x: 2 0x115-0x115.7 (1)
     |                                               |                |                  [6]{}: in 0x116-0x116.7 (1)
0x110|                  0b                           |      .         |                    end: 0xb (valid) 0x116-0x116.7 (1)
     |                                               |                |            [3]{}: code 0x117-0x146.7 (48)
0x110|                     2f                        |       /        |              size: 47 0x117-0x117.7 (1)
     |                                               |                |              code{}: 0x118-0x146.7 (47)
     |                                               |                |                t{}: 0x118-0x11a.7 (3)
0x110|                        01                     |        .       |                  n: 1 0x118-0x118.7 (1)
     |                                               |                |                  x[0:1]: 0x119-0x11a.7 (2)
     |                                               |                |                    [0]{}: t 0x119-0x11a.7 (2)
0x110|                           02                  |         .      |                      n: 2 0x119-0x119.7 (1)
0x110|                              7e               |          ~     |                      t: "i64" (0x7e) 0x11a-0x11a.7 (1)
     |                                               |                |                e[0:7]: 0x11b-0x146.7 (44)
     |                                               |                |                  [0]{}: in 0x11b-0x11c.7 (2)
0x110|                                 20            |                |                    local.get: 0x20 (valid) 0x11b-0x11b.7 (1)
0x110|                                    00         |            .   |                    x: 0 0x11c-0x11c.7 (1)
     |                                               |                |                  [1]{}: in 0x11d-0x11e.7 (2)
0x110|                                       21      |             !  |                    local.set: 0x21 (valid) 0x11d-0x11d.7 (1)
0x110|                                          01   |              . |                    x: 1 0x11e-0x11e.7 (1)
     |                                               |                |                  [2]{}: in 0x11f-0x120.7 (2)
0x110|                                             42|               B|                    i64.const: 0x42 (valid) 0x11f-0x11f.7 (1)
0x120|01                                             |.               |                    n: 1 0x120-0x120.7 (1)
     |                                               |                |                  [3]{}: in 0x121-0x122.7 (2)
0x120|   21                                          | !              |                    local.set: 0x21 (valid) 0x121-0x121.7 (1)
0x120|      02                                       |  .             |                    x: 2 0x122-0x122.7 (1)
     |                                               |                |                  [4]{}: in 0x123-0x143.7 (33)
0x120|         02                                    |   .            |                    block: 0x2 (valid) 0x123-0x123.7 (1)
0x120|            40                                 |    @           |                    bt: "ε" (64) 0x124-0x124.7 (1)
     |                                               |                |                    instructions[0:1]: 0x125-0x142.7 (30)
     |                                               |                |                      [0]{}: instr 0x125-0x142.7 (30)
0x120|               03                              |     .          |                        loop: 0x3 (valid) 0x125-0x125.7 (1)
0x120|                  40                           |      @         |                        bt: "ε" (64) 0x126-0x126.7 (1)
     |                                               |                |                        instructions[0:5]: 0x127-0x141.7 (27)
     |                                               |                |                          [0]{}: instr 0x127-0x128.7 (2)
0x120|                     20                        |                |                            local.get: 0x20 (valid) 0x127-0x127.7 (1)
0x120|                        01                     |        .       |                            x: 1 0x128-0x128.7 (1)
     |                                               |                |                          [1]{}: instr 0x129-0x12a.7 (2)
0x120|                           42                  |         B      |                            i64.const: 0x42 (valid) 0x129-0x129.7 (1)
0x120|                              00               |          .     |                            n: 0 0x12a-0x12a.7 (1)
     |                                               |                |                          [2]{}: instr 0x12b-0x12b.7 (1)
0x120|                                 51            |           Q    |                            i64.eq: 0x51 (valid) 0x12b-0x12b.7 (1)
     |                                               |                |                          [3]{}: instr 0x12c-0x13f.7 (20)
0x120|                                    04         |            .   |                            if: 0x4 (valid) 0x12c-0x12c.7 (1)
0x120|                                       40      |             @  |                            bt: "ε" (64) 0x12d-0x12d.7 (1)
     |                                               |                |                            in1[0:1]: 0x12e-0x12f.7 (2)
     |                                               |                |                              [0]{}: instr 0x12e-0x12f.7 (2)
0x120|                                          0c   |              . |                                br: 0xc (valid) 0x12e-0x12e.7 (1)
0x120|                                             02|               .|                                l: 2 0x12f-0x12f.7 (1)
0x130|05                                             |.               |                            else: 0x5 (valid) 0x130-0x130.7 (1)
     |                                               |                |                            in2[0:8]: 0x131-0x13e.7 (14)
     |                                               |                |                              [0]{}: instr 0x131-0x132.7 (2)
0x130|   20                                          |                |                                local.get: 0x20 (valid) 0x131-0x131.7 (1)
0x130|      01                                       |  .             |                                x: 1 0x132-0x132.7 (1)
     |                                               |                |                              [1]{}: instr 0x133-0x134.7 (2)
0x130|         20                                    |                |                                local.get: 0x20 (valid) 0x133-0x133.7 (1)
0x130|            02                                 |    .           |                                x: 2 0x134-0x134.7 (1)
     |                                               |                |                              [2]{}: instr 0x135-0x135.7 (1)
0x130|               7e                              |     ~          |                                i64.mul: 0x7e (valid) 0x135-0x135.7 (1)
     |                                               |                |                              [3]{}: instr 0x136-0x137.7 (2)
0x130|                  21                           |      !         |                                local.set: 0x21 (valid) 0x136-0x136.7 (1)
0x130|                     02                        |       .        |                                x: 2 0x137-0x137.7 (1)
     |                                               |                |                              [4]{}: instr 0x138-0x139.7 (2)
0x130|                        20                     |                |                                local.get: 0x20 (valid) 0x138-0x138.7 (1)
0x130|                           01                  |         .      |                                x: 1 0x139-0x139.7 (1)
     |                                               |                |                              [5]{}: instr 0x13a-0x13b.7 (2)
0x130|                              42               |          B     |                                i64.const: 0x42 (valid) 0x13a-0x13a.7 (1)
0x130|                                 01            |           .    |                                n: 1 0x13b-0x13b.7 (1)
     |                                               |                |                              [6]{}: instr 0x13c-0x13c.7 (1)
0x130|                                    7d         |            }   |                                i64.sub: 0x7d (valid) 0x13c-0x13c.7 (1)
     |                                               |                |                              [7]{}: instr 0x13d-0x13e.7 (2)
0x130|                                       21      |             !  |                                local.set: 0x21 (valid) 0x13d-0x13d.7 (1)
0x130|                                          01   |              . |                                x: 1 0x13e-0x13e.7 (1)
0x130|                                             0b|               .|                            end: 11 (valid) 0x13f-0x13f.7 (1)
     |                                               |                |                          [4]{}: instr 0x140-0x141.7 (2)
0x140|0c                                             |.               |                            br: 0xc (valid) 0x140-0x140.7 (1)
0x140|   00                                          | .              |                            l: 0 0x141-0x141.7 (1)
0x140|      0b                                       |  .             |                        end: 11 (valid) 0x142-0x142.7 (1)
0x140|         0b                                    |   .            |                    end: 11 (valid) 0x143-0x143.7 (1)
     |                                               |                |                  [5]{}: in 0x144-0x145.7 (2)
0x140|            20                                 |                |                    local.get: 0x20 (valid) 0x144-0x144.7 (1)
0x140|               02                              |     .          |                    x: 2 0x145-0x145.7 (1)
     |                                               |                |                  [6]{}: in 0x146-0x146.7 (1)
0x140|                  0b                           |      .         |                    end: 0xb (valid) 0x146-0x146.7 (1)
     |                                               |                |            [4]{}: code 0x147-0x176.7 (48)
0x140|                     2f                        |       /        |              size: 47 0x147-0x147.7 (1)
     |                                               |                |              code{}: 0x148-0x176.7 (47)
     |                                               |                |                t{}: 0x148-0x14a.7 (3)
0x140|                        01                     |        .       |                  n: 1 0x148-0x148.7 (1)
     |                                               |                |                  x[0:1]: 0x149-0x14a.7 (2)
     |                                               |                |                    [0]{}: t 0x149-0x14a.7 (2)
0x140|                           02                  |         .      |                      n: 2 0x149-0x149.7 (1)
0x140|                              7e               |          ~     |                      t: "i64" (0x7e) 0x14a-0x14a.7 (1)
     |                                               |                |                e[0:7]: 0x14b-0x176.7 (44)
     |                                               |                |                  [0]{}: in 0x14b-0x14c.7 (2)
0x140|                                 20            |                |                    local.get: 0x20 (valid) 0x14b-0x14b.7 (1)
0x140|                                    00         |            .   |                    x: 0 0x14c-0x14c.7 (1)
     |                                               |                |                  [1]{}: in 0x14d-0x14e.7 (2)
0x140|                                       21      |             !  |                    local.set: 0x21 (valid) 0x14d-0x14d.7 (1)
0x140|                                          01   |              . |                    x: 1 0x14e-0x14e.7 (1)
     |                                               |                |                  [2]{}: in 0x14f-0x150.7 (2)
0x140|                                             42|               B|                    i64.const: 0x42 (valid) 0x14f-0x14f.7 (1)
0x150|01                                             |.               |                    n: 1 0x150-0x150.7 (1)
     |                                               |                |                  [3]{}: in 0x151-0x152.7 (2)
0x150|   21                                          | !              |                    local.set: 0x21 (valid) 0x151-0x151.7 (1)
0x150|      02                                       |  .             |                    x: 2 0x152-0x152.7 (1)
     |                                               |                |                  [4]{}: in 0x153-0x173.7 (33)
0x150|         02                                    |   .            |                    block: 0x2 (valid) 0x153-0x153.7 (1)
0x150|            40                                 |    @           |                    bt: "ε" (64) 0x154-0x154.7 (1)
     |                                               |                |                    instructions[0:1]: 0x155-0x172.7 (30)
     |                                               |                |                      [0]{}: instr 0x155-0x172.7 (30)
0x150|               03                              |     .          |                        loop: 0x3 (valid) 0x155-0x155.7 (1)
0x150|                  40                           |      @         |                        bt: "ε" (64) 0x156-0x156.7 (1)
     |                                               |                |                        instructions[0:5]: 0x157-0x171.7 (27)
     |                                               |                |                          [0]{}: instr 0x157-0x158.7 (2)
0x150|                     20                        |                |                            local.get: 0x20 (valid) 0x157-0x157.7 (1)
0x150|                        01                     |        .       |                            x: 1 0x158-0x158.7 (1)
     |                                               |                |                          [1]{}: instr 0x159-0x15a.7 (2)
0x150|                           42                  |         B      |                            i64.const: 0x42 (valid) 0x159-0x159.7 (1)
0x150|                              00               |          .     |                            n: 0 0x15a-0x15a.7 (1)
     |                                               |                |                          [2]{}: instr 0x15b-0x15b.7 (1)
0x150|                                 51            |           Q    |                            i64.eq: 0x51 (valid) 0x15b-0x15b.7 (1)
     |                                               |                |                          [3]{}: instr 0x15c-0x16f.7 (20)
0x150|                                    04         |            .   |                            if: 0x4 (valid) 0x15c-0x15c.7 (1)
0x150|                                       40      |             @  |                            bt: "ε" (64) 0x15d-0x15d.7 (1)
     |                                               |                |                            in1[0:1]: 0x15e-0x15f.7 (2)
     |                                               |                |                              [0]{}: instr 0x15e-0x15f.7 (2)
0x150|                                          0c   |              . |                                br: 0xc (valid) 0x15e-0x15e.7 (1)
0x150|                                             02|               .|                                l: 2 0x15f-0x15f.7 (1)
0x160|05                                             |.               |                            else: 0x5 (valid) 0x160-0x160.7 (1)
     |                                               |                |                            in2[0:8]: 0x161-0x16e.7 (14)
     |                                               |                |                              [0]{}: instr 0x161-0x162.7 (2)
0x160|   20                                          |                |                                local.get: 0x20 (valid) 0x161-0x161.7 (1)
0x160|      01                                       |  .             |                                x: 1 0x162-0x162.7 (1)
     |                                               |                |                              [1]{}: instr 0x163-0x164.7 (2)
0x160|         20                                    |                |                                local.get: 0x20 (valid) 0x163-0x163.7 (1)
0x160|            02                                 |    .           |                                x: 2 0x164-0x164.7 (1)
     |                                               |                |                              [2]{}: instr 0x165-0x165.7 (1)
0x160|               7e                              |     ~          |                                i64.mul: 0x7e (valid) 0x165-0x165.7 (1)
     |                                               |                |                              [3]{}: instr 0x166-0x167.7 (2)
0x160|                  21                           |      !         |                                local.set: 0x21 (valid) 0x166-0x166.7 (1)
0x160|                     02                        |       .        |                                x: 2 0x167-0x167.7 (1)
     |                                               |                |                              [4]{}: instr 0x168-0x169.7 (2)
0x160|                        20                     |                |                                local.get: 0x20 (valid) 0x168-0x168.7 (1)
0x160|                           01                  |         .      |                                x: 1 0x169-0x169.7 (1)
     |                                               |                |                              [5]{}: instr 0x16a-0x16b.7 (2)
0x160|                              42               |          B     |                                i64.const: 0x42 (valid) 0x16a-0x16a.7 (1)
0x160|                                 01            |           .    |                                n: 1 0x16b-0x16b.7 (1)
     |                                               |                |                              [6]{}: instr 0x16c-0x16c.7 (1)
0x160|                                    7d         |            }   |                                i64.sub: 0x7d (valid) 0x16c-0x16c.7 (1)
     |                                               |                |                              [7]{}: instr 0x16d-0x16e.7 (2)
0x160|                                       21      |             !  |                                local.set: 0x21 (valid) 0x16d-0x16d.7 (1)
0x160|                                          01   |              . |                                x: 1 0x16e-0x16e.7 (1)
0x160|                                             0b|               .|                            end: 11 (valid) 0x16f-0x16f.7 (1)
     |                                               |                |                          [4]{}: instr 0x170-0x171.7 (2)
0x170|0c                                             |.               |                            br: 0xc (valid) 0x170-0x170.7 (1)
0x170|   00                                          | .              |                            l: 0 0x171-0x171.7 (1)
0x170|      0b                                       |  .             |                        end: 11 (valid) 0x172-0x172.7 (1)
0x170|         0b                                    |   .            |                    end: 11 (valid) 0x173-0x173.7 (1)
     |                                               |                |                  [5]{}: in 0x174-0x175.7 (2)
0x170|            20                                 |                |                    local.get: 0x20 (valid) 0x174-0x174.7 (1)
0x170|               02                              |     .          |                    x: 2 0x175-0x175.7 (1)
     |                                               |                |                  [6]{}: in 0x176-0x176.7 (1)
0x170|                  0b                           |      .         |                    end: 0xb (valid) 0x176-0x176.7 (1)
     |                                               |                |            [5]{}: code 0x177-0x184.7 (14)
0x170|                     0d                        |       .        |              size: 13 0x177-0x177.7 (1)
     |                                               |                |              code{}: 0x178-0x184.7 (13)
     |                                               |                |                t{}: 0x178-0x17a.7 (3)
0x170|                        01                     |        .       |                  n: 1 0x178-0x178.7 (1)
     |                                               |                |                  x[0:1]: 0x179-0x17a.7 (2)
     |                                               |                |                    [0]{}: t 0x179-0x17a.7 (2)
0x170|                           01                  |         .      |                      n: 1 0x179-0x179.7 (1)
0x170|                              7f               |          .     |                      t: "i32" (0x7f) 0x17a-0x17a.7 (1)
     |                                               |                |                e[0:6]: 0x17b-0x184.7 (10)
     |                                               |                |                  [0]{}: in 0x17b-0x17c.7 (2)
0x170|                                 41            |           A    |                    i32.const: 0x41 (valid) 0x17b-0x17b.7 (1)
0x170|                                    01         |            .   |                    n: 1 0x17c-0x17c.7 (1)
     |                                               |                |                  [1]{}: in 0x17d-0x17e.7 (2)
0x170|                                       23      |             #  |                    global.get: 0x23 (valid) 0x17d-0x17d.7 (1)
0x170|                                          00   |              . |                    x: 0 0x17e-0x17e.7 (1)
     |                                               |                |                  [2]{}: in 0x17f-0x17f.7 (1)
0x170|                                             6a|               j|                    i32.add: 0x6a (valid) 0x17f-0x17f.7 (1)
     |                                               |                |                  [3]{}: in 0x180-0x181.7 (2)
0x180|24                                             |$               |                    global.set: 0x24 (valid) 0x180-0x180.7 (1)
0x180|   00                                          | .              |                    x: 0 0x181-0x181.7 (1)
     |                                               |                |                  [4]{}: in 0x182-0x183.7 (2)
0x180|      23                                       |  #             |                    global.get: 0x23 (valid) 0x182-0x182.7 (1)
0x180|         00                                    |   .            |                    x: 0 0x183-0x183.7 (1)
     |                                               |                |                  [5]{}: in 0x184-0x184.7 (1)
0x180|            0b                                 |    .           |                    end: 0xb (valid) 0x184-0x184.7 (1)
     |                                               |                |            [6]{}: code 0x185-0x18a.7 (6)
0x180|               05                              |     .          |              size: 5 0x185-0x185.7 (1)
     |                                               |                |              code{}: 0x186-0x18a.7 (5)
     |                                               |                |                t{}: 0x186-0x186.7 (1)
0x180|                  00                           |      .         |                  n: 0 0x186-0x186.7 (1)
     |                                               |                |                  x[0:0]: 0x187-NA (0)
     |                                               |                |                e[0:3]: 0x187-0x18a.7 (4)
     |                                               |                |                  [0]{}: in 0x187-0x188.7 (2)
0x180|                     10                        |       .        |                    call: 0x10 (valid) 0x187-0x187.7 (1)
0x180|                        05                     |        .       |                    x: 5 0x188-0x188.7 (1)
     |                                               |                |                  [1]{}: in 0x189-0x189.7 (1)
0x180|                           1a                  |         .      |                    drop: 0x1a (valid) 0x189-0x189.7 (1)
     |                                               |                |                  [2]{}: in 0x18a-0x18a.7 (1)
0x180|                              0b               |          .     |                    end: 0xb (valid) 0x18a-0x18a.7 (1)
     |                                               |                |            [7]{}: code 0x18b-0x194.7 (10)
0x180|                                 09            |           .    |              size: 9 0x18b-0x18b.7 (1)
     |                                               |                |              code{}: 0x18c-0x194.7 (9)
     |                                               |                |                t{}: 0x18c-0x18c.7 (1)
0x180|                                    00         |            .   |                  n: 0 0x18c-0x18c.7 (1)
     |                                               |                |                  x[0:0]: 0x18d-NA (0)
     |                                               |                |                e[0:5]: 0x18d-0x194.7 (8)
     |                                               |                |                  [0]{}: in 0x18d-0x18e.7 (2)
0x180|                                       10      |             .  |                    call: 0x10 (valid) 0x18d-0x18d.7 (1)
0x180|                                          05   |              . |                    x: 5 0x18e-0x18e.7 (1)
     |                                               |                |                  [1]{}: in 0x18f-0x190.7 (2)
0x180|                                             10|               .|                    call: 0x10 (valid) 0x18f-0x18f.7 (1)
0x190|05                                             |.               |                    x: 5 0x190-0x190.7 (1)
     |                                               |                |                  [2]{}: in 0x191-0x192.7 (2)
0x190|   10                                          | .              |                    call: 0x10 (valid) 0x191-0x191.7 (1)
0x190|      06                                       |  .             |                    x: 6 0x192-0x192.7 (1)
     |                                               |                |                  [3]{}: in 0x193-0x193.7 (1)
0x190|         6a                                    |   j            |                    i32.add: 0x6a (valid) 0x193-0x193.7 (1)
     |                                               |                |                  [4]{}: in 0x194-0x194.7 (1)
0x190|            0b|                                |    .|          |                    end: 0xb (valid) 0x194-0x194.7 (1)
