$ fq -d wasm dv stack-1.wasm
     |00 01 02 03 04 05 06 07 08 09 0a 0b 0c 0d 0e 0f|0123456789abcdef|.{}: stack-1.wasm (wasm) 0x0-0x1d7 (471)
0x000|00 61 73 6d                                    |.asm            |  magic: raw bits (valid) 0x0-0x4 (4)
0x000|            01 00 00 00                        |    ....        |  version: 1 0x4-0x8 (4)
     |                                               |                |  sections[0:4]: 0x8-0x1d7 (463)
     |                                               |                |    [0]{}: section 0x8-0x16 (14)
0x000|                        01                     |        .       |      id: "type_section" (1) 0x8-0x9 (1)
0x000|                           0c                  |         .      |      size: 12 (valid) 0x9-0xa (1)
     |                                               |                |      content{}: 0xa-0x16 (12)
     |                                               |                |        ft{}: 0xa-0x16 (12)
0x000|                              03               |          .     |          n: 3 (valid) 0xa-0xb (1)
     |                                               |                |          x[0:3]: 0xb-0x16 (11)
     |                                               |                |            [0]{}: ft 0xb-0xe (3)
0x000|                                 60            |           `    |              tag: 0x60 (valid) 0xb-0xc (1)
     |                                               |                |              rt1{}: 0xc-0xd (1)
0x000|                                    00         |            .   |                n: 0 (valid) 0xc-0xd (1)
     |                                               |                |                x[0:0]: 0xd-0xd (0)
     |                                               |                |              rt2{}: 0xd-0xe (1)
0x000|                                       00      |             .  |                n: 0 (valid) 0xd-0xe (1)
     |                                               |                |                x[0:0]: 0xe-0xe (0)
     |                                               |                |            [1]{}: ft 0xe-0x12 (4)
0x000|                                          60   |              ` |              tag: 0x60 (valid) 0xe-0xf (1)
     |                                               |                |              rt1{}: 0xf-0x11 (2)
0x000|                                             01|               .|                n: 1 (valid) 0xf-0x10 (1)
     |                                               |                |                x[0:1]: 0x10-0x11 (1)
0x010|7f                                             |.               |                  [0]: "i32" (0x7f) t 0x10-0x11 (1)
     |                                               |                |              rt2{}: 0x11-0x12 (1)
0x010|   00                                          | .              |                n: 0 (valid) 0x11-0x12 (1)
     |                                               |                |                x[0:0]: 0x12-0x12 (0)
     |                                               |                |            [2]{}: ft 0x12-0x16 (4)
0x010|      60                                       |  `             |              tag: 0x60 (valid) 0x12-0x13 (1)
     |                                               |                |              rt1{}: 0x13-0x14 (1)
0x010|         00                                    |   .            |                n: 0 (valid) 0x13-0x14 (1)
     |                                               |                |                x[0:0]: 0x14-0x14 (0)
     |                                               |                |              rt2{}: 0x14-0x16 (2)
0x010|            01                                 |    .           |                n: 1 (valid) 0x14-0x15 (1)
     |                                               |                |                x[0:1]: 0x15-0x16 (1)
0x010|               7f                              |     .          |                  [0]: "i32" (0x7f) t 0x15-0x16 (1)
     |                                               |                |    [1]{}: section 0x16-0x1a (4)
0x010|                  03                           |      .         |      id: "function_section" (3) 0x16-0x17 (1)
0x010|                     02                        |       .        |      size: 2 (valid) 0x17-0x18 (1)
     |                                               |                |      content{}: 0x18-0x1a (2)
     |                                               |                |        x{}: 0x18-0x1a (2)
0x010|                        01                     |        .       |          n: 1 (valid) 0x18-0x19 (1)
     |                                               |                |          x[0:1]: 0x19-0x1a (1)
0x010|                           00                  |         .      |            [0]: 0 x (valid) 0x19-0x1a (1)
     |                                               |                |    [2]{}: section 0x1a-0x20 (6)
0x010|                              04               |          .     |      id: "table_section" (4) 0x1a-0x1b (1)
0x010|                                 04            |           .    |      size: 4 (valid) 0x1b-0x1c (1)
     |                                               |                |      content{}: 0x1c-0x20 (4)
     |                                               |                |        tab{}: 0x1c-0x20 (4)
0x010|                                    01         |            .   |          n: 1 (valid) 0x1c-0x1d (1)
     |                                               |                |          x[0:1]: 0x1d-0x20 (3)
     |                                               |                |            [0]{}: tab 0x1d-0x20 (3)
0x010|                                       70      |             p  |              et: "funcref" (112) 0x1d-0x1e (1)
     |                                               |                |              lim{}: 0x1e-0x20 (2)
0x010|                                          00   |              . |                tag: 0x0 0x1e-0x1f (1)
0x010|                                             01|               .|                n: 1 (valid) 0x1f-0x20 (1)
     |                                               |                |    [3]{}: section 0x20-0x1d7 (439)
0x020|0a                                             |.               |      id: "code_section" (10) 0x20-0x21 (1)
0x020|   b4 03                                       | ..             |      size: 436 (valid) 0x21-0x23 (2)
     |                                               |                |      content{}: 0x23-0x1d7 (436)
     |                                               |                |        code{}: 0x23-0x1d7 (436)
0x020|         01                                    |   .            |          n: 1 (valid) 0x23-0x24 (1)
     |                                               |                |          x[0:1]: 0x24-0x1d7 (435)
     |                                               |                |            [0]{}: code 0x24-0x1d7 (435)
0x020|            b1 03                              |    ..          |              size: 433 (valid) 0x24-0x26 (2)
     |                                               |                |              code{}: 0x26-0x1d7 (433)
     |                                               |                |                t{}: 0x26-0x27 (1)
0x020|                  00                           |      .         |                  n: 0 (valid) 0x26-0x27 (1)
     |                                               |                |                  x[0:0]: 0x27-0x27 (0)
     |                                               |                |                e[0:65]: 0x27-0x1d7 (432)
     |                                               |                |                  [0]{}: in 0x27-0x2f (8)
0x020|                     02                        |       .        |                    opcode: "block" (0x2) 0x27-0x28 (1)
0x020|                        40                     |        @       |                    bt: "ε" (64) 0x28-0x29 (1)
     |                                               |                |                    instructions[0:2]: 0x29-0x2e (5)
     |                                               |                |                      [0]{}: instr 0x29-0x2b (2)
0x020|                           41                  |         A      |                        opcode: "i32.const" (0x41) 0x29-0x2a (1)
0x020|                              00               |          .     |                        n: 0 (valid) 0x2a-0x2b (1)
     |                                               |                |                      [1]{}: instr 0x2b-0x2e (3)
0x020|                                 11            |           .    |                        opcode: "call_indirect" (0x11) 0x2b-0x2c (1)
0x020|                                    00         |            .   |                        y: 0 (valid) 0x2c-0x2d (1)
0x020|                                       00      |             .  |                        x: 0 (valid) 0x2d-0x2e (1)
0x020|                                          0b   |              . |                    end: 0xb (valid) 0x2e-0x2f (1)
     |                                               |                |                  [1]{}: in 0x2f-0x37 (8)
0x020|                                             03|               .|                    opcode: "loop" (0x3) 0x2f-0x30 (1)
0x030|40                                             |@               |                    bt: "ε" (64) 0x30-0x31 (1)
     |                                               |                |                    instructions[0:2]: 0x31-0x36 (5)
     |                                               |                |                      [0]{}: instr 0x31-0x33 (2)
0x030|   41                                          | A              |                        opcode: "i32.const" (0x41) 0x31-0x32 (1)
0x030|      00                                       |  .             |                        n: 0 (valid) 0x32-0x33 (1)
     |                                               |                |                      [1]{}: instr 0x33-0x36 (3)
0x030|         11                                    |   .            |                        opcode: "call_indirect" (0x11) 0x33-0x34 (1)
0x030|            00                                 |    .           |                        y: 0 (valid) 0x34-0x35 (1)
0x030|               00                              |     .          |                        x: 0 (valid) 0x35-0x36 (1)
0x030|                  0b                           |      .         |                    end: 0xb (valid) 0x36-0x37 (1)
     |                                               |                |                  [2]{}: in 0x37-0x39 (2)
0x030|                     41                        |       A        |                    opcode: "i32.const" (0x41) 0x37-0x38 (1)
0x030|                        00                     |        .       |                    n: 0 (valid) 0x38-0x39 (1)
     |                                               |                |                  [3]{}: in 0x39-0x41 (8)
0x030|                           04                  |         .      |                    opcode: "if" (0x4) 0x39-0x3a (1)
0x030|                              40               |          @     |                    bt: "ε" (64) 0x3a-0x3b (1)
     |                                               |                |                    in1[0:2]: 0x3b-0x40 (5)
     |                                               |                |                      [0]{}: instr 0x3b-0x3d (2)
0x030|                                 41            |           A    |                        opcode: "i32.const" (0x41) 0x3b-0x3c (1)
0x030|                                    00         |            .   |                        n: 0 (valid) 0x3c-0x3d (1)
     |                                               |                |                      [1]{}: instr 0x3d-0x40 (3)
0x030|                                       11      |             .  |                        opcode: "call_indirect" (0x11) 0x3d-0x3e (1)
0x030|                                          00   |              . |                        y: 0 (valid) 0x3e-0x3f (1)
0x030|                                             00|               .|                        x: 0 (valid) 0x3f-0x40 (1)
0x040|0b                                             |.               |                    end: 0xb (valid) 0x40-0x41 (1)
     |                                               |                |                  [4]{}: in 0x41-0x43 (2)
0x040|   41                                          | A              |                    opcode: "i32.const" (0x41) 0x41-0x42 (1)
0x040|      00                                       |  .             |                    n: 0 (valid) 0x42-0x43 (1)
     |                                               |                |                  [5]{}: in 0x43-0x51 (14)
0x040|         04                                    |   .            |                    opcode: "if" (0x4) 0x43-0x44 (1)
0x040|            40                                 |    @           |                    bt: "ε" (64) 0x44-0x45 (1)
     |                                               |                |                    in1[0:2]: 0x45-0x4a (5)
     |                                               |                |                      [0]{}: instr 0x45-0x47 (2)
0x040|               41                              |     A          |                        opcode: "i32.const" (0x41) 0x45-0x46 (1)
0x040|                  00                           |      .         |                        n: 0 (valid) 0x46-0x47 (1)
     |                                               |                |                      [1]{}: instr 0x47-0x4a (3)
0x040|                     11                        |       .        |                        opcode: "call_indirect" (0x11) 0x47-0x48 (1)
0x040|                        00                     |        .       |                        y: 0 (valid) 0x48-0x49 (1)
0x040|                           00                  |         .      |                        x: 0 (valid) 0x49-0x4a (1)
0x040|                              05               |          .     |                    else: 0x5 (valid) 0x4a-0x4b (1)
     |                                               |                |                    in2[0:2]: 0x4b-0x50 (5)
     |                                               |                |                      [0]{}: instr 0x4b-0x4d (2)
0x040|                                 41            |           A    |                        opcode: "i32.const" (0x41) 0x4b-0x4c (1)
0x040|                                    00         |            .   |                        n: 0 (valid) 0x4c-0x4d (1)
     |                                               |                |                      [1]{}: instr 0x4d-0x50 (3)
0x040|                                       11      |             .  |                        opcode: "call_indirect" (0x11) 0x4d-0x4e (1)
0x040|                                          00   |              . |                        y: 0 (valid) 0x4e-0x4f (1)
0x040|                                             00|               .|                        x: 0 (valid) 0x4f-0x50 (1)
0x050|0b                                             |.               |                    end: 0xb (valid) 0x50-0x51 (1)
     |                                               |                |                  [6]{}: in 0x51-0x59 (8)
0x050|   02                                          | .              |                    opcode: "block" (0x2) 0x51-0x52 (1)
0x050|      40                                       |  @             |                    bt: "ε" (64) 0x52-0x53 (1)
     |                                               |                |                    instructions[0:2]: 0x53-0x58 (5)
     |                                               |                |                      [0]{}: instr 0x53-0x55 (2)
0x050|         41                                    |   A            |                        opcode: "i32.const" (0x41) 0x53-0x54 (1)
0x050|            00                                 |    .           |                        n: 0 (valid) 0x54-0x55 (1)
     |                                               |                |                      [1]{}: instr 0x55-0x58 (3)
0x050|               11                              |     .          |                        opcode: "call_indirect" (0x11) 0x55-0x56 (1)
0x050|                  00                           |      .         |                        y: 0 (valid) 0x56-0x57 (1)
0x050|                     00                        |       .        |                        x: 0 (valid) 0x57-0x58 (1)
0x050|                        0b                     |        .       |                    end: 0xb (valid) 0x58-0x59 (1)
     |                                               |                |                  [7]{}: in 0x59-0x61 (8)
0x050|                           03                  |         .      |                    opcode: "loop" (0x3) 0x59-0x5a (1)
0x050|                              40               |          @     |                    bt: "ε" (64) 0x5a-0x5b (1)
     |                                               |                |                    instructions[0:2]: 0x5b-0x60 (5)
     |                                               |                |                      [0]{}: instr 0x5b-0x5d (2)
0x050|                                 41            |           A    |                        opcode: "i32.const" (0x41) 0x5b-0x5c (1)
0x050|                                    00         |            .   |                        n: 0 (valid) 0x5c-0x5d (1)
     |                                               |                |                      [1]{}: instr 0x5d-0x60 (3)
0x050|                                       11      |             .  |                        opcode: "call_indirect" (0x11) 0x5d-0x5e (1)
0x050|                                          00   |              . |                        y: 0 (valid) 0x5e-0x5f (1)
0x050|                                             00|               .|                        x: 0 (valid) 0x5f-0x60 (1)
0x060|0b                                             |.               |                    end: 0xb (valid) 0x60-0x61 (1)
     |                                               |                |                  [8]{}: in 0x61-0x63 (2)
0x060|   41                                          | A              |                    opcode: "i32.const" (0x41) 0x61-0x62 (1)
0x060|      00                                       |  .             |                    n: 0 (valid) 0x62-0x63 (1)
     |                                               |                |                  [9]{}: in 0x63-0x6b (8)
0x060|         04                                    |   .            |                    opcode: "if" (0x4) 0x63-0x64 (1)
0x060|            40                                 |    @           |                    bt: "ε" (64) 0x64-0x65 (1)
     |                                               |                |                    in1[0:2]: 0x65-0x6a (5)
     |                                               |                |                      [0]{}: instr 0x65-0x67 (2)
0x060|               41                              |     A          |                        opcode: "i32.const" (0x41) 0x65-0x66 (1)
0x060|                  00                           |      .         |                        n: 0 (valid) 0x66-0x67 (1)
     |                                               |                |                      [1]{}: instr 0x67-0x6a (3)
0x060|                     11                        |       .        |                        opcode: "call_indirect" (0x11) 0x67-0x68 (1)
0x060|                        00                     |        .       |                        y: 0 (valid) 0x68-0x69 (1)
0x060|                           00                  |         .      |                        x: 0 (valid) 0x69-0x6a (1)
0x060|                              0b               |          .     |                    end: 0xb (valid) 0x6a-0x6b (1)
     |                                               |                |                  [10]{}: in 0x6b-0x6d (2)
0x060|                                 41            |           A    |                    opcode: "i32.const" (0x41) 0x6b-0x6c (1)
0x060|                                    00         |            .   |                    n: 0 (valid) 0x6c-0x6d (1)
     |                                               |                |                  [11]{}: in 0x6d-0x7b (14)
0x060|                                       04      |             .  |                    opcode: "if" (0x4) 0x6d-0x6e (1)
0x060|                                          40   |              @ |                    bt: "ε" (64) 0x6e-0x6f (1)
     |                                               |                |                    in1[0:2]: 0x6f-0x74 (5)
     |                                               |                |                      [0]{}: instr 0x6f-0x71 (2)
0x060|                                             41|               A|                        opcode: "i32.const" (0x41) 0x6f-0x70 (1)
0x070|00                                             |.               |                        n: 0 (valid) 0x70-0x71 (1)
     |                                               |                |                      [1]{}: instr 0x71-0x74 (3)
0x070|   11                                          | .              |                        opcode: "call_indirect" (0x11) 0x71-0x72 (1)
0x070|      00                                       |  .             |                        y: 0 (valid) 0x72-0x73 (1)
0x070|         00                                    |   .            |                        x: 0 (valid) 0x73-0x74 (1)
0x070|            05                                 |    .           |                    else: 0x5 (valid) 0x74-0x75 (1)
     |                                               |                |                    in2[0:2]: 0x75-0x7a (5)
     |                                               |                |                      [0]{}: instr 0x75-0x77 (2)
0x070|               41                              |     A          |                        opcode: "i32.const" (0x41) 0x75-0x76 (1)
0x070|                  00                           |      .         |                        n: 0 (valid) 0x76-0x77 (1)
     |                                               |                |                      [1]{}: instr 0x77-0x7a (3)
0x070|                     11                        |       .        |                        opcode: "call_indirect" (0x11) 0x77-0x78 (1)
0x070|                        00                     |        .       |                        y: 0 (valid) 0x78-0x79 (1)
0x070|                           00                  |         .      |                        x: 0 (valid) 0x79-0x7a (1)
0x070|                              0b               |          .     |                    end: 0xb (valid) 0x7a-0x7b (1)
     |                                               |                |                  [12]{}: in 0x7b-0x85 (10)
0x070|                                 02            |           .    |                    opcode: "block" (0x2) 0x7b-0x7c (1)
0x070|                                    40         |            @   |                    bt: "ε" (64) 0x7c-0x7d (1)
     |                                               |                |                    instructions[0:3]: 0x7d-0x84 (7)
     |                                               |                |                      [0]{}: instr 0x7d-0x7f (2)
0x070|                                       41      |             A  |                        opcode: "i32.const" (0x41) 0x7d-0x7e (1)
0x070|                                          00   |              . |                        n: 0 (valid) 0x7e-0x7f (1)
     |                                               |                |                      [1]{}: instr 0x7f-0x81 (2)
0x070|                                             41|               A|                        opcode: "i32.const" (0x41) 0x7f-0x80 (1)
0x080|00                                             |.               |                        n: 0 (valid) 0x80-0x81 (1)
     |                                               |                |                      [2]{}: instr 0x81-0x84 (3)
0x080|   11                                          | .              |                        opcode: "call_indirect" (0x11) 0x81-0x82 (1)
0x080|      01                                       |  .             |                        y: 1 (valid) 0x82-0x83 (1)
0x080|         00                                    |   .            |                        x: 0 (valid) 0x83-0x84 (1)
0x080|            0b                                 |    .           |                    end: 0xb (valid) 0x84-0x85 (1)
     |                                               |                |                  [13]{}: in 0x85-0x8f (10)
0x080|               03                              |     .          |                    opcode: "loop" (0x3) 0x85-0x86 (1)
0x080|                  40                           |      @         |                    bt: "ε" (64) 0x86-0x87 (1)
     |                                               |                |                    instructions[0:3]: 0x87-0x8e (7)
     |                                               |                |                      [0]{}: instr 0x87-0x89 (2)
0x080|                     41                        |       A        |                        opcode: "i32.const" (0x41) 0x87-0x88 (1)
0x080|                        00                     |        .       |                        n: 0 (valid) 0x88-0x89 (1)
     |                                               |                |                      [1]{}: instr 0x89-0x8b (2)
0x080|                           41                  |         A      |                        opcode: "i32.const" (0x41) 0x89-0x8a (1)
0x080|                              00               |          .     |                        n: 0 (valid) 0x8a-0x8b (1)
     |                                               |                |                      [2]{}: instr 0x8b-0x8e (3)
0x080|                                 11            |           .    |                        opcode: "call_indirect" (0x11) 0x8b-0x8c (1)
0x080|                                    01         |            .   |                        y: 1 (valid) 0x8c-0x8d (1)
0x080|                                       00      |             .  |                        x: 0 (valid) 0x8d-0x8e (1)
0x080|                                          0b   |              . |                    end: 0xb (valid) 0x8e-0x8f (1)
     |                                               |                |                  [14]{}: in 0x8f-0x91 (2)
0x080|                                             41|               A|                    opcode: "i32.const" (0x41) 0x8f-0x90 (1)
0x090|00                                             |.               |                    n: 0 (valid) 0x90-0x91 (1)
     |                                               |                |                  [15]{}: in 0x91-0x9b (10)
0x090|   04                                          | .              |                    opcode: "if" (0x4) 0x91-0x92 (1)
0x090|      40                                       |  @             |                    bt: "ε" (64) 0x92-0x93 (1)
     |                                               |                |                    in1[0:3]: 0x93-0x9a (7)
     |                                               |                |                      [0]{}: instr 0x93-0x95 (2)
0x090|         41                                    |   A            |                        opcode: "i32.const" (0x41) 0x93-0x94 (1)
0x090|            00                                 |    .           |                        n: 0 (valid) 0x94-0x95 (1)
     |                                               |                |                      [1]{}: instr 0x95-0x97 (2)
0x090|               41                              |     A          |                        opcode: "i32.const" (0x41) 0x95-0x96 (1)
0x090|                  00                           |      .         |                        n: 0 (valid) 0x96-0x97 (1)
     |                                               |                |                      [2]{}: instr 0x97-0x9a (3)
0x090|                     11                        |       .        |                        opcode: "call_indirect" (0x11) 0x97-0x98 (1)
0x090|                        01                     |        .       |                        y: 1 (valid) 0x98-0x99 (1)
0x090|                           00                  |         .      |                        x: 0 (valid) 0x99-0x9a (1)
0x090|                              0b               |          .     |                    end: 0xb (valid) 0x9a-0x9b (1)
     |                                               |                |                  [16]{}: in 0x9b-0x9d (2)
0x090|                                 41            |           A    |                    opcode: "i32.const" (0x41) 0x9b-0x9c (1)
0x090|                                    00         |            .   |                    n: 0 (valid) 0x9c-0x9d (1)
     |                                               |                |                  [17]{}: in 0x9d-0xaf (18)
0x090|                                       04      |             .  |                    opcode: "if" (0x4) 0x9d-0x9e (1)
0x090|                                          40   |              @ |                    bt: "ε" (64) 0x9e-0x9f (1)
     |                                               |                |                    in1[0:3]: 0x9f-0xa6 (7)
     |                                               |                |                      [0]{}: instr 0x9f-0xa1 (2)
0x090|                                             41|               A|                        opcode: "i32.const" (0x41) 0x9f-0xa0 (1)
0x0a0|00                                             |.               |                        n: 0 (valid) 0xa0-0xa1 (1)
     |                                               |                |                      [1]{}: instr 0xa1-0xa3 (2)
0x0a0|   41                                          | A              |                        opcode: "i32.const" (0x41) 0xa1-0xa2 (1)
0x0a0|      00                                       |  .             |                        n: 0 (valid) 0xa2-0xa3 (1)
     |                                               |                |                      [2]{}: instr 0xa3-0xa6 (3)
0x0a0|         11                                    |   .            |                        opcode: "call_indirect" (0x11) 0xa3-0xa4 (1)
0x0a0|            01                                 |    .           |                        y: 1 (valid) 0xa4-0xa5 (1)
0x0a0|               00                              |     .          |                        x: 0 (valid) 0xa5-0xa6 (1)
0x0a0|                  05                           |      .         |                    else: 0x5 (valid) 0xa6-0xa7 (1)
     |                                               |                |                    in2[0:3]: 0xa7-0xae (7)
     |                                               |                |                      [0]{}: instr 0xa7-0xa9 (2)
0x0a0|                     41                        |       A        |                        opcode: "i32.const" (0x41) 0xa7-0xa8 (1)
0x0a0|                        00                     |        .       |                        n: 0 (valid) 0xa8-0xa9 (1)
     |                                               |                |                      [1]{}: instr 0xa9-0xab (2)
0x0a0|                           41                  |         A      |                        opcode: "i32.const" (0x41) 0xa9-0xaa (1)
0x0a0|                              00               |          .     |                        n: 0 (valid) 0xaa-0xab (1)
     |                                               |                |                      [2]{}: instr 0xab-0xae (3)
0x0a0|                                 11            |           .    |                        opcode: "call_indirect" (0x11) 0xab-0xac (1)
0x0a0|                                    01         |            .   |                        y: 1 (valid) 0xac-0xad (1)
0x0a0|                                       00      |             .  |                        x: 0 (valid) 0xad-0xae (1)
0x0a0|                                          0b   |              . |                    end: 0xb (valid) 0xae-0xaf (1)
     |                                               |                |                  [18]{}: in 0xaf-0xb7 (8)
0x0a0|                                             02|               .|                    opcode: "block" (0x2) 0xaf-0xb0 (1)
0x0b0|7f                                             |.               |                    bt: "i32" (127) 0xb0-0xb1 (1)
     |                                               |                |                    instructions[0:2]: 0xb1-0xb6 (5)
     |                                               |                |                      [0]{}: instr 0xb1-0xb3 (2)
0x0b0|   41                                          | A              |                        opcode: "i32.const" (0x41) 0xb1-0xb2 (1)
0x0b0|      00                                       |  .             |                        n: 0 (valid) 0xb2-0xb3 (1)
     |                                               |                |                      [1]{}: instr 0xb3-0xb6 (3)
0x0b0|         11                                    |   .            |                        opcode: "call_indirect" (0x11) 0xb3-0xb4 (1)
0x0b0|            02                                 |    .           |                        y: 2 (valid) 0xb4-0xb5 (1)
0x0b0|               00                              |     .          |                        x: 0 (valid) 0xb5-0xb6 (1)
0x0b0|                  0b                           |      .         |                    end: 0xb (valid) 0xb6-0xb7 (1)
     |                                               |                |                  [19]{}: in 0xb7-0xb8 (1)
0x0b0|                     1a                        |       .        |                    opcode: "drop" (0x1a) 0xb7-0xb8 (1)
     |                                               |                |                  [20]{}: in 0xb8-0xc0 (8)
0x0b0|                        03                     |        .       |                    opcode: "loop" (0x3) 0xb8-0xb9 (1)
0x0b0|                           7f                  |         .      |                    bt: "i32" (127) 0xb9-0xba (1)
     |                                               |                |                    instructions[0:2]: 0xba-0xbf (5)
     |                                               |                |                      [0]{}: instr 0xba-0xbc (2)
0x0b0|                              41               |          A     |                        opcode: "i32.const" (0x41) 0xba-0xbb (1)
0x0b0|                                 00            |           .    |                        n: 0 (valid) 0xbb-0xbc (1)
     |                                               |                |                      [1]{}: instr 0xbc-0xbf (3)
0x0b0|                                    11         |            .   |                        opcode: "call_indirect" (0x11) 0xbc-0xbd (1)
0x0b0|                                       02      |             .  |                        y: 2 (valid) 0xbd-0xbe (1)
0x0b0|                                          00   |              . |                        x: 0 (valid) 0xbe-0xbf (1)
0x0b0|                                             0b|               .|                    end: 0xb (valid) 0xbf-0xc0 (1)
     |                                               |                |                  [21]{}: in 0xc0-0xc1 (1)
0x0c0|1a                                             |.               |                    opcode: "drop" (0x1a) 0xc0-0xc1 (1)
     |                                               |                |                  [22]{}: in 0xc1-0xc3 (2)
0x0c0|   41                                          | A              |                    opcode: "i32.const" (0x41) 0xc1-0xc2 (1)
0x0c0|      00                                       |  .             |                    n: 0 (valid) 0xc2-0xc3 (1)
     |                                               |                |                  [23]{}: in 0xc3-0xd1 (14)
0x0c0|         04                                    |   .            |                    opcode: "if" (0x4) 0xc3-0xc4 (1)
0x0c0|            7f                                 |    .           |                    bt: "i32" (127) 0xc4-0xc5 (1)
     |                                               |                |                    in1[0:2]: 0xc5-0xca (5)
     |                                               |                |                      [0]{}: instr 0xc5-0xc7 (2)
0x0c0|               41                              |     A          |                        opcode: "i32.const" (0x41) 0xc5-0xc6 (1)
0x0c0|                  00                           |      .         |                        n: 0 (valid) 0xc6-0xc7 (1)
     |                                               |                |                      [1]{}: instr 0xc7-0xca (3)
0x0c0|                     11                        |       .        |                        opcode: "call_indirect" (0x11) 0xc7-0xc8 (1)
0x0c0|                        02                     |        .       |                        y: 2 (valid) 0xc8-0xc9 (1)
0x0c0|                           00                  |         .      |                        x: 0 (valid) 0xc9-0xca (1)
0x0c0|                              05               |          .     |                    else: 0x5 (valid) 0xca-0xcb (1)
     |                                               |                |                    in2[0:2]: 0xcb-0xd0 (5)
     |                                               |                |                      [0]{}: instr 0xcb-0xcd (2)
0x0c0|                                 41            |           A    |                        opcode: "i32.const" (0x41) 0xcb-0xcc (1)
0x0c0|                                    00         |            .   |                        n: 0 (valid) 0xcc-0xcd (1)
     |                                               |                |                      [1]{}: instr 0xcd-0xd0 (3)
0x0c0|                                       11      |             .  |                        opcode: "call_indirect" (0x11) 0xcd-0xce (1)
0x0c0|                                          02   |              . |                        y: 2 (valid) 0xce-0xcf (1)
0x0c0|                                             00|               .|                        x: 0 (valid) 0xcf-0xd0 (1)
0x0d0|0b                                             |.               |                    end: 0xb (valid) 0xd0-0xd1 (1)
     |                                               |                |                  [24]{}: in 0xd1-0xd2 (1)
0x0d0|   1a                                          | .              |                    opcode: "drop" (0x1a) 0xd1-0xd2 (1)
     |                                               |                |                  [25]{}: in 0xd2-0xda (8)
0x0d0|      02                                       |  .             |                    opcode: "block" (0x2) 0xd2-0xd3 (1)
0x0d0|         40                                    |   @            |                    bt: "ε" (64) 0xd3-0xd4 (1)
     |                                               |                |                    instructions[0:2]: 0xd4-0xd9 (5)
     |                                               |                |                      [0]{}: instr 0xd4-0xd6 (2)
0x0d0|            41                                 |    A           |                        opcode: "i32.const" (0x41) 0xd4-0xd5 (1)
0x0d0|               00                              |     .          |                        n: 0 (valid) 0xd5-0xd6 (1)
     |                                               |                |                      [1]{}: instr 0xd6-0xd9 (3)
0x0d0|                  11                           |      .         |                        opcode: "call_indirect" (0x11) 0xd6-0xd7 (1)
0x0d0|                     00                        |       .        |                        y: 0 (valid) 0xd7-0xd8 (1)
0x0d0|                        00                     |        .       |                        x: 0 (valid) 0xd8-0xd9 (1)
0x0d0|                           0b                  |         .      |                    end: 0xb (valid) 0xd9-0xda (1)
     |                                               |                |                  [26]{}: in 0xda-0xe2 (8)
0x0d0|                              03               |          .     |                    opcode: "loop" (0x3) 0xda-0xdb (1)
0x0d0|                                 40            |           @    |                    bt: "ε" (64) 0xdb-0xdc (1)
     |                                               |                |                    instructions[0:2]: 0xdc-0xe1 (5)
     |                                               |                |                      [0]{}: instr 0xdc-0xde (2)
0x0d0|                                    41         |            A   |                        opcode: "i32.const" (0x41) 0xdc-0xdd (1)
0x0d0|                                       00      |             .  |                        n: 0 (valid) 0xdd-0xde (1)
     |                                               |                |                      [1]{}: instr 0xde-0xe1 (3)
0x0d0|                                          11   |              . |                        opcode: "call_indirect" (0x11) 0xde-0xdf (1)
0x0d0|                                             00|               .|                        y: 0 (valid) 0xdf-0xe0 (1)
0x0e0|00                                             |.               |                        x: 0 (valid) 0xe0-0xe1 (1)
0x0e0|   0b                                          | .              |                    end: 0xb (valid) 0xe1-0xe2 (1)
     |                                               |                |                  [27]{}: in 0xe2-0xe4 (2)
0x0e0|      41                                       |  A             |                    opcode: "i32.const" (0x41) 0xe2-0xe3 (1)
0x0e0|         00                                    |   .            |                    n: 0 (valid) 0xe3-0xe4 (1)
     |                                               |                |                  [28]{}: in 0xe4-0xec (8)
0x0e0|            04                                 |    .           |                    opcode: "if" (0x4) 0xe4-0xe5 (1)
0x0e0|               40                              |     @          |                    bt: "ε" (64) 0xe5-0xe6 (1)
     |                                               |                |                    in1[0:2]: 0xe6-0xeb (5)
     |                                               |                |                      [0]{}: instr 0xe6-0xe8 (2)
0x0e0|                  41                           |      A         |                        opcode: "i32.const" (0x41) 0xe6-0xe7 (1)
0x0e0|                     00                        |       .        |                        n: 0 (valid) 0xe7-0xe8 (1)
     |                                               |                |                      [1]{}: instr 0xe8-0xeb (3)
0x0e0|                        11                     |        .       |                        opcode: "call_indirect" (0x11) 0xe8-0xe9 (1)
0x0e0|                           00                  |         .      |                        y: 0 (valid) 0xe9-0xea (1)
0x0e0|                              00               |          .     |                        x: 0 (valid) 0xea-0xeb (1)
0x0e0|                                 0b            |           .    |                    end: 0xb (valid) 0xeb-0xec (1)
     |                                               |                |                  [29]{}: in 0xec-0xee (2)
0x0e0|                                    41         |            A   |                    opcode: "i32.const" (0x41) 0xec-0xed (1)
0x0e0|                                       00      |             .  |                    n: 0 (valid) 0xed-0xee (1)
     |                                               |                |                  [30]{}: in 0xee-0xfc (14)
0x0e0|                                          04   |              . |                    opcode: "if" (0x4) 0xee-0xef (1)
0x0e0|                                             40|               @|                    bt: "ε" (64) 0xef-0xf0 (1)
     |                                               |                |                    in1[0:2]: 0xf0-0xf5 (5)
     |                                               |                |                      [0]{}: instr 0xf0-0xf2 (2)
0x0f0|41                                             |A               |                        opcode: "i32.const" (0x41) 0xf0-0xf1 (1)
0x0f0|   00                                          | .              |                        n: 0 (valid) 0xf1-0xf2 (1)
     |                                               |                |                      [1]{}: instr 0xf2-0xf5 (3)
0x0f0|      11                                       |  .             |                        opcode: "call_indirect" (0x11) 0xf2-0xf3 (1)
0x0f0|         00                                    |   .            |                        y: 0 (valid) 0xf3-0xf4 (1)
0x0f0|            00                                 |    .           |                        x: 0 (valid) 0xf4-0xf5 (1)
0x0f0|               05                              |     .          |                    else: 0x5 (valid) 0xf5-0xf6 (1)
     |                                               |                |                    in2[0:2]: 0xf6-0xfb (5)
     |                                               |                |                      [0]{}: instr 0xf6-0xf8 (2)
0x0f0|                  41                           |      A         |                        opcode: "i32.const" (0x41) 0xf6-0xf7 (1)
0x0f0|                     00                        |       .        |                        n: 0 (valid) 0xf7-0xf8 (1)
     |                                               |                |                      [1]{}: instr 0xf8-0xfb (3)
0x0f0|                        11                     |        .       |                        opcode: "call_indirect" (0x11) 0xf8-0xf9 (1)
0x0f0|                           00                  |         .      |                        y: 0 (valid) 0xf9-0xfa (1)
0x0f0|                              00               |          .     |                        x: 0 (valid) 0xfa-0xfb (1)
0x0f0|                                 0b            |           .    |                    end: 0xb (valid) 0xfb-0xfc (1)
     |                                               |                |                  [31]{}: in 0xfc-0x104 (8)
0x0f0|                                    02         |            .   |                    opcode: "block" (0x2) 0xfc-0xfd (1)
0x0f0|                                       40      |             @  |                    bt: "ε" (64) 0xfd-0xfe (1)
     |                                               |                |                    instructions[0:2]: 0xfe-0x103 (5)
     |                                               |                |                      [0]{}: instr 0xfe-0x100 (2)
0x0f0|                                          41   |              A |                        opcode: "i32.const" (0x41) 0xfe-0xff (1)
0x0f0|                                             00|               .|                        n: 0 (valid) 0xff-0x100 (1)
     |                                               |                |                      [1]{}: instr 0x100-0x103 (3)
0x100|11                                             |.               |                        opcode: "call_indirect" (0x11) 0x100-0x101 (1)
0x100|   00                                          | .              |                        y: 0 (valid) 0x101-0x102 (1)
0x100|      00                                       |  .             |                        x: 0 (valid) 0x102-0x103 (1)
0x100|         0b                                    |   .            |                    end: 0xb (valid) 0x103-0x104 (1)
     |                                               |                |                  [32]{}: in 0x104-0x10c (8)
0x100|            03                                 |    .           |                    opcode: "loop" (0x3) 0x104-0x105 (1)
0x100|               40                              |     @          |                    bt: "ε" (64) 0x105-0x106 (1)
     |                                               |                |                    instructions[0:2]: 0x106-0x10b (5)
     |                                               |                |                      [0]{}: instr 0x106-0x108 (2)
0x100|                  41                           |      A         |                        opcode: "i32.const" (0x41) 0x106-0x107 (1)
0x100|                     00                        |       .        |                        n: 0 (valid) 0x107-0x108 (1)
     |                                               |                |                      [1]{}: instr 0x108-0x10b (3)
0x100|                        11                     |        .       |                        opcode: "call_indirect" (0x11) 0x108-0x109 (1)
0x100|                           00                  |         .      |                        y: 0 (valid) 0x109-0x10a (1)
0x100|                              00               |          .     |                        x: 0 (valid) 0x10a-0x10b (1)
0x100|                                 0b            |           .    |                    end: 0xb (valid) 0x10b-0x10c (1)
     |                                               |                |                  [33]{}: in 0x10c-0x10e (2)
0x100|                                    41         |            A   |                    opcode: "i32.const" (0x41) 0x10c-0x10d (1)
0x100|                                       00      |             .  |                    n: 0 (valid) 0x10d-0x10e (1)
     |                                               |                |                  [34]{}: in 0x10e-0x116 (8)
0x100|                                          04   |              . |                    opcode: "if" (0x4) 0x10e-0x10f (1)
0x100|                                             40|               @|                    bt: "ε" (64) 0x10f-0x110 (1)
     |                                               |                |                    in1[0:2]: 0x110-0x115 (5)
     |                                               |                |                      [0]{}: instr 0x110-0x112 (2)
0x110|41                                             |A               |                        opcode: "i32.const" (0x41) 0x110-0x111 (1)
0x110|   00                                          | .              |                        n: 0 (valid) 0x111-0x112 (1)
     |                                               |                |                      [1]{}: instr 0x112-0x115 (3)
0x110|      11                                       |  .             |                        opcode: "call_indirect" (0x11) 0x112-0x113 (1)
0x110|         00                                    |   .            |                        y: 0 (valid) 0x113-0x114 (1)
0x110|            00                                 |    .           |                        x: 0 (valid) 0x114-0x115 (1)
0x110|               0b                              |     .          |                    end: 0xb (valid) 0x115-0x116 (1)
     |                                               |                |                  [35]{}: in 0x116-0x118 (2)
0x110|                  41                           |      A         |                    opcode: "i32.const" (0x41) 0x116-0x117 (1)
0x110|                     00                        |       .        |                    n: 0 (valid) 0x117-0x118 (1)
     |                                               |                |                  [36]{}: in 0x118-0x126 (14)
0x110|                        04                     |        .       |                    opcode: "if" (0x4) 0x118-0x119 (1)
0x110|                           40                  |         @      |                    bt: "ε" (64) 0x119-0x11a (1)
     |                                               |                |                    in1[0:2]: 0x11a-0x11f (5)
     |                                               |                |                      [0]{}: instr 0x11a-0x11c (2)
0x110|                              41               |          A     |                        opcode: "i32.const" (0x41) 0x11a-0x11b (1)
0x110|                                 00            |           .    |                        n: 0 (valid) 0x11b-0x11c (1)
     |                                               |                |                      [1]{}: instr 0x11c-0x11f (3)
0x110|                                    11         |            .   |                        opcode: "call_indirect" (0x11) 0x11c-0x11d (1)
0x110|                                       00      |             .  |                        y: 0 (valid) 0x11d-0x11e (1)
0x110|                                          00   |              . |                        x: 0 (valid) 0x11e-0x11f (1)
0x110|                                             05|               .|                    else: 0x5 (valid) 0x11f-0x120 (1)
     |                                               |                |                    in2[0:2]: 0x120-0x125 (5)
     |                                               |                |                      [0]{}: instr 0x120-0x122 (2)
0x120|41                                             |A               |                        opcode: "i32.const" (0x41) 0x120-0x121 (1)
0x120|   00                                          | .              |                        n: 0 (valid) 0x121-0x122 (1)
     |                                               |                |                      [1]{}: instr 0x122-0x125 (3)
0x120|      11                                       |  .             |                        opcode: "call_indirect" (0x11) 0x122-0x123 (1)
0x120|         00                                    |   .            |                        y: 0 (valid) 0x123-0x124 (1)
0x120|            00                                 |    .           |                        x: 0 (valid) 0x124-0x125 (1)
0x120|               0b                              |     .          |                    end: 0xb (valid) 0x125-0x126 (1)
     |                                               |                |                  [37]{}: in 0x126-0x12e (8)
0x120|                  02                           |      .         |                    opcode: "block" (0x2) 0x126-0x127 (1)
0x120|                     40                        |       @        |                    bt: "ε" (64) 0x127-0x128 (1)
     |                                               |                |                    instructions[0:2]: 0x128-0x12d (5)
     |                                               |                |                      [0]{}: instr 0x128-0x12a (2)
0x120|                        41                     |        A       |                        opcode: "i32.const" (0x41) 0x128-0x129 (1)
0x120|                           00                  |         .      |                        n: 0 (valid) 0x129-0x12a (1)
     |                                               |                |                      [1]{}: instr 0x12a-0x12d (3)
0x120|                              11               |          .     |                        opcode: "call_indirect" (0x11) 0x12a-0x12b (1)
0x120|                                 00            |           .    |                        y: 0 (valid) 0x12b-0x12c (1)
0x120|                                    00         |            .   |                        x: 0 (valid) 0x12c-0x12d (1)
0x120|                                       0b      |             .  |                    end: 0xb (valid) 0x12d-0x12e (1)
     |                                               |                |                  [38]{}: in 0x12e-0x136 (8)
0x120|                                          03   |              . |                    opcode: "loop" (0x3) 0x12e-0x12f (1)
0x120|                                             40|               @|                    bt: "ε" (64) 0x12f-0x130 (1)
     |                                               |                |                    instructions[0:2]: 0x130-0x135 (5)
     |                                               |                |                      [0]{}: instr 0x130-0x132 (2)
0x130|41                                             |A               |                        opcode: "i32.const" (0x41) 0x130-0x131 (1)
0x130|   00                                          | .              |                        n: 0 (valid) 0x131-0x132 (1)
     |                                               |                |                      [1]{}: instr 0x132-0x135 (3)
0x130|      11                                       |  .             |                        opcode: "call_indirect" (0x11) 0x132-0x133 (1)
0x130|         00                                    |   .            |                        y: 0 (valid) 0x133-0x134 (1)
0x130|            00                                 |    .           |                        x: 0 (valid) 0x134-0x135 (1)
0x130|               0b                              |     .          |                    end: 0xb (valid) 0x135-0x136 (1)
     |                                               |                |                  [39]{}: in 0x136-0x138 (2)
0x130|                  41                           |      A         |                    opcode: "i32.const" (0x41) 0x136-0x137 (1)
0x130|                     00                        |       .        |                    n: 0 (valid) 0x137-0x138 (1)
     |                                               |                |                  [40]{}: in 0x138-0x140 (8)
0x130|                        04                     |        .       |                    opcode: "if" (0x4) 0x138-0x139 (1)
0x130|                           40                  |         @      |                    bt: "ε" (64) 0x139-0x13a (1)
     |                                               |                |                    in1[0:2]: 0x13a-0x13f (5)
     |                                               |                |                      [0]{}: instr 0x13a-0x13c (2)
0x130|                              41               |          A     |                        opcode: "i32.const" (0x41) 0x13a-0x13b (1)
0x130|                                 00            |           .    |                        n: 0 (valid) 0x13b-0x13c (1)
     |                                               |                |                      [1]{}: instr 0x13c-0x13f (3)
0x130|                                    11         |            .   |                        opcode: "call_indirect" (0x11) 0x13c-0x13d (1)
0x130|                                       00      |             .  |                        y: 0 (valid) 0x13d-0x13e (1)
0x130|                                          00   |              . |                        x: 0 (valid) 0x13e-0x13f (1)
0x130|                                             0b|               .|                    end: 0xb (valid) 0x13f-0x140 (1)
     |                                               |                |                  [41]{}: in 0x140-0x142 (2)
0x140|41                                             |A               |                    opcode: "i32.const" (0x41) 0x140-0x141 (1)
0x140|   00                                          | .              |                    n: 0 (valid) 0x141-0x142 (1)
     |                                               |                |                  [42]{}: in 0x142-0x150 (14)
0x140|      04                                       |  .             |                    opcode: "if" (0x4) 0x142-0x143 (1)
0x140|         40                                    |   @            |                    bt: "ε" (64) 0x143-0x144 (1)
     |                                               |                |                    in1[0:2]: 0x144-0x149 (5)
     |                                               |                |                      [0]{}: instr 0x144-0x146 (2)
0x140|            41                                 |    A           |                        opcode: "i32.const" (0x41) 0x144-0x145 (1)
0x140|               00                              |     .          |                        n: 0 (valid) 0x145-0x146 (1)
     |                                               |                |                      [1]{}: instr 0x146-0x149 (3)
0x140|                  11                           |      .         |                        opcode: "call_indirect" (0x11) 0x146-0x147 (1)
0x140|                     00                        |       .        |                        y: 0 (valid) 0x147-0x148 (1)
0x140|                        00                     |        .       |                        x: 0 (valid) 0x148-0x149 (1)
0x140|                           05                  |         .      |                    else: 0x5 (valid) 0x149-0x14a (1)
     |                                               |                |                    in2[0:2]: 0x14a-0x14f (5)
     |                                               |                |                      [0]{}: instr 0x14a-0x14c (2)
0x140|                              41               |          A     |                        opcode: "i32.const" (0x41) 0x14a-0x14b (1)
0x140|                                 00            |           .    |                        n: 0 (valid) 0x14b-0x14c (1)
     |                                               |                |                      [1]{}: instr 0x14c-0x14f (3)
0x140|                                    11         |            .   |                        opcode: "call_indirect" (0x11) 0x14c-0x14d (1)
0x140|                                       00      |             .  |                        y: 0 (valid) 0x14d-0x14e (1)
0x140|                                          00   |              . |                        x: 0 (valid) 0x14e-0x14f (1)
0x140|                                             0b|               .|                    end: 0xb (valid) 0x14f-0x150 (1)
     |                                               |                |                  [43]{}: in 0x150-0x15a (10)
0x150|02                                             |.               |                    opcode: "block" (0x2) 0x150-0x151 (1)
0x150|   40                                          | @              |                    bt: "ε" (64) 0x151-0x152 (1)
     |                                               |                |                    instructions[0:3]: 0x152-0x159 (7)
     |                                               |                |                      [0]{}: instr 0x152-0x154 (2)
0x150|      41                                       |  A             |                        opcode: "i32.const" (0x41) 0x152-0x153 (1)
0x150|         00                                    |   .            |                        n: 0 (valid) 0x153-0x154 (1)
     |                                               |                |                      [1]{}: instr 0x154-0x156 (2)
0x150|            41                                 |    A           |                        opcode: "i32.const" (0x41) 0x154-0x155 (1)
0x150|               00                              |     .          |                        n: 0 (valid) 0x155-0x156 (1)
     |                                               |                |                      [2]{}: instr 0x156-0x159 (3)
0x150|                  11                           |      .         |                        opcode: "call_indirect" (0x11) 0x156-0x157 (1)
0x150|                     01                        |       .        |                        y: 1 (valid) 0x157-0x158 (1)
0x150|                        00                     |        .       |                        x: 0 (valid) 0x158-0x159 (1)
0x150|                           0b                  |         .      |                    end: 0xb (valid) 0x159-0x15a (1)
     |                                               |                |                  [44]{}: in 0x15a-0x164 (10)
0x150|                              03               |          .     |                    opcode: "loop" (0x3) 0x15a-0x15b (1)
0x150|                                 40            |           @    |                    bt: "ε" (64) 0x15b-0x15c (1)
     |                                               |                |                    instructions[0:3]: 0x15c-0x163 (7)
     |                                               |                |                      [0]{}: instr 0x15c-0x15e (2)
0x150|                                    41         |            A   |                        opcode: "i32.const" (0x41) 0x15c-0x15d (1)
0x150|                                       00      |             .  |                        n: 0 (valid) 0x15d-0x15e (1)
     |                                               |                |                      [1]{}: instr 0x15e-0x160 (2)
0x150|                                          41   |              A |                        opcode: "i32.const" (0x41) 0x15e-0x15f (1)
0x150|                                             00|               .|                        n: 0 (valid) 0x15f-0x160 (1)
     |                                               |                |                      [2]{}: instr 0x160-0x163 (3)
0x160|11                                             |.               |                        opcode: "call_indirect" (0x11) 0x160-0x161 (1)
0x160|   01                                          | .              |                        y: 1 (valid) 0x161-0x162 (1)
0x160|      00                                       |  .             |                        x: 0 (valid) 0x162-0x163 (1)
0x160|         0b                                    |   .            |                    end: 0xb (valid) 0x163-0x164 (1)
     |                                               |                |                  [45]{}: in 0x164-0x166 (2)
0x160|            41                                 |    A           |                    opcode: "i32.const" (0x41) 0x164-0x165 (1)
0x160|               00                              |     .          |                    n: 0 (valid) 0x165-0x166 (1)
     |                                               |                |                  [46]{}: in 0x166-0x170 (10)
0x160|                  04                           |      .         |                    opcode: "if" (0x4) 0x166-0x167 (1)
0x160|                     40                        |       @        |                    bt: "ε" (64) 0x167-0x168 (1)
     |                                               |                |                    in1[0:3]: 0x168-0x16f (7)
     |                                               |                |                      [0]{}: instr 0x168-0x16a (2)
0x160|                        41                     |        A       |                        opcode: "i32.const" (0x41) 0x168-0x169 (1)
0x160|                           00                  |         .      |                        n: 0 (valid) 0x169-0x16a (1)
     |                                               |                |                      [1]{}: instr 0x16a-0x16c (2)
0x160|                              41               |          A     |                        opcode: "i32.const" (0x41) 0x16a-0x16b (1)
0x160|                                 00            |           .    |                        n: 0 (valid) 0x16b-0x16c (1)
     |                                               |                |                      [2]{}: instr 0x16c-0x16f (3)
0x160|                                    11         |            .   |                        opcode: "call_indirect" (0x11) 0x16c-0x16d (1)
0x160|                                       01      |             .  |                        y: 1 (valid) 0x16d-0x16e (1)
0x160|                                          00   |              . |                        x: 0 (valid) 0x16e-0x16f (1)
0x160|                                             0b|               .|                    end: 0xb (valid) 0x16f-0x170 (1)
     |                                               |                |                  [47]{}: in 0x170-0x172 (2)
0x170|41                                             |A               |                    opcode: "i32.const" (0x41) 0x170-0x171 (1)
0x170|   00                                          | .              |                    n: 0 (valid) 0x171-0x172 (1)
     |                                               |                |                  [48]{}: in 0x172-0x184 (18)
0x170|      04                                       |  .             |                    opcode: "if" (0x4) 0x172-0x173 (1)
0x170|         40                                    |   @            |                    bt: "ε" (64) 0x173-0x174 (1)
     |                                               |                |                    in1[0:3]: 0x174-0x17b (7)
     |                                               |                |                      [0]{}: instr 0x174-0x176 (2)
0x170|            41                                 |    A           |                        opcode: "i32.const" (0x41) 0x174-0x175 (1)
0x170|               00                              |     .          |                        n: 0 (valid) 0x175-0x176 (1)
     |                                               |                |                      [1]{}: instr 0x176-0x178 (2)
0x170|                  41                           |      A         |                        opcode: "i32.const" (0x41) 0x176-0x177 (1)
0x170|                     00                        |       .        |                        n: 0 (valid) 0x177-0x178 (1)
     |                                               |                |                      [2]{}: instr 0x178-0x17b (3)
0x170|                        11                     |        .       |                        opcode: "call_indirect" (0x11) 0x178-0x179 (1)
0x170|                           01                  |         .      |                        y: 1 (valid) 0x179-0x17a (1)
0x170|                              00               |          .     |                        x: 0 (valid) 0x17a-0x17b (1)
0x170|                                 05            |           .    |                    else: 0x5 (valid) 0x17b-0x17c (1)
     |                                               |                |                    in2[0:3]: 0x17c-0x183 (7)
     |                                               |                |                      [0]{}: instr 0x17c-0x17e (2)
0x170|                                    41         |            A   |                        opcode: "i32.const" (0x41) 0x17c-0x17d (1)
0x170|                                       00      |             .  |                        n: 0 (valid) 0x17d-0x17e (1)
     |                                               |                |                      [1]{}: instr 0x17e-0x180 (2)
0x170|                                          41   |              A |                        opcode: "i32.const" (0x41) 0x17e-0x17f (1)
0x170|                                             00|               .|                        n: 0 (valid) 0x17f-0x180 (1)
     |                                               |                |                      [2]{}: instr 0x180-0x183 (3)
0x180|11                                             |.               |                        opcode: "call_indirect" (0x11) 0x180-0x181 (1)
0x180|   01                                          | .              |                        y: 1 (valid) 0x181-0x182 (1)
0x180|      00                                       |  .             |                        x: 0 (valid) 0x182-0x183 (1)
0x180|         0b                                    |   .            |                    end: 0xb (valid) 0x183-0x184 (1)
     |                                               |                |                  [49]{}: in 0x184-0x18c (8)
0x180|            02                                 |    .           |                    opcode: "block" (0x2) 0x184-0x185 (1)
0x180|               7f                              |     .          |                    bt: "i32" (127) 0x185-0x186 (1)
     |                                               |                |                    instructions[0:2]: 0x186-0x18b (5)
     |                                               |                |                      [0]{}: instr 0x186-0x188 (2)
0x180|                  41                           |      A         |                        opcode: "i32.const" (0x41) 0x186-0x187 (1)
0x180|                     00                        |       .        |                        n: 0 (valid) 0x187-0x188 (1)
     |                                               |                |                      [1]{}: instr 0x188-0x18b (3)
0x180|                        11                     |        .       |                        opcode: "call_indirect" (0x11) 0x188-0x189 (1)
0x180|                           02                  |         .      |                        y: 2 (valid) 0x189-0x18a (1)
0x180|                              00               |          .     |                        x: 0 (valid) 0x18a-0x18b (1)
0x180|                                 0b            |           .    |                    end: 0xb (valid) 0x18b-0x18c (1)
     |                                               |                |                  [50]{}: in 0x18c-0x18d (1)
0x180|                                    1a         |            .   |                    opcode: "drop" (0x1a) 0x18c-0x18d (1)
     |                                               |                |                  [51]{}: in 0x18d-0x195 (8)
0x180|                                       03      |             .  |                    opcode: "loop" (0x3) 0x18d-0x18e (1)
0x180|                                          7f   |              . |                    bt: "i32" (127) 0x18e-0x18f (1)
     |                                               |                |                    instructions[0:2]: 0x18f-0x194 (5)
     |                                               |                |                      [0]{}: instr 0x18f-0x191 (2)
0x180|                                             41|               A|                        opcode: "i32.const" (0x41) 0x18f-0x190 (1)
0x190|00                                             |.               |                        n: 0 (valid) 0x190-0x191 (1)
     |                                               |                |                      [1]{}: instr 0x191-0x194 (3)
0x190|   11                                          | .              |                        opcode: "call_indirect" (0x11) 0x191-0x192 (1)
0x190|      02                                       |  .             |                        y: 2 (valid) 0x192-0x193 (1)
0x190|         00                                    |   .            |                        x: 0 (valid) 0x193-0x194 (1)
0x190|            0b                                 |    .           |                    end: 0xb (valid) 0x194-0x195 (1)
     |                                               |                |                  [52]{}: in 0x195-0x196 (1)
0x190|               1a                              |     .          |                    opcode: "drop" (0x1a) 0x195-0x196 (1)
     |                                               |                |                  [53]{}: in 0x196-0x198 (2)
0x190|                  41                           |      A         |                    opcode: "i32.const" (0x41) 0x196-0x197 (1)
0x190|                     00                        |       .        |                    n: 0 (valid) 0x197-0x198 (1)
     |                                               |                |                  [54]{}: in 0x198-0x1a6 (14)
0x190|                        04                     |        .       |                    opcode: "if" (0x4) 0x198-0x199 (1)
0x190|                           7f                  |         .      |                    bt: "i32" (127) 0x199-0x19a (1)
     |                                               |                |                    in1[0:2]: 0x19a-0x19f (5)
     |                                               |                |                      [0]{}: instr 0x19a-0x19c (2)
0x190|                              41               |          A     |                        opcode: "i32.const" (0x41) 0x19a-0x19b (1)
0x190|                                 00            |           .    |                        n: 0 (valid) 0x19b-0x19c (1)
     |                                               |                |                      [1]{}: instr 0x19c-0x19f (3)
0x190|                                    11         |            .   |                        opcode: "call_indirect" (0x11) 0x19c-0x19d (1)
0x190|                                       02      |             .  |                        y: 2 (valid) 0x19d-0x19e (1)
0x190|                                          00   |              . |                        x: 0 (valid) 0x19e-0x19f (1)
0x190|                                             05|               .|                    else: 0x5 (valid) 0x19f-0x1a0 (1)
     |                                               |                |                    in2[0:2]: 0x1a0-0x1a5 (5)
     |                                               |                |                      [0]{}: instr 0x1a0-0x1a2 (2)
0x1a0|41                                             |A               |                        opcode: "i32.const" (0x41) 0x1a0-0x1a1 (1)
0x1a0|   00                                          | .              |                        n: 0 (valid) 0x1a1-0x1a2 (1)
     |                                               |                |                      [1]{}: instr 0x1a2-0x1a5 (3)
0x1a0|      11                                       |  .             |                        opcode: "call_indirect" (0x11) 0x1a2-0x1a3 (1)
0x1a0|         02                                    |   .            |                        y: 2 (valid) 0x1a3-0x1a4 (1)
0x1a0|            00                                 |    .           |                        x: 0 (valid) 0x1a4-0x1a5 (1)
0x1a0|               0b                              |     .          |                    end: 0xb (valid) 0x1a5-0x1a6 (1)
     |                                               |                |                  [55]{}: in 0x1a6-0x1a7 (1)
0x1a0|                  1a                           |      .         |                    opcode: "drop" (0x1a) 0x1a6-0x1a7 (1)
     |                                               |                |                  [56]{}: in 0x1a7-0x1af (8)
0x1a0|                     02                        |       .        |                    opcode: "block" (0x2) 0x1a7-0x1a8 (1)
0x1a0|                        40                     |        @       |                    bt: "ε" (64) 0x1a8-0x1a9 (1)
     |                                               |                |                    instructions[0:2]: 0x1a9-0x1ae (5)
     |                                               |                |                      [0]{}: instr 0x1a9-0x1ab (2)
0x1a0|                           41                  |         A      |                        opcode: "i32.const" (0x41) 0x1a9-0x1aa (1)
0x1a0|                              00               |          .     |                        n: 0 (valid) 0x1aa-0x1ab (1)
     |                                               |                |                      [1]{}: instr 0x1ab-0x1ae (3)
0x1a0|                                 11            |           .    |                        opcode: "call_indirect" (0x11) 0x1ab-0x1ac (1)
0x1a0|                                    00         |            .   |                        y: 0 (valid) 0x1ac-0x1ad (1)
0x1a0|                                       00      |             .  |                        x: 0 (valid) 0x1ad-0x1ae (1)
0x1a0|                                          0b   |              . |                    end: 0xb (valid) 0x1ae-0x1af (1)
     |                                               |                |                  [57]{}: in 0x1af-0x1b7 (8)
0x1a0|                                             03|               .|                    opcode: "loop" (0x3) 0x1af-0x1b0 (1)
0x1b0|40                                             |@               |                    bt: "ε" (64) 0x1b0-0x1b1 (1)
     |                                               |                |                    instructions[0:2]: 0x1b1-0x1b6 (5)
     |                                               |                |                      [0]{}: instr 0x1b1-0x1b3 (2)
0x1b0|   41                                          | A              |                        opcode: "i32.const" (0x41) 0x1b1-0x1b2 (1)
0x1b0|      00                                       |  .             |                        n: 0 (valid) 0x1b2-0x1b3 (1)
     |                                               |                |                      [1]{}: instr 0x1b3-0x1b6 (3)
0x1b0|         11                                    |   .            |                        opcode: "call_indirect" (0x11) 0x1b3-0x1b4 (1)
0x1b0|            00                                 |    .           |                        y: 0 (valid) 0x1b4-0x1b5 (1)
0x1b0|               00                              |     .          |                        x: 0 (valid) 0x1b5-0x1b6 (1)
0x1b0|                  0b                           |      .         |                    end: 0xb (valid) 0x1b6-0x1b7 (1)
     |                                               |                |                  [58]{}: in 0x1b7-0x1b9 (2)
0x1b0|                     41                        |       A        |                    opcode: "i32.const" (0x41) 0x1b7-0x1b8 (1)
0x1b0|                        00                     |        .       |                    n: 0 (valid) 0x1b8-0x1b9 (1)
     |                                               |                |                  [59]{}: in 0x1b9-0x1c1 (8)
0x1b0|                           04                  |         .      |                    opcode: "if" (0x4) 0x1b9-0x1ba (1)
0x1b0|                              40               |          @     |                    bt: "ε" (64) 0x1ba-0x1bb (1)
     |                                               |                |                    in1[0:2]: 0x1bb-0x1c0 (5)
     |                                               |                |                      [0]{}: instr 0x1bb-0x1bd (2)
0x1b0|                                 41            |           A    |                        opcode: "i32.const" (0x41) 0x1bb-0x1bc (1)
0x1b0|                                    00         |            .   |                        n: 0 (valid) 0x1bc-0x1bd (1)
     |                                               |                |                      [1]{}: instr 0x1bd-0x1c0 (3)
0x1b0|                                       11      |             .  |                        opcode: "call_indirect" (0x11) 0x1bd-0x1be (1)
0x1b0|                                          00   |              . |                        y: 0 (valid) 0x1be-0x1bf (1)
0x1b0|                                             00|               .|                        x: 0 (valid) 0x1bf-0x1c0 (1)
0x1c0|0b                                             |.               |                    end: 0xb (valid) 0x1c0-0x1c1 (1)
     |                                               |                |                  [60]{}: in 0x1c1-0x1c3 (2)
0x1c0|   41                                          | A              |                    opcode: "i32.const" (0x41) 0x1c1-0x1c2 (1)
0x1c0|      00                                       |  .             |                    n: 0 (valid) 0x1c2-0x1c3 (1)
     |                                               |                |                  [61]{}: in 0x1c3-0x1d1 (14)
0x1c0|         04                                    |   .            |                    opcode: "if" (0x4) 0x1c3-0x1c4 (1)
0x1c0|            40                                 |    @           |                    bt: "ε" (64) 0x1c4-0x1c5 (1)
     |                                               |                |                    in1[0:2]: 0x1c5-0x1ca (5)
     |                                               |                |                      [0]{}: instr 0x1c5-0x1c7 (2)
0x1c0|               41                              |     A          |                        opcode: "i32.const" (0x41) 0x1c5-0x1c6 (1)
0x1c0|                  00                           |      .         |                        n: 0 (valid) 0x1c6-0x1c7 (1)
     |                                               |                |                      [1]{}: instr 0x1c7-0x1ca (3)
0x1c0|                     11                        |       .        |                        opcode: "call_indirect" (0x11) 0x1c7-0x1c8 (1)
0x1c0|                        00                     |        .       |                        y: 0 (valid) 0x1c8-0x1c9 (1)
0x1c0|                           00                  |         .      |                        x: 0 (valid) 0x1c9-0x1ca (1)
0x1c0|                              05               |          .     |                    else: 0x5 (valid) 0x1ca-0x1cb (1)
     |                                               |                |                    in2[0:2]: 0x1cb-0x1d0 (5)
     |                                               |                |                      [0]{}: instr 0x1cb-0x1cd (2)
0x1c0|                                 41            |           A    |                        opcode: "i32.const" (0x41) 0x1cb-0x1cc (1)
0x1c0|                                    00         |            .   |                        n: 0 (valid) 0x1cc-0x1cd (1)
     |                                               |                |                      [1]{}: instr 0x1cd-0x1d0 (3)
0x1c0|                                       11      |             .  |                        opcode: "call_indirect" (0x11) 0x1cd-0x1ce (1)
0x1c0|                                          00   |              . |                        y: 0 (valid) 0x1ce-0x1cf (1)
0x1c0|                                             00|               .|                        x: 0 (valid) 0x1cf-0x1d0 (1)
0x1d0|0b                                             |.               |                    end: 0xb (valid) 0x1d0-0x1d1 (1)
     |                                               |                |                  [62]{}: in 0x1d1-0x1d3 (2)
0x1d0|   41                                          | A              |                    opcode: "i32.const" (0x41) 0x1d1-0x1d2 (1)
0x1d0|      00                                       |  .             |                    n: 0 (valid) 0x1d2-0x1d3 (1)
     |                                               |                |                  [63]{}: in 0x1d3-0x1d6 (3)
0x1d0|         11                                    |   .            |                    opcode: "call_indirect" (0x11) 0x1d3-0x1d4 (1)
0x1d0|            00                                 |    .           |                    y: 0 (valid) 0x1d4-0x1d5 (1)
0x1d0|               00                              |     .          |                    x: 0 (valid) 0x1d5-0x1d6 (1)
     |                                               |                |                  [64]{}: in 0x1d6-0x1d7 (1)
0x1d0|                  0b|                          |      .|        |                    opcode: "end" (0xb) 0x1d6-0x1d7 (1)
