$ fq -d wasm dv stack-0.wasm
     |00 01 02 03 04 05 06 07 08 09 0a 0b 0c 0d 0e 0f|0123456789abcdef|.{}: stack-0.wasm (wasm) 0x0-0x195 (405)
0x000|00 61 73 6d                                    |.asm            |  magic: raw bits (valid) 0x0-0x4 (4)
0x000|            01 00 00 00                        |    ....        |  version: 1 0x4-0x8 (4)
     |                                               |                |  sections[0:5]: 0x8-0x195 (397)
     |                                               |                |    [0]{}: section 0x8-0x17 (15)
0x000|                        01                     |        .       |      id: "type_section" (1) 0x8-0x9 (1)
0x000|                           0d                  |         .      |      size: 13 (valid) 0x9-0xa (1)
     |                                               |                |      content{}: 0xa-0x17 (13)
     |                                               |                |        ft{}: 0xa-0x17 (13)
0x000|                              03               |          .     |          n: 3 (valid) 0xa-0xb (1)
     |                                               |                |          x[0:3]: 0xb-0x17 (12)
     |                                               |                |            [0]{}: ft 0xb-0x10 (5)
0x000|                                 60            |           `    |              tag: 0x60 (valid) 0xb-0xc (1)
     |                                               |                |              rt1{}: 0xc-0xe (2)
0x000|                                    01         |            .   |                n: 1 (valid) 0xc-0xd (1)
     |                                               |                |                x[0:1]: 0xd-0xe (1)
0x000|                                       7e      |             ~  |                  [0]: "i64" (0x7e) t 0xd-0xe (1)
     |                                               |                |              rt2{}: 0xe-0x10 (2)
0x000|                                          01   |              . |                n: 1 (valid) 0xe-0xf (1)
     |                                               |                |                x[0:1]: 0xf-0x10 (1)
0x000|                                             7e|               ~|                  [0]: "i64" (0x7e) t 0xf-0x10 (1)
     |                                               |                |            [1]{}: ft 0x10-0x14 (4)
0x010|60                                             |`               |              tag: 0x60 (valid) 0x10-0x11 (1)
     |                                               |                |              rt1{}: 0x11-0x12 (1)
0x010|   00                                          | .              |                n: 0 (valid) 0x11-0x12 (1)
     |                                               |                |                x[0:0]: 0x12-0x12 (0)
     |                                               |                |              rt2{}: 0x12-0x14 (2)
0x010|      01                                       |  .             |                n: 1 (valid) 0x12-0x13 (1)
     |                                               |                |                x[0:1]: 0x13-0x14 (1)
0x010|         7f                                    |   .            |                  [0]: "i32" (0x7f) t 0x13-0x14 (1)
     |                                               |                |            [2]{}: ft 0x14-0x17 (3)
0x010|            60                                 |    `           |              tag: 0x60 (valid) 0x14-0x15 (1)
     |                                               |                |              rt1{}: 0x15-0x16 (1)
0x010|               00                              |     .          |                n: 0 (valid) 0x15-0x16 (1)
     |                                               |                |                x[0:0]: 0x16-0x16 (0)
     |                                               |                |              rt2{}: 0x16-0x17 (1)
0x010|                  00                           |      .         |                n: 0 (valid) 0x16-0x17 (1)
     |                                               |                |                x[0:0]: 0x17-0x17 (0)
     |                                               |                |    [1]{}: section 0x17-0x22 (11)
0x010|                     03                        |       .        |      id: "function_section" (3) 0x17-0x18 (1)
0x010|                        09                     |        .       |      size: 9 (valid) 0x18-0x19 (1)
     |                                               |                |      content{}: 0x19-0x22 (9)
     |                                               |                |        x{}: 0x19-0x22 (9)
0x010|                           08                  |         .      |          n: 8 (valid) 0x19-0x1a (1)
     |                                               |                |          x[0:8]: 0x1a-0x22 (8)
0x010|                              00               |          .     |            [0]: 0 x (valid) 0x1a-0x1b (1)
0x010|                                 00            |           .    |            [1]: 0 x (valid) 0x1b-0x1c (1)
0x010|                                    00         |            .   |            [2]: 0 x (valid) 0x1c-0x1d (1)
0x010|                                       00      |             .  |            [3]: 0 x (valid) 0x1d-0x1e (1)
0x010|                                          00   |              . |            [4]: 0 x (valid) 0x1e-0x1f (1)
0x010|                                             01|               .|            [5]: 1 x (valid) 0x1f-0x20 (1)
0x020|02                                             |.               |            [6]: 2 x (valid) 0x20-0x21 (1)
0x020|   01                                          | .              |            [7]: 1 x (valid) 0x21-0x22 (1)
     |                                               |                |    [2]{}: section 0x22-0x2a (8)
0x020|      06                                       |  .             |      id: "global_section" (6) 0x22-0x23 (1)
0x020|         06                                    |   .            |      size: 6 (valid) 0x23-0x24 (1)
     |                                               |                |      content{}: 0x24-0x2a (6)
     |                                               |                |        glob{}: 0x24-0x2a (6)
0x020|            01                                 |    .           |          n: 1 (valid) 0x24-0x25 (1)
     |                                               |                |          x[0:1]: 0x25-0x2a (5)
     |                                               |                |            [0]{}: glob 0x25-0x2a (5)
     |                                               |                |              gt{}: 0x25-0x27 (2)
0x020|               7f                              |     .          |                t: "i32" (0x7f) 0x25-0x26 (1)
0x020|                  01                           |      .         |                m: "var" (1) 0x26-0x27 (1)
     |                                               |                |              e[0:2]: 0x27-0x2a (3)
     |                                               |                |                [0]{}: in 0x27-0x29 (2)
0x020|                     41                        |       A        |                  opcode: "i32.const" (0x41) 0x27-0x28 (1)
0x020|                        00                     |        .       |                  n: 0 (valid) 0x28-0x29 (1)
     |                                               |                |                [1]{}: in 0x29-0x2a (1)
0x020|                           0b                  |         .      |                  opcode: "end" (0xb) 0x29-0x2a (1)
     |                                               |                |    [3]{}: section 0x2a-0x83 (89)
0x020|                              07               |          .     |      id: "export_section" (7) 0x2a-0x2b (1)
0x020|                                 57            |           W    |      size: 87 (valid) 0x2b-0x2c (1)
     |                                               |                |      content{}: 0x2c-0x83 (87)
     |                                               |                |        ex{}: 0x2c-0x83 (87)
0x020|                                    06         |            .   |          n: 6 (valid) 0x2c-0x2d (1)
     |                                               |                |          x[0:6]: 0x2d-0x83 (86)
     |                                               |                |            [0]{}: ex 0x2d-0x38 (11)
     |                                               |                |              nm{}: 0x2d-0x36 (9)
0x020|                                       08      |             .  |                n: 8 (valid) 0x2d-0x2e (1)
0x020|                                          66 61|              fa|                b: "fac-expr" 0x2e-0x36 (8)
0x030|63 2d 65 78 70 72                              |c-expr          |
     |                                               |                |              d{}: 0x36-0x38 (2)
0x030|                  00                           |      .         |                tag: "funcidx" (0x0) 0x36-0x37 (1)
0x030|                     00                        |       .        |                x: 0 (valid) 0x37-0x38 (1)
     |                                               |                |            [1]{}: ex 0x38-0x44 (12)
     |                                               |                |              nm{}: 0x38-0x42 (10)
0x030|                        09                     |        .       |                n: 9 (valid) 0x38-0x39 (1)
0x030|                           66 61 63 2d 73 74 61|         fac-sta|                b: "fac-stack" 0x39-0x42 (9)
0x040|63 6b                                          |ck              |
     |                                               |                |              d{}: 0x42-0x44 (2)
0x040|      00                                       |  .             |                tag: "funcidx" (0x0) 0x42-0x43 (1)
0x040|         01                                    |   .            |                x: 1 (valid) 0x43-0x44 (1)
     |                                               |                |            [2]{}: ex 0x44-0x54 (16)
     |                                               |                |              nm{}: 0x44-0x52 (14)
0x040|            0d                                 |    .           |                n: 13 (valid) 0x44-0x45 (1)
0x040|               66 61 63 2d 73 74 61 63 6b 2d 72|     fac-stack-r|                b: "fac-stack-raw" 0x45-0x52 (13)
0x050|61 77                                          |aw              |
     |                                               |                |              d{}: 0x52-0x54 (2)
0x050|      00                                       |  .             |                tag: "funcidx" (0x0) 0x52-0x53 (1)
0x050|         02                                    |   .            |                x: 2 (valid) 0x53-0x54 (1)
     |                                               |                |            [3]{}: ex 0x54-0x60 (12)
     |                                               |                |              nm{}: 0x54-0x5e (10)
0x050|            09                                 |    .           |                n: 9 (valid) 0x54-0x55 (1)
0x050|               66 61 63 2d 6d 69 78 65 64      |     fac-mixed  |                b: "fac-mixed" 0x55-0x5e (9)
     |                                               |                |              d{}: 0x5e-0x60 (2)
0x050|                                          00   |              . |                tag: "funcidx" (0x0) 0x5e-0x5f (1)
0x050|                                             03|               .|                x: 3 (valid) 0x5f-0x60 (1)
     |                                               |                |            [4]{}: ex 0x60-0x70 (16)
     |                                               |                |              nm{}: 0x60-0x6e (14)
0x060|0d                                             |.               |                n: 13 (valid) 0x60-0x61 (1)
0x060|   66 61 63 2d 6d 69 78 65 64 2d 72 61 77      | fac-mixed-raw  |                b: "fac-mixed-raw" 0x61-0x6e (13)
     |                                               |                |              d{}: 0x6e-0x70 (2)
0x060|                                          00   |              . |                tag: "funcidx" (0x0) 0x6e-0x6f (1)
0x060|                                             04|               .|                x: 4 (valid) 0x6f-0x70 (1)
     |                                               |                |            [5]{}: ex 0x70-0x83 (19)
     |                                               |                |              nm{}: 0x70-0x81 (17)
0x070|10                                             |.               |                n: 16 (valid) 0x70-0x71 (1)
0x070|   6e 6f 74 2d 71 75 69 74 65 2d 61 2d 74 72 65| not-quite-a-tre|                b: "not-quite-a-tree" 0x71-0x81 (16)
0x080|65                                             |e               |
     |                                               |                |              d{}: 0x81-0x83 (2)
0x080|   00                                          | .              |                tag: "funcidx" (0x0) 0x81-0x82 (1)
0x080|      07                                       |  .             |                x: 7 (valid) 0x82-0x83 (1)
     |                                               |                |    [4]{}: section 0x83-0x195 (274)
0x080|         0a                                    |   .            |      id: "code_section" (10) 0x83-0x84 (1)
0x080|            8f 02                              |    ..          |      size: 271 (valid) 0x84-0x86 (2)
     |                                               |                |      content{}: 0x86-0x195 (271)
     |                                               |                |        code{}: 0x86-0x195 (271)
0x080|                  08                           |      .         |          n: 8 (valid) 0x86-0x87 (1)
     |                                               |                |          x[0:8]: 0x87-0x195 (270)
     |                                               |                |            [0]{}: code 0x87-0xb7 (48)
0x080|                     2f                        |       /        |              size: 47 (valid) 0x87-0x88 (1)
     |                                               |                |              code{}: 0x88-0xb7 (47)
     |                                               |                |                t{}: 0x88-0x8b (3)
0x080|                        01                     |        .       |                  n: 1 (valid) 0x88-0x89 (1)
     |                                               |                |                  x[0:1]: 0x89-0x8b (2)
     |                                               |                |                    [0]{}: t 0x89-0x8b (2)
0x080|                           02                  |         .      |                      n: 2 (valid) 0x89-0x8a (1)
0x080|                              7e               |          ~     |                      t: "i64" (0x7e) 0x8a-0x8b (1)
     |                                               |                |                e[0:7]: 0x8b-0xb7 (44)
     |                                               |                |                  [0]{}: in 0x8b-0x8d (2)
0x080|                                 20            |                |                    opcode: "local.get" (0x20) 0x8b-0x8c (1)
0x080|                                    00         |            .   |                    x: 0 (valid) 0x8c-0x8d (1)
     |                                               |                |                  [1]{}: in 0x8d-0x8f (2)
0x080|                                       21      |             !  |                    opcode: "local.set" (0x21) 0x8d-0x8e (1)
0x080|                                          01   |              . |                    x: 1 (valid) 0x8e-0x8f (1)
     |                                               |                |                  [2]{}: in 0x8f-0x91 (2)
0x080|                                             42|               B|                    opcode: "i64.const" (0x42) 0x8f-0x90 (1)
0x090|01                                             |.               |                    n: 1 0x90-0x91 (1)
     |                                               |                |                  [3]{}: in 0x91-0x93 (2)
0x090|   21                                          | !              |                    opcode: "local.set" (0x21) 0x91-0x92 (1)
0x090|      02                                       |  .             |                    x: 2 (valid) 0x92-0x93 (1)
     |                                               |                |                  [4]{}: in 0x93-0xb4 (33)
0x090|         02                                    |   .            |                    opcode: "block" (0x2) 0x93-0x94 (1)
0x090|            40                                 |    @           |                    bt: "ε" (64) 0x94-0x95 (1)
     |                                               |                |                    instructions[0:1]: 0x95-0xb3 (30)
     |                                               |                |                      [0]{}: instr 0x95-0xb3 (30)
0x090|               03                              |     .          |                        opcode: "loop" (0x3) 0x95-0x96 (1)
0x090|                  40                           |      @         |                        bt: "ε" (64) 0x96-0x97 (1)
     |                                               |                |                        instructions[0:5]: 0x97-0xb2 (27)
     |                                               |                |                          [0]{}: instr 0x97-0x99 (2)
0x090|                     20                        |                |                            opcode: "local.get" (0x20) 0x97-0x98 (1)
0x090|                        01                     |        .       |                            x: 1 (valid) 0x98-0x99 (1)
     |                                               |                |                          [1]{}: instr 0x99-0x9b (2)
0x090|                           42                  |         B      |                            opcode: "i64.const" (0x42) 0x99-0x9a (1)
0x090|                              00               |          .     |                            n: 0 0x9a-0x9b (1)
     |                                               |                |                          [2]{}: instr 0x9b-0x9c (1)
0x090|                                 51            |           Q    |                            opcode: "i64.eq" (0x51) 0x9b-0x9c (1)
     |                                               |                |                          [3]{}: instr 0x9c-0xb0 (20)
0x090|                                    04         |            .   |                            opcode: "if" (0x4) 0x9c-0x9d (1)
0x090|                                       40      |             @  |                            bt: "ε" (64) 0x9d-0x9e (1)
     |                                               |                |                            in1[0:1]: 0x9e-0xa0 (2)
     |                                               |                |                              [0]{}: instr 0x9e-0xa0 (2)
0x090|                                          0c   |              . |                                opcode: "br" (0xc) 0x9e-0x9f (1)
0x090|                                             02|               .|                                l: 2 (valid) 0x9f-0xa0 (1)
0x0a0|05                                             |.               |                            else: 0x5 (valid) 0xa0-0xa1 (1)
     |                                               |                |                            in2[0:8]: 0xa1-0xaf (14)
     |                                               |                |                              [0]{}: instr 0xa1-0xa3 (2)
0x0a0|   20                                          |                |                                opcode: "local.get" (0x20) 0xa1-0xa2 (1)
0x0a0|      01                                       |  .             |                                x: 1 (valid) 0xa2-0xa3 (1)
     |                                               |                |                              [1]{}: instr 0xa3-0xa5 (2)
0x0a0|         20                                    |                |                                opcode: "local.get" (0x20) 0xa3-0xa4 (1)
0x0a0|            02                                 |    .           |                                x: 2 (valid) 0xa4-0xa5 (1)
     |                                               |                |                              [2]{}: instr 0xa5-0xa6 (1)
0x0a0|               7e                              |     ~          |                                opcode: "i64.mul" (0x7e) 0xa5-0xa6 (1)
     |                                               |                |                              [3]{}: instr 0xa6-0xa8 (2)
0x0a0|                  21                           |      !         |                                opcode: "local.set" (0x21) 0xa6-0xa7 (1)
0x0a0|                     02                        |       .        |                                x: 2 (valid) 0xa7-0xa8 (1)
     |                                               |                |                              [4]{}: instr 0xa8-0xaa (2)
0x0a0|                        20                     |                |                                opcode: "local.get" (0x20) 0xa8-0xa9 (1)
0x0a0|                           01                  |         .      |                                x: 1 (valid) 0xa9-0xaa (1)
     |                                               |                |                              [5]{}: instr 0xaa-0xac (2)
0x0a0|                              42               |          B     |                                opcode: "i64.const" (0x42) 0xaa-0xab (1)
0x0a0|                                 01            |           .    |                                n: 1 0xab-0xac (1)
     |                                               |                |                              [6]{}: instr 0xac-0xad (1)
0x0a0|                                    7d         |            }   |                                opcode: "i64.sub" (0x7d) 0xac-0xad (1)
     |                                               |                |                              [7]{}: instr 0xad-0xaf (2)
0x0a0|                                       21      |             !  |                                opcode: "local.set" (0x21) 0xad-0xae (1)
0x0a0|                                          01   |              . |                                x: 1 (valid) 0xae-0xaf (1)
0x0a0|                                             0b|               .|                            end: 0xb (valid) 0xaf-0xb0 (1)
     |                                               |                |                          [4]{}: instr 0xb0-0xb2 (2)
0x0b0|0c                                             |.               |                            opcode: "br" (0xc) 0xb0-0xb1 (1)
0x0b0|   00                                          | .              |                            l: 0 (valid) 0xb1-0xb2 (1)
0x0b0|      0b                                       |  .             |                        end: 0xb (valid) 0xb2-0xb3 (1)
0x0b0|         0b                                    |   .            |                    end: 0xb (valid) 0xb3-0xb4 (1)
     |                                               |                |                  [5]{}: in 0xb4-0xb6 (2)
0x0b0|            20                                 |                |                    opcode: "local.get" (0x20) 0xb4-0xb5 (1)
0x0b0|               02                              |     .          |                    x: 2 (valid) 0xb5-0xb6 (1)
     |                                               |                |                  [6]{}: in 0xb6-0xb7 (1)
0x0b0|                  0b                           |      .         |                    opcode: "end" (0xb) 0xb6-0xb7 (1)
     |                                               |                |            [1]{}: code 0xb7-0xe7 (48)
0x0b0|                     2f                        |       /        |              size: 47 (valid) 0xb7-0xb8 (1)
     |                                               |                |              code{}: 0xb8-0xe7 (47)
     |                                               |                |                t{}: 0xb8-0xbb (3)
0x0b0|                        01                     |        .       |                  n: 1 (valid) 0xb8-0xb9 (1)
     |                                               |                |                  x[0:1]: 0xb9-0xbb (2)
     |                                               |                |                    [0]{}: t 0xb9-0xbb (2)
0x0b0|                           02                  |         .      |                      n: 2 (valid) 0xb9-0xba (1)
0x0b0|                              7e               |          ~     |                      t: "i64" (0x7e) 0xba-0xbb (1)
     |                                               |                |                e[0:7]: 0xbb-0xe7 (44)
     |                                               |                |                  [0]{}: in 0xbb-0xbd (2)
0x0b0|                                 20            |                |                    opcode: "local.get" (0x20) 0xbb-0xbc (1)
0x0b0|                                    00         |            .   |                    x: 0 (valid) 0xbc-0xbd (1)
     |                                               |                |                  [1]{}: in 0xbd-0xbf (2)
0x0b0|                                       21      |             !  |                    opcode: "local.set" (0x21) 0xbd-0xbe (1)
0x0b0|                                          01   |              . |                    x: 1 (valid) 0xbe-0xbf (1)
     |                                               |                |                  [2]{}: in 0xbf-0xc1 (2)
0x0b0|                                             42|               B|                    opcode: "i64.const" (0x42) 0xbf-0xc0 (1)
0x0c0|01                                             |.               |                    n: 1 0xc0-0xc1 (1)
     |                                               |                |                  [3]{}: in 0xc1-0xc3 (2)
0x0c0|   21                                          | !              |                    opcode: "local.set" (0x21) 0xc1-0xc2 (1)
0x0c0|      02                                       |  .             |                    x: 2 (valid) 0xc2-0xc3 (1)
     |                                               |                |                  [4]{}: in 0xc3-0xe4 (33)
0x0c0|         02                                    |   .            |                    opcode: "block" (0x2) 0xc3-0xc4 (1)
0x0c0|            40                                 |    @           |                    bt: "ε" (64) 0xc4-0xc5 (1)
     |                                               |                |                    instructions[0:1]: 0xc5-0xe3 (30)
     |                                               |                |                      [0]{}: instr 0xc5-0xe3 (30)
0x0c0|               03                              |     .          |                        opcode: "loop" (0x3) 0xc5-0xc6 (1)
0x0c0|                  40                           |      @         |                        bt: "ε" (64) 0xc6-0xc7 (1)
     |                                               |                |                        instructions[0:5]: 0xc7-0xe2 (27)
     |                                               |                |                          [0]{}: instr 0xc7-0xc9 (2)
0x0c0|                     20                        |                |                            opcode: "local.get" (0x20) 0xc7-0xc8 (1)
0x0c0|                        01                     |        .       |                            x: 1 (valid) 0xc8-0xc9 (1)
     |                                               |                |                          [1]{}: instr 0xc9-0xcb (2)
0x0c0|                           42                  |         B      |                            opcode: "i64.const" (0x42) 0xc9-0xca (1)
0x0c0|                              00               |          .     |                            n: 0 0xca-0xcb (1)
     |                                               |                |                          [2]{}: instr 0xcb-0xcc (1)
0x0c0|                                 51            |           Q    |                            opcode: "i64.eq" (0x51) 0xcb-0xcc (1)
     |                                               |                |                          [3]{}: instr 0xcc-0xe0 (20)
0x0c0|                                    04         |            .   |                            opcode: "if" (0x4) 0xcc-0xcd (1)
0x0c0|                                       40      |             @  |                            bt: "ε" (64) 0xcd-0xce (1)
     |                                               |                |                            in1[0:1]: 0xce-0xd0 (2)
     |                                               |                |                              [0]{}: instr 0xce-0xd0 (2)
0x0c0|                                          0c   |              . |                                opcode: "br" (0xc) 0xce-0xcf (1)
0x0c0|                                             02|               .|                                l: 2 (valid) 0xcf-0xd0 (1)
0x0d0|05                                             |.               |                            else: 0x5 (valid) 0xd0-0xd1 (1)
     |                                               |                |                            in2[0:8]: 0xd1-0xdf (14)
     |                                               |                |                              [0]{}: instr 0xd1-0xd3 (2)
0x0d0|   20                                          |                |                                opcode: "local.get" (0x20) 0xd1-0xd2 (1)
0x0d0|      01                                       |  .             |                                x: 1 (valid) 0xd2-0xd3 (1)
     |                                               |                |                              [1]{}: instr 0xd3-0xd5 (2)
0x0d0|         20                                    |                |                                opcode: "local.get" (0x20) 0xd3-0xd4 (1)
0x0d0|            02                                 |    .           |                                x: 2 (valid) 0xd4-0xd5 (1)
     |                                               |                |                              [2]{}: instr 0xd5-0xd6 (1)
0x0d0|               7e                              |     ~          |                                opcode: "i64.mul" (0x7e) 0xd5-0xd6 (1)
     |                                               |                |                              [3]{}: instr 0xd6-0xd8 (2)
0x0d0|                  21                           |      !         |                                opcode: "local.set" (0x21) 0xd6-0xd7 (1)
0x0d0|                     02                        |       .        |                                x: 2 (valid) 0xd7-0xd8 (1)
     |                                               |                |                              [4]{}: instr 0xd8-0xda (2)
0x0d0|                        20                     |                |                                opcode: "local.get" (0x20) 0xd8-0xd9 (1)
0x0d0|                           01                  |         .      |                                x: 1 (valid) 0xd9-0xda (1)
     |                                               |                |                              [5]{}: instr 0xda-0xdc (2)
0x0d0|                              42               |          B     |                                opcode: "i64.const" (0x42) 0xda-0xdb (1)
0x0d0|                                 01            |           .    |                                n: 1 0xdb-0xdc (1)
     |                                               |                |                              [6]{}: instr 0xdc-0xdd (1)
0x0d0|                                    7d         |            }   |                                opcode: "i64.sub" (0x7d) 0xdc-0xdd (1)
     |                                               |                |                              [7]{}: instr 0xdd-0xdf (2)
0x0d0|                                       21      |             !  |                                opcode: "local.set" (0x21) 0xdd-0xde (1)
0x0d0|                                          01   |              . |                                x: 1 (valid) 0xde-0xdf (1)
0x0d0|                                             0b|               .|                            end: 0xb (valid) 0xdf-0xe0 (1)
     |                                               |                |                          [4]{}: instr 0xe0-0xe2 (2)
0x0e0|0c                                             |.               |                            opcode: "br" (0xc) 0xe0-0xe1 (1)
0x0e0|   00                                          | .              |                            l: 0 (valid) 0xe1-0xe2 (1)
0x0e0|      0b                                       |  .             |                        end: 0xb (valid) 0xe2-0xe3 (1)
0x0e0|         0b                                    |   .            |                    end: 0xb (valid) 0xe3-0xe4 (1)
     |                                               |                |                  [5]{}: in 0xe4-0xe6 (2)
0x0e0|            20                                 |                |                    opcode: "local.get" (0x20) 0xe4-0xe5 (1)
0x0e0|               02                              |     .          |                    x: 2 (valid) 0xe5-0xe6 (1)
     |                                               |                |                  [6]{}: in 0xe6-0xe7 (1)
0x0e0|                  0b                           |      .         |                    opcode: "end" (0xb) 0xe6-0xe7 (1)
     |                                               |                |            [2]{}: code 0xe7-0x117 (48)
0x0e0|                     2f                        |       /        |              size: 47 (valid) 0xe7-0xe8 (1)
     |                                               |                |              code{}: 0xe8-0x117 (47)
     |                                               |                |                t{}: 0xe8-0xeb (3)
0x0e0|                        01                     |        .       |                  n: 1 (valid) 0xe8-0xe9 (1)
     |                                               |                |                  x[0:1]: 0xe9-0xeb (2)
     |                                               |                |                    [0]{}: t 0xe9-0xeb (2)
0x0e0|                           02                  |         .      |                      n: 2 (valid) 0xe9-0xea (1)
0x0e0|                              7e               |          ~     |                      t: "i64" (0x7e) 0xea-0xeb (1)
     |                                               |                |                e[0:7]: 0xeb-0x117 (44)
     |                                               |                |                  [0]{}: in 0xeb-0xed (2)
0x0e0|                                 20            |                |                    opcode: "local.get" (0x20) 0xeb-0xec (1)
0x0e0|                                    00         |            .   |                    x: 0 (valid) 0xec-0xed (1)
     |                                               |                |                  [1]{}: in 0xed-0xef (2)
0x0e0|                                       21      |             !  |                    opcode: "local.set" (0x21) 0xed-0xee (1)
0x0e0|                                          01   |              . |                    x: 1 (valid) 0xee-0xef (1)
     |                                               |                |                  [2]{}: in 0xef-0xf1 (2)
0x0e0|                                             42|               B|                    opcode: "i64.const" (0x42) 0xef-0xf0 (1)
0x0f0|01                                             |.               |                    n: 1 0xf0-0xf1 (1)
     |                                               |                |                  [3]{}: in 0xf1-0xf3 (2)
0x0f0|   21                                          | !              |                    opcode: "local.set" (0x21) 0xf1-0xf2 (1)
0x0f0|      02                                       |  .             |                    x: 2 (valid) 0xf2-0xf3 (1)
     |                                               |                |                  [4]{}: in 0xf3-0x114 (33)
0x0f0|         02                                    |   .            |                    opcode: "block" (0x2) 0xf3-0xf4 (1)
0x0f0|            40                                 |    @           |                    bt: "ε" (64) 0xf4-0xf5 (1)
     |                                               |                |                    instructions[0:1]: 0xf5-0x113 (30)
     |                                               |                |                      [0]{}: instr 0xf5-0x113 (30)
0x0f0|               03                              |     .          |                        opcode: "loop" (0x3) 0xf5-0xf6 (1)
0x0f0|                  40                           |      @         |                        bt: "ε" (64) 0xf6-0xf7 (1)
     |                                               |                |                        instructions[0:5]: 0xf7-0x112 (27)
     |                                               |                |                          [0]{}: instr 0xf7-0xf9 (2)
0x0f0|                     20                        |                |                            opcode: "local.get" (0x20) 0xf7-0xf8 (1)
0x0f0|                        01                     |        .       |                            x: 1 (valid) 0xf8-0xf9 (1)
     |                                               |                |                          [1]{}: instr 0xf9-0xfb (2)
0x0f0|                           42                  |         B      |                            opcode: "i64.const" (0x42) 0xf9-0xfa (1)
0x0f0|                              00               |          .     |                            n: 0 0xfa-0xfb (1)
     |                                               |                |                          [2]{}: instr 0xfb-0xfc (1)
0x0f0|                                 51            |           Q    |                            opcode: "i64.eq" (0x51) 0xfb-0xfc (1)
     |                                               |                |                          [3]{}: instr 0xfc-0x110 (20)
0x0f0|                                    04         |            .   |                            opcode: "if" (0x4) 0xfc-0xfd (1)
0x0f0|                                       40      |             @  |                            bt: "ε" (64) 0xfd-0xfe (1)
     |                                               |                |                            in1[0:1]: 0xfe-0x100 (2)
     |                                               |                |                              [0]{}: instr 0xfe-0x100 (2)
0x0f0|                                          0c   |              . |                                opcode: "br" (0xc) 0xfe-0xff (1)
0x0f0|                                             02|               .|                                l: 2 (valid) 0xff-0x100 (1)
0x100|05                                             |.               |                            else: 0x5 (valid) 0x100-0x101 (1)
     |                                               |                |                            in2[0:8]: 0x101-0x10f (14)
     |                                               |                |                              [0]{}: instr 0x101-0x103 (2)
0x100|   20                                          |                |                                opcode: "local.get" (0x20) 0x101-0x102 (1)
0x100|      01                                       |  .             |                                x: 1 (valid) 0x102-0x103 (1)
     |                                               |                |                              [1]{}: instr 0x103-0x105 (2)
0x100|         20                                    |                |                                opcode: "local.get" (0x20) 0x103-0x104 (1)
0x100|            02                                 |    .           |                                x: 2 (valid) 0x104-0x105 (1)
     |                                               |                |                              [2]{}: instr 0x105-0x106 (1)
0x100|               7e                              |     ~          |                                opcode: "i64.mul" (0x7e) 0x105-0x106 (1)
     |                                               |                |                              [3]{}: instr 0x106-0x108 (2)
0x100|                  21                           |      !         |                                opcode: "local.set" (0x21) 0x106-0x107 (1)
0x100|                     02                        |       .        |                                x: 2 (valid) 0x107-0x108 (1)
     |                                               |                |                              [4]{}: instr 0x108-0x10a (2)
0x100|                        20                     |                |                                opcode: "local.get" (0x20) 0x108-0x109 (1)
0x100|                           01                  |         .      |                                x: 1 (valid) 0x109-0x10a (1)
     |                                               |                |                              [5]{}: instr 0x10a-0x10c (2)
0x100|                              42               |          B     |                                opcode: "i64.const" (0x42) 0x10a-0x10b (1)
0x100|                                 01            |           .    |                                n: 1 0x10b-0x10c (1)
     |                                               |                |                              [6]{}: instr 0x10c-0x10d (1)
0x100|                                    7d         |            }   |                                opcode: "i64.sub" (0x7d) 0x10c-0x10d (1)
     |                                               |                |                              [7]{}: instr 0x10d-0x10f (2)
0x100|                                       21      |             !  |                                opcode: "local.set" (0x21) 0x10d-0x10e (1)
0x100|                                          01   |              . |                                x: 1 (valid) 0x10e-0x10f (1)
0x100|                                             0b|               .|                            end: 0xb (valid) 0x10f-0x110 (1)
     |                                               |                |                          [4]{}: instr 0x110-0x112 (2)
0x110|0c                                             |.               |                            opcode: "br" (0xc) 0x110-0x111 (1)
0x110|   00                                          | .              |                            l: 0 (valid) 0x111-0x112 (1)
0x110|      0b                                       |  .             |                        end: 0xb (valid) 0x112-0x113 (1)
0x110|         0b                                    |   .            |                    end: 0xb (valid) 0x113-0x114 (1)
     |                                               |                |                  [5]{}: in 0x114-0x116 (2)
0x110|            20                                 |                |                    opcode: "local.get" (0x20) 0x114-0x115 (1)
0x110|               02                              |     .          |                    x: 2 (valid) 0x115-0x116 (1)
     |                                               |                |                  [6]{}: in 0x116-0x117 (1)
0x110|                  0b                           |      .         |                    opcode: "end" (0xb) 0x116-0x117 (1)
     |                                               |                |            [3]{}: code 0x117-0x147 (48)
0x110|                     2f                        |       /        |              size: 47 (valid) 0x117-0x118 (1)
     |                                               |                |              code{}: 0x118-0x147 (47)
     |                                               |                |                t{}: 0x118-0x11b (3)
0x110|                        01                     |        .       |                  n: 1 (valid) 0x118-0x119 (1)
     |                                               |                |                  x[0:1]: 0x119-0x11b (2)
     |                                               |                |                    [0]{}: t 0x119-0x11b (2)
0x110|                           02                  |         .      |                      n: 2 (valid) 0x119-0x11a (1)
0x110|                              7e               |          ~     |                      t: "i64" (0x7e) 0x11a-0x11b (1)
     |                                               |                |                e[0:7]: 0x11b-0x147 (44)
     |                                               |                |                  [0]{}: in 0x11b-0x11d (2)
0x110|                                 20            |                |                    opcode: "local.get" (0x20) 0x11b-0x11c (1)
0x110|                                    00         |            .   |                    x: 0 (valid) 0x11c-0x11d (1)
     |                                               |                |                  [1]{}: in 0x11d-0x11f (2)
0x110|                                       21      |             !  |                    opcode: "local.set" (0x21) 0x11d-0x11e (1)
0x110|                                          01   |              . |                    x: 1 (valid) 0x11e-0x11f (1)
     |                                               |                |                  [2]{}: in 0x11f-0x121 (2)
0x110|                                             42|               B|                    opcode: "i64.const" (0x42) 0x11f-0x120 (1)
0x120|01                                             |.               |                    n: 1 0x120-0x121 (1)
     |                                               |                |                  [3]{}: in 0x121-0x123 (2)
0x120|   21                                          | !              |                    opcode: "local.set" (0x21) 0x121-0x122 (1)
0x120|      02                                       |  .             |                    x: 2 (valid) 0x122-0x123 (1)
     |                                               |                |                  [4]{}: in 0x123-0x144 (33)
0x120|         02                                    |   .            |                    opcode: "block" (0x2) 0x123-0x124 (1)
0x120|            40                                 |    @           |                    bt: "ε" (64) 0x124-0x125 (1)
     |                                               |                |                    instructions[0:1]: 0x125-0x143 (30)
     |                                               |                |                      [0]{}: instr 0x125-0x143 (30)
0x120|               03                              |     .          |                        opcode: "loop" (0x3) 0x125-0x126 (1)
0x120|                  40                           |      @         |                        bt: "ε" (64) 0x126-0x127 (1)
     |                                               |                |                        instructions[0:5]: 0x127-0x142 (27)
     |                                               |                |                          [0]{}: instr 0x127-0x129 (2)
0x120|                     20                        |                |                            opcode: "local.get" (0x20) 0x127-0x128 (1)
0x120|                        01                     |        .       |                            x: 1 (valid) 0x128-0x129 (1)
     |                                               |                |                          [1]{}: instr 0x129-0x12b (2)
0x120|                           42                  |         B      |                            opcode: "i64.const" (0x42) 0x129-0x12a (1)
0x120|                              00               |          .     |                            n: 0 0x12a-0x12b (1)
     |                                               |                |                          [2]{}: instr 0x12b-0x12c (1)
0x120|                                 51            |           Q    |                            opcode: "i64.eq" (0x51) 0x12b-0x12c (1)
     |                                               |                |                          [3]{}: instr 0x12c-0x140 (20)
0x120|                                    04         |            .   |                            opcode: "if" (0x4) 0x12c-0x12d (1)
0x120|                                       40      |             @  |                            bt: "ε" (64) 0x12d-0x12e (1)
     |                                               |                |                            in1[0:1]: 0x12e-0x130 (2)
     |                                               |                |                              [0]{}: instr 0x12e-0x130 (2)
0x120|                                          0c   |              . |                                opcode: "br" (0xc) 0x12e-0x12f (1)
0x120|                                             02|               .|                                l: 2 (valid) 0x12f-0x130 (1)
0x130|05                                             |.               |                            else: 0x5 (valid) 0x130-0x131 (1)
     |                                               |                |                            in2[0:8]: 0x131-0x13f (14)
     |                                               |                |                              [0]{}: instr 0x131-0x133 (2)
0x130|   20                                          |                |                                opcode: "local.get" (0x20) 0x131-0x132 (1)
0x130|      01                                       |  .             |                                x: 1 (valid) 0x132-0x133 (1)
     |                                               |                |                              [1]{}: instr 0x133-0x135 (2)
0x130|         20                                    |                |                                opcode: "local.get" (0x20) 0x133-0x134 (1)
0x130|            02                                 |    .           |                                x: 2 (valid) 0x134-0x135 (1)
     |                                               |                |                              [2]{}: instr 0x135-0x136 (1)
0x130|               7e                              |     ~          |                                opcode: "i64.mul" (0x7e) 0x135-0x136 (1)
     |                                               |                |                              [3]{}: instr 0x136-0x138 (2)
0x130|                  21                           |      !         |                                opcode: "local.set" (0x21) 0x136-0x137 (1)
0x130|                     02                        |       .        |                                x: 2 (valid) 0x137-0x138 (1)
     |                                               |                |                              [4]{}: instr 0x138-0x13a (2)
0x130|                        20                     |                |                                opcode: "local.get" (0x20) 0x138-0x139 (1)
0x130|                           01                  |         .      |                                x: 1 (valid) 0x139-0x13a (1)
     |                                               |                |                              [5]{}: instr 0x13a-0x13c (2)
0x130|                              42               |          B     |                                opcode: "i64.const" (0x42) 0x13a-0x13b (1)
0x130|                                 01            |           .    |                                n: 1 0x13b-0x13c (1)
     |                                               |                |                              [6]{}: instr 0x13c-0x13d (1)
0x130|                                    7d         |            }   |                                opcode: "i64.sub" (0x7d) 0x13c-0x13d (1)
     |                                               |                |                              [7]{}: instr 0x13d-0x13f (2)
0x130|                                       21      |             !  |                                opcode: "local.set" (0x21) 0x13d-0x13e (1)
0x130|                                          01   |              . |                                x: 1 (valid) 0x13e-0x13f (1)
0x130|                                             0b|               .|                            end: 0xb (valid) 0x13f-0x140 (1)
     |                                               |                |                          [4]{}: instr 0x140-0x142 (2)
0x140|0c                                             |.               |                            opcode: "br" (0xc) 0x140-0x141 (1)
0x140|   00                                          | .              |                            l: 0 (valid) 0x141-0x142 (1)
0x140|      0b                                       |  .             |                        end: 0xb (valid) 0x142-0x143 (1)
0x140|         0b                                    |   .            |                    end: 0xb (valid) 0x143-0x144 (1)
     |                                               |                |                  [5]{}: in 0x144-0x146 (2)
0x140|            20                                 |                |                    opcode: "local.get" (0x20) 0x144-0x145 (1)
0x140|               02                              |     .          |                    x: 2 (valid) 0x145-0x146 (1)
     |                                               |                |                  [6]{}: in 0x146-0x147 (1)
0x140|                  0b                           |      .         |                    opcode: "end" (0xb) 0x146-0x147 (1)
     |                                               |                |            [4]{}: code 0x147-0x177 (48)
0x140|                     2f                        |       /        |              size: 47 (valid) 0x147-0x148 (1)
     |                                               |                |              code{}: 0x148-0x177 (47)
     |                                               |                |                t{}: 0x148-0x14b (3)
0x140|                        01                     |        .       |                  n: 1 (valid) 0x148-0x149 (1)
     |                                               |                |                  x[0:1]: 0x149-0x14b (2)
     |                                               |                |                    [0]{}: t 0x149-0x14b (2)
0x140|                           02                  |         .      |                      n: 2 (valid) 0x149-0x14a (1)
0x140|                              7e               |          ~     |                      t: "i64" (0x7e) 0x14a-0x14b (1)
     |                                               |                |                e[0:7]: 0x14b-0x177 (44)
     |                                               |                |                  [0]{}: in 0x14b-0x14d (2)
0x140|                                 20            |                |                    opcode: "local.get" (0x20) 0x14b-0x14c (1)
0x140|                                    00         |            .   |                    x: 0 (valid) 0x14c-0x14d (1)
     |                                               |                |                  [1]{}: in 0x14d-0x14f (2)
0x140|                                       21      |             !  |                    opcode: "local.set" (0x21) 0x14d-0x14e (1)
0x140|                                          01   |              . |                    x: 1 (valid) 0x14e-0x14f (1)
     |                                               |                |                  [2]{}: in 0x14f-0x151 (2)
0x140|                                             42|               B|                    opcode: "i64.const" (0x42) 0x14f-0x150 (1)
0x150|01                                             |.               |                    n: 1 0x150-0x151 (1)
     |                                               |                |                  [3]{}: in 0x151-0x153 (2)
0x150|   21                                          | !              |                    opcode: "local.set" (0x21) 0x151-0x152 (1)
0x150|      02                                       |  .             |                    x: 2 (valid) 0x152-0x153 (1)
     |                                               |                |                  [4]{}: in 0x153-0x174 (33)
0x150|         02                                    |   .            |                    opcode: "block" (0x2) 0x153-0x154 (1)
0x150|            40                                 |    @           |                    bt: "ε" (64) 0x154-0x155 (1)
     |                                               |                |                    instructions[0:1]: 0x155-0x173 (30)
     |                                               |                |                      [0]{}: instr 0x155-0x173 (30)
0x150|               03                              |     .          |                        opcode: "loop" (0x3) 0x155-0x156 (1)
0x150|                  40                           |      @         |                        bt: "ε" (64) 0x156-0x157 (1)
     |                                               |                |                        instructions[0:5]: 0x157-0x172 (27)
     |                                               |                |                          [0]{}: instr 0x157-0x159 (2)
0x150|                     20                        |                |                            opcode: "local.get" (0x20) 0x157-0x158 (1)
0x150|                        01                     |        .       |                            x: 1 (valid) 0x158-0x159 (1)
     |                                               |                |                          [1]{}: instr 0x159-0x15b (2)
0x150|                           42                  |         B      |                            opcode: "i64.const" (0x42) 0x159-0x15a (1)
0x150|                              00               |          .     |                            n: 0 0x15a-0x15b (1)
     |                                               |                |                          [2]{}: instr 0x15b-0x15c (1)
0x150|                                 51            |           Q    |                            opcode: "i64.eq" (0x51) 0x15b-0x15c (1)
     |                                               |                |                          [3]{}: instr 0x15c-0x170 (20)
0x150|                                    04         |            .   |                            opcode: "if" (0x4) 0x15c-0x15d (1)
0x150|                                       40      |             @  |                            bt: "ε" (64) 0x15d-0x15e (1)
     |                                               |                |                            in1[0:1]: 0x15e-0x160 (2)
     |                                               |                |                              [0]{}: instr 0x15e-0x160 (2)
0x150|                                          0c   |              . |                                opcode: "br" (0xc) 0x15e-0x15f (1)
0x150|                                             02|               .|                                l: 2 (valid) 0x15f-0x160 (1)
0x160|05                                             |.               |                            else: 0x5 (valid) 0x160-0x161 (1)
     |                                               |                |                            in2[0:8]: 0x161-0x16f (14)
     |                                               |                |                              [0]{}: instr 0x161-0x163 (2)
0x160|   20                                          |                |                                opcode: "local.get" (0x20) 0x161-0x162 (1)
0x160|      01                                       |  .             |                                x: 1 (valid) 0x162-0x163 (1)
     |                                               |                |                              [1]{}: instr 0x163-0x165 (2)
0x160|         20                                    |                |                                opcode: "local.get" (0x20) 0x163-0x164 (1)
0x160|            02                                 |    .           |                                x: 2 (valid) 0x164-0x165 (1)
     |                                               |                |                              [2]{}: instr 0x165-0x166 (1)
0x160|               7e                              |     ~          |                                opcode: "i64.mul" (0x7e) 0x165-0x166 (1)
     |                                               |                |                              [3]{}: instr 0x166-0x168 (2)
0x160|                  21                           |      !         |                                opcode: "local.set" (0x21) 0x166-0x167 (1)
0x160|                     02                        |       .        |                                x: 2 (valid) 0x167-0x168 (1)
     |                                               |                |                              [4]{}: instr 0x168-0x16a (2)
0x160|                        20                     |                |                                opcode: "local.get" (0x20) 0x168-0x169 (1)
0x160|                           01                  |         .      |                                x: 1 (valid) 0x169-0x16a (1)
     |                                               |                |                              [5]{}: instr 0x16a-0x16c (2)
0x160|                              42               |          B     |                                opcode: "i64.const" (0x42) 0x16a-0x16b (1)
0x160|                                 01            |           .    |                                n: 1 0x16b-0x16c (1)
     |                                               |                |                              [6]{}: instr 0x16c-0x16d (1)
0x160|                                    7d         |            }   |                                opcode: "i64.sub" (0x7d) 0x16c-0x16d (1)
     |                                               |                |                              [7]{}: instr 0x16d-0x16f (2)
0x160|                                       21      |             !  |                                opcode: "local.set" (0x21) 0x16d-0x16e (1)
0x160|                                          01   |              . |                                x: 1 (valid) 0x16e-0x16f (1)
0x160|                                             0b|               .|                            end: 0xb (valid) 0x16f-0x170 (1)
     |                                               |                |                          [4]{}: instr 0x170-0x172 (2)
0x170|0c                                             |.               |                            opcode: "br" (0xc) 0x170-0x171 (1)
0x170|   00                                          | .              |                            l: 0 (valid) 0x171-0x172 (1)
0x170|      0b                                       |  .             |                        end: 0xb (valid) 0x172-0x173 (1)
0x170|         0b                                    |   .            |                    end: 0xb (valid) 0x173-0x174 (1)
     |                                               |                |                  [5]{}: in 0x174-0x176 (2)
0x170|            20                                 |                |                    opcode: "local.get" (0x20) 0x174-0x175 (1)
0x170|               02                              |     .          |                    x: 2 (valid) 0x175-0x176 (1)
     |                                               |                |                  [6]{}: in 0x176-0x177 (1)
0x170|                  0b                           |      .         |                    opcode: "end" (0xb) 0x176-0x177 (1)
     |                                               |                |            [5]{}: code 0x177-0x185 (14)
0x170|                     0d                        |       .        |              size: 13 (valid) 0x177-0x178 (1)
     |                                               |                |              code{}: 0x178-0x185 (13)
     |                                               |                |                t{}: 0x178-0x17b (3)
0x170|                        01                     |        .       |                  n: 1 (valid) 0x178-0x179 (1)
     |                                               |                |                  x[0:1]: 0x179-0x17b (2)
     |                                               |                |                    [0]{}: t 0x179-0x17b (2)
0x170|                           01                  |         .      |                      n: 1 (valid) 0x179-0x17a (1)
0x170|                              7f               |          .     |                      t: "i32" (0x7f) 0x17a-0x17b (1)
     |                                               |                |                e[0:6]: 0x17b-0x185 (10)
     |                                               |                |                  [0]{}: in 0x17b-0x17d (2)
0x170|                                 41            |           A    |                    opcode: "i32.const" (0x41) 0x17b-0x17c (1)
0x170|                                    01         |            .   |                    n: 1 (valid) 0x17c-0x17d (1)
     |                                               |                |                  [1]{}: in 0x17d-0x17f (2)
0x170|                                       23      |             #  |                    opcode: "global.get" (0x23) 0x17d-0x17e (1)
0x170|                                          00   |              . |                    x: 0 (valid) 0x17e-0x17f (1)
     |                                               |                |                  [2]{}: in 0x17f-0x180 (1)
0x170|                                             6a|               j|                    opcode: "i32.add" (0x6a) 0x17f-0x180 (1)
     |                                               |                |                  [3]{}: in 0x180-0x182 (2)
0x180|24                                             |$               |                    opcode: "global.set" (0x24) 0x180-0x181 (1)
0x180|   00                                          | .              |                    x: 0 (valid) 0x181-0x182 (1)
     |                                               |                |                  [4]{}: in 0x182-0x184 (2)
0x180|      23                                       |  #             |                    opcode: "global.get" (0x23) 0x182-0x183 (1)
0x180|         00                                    |   .            |                    x: 0 (valid) 0x183-0x184 (1)
     |                                               |                |                  [5]{}: in 0x184-0x185 (1)
0x180|            0b                                 |    .           |                    opcode: "end" (0xb) 0x184-0x185 (1)
     |                                               |                |            [6]{}: code 0x185-0x18b (6)
0x180|               05                              |     .          |              size: 5 (valid) 0x185-0x186 (1)
     |                                               |                |              code{}: 0x186-0x18b (5)
     |                                               |                |                t{}: 0x186-0x187 (1)
0x180|                  00                           |      .         |                  n: 0 (valid) 0x186-0x187 (1)
     |                                               |                |                  x[0:0]: 0x187-0x187 (0)
     |                                               |                |                e[0:3]: 0x187-0x18b (4)
     |                                               |                |                  [0]{}: in 0x187-0x189 (2)
0x180|                     10                        |       .        |                    opcode: "call" (0x10) 0x187-0x188 (1)
0x180|                        05                     |        .       |                    x: 5 (valid) 0x188-0x189 (1)
     |                                               |                |                  [1]{}: in 0x189-0x18a (1)
0x180|                           1a                  |         .      |                    opcode: "drop" (0x1a) 0x189-0x18a (1)
     |                                               |                |                  [2]{}: in 0x18a-0x18b (1)
0x180|                              0b               |          .     |                    opcode: "end" (0xb) 0x18a-0x18b (1)
     |                                               |                |            [7]{}: code 0x18b-0x195 (10)
0x180|                                 09            |           .    |              size: 9 (valid) 0x18b-0x18c (1)
     |                                               |                |              code{}: 0x18c-0x195 (9)
     |                                               |                |                t{}: 0x18c-0x18d (1)
0x180|                                    00         |            .   |                  n: 0 (valid) 0x18c-0x18d (1)
     |                                               |                |                  x[0:0]: 0x18d-0x18d (0)
     |                                               |                |                e[0:5]: 0x18d-0x195 (8)
     |                                               |                |                  [0]{}: in 0x18d-0x18f (2)
0x180|                                       10      |             .  |                    opcode: "call" (0x10) 0x18d-0x18e (1)
0x180|                                          05   |              . |                    x: 5 (valid) 0x18e-0x18f (1)
     |                                               |                |                  [1]{}: in 0x18f-0x191 (2)
0x180|                                             10|               .|                    opcode: "call" (0x10) 0x18f-0x190 (1)
0x190|05                                             |.               |                    x: 5 (valid) 0x190-0x191 (1)
     |                                               |                |                  [2]{}: in 0x191-0x193 (2)
0x190|   10                                          | .              |                    opcode: "call" (0x10) 0x191-0x192 (1)
0x190|      06                                       |  .             |                    x: 6 (valid) 0x192-0x193 (1)
     |                                               |                |                  [3]{}: in 0x193-0x194 (1)
0x190|         6a                                    |   j            |                    opcode: "i32.add" (0x6a) 0x193-0x194 (1)
     |                                               |                |                  [4]{}: in 0x194-0x195 (1)
0x190|            0b|                                |    .|          |                    opcode: "end" (0xb) 0x194-0x195 (1)
