$ fq -d wasm dv stack-1.wasm
     |00 01 02 03 04 05 06 07 08 09 0a 0b 0c 0d 0e 0f|0123456789abcdef|.{}: stack-1.wasm (wasm) 0x0-0x1d6.7 (471)
0x000|00 61 73 6d                                    |.asm            |  magic: raw bits (valid) 0x0-0x3.7 (4)
0x000|            01 00 00 00                        |    ....        |  version: 1 0x4-0x7.7 (4)
     |                                               |                |  sections[0:4]: 0x8-0x1d6.7 (463)
     |                                               |                |    [0]{}: section 0x8-0x15.7 (14)
0x000|                        01                     |        .       |      id: "type_section" (1) 0x8-0x8.7 (1)
0x000|                           0c                  |         .      |      size: 12 (valid) 0x9-0x9.7 (1)
     |                                               |                |      content{}: 0xa-0x15.7 (12)
     |                                               |                |        ft{}: 0xa-0x15.7 (12)
0x000|                              03               |          .     |          n: 3 (valid) 0xa-0xa.7 (1)
     |                                               |                |          x[0:3]: 0xb-0x15.7 (11)
     |                                               |                |            [0]{}: ft 0xb-0xd.7 (3)
0x000|                                 60            |           `    |              tag: 0x60 (valid) 0xb-0xb.7 (1)
     |                                               |                |              rt1{}: 0xc-0xc.7 (1)
0x000|                                    00         |            .   |                n: 0 (valid) 0xc-0xc.7 (1)
     |                                               |                |                x[0:0]: 0xd-NA (0)
     |                                               |                |              rt2{}: 0xd-0xd.7 (1)
0x000|                                       00      |             .  |                n: 0 (valid) 0xd-0xd.7 (1)
     |                                               |                |                x[0:0]: 0xe-NA (0)
     |                                               |                |            [1]{}: ft 0xe-0x11.7 (4)
0x000|                                          60   |              ` |              tag: 0x60 (valid) 0xe-0xe.7 (1)
     |                                               |                |              rt1{}: 0xf-0x10.7 (2)
0x000|                                             01|               .|                n: 1 (valid) 0xf-0xf.7 (1)
     |                                               |                |                x[0:1]: 0x10-0x10.7 (1)
0x010|7f                                             |.               |                  [0]: "i32" (0x7f) t 0x10-0x10.7 (1)
     |                                               |                |              rt2{}: 0x11-0x11.7 (1)
0x010|   00                                          | .              |                n: 0 (valid) 0x11-0x11.7 (1)
     |                                               |                |                x[0:0]: 0x12-NA (0)
     |                                               |                |            [2]{}: ft 0x12-0x15.7 (4)
0x010|      60                                       |  `             |              tag: 0x60 (valid) 0x12-0x12.7 (1)
     |                                               |                |              rt1{}: 0x13-0x13.7 (1)
0x010|         00                                    |   .            |                n: 0 (valid) 0x13-0x13.7 (1)
     |                                               |                |                x[0:0]: 0x14-NA (0)
     |                                               |                |              rt2{}: 0x14-0x15.7 (2)
0x010|            01                                 |    .           |                n: 1 (valid) 0x14-0x14.7 (1)
     |                                               |                |                x[0:1]: 0x15-0x15.7 (1)
0x010|               7f                              |     .          |                  [0]: "i32" (0x7f) t 0x15-0x15.7 (1)
     |                                               |                |    [1]{}: section 0x16-0x19.7 (4)
0x010|                  03                           |      .         |      id: "function_section" (3) 0x16-0x16.7 (1)
0x010|                     02                        |       .        |      size: 2 (valid) 0x17-0x17.7 (1)
     |                                               |                |      content{}: 0x18-0x19.7 (2)
     |                                               |                |        x{}: 0x18-0x19.7 (2)
0x010|                        01                     |        .       |          n: 1 (valid) 0x18-0x18.7 (1)
     |                                               |                |          x[0:1]: 0x19-0x19.7 (1)
0x010|                           00                  |         .      |            [0]: 0 x (valid) 0x19-0x19.7 (1)
     |                                               |                |    [2]{}: section 0x1a-0x1f.7 (6)
0x010|                              04               |          .     |      id: "table_section" (4) 0x1a-0x1a.7 (1)
0x010|                                 04            |           .    |      size: 4 (valid) 0x1b-0x1b.7 (1)
     |                                               |                |      content{}: 0x1c-0x1f.7 (4)
     |                                               |                |        tab{}: 0x1c-0x1f.7 (4)
0x010|                                    01         |            .   |          n: 1 (valid) 0x1c-0x1c.7 (1)
     |                                               |                |          x[0:1]: 0x1d-0x1f.7 (3)
     |                                               |                |            [0]{}: tab 0x1d-0x1f.7 (3)
0x010|                                       70      |             p  |              et: "funcref" (112) 0x1d-0x1d.7 (1)
     |                                               |                |              lim{}: 0x1e-0x1f.7 (2)
0x010|                                          00   |              . |                tag: 0x0 0x1e-0x1e.7 (1)
0x010|                                             01|               .|                n: 1 (valid) 0x1f-0x1f.7 (1)
     |                                               |                |    [3]{}: section 0x20-0x1d6.7 (439)
0x020|0a                                             |.               |      id: "code_section" (10) 0x20-0x20.7 (1)
0x020|   b4 03                                       | ..             |      size: 436 (valid) 0x21-0x22.7 (2)
     |                                               |                |      content{}: 0x23-0x1d6.7 (436)
     |                                               |                |        code{}: 0x23-0x1d6.7 (436)
0x020|         01                                    |   .            |          n: 1 (valid) 0x23-0x23.7 (1)
     |                                               |                |          x[0:1]: 0x24-0x1d6.7 (435)
     |                                               |                |            [0]{}: code 0x24-0x1d6.7 (435)
0x020|            b1 03                              |    ..          |              size: 433 (valid) 0x24-0x25.7 (2)
     |                                               |                |              code{}: 0x26-0x1d6.7 (433)
     |                                               |                |                t{}: 0x26-0x26.7 (1)
0x020|                  00                           |      .         |                  n: 0 (valid) 0x26-0x26.7 (1)
     |                                               |                |                  x[0:0]: 0x27-NA (0)
     |                                               |                |                e[0:65]: 0x27-0x1d6.7 (432)
     |                                               |                |                  [0]{}: in 0x27-0x2e.7 (8)
0x020|                     02                        |       .        |                    opcode: "block" (0x2) 0x27-0x27.7 (1)
0x020|                        40                     |        @       |                    bt: "ε" (64) 0x28-0x28.7 (1)
     |                                               |                |                    instructions[0:2]: 0x29-0x2d.7 (5)
     |                                               |                |                      [0]{}: instr 0x29-0x2a.7 (2)
0x020|                           41                  |         A      |                        opcode: "i32.const" (0x41) 0x29-0x29.7 (1)
0x020|                              00               |          .     |                        n: 0 (valid) 0x2a-0x2a.7 (1)
     |                                               |                |                      [1]{}: instr 0x2b-0x2d.7 (3)
0x020|                                 11            |           .    |                        opcode: "call_indirect" (0x11) 0x2b-0x2b.7 (1)
0x020|                                    00         |            .   |                        y: 0 (valid) 0x2c-0x2c.7 (1)
0x020|                                       00      |             .  |                        x: 0 (valid) 0x2d-0x2d.7 (1)
0x020|                                          0b   |              . |                    end: 0xb (valid) 0x2e-0x2e.7 (1)
     |                                               |                |                  [1]{}: in 0x2f-0x36.7 (8)
0x020|                                             03|               .|                    opcode: "loop" (0x3) 0x2f-0x2f.7 (1)
0x030|40                                             |@               |                    bt: "ε" (64) 0x30-0x30.7 (1)
     |                                               |                |                    instructions[0:2]: 0x31-0x35.7 (5)
     |                                               |                |                      [0]{}: instr 0x31-0x32.7 (2)
0x030|   41                                          | A              |                        opcode: "i32.const" (0x41) 0x31-0x31.7 (1)
0x030|      00                                       |  .             |                        n: 0 (valid) 0x32-0x32.7 (1)
     |                                               |                |                      [1]{}: instr 0x33-0x35.7 (3)
0x030|         11                                    |   .            |                        opcode: "call_indirect" (0x11) 0x33-0x33.7 (1)
0x030|            00                                 |    .           |                        y: 0 (valid) 0x34-0x34.7 (1)
0x030|               00                              |     .          |                        x: 0 (valid) 0x35-0x35.7 (1)
0x030|                  0b                           |      .         |                    end: 0xb (valid) 0x36-0x36.7 (1)
     |                                               |                |                  [2]{}: in 0x37-0x38.7 (2)
0x030|                     41                        |       A        |                    opcode: "i32.const" (0x41) 0x37-0x37.7 (1)
0x030|                        00                     |        .       |                    n: 0 (valid) 0x38-0x38.7 (1)
     |                                               |                |                  [3]{}: in 0x39-0x40.7 (8)
0x030|                           04                  |         .      |                    opcode: "if" (0x4) 0x39-0x39.7 (1)
0x030|                              40               |          @     |                    bt: "ε" (64) 0x3a-0x3a.7 (1)
     |                                               |                |                    in1[0:2]: 0x3b-0x3f.7 (5)
     |                                               |                |                      [0]{}: instr 0x3b-0x3c.7 (2)
0x030|                                 41            |           A    |                        opcode: "i32.const" (0x41) 0x3b-0x3b.7 (1)
0x030|                                    00         |            .   |                        n: 0 (valid) 0x3c-0x3c.7 (1)
     |                                               |                |                      [1]{}: instr 0x3d-0x3f.7 (3)
0x030|                                       11      |             .  |                        opcode: "call_indirect" (0x11) 0x3d-0x3d.7 (1)
0x030|                                          00   |              . |                        y: 0 (valid) 0x3e-0x3e.7 (1)
0x030|                                             00|               .|                        x: 0 (valid) 0x3f-0x3f.7 (1)
0x040|0b                                             |.               |                    end: 0xb (valid) 0x40-0x40.7 (1)
     |                                               |                |                  [4]{}: in 0x41-0x42.7 (2)
0x040|   41                                          | A              |                    opcode: "i32.const" (0x41) 0x41-0x41.7 (1)
0x040|      00                                       |  .             |                    n: 0 (valid) 0x42-0x42.7 (1)
     |                                               |                |                  [5]{}: in 0x43-0x50.7 (14)
0x040|         04                                    |   .            |                    opcode: "if" (0x4) 0x43-0x43.7 (1)
0x040|            40                                 |    @           |                    bt: "ε" (64) 0x44-0x44.7 (1)
     |                                               |                |                    in1[0:2]: 0x45-0x49.7 (5)
     |                                               |                |                      [0]{}: instr 0x45-0x46.7 (2)
0x040|               41                              |     A          |                        opcode: "i32.const" (0x41) 0x45-0x45.7 (1)
0x040|                  00                           |      .         |                        n: 0 (valid) 0x46-0x46.7 (1)
     |                                               |                |                      [1]{}: instr 0x47-0x49.7 (3)
0x040|                     11                        |       .        |                        opcode: "call_indirect" (0x11) 0x47-0x47.7 (1)
0x040|                        00                     |        .       |                        y: 0 (valid) 0x48-0x48.7 (1)
0x040|                           00                  |         .      |                        x: 0 (valid) 0x49-0x49.7 (1)
0x040|                              05               |          .     |                    else: 0x5 (valid) 0x4a-0x4a.7 (1)
     |                                               |                |                    in2[0:2]: 0x4b-0x4f.7 (5)
     |                                               |                |                      [0]{}: instr 0x4b-0x4c.7 (2)
0x040|                                 41            |           A    |                        opcode: "i32.const" (0x41) 0x4b-0x4b.7 (1)
0x040|                                    00         |            .   |                        n: 0 (valid) 0x4c-0x4c.7 (1)
     |                                               |                |                      [1]{}: instr 0x4d-0x4f.7 (3)
0x040|                                       11      |             .  |                        opcode: "call_indirect" (0x11) 0x4d-0x4d.7 (1)
0x040|                                          00   |              . |                        y: 0 (valid) 0x4e-0x4e.7 (1)
0x040|                                             00|               .|                        x: 0 (valid) 0x4f-0x4f.7 (1)
0x050|0b                                             |.               |                    end: 0xb (valid) 0x50-0x50.7 (1)
     |                                               |                |                  [6]{}: in 0x51-0x58.7 (8)
0x050|   02                                          | .              |                    opcode: "block" (0x2) 0x51-0x51.7 (1)
0x050|      40                                       |  @             |                    bt: "ε" (64) 0x52-0x52.7 (1)
     |                                               |                |                    instructions[0:2]: 0x53-0x57.7 (5)
     |                                               |                |                      [0]{}: instr 0x53-0x54.7 (2)
0x050|         41                                    |   A            |                        opcode: "i32.const" (0x41) 0x53-0x53.7 (1)
0x050|            00                                 |    .           |                        n: 0 (valid) 0x54-0x54.7 (1)
     |                                               |                |                      [1]{}: instr 0x55-0x57.7 (3)
0x050|               11                              |     .          |                        opcode: "call_indirect" (0x11) 0x55-0x55.7 (1)
0x050|                  00                           |      .         |                        y: 0 (valid) 0x56-0x56.7 (1)
0x050|                     00                        |       .        |                        x: 0 (valid) 0x57-0x57.7 (1)
0x050|                        0b                     |        .       |                    end: 0xb (valid) 0x58-0x58.7 (1)
     |                                               |                |                  [7]{}: in 0x59-0x60.7 (8)
0x050|                           03                  |         .      |                    opcode: "loop" (0x3) 0x59-0x59.7 (1)
0x050|                              40               |          @     |                    bt: "ε" (64) 0x5a-0x5a.7 (1)
     |                                               |                |                    instructions[0:2]: 0x5b-0x5f.7 (5)
     |                                               |                |                      [0]{}: instr 0x5b-0x5c.7 (2)
0x050|                                 41            |           A    |                        opcode: "i32.const" (0x41) 0x5b-0x5b.7 (1)
0x050|                                    00         |            .   |                        n: 0 (valid) 0x5c-0x5c.7 (1)
     |                                               |                |                      [1]{}: instr 0x5d-0x5f.7 (3)
0x050|                                       11      |             .  |                        opcode: "call_indirect" (0x11) 0x5d-0x5d.7 (1)
0x050|                                          00   |              . |                        y: 0 (valid) 0x5e-0x5e.7 (1)
0x050|                                             00|               .|                        x: 0 (valid) 0x5f-0x5f.7 (1)
0x060|0b                                             |.               |                    end: 0xb (valid) 0x60-0x60.7 (1)
     |                                               |                |                  [8]{}: in 0x61-0x62.7 (2)
0x060|   41                                          | A              |                    opcode: "i32.const" (0x41) 0x61-0x61.7 (1)
0x060|      00                                       |  .             |                    n: 0 (valid) 0x62-0x62.7 (1)
     |                                               |                |                  [9]{}: in 0x63-0x6a.7 (8)
0x060|         04                                    |   .            |                    opcode: "if" (0x4) 0x63-0x63.7 (1)
0x060|            40                                 |    @           |                    bt: "ε" (64) 0x64-0x64.7 (1)
     |                                               |                |                    in1[0:2]: 0x65-0x69.7 (5)
     |                                               |                |                      [0]{}: instr 0x65-0x66.7 (2)
0x060|               41                              |     A          |                        opcode: "i32.const" (0x41) 0x65-0x65.7 (1)
0x060|                  00                           |      .         |                        n: 0 (valid) 0x66-0x66.7 (1)
     |                                               |                |                      [1]{}: instr 0x67-0x69.7 (3)
0x060|                     11                        |       .        |                        opcode: "call_indirect" (0x11) 0x67-0x67.7 (1)
0x060|                        00                     |        .       |                        y: 0 (valid) 0x68-0x68.7 (1)
0x060|                           00                  |         .      |                        x: 0 (valid) 0x69-0x69.7 (1)
0x060|                              0b               |          .     |                    end: 0xb (valid) 0x6a-0x6a.7 (1)
     |                                               |                |                  [10]{}: in 0x6b-0x6c.7 (2)
0x060|                                 41            |           A    |                    opcode: "i32.const" (0x41) 0x6b-0x6b.7 (1)
0x060|                                    00         |            .   |                    n: 0 (valid) 0x6c-0x6c.7 (1)
     |                                               |                |                  [11]{}: in 0x6d-0x7a.7 (14)
0x060|                                       04      |             .  |                    opcode: "if" (0x4) 0x6d-0x6d.7 (1)
0x060|                                          40   |              @ |                    bt: "ε" (64) 0x6e-0x6e.7 (1)
     |                                               |                |                    in1[0:2]: 0x6f-0x73.7 (5)
     |                                               |                |                      [0]{}: instr 0x6f-0x70.7 (2)
0x060|                                             41|               A|                        opcode: "i32.const" (0x41) 0x6f-0x6f.7 (1)
0x070|00                                             |.               |                        n: 0 (valid) 0x70-0x70.7 (1)
     |                                               |                |                      [1]{}: instr 0x71-0x73.7 (3)
0x070|   11                                          | .              |                        opcode: "call_indirect" (0x11) 0x71-0x71.7 (1)
0x070|      00                                       |  .             |                        y: 0 (valid) 0x72-0x72.7 (1)
0x070|         00                                    |   .            |                        x: 0 (valid) 0x73-0x73.7 (1)
0x070|            05                                 |    .           |                    else: 0x5 (valid) 0x74-0x74.7 (1)
     |                                               |                |                    in2[0:2]: 0x75-0x79.7 (5)
     |                                               |                |                      [0]{}: instr 0x75-0x76.7 (2)
0x070|               41                              |     A          |                        opcode: "i32.const" (0x41) 0x75-0x75.7 (1)
0x070|                  00                           |      .         |                        n: 0 (valid) 0x76-0x76.7 (1)
     |                                               |                |                      [1]{}: instr 0x77-0x79.7 (3)
0x070|                     11                        |       .        |                        opcode: "call_indirect" (0x11) 0x77-0x77.7 (1)
0x070|                        00                     |        .       |                        y: 0 (valid) 0x78-0x78.7 (1)
0x070|                           00                  |         .      |                        x: 0 (valid) 0x79-0x79.7 (1)
0x070|                              0b               |          .     |                    end: 0xb (valid) 0x7a-0x7a.7 (1)
     |                                               |                |                  [12]{}: in 0x7b-0x84.7 (10)
0x070|                                 02            |           .    |                    opcode: "block" (0x2) 0x7b-0x7b.7 (1)
0x070|                                    40         |            @   |                    bt: "ε" (64) 0x7c-0x7c.7 (1)
     |                                               |                |                    instructions[0:3]: 0x7d-0x83.7 (7)
     |                                               |                |                      [0]{}: instr 0x7d-0x7e.7 (2)
0x070|                                       41      |             A  |                        opcode: "i32.const" (0x41) 0x7d-0x7d.7 (1)
0x070|                                          00   |              . |                        n: 0 (valid) 0x7e-0x7e.7 (1)
     |                                               |                |                      [1]{}: instr 0x7f-0x80.7 (2)
0x070|                                             41|               A|                        opcode: "i32.const" (0x41) 0x7f-0x7f.7 (1)
0x080|00                                             |.               |                        n: 0 (valid) 0x80-0x80.7 (1)
     |                                               |                |                      [2]{}: instr 0x81-0x83.7 (3)
0x080|   11                                          | .              |                        opcode: "call_indirect" (0x11) 0x81-0x81.7 (1)
0x080|      01                                       |  .             |                        y: 1 (valid) 0x82-0x82.7 (1)
0x080|         00                                    |   .            |                        x: 0 (valid) 0x83-0x83.7 (1)
0x080|            0b                                 |    .           |                    end: 0xb (valid) 0x84-0x84.7 (1)
     |                                               |                |                  [13]{}: in 0x85-0x8e.7 (10)
0x080|               03                              |     .          |                    opcode: "loop" (0x3) 0x85-0x85.7 (1)
0x080|                  40                           |      @         |                    bt: "ε" (64) 0x86-0x86.7 (1)
     |                                               |                |                    instructions[0:3]: 0x87-0x8d.7 (7)
     |                                               |                |                      [0]{}: instr 0x87-0x88.7 (2)
0x080|                     41                        |       A        |                        opcode: "i32.const" (0x41) 0x87-0x87.7 (1)
0x080|                        00                     |        .       |                        n: 0 (valid) 0x88-0x88.7 (1)
     |                                               |                |                      [1]{}: instr 0x89-0x8a.7 (2)
0x080|                           41                  |         A      |                        opcode: "i32.const" (0x41) 0x89-0x89.7 (1)
0x080|                              00               |          .     |                        n: 0 (valid) 0x8a-0x8a.7 (1)
     |                                               |                |                      [2]{}: instr 0x8b-0x8d.7 (3)
0x080|                                 11            |           .    |                        opcode: "call_indirect" (0x11) 0x8b-0x8b.7 (1)
0x080|                                    01         |            .   |                        y: 1 (valid) 0x8c-0x8c.7 (1)
0x080|                                       00      |             .  |                        x: 0 (valid) 0x8d-0x8d.7 (1)
0x080|                                          0b   |              . |                    end: 0xb (valid) 0x8e-0x8e.7 (1)
     |                                               |                |                  [14]{}: in 0x8f-0x90.7 (2)
0x080|                                             41|               A|                    opcode: "i32.const" (0x41) 0x8f-0x8f.7 (1)
0x090|00                                             |.               |                    n: 0 (valid) 0x90-0x90.7 (1)
     |                                               |                |                  [15]{}: in 0x91-0x9a.7 (10)
0x090|   04                                          | .              |                    opcode: "if" (0x4) 0x91-0x91.7 (1)
0x090|      40                                       |  @             |                    bt: "ε" (64) 0x92-0x92.7 (1)
     |                                               |                |                    in1[0:3]: 0x93-0x99.7 (7)
     |                                               |                |                      [0]{}: instr 0x93-0x94.7 (2)
0x090|         41                                    |   A            |                        opcode: "i32.const" (0x41) 0x93-0x93.7 (1)
0x090|            00                                 |    .           |                        n: 0 (valid) 0x94-0x94.7 (1)
     |                                               |                |                      [1]{}: instr 0x95-0x96.7 (2)
0x090|               41                              |     A          |                        opcode: "i32.const" (0x41) 0x95-0x95.7 (1)
0x090|                  00                           |      .         |                        n: 0 (valid) 0x96-0x96.7 (1)
     |                                               |                |                      [2]{}: instr 0x97-0x99.7 (3)
0x090|                     11                        |       .        |                        opcode: "call_indirect" (0x11) 0x97-0x97.7 (1)
0x090|                        01                     |        .       |                        y: 1 (valid) 0x98-0x98.7 (1)
0x090|                           00                  |         .      |                        x: 0 (valid) 0x99-0x99.7 (1)
0x090|                              0b               |          .     |                    end: 0xb (valid) 0x9a-0x9a.7 (1)
     |                                               |                |                  [16]{}: in 0x9b-0x9c.7 (2)
0x090|                                 41            |           A    |                    opcode: "i32.const" (0x41) 0x9b-0x9b.7 (1)
0x090|                                    00         |            .   |                    n: 0 (valid) 0x9c-0x9c.7 (1)
     |                                               |                |                  [17]{}: in 0x9d-0xae.7 (18)
0x090|                                       04      |             .  |                    opcode: "if" (0x4) 0x9d-0x9d.7 (1)
0x090|                                          40   |              @ |                    bt: "ε" (64) 0x9e-0x9e.7 (1)
     |                                               |                |                    in1[0:3]: 0x9f-0xa5.7 (7)
     |                                               |                |                      [0]{}: instr 0x9f-0xa0.7 (2)
0x090|                                             41|               A|                        opcode: "i32.const" (0x41) 0x9f-0x9f.7 (1)
0x0a0|00                                             |.               |                        n: 0 (valid) 0xa0-0xa0.7 (1)
     |                                               |                |                      [1]{}: instr 0xa1-0xa2.7 (2)
0x0a0|   41                                          | A              |                        opcode: "i32.const" (0x41) 0xa1-0xa1.7 (1)
0x0a0|      00                                       |  .             |                        n: 0 (valid) 0xa2-0xa2.7 (1)
     |                                               |                |                      [2]{}: instr 0xa3-0xa5.7 (3)
0x0a0|         11                                    |   .            |                        opcode: "call_indirect" (0x11) 0xa3-0xa3.7 (1)
0x0a0|            01                                 |    .           |                        y: 1 (valid) 0xa4-0xa4.7 (1)
0x0a0|               00                              |     .          |                        x: 0 (valid) 0xa5-0xa5.7 (1)
0x0a0|                  05                           |      .         |                    else: 0x5 (valid) 0xa6-0xa6.7 (1)
     |                                               |                |                    in2[0:3]: 0xa7-0xad.7 (7)
     |                                               |                |                      [0]{}: instr 0xa7-0xa8.7 (2)
0x0a0|                     41                        |       A        |                        opcode: "i32.const" (0x41) 0xa7-0xa7.7 (1)
0x0a0|                        00                     |        .       |                        n: 0 (valid) 0xa8-0xa8.7 (1)
     |                                               |                |                      [1]{}: instr 0xa9-0xaa.7 (2)
0x0a0|                           41                  |         A      |                        opcode: "i32.const" (0x41) 0xa9-0xa9.7 (1)
0x0a0|                              00               |          .     |                        n: 0 (valid) 0xaa-0xaa.7 (1)
     |                                               |                |                      [2]{}: instr 0xab-0xad.7 (3)
0x0a0|                                 11            |           .    |                        opcode: "call_indirect" (0x11) 0xab-0xab.7 (1)
0x0a0|                                    01         |            .   |                        y: 1 (valid) 0xac-0xac.7 (1)
0x0a0|                                       00      |             .  |                        x: 0 (valid) 0xad-0xad.7 (1)
0x0a0|                                          0b   |              . |                    end: 0xb (valid) 0xae-0xae.7 (1)
     |                                               |                |                  [18]{}: in 0xaf-0xb6.7 (8)
0x0a0|                                             02|               .|                    opcode: "block" (0x2) 0xaf-0xaf.7 (1)
0x0b0|7f                                             |.               |                    bt: "i32" (127) 0xb0-0xb0.7 (1)
     |                                               |                |                    instructions[0:2]: 0xb1-0xb5.7 (5)
     |                                               |                |                      [0]{}: instr 0xb1-0xb2.7 (2)
0x0b0|   41                                          | A              |                        opcode: "i32.const" (0x41) 0xb1-0xb1.7 (1)
0x0b0|      00                                       |  .             |                        n: 0 (valid) 0xb2-0xb2.7 (1)
     |                                               |                |                      [1]{}: instr 0xb3-0xb5.7 (3)
0x0b0|         11                                    |   .            |                        opcode: "call_indirect" (0x11) 0xb3-0xb3.7 (1)
0x0b0|            02                                 |    .           |                        y: 2 (valid) 0xb4-0xb4.7 (1)
0x0b0|               00                              |     .          |                        x: 0 (valid) 0xb5-0xb5.7 (1)
0x0b0|                  0b                           |      .         |                    end: 0xb (valid) 0xb6-0xb6.7 (1)
     |                                               |                |                  [19]{}: in 0xb7-0xb7.7 (1)
0x0b0|                     1a                        |       .        |                    opcode: "drop" (0x1a) 0xb7-0xb7.7 (1)
     |                                               |                |                  [20]{}: in 0xb8-0xbf.7 (8)
0x0b0|                        03                     |        .       |                    opcode: "loop" (0x3) 0xb8-0xb8.7 (1)
0x0b0|                           7f                  |         .      |                    bt: "i32" (127) 0xb9-0xb9.7 (1)
     |                                               |                |                    instructions[0:2]: 0xba-0xbe.7 (5)
     |                                               |                |                      [0]{}: instr 0xba-0xbb.7 (2)
0x0b0|                              41               |          A     |                        opcode: "i32.const" (0x41) 0xba-0xba.7 (1)
0x0b0|                                 00            |           .    |                        n: 0 (valid) 0xbb-0xbb.7 (1)
     |                                               |                |                      [1]{}: instr 0xbc-0xbe.7 (3)
0x0b0|                                    11         |            .   |                        opcode: "call_indirect" (0x11) 0xbc-0xbc.7 (1)
0x0b0|                                       02      |             .  |                        y: 2 (valid) 0xbd-0xbd.7 (1)
0x0b0|                                          00   |              . |                        x: 0 (valid) 0xbe-0xbe.7 (1)
0x0b0|                                             0b|               .|                    end: 0xb (valid) 0xbf-0xbf.7 (1)
     |                                               |                |                  [21]{}: in 0xc0-0xc0.7 (1)
0x0c0|1a                                             |.               |                    opcode: "drop" (0x1a) 0xc0-0xc0.7 (1)
     |                                               |                |                  [22]{}: in 0xc1-0xc2.7 (2)
0x0c0|   41                                          | A              |                    opcode: "i32.const" (0x41) 0xc1-0xc1.7 (1)
0x0c0|      00                                       |  .             |                    n: 0 (valid) 0xc2-0xc2.7 (1)
     |                                               |                |                  [23]{}: in 0xc3-0xd0.7 (14)
0x0c0|         04                                    |   .            |                    opcode: "if" (0x4) 0xc3-0xc3.7 (1)
0x0c0|            7f                                 |    .           |                    bt: "i32" (127) 0xc4-0xc4.7 (1)
     |                                               |                |                    in1[0:2]: 0xc5-0xc9.7 (5)
     |                                               |                |                      [0]{}: instr 0xc5-0xc6.7 (2)
0x0c0|               41                              |     A          |                        opcode: "i32.const" (0x41) 0xc5-0xc5.7 (1)
0x0c0|                  00                           |      .         |                        n: 0 (valid) 0xc6-0xc6.7 (1)
     |                                               |                |                      [1]{}: instr 0xc7-0xc9.7 (3)
0x0c0|                     11                        |       .        |                        opcode: "call_indirect" (0x11) 0xc7-0xc7.7 (1)
0x0c0|                        02                     |        .       |                        y: 2 (valid) 0xc8-0xc8.7 (1)
0x0c0|                           00                  |         .      |                        x: 0 (valid) 0xc9-0xc9.7 (1)
0x0c0|                              05               |          .     |                    else: 0x5 (valid) 0xca-0xca.7 (1)
     |                                               |                |                    in2[0:2]: 0xcb-0xcf.7 (5)
     |                                               |                |                      [0]{}: instr 0xcb-0xcc.7 (2)
0x0c0|                                 41            |           A    |                        opcode: "i32.const" (0x41) 0xcb-0xcb.7 (1)
0x0c0|                                    00         |            .   |                        n: 0 (valid) 0xcc-0xcc.7 (1)
     |                                               |                |                      [1]{}: instr 0xcd-0xcf.7 (3)
0x0c0|                                       11      |             .  |                        opcode: "call_indirect" (0x11) 0xcd-0xcd.7 (1)
0x0c0|                                          02   |              . |                        y: 2 (valid) 0xce-0xce.7 (1)
0x0c0|                                             00|               .|                        x: 0 (valid) 0xcf-0xcf.7 (1)
0x0d0|0b                                             |.               |                    end: 0xb (valid) 0xd0-0xd0.7 (1)
     |                                               |                |                  [24]{}: in 0xd1-0xd1.7 (1)
0x0d0|   1a                                          | .              |                    opcode: "drop" (0x1a) 0xd1-0xd1.7 (1)
     |                                               |                |                  [25]{}: in 0xd2-0xd9.7 (8)
0x0d0|      02                                       |  .             |                    opcode: "block" (0x2) 0xd2-0xd2.7 (1)
0x0d0|         40                                    |   @            |                    bt: "ε" (64) 0xd3-0xd3.7 (1)
     |                                               |                |                    instructions[0:2]: 0xd4-0xd8.7 (5)
     |                                               |                |                      [0]{}: instr 0xd4-0xd5.7 (2)
0x0d0|            41                                 |    A           |                        opcode: "i32.const" (0x41) 0xd4-0xd4.7 (1)
0x0d0|               00                              |     .          |                        n: 0 (valid) 0xd5-0xd5.7 (1)
     |                                               |                |                      [1]{}: instr 0xd6-0xd8.7 (3)
0x0d0|                  11                           |      .         |                        opcode: "call_indirect" (0x11) 0xd6-0xd6.7 (1)
0x0d0|                     00                        |       .        |                        y: 0 (valid) 0xd7-0xd7.7 (1)
0x0d0|                        00                     |        .       |                        x: 0 (valid) 0xd8-0xd8.7 (1)
0x0d0|                           0b                  |         .      |                    end: 0xb (valid) 0xd9-0xd9.7 (1)
     |                                               |                |                  [26]{}: in 0xda-0xe1.7 (8)
0x0d0|                              03               |          .     |                    opcode: "loop" (0x3) 0xda-0xda.7 (1)
0x0d0|                                 40            |           @    |                    bt: "ε" (64) 0xdb-0xdb.7 (1)
     |                                               |                |                    instructions[0:2]: 0xdc-0xe0.7 (5)
     |                                               |                |                      [0]{}: instr 0xdc-0xdd.7 (2)
0x0d0|                                    41         |            A   |                        opcode: "i32.const" (0x41) 0xdc-0xdc.7 (1)
0x0d0|                                       00      |             .  |                        n: 0 (valid) 0xdd-0xdd.7 (1)
     |                                               |                |                      [1]{}: instr 0xde-0xe0.7 (3)
0x0d0|                                          11   |              . |                        opcode: "call_indirect" (0x11) 0xde-0xde.7 (1)
0x0d0|                                             00|               .|                        y: 0 (valid) 0xdf-0xdf.7 (1)
0x0e0|00                                             |.               |                        x: 0 (valid) 0xe0-0xe0.7 (1)
0x0e0|   0b                                          | .              |                    end: 0xb (valid) 0xe1-0xe1.7 (1)
     |                                               |                |                  [27]{}: in 0xe2-0xe3.7 (2)
0x0e0|      41                                       |  A             |                    opcode: "i32.const" (0x41) 0xe2-0xe2.7 (1)
0x0e0|         00                                    |   .            |                    n: 0 (valid) 0xe3-0xe3.7 (1)
     |                                               |                |                  [28]{}: in 0xe4-0xeb.7 (8)
0x0e0|            04                                 |    .           |                    opcode: "if" (0x4) 0xe4-0xe4.7 (1)
0x0e0|               40                              |     @          |                    bt: "ε" (64) 0xe5-0xe5.7 (1)
     |                                               |                |                    in1[0:2]: 0xe6-0xea.7 (5)
     |                                               |                |                      [0]{}: instr 0xe6-0xe7.7 (2)
0x0e0|                  41                           |      A         |                        opcode: "i32.const" (0x41) 0xe6-0xe6.7 (1)
0x0e0|                     00                        |       .        |                        n: 0 (valid) 0xe7-0xe7.7 (1)
     |                                               |                |                      [1]{}: instr 0xe8-0xea.7 (3)
0x0e0|                        11                     |        .       |                        opcode: "call_indirect" (0x11) 0xe8-0xe8.7 (1)
0x0e0|                           00                  |         .      |                        y: 0 (valid) 0xe9-0xe9.7 (1)
0x0e0|                              00               |          .     |                        x: 0 (valid) 0xea-0xea.7 (1)
0x0e0|                                 0b            |           .    |                    end: 0xb (valid) 0xeb-0xeb.7 (1)
     |                                               |                |                  [29]{}: in 0xec-0xed.7 (2)
0x0e0|                                    41         |            A   |                    opcode: "i32.const" (0x41) 0xec-0xec.7 (1)
0x0e0|                                       00      |             .  |                    n: 0 (valid) 0xed-0xed.7 (1)
     |                                               |                |                  [30]{}: in 0xee-0xfb.7 (14)
0x0e0|                                          04   |              . |                    opcode: "if" (0x4) 0xee-0xee.7 (1)
0x0e0|                                             40|               @|                    bt: "ε" (64) 0xef-0xef.7 (1)
     |                                               |                |                    in1[0:2]: 0xf0-0xf4.7 (5)
     |                                               |                |                      [0]{}: instr 0xf0-0xf1.7 (2)
0x0f0|41                                             |A               |                        opcode: "i32.const" (0x41) 0xf0-0xf0.7 (1)
0x0f0|   00                                          | .              |                        n: 0 (valid) 0xf1-0xf1.7 (1)
     |                                               |                |                      [1]{}: instr 0xf2-0xf4.7 (3)
0x0f0|      11                                       |  .             |                        opcode: "call_indirect" (0x11) 0xf2-0xf2.7 (1)
0x0f0|         00                                    |   .            |                        y: 0 (valid) 0xf3-0xf3.7 (1)
0x0f0|            00                                 |    .           |                        x: 0 (valid) 0xf4-0xf4.7 (1)
0x0f0|               05                              |     .          |                    else: 0x5 (valid) 0xf5-0xf5.7 (1)
     |                                               |                |                    in2[0:2]: 0xf6-0xfa.7 (5)
     |                                               |                |                      [0]{}: instr 0xf6-0xf7.7 (2)
0x0f0|                  41                           |      A         |                        opcode: "i32.const" (0x41) 0xf6-0xf6.7 (1)
0x0f0|                     00                        |       .        |                        n: 0 (valid) 0xf7-0xf7.7 (1)
     |                                               |                |                      [1]{}: instr 0xf8-0xfa.7 (3)
0x0f0|                        11                     |        .       |                        opcode: "call_indirect" (0x11) 0xf8-0xf8.7 (1)
0x0f0|                           00                  |         .      |                        y: 0 (valid) 0xf9-0xf9.7 (1)
0x0f0|                              00               |          .     |                        x: 0 (valid) 0xfa-0xfa.7 (1)
0x0f0|                                 0b            |           .    |                    end: 0xb (valid) 0xfb-0xfb.7 (1)
     |                                               |                |                  [31]{}: in 0xfc-0x103.7 (8)
0x0f0|                                    02         |            .   |                    opcode: "block" (0x2) 0xfc-0xfc.7 (1)
0x0f0|                                       40      |             @  |                    bt: "ε" (64) 0xfd-0xfd.7 (1)
     |                                               |                |                    instructions[0:2]: 0xfe-0x102.7 (5)
     |                                               |                |                      [0]{}: instr 0xfe-0xff.7 (2)
0x0f0|                                          41   |              A |                        opcode: "i32.const" (0x41) 0xfe-0xfe.7 (1)
0x0f0|                                             00|               .|                        n: 0 (valid) 0xff-0xff.7 (1)
     |                                               |                |                      [1]{}: instr 0x100-0x102.7 (3)
0x100|11                                             |.               |                        opcode: "call_indirect" (0x11) 0x100-0x100.7 (1)
0x100|   00                                          | .              |                        y: 0 (valid) 0x101-0x101.7 (1)
0x100|      00                                       |  .             |                        x: 0 (valid) 0x102-0x102.7 (1)
0x100|         0b                                    |   .            |                    end: 0xb (valid) 0x103-0x103.7 (1)
     |                                               |                |                  [32]{}: in 0x104-0x10b.7 (8)
0x100|            03                                 |    .           |                    opcode: "loop" (0x3) 0x104-0x104.7 (1)
0x100|               40                              |     @          |                    bt: "ε" (64) 0x105-0x105.7 (1)
     |                                               |                |                    instructions[0:2]: 0x106-0x10a.7 (5)
     |                                               |                |                      [0]{}: instr 0x106-0x107.7 (2)
0x100|                  41                           |      A         |                        opcode: "i32.const" (0x41) 0x106-0x106.7 (1)
0x100|                     00                        |       .        |                        n: 0 (valid) 0x107-0x107.7 (1)
     |                                               |                |                      [1]{}: instr 0x108-0x10a.7 (3)
0x100|                        11                     |        .       |                        opcode: "call_indirect" (0x11) 0x108-0x108.7 (1)
0x100|                           00                  |         .      |                        y: 0 (valid) 0x109-0x109.7 (1)
0x100|                              00               |          .     |                        x: 0 (valid) 0x10a-0x10a.7 (1)
0x100|                                 0b            |           .    |                    end: 0xb (valid) 0x10b-0x10b.7 (1)
     |                                               |                |                  [33]{}: in 0x10c-0x10d.7 (2)
0x100|                                    41         |            A   |                    opcode: "i32.const" (0x41) 0x10c-0x10c.7 (1)
0x100|                                       00      |             .  |                    n: 0 (valid) 0x10d-0x10d.7 (1)
     |                                               |                |                  [34]{}: in 0x10e-0x115.7 (8)
0x100|                                          04   |              . |                    opcode: "if" (0x4) 0x10e-0x10e.7 (1)
0x100|                                             40|               @|                    bt: "ε" (64) 0x10f-0x10f.7 (1)
     |                                               |                |                    in1[0:2]: 0x110-0x114.7 (5)
     |                                               |                |                      [0]{}: instr 0x110-0x111.7 (2)
0x110|41                                             |A               |                        opcode: "i32.const" (0x41) 0x110-0x110.7 (1)
0x110|   00                                          | .              |                        n: 0 (valid) 0x111-0x111.7 (1)
     |                                               |                |                      [1]{}: instr 0x112-0x114.7 (3)
0x110|      11                                       |  .             |                        opcode: "call_indirect" (0x11) 0x112-0x112.7 (1)
0x110|         00                                    |   .            |                        y: 0 (valid) 0x113-0x113.7 (1)
0x110|            00                                 |    .           |                        x: 0 (valid) 0x114-0x114.7 (1)
0x110|               0b                              |     .          |                    end: 0xb (valid) 0x115-0x115.7 (1)
     |                                               |                |                  [35]{}: in 0x116-0x117.7 (2)
0x110|                  41                           |      A         |                    opcode: "i32.const" (0x41) 0x116-0x116.7 (1)
0x110|                     00                        |       .        |                    n: 0 (valid) 0x117-0x117.7 (1)
     |                                               |                |                  [36]{}: in 0x118-0x125.7 (14)
0x110|                        04                     |        .       |                    opcode: "if" (0x4) 0x118-0x118.7 (1)
0x110|                           40                  |         @      |                    bt: "ε" (64) 0x119-0x119.7 (1)
     |                                               |                |                    in1[0:2]: 0x11a-0x11e.7 (5)
     |                                               |                |                      [0]{}: instr 0x11a-0x11b.7 (2)
0x110|                              41               |          A     |                        opcode: "i32.const" (0x41) 0x11a-0x11a.7 (1)
0x110|                                 00            |           .    |                        n: 0 (valid) 0x11b-0x11b.7 (1)
     |                                               |                |                      [1]{}: instr 0x11c-0x11e.7 (3)
0x110|                                    11         |            .   |                        opcode: "call_indirect" (0x11) 0x11c-0x11c.7 (1)
0x110|                                       00      |             .  |                        y: 0 (valid) 0x11d-0x11d.7 (1)
0x110|                                          00   |              . |                        x: 0 (valid) 0x11e-0x11e.7 (1)
0x110|                                             05|               .|                    else: 0x5 (valid) 0x11f-0x11f.7 (1)
     |                                               |                |                    in2[0:2]: 0x120-0x124.7 (5)
     |                                               |                |                      [0]{}: instr 0x120-0x121.7 (2)
0x120|41                                             |A               |                        opcode: "i32.const" (0x41) 0x120-0x120.7 (1)
0x120|   00                                          | .              |                        n: 0 (valid) 0x121-0x121.7 (1)
     |                                               |                |                      [1]{}: instr 0x122-0x124.7 (3)
0x120|      11                                       |  .             |                        opcode: "call_indirect" (0x11) 0x122-0x122.7 (1)
0x120|         00                                    |   .            |                        y: 0 (valid) 0x123-0x123.7 (1)
0x120|            00                                 |    .           |                        x: 0 (valid) 0x124-0x124.7 (1)
0x120|               0b                              |     .          |                    end: 0xb (valid) 0x125-0x125.7 (1)
     |                                               |                |                  [37]{}: in 0x126-0x12d.7 (8)
0x120|                  02                           |      .         |                    opcode: "block" (0x2) 0x126-0x126.7 (1)
0x120|                     40                        |       @        |                    bt: "ε" (64) 0x127-0x127.7 (1)
     |                                               |                |                    instructions[0:2]: 0x128-0x12c.7 (5)
     |                                               |                |                      [0]{}: instr 0x128-0x129.7 (2)
0x120|                        41                     |        A       |                        opcode: "i32.const" (0x41) 0x128-0x128.7 (1)
0x120|                           00                  |         .      |                        n: 0 (valid) 0x129-0x129.7 (1)
     |                                               |                |                      [1]{}: instr 0x12a-0x12c.7 (3)
0x120|                              11               |          .     |                        opcode: "call_indirect" (0x11) 0x12a-0x12a.7 (1)
0x120|                                 00            |           .    |                        y: 0 (valid) 0x12b-0x12b.7 (1)
0x120|                                    00         |            .   |                        x: 0 (valid) 0x12c-0x12c.7 (1)
0x120|                                       0b      |             .  |                    end: 0xb (valid) 0x12d-0x12d.7 (1)
     |                                               |                |                  [38]{}: in 0x12e-0x135.7 (8)
0x120|                                          03   |              . |                    opcode: "loop" (0x3) 0x12e-0x12e.7 (1)
0x120|                                             40|               @|                    bt: "ε" (64) 0x12f-0x12f.7 (1)
     |                                               |                |                    instructions[0:2]: 0x130-0x134.7 (5)
     |                                               |                |                      [0]{}: instr 0x130-0x131.7 (2)
0x130|41                                             |A               |                        opcode: "i32.const" (0x41) 0x130-0x130.7 (1)
0x130|   00                                          | .              |                        n: 0 (valid) 0x131-0x131.7 (1)
     |                                               |                |                      [1]{}: instr 0x132-0x134.7 (3)
0x130|      11                                       |  .             |                        opcode: "call_indirect" (0x11) 0x132-0x132.7 (1)
0x130|         00                                    |   .            |                        y: 0 (valid) 0x133-0x133.7 (1)
0x130|            00                                 |    .           |                        x: 0 (valid) 0x134-0x134.7 (1)
0x130|               0b                              |     .          |                    end: 0xb (valid) 0x135-0x135.7 (1)
     |                                               |                |                  [39]{}: in 0x136-0x137.7 (2)
0x130|                  41                           |      A         |                    opcode: "i32.const" (0x41) 0x136-0x136.7 (1)
0x130|                     00                        |       .        |                    n: 0 (valid) 0x137-0x137.7 (1)
     |                                               |                |                  [40]{}: in 0x138-0x13f.7 (8)
0x130|                        04                     |        .       |                    opcode: "if" (0x4) 0x138-0x138.7 (1)
0x130|                           40                  |         @      |                    bt: "ε" (64) 0x139-0x139.7 (1)
     |                                               |                |                    in1[0:2]: 0x13a-0x13e.7 (5)
     |                                               |                |                      [0]{}: instr 0x13a-0x13b.7 (2)
0x130|                              41               |          A     |                        opcode: "i32.const" (0x41) 0x13a-0x13a.7 (1)
0x130|                                 00            |           .    |                        n: 0 (valid) 0x13b-0x13b.7 (1)
     |                                               |                |                      [1]{}: instr 0x13c-0x13e.7 (3)
0x130|                                    11         |            .   |                        opcode: "call_indirect" (0x11) 0x13c-0x13c.7 (1)
0x130|                                       00      |             .  |                        y: 0 (valid) 0x13d-0x13d.7 (1)
0x130|                                          00   |              . |                        x: 0 (valid) 0x13e-0x13e.7 (1)
0x130|                                             0b|               .|                    end: 0xb (valid) 0x13f-0x13f.7 (1)
     |                                               |                |                  [41]{}: in 0x140-0x141.7 (2)
0x140|41                                             |A               |                    opcode: "i32.const" (0x41) 0x140-0x140.7 (1)
0x140|   00                                          | .              |                    n: 0 (valid) 0x141-0x141.7 (1)
     |                                               |                |                  [42]{}: in 0x142-0x14f.7 (14)
0x140|      04                                       |  .             |                    opcode: "if" (0x4) 0x142-0x142.7 (1)
0x140|         40                                    |   @            |                    bt: "ε" (64) 0x143-0x143.7 (1)
     |                                               |                |                    in1[0:2]: 0x144-0x148.7 (5)
     |                                               |                |                      [0]{}: instr 0x144-0x145.7 (2)
0x140|            41                                 |    A           |                        opcode: "i32.const" (0x41) 0x144-0x144.7 (1)
0x140|               00                              |     .          |                        n: 0 (valid) 0x145-0x145.7 (1)
     |                                               |                |                      [1]{}: instr 0x146-0x148.7 (3)
0x140|                  11                           |      .         |                        opcode: "call_indirect" (0x11) 0x146-0x146.7 (1)
0x140|                     00                        |       .        |                        y: 0 (valid) 0x147-0x147.7 (1)
0x140|                        00                     |        .       |                        x: 0 (valid) 0x148-0x148.7 (1)
0x140|                           05                  |         .      |                    else: 0x5 (valid) 0x149-0x149.7 (1)
     |                                               |                |                    in2[0:2]: 0x14a-0x14e.7 (5)
     |                                               |                |                      [0]{}: instr 0x14a-0x14b.7 (2)
0x140|                              41               |          A     |                        opcode: "i32.const" (0x41) 0x14a-0x14a.7 (1)
0x140|                                 00            |           .    |                        n: 0 (valid) 0x14b-0x14b.7 (1)
     |                                               |                |                      [1]{}: instr 0x14c-0x14e.7 (3)
0x140|                                    11         |            .   |                        opcode: "call_indirect" (0x11) 0x14c-0x14c.7 (1)
0x140|                                       00      |             .  |                        y: 0 (valid) 0x14d-0x14d.7 (1)
0x140|                                          00   |              . |                        x: 0 (valid) 0x14e-0x14e.7 (1)
0x140|                                             0b|               .|                    end: 0xb (valid) 0x14f-0x14f.7 (1)
     |                                               |                |                  [43]{}: in 0x150-0x159.7 (10)
0x150|02                                             |.               |                    opcode: "block" (0x2) 0x150-0x150.7 (1)
0x150|   40                                          | @              |                    bt: "ε" (64) 0x151-0x151.7 (1)
     |                                               |                |                    instructions[0:3]: 0x152-0x158.7 (7)
     |                                               |                |                      [0]{}: instr 0x152-0x153.7 (2)
0x150|      41                                       |  A             |                        opcode: "i32.const" (0x41) 0x152-0x152.7 (1)
0x150|         00                                    |   .            |                        n: 0 (valid) 0x153-0x153.7 (1)
     |                                               |                |                      [1]{}: instr 0x154-0x155.7 (2)
0x150|            41                                 |    A           |                        opcode: "i32.const" (0x41) 0x154-0x154.7 (1)
0x150|               00                              |     .          |                        n: 0 (valid) 0x155-0x155.7 (1)
     |                                               |                |                      [2]{}: instr 0x156-0x158.7 (3)
0x150|                  11                           |      .         |                        opcode: "call_indirect" (0x11) 0x156-0x156.7 (1)
0x150|                     01                        |       .        |                        y: 1 (valid) 0x157-0x157.7 (1)
0x150|                        00                     |        .       |                        x: 0 (valid) 0x158-0x158.7 (1)
0x150|                           0b                  |         .      |                    end: 0xb (valid) 0x159-0x159.7 (1)
     |                                               |                |                  [44]{}: in 0x15a-0x163.7 (10)
0x150|                              03               |          .     |                    opcode: "loop" (0x3) 0x15a-0x15a.7 (1)
0x150|                                 40            |           @    |                    bt: "ε" (64) 0x15b-0x15b.7 (1)
     |                                               |                |                    instructions[0:3]: 0x15c-0x162.7 (7)
     |                                               |                |                      [0]{}: instr 0x15c-0x15d.7 (2)
0x150|                                    41         |            A   |                        opcode: "i32.const" (0x41) 0x15c-0x15c.7 (1)
0x150|                                       00      |             .  |                        n: 0 (valid) 0x15d-0x15d.7 (1)
     |                                               |                |                      [1]{}: instr 0x15e-0x15f.7 (2)
0x150|                                          41   |              A |                        opcode: "i32.const" (0x41) 0x15e-0x15e.7 (1)
0x150|                                             00|               .|                        n: 0 (valid) 0x15f-0x15f.7 (1)
     |                                               |                |                      [2]{}: instr 0x160-0x162.7 (3)
0x160|11                                             |.               |                        opcode: "call_indirect" (0x11) 0x160-0x160.7 (1)
0x160|   01                                          | .              |                        y: 1 (valid) 0x161-0x161.7 (1)
0x160|      00                                       |  .             |                        x: 0 (valid) 0x162-0x162.7 (1)
0x160|         0b                                    |   .            |                    end: 0xb (valid) 0x163-0x163.7 (1)
     |                                               |                |                  [45]{}: in 0x164-0x165.7 (2)
0x160|            41                                 |    A           |                    opcode: "i32.const" (0x41) 0x164-0x164.7 (1)
0x160|               00                              |     .          |                    n: 0 (valid) 0x165-0x165.7 (1)
     |                                               |                |                  [46]{}: in 0x166-0x16f.7 (10)
0x160|                  04                           |      .         |                    opcode: "if" (0x4) 0x166-0x166.7 (1)
0x160|                     40                        |       @        |                    bt: "ε" (64) 0x167-0x167.7 (1)
     |                                               |                |                    in1[0:3]: 0x168-0x16e.7 (7)
     |                                               |                |                      [0]{}: instr 0x168-0x169.7 (2)
0x160|                        41                     |        A       |                        opcode: "i32.const" (0x41) 0x168-0x168.7 (1)
0x160|                           00                  |         .      |                        n: 0 (valid) 0x169-0x169.7 (1)
     |                                               |                |                      [1]{}: instr 0x16a-0x16b.7 (2)
0x160|                              41               |          A     |                        opcode: "i32.const" (0x41) 0x16a-0x16a.7 (1)
0x160|                                 00            |           .    |                        n: 0 (valid) 0x16b-0x16b.7 (1)
     |                                               |                |                      [2]{}: instr 0x16c-0x16e.7 (3)
0x160|                                    11         |            .   |                        opcode: "call_indirect" (0x11) 0x16c-0x16c.7 (1)
0x160|                                       01      |             .  |                        y: 1 (valid) 0x16d-0x16d.7 (1)
0x160|                                          00   |              . |                        x: 0 (valid) 0x16e-0x16e.7 (1)
0x160|                                             0b|               .|                    end: 0xb (valid) 0x16f-0x16f.7 (1)
     |                                               |                |                  [47]{}: in 0x170-0x171.7 (2)
0x170|41                                             |A               |                    opcode: "i32.const" (0x41) 0x170-0x170.7 (1)
0x170|   00                                          | .              |                    n: 0 (valid) 0x171-0x171.7 (1)
     |                                               |                |                  [48]{}: in 0x172-0x183.7 (18)
0x170|      04                                       |  .             |                    opcode: "if" (0x4) 0x172-0x172.7 (1)
0x170|         40                                    |   @            |                    bt: "ε" (64) 0x173-0x173.7 (1)
     |                                               |                |                    in1[0:3]: 0x174-0x17a.7 (7)
     |                                               |                |                      [0]{}: instr 0x174-0x175.7 (2)
0x170|            41                                 |    A           |                        opcode: "i32.const" (0x41) 0x174-0x174.7 (1)
0x170|               00                              |     .          |                        n: 0 (valid) 0x175-0x175.7 (1)
     |                                               |                |                      [1]{}: instr 0x176-0x177.7 (2)
0x170|                  41                           |      A         |                        opcode: "i32.const" (0x41) 0x176-0x176.7 (1)
0x170|                     00                        |       .        |                        n: 0 (valid) 0x177-0x177.7 (1)
     |                                               |                |                      [2]{}: instr 0x178-0x17a.7 (3)
0x170|                        11                     |        .       |                        opcode: "call_indirect" (0x11) 0x178-0x178.7 (1)
0x170|                           01                  |         .      |                        y: 1 (valid) 0x179-0x179.7 (1)
0x170|                              00               |          .     |                        x: 0 (valid) 0x17a-0x17a.7 (1)
0x170|                                 05            |           .    |                    else: 0x5 (valid) 0x17b-0x17b.7 (1)
     |                                               |                |                    in2[0:3]: 0x17c-0x182.7 (7)
     |                                               |                |                      [0]{}: instr 0x17c-0x17d.7 (2)
0x170|                                    41         |            A   |                        opcode: "i32.const" (0x41) 0x17c-0x17c.7 (1)
0x170|                                       00      |             .  |                        n: 0 (valid) 0x17d-0x17d.7 (1)
     |                                               |                |                      [1]{}: instr 0x17e-0x17f.7 (2)
0x170|                                          41   |              A |                        opcode: "i32.const" (0x41) 0x17e-0x17e.7 (1)
0x170|                                             00|               .|                        n: 0 (valid) 0x17f-0x17f.7 (1)
     |                                               |                |                      [2]{}: instr 0x180-0x182.7 (3)
0x180|11                                             |.               |                        opcode: "call_indirect" (0x11) 0x180-0x180.7 (1)
0x180|   01                                          | .              |                        y: 1 (valid) 0x181-0x181.7 (1)
0x180|      00                                       |  .             |                        x: 0 (valid) 0x182-0x182.7 (1)
0x180|         0b                                    |   .            |                    end: 0xb (valid) 0x183-0x183.7 (1)
     |                                               |                |                  [49]{}: in 0x184-0x18b.7 (8)
0x180|            02                                 |    .           |                    opcode: "block" (0x2) 0x184-0x184.7 (1)
0x180|               7f                              |     .          |                    bt: "i32" (127) 0x185-0x185.7 (1)
     |                                               |                |                    instructions[0:2]: 0x186-0x18a.7 (5)
     |                                               |                |                      [0]{}: instr 0x186-0x187.7 (2)
0x180|                  41                           |      A         |                        opcode: "i32.const" (0x41) 0x186-0x186.7 (1)
0x180|                     00                        |       .        |                        n: 0 (valid) 0x187-0x187.7 (1)
     |                                               |                |                      [1]{}: instr 0x188-0x18a.7 (3)
0x180|                        11                     |        .       |                        opcode: "call_indirect" (0x11) 0x188-0x188.7 (1)
0x180|                           02                  |         .      |                        y: 2 (valid) 0x189-0x189.7 (1)
0x180|                              00               |          .     |                        x: 0 (valid) 0x18a-0x18a.7 (1)
0x180|                                 0b            |           .    |                    end: 0xb (valid) 0x18b-0x18b.7 (1)
     |                                               |                |                  [50]{}: in 0x18c-0x18c.7 (1)
0x180|                                    1a         |            .   |                    opcode: "drop" (0x1a) 0x18c-0x18c.7 (1)
     |                                               |                |                  [51]{}: in 0x18d-0x194.7 (8)
0x180|                                       03      |             .  |                    opcode: "loop" (0x3) 0x18d-0x18d.7 (1)
0x180|                                          7f   |              . |                    bt: "i32" (127) 0x18e-0x18e.7 (1)
     |                                               |                |                    instructions[0:2]: 0x18f-0x193.7 (5)
     |                                               |                |                      [0]{}: instr 0x18f-0x190.7 (2)
0x180|                                             41|               A|                        opcode: "i32.const" (0x41) 0x18f-0x18f.7 (1)
0x190|00                                             |.               |                        n: 0 (valid) 0x190-0x190.7 (1)
     |                                               |                |                      [1]{}: instr 0x191-0x193.7 (3)
0x190|   11                                          | .              |                        opcode: "call_indirect" (0x11) 0x191-0x191.7 (1)
0x190|      02                                       |  .             |                        y: 2 (valid) 0x192-0x192.7 (1)
0x190|         00                                    |   .            |                        x: 0 (valid) 0x193-0x193.7 (1)
0x190|            0b                                 |    .           |                    end: 0xb (valid) 0x194-0x194.7 (1)
     |                                               |                |                  [52]{}: in 0x195-0x195.7 (1)
0x190|               1a                              |     .          |                    opcode: "drop" (0x1a) 0x195-0x195.7 (1)
     |                                               |                |                  [53]{}: in 0x196-0x197.7 (2)
0x190|                  41                           |      A         |                    opcode: "i32.const" (0x41) 0x196-0x196.7 (1)
0x190|                     00                        |       .        |                    n: 0 (valid) 0x197-0x197.7 (1)
     |                                               |                |                  [54]{}: in 0x198-0x1a5.7 (14)
0x190|                        04                     |        .       |                    opcode: "if" (0x4) 0x198-0x198.7 (1)
0x190|                           7f                  |         .      |                    bt: "i32" (127) 0x199-0x199.7 (1)
     |                                               |                |                    in1[0:2]: 0x19a-0x19e.7 (5)
     |                                               |                |                      [0]{}: instr 0x19a-0x19b.7 (2)
0x190|                              41               |          A     |                        opcode: "i32.const" (0x41) 0x19a-0x19a.7 (1)
0x190|                                 00            |           .    |                        n: 0 (valid) 0x19b-0x19b.7 (1)
     |                                               |                |                      [1]{}: instr 0x19c-0x19e.7 (3)
0x190|                                    11         |            .   |                        opcode: "call_indirect" (0x11) 0x19c-0x19c.7 (1)
0x190|                                       02      |             .  |                        y: 2 (valid) 0x19d-0x19d.7 (1)
0x190|                                          00   |              . |                        x: 0 (valid) 0x19e-0x19e.7 (1)
0x190|                                             05|               .|                    else: 0x5 (valid) 0x19f-0x19f.7 (1)
     |                                               |                |                    in2[0:2]: 0x1a0-0x1a4.7 (5)
     |                                               |                |                      [0]{}: instr 0x1a0-0x1a1.7 (2)
0x1a0|41                                             |A               |                        opcode: "i32.const" (0x41) 0x1a0-0x1a0.7 (1)
0x1a0|   00                                          | .              |                        n: 0 (valid) 0x1a1-0x1a1.7 (1)
     |                                               |                |                      [1]{}: instr 0x1a2-0x1a4.7 (3)
0x1a0|      11                                       |  .             |                        opcode: "call_indirect" (0x11) 0x1a2-0x1a2.7 (1)
0x1a0|         02                                    |   .            |                        y: 2 (valid) 0x1a3-0x1a3.7 (1)
0x1a0|            00                                 |    .           |                        x: 0 (valid) 0x1a4-0x1a4.7 (1)
0x1a0|               0b                              |     .          |                    end: 0xb (valid) 0x1a5-0x1a5.7 (1)
     |                                               |                |                  [55]{}: in 0x1a6-0x1a6.7 (1)
0x1a0|                  1a                           |      .         |                    opcode: "drop" (0x1a) 0x1a6-0x1a6.7 (1)
     |                                               |                |                  [56]{}: in 0x1a7-0x1ae.7 (8)
0x1a0|                     02                        |       .        |                    opcode: "block" (0x2) 0x1a7-0x1a7.7 (1)
0x1a0|                        40                     |        @       |                    bt: "ε" (64) 0x1a8-0x1a8.7 (1)
     |                                               |                |                    instructions[0:2]: 0x1a9-0x1ad.7 (5)
     |                                               |                |                      [0]{}: instr 0x1a9-0x1aa.7 (2)
0x1a0|                           41                  |         A      |                        opcode: "i32.const" (0x41) 0x1a9-0x1a9.7 (1)
0x1a0|                              00               |          .     |                        n: 0 (valid) 0x1aa-0x1aa.7 (1)
     |                                               |                |                      [1]{}: instr 0x1ab-0x1ad.7 (3)
0x1a0|                                 11            |           .    |                        opcode: "call_indirect" (0x11) 0x1ab-0x1ab.7 (1)
0x1a0|                                    00         |            .   |                        y: 0 (valid) 0x1ac-0x1ac.7 (1)
0x1a0|                                       00      |             .  |                        x: 0 (valid) 0x1ad-0x1ad.7 (1)
0x1a0|                                          0b   |              . |                    end: 0xb (valid) 0x1ae-0x1ae.7 (1)
     |                                               |                |                  [57]{}: in 0x1af-0x1b6.7 (8)
0x1a0|                                             03|               .|                    opcode: "loop" (0x3) 0x1af-0x1af.7 (1)
0x1b0|40                                             |@               |                    bt: "ε" (64) 0x1b0-0x1b0.7 (1)
     |                                               |                |                    instructions[0:2]: 0x1b1-0x1b5.7 (5)
     |                                               |                |                      [0]{}: instr 0x1b1-0x1b2.7 (2)
0x1b0|   41                                          | A              |                        opcode: "i32.const" (0x41) 0x1b1-0x1b1.7 (1)
0x1b0|      00                                       |  .             |                        n: 0 (valid) 0x1b2-0x1b2.7 (1)
     |                                               |                |                      [1]{}: instr 0x1b3-0x1b5.7 (3)
0x1b0|         11                                    |   .            |                        opcode: "call_indirect" (0x11) 0x1b3-0x1b3.7 (1)
0x1b0|            00                                 |    .           |                        y: 0 (valid) 0x1b4-0x1b4.7 (1)
0x1b0|               00                              |     .          |                        x: 0 (valid) 0x1b5-0x1b5.7 (1)
0x1b0|                  0b                           |      .         |                    end: 0xb (valid) 0x1b6-0x1b6.7 (1)
     |                                               |                |                  [58]{}: in 0x1b7-0x1b8.7 (2)
0x1b0|                     41                        |       A        |                    opcode: "i32.const" (0x41) 0x1b7-0x1b7.7 (1)
0x1b0|                        00                     |        .       |                    n: 0 (valid) 0x1b8-0x1b8.7 (1)
     |                                               |                |                  [59]{}: in 0x1b9-0x1c0.7 (8)
0x1b0|                           04                  |         .      |                    opcode: "if" (0x4) 0x1b9-0x1b9.7 (1)
0x1b0|                              40               |          @     |                    bt: "ε" (64) 0x1ba-0x1ba.7 (1)
     |                                               |                |                    in1[0:2]: 0x1bb-0x1bf.7 (5)
     |                                               |                |                      [0]{}: instr 0x1bb-0x1bc.7 (2)
0x1b0|                                 41            |           A    |                        opcode: "i32.const" (0x41) 0x1bb-0x1bb.7 (1)
0x1b0|                                    00         |            .   |                        n: 0 (valid) 0x1bc-0x1bc.7 (1)
     |                                               |                |                      [1]{}: instr 0x1bd-0x1bf.7 (3)
0x1b0|                                       11      |             .  |                        opcode: "call_indirect" (0x11) 0x1bd-0x1bd.7 (1)
0x1b0|                                          00   |              . |                        y: 0 (valid) 0x1be-0x1be.7 (1)
0x1b0|                                             00|               .|                        x: 0 (valid) 0x1bf-0x1bf.7 (1)
0x1c0|0b                                             |.               |                    end: 0xb (valid) 0x1c0-0x1c0.7 (1)
     |                                               |                |                  [60]{}: in 0x1c1-0x1c2.7 (2)
0x1c0|   41                                          | A              |                    opcode: "i32.const" (0x41) 0x1c1-0x1c1.7 (1)
0x1c0|      00                                       |  .             |                    n: 0 (valid) 0x1c2-0x1c2.7 (1)
     |                                               |                |                  [61]{}: in 0x1c3-0x1d0.7 (14)
0x1c0|         04                                    |   .            |                    opcode: "if" (0x4) 0x1c3-0x1c3.7 (1)
0x1c0|            40                                 |    @           |                    bt: "ε" (64) 0x1c4-0x1c4.7 (1)
     |                                               |                |                    in1[0:2]: 0x1c5-0x1c9.7 (5)
     |                                               |                |                      [0]{}: instr 0x1c5-0x1c6.7 (2)
0x1c0|               41                              |     A          |                        opcode: "i32.const" (0x41) 0x1c5-0x1c5.7 (1)
0x1c0|                  00                           |      .         |                        n: 0 (valid) 0x1c6-0x1c6.7 (1)
     |                                               |                |                      [1]{}: instr 0x1c7-0x1c9.7 (3)
0x1c0|                     11                        |       .        |                        opcode: "call_indirect" (0x11) 0x1c7-0x1c7.7 (1)
0x1c0|                        00                     |        .       |                        y: 0 (valid) 0x1c8-0x1c8.7 (1)
0x1c0|                           00                  |         .      |                        x: 0 (valid) 0x1c9-0x1c9.7 (1)
0x1c0|                              05               |          .     |                    else: 0x5 (valid) 0x1ca-0x1ca.7 (1)
     |                                               |                |                    in2[0:2]: 0x1cb-0x1cf.7 (5)
     |                                               |                |                      [0]{}: instr 0x1cb-0x1cc.7 (2)
0x1c0|                                 41            |           A    |                        opcode: "i32.const" (0x41) 0x1cb-0x1cb.7 (1)
0x1c0|                                    00         |            .   |                        n: 0 (valid) 0x1cc-0x1cc.7 (1)
     |                                               |                |                      [1]{}: instr 0x1cd-0x1cf.7 (3)
0x1c0|                                       11      |             .  |                        opcode: "call_indirect" (0x11) 0x1cd-0x1cd.7 (1)
0x1c0|                                          00   |              . |                        y: 0 (valid) 0x1ce-0x1ce.7 (1)
0x1c0|                                             00|               .|                        x: 0 (valid) 0x1cf-0x1cf.7 (1)
0x1d0|0b                                             |.               |                    end: 0xb (valid) 0x1d0-0x1d0.7 (1)
     |                                               |                |                  [62]{}: in 0x1d1-0x1d2.7 (2)
0x1d0|   41                                          | A              |                    opcode: "i32.const" (0x41) 0x1d1-0x1d1.7 (1)
0x1d0|      00                                       |  .             |                    n: 0 (valid) 0x1d2-0x1d2.7 (1)
     |                                               |                |                  [63]{}: in 0x1d3-0x1d5.7 (3)
0x1d0|         11                                    |   .            |                    opcode: "call_indirect" (0x11) 0x1d3-0x1d3.7 (1)
0x1d0|            00                                 |    .           |                    y: 0 (valid) 0x1d4-0x1d4.7 (1)
0x1d0|               00                              |     .          |                    x: 0 (valid) 0x1d5-0x1d5.7 (1)
     |                                               |                |                  [64]{}: in 0x1d6-0x1d6.7 (1)
0x1d0|                  0b|                          |      .|        |                    opcode: "end" (0xb) 0x1d6-0x1d6.7 (1)
