$ fq -d wasm dv start-1.wasm
    |00 01 02 03 04 05 06 07 08 09 0a 0b 0c 0d 0e 0f|0123456789abcdef|.{}: start-1.wasm (wasm) 0x0-0x5e (94)
0x00|00 61 73 6d                                    |.asm            |  magic: raw bits (valid) 0x0-0x4 (4)
0x00|            01 00 00 00                        |    ....        |  version: 1 0x4-0x8 (4)
    |                                               |                |  sections[0:7]: 0x8-0x5e (86)
    |                                               |                |    [0]{}: section 0x8-0x12 (10)
0x00|                        01                     |        .       |      id: "type_section" (1) 0x8-0x9 (1)
0x00|                           08                  |         .      |      size: 8 (valid) 0x9-0xa (1)
    |                                               |                |      content{}: 0xa-0x12 (8)
    |                                               |                |        ft{}: 0xa-0x12 (8)
0x00|                              02               |          .     |          n: 2 (valid) 0xa-0xb (1)
    |                                               |                |          x[0:2]: 0xb-0x12 (7)
    |                                               |                |            [0]{}: ft 0xb-0xe (3)
0x00|                                 60            |           `    |              tag: 0x60 (valid) 0xb-0xc (1)
    |                                               |                |              rt1{}: 0xc-0xd (1)
0x00|                                    00         |            .   |                n: 0 (valid) 0xc-0xd (1)
    |                                               |                |                x[0:0]: 0xd-0xd (0)
    |                                               |                |              rt2{}: 0xd-0xe (1)
0x00|                                       00      |             .  |                n: 0 (valid) 0xd-0xe (1)
    |                                               |                |                x[0:0]: 0xe-0xe (0)
    |                                               |                |            [1]{}: ft 0xe-0x12 (4)
0x00|                                          60   |              ` |              tag: 0x60 (valid) 0xe-0xf (1)
    |                                               |                |              rt1{}: 0xf-0x10 (1)
0x00|                                             00|               .|                n: 0 (valid) 0xf-0x10 (1)
    |                                               |                |                x[0:0]: 0x10-0x10 (0)
    |                                               |                |              rt2{}: 0x10-0x12 (2)
0x10|01                                             |.               |                n: 1 (valid) 0x10-0x11 (1)
    |                                               |                |                x[0:1]: 0x11-0x12 (1)
0x10|   7f                                          | .              |                  [0]: "i32" (0x7f) t 0x11-0x12 (1)
    |                                               |                |    [1]{}: section 0x12-0x18 (6)
0x10|      03                                       |  .             |      id: "function_section" (3) 0x12-0x13 (1)
0x10|         04                                    |   .            |      size: 4 (valid) 0x13-0x14 (1)
    |                                               |                |      content{}: 0x14-0x18 (4)
    |                                               |                |        x{}: 0x14-0x18 (4)
0x10|            03                                 |    .           |          n: 3 (valid) 0x14-0x15 (1)
    |                                               |                |          x[0:3]: 0x15-0x18 (3)
0x10|               00                              |     .          |            [0]: 0 x (valid) 0x15-0x16 (1)
0x10|                  01                           |      .         |            [1]: 1 x (valid) 0x16-0x17 (1)
0x10|                     00                        |       .        |            [2]: 0 x (valid) 0x17-0x18 (1)
    |                                               |                |    [2]{}: section 0x18-0x1e (6)
0x10|                        05                     |        .       |      id: "memory_section" (5) 0x18-0x19 (1)
0x10|                           04                  |         .      |      size: 4 (valid) 0x19-0x1a (1)
    |                                               |                |      content{}: 0x1a-0x1e (4)
    |                                               |                |        mem{}: 0x1a-0x1e (4)
0x10|                              01               |          .     |          n: 1 (valid) 0x1a-0x1b (1)
    |                                               |                |          x[0:1]: 0x1b-0x1e (3)
    |                                               |                |            [0]{}: mem 0x1b-0x1e (3)
    |                                               |                |              lim{}: 0x1b-0x1e (3)
0x10|                                 01            |           .    |                tag: 0x1 0x1b-0x1c (1)
0x10|                                    01         |            .   |                n: 1 (valid) 0x1c-0x1d (1)
0x10|                                       01      |             .  |                m: 1 (valid) 0x1d-0x1e (1)
    |                                               |                |    [3]{}: section 0x1e-0x2d (15)
0x10|                                          07   |              . |      id: "export_section" (7) 0x1e-0x1f (1)
0x10|                                             0d|               .|      size: 13 (valid) 0x1f-0x20 (1)
    |                                               |                |      content{}: 0x20-0x2d (13)
    |                                               |                |        ex{}: 0x20-0x2d (13)
0x20|02                                             |.               |          n: 2 (valid) 0x20-0x21 (1)
    |                                               |                |          x[0:2]: 0x21-0x2d (12)
    |                                               |                |            [0]{}: ex 0x21-0x27 (6)
    |                                               |                |              nm{}: 0x21-0x25 (4)
0x20|   03                                          | .              |                n: 3 (valid) 0x21-0x22 (1)
0x20|      69 6e 63                                 |  inc           |                b: "inc" 0x22-0x25 (3)
    |                                               |                |              d{}: 0x25-0x27 (2)
0x20|               00                              |     .          |                tag: "funcidx" (0x0) 0x25-0x26 (1)
0x20|                  00                           |      .         |                x: 0 (valid) 0x26-0x27 (1)
    |                                               |                |            [1]{}: ex 0x27-0x2d (6)
    |                                               |                |              nm{}: 0x27-0x2b (4)
0x20|                     03                        |       .        |                n: 3 (valid) 0x27-0x28 (1)
0x20|                        67 65 74               |        get     |                b: "get" 0x28-0x2b (3)
    |                                               |                |              d{}: 0x2b-0x2d (2)
0x20|                                 00            |           .    |                tag: "funcidx" (0x0) 0x2b-0x2c (1)
0x20|                                    01         |            .   |                x: 1 (valid) 0x2c-0x2d (1)
    |                                               |                |    [4]{}: section 0x2d-0x30 (3)
0x20|                                       08      |             .  |      id: "start_section" (8) 0x2d-0x2e (1)
0x20|                                          01   |              . |      size: 1 (valid) 0x2e-0x2f (1)
    |                                               |                |      content{}: 0x2f-0x30 (1)
    |                                               |                |        st{}: 0x2f-0x30 (1)
0x20|                                             02|               .|          x: 2 (valid) 0x2f-0x30 (1)
    |                                               |                |    [5]{}: section 0x30-0x55 (37)
0x30|0a                                             |.               |      id: "code_section" (10) 0x30-0x31 (1)
0x30|   23                                          | #              |      size: 35 (valid) 0x31-0x32 (1)
    |                                               |                |      content{}: 0x32-0x55 (35)
    |                                               |                |        code{}: 0x32-0x55 (35)
0x30|      03                                       |  .             |          n: 3 (valid) 0x32-0x33 (1)
    |                                               |                |          x[0:3]: 0x33-0x55 (34)
    |                                               |                |            [0]{}: code 0x33-0x43 (16)
0x30|         0f                                    |   .            |              size: 15 (valid) 0x33-0x34 (1)
    |                                               |                |              code{}: 0x34-0x43 (15)
    |                                               |                |                t{}: 0x34-0x35 (1)
0x30|            00                                 |    .           |                  n: 0 (valid) 0x34-0x35 (1)
    |                                               |                |                  x[0:0]: 0x35-0x35 (0)
    |                                               |                |                e[0:7]: 0x35-0x43 (14)
    |                                               |                |                  [0]{}: in 0x35-0x37 (2)
0x30|               41                              |     A          |                    opcode: "i32.const" (0x41) 0x35-0x36 (1)
0x30|                  00                           |      .         |                    n: 0 (valid) 0x36-0x37 (1)
    |                                               |                |                  [1]{}: in 0x37-0x39 (2)
0x30|                     41                        |       A        |                    opcode: "i32.const" (0x41) 0x37-0x38 (1)
0x30|                        00                     |        .       |                    n: 0 (valid) 0x38-0x39 (1)
    |                                               |                |                  [2]{}: in 0x39-0x3c (3)
0x30|                           2d                  |         -      |                    opcode: "i32.load8_u" (0x2d) 0x39-0x3a (1)
    |                                               |                |                    m{}: 0x3a-0x3c (2)
0x30|                              00               |          .     |                      a: 0 (valid) 0x3a-0x3b (1)
0x30|                                 00            |           .    |                      o: 0 (valid) 0x3b-0x3c (1)
    |                                               |                |                  [3]{}: in 0x3c-0x3e (2)
0x30|                                    41         |            A   |                    opcode: "i32.const" (0x41) 0x3c-0x3d (1)
0x30|                                       01      |             .  |                    n: 1 (valid) 0x3d-0x3e (1)
    |                                               |                |                  [4]{}: in 0x3e-0x3f (1)
0x30|                                          6a   |              j |                    opcode: "i32.add" (0x6a) 0x3e-0x3f (1)
    |                                               |                |                  [5]{}: in 0x3f-0x42 (3)
0x30|                                             3a|               :|                    opcode: "i32.store8" (0x3a) 0x3f-0x40 (1)
    |                                               |                |                    m{}: 0x40-0x42 (2)
0x40|00                                             |.               |                      a: 0 (valid) 0x40-0x41 (1)
0x40|   00                                          | .              |                      o: 0 (valid) 0x41-0x42 (1)
    |                                               |                |                  [6]{}: in 0x42-0x43 (1)
0x40|      0b                                       |  .             |                    opcode: "end" (0xb) 0x42-0x43 (1)
    |                                               |                |            [1]{}: code 0x43-0x4c (9)
0x40|         08                                    |   .            |              size: 8 (valid) 0x43-0x44 (1)
    |                                               |                |              code{}: 0x44-0x4c (8)
    |                                               |                |                t{}: 0x44-0x45 (1)
0x40|            00                                 |    .           |                  n: 0 (valid) 0x44-0x45 (1)
    |                                               |                |                  x[0:0]: 0x45-0x45 (0)
    |                                               |                |                e[0:4]: 0x45-0x4c (7)
    |                                               |                |                  [0]{}: in 0x45-0x47 (2)
0x40|               41                              |     A          |                    opcode: "i32.const" (0x41) 0x45-0x46 (1)
0x40|                  00                           |      .         |                    n: 0 (valid) 0x46-0x47 (1)
    |                                               |                |                  [1]{}: in 0x47-0x4a (3)
0x40|                     2d                        |       -        |                    opcode: "i32.load8_u" (0x2d) 0x47-0x48 (1)
    |                                               |                |                    m{}: 0x48-0x4a (2)
0x40|                        00                     |        .       |                      a: 0 (valid) 0x48-0x49 (1)
0x40|                           00                  |         .      |                      o: 0 (valid) 0x49-0x4a (1)
    |                                               |                |                  [2]{}: in 0x4a-0x4b (1)
0x40|                              0f               |          .     |                    opcode: "return" (0xf) 0x4a-0x4b (1)
    |                                               |                |                  [3]{}: in 0x4b-0x4c (1)
0x40|                                 0b            |           .    |                    opcode: "end" (0xb) 0x4b-0x4c (1)
    |                                               |                |            [2]{}: code 0x4c-0x55 (9)
0x40|                                    08         |            .   |              size: 8 (valid) 0x4c-0x4d (1)
    |                                               |                |              code{}: 0x4d-0x55 (8)
    |                                               |                |                t{}: 0x4d-0x4e (1)
0x40|                                       00      |             .  |                  n: 0 (valid) 0x4d-0x4e (1)
    |                                               |                |                  x[0:0]: 0x4e-0x4e (0)
    |                                               |                |                e[0:4]: 0x4e-0x55 (7)
    |                                               |                |                  [0]{}: in 0x4e-0x50 (2)
0x40|                                          10   |              . |                    opcode: "call" (0x10) 0x4e-0x4f (1)
0x40|                                             00|               .|                    x: 0 (valid) 0x4f-0x50 (1)
    |                                               |                |                  [1]{}: in 0x50-0x52 (2)
0x50|10                                             |.               |                    opcode: "call" (0x10) 0x50-0x51 (1)
0x50|   00                                          | .              |                    x: 0 (valid) 0x51-0x52 (1)
    |                                               |                |                  [2]{}: in 0x52-0x54 (2)
0x50|      10                                       |  .             |                    opcode: "call" (0x10) 0x52-0x53 (1)
0x50|         00                                    |   .            |                    x: 0 (valid) 0x53-0x54 (1)
    |                                               |                |                  [3]{}: in 0x54-0x55 (1)
0x50|            0b                                 |    .           |                    opcode: "end" (0xb) 0x54-0x55 (1)
    |                                               |                |    [6]{}: section 0x55-0x5e (9)
0x50|               0b                              |     .          |      id: "data_section" (11) 0x55-0x56 (1)
0x50|                  07                           |      .         |      size: 7 (valid) 0x56-0x57 (1)
    |                                               |                |      content{}: 0x57-0x5e (7)
    |                                               |                |        seg{}: 0x57-0x5e (7)
0x50|                     01                        |       .        |          n: 1 (valid) 0x57-0x58 (1)
    |                                               |                |          x[0:1]: 0x58-0x5e (6)
    |                                               |                |            [0]{}: seg 0x58-0x5e (6)
0x50|                        00                     |        .       |              tag: 0 (valid) 0x58-0x59 (1)
    |                                               |                |              e[0:2]: 0x59-0x5c (3)
    |                                               |                |                [0]{}: in 0x59-0x5b (2)
0x50|                           41                  |         A      |                  opcode: "i32.const" (0x41) 0x59-0x5a (1)
0x50|                              00               |          .     |                  n: 0 (valid) 0x5a-0x5b (1)
    |                                               |                |                [1]{}: in 0x5b-0x5c (1)
0x50|                                 0b            |           .    |                  opcode: "end" (0xb) 0x5b-0x5c (1)
    |                                               |                |              b{}: 0x5c-0x5e (2)
0x50|                                    01         |            .   |                n: 1 (valid) 0x5c-0x5d (1)
0x50|                                       41|     |             A| |                x: raw bits 0x5d-0x5e (1)
