$ fq -d wasm dv start-2.wasm
    |00 01 02 03 04 05 06 07 08 09 0a 0b 0c 0d 0e 0f|0123456789abcdef|.{}: start-2.wasm (wasm) 0x0-0x3a.7 (59)
0x00|00 61 73 6d                                    |.asm            |  magic: raw bits (valid) 0x0-0x3.7 (4)
0x00|            01 00 00 00                        |    ....        |  version: 1 0x4-0x7.7 (4)
    |                                               |                |  sections[0:5]: 0x8-0x3a.7 (51)
    |                                               |                |    [0]{}: section 0x8-0x11.7 (10)
0x00|                        01                     |        .       |      id: "type section" (1) 0x8-0x8.7 (1)
0x00|                           08                  |         .      |      size: 8 0x9-0x9.7 (1)
    |                                               |                |      content{}: 0xa-0x11.7 (8)
    |                                               |                |        ft{}: 0xa-0x11.7 (8)
0x00|                              02               |          .     |          n: 2 0xa-0xa.7 (1)
    |                                               |                |          x[0:2]: 0xb-0x11.7 (7)
    |                                               |                |            [0]{}: ft 0xb-0xe.7 (4)
0x00|                                 60            |           `    |              tag: 0x60 (valid) 0xb-0xb.7 (1)
    |                                               |                |              rt1{}: 0xc-0xd.7 (2)
0x00|                                    01         |            .   |                n: 1 0xc-0xc.7 (1)
    |                                               |                |                x[0:1]: 0xd-0xd.7 (1)
0x00|                                       7f      |             .  |                  [0]: "i32" (0x7f) t 0xd-0xd.7 (1)
    |                                               |                |              rt2{}: 0xe-0xe.7 (1)
0x00|                                          00   |              . |                n: 0 0xe-0xe.7 (1)
    |                                               |                |                x[0:0]: 0xf-NA (0)
    |                                               |                |            [1]{}: ft 0xf-0x11.7 (3)
0x00|                                             60|               `|              tag: 0x60 (valid) 0xf-0xf.7 (1)
    |                                               |                |              rt1{}: 0x10-0x10.7 (1)
0x10|00                                             |.               |                n: 0 0x10-0x10.7 (1)
    |                                               |                |                x[0:0]: 0x11-NA (0)
    |                                               |                |              rt2{}: 0x11-0x11.7 (1)
0x10|   00                                          | .              |                n: 0 0x11-0x11.7 (1)
    |                                               |                |                x[0:0]: 0x12-NA (0)
    |                                               |                |    [1]{}: section 0x12-0x29.7 (24)
0x10|      02                                       |  .             |      id: "import section" (2) 0x12-0x12.7 (1)
0x10|         16                                    |   .            |      size: 22 0x13-0x13.7 (1)
    |                                               |                |      content{}: 0x14-0x29.7 (22)
    |                                               |                |        im{}: 0x14-0x29.7 (22)
0x10|            01                                 |    .           |          n: 1 0x14-0x14.7 (1)
    |                                               |                |          x[0:1]: 0x15-0x29.7 (21)
    |                                               |                |            [0]{}: im 0x15-0x29.7 (21)
    |                                               |                |              mod{}: 0x15-0x1d.7 (9)
0x10|               08                              |     .          |                n: 8 0x15-0x15.7 (1)
0x10|                  73 70 65 63 74 65 73 74      |      spectest  |                b: "spectest" 0x16-0x1d.7 (8)
    |                                               |                |              nm{}: 0x1e-0x27.7 (10)
0x10|                                          09   |              . |                n: 9 0x1e-0x1e.7 (1)
0x10|                                             70|               p|                b: "print_i32" 0x1f-0x27.7 (9)
0x20|72 69 6e 74 5f 69 33 32                        |rint_i32        |
    |                                               |                |              d{}: 0x28-0x29.7 (2)
0x20|                        00                     |        .       |                tag: "func" (0x0) 0x28-0x28.7 (1)
0x20|                           00                  |         .      |                x: 0 0x29-0x29.7 (1)
    |                                               |                |    [2]{}: section 0x2a-0x2d.7 (4)
0x20|                              03               |          .     |      id: "function section" (3) 0x2a-0x2a.7 (1)
0x20|                                 02            |           .    |      size: 2 0x2b-0x2b.7 (1)
    |                                               |                |      content{}: 0x2c-0x2d.7 (2)
    |                                               |                |        x{}: 0x2c-0x2d.7 (2)
0x20|                                    01         |            .   |          n: 1 0x2c-0x2c.7 (1)
    |                                               |                |          x[0:1]: 0x2d-0x2d.7 (1)
0x20|                                       01      |             .  |            [0]: 1 x 0x2d-0x2d.7 (1)
    |                                               |                |    [3]{}: section 0x2e-0x30.7 (3)
0x20|                                          08   |              . |      id: "start section" (8) 0x2e-0x2e.7 (1)
0x20|                                             01|               .|      size: 1 0x2f-0x2f.7 (1)
    |                                               |                |      content{}: 0x30-0x30.7 (1)
    |                                               |                |        st{}: 0x30-0x30.7 (1)
0x30|01                                             |.               |          x: 1 0x30-0x30.7 (1)
    |                                               |                |    [4]{}: section 0x31-0x3a.7 (10)
0x30|   0a                                          | .              |      id: "code section" (10) 0x31-0x31.7 (1)
0x30|      08                                       |  .             |      size: 8 0x32-0x32.7 (1)
    |                                               |                |      content{}: 0x33-0x3a.7 (8)
    |                                               |                |        code{}: 0x33-0x3a.7 (8)
0x30|         01                                    |   .            |          n: 1 0x33-0x33.7 (1)
    |                                               |                |          x[0:1]: 0x34-0x3a.7 (7)
    |                                               |                |            [0]{}: code 0x34-0x3a.7 (7)
0x30|            06                                 |    .           |              size: 6 0x34-0x34.7 (1)
    |                                               |                |              code{}: 0x35-0x3a.7 (6)
    |                                               |                |                t{}: 0x35-0x35.7 (1)
0x30|               00                              |     .          |                  n: 0 0x35-0x35.7 (1)
    |                                               |                |                  x[0:0]: 0x36-NA (0)
    |                                               |                |                e[0:3]: 0x36-0x3a.7 (5)
    |                                               |                |                  [0]{}: in 0x36-0x37.7 (2)
0x30|                  41                           |      A         |                    i32.const: 0x41 (valid) 0x36-0x36.7 (1)
0x30|                     01                        |       .        |                    n: 1 0x37-0x37.7 (1)
    |                                               |                |                  [1]{}: in 0x38-0x39.7 (2)
0x30|                        10                     |        .       |                    call: 0x10 (valid) 0x38-0x38.7 (1)
0x30|                           00                  |         .      |                    x: 0 0x39-0x39.7 (1)
    |                                               |                |                  [2]{}: in 0x3a-0x3a.7 (1)
0x30|                              0b|              |          .|    |                    end: 0xb (valid) 0x3a-0x3a.7 (1)
