$ fq -d wasm dv start-3.wasm
    |00 01 02 03 04 05 06 07 08 09 0a 0b 0c 0d 0e 0f|0123456789abcdef|.{}: start-3.wasm (wasm) 0x0-0x3b (59)
0x00|00 61 73 6d                                    |.asm            |  magic: raw bits (valid) 0x0-0x4 (4)
0x00|            01 00 00 00                        |    ....        |  version: 1 0x4-0x8 (4)
    |                                               |                |  sections[0:5]: 0x8-0x3b (51)
    |                                               |                |    [0]{}: section 0x8-0x12 (10)
0x00|                        01                     |        .       |      id: "type_section" (1) 0x8-0x9 (1)
0x00|                           08                  |         .      |      size: 8 (valid) 0x9-0xa (1)
    |                                               |                |      content{}: 0xa-0x12 (8)
    |                                               |                |        ft{}: 0xa-0x12 (8)
0x00|                              02               |          .     |          n: 2 (valid) 0xa-0xb (1)
    |                                               |                |          x[0:2]: 0xb-0x12 (7)
    |                                               |                |            [0]{}: ft 0xb-0xf (4)
0x00|                                 60            |           `    |              tag: 0x60 (valid) 0xb-0xc (1)
    |                                               |                |              rt1{}: 0xc-0xe (2)
0x00|                                    01         |            .   |                n: 1 (valid) 0xc-0xd (1)
    |                                               |                |                x[0:1]: 0xd-0xe (1)
0x00|                                       7f      |             .  |                  [0]: "i32" (0x7f) t 0xd-0xe (1)
    |                                               |                |              rt2{}: 0xe-0xf (1)
0x00|                                          00   |              . |                n: 0 (valid) 0xe-0xf (1)
    |                                               |                |                x[0:0]: 0xf-0xf (0)
    |                                               |                |            [1]{}: ft 0xf-0x12 (3)
0x00|                                             60|               `|              tag: 0x60 (valid) 0xf-0x10 (1)
    |                                               |                |              rt1{}: 0x10-0x11 (1)
0x10|00                                             |.               |                n: 0 (valid) 0x10-0x11 (1)
    |                                               |                |                x[0:0]: 0x11-0x11 (0)
    |                                               |                |              rt2{}: 0x11-0x12 (1)
0x10|   00                                          | .              |                n: 0 (valid) 0x11-0x12 (1)
    |                                               |                |                x[0:0]: 0x12-0x12 (0)
    |                                               |                |    [1]{}: section 0x12-0x2a (24)
0x10|      02                                       |  .             |      id: "import_section" (2) 0x12-0x13 (1)
0x10|         16                                    |   .            |      size: 22 (valid) 0x13-0x14 (1)
    |                                               |                |      content{}: 0x14-0x2a (22)
    |                                               |                |        im{}: 0x14-0x2a (22)
0x10|            01                                 |    .           |          n: 1 (valid) 0x14-0x15 (1)
    |                                               |                |          x[0:1]: 0x15-0x2a (21)
    |                                               |                |            [0]{}: im 0x15-0x2a (21)
    |                                               |                |              mod{}: 0x15-0x1e (9)
0x10|               08                              |     .          |                n: 8 (valid) 0x15-0x16 (1)
0x10|                  73 70 65 63 74 65 73 74      |      spectest  |                b: "spectest" 0x16-0x1e (8)
    |                                               |                |              nm{}: 0x1e-0x28 (10)
0x10|                                          09   |              . |                n: 9 (valid) 0x1e-0x1f (1)
0x10|                                             70|               p|                b: "print_i32" 0x1f-0x28 (9)
0x20|72 69 6e 74 5f 69 33 32                        |rint_i32        |
    |                                               |                |              d{}: 0x28-0x2a (2)
0x20|                        00                     |        .       |                tag: "func" (0x0) 0x28-0x29 (1)
0x20|                           00                  |         .      |                x: 0 (valid) 0x29-0x2a (1)
    |                                               |                |    [2]{}: section 0x2a-0x2e (4)
0x20|                              03               |          .     |      id: "function_section" (3) 0x2a-0x2b (1)
0x20|                                 02            |           .    |      size: 2 (valid) 0x2b-0x2c (1)
    |                                               |                |      content{}: 0x2c-0x2e (2)
    |                                               |                |        x{}: 0x2c-0x2e (2)
0x20|                                    01         |            .   |          n: 1 (valid) 0x2c-0x2d (1)
    |                                               |                |          x[0:1]: 0x2d-0x2e (1)
0x20|                                       01      |             .  |            [0]: 1 x (valid) 0x2d-0x2e (1)
    |                                               |                |    [3]{}: section 0x2e-0x31 (3)
0x20|                                          08   |              . |      id: "start_section" (8) 0x2e-0x2f (1)
0x20|                                             01|               .|      size: 1 (valid) 0x2f-0x30 (1)
    |                                               |                |      content{}: 0x30-0x31 (1)
    |                                               |                |        st{}: 0x30-0x31 (1)
0x30|01                                             |.               |          x: 1 (valid) 0x30-0x31 (1)
    |                                               |                |    [4]{}: section 0x31-0x3b (10)
0x30|   0a                                          | .              |      id: "code_section" (10) 0x31-0x32 (1)
0x30|      08                                       |  .             |      size: 8 (valid) 0x32-0x33 (1)
    |                                               |                |      content{}: 0x33-0x3b (8)
    |                                               |                |        code{}: 0x33-0x3b (8)
0x30|         01                                    |   .            |          n: 1 (valid) 0x33-0x34 (1)
    |                                               |                |          x[0:1]: 0x34-0x3b (7)
    |                                               |                |            [0]{}: code 0x34-0x3b (7)
0x30|            06                                 |    .           |              size: 6 (valid) 0x34-0x35 (1)
    |                                               |                |              code{}: 0x35-0x3b (6)
    |                                               |                |                t{}: 0x35-0x36 (1)
0x30|               00                              |     .          |                  n: 0 (valid) 0x35-0x36 (1)
    |                                               |                |                  x[0:0]: 0x36-0x36 (0)
    |                                               |                |                e[0:3]: 0x36-0x3b (5)
    |                                               |                |                  [0]{}: in 0x36-0x38 (2)
0x30|                  41                           |      A         |                    opcode: "i32.const" (0x41) 0x36-0x37 (1)
0x30|                     02                        |       .        |                    n: 2 (valid) 0x37-0x38 (1)
    |                                               |                |                  [1]{}: in 0x38-0x3a (2)
0x30|                        10                     |        .       |                    opcode: "call" (0x10) 0x38-0x39 (1)
0x30|                           00                  |         .      |                    x: 0 (valid) 0x39-0x3a (1)
    |                                               |                |                  [2]{}: in 0x3a-0x3b (1)
0x30|                              0b|              |          .|    |                    opcode: "end" (0xb) 0x3a-0x3b (1)
