$ fq -d wasm dv store-0.wasm
     |00 01 02 03 04 05 06 07 08 09 0a 0b 0c 0d 0e 0f|0123456789abcdef|.{}: store-0.wasm (wasm) 0x0-0x144 (324)
0x000|00 61 73 6d                                    |.asm            |  magic: raw bits (valid) 0x0-0x4 (4)
0x000|            01 00 00 00                        |    ....        |  version: 1 0x4-0x8 (4)
     |                                               |                |  sections[0:5]: 0x8-0x144 (316)
     |                                               |                |    [0]{}: section 0x8-0xe (6)
0x000|                        01                     |        .       |      id: "type_section" (1) 0x8-0x9 (1)
0x000|                           04                  |         .      |      size: 4 (valid) 0x9-0xa (1)
     |                                               |                |      content{}: 0xa-0xe (4)
     |                                               |                |        ft{}: 0xa-0xe (4)
0x000|                              01               |          .     |          n: 1 (valid) 0xa-0xb (1)
     |                                               |                |          x[0:1]: 0xb-0xe (3)
     |                                               |                |            [0]{}: ft 0xb-0xe (3)
0x000|                                 60            |           `    |              tag: 0x60 (valid) 0xb-0xc (1)
     |                                               |                |              rt1{}: 0xc-0xd (1)
0x000|                                    00         |            .   |                n: 0 (valid) 0xc-0xd (1)
     |                                               |                |                x[0:0]: 0xd-0xd (0)
     |                                               |                |              rt2{}: 0xd-0xe (1)
0x000|                                       00      |             .  |                n: 0 (valid) 0xd-0xe (1)
     |                                               |                |                x[0:0]: 0xe-0xe (0)
     |                                               |                |    [1]{}: section 0xe-0x1a (12)
0x000|                                          03   |              . |      id: "function_section" (3) 0xe-0xf (1)
0x000|                                             0a|               .|      size: 10 (valid) 0xf-0x10 (1)
     |                                               |                |      content{}: 0x10-0x1a (10)
     |                                               |                |        x{}: 0x10-0x1a (10)
0x010|09                                             |.               |          n: 9 (valid) 0x10-0x11 (1)
     |                                               |                |          x[0:9]: 0x11-0x1a (9)
0x010|   00                                          | .              |            [0]: 0 x (valid) 0x11-0x12 (1)
0x010|      00                                       |  .             |            [1]: 0 x (valid) 0x12-0x13 (1)
0x010|         00                                    |   .            |            [2]: 0 x (valid) 0x13-0x14 (1)
0x010|            00                                 |    .           |            [3]: 0 x (valid) 0x14-0x15 (1)
0x010|               00                              |     .          |            [4]: 0 x (valid) 0x15-0x16 (1)
0x010|                  00                           |      .         |            [5]: 0 x (valid) 0x16-0x17 (1)
0x010|                     00                        |       .        |            [6]: 0 x (valid) 0x17-0x18 (1)
0x010|                        00                     |        .       |            [7]: 0 x (valid) 0x18-0x19 (1)
0x010|                           00                  |         .      |            [8]: 0 x (valid) 0x19-0x1a (1)
     |                                               |                |    [2]{}: section 0x1a-0x1f (5)
0x010|                              05               |          .     |      id: "memory_section" (5) 0x1a-0x1b (1)
0x010|                                 03            |           .    |      size: 3 (valid) 0x1b-0x1c (1)
     |                                               |                |      content{}: 0x1c-0x1f (3)
     |                                               |                |        mem{}: 0x1c-0x1f (3)
0x010|                                    01         |            .   |          n: 1 (valid) 0x1c-0x1d (1)
     |                                               |                |          x[0:1]: 0x1d-0x1f (2)
     |                                               |                |            [0]{}: mem 0x1d-0x1f (2)
     |                                               |                |              lim{}: 0x1d-0x1f (2)
0x010|                                       00      |             .  |                tag: 0x0 0x1d-0x1e (1)
0x010|                                          01   |              . |                n: 1 (valid) 0x1e-0x1f (1)
     |                                               |                |    [3]{}: section 0x1f-0xb9 (154)
0x010|                                             07|               .|      id: "export_section" (7) 0x1f-0x20 (1)
0x020|97 01                                          |..              |      size: 151 (valid) 0x20-0x22 (2)
     |                                               |                |      content{}: 0x22-0xb9 (151)
     |                                               |                |        ex{}: 0x22-0xb9 (151)
0x020|      09                                       |  .             |          n: 9 (valid) 0x22-0x23 (1)
     |                                               |                |          x[0:9]: 0x23-0xb9 (150)
     |                                               |                |            [0]{}: ex 0x23-0x34 (17)
     |                                               |                |              nm{}: 0x23-0x32 (15)
0x020|         0e                                    |   .            |                n: 14 (valid) 0x23-0x24 (1)
0x020|            61 73 2d 62 6c 6f 63 6b 2d 76 61 6c|    as-block-val|                b: "as-block-value" 0x24-0x32 (14)
0x030|75 65                                          |ue              |
     |                                               |                |              d{}: 0x32-0x34 (2)
0x030|      00                                       |  .             |                tag: "funcidx" (0x0) 0x32-0x33 (1)
0x030|         00                                    |   .            |                x: 0 (valid) 0x33-0x34 (1)
     |                                               |                |            [1]{}: ex 0x34-0x44 (16)
     |                                               |                |              nm{}: 0x34-0x42 (14)
0x030|            0d                                 |    .           |                n: 13 (valid) 0x34-0x35 (1)
0x030|               61 73 2d 6c 6f 6f 70 2d 76 61 6c|     as-loop-val|                b: "as-loop-value" 0x35-0x42 (13)
0x040|75 65                                          |ue              |
     |                                               |                |              d{}: 0x42-0x44 (2)
0x040|      00                                       |  .             |                tag: "funcidx" (0x0) 0x42-0x43 (1)
0x040|         01                                    |   .            |                x: 1 (valid) 0x43-0x44 (1)
     |                                               |                |            [2]{}: ex 0x44-0x52 (14)
     |                                               |                |              nm{}: 0x44-0x50 (12)
0x040|            0b                                 |    .           |                n: 11 (valid) 0x44-0x45 (1)
0x040|               61 73 2d 62 72 2d 76 61 6c 75 65|     as-br-value|                b: "as-br-value" 0x45-0x50 (11)
     |                                               |                |              d{}: 0x50-0x52 (2)
0x050|00                                             |.               |                tag: "funcidx" (0x0) 0x50-0x51 (1)
0x050|   02                                          | .              |                x: 2 (valid) 0x51-0x52 (1)
     |                                               |                |            [3]{}: ex 0x52-0x63 (17)
     |                                               |                |              nm{}: 0x52-0x61 (15)
0x050|      0e                                       |  .             |                n: 14 (valid) 0x52-0x53 (1)
0x050|         61 73 2d 62 72 5f 69 66 2d 76 61 6c 75|   as-br_if-valu|                b: "as-br_if-value" 0x53-0x61 (14)
0x060|65                                             |e               |
     |                                               |                |              d{}: 0x61-0x63 (2)
0x060|   00                                          | .              |                tag: "funcidx" (0x0) 0x61-0x62 (1)
0x060|      03                                       |  .             |                x: 3 (valid) 0x62-0x63 (1)
     |                                               |                |            [4]{}: ex 0x63-0x79 (22)
     |                                               |                |              nm{}: 0x63-0x77 (20)
0x060|         13                                    |   .            |                n: 19 (valid) 0x63-0x64 (1)
0x060|            61 73 2d 62 72 5f 69 66 2d 76 61 6c|    as-br_if-val|                b: "as-br_if-value-cond" 0x64-0x77 (19)
0x070|75 65 2d 63 6f 6e 64                           |ue-cond         |
     |                                               |                |              d{}: 0x77-0x79 (2)
0x070|                     00                        |       .        |                tag: "funcidx" (0x0) 0x77-0x78 (1)
0x070|                        04                     |        .       |                x: 4 (valid) 0x78-0x79 (1)
     |                                               |                |            [5]{}: ex 0x79-0x8d (20)
     |                                               |                |              nm{}: 0x79-0x8b (18)
0x070|                           11                  |         .      |                n: 17 (valid) 0x79-0x7a (1)
0x070|                              61 73 2d 62 72 5f|          as-br_|                b: "as-br_table-value" 0x7a-0x8b (17)
0x080|74 61 62 6c 65 2d 76 61 6c 75 65               |table-value     |
     |                                               |                |              d{}: 0x8b-0x8d (2)
0x080|                                 00            |           .    |                tag: "funcidx" (0x0) 0x8b-0x8c (1)
0x080|                                    05         |            .   |                x: 5 (valid) 0x8c-0x8d (1)
     |                                               |                |            [6]{}: ex 0x8d-0x9f (18)
     |                                               |                |              nm{}: 0x8d-0x9d (16)
0x080|                                       0f      |             .  |                n: 15 (valid) 0x8d-0x8e (1)
0x080|                                          61 73|              as|                b: "as-return-value" 0x8e-0x9d (15)
0x090|2d 72 65 74 75 72 6e 2d 76 61 6c 75 65         |-return-value   |
     |                                               |                |              d{}: 0x9d-0x9f (2)
0x090|                                       00      |             .  |                tag: "funcidx" (0x0) 0x9d-0x9e (1)
0x090|                                          06   |              . |                x: 6 (valid) 0x9e-0x9f (1)
     |                                               |                |            [7]{}: ex 0x9f-0xac (13)
     |                                               |                |              nm{}: 0x9f-0xaa (11)
0x090|                                             0a|               .|                n: 10 (valid) 0x9f-0xa0 (1)
0x0a0|61 73 2d 69 66 2d 74 68 65 6e                  |as-if-then      |                b: "as-if-then" 0xa0-0xaa (10)
     |                                               |                |              d{}: 0xaa-0xac (2)
0x0a0|                              00               |          .     |                tag: "funcidx" (0x0) 0xaa-0xab (1)
0x0a0|                                 07            |           .    |                x: 7 (valid) 0xab-0xac (1)
     |                                               |                |            [8]{}: ex 0xac-0xb9 (13)
     |                                               |                |              nm{}: 0xac-0xb7 (11)
0x0a0|                                    0a         |            .   |                n: 10 (valid) 0xac-0xad (1)
0x0a0|                                       61 73 2d|             as-|                b: "as-if-else" 0xad-0xb7 (10)
0x0b0|69 66 2d 65 6c 73 65                           |if-else         |
     |                                               |                |              d{}: 0xb7-0xb9 (2)
0x0b0|                     00                        |       .        |                tag: "funcidx" (0x0) 0xb7-0xb8 (1)
0x0b0|                        08                     |        .       |                x: 8 (valid) 0xb8-0xb9 (1)
     |                                               |                |    [4]{}: section 0xb9-0x144 (139)
0x0b0|                           0a                  |         .      |      id: "code_section" (10) 0xb9-0xba (1)
0x0b0|                              88 01            |          ..    |      size: 136 (valid) 0xba-0xbc (2)
     |                                               |                |      content{}: 0xbc-0x144 (136)
     |                                               |                |        code{}: 0xbc-0x144 (136)
0x0b0|                                    09         |            .   |          n: 9 (valid) 0xbc-0xbd (1)
     |                                               |                |          x[0:9]: 0xbd-0x144 (135)
     |                                               |                |            [0]{}: code 0xbd-0xca (13)
0x0b0|                                       0c      |             .  |              size: 12 (valid) 0xbd-0xbe (1)
     |                                               |                |              code{}: 0xbe-0xca (12)
     |                                               |                |                t{}: 0xbe-0xbf (1)
0x0b0|                                          00   |              . |                  n: 0 (valid) 0xbe-0xbf (1)
     |                                               |                |                  x[0:0]: 0xbf-0xbf (0)
     |                                               |                |                e[0:2]: 0xbf-0xca (11)
     |                                               |                |                  [0]{}: in 0xbf-0xc9 (10)
0x0b0|                                             02|               .|                    opcode: "block" (0x2) 0xbf-0xc0 (1)
0x0c0|40                                             |@               |                    bt: "ε" (64) 0xc0-0xc1 (1)
     |                                               |                |                    instructions[0:3]: 0xc1-0xc8 (7)
     |                                               |                |                      [0]{}: instr 0xc1-0xc3 (2)
0x0c0|   41                                          | A              |                        opcode: "i32.const" (0x41) 0xc1-0xc2 (1)
0x0c0|      00                                       |  .             |                        n: 0 (valid) 0xc2-0xc3 (1)
     |                                               |                |                      [1]{}: instr 0xc3-0xc5 (2)
0x0c0|         41                                    |   A            |                        opcode: "i32.const" (0x41) 0xc3-0xc4 (1)
0x0c0|            01                                 |    .           |                        n: 1 (valid) 0xc4-0xc5 (1)
     |                                               |                |                      [2]{}: instr 0xc5-0xc8 (3)
0x0c0|               36                              |     6          |                        opcode: "i32.store" (0x36) 0xc5-0xc6 (1)
     |                                               |                |                        m{}: 0xc6-0xc8 (2)
0x0c0|                  02                           |      .         |                          a: 2 (valid) 0xc6-0xc7 (1)
0x0c0|                     00                        |       .        |                          o: 0 (valid) 0xc7-0xc8 (1)
0x0c0|                        0b                     |        .       |                    end: 0xb (valid) 0xc8-0xc9 (1)
     |                                               |                |                  [1]{}: in 0xc9-0xca (1)
0x0c0|                           0b                  |         .      |                    opcode: "end" (0xb) 0xc9-0xca (1)
     |                                               |                |            [1]{}: code 0xca-0xd7 (13)
0x0c0|                              0c               |          .     |              size: 12 (valid) 0xca-0xcb (1)
     |                                               |                |              code{}: 0xcb-0xd7 (12)
     |                                               |                |                t{}: 0xcb-0xcc (1)
0x0c0|                                 00            |           .    |                  n: 0 (valid) 0xcb-0xcc (1)
     |                                               |                |                  x[0:0]: 0xcc-0xcc (0)
     |                                               |                |                e[0:2]: 0xcc-0xd7 (11)
     |                                               |                |                  [0]{}: in 0xcc-0xd6 (10)
0x0c0|                                    03         |            .   |                    opcode: "loop" (0x3) 0xcc-0xcd (1)
0x0c0|                                       40      |             @  |                    bt: "ε" (64) 0xcd-0xce (1)
     |                                               |                |                    instructions[0:3]: 0xce-0xd5 (7)
     |                                               |                |                      [0]{}: instr 0xce-0xd0 (2)
0x0c0|                                          41   |              A |                        opcode: "i32.const" (0x41) 0xce-0xcf (1)
0x0c0|                                             00|               .|                        n: 0 (valid) 0xcf-0xd0 (1)
     |                                               |                |                      [1]{}: instr 0xd0-0xd2 (2)
0x0d0|41                                             |A               |                        opcode: "i32.const" (0x41) 0xd0-0xd1 (1)
0x0d0|   01                                          | .              |                        n: 1 (valid) 0xd1-0xd2 (1)
     |                                               |                |                      [2]{}: instr 0xd2-0xd5 (3)
0x0d0|      36                                       |  6             |                        opcode: "i32.store" (0x36) 0xd2-0xd3 (1)
     |                                               |                |                        m{}: 0xd3-0xd5 (2)
0x0d0|         02                                    |   .            |                          a: 2 (valid) 0xd3-0xd4 (1)
0x0d0|            00                                 |    .           |                          o: 0 (valid) 0xd4-0xd5 (1)
0x0d0|               0b                              |     .          |                    end: 0xb (valid) 0xd5-0xd6 (1)
     |                                               |                |                  [1]{}: in 0xd6-0xd7 (1)
0x0d0|                  0b                           |      .         |                    opcode: "end" (0xb) 0xd6-0xd7 (1)
     |                                               |                |            [2]{}: code 0xd7-0xe6 (15)
0x0d0|                     0e                        |       .        |              size: 14 (valid) 0xd7-0xd8 (1)
     |                                               |                |              code{}: 0xd8-0xe6 (14)
     |                                               |                |                t{}: 0xd8-0xd9 (1)
0x0d0|                        00                     |        .       |                  n: 0 (valid) 0xd8-0xd9 (1)
     |                                               |                |                  x[0:0]: 0xd9-0xd9 (0)
     |                                               |                |                e[0:2]: 0xd9-0xe6 (13)
     |                                               |                |                  [0]{}: in 0xd9-0xe5 (12)
0x0d0|                           02                  |         .      |                    opcode: "block" (0x2) 0xd9-0xda (1)
0x0d0|                              40               |          @     |                    bt: "ε" (64) 0xda-0xdb (1)
     |                                               |                |                    instructions[0:4]: 0xdb-0xe4 (9)
     |                                               |                |                      [0]{}: instr 0xdb-0xdd (2)
0x0d0|                                 41            |           A    |                        opcode: "i32.const" (0x41) 0xdb-0xdc (1)
0x0d0|                                    00         |            .   |                        n: 0 (valid) 0xdc-0xdd (1)
     |                                               |                |                      [1]{}: instr 0xdd-0xdf (2)
0x0d0|                                       41      |             A  |                        opcode: "i32.const" (0x41) 0xdd-0xde (1)
0x0d0|                                          01   |              . |                        n: 1 (valid) 0xde-0xdf (1)
     |                                               |                |                      [2]{}: instr 0xdf-0xe2 (3)
0x0d0|                                             36|               6|                        opcode: "i32.store" (0x36) 0xdf-0xe0 (1)
     |                                               |                |                        m{}: 0xe0-0xe2 (2)
0x0e0|02                                             |.               |                          a: 2 (valid) 0xe0-0xe1 (1)
0x0e0|   00                                          | .              |                          o: 0 (valid) 0xe1-0xe2 (1)
     |                                               |                |                      [3]{}: instr 0xe2-0xe4 (2)
0x0e0|      0c                                       |  .             |                        opcode: "br" (0xc) 0xe2-0xe3 (1)
0x0e0|         00                                    |   .            |                        l: 0 (valid) 0xe3-0xe4 (1)
0x0e0|            0b                                 |    .           |                    end: 0xb (valid) 0xe4-0xe5 (1)
     |                                               |                |                  [1]{}: in 0xe5-0xe6 (1)
0x0e0|               0b                              |     .          |                    opcode: "end" (0xb) 0xe5-0xe6 (1)
     |                                               |                |            [3]{}: code 0xe6-0xf7 (17)
0x0e0|                  10                           |      .         |              size: 16 (valid) 0xe6-0xe7 (1)
     |                                               |                |              code{}: 0xe7-0xf7 (16)
     |                                               |                |                t{}: 0xe7-0xe8 (1)
0x0e0|                     00                        |       .        |                  n: 0 (valid) 0xe7-0xe8 (1)
     |                                               |                |                  x[0:0]: 0xe8-0xe8 (0)
     |                                               |                |                e[0:2]: 0xe8-0xf7 (15)
     |                                               |                |                  [0]{}: in 0xe8-0xf6 (14)
0x0e0|                        02                     |        .       |                    opcode: "block" (0x2) 0xe8-0xe9 (1)
0x0e0|                           40                  |         @      |                    bt: "ε" (64) 0xe9-0xea (1)
     |                                               |                |                    instructions[0:5]: 0xea-0xf5 (11)
     |                                               |                |                      [0]{}: instr 0xea-0xec (2)
0x0e0|                              41               |          A     |                        opcode: "i32.const" (0x41) 0xea-0xeb (1)
0x0e0|                                 00            |           .    |                        n: 0 (valid) 0xeb-0xec (1)
     |                                               |                |                      [1]{}: instr 0xec-0xee (2)
0x0e0|                                    41         |            A   |                        opcode: "i32.const" (0x41) 0xec-0xed (1)
0x0e0|                                       01      |             .  |                        n: 1 (valid) 0xed-0xee (1)
     |                                               |                |                      [2]{}: instr 0xee-0xf1 (3)
0x0e0|                                          36   |              6 |                        opcode: "i32.store" (0x36) 0xee-0xef (1)
     |                                               |                |                        m{}: 0xef-0xf1 (2)
0x0e0|                                             02|               .|                          a: 2 (valid) 0xef-0xf0 (1)
0x0f0|00                                             |.               |                          o: 0 (valid) 0xf0-0xf1 (1)
     |                                               |                |                      [3]{}: instr 0xf1-0xf3 (2)
0x0f0|   41                                          | A              |                        opcode: "i32.const" (0x41) 0xf1-0xf2 (1)
0x0f0|      01                                       |  .             |                        n: 1 (valid) 0xf2-0xf3 (1)
     |                                               |                |                      [4]{}: instr 0xf3-0xf5 (2)
0x0f0|         0d                                    |   .            |                        opcode: "br_if" (0xd) 0xf3-0xf4 (1)
0x0f0|            00                                 |    .           |                        l: 0 (valid) 0xf4-0xf5 (1)
0x0f0|               0b                              |     .          |                    end: 0xb (valid) 0xf5-0xf6 (1)
     |                                               |                |                  [1]{}: in 0xf6-0xf7 (1)
0x0f0|                  0b                           |      .         |                    opcode: "end" (0xb) 0xf6-0xf7 (1)
     |                                               |                |            [4]{}: code 0xf7-0x108 (17)
0x0f0|                     10                        |       .        |              size: 16 (valid) 0xf7-0xf8 (1)
     |                                               |                |              code{}: 0xf8-0x108 (16)
     |                                               |                |                t{}: 0xf8-0xf9 (1)
0x0f0|                        00                     |        .       |                  n: 0 (valid) 0xf8-0xf9 (1)
     |                                               |                |                  x[0:0]: 0xf9-0xf9 (0)
     |                                               |                |                e[0:2]: 0xf9-0x108 (15)
     |                                               |                |                  [0]{}: in 0xf9-0x107 (14)
0x0f0|                           02                  |         .      |                    opcode: "block" (0x2) 0xf9-0xfa (1)
0x0f0|                              40               |          @     |                    bt: "ε" (64) 0xfa-0xfb (1)
     |                                               |                |                    instructions[0:5]: 0xfb-0x106 (11)
     |                                               |                |                      [0]{}: instr 0xfb-0xfd (2)
0x0f0|                                 41            |           A    |                        opcode: "i32.const" (0x41) 0xfb-0xfc (1)
0x0f0|                                    06         |            .   |                        n: 6 (valid) 0xfc-0xfd (1)
     |                                               |                |                      [1]{}: instr 0xfd-0xff (2)
0x0f0|                                       41      |             A  |                        opcode: "i32.const" (0x41) 0xfd-0xfe (1)
0x0f0|                                          00   |              . |                        n: 0 (valid) 0xfe-0xff (1)
     |                                               |                |                      [2]{}: instr 0xff-0x101 (2)
0x0f0|                                             41|               A|                        opcode: "i32.const" (0x41) 0xff-0x100 (1)
0x100|01                                             |.               |                        n: 1 (valid) 0x100-0x101 (1)
     |                                               |                |                      [3]{}: instr 0x101-0x104 (3)
0x100|   36                                          | 6              |                        opcode: "i32.store" (0x36) 0x101-0x102 (1)
     |                                               |                |                        m{}: 0x102-0x104 (2)
0x100|      02                                       |  .             |                          a: 2 (valid) 0x102-0x103 (1)
0x100|         00                                    |   .            |                          o: 0 (valid) 0x103-0x104 (1)
     |                                               |                |                      [4]{}: instr 0x104-0x106 (2)
0x100|            0d                                 |    .           |                        opcode: "br_if" (0xd) 0x104-0x105 (1)
0x100|               00                              |     .          |                        l: 0 (valid) 0x105-0x106 (1)
0x100|                  0b                           |      .         |                    end: 0xb (valid) 0x106-0x107 (1)
     |                                               |                |                  [1]{}: in 0x107-0x108 (1)
0x100|                     0b                        |       .        |                    opcode: "end" (0xb) 0x107-0x108 (1)
     |                                               |                |            [5]{}: code 0x108-0x11a (18)
0x100|                        11                     |        .       |              size: 17 (valid) 0x108-0x109 (1)
     |                                               |                |              code{}: 0x109-0x11a (17)
     |                                               |                |                t{}: 0x109-0x10a (1)
0x100|                           00                  |         .      |                  n: 0 (valid) 0x109-0x10a (1)
     |                                               |                |                  x[0:0]: 0x10a-0x10a (0)
     |                                               |                |                e[0:2]: 0x10a-0x11a (16)
     |                                               |                |                  [0]{}: in 0x10a-0x119 (15)
0x100|                              02               |          .     |                    opcode: "block" (0x2) 0x10a-0x10b (1)
0x100|                                 40            |           @    |                    bt: "ε" (64) 0x10b-0x10c (1)
     |                                               |                |                    instructions[0:5]: 0x10c-0x118 (12)
     |                                               |                |                      [0]{}: instr 0x10c-0x10e (2)
0x100|                                    41         |            A   |                        opcode: "i32.const" (0x41) 0x10c-0x10d (1)
0x100|                                       00      |             .  |                        n: 0 (valid) 0x10d-0x10e (1)
     |                                               |                |                      [1]{}: instr 0x10e-0x110 (2)
0x100|                                          41   |              A |                        opcode: "i32.const" (0x41) 0x10e-0x10f (1)
0x100|                                             01|               .|                        n: 1 (valid) 0x10f-0x110 (1)
     |                                               |                |                      [2]{}: instr 0x110-0x113 (3)
0x110|36                                             |6               |                        opcode: "i32.store" (0x36) 0x110-0x111 (1)
     |                                               |                |                        m{}: 0x111-0x113 (2)
0x110|   02                                          | .              |                          a: 2 (valid) 0x111-0x112 (1)
0x110|      00                                       |  .             |                          o: 0 (valid) 0x112-0x113 (1)
     |                                               |                |                      [3]{}: instr 0x113-0x115 (2)
0x110|         41                                    |   A            |                        opcode: "i32.const" (0x41) 0x113-0x114 (1)
0x110|            01                                 |    .           |                        n: 1 (valid) 0x114-0x115 (1)
     |                                               |                |                      [4]{}: instr 0x115-0x118 (3)
0x110|               0e                              |     .          |                        opcode: "br_table" (0xe) 0x115-0x116 (1)
     |                                               |                |                        l{}: 0x116-0x117 (1)
0x110|                  00                           |      .         |                          n: 0 (valid) 0x116-0x117 (1)
     |                                               |                |                          x[0:0]: 0x117-0x117 (0)
0x110|                     00                        |       .        |                        lN: 0 (valid) 0x117-0x118 (1)
0x110|                        0b                     |        .       |                    end: 0xb (valid) 0x118-0x119 (1)
     |                                               |                |                  [1]{}: in 0x119-0x11a (1)
0x110|                           0b                  |         .      |                    opcode: "end" (0xb) 0x119-0x11a (1)
     |                                               |                |            [6]{}: code 0x11a-0x125 (11)
0x110|                              0a               |          .     |              size: 10 (valid) 0x11a-0x11b (1)
     |                                               |                |              code{}: 0x11b-0x125 (10)
     |                                               |                |                t{}: 0x11b-0x11c (1)
0x110|                                 00            |           .    |                  n: 0 (valid) 0x11b-0x11c (1)
     |                                               |                |                  x[0:0]: 0x11c-0x11c (0)
     |                                               |                |                e[0:5]: 0x11c-0x125 (9)
     |                                               |                |                  [0]{}: in 0x11c-0x11e (2)
0x110|                                    41         |            A   |                    opcode: "i32.const" (0x41) 0x11c-0x11d (1)
0x110|                                       00      |             .  |                    n: 0 (valid) 0x11d-0x11e (1)
     |                                               |                |                  [1]{}: in 0x11e-0x120 (2)
0x110|                                          41   |              A |                    opcode: "i32.const" (0x41) 0x11e-0x11f (1)
0x110|                                             01|               .|                    n: 1 (valid) 0x11f-0x120 (1)
     |                                               |                |                  [2]{}: in 0x120-0x123 (3)
0x120|36                                             |6               |                    opcode: "i32.store" (0x36) 0x120-0x121 (1)
     |                                               |                |                    m{}: 0x121-0x123 (2)
0x120|   02                                          | .              |                      a: 2 (valid) 0x121-0x122 (1)
0x120|      00                                       |  .             |                      o: 0 (valid) 0x122-0x123 (1)
     |                                               |                |                  [3]{}: in 0x123-0x124 (1)
0x120|         0f                                    |   .            |                    opcode: "return" (0xf) 0x123-0x124 (1)
     |                                               |                |                  [4]{}: in 0x124-0x125 (1)
0x120|            0b                                 |    .           |                    opcode: "end" (0xb) 0x124-0x125 (1)
     |                                               |                |            [7]{}: code 0x125-0x134 (15)
0x120|               0e                              |     .          |              size: 14 (valid) 0x125-0x126 (1)
     |                                               |                |              code{}: 0x126-0x134 (14)
     |                                               |                |                t{}: 0x126-0x127 (1)
0x120|                  00                           |      .         |                  n: 0 (valid) 0x126-0x127 (1)
     |                                               |                |                  x[0:0]: 0x127-0x127 (0)
     |                                               |                |                e[0:3]: 0x127-0x134 (13)
     |                                               |                |                  [0]{}: in 0x127-0x129 (2)
0x120|                     41                        |       A        |                    opcode: "i32.const" (0x41) 0x127-0x128 (1)
0x120|                        01                     |        .       |                    n: 1 (valid) 0x128-0x129 (1)
     |                                               |                |                  [1]{}: in 0x129-0x133 (10)
0x120|                           04                  |         .      |                    opcode: "if" (0x4) 0x129-0x12a (1)
0x120|                              40               |          @     |                    bt: "ε" (64) 0x12a-0x12b (1)
     |                                               |                |                    in1[0:3]: 0x12b-0x132 (7)
     |                                               |                |                      [0]{}: instr 0x12b-0x12d (2)
0x120|                                 41            |           A    |                        opcode: "i32.const" (0x41) 0x12b-0x12c (1)
0x120|                                    00         |            .   |                        n: 0 (valid) 0x12c-0x12d (1)
     |                                               |                |                      [1]{}: instr 0x12d-0x12f (2)
0x120|                                       41      |             A  |                        opcode: "i32.const" (0x41) 0x12d-0x12e (1)
0x120|                                          01   |              . |                        n: 1 (valid) 0x12e-0x12f (1)
     |                                               |                |                      [2]{}: instr 0x12f-0x132 (3)
0x120|                                             36|               6|                        opcode: "i32.store" (0x36) 0x12f-0x130 (1)
     |                                               |                |                        m{}: 0x130-0x132 (2)
0x130|02                                             |.               |                          a: 2 (valid) 0x130-0x131 (1)
0x130|   00                                          | .              |                          o: 0 (valid) 0x131-0x132 (1)
0x130|      0b                                       |  .             |                    end: 0xb (valid) 0x132-0x133 (1)
     |                                               |                |                  [2]{}: in 0x133-0x134 (1)
0x130|         0b                                    |   .            |                    opcode: "end" (0xb) 0x133-0x134 (1)
     |                                               |                |            [8]{}: code 0x134-0x144 (16)
0x130|            0f                                 |    .           |              size: 15 (valid) 0x134-0x135 (1)
     |                                               |                |              code{}: 0x135-0x144 (15)
     |                                               |                |                t{}: 0x135-0x136 (1)
0x130|               00                              |     .          |                  n: 0 (valid) 0x135-0x136 (1)
     |                                               |                |                  x[0:0]: 0x136-0x136 (0)
     |                                               |                |                e[0:3]: 0x136-0x144 (14)
     |                                               |                |                  [0]{}: in 0x136-0x138 (2)
0x130|                  41                           |      A         |                    opcode: "i32.const" (0x41) 0x136-0x137 (1)
0x130|                     00                        |       .        |                    n: 0 (valid) 0x137-0x138 (1)
     |                                               |                |                  [1]{}: in 0x138-0x143 (11)
0x130|                        04                     |        .       |                    opcode: "if" (0x4) 0x138-0x139 (1)
0x130|                           40                  |         @      |                    bt: "ε" (64) 0x139-0x13a (1)
     |                                               |                |                    in1[0:0]: 0x13a-0x13a (0)
0x130|                              05               |          .     |                    else: 0x5 (valid) 0x13a-0x13b (1)
     |                                               |                |                    in2[0:3]: 0x13b-0x142 (7)
     |                                               |                |                      [0]{}: instr 0x13b-0x13d (2)
0x130|                                 41            |           A    |                        opcode: "i32.const" (0x41) 0x13b-0x13c (1)
0x130|                                    00         |            .   |                        n: 0 (valid) 0x13c-0x13d (1)
     |                                               |                |                      [1]{}: instr 0x13d-0x13f (2)
0x130|                                       41      |             A  |                        opcode: "i32.const" (0x41) 0x13d-0x13e (1)
0x130|                                          01   |              . |                        n: 1 (valid) 0x13e-0x13f (1)
     |                                               |                |                      [2]{}: instr 0x13f-0x142 (3)
0x130|                                             36|               6|                        opcode: "i32.store" (0x36) 0x13f-0x140 (1)
     |                                               |                |                        m{}: 0x140-0x142 (2)
0x140|02                                             |.               |                          a: 2 (valid) 0x140-0x141 (1)
0x140|   00                                          | .              |                          o: 0 (valid) 0x141-0x142 (1)
0x140|      0b                                       |  .             |                    end: 0xb (valid) 0x142-0x143 (1)
     |                                               |                |                  [2]{}: in 0x143-0x144 (1)
0x140|         0b|                                   |   .|           |                    opcode: "end" (0xb) 0x143-0x144 (1)
