$ fq -d wasm dv switch-0.wasm
     |00 01 02 03 04 05 06 07 08 09 0a 0b 0c 0d 0e 0f|0123456789abcdef|.{}: switch-0.wasm (wasm) 0x0-0x121 (289)
0x000|00 61 73 6d                                    |.asm            |  magic: raw bits (valid) 0x0-0x4 (4)
0x000|            01 00 00 00                        |    ....        |  version: 1 0x4-0x8 (4)
     |                                               |                |  sections[0:4]: 0x8-0x121 (281)
     |                                               |                |    [0]{}: section 0x8-0x19 (17)
0x000|                        01                     |        .       |      id: "type_section" (1) 0x8-0x9 (1)
0x000|                           0f                  |         .      |      size: 15 (valid) 0x9-0xa (1)
     |                                               |                |      content{}: 0xa-0x19 (15)
     |                                               |                |        ft{}: 0xa-0x19 (15)
0x000|                              03               |          .     |          n: 3 (valid) 0xa-0xb (1)
     |                                               |                |          x[0:3]: 0xb-0x19 (14)
     |                                               |                |            [0]{}: ft 0xb-0x10 (5)
0x000|                                 60            |           `    |              tag: 0x60 (valid) 0xb-0xc (1)
     |                                               |                |              rt1{}: 0xc-0xe (2)
0x000|                                    01         |            .   |                n: 1 (valid) 0xc-0xd (1)
     |                                               |                |                x[0:1]: 0xd-0xe (1)
0x000|                                       7f      |             .  |                  [0]: "i32" (0x7f) t 0xd-0xe (1)
     |                                               |                |              rt2{}: 0xe-0x10 (2)
0x000|                                          01   |              . |                n: 1 (valid) 0xe-0xf (1)
     |                                               |                |                x[0:1]: 0xf-0x10 (1)
0x000|                                             7f|               .|                  [0]: "i32" (0x7f) t 0xf-0x10 (1)
     |                                               |                |            [1]{}: ft 0x10-0x15 (5)
0x010|60                                             |`               |              tag: 0x60 (valid) 0x10-0x11 (1)
     |                                               |                |              rt1{}: 0x11-0x13 (2)
0x010|   01                                          | .              |                n: 1 (valid) 0x11-0x12 (1)
     |                                               |                |                x[0:1]: 0x12-0x13 (1)
0x010|      7e                                       |  ~             |                  [0]: "i64" (0x7e) t 0x12-0x13 (1)
     |                                               |                |              rt2{}: 0x13-0x15 (2)
0x010|         01                                    |   .            |                n: 1 (valid) 0x13-0x14 (1)
     |                                               |                |                x[0:1]: 0x14-0x15 (1)
0x010|            7e                                 |    ~           |                  [0]: "i64" (0x7e) t 0x14-0x15 (1)
     |                                               |                |            [2]{}: ft 0x15-0x19 (4)
0x010|               60                              |     `          |              tag: 0x60 (valid) 0x15-0x16 (1)
     |                                               |                |              rt1{}: 0x16-0x17 (1)
0x010|                  00                           |      .         |                n: 0 (valid) 0x16-0x17 (1)
     |                                               |                |                x[0:0]: 0x17-0x17 (0)
     |                                               |                |              rt2{}: 0x17-0x19 (2)
0x010|                     01                        |       .        |                n: 1 (valid) 0x17-0x18 (1)
     |                                               |                |                x[0:1]: 0x18-0x19 (1)
0x010|                        7f                     |        .       |                  [0]: "i32" (0x7f) t 0x18-0x19 (1)
     |                                               |                |    [1]{}: section 0x19-0x20 (7)
0x010|                           03                  |         .      |      id: "function_section" (3) 0x19-0x1a (1)
0x010|                              05               |          .     |      size: 5 (valid) 0x1a-0x1b (1)
     |                                               |                |      content{}: 0x1b-0x20 (5)
     |                                               |                |        x{}: 0x1b-0x20 (5)
0x010|                                 04            |           .    |          n: 4 (valid) 0x1b-0x1c (1)
     |                                               |                |          x[0:4]: 0x1c-0x20 (4)
0x010|                                    00         |            .   |            [0]: 0 x (valid) 0x1c-0x1d (1)
0x010|                                       01      |             .  |            [1]: 1 x (valid) 0x1d-0x1e (1)
0x010|                                          00   |              . |            [2]: 0 x (valid) 0x1e-0x1f (1)
0x010|                                             02|               .|            [3]: 2 x (valid) 0x1f-0x20 (1)
     |                                               |                |    [2]{}: section 0x20-0x40 (32)
0x020|07                                             |.               |      id: "export_section" (7) 0x20-0x21 (1)
0x020|   1e                                          | .              |      size: 30 (valid) 0x21-0x22 (1)
     |                                               |                |      content{}: 0x22-0x40 (30)
     |                                               |                |        ex{}: 0x22-0x40 (30)
0x020|      04                                       |  .             |          n: 4 (valid) 0x22-0x23 (1)
     |                                               |                |          x[0:4]: 0x23-0x40 (29)
     |                                               |                |            [0]{}: ex 0x23-0x2a (7)
     |                                               |                |              nm{}: 0x23-0x28 (5)
0x020|         04                                    |   .            |                n: 4 (valid) 0x23-0x24 (1)
0x020|            73 74 6d 74                        |    stmt        |                b: "stmt" 0x24-0x28 (4)
     |                                               |                |              d{}: 0x28-0x2a (2)
0x020|                        00                     |        .       |                tag: "funcidx" (0x0) 0x28-0x29 (1)
0x020|                           00                  |         .      |                x: 0 (valid) 0x29-0x2a (1)
     |                                               |                |            [1]{}: ex 0x2a-0x31 (7)
     |                                               |                |              nm{}: 0x2a-0x2f (5)
0x020|                              04               |          .     |                n: 4 (valid) 0x2a-0x2b (1)
0x020|                                 65 78 70 72   |           expr |                b: "expr" 0x2b-0x2f (4)
     |                                               |                |              d{}: 0x2f-0x31 (2)
0x020|                                             00|               .|                tag: "funcidx" (0x0) 0x2f-0x30 (1)
0x030|01                                             |.               |                x: 1 (valid) 0x30-0x31 (1)
     |                                               |                |            [2]{}: ex 0x31-0x37 (6)
     |                                               |                |              nm{}: 0x31-0x35 (4)
0x030|   03                                          | .              |                n: 3 (valid) 0x31-0x32 (1)
0x030|      61 72 67                                 |  arg           |                b: "arg" 0x32-0x35 (3)
     |                                               |                |              d{}: 0x35-0x37 (2)
0x030|               00                              |     .          |                tag: "funcidx" (0x0) 0x35-0x36 (1)
0x030|                  02                           |      .         |                x: 2 (valid) 0x36-0x37 (1)
     |                                               |                |            [3]{}: ex 0x37-0x40 (9)
     |                                               |                |              nm{}: 0x37-0x3e (7)
0x030|                     06                        |       .        |                n: 6 (valid) 0x37-0x38 (1)
0x030|                        63 6f 72 6e 65 72      |        corner  |                b: "corner" 0x38-0x3e (6)
     |                                               |                |              d{}: 0x3e-0x40 (2)
0x030|                                          00   |              . |                tag: "funcidx" (0x0) 0x3e-0x3f (1)
0x030|                                             03|               .|                x: 3 (valid) 0x3f-0x40 (1)
     |                                               |                |    [3]{}: section 0x40-0x121 (225)
0x040|0a                                             |.               |      id: "code_section" (10) 0x40-0x41 (1)
0x040|   de 01                                       | ..             |      size: 222 (valid) 0x41-0x43 (2)
     |                                               |                |      content{}: 0x43-0x121 (222)
     |                                               |                |        code{}: 0x43-0x121 (222)
0x040|         04                                    |   .            |          n: 4 (valid) 0x43-0x44 (1)
     |                                               |                |          x[0:4]: 0x44-0x121 (221)
     |                                               |                |            [0]{}: code 0x44-0x9c (88)
0x040|            57                                 |    W           |              size: 87 (valid) 0x44-0x45 (1)
     |                                               |                |              code{}: 0x45-0x9c (87)
     |                                               |                |                t{}: 0x45-0x48 (3)
0x040|               01                              |     .          |                  n: 1 (valid) 0x45-0x46 (1)
     |                                               |                |                  x[0:1]: 0x46-0x48 (2)
     |                                               |                |                    [0]{}: t 0x46-0x48 (2)
0x040|                  01                           |      .         |                      n: 1 (valid) 0x46-0x47 (1)
0x040|                     7f                        |       .        |                      t: "i32" (0x7f) 0x47-0x48 (1)
     |                                               |                |                e[0:6]: 0x48-0x9c (84)
     |                                               |                |                  [0]{}: in 0x48-0x4b (3)
0x040|                        41                     |        A       |                    opcode: "i32.const" (0x41) 0x48-0x49 (1)
0x040|                           e4 00               |         ..     |                    n: 100 (valid) 0x49-0x4b (2)
     |                                               |                |                  [1]{}: in 0x4b-0x4d (2)
0x040|                                 21            |           !    |                    opcode: "local.set" (0x21) 0x4b-0x4c (1)
0x040|                                    01         |            .   |                    x: 1 (valid) 0x4c-0x4d (1)
     |                                               |                |                  [2]{}: in 0x4d-0x98 (75)
0x040|                                       02      |             .  |                    opcode: "block" (0x2) 0x4d-0x4e (1)
0x040|                                          40   |              @ |                    bt: "ε" (64) 0x4e-0x4f (1)
     |                                               |                |                    instructions[0:1]: 0x4f-0x97 (72)
     |                                               |                |                      [0]{}: instr 0x4f-0x97 (72)
0x040|                                             02|               .|                        opcode: "block" (0x2) 0x4f-0x50 (1)
0x050|40                                             |@               |                        bt: "ε" (64) 0x50-0x51 (1)
     |                                               |                |                        instructions[0:3]: 0x51-0x96 (69)
     |                                               |                |                          [0]{}: instr 0x51-0x91 (64)
0x050|   02                                          | .              |                            opcode: "block" (0x2) 0x51-0x52 (1)
0x050|      40                                       |  @             |                            bt: "ε" (64) 0x52-0x53 (1)
     |                                               |                |                            instructions[0:3]: 0x53-0x90 (61)
     |                                               |                |                              [0]{}: instr 0x53-0x8b (56)
0x050|         02                                    |   .            |                                opcode: "block" (0x2) 0x53-0x54 (1)
0x050|            40                                 |    @           |                                bt: "ε" (64) 0x54-0x55 (1)
     |                                               |                |                                instructions[0:4]: 0x55-0x8a (53)
     |                                               |                |                                  [0]{}: instr 0x55-0x83 (46)
0x050|               02                              |     .          |                                    opcode: "block" (0x2) 0x55-0x56 (1)
0x050|                  40                           |      @         |                                    bt: "ε" (64) 0x56-0x57 (1)
     |                                               |                |                                    instructions[0:2]: 0x57-0x82 (43)
     |                                               |                |                                      [0]{}: instr 0x57-0x80 (41)
0x050|                     02                        |       .        |                                        opcode: "block" (0x2) 0x57-0x58 (1)
0x050|                        40                     |        @       |                                        bt: "ε" (64) 0x58-0x59 (1)
     |                                               |                |                                        instructions[0:6]: 0x59-0x7f (38)
     |                                               |                |                                          [0]{}: instr 0x59-0x76 (29)
0x050|                           02                  |         .      |                                            opcode: "block" (0x2) 0x59-0x5a (1)
0x050|                              40               |          @     |                                            bt: "ε" (64) 0x5a-0x5b (1)
     |                                               |                |                                            instructions[0:1]: 0x5b-0x75 (26)
     |                                               |                |                                              [0]{}: instr 0x5b-0x75 (26)
0x050|                                 02            |           .    |                                                opcode: "block" (0x2) 0x5b-0x5c (1)
0x050|                                    40         |            @   |                                                bt: "ε" (64) 0x5c-0x5d (1)
     |                                               |                |                                                instructions[0:2]: 0x5d-0x74 (23)
     |                                               |                |                                                  [0]{}: instr 0x5d-0x73 (22)
0x050|                                       02      |             .  |                                                    opcode: "block" (0x2) 0x5d-0x5e (1)
0x050|                                          40   |              @ |                                                    bt: "ε" (64) 0x5e-0x5f (1)
     |                                               |                |                                                    instructions[0:3]: 0x5f-0x72 (19)
     |                                               |                |                                                      [0]{}: instr 0x5f-0x6f (16)
0x050|                                             02|               .|                                                        opcode: "block" (0x2) 0x5f-0x60 (1)
0x060|40                                             |@               |                                                        bt: "ε" (64) 0x60-0x61 (1)
     |                                               |                |                                                        instructions[0:2]: 0x61-0x6e (13)
     |                                               |                |                                                          [0]{}: instr 0x61-0x63 (2)
0x060|   20                                          |                |                                                            opcode: "local.get" (0x20) 0x61-0x62 (1)
0x060|      00                                       |  .             |                                                            x: 0 (valid) 0x62-0x63 (1)
     |                                               |                |                                                          [1]{}: instr 0x63-0x6e (11)
0x060|         0e                                    |   .            |                                                            opcode: "br_table" (0xe) 0x63-0x64 (1)
     |                                               |                |                                                            l{}: 0x64-0x6d (9)
0x060|            08                                 |    .           |                                                              n: 8 (valid) 0x64-0x65 (1)
     |                                               |                |                                                              x[0:8]: 0x65-0x6d (8)
0x060|               00                              |     .          |                                                                [0]: 0 l (valid) 0x65-0x66 (1)
0x060|                  01                           |      .         |                                                                [1]: 1 l (valid) 0x66-0x67 (1)
0x060|                     02                        |       .        |                                                                [2]: 2 l (valid) 0x67-0x68 (1)
0x060|                        03                     |        .       |                                                                [3]: 3 l (valid) 0x68-0x69 (1)
0x060|                           04                  |         .      |                                                                [4]: 4 l (valid) 0x69-0x6a (1)
0x060|                              05               |          .     |                                                                [5]: 5 l (valid) 0x6a-0x6b (1)
0x060|                                 06            |           .    |                                                                [6]: 6 l (valid) 0x6b-0x6c (1)
0x060|                                    08         |            .   |                                                                [7]: 8 l (valid) 0x6c-0x6d (1)
0x060|                                       07      |             .  |                                                            lN: 7 (valid) 0x6d-0x6e (1)
0x060|                                          0b   |              . |                                                        end: 0xb (valid) 0x6e-0x6f (1)
     |                                               |                |                                                      [1]{}: instr 0x6f-0x71 (2)
0x060|                                             20|                |                                                        opcode: "local.get" (0x20) 0x6f-0x70 (1)
0x070|00                                             |.               |                                                        x: 0 (valid) 0x70-0x71 (1)
     |                                               |                |                                                      [2]{}: instr 0x71-0x72 (1)
0x070|   0f                                          | .              |                                                        opcode: "return" (0xf) 0x71-0x72 (1)
0x070|      0b                                       |  .             |                                                    end: 0xb (valid) 0x72-0x73 (1)
     |                                               |                |                                                  [1]{}: instr 0x73-0x74 (1)
0x070|         01                                    |   .            |                                                    opcode: "nop" (0x1) 0x73-0x74 (1)
0x070|            0b                                 |    .           |                                                end: 0xb (valid) 0x74-0x75 (1)
0x070|               0b                              |     .          |                                            end: 0xb (valid) 0x75-0x76 (1)
     |                                               |                |                                          [1]{}: instr 0x76-0x78 (2)
0x070|                  41                           |      A         |                                            opcode: "i32.const" (0x41) 0x76-0x77 (1)
0x070|                     00                        |       .        |                                            n: 0 (valid) 0x77-0x78 (1)
     |                                               |                |                                          [2]{}: instr 0x78-0x7a (2)
0x070|                        20                     |                |                                            opcode: "local.get" (0x20) 0x78-0x79 (1)
0x070|                           00                  |         .      |                                            x: 0 (valid) 0x79-0x7a (1)
     |                                               |                |                                          [3]{}: instr 0x7a-0x7b (1)
0x070|                              6b               |          k     |                                            opcode: "i32.sub" (0x6b) 0x7a-0x7b (1)
     |                                               |                |                                          [4]{}: instr 0x7b-0x7d (2)
0x070|                                 21            |           !    |                                            opcode: "local.set" (0x21) 0x7b-0x7c (1)
0x070|                                    01         |            .   |                                            x: 1 (valid) 0x7c-0x7d (1)
     |                                               |                |                                          [5]{}: instr 0x7d-0x7f (2)
0x070|                                       0c      |             .  |                                            opcode: "br" (0xc) 0x7d-0x7e (1)
0x070|                                          05   |              . |                                            l: 5 (valid) 0x7e-0x7f (1)
0x070|                                             0b|               .|                                        end: 0xb (valid) 0x7f-0x80 (1)
     |                                               |                |                                      [1]{}: instr 0x80-0x82 (2)
0x080|0c                                             |.               |                                        opcode: "br" (0xc) 0x80-0x81 (1)
0x080|   04                                          | .              |                                        l: 4 (valid) 0x81-0x82 (1)
0x080|      0b                                       |  .             |                                    end: 0xb (valid) 0x82-0x83 (1)
     |                                               |                |                                  [1]{}: instr 0x83-0x86 (3)
0x080|         41                                    |   A            |                                    opcode: "i32.const" (0x41) 0x83-0x84 (1)
0x080|            e5 00                              |    ..          |                                    n: 101 (valid) 0x84-0x86 (2)
     |                                               |                |                                  [2]{}: instr 0x86-0x88 (2)
0x080|                  21                           |      !         |                                    opcode: "local.set" (0x21) 0x86-0x87 (1)
0x080|                     01                        |       .        |                                    x: 1 (valid) 0x87-0x88 (1)
     |                                               |                |                                  [3]{}: instr 0x88-0x8a (2)
0x080|                        0c                     |        .       |                                    opcode: "br" (0xc) 0x88-0x89 (1)
0x080|                           03                  |         .      |                                    l: 3 (valid) 0x89-0x8a (1)
0x080|                              0b               |          .     |                                end: 0xb (valid) 0x8a-0x8b (1)
     |                                               |                |                              [1]{}: instr 0x8b-0x8e (3)
0x080|                                 41            |           A    |                                opcode: "i32.const" (0x41) 0x8b-0x8c (1)
0x080|                                    e5 00      |            ..  |                                n: 101 (valid) 0x8c-0x8e (2)
     |                                               |                |                              [2]{}: instr 0x8e-0x90 (2)
0x080|                                          21   |              ! |                                opcode: "local.set" (0x21) 0x8e-0x8f (1)
0x080|                                             01|               .|                                x: 1 (valid) 0x8f-0x90 (1)
0x090|0b                                             |.               |                            end: 0xb (valid) 0x90-0x91 (1)
     |                                               |                |                          [1]{}: instr 0x91-0x94 (3)
0x090|   41                                          | A              |                            opcode: "i32.const" (0x41) 0x91-0x92 (1)
0x090|      e6 00                                    |  ..            |                            n: 102 (valid) 0x92-0x94 (2)
     |                                               |                |                          [2]{}: instr 0x94-0x96 (2)
0x090|            21                                 |    !           |                            opcode: "local.set" (0x21) 0x94-0x95 (1)
0x090|               01                              |     .          |                            x: 1 (valid) 0x95-0x96 (1)
0x090|                  0b                           |      .         |                        end: 0xb (valid) 0x96-0x97 (1)
0x090|                     0b                        |       .        |                    end: 0xb (valid) 0x97-0x98 (1)
     |                                               |                |                  [3]{}: in 0x98-0x9a (2)
0x090|                        20                     |                |                    opcode: "local.get" (0x20) 0x98-0x99 (1)
0x090|                           01                  |         .      |                    x: 1 (valid) 0x99-0x9a (1)
     |                                               |                |                  [4]{}: in 0x9a-0x9b (1)
0x090|                              0f               |          .     |                    opcode: "return" (0xf) 0x9a-0x9b (1)
     |                                               |                |                  [5]{}: in 0x9b-0x9c (1)
0x090|                                 0b            |           .    |                    opcode: "end" (0xb) 0x9b-0x9c (1)
     |                                               |                |            [1]{}: code 0x9c-0xe9 (77)
0x090|                                    4c         |            L   |              size: 76 (valid) 0x9c-0x9d (1)
     |                                               |                |              code{}: 0x9d-0xe9 (76)
     |                                               |                |                t{}: 0x9d-0xa0 (3)
0x090|                                       01      |             .  |                  n: 1 (valid) 0x9d-0x9e (1)
     |                                               |                |                  x[0:1]: 0x9e-0xa0 (2)
     |                                               |                |                    [0]{}: t 0x9e-0xa0 (2)
0x090|                                          01   |              . |                      n: 1 (valid) 0x9e-0x9f (1)
0x090|                                             7e|               ~|                      t: "i64" (0x7e) 0x9f-0xa0 (1)
     |                                               |                |                e[0:5]: 0xa0-0xe9 (73)
     |                                               |                |                  [0]{}: in 0xa0-0xa3 (3)
0x0a0|42                                             |B               |                    opcode: "i64.const" (0x42) 0xa0-0xa1 (1)
0x0a0|   e4 00                                       | ..             |                    n: 100 0xa1-0xa3 (2)
     |                                               |                |                  [1]{}: in 0xa3-0xa5 (2)
0x0a0|         21                                    |   !            |                    opcode: "local.set" (0x21) 0xa3-0xa4 (1)
0x0a0|            01                                 |    .           |                    x: 1 (valid) 0xa4-0xa5 (1)
     |                                               |                |                  [2]{}: in 0xa5-0xe7 (66)
0x0a0|               02                              |     .          |                    opcode: "block" (0x2) 0xa5-0xa6 (1)
0x0a0|                  7e                           |      ~         |                    bt: "i64" (126) 0xa6-0xa7 (1)
     |                                               |                |                    instructions[0:2]: 0xa7-0xe6 (63)
     |                                               |                |                      [0]{}: instr 0xa7-0xe4 (61)
0x0a0|                     02                        |       .        |                        opcode: "block" (0x2) 0xa7-0xa8 (1)
0x0a0|                        40                     |        @       |                        bt: "ε" (64) 0xa8-0xa9 (1)
     |                                               |                |                        instructions[0:3]: 0xa9-0xe3 (58)
     |                                               |                |                          [0]{}: instr 0xa9-0xdf (54)
0x0a0|                           02                  |         .      |                            opcode: "block" (0x2) 0xa9-0xaa (1)
0x0a0|                              40               |          @     |                            bt: "ε" (64) 0xaa-0xab (1)
     |                                               |                |                            instructions[0:1]: 0xab-0xde (51)
     |                                               |                |                              [0]{}: instr 0xab-0xde (51)
0x0a0|                                 02            |           .    |                                opcode: "block" (0x2) 0xab-0xac (1)
0x0a0|                                    40         |            @   |                                bt: "ε" (64) 0xac-0xad (1)
     |                                               |                |                                instructions[0:1]: 0xad-0xdd (48)
     |                                               |                |                                  [0]{}: instr 0xad-0xdd (48)
0x0a0|                                       02      |             .  |                                    opcode: "block" (0x2) 0xad-0xae (1)
0x0a0|                                          40   |              @ |                                    bt: "ε" (64) 0xae-0xaf (1)
     |                                               |                |                                    instructions[0:3]: 0xaf-0xdc (45)
     |                                               |                |                                      [0]{}: instr 0xaf-0xd7 (40)
0x0a0|                                             02|               .|                                        opcode: "block" (0x2) 0xaf-0xb0 (1)
0x0b0|40                                             |@               |                                        bt: "ε" (64) 0xb0-0xb1 (1)
     |                                               |                |                                        instructions[0:5]: 0xb1-0xd6 (37)
     |                                               |                |                                          [0]{}: instr 0xb1-0xcf (30)
0x0b0|   02                                          | .              |                                            opcode: "block" (0x2) 0xb1-0xb2 (1)
0x0b0|      40                                       |  @             |                                            bt: "ε" (64) 0xb2-0xb3 (1)
     |                                               |                |                                            instructions[0:1]: 0xb3-0xce (27)
     |                                               |                |                                              [0]{}: instr 0xb3-0xce (27)
0x0b0|         02                                    |   .            |                                                opcode: "block" (0x2) 0xb3-0xb4 (1)
0x0b0|            40                                 |    @           |                                                bt: "ε" (64) 0xb4-0xb5 (1)
     |                                               |                |                                                instructions[0:2]: 0xb5-0xcd (24)
     |                                               |                |                                                  [0]{}: instr 0xb5-0xcc (23)
0x0b0|               02                              |     .          |                                                    opcode: "block" (0x2) 0xb5-0xb6 (1)
0x0b0|                  40                           |      @         |                                                    bt: "ε" (64) 0xb6-0xb7 (1)
     |                                               |                |                                                    instructions[0:3]: 0xb7-0xcb (20)
     |                                               |                |                                                      [0]{}: instr 0xb7-0xc8 (17)
0x0b0|                     02                        |       .        |                                                        opcode: "block" (0x2) 0xb7-0xb8 (1)
0x0b0|                        40                     |        @       |                                                        bt: "ε" (64) 0xb8-0xb9 (1)
     |                                               |                |                                                        instructions[0:3]: 0xb9-0xc7 (14)
     |                                               |                |                                                          [0]{}: instr 0xb9-0xbb (2)
0x0b0|                           20                  |                |                                                            opcode: "local.get" (0x20) 0xb9-0xba (1)
0x0b0|                              00               |          .     |                                                            x: 0 (valid) 0xba-0xbb (1)
     |                                               |                |                                                          [1]{}: instr 0xbb-0xbc (1)
0x0b0|                                 a7            |           .    |                                                            opcode: "i32.wrap_i64" (0xa7) 0xbb-0xbc (1)
     |                                               |                |                                                          [2]{}: instr 0xbc-0xc7 (11)
0x0b0|                                    0e         |            .   |                                                            opcode: "br_table" (0xe) 0xbc-0xbd (1)
     |                                               |                |                                                            l{}: 0xbd-0xc6 (9)
0x0b0|                                       08      |             .  |                                                              n: 8 (valid) 0xbd-0xbe (1)
     |                                               |                |                                                              x[0:8]: 0xbe-0xc6 (8)
0x0b0|                                          00   |              . |                                                                [0]: 0 l (valid) 0xbe-0xbf (1)
0x0b0|                                             01|               .|                                                                [1]: 1 l (valid) 0xbf-0xc0 (1)
0x0c0|02                                             |.               |                                                                [2]: 2 l (valid) 0xc0-0xc1 (1)
0x0c0|   03                                          | .              |                                                                [3]: 3 l (valid) 0xc1-0xc2 (1)
0x0c0|      06                                       |  .             |                                                                [4]: 6 l (valid) 0xc2-0xc3 (1)
0x0c0|         05                                    |   .            |                                                                [5]: 5 l (valid) 0xc3-0xc4 (1)
0x0c0|            04                                 |    .           |                                                                [6]: 4 l (valid) 0xc4-0xc5 (1)
0x0c0|               08                              |     .          |                                                                [7]: 8 l (valid) 0xc5-0xc6 (1)
0x0c0|                  07                           |      .         |                                                            lN: 7 (valid) 0xc6-0xc7 (1)
0x0c0|                     0b                        |       .        |                                                        end: 0xb (valid) 0xc7-0xc8 (1)
     |                                               |                |                                                      [1]{}: instr 0xc8-0xca (2)
0x0c0|                        20                     |                |                                                        opcode: "local.get" (0x20) 0xc8-0xc9 (1)
0x0c0|                           00                  |         .      |                                                        x: 0 (valid) 0xc9-0xca (1)
     |                                               |                |                                                      [2]{}: instr 0xca-0xcb (1)
0x0c0|                              0f               |          .     |                                                        opcode: "return" (0xf) 0xca-0xcb (1)
0x0c0|                                 0b            |           .    |                                                    end: 0xb (valid) 0xcb-0xcc (1)
     |                                               |                |                                                  [1]{}: instr 0xcc-0xcd (1)
0x0c0|                                    01         |            .   |                                                    opcode: "nop" (0x1) 0xcc-0xcd (1)
0x0c0|                                       0b      |             .  |                                                end: 0xb (valid) 0xcd-0xce (1)
0x0c0|                                          0b   |              . |                                            end: 0xb (valid) 0xce-0xcf (1)
     |                                               |                |                                          [1]{}: instr 0xcf-0xd1 (2)
0x0c0|                                             42|               B|                                            opcode: "i64.const" (0x42) 0xcf-0xd0 (1)
0x0d0|00                                             |.               |                                            n: 0 0xd0-0xd1 (1)
     |                                               |                |                                          [2]{}: instr 0xd1-0xd3 (2)
0x0d0|   20                                          |                |                                            opcode: "local.get" (0x20) 0xd1-0xd2 (1)
0x0d0|      00                                       |  .             |                                            x: 0 (valid) 0xd2-0xd3 (1)
     |                                               |                |                                          [3]{}: instr 0xd3-0xd4 (1)
0x0d0|         7d                                    |   }            |                                            opcode: "i64.sub" (0x7d) 0xd3-0xd4 (1)
     |                                               |                |                                          [4]{}: instr 0xd4-0xd6 (2)
0x0d0|            0c                                 |    .           |                                            opcode: "br" (0xc) 0xd4-0xd5 (1)
0x0d0|               05                              |     .          |                                            l: 5 (valid) 0xd5-0xd6 (1)
0x0d0|                  0b                           |      .         |                                        end: 0xb (valid) 0xd6-0xd7 (1)
     |                                               |                |                                      [1]{}: instr 0xd7-0xda (3)
0x0d0|                     42                        |       B        |                                        opcode: "i64.const" (0x42) 0xd7-0xd8 (1)
0x0d0|                        e5 00                  |        ..      |                                        n: 101 0xd8-0xda (2)
     |                                               |                |                                      [2]{}: instr 0xda-0xdc (2)
0x0d0|                              21               |          !     |                                        opcode: "local.set" (0x21) 0xda-0xdb (1)
0x0d0|                                 01            |           .    |                                        x: 1 (valid) 0xdb-0xdc (1)
0x0d0|                                    0b         |            .   |                                    end: 0xb (valid) 0xdc-0xdd (1)
0x0d0|                                       0b      |             .  |                                end: 0xb (valid) 0xdd-0xde (1)
0x0d0|                                          0b   |              . |                            end: 0xb (valid) 0xde-0xdf (1)
     |                                               |                |                          [1]{}: instr 0xdf-0xe1 (2)
0x0d0|                                             20|                |                            opcode: "local.get" (0x20) 0xdf-0xe0 (1)
0x0e0|01                                             |.               |                            x: 1 (valid) 0xe0-0xe1 (1)
     |                                               |                |                          [2]{}: instr 0xe1-0xe3 (2)
0x0e0|   0c                                          | .              |                            opcode: "br" (0xc) 0xe1-0xe2 (1)
0x0e0|      01                                       |  .             |                            l: 1 (valid) 0xe2-0xe3 (1)
0x0e0|         0b                                    |   .            |                        end: 0xb (valid) 0xe3-0xe4 (1)
     |                                               |                |                      [1]{}: instr 0xe4-0xe6 (2)
0x0e0|            42                                 |    B           |                        opcode: "i64.const" (0x42) 0xe4-0xe5 (1)
0x0e0|               7b                              |     {          |                        n: -5 0xe5-0xe6 (1)
0x0e0|                  0b                           |      .         |                    end: 0xb (valid) 0xe6-0xe7 (1)
     |                                               |                |                  [3]{}: in 0xe7-0xe8 (1)
0x0e0|                     0f                        |       .        |                    opcode: "return" (0xf) 0xe7-0xe8 (1)
     |                                               |                |                  [4]{}: in 0xe8-0xe9 (1)
0x0e0|                        0b                     |        .       |                    opcode: "end" (0xb) 0xe8-0xe9 (1)
     |                                               |                |            [2]{}: code 0xe9-0x114 (43)
0x0e0|                           2a                  |         *      |              size: 42 (valid) 0xe9-0xea (1)
     |                                               |                |              code{}: 0xea-0x114 (42)
     |                                               |                |                t{}: 0xea-0xeb (1)
0x0e0|                              00               |          .     |                  n: 0 (valid) 0xea-0xeb (1)
     |                                               |                |                  x[0:0]: 0xeb-0xeb (0)
     |                                               |                |                e[0:3]: 0xeb-0x114 (41)
     |                                               |                |                  [0]{}: in 0xeb-0x112 (39)
0x0e0|                                 02            |           .    |                    opcode: "block" (0x2) 0xeb-0xec (1)
0x0e0|                                    7f         |            .   |                    bt: "i32" (127) 0xec-0xed (1)
     |                                               |                |                    instructions[0:3]: 0xed-0x111 (36)
     |                                               |                |                      [0]{}: instr 0xed-0xef (2)
0x0e0|                                       41      |             A  |                        opcode: "i32.const" (0x41) 0xed-0xee (1)
0x0e0|                                          0a   |              . |                        n: 10 (valid) 0xee-0xef (1)
     |                                               |                |                      [1]{}: instr 0xef-0x110 (33)
0x0e0|                                             02|               .|                        opcode: "block" (0x2) 0xef-0xf0 (1)
0x0f0|7f                                             |.               |                        bt: "i32" (127) 0xf0-0xf1 (1)
     |                                               |                |                        instructions[0:3]: 0xf1-0x10f (30)
     |                                               |                |                          [0]{}: instr 0xf1-0xf4 (3)
0x0f0|   41                                          | A              |                            opcode: "i32.const" (0x41) 0xf1-0xf2 (1)
0x0f0|      e4 00                                    |  ..            |                            n: 100 (valid) 0xf2-0xf4 (2)
     |                                               |                |                          [1]{}: instr 0xf4-0x10e (26)
0x0f0|            02                                 |    .           |                            opcode: "block" (0x2) 0xf4-0xf5 (1)
0x0f0|               7f                              |     .          |                            bt: "i32" (127) 0xf5-0xf6 (1)
     |                                               |                |                            instructions[0:3]: 0xf6-0x10d (23)
     |                                               |                |                              [0]{}: instr 0xf6-0xf9 (3)
0x0f0|                  41                           |      A         |                                opcode: "i32.const" (0x41) 0xf6-0xf7 (1)
0x0f0|                     e8 07                     |       ..       |                                n: 1000 (valid) 0xf7-0xf9 (2)
     |                                               |                |                              [1]{}: instr 0xf9-0x10c (19)
0x0f0|                           02                  |         .      |                                opcode: "block" (0x2) 0xf9-0xfa (1)
0x0f0|                              7f               |          .     |                                bt: "i32" (127) 0xfa-0xfb (1)
     |                                               |                |                                instructions[0:7]: 0xfb-0x10b (16)
     |                                               |                |                                  [0]{}: instr 0xfb-0xfd (2)
0x0f0|                                 41            |           A    |                                    opcode: "i32.const" (0x41) 0xfb-0xfc (1)
0x0f0|                                    02         |            .   |                                    n: 2 (valid) 0xfc-0xfd (1)
     |                                               |                |                                  [1]{}: instr 0xfd-0xff (2)
0x0f0|                                       20      |                |                                    opcode: "local.get" (0x20) 0xfd-0xfe (1)
0x0f0|                                          00   |              . |                                    x: 0 (valid) 0xfe-0xff (1)
     |                                               |                |                                  [2]{}: instr 0xff-0x100 (1)
0x0f0|                                             6c|               l|                                    opcode: "i32.mul" (0x6c) 0xff-0x100 (1)
     |                                               |                |                                  [3]{}: instr 0x100-0x102 (2)
0x100|41                                             |A               |                                    opcode: "i32.const" (0x41) 0x100-0x101 (1)
0x100|   03                                          | .              |                                    n: 3 (valid) 0x101-0x102 (1)
     |                                               |                |                                  [4]{}: instr 0x102-0x104 (2)
0x100|      20                                       |                |                                    opcode: "local.get" (0x20) 0x102-0x103 (1)
0x100|         00                                    |   .            |                                    x: 0 (valid) 0x103-0x104 (1)
     |                                               |                |                                  [5]{}: instr 0x104-0x105 (1)
0x100|            71                                 |    q           |                                    opcode: "i32.and" (0x71) 0x104-0x105 (1)
     |                                               |                |                                  [6]{}: instr 0x105-0x10b (6)
0x100|               0e                              |     .          |                                    opcode: "br_table" (0xe) 0x105-0x106 (1)
     |                                               |                |                                    l{}: 0x106-0x10a (4)
0x100|                  03                           |      .         |                                      n: 3 (valid) 0x106-0x107 (1)
     |                                               |                |                                      x[0:3]: 0x107-0x10a (3)
0x100|                     01                        |       .        |                                        [0]: 1 l (valid) 0x107-0x108 (1)
0x100|                        02                     |        .       |                                        [1]: 2 l (valid) 0x108-0x109 (1)
0x100|                           03                  |         .      |                                        [2]: 3 l (valid) 0x109-0x10a (1)
0x100|                              00               |          .     |                                    lN: 0 (valid) 0x10a-0x10b (1)
0x100|                                 0b            |           .    |                                end: 0xb (valid) 0x10b-0x10c (1)
     |                                               |                |                              [2]{}: instr 0x10c-0x10d (1)
0x100|                                    6a         |            j   |                                opcode: "i32.add" (0x6a) 0x10c-0x10d (1)
0x100|                                       0b      |             .  |                            end: 0xb (valid) 0x10d-0x10e (1)
     |                                               |                |                          [2]{}: instr 0x10e-0x10f (1)
0x100|                                          6a   |              j |                            opcode: "i32.add" (0x6a) 0x10e-0x10f (1)
0x100|                                             0b|               .|                        end: 0xb (valid) 0x10f-0x110 (1)
     |                                               |                |                      [2]{}: instr 0x110-0x111 (1)
0x110|6a                                             |j               |                        opcode: "i32.add" (0x6a) 0x110-0x111 (1)
0x110|   0b                                          | .              |                    end: 0xb (valid) 0x111-0x112 (1)
     |                                               |                |                  [1]{}: in 0x112-0x113 (1)
0x110|      0f                                       |  .             |                    opcode: "return" (0xf) 0x112-0x113 (1)
     |                                               |                |                  [2]{}: in 0x113-0x114 (1)
0x110|         0b                                    |   .            |                    opcode: "end" (0xb) 0x113-0x114 (1)
     |                                               |                |            [3]{}: code 0x114-0x121 (13)
0x110|            0c                                 |    .           |              size: 12 (valid) 0x114-0x115 (1)
     |                                               |                |              code{}: 0x115-0x121 (12)
     |                                               |                |                t{}: 0x115-0x116 (1)
0x110|               00                              |     .          |                  n: 0 (valid) 0x115-0x116 (1)
     |                                               |                |                  x[0:0]: 0x116-0x116 (0)
     |                                               |                |                e[0:3]: 0x116-0x121 (11)
     |                                               |                |                  [0]{}: in 0x116-0x11e (8)
0x110|                  02                           |      .         |                    opcode: "block" (0x2) 0x116-0x117 (1)
0x110|                     40                        |       @        |                    bt: "ε" (64) 0x117-0x118 (1)
     |                                               |                |                    instructions[0:2]: 0x118-0x11d (5)
     |                                               |                |                      [0]{}: instr 0x118-0x11a (2)
0x110|                        41                     |        A       |                        opcode: "i32.const" (0x41) 0x118-0x119 (1)
0x110|                           00                  |         .      |                        n: 0 (valid) 0x119-0x11a (1)
     |                                               |                |                      [1]{}: instr 0x11a-0x11d (3)
0x110|                              0e               |          .     |                        opcode: "br_table" (0xe) 0x11a-0x11b (1)
     |                                               |                |                        l{}: 0x11b-0x11c (1)
0x110|                                 00            |           .    |                          n: 0 (valid) 0x11b-0x11c (1)
     |                                               |                |                          x[0:0]: 0x11c-0x11c (0)
0x110|                                    00         |            .   |                        lN: 0 (valid) 0x11c-0x11d (1)
0x110|                                       0b      |             .  |                    end: 0xb (valid) 0x11d-0x11e (1)
     |                                               |                |                  [1]{}: in 0x11e-0x120 (2)
0x110|                                          41   |              A |                    opcode: "i32.const" (0x41) 0x11e-0x11f (1)
0x110|                                             01|               .|                    n: 1 (valid) 0x11f-0x120 (1)
     |                                               |                |                  [2]{}: in 0x120-0x121 (1)
0x120|0b|                                            |.|              |                    opcode: "end" (0xb) 0x120-0x121 (1)
