$ fq -d wasm dv switch-0.wasm
     |00 01 02 03 04 05 06 07 08 09 0a 0b 0c 0d 0e 0f|0123456789abcdef|.{}: switch-0.wasm (wasm) 0x0-0x120.7 (289)
0x000|00 61 73 6d                                    |.asm            |  magic: raw bits (valid) 0x0-0x3.7 (4)
0x000|            01 00 00 00                        |    ....        |  version: 1 0x4-0x7.7 (4)
     |                                               |                |  sections[0:4]: 0x8-0x120.7 (281)
     |                                               |                |    [0]{}: section 0x8-0x18.7 (17)
0x000|                        01                     |        .       |      id: "type_section" (1) 0x8-0x8.7 (1)
0x000|                           0f                  |         .      |      size: 15 (valid) 0x9-0x9.7 (1)
     |                                               |                |      content{}: 0xa-0x18.7 (15)
     |                                               |                |        ft{}: 0xa-0x18.7 (15)
0x000|                              03               |          .     |          n: 3 (valid) 0xa-0xa.7 (1)
     |                                               |                |          x[0:3]: 0xb-0x18.7 (14)
     |                                               |                |            [0]{}: ft 0xb-0xf.7 (5)
0x000|                                 60            |           `    |              tag: 0x60 (valid) 0xb-0xb.7 (1)
     |                                               |                |              rt1{}: 0xc-0xd.7 (2)
0x000|                                    01         |            .   |                n: 1 (valid) 0xc-0xc.7 (1)
     |                                               |                |                x[0:1]: 0xd-0xd.7 (1)
0x000|                                       7f      |             .  |                  [0]: "i32" (0x7f) t 0xd-0xd.7 (1)
     |                                               |                |              rt2{}: 0xe-0xf.7 (2)
0x000|                                          01   |              . |                n: 1 (valid) 0xe-0xe.7 (1)
     |                                               |                |                x[0:1]: 0xf-0xf.7 (1)
0x000|                                             7f|               .|                  [0]: "i32" (0x7f) t 0xf-0xf.7 (1)
     |                                               |                |            [1]{}: ft 0x10-0x14.7 (5)
0x010|60                                             |`               |              tag: 0x60 (valid) 0x10-0x10.7 (1)
     |                                               |                |              rt1{}: 0x11-0x12.7 (2)
0x010|   01                                          | .              |                n: 1 (valid) 0x11-0x11.7 (1)
     |                                               |                |                x[0:1]: 0x12-0x12.7 (1)
0x010|      7e                                       |  ~             |                  [0]: "i64" (0x7e) t 0x12-0x12.7 (1)
     |                                               |                |              rt2{}: 0x13-0x14.7 (2)
0x010|         01                                    |   .            |                n: 1 (valid) 0x13-0x13.7 (1)
     |                                               |                |                x[0:1]: 0x14-0x14.7 (1)
0x010|            7e                                 |    ~           |                  [0]: "i64" (0x7e) t 0x14-0x14.7 (1)
     |                                               |                |            [2]{}: ft 0x15-0x18.7 (4)
0x010|               60                              |     `          |              tag: 0x60 (valid) 0x15-0x15.7 (1)
     |                                               |                |              rt1{}: 0x16-0x16.7 (1)
0x010|                  00                           |      .         |                n: 0 (valid) 0x16-0x16.7 (1)
     |                                               |                |                x[0:0]: 0x17-NA (0)
     |                                               |                |              rt2{}: 0x17-0x18.7 (2)
0x010|                     01                        |       .        |                n: 1 (valid) 0x17-0x17.7 (1)
     |                                               |                |                x[0:1]: 0x18-0x18.7 (1)
0x010|                        7f                     |        .       |                  [0]: "i32" (0x7f) t 0x18-0x18.7 (1)
     |                                               |                |    [1]{}: section 0x19-0x1f.7 (7)
0x010|                           03                  |         .      |      id: "function_section" (3) 0x19-0x19.7 (1)
0x010|                              05               |          .     |      size: 5 (valid) 0x1a-0x1a.7 (1)
     |                                               |                |      content{}: 0x1b-0x1f.7 (5)
     |                                               |                |        x{}: 0x1b-0x1f.7 (5)
0x010|                                 04            |           .    |          n: 4 (valid) 0x1b-0x1b.7 (1)
     |                                               |                |          x[0:4]: 0x1c-0x1f.7 (4)
0x010|                                    00         |            .   |            [0]: 0 x (valid) 0x1c-0x1c.7 (1)
0x010|                                       01      |             .  |            [1]: 1 x (valid) 0x1d-0x1d.7 (1)
0x010|                                          00   |              . |            [2]: 0 x (valid) 0x1e-0x1e.7 (1)
0x010|                                             02|               .|            [3]: 2 x (valid) 0x1f-0x1f.7 (1)
     |                                               |                |    [2]{}: section 0x20-0x3f.7 (32)
0x020|07                                             |.               |      id: "export_section" (7) 0x20-0x20.7 (1)
0x020|   1e                                          | .              |      size: 30 (valid) 0x21-0x21.7 (1)
     |                                               |                |      content{}: 0x22-0x3f.7 (30)
     |                                               |                |        ex{}: 0x22-0x3f.7 (30)
0x020|      04                                       |  .             |          n: 4 (valid) 0x22-0x22.7 (1)
     |                                               |                |          x[0:4]: 0x23-0x3f.7 (29)
     |                                               |                |            [0]{}: ex 0x23-0x29.7 (7)
     |                                               |                |              nm{}: 0x23-0x27.7 (5)
0x020|         04                                    |   .            |                n: 4 (valid) 0x23-0x23.7 (1)
0x020|            73 74 6d 74                        |    stmt        |                b: "stmt" 0x24-0x27.7 (4)
     |                                               |                |              d{}: 0x28-0x29.7 (2)
0x020|                        00                     |        .       |                tag: "funcidx" (0x0) 0x28-0x28.7 (1)
0x020|                           00                  |         .      |                x: 0 (valid) 0x29-0x29.7 (1)
     |                                               |                |            [1]{}: ex 0x2a-0x30.7 (7)
     |                                               |                |              nm{}: 0x2a-0x2e.7 (5)
0x020|                              04               |          .     |                n: 4 (valid) 0x2a-0x2a.7 (1)
0x020|                                 65 78 70 72   |           expr |                b: "expr" 0x2b-0x2e.7 (4)
     |                                               |                |              d{}: 0x2f-0x30.7 (2)
0x020|                                             00|               .|                tag: "funcidx" (0x0) 0x2f-0x2f.7 (1)
0x030|01                                             |.               |                x: 1 (valid) 0x30-0x30.7 (1)
     |                                               |                |            [2]{}: ex 0x31-0x36.7 (6)
     |                                               |                |              nm{}: 0x31-0x34.7 (4)
0x030|   03                                          | .              |                n: 3 (valid) 0x31-0x31.7 (1)
0x030|      61 72 67                                 |  arg           |                b: "arg" 0x32-0x34.7 (3)
     |                                               |                |              d{}: 0x35-0x36.7 (2)
0x030|               00                              |     .          |                tag: "funcidx" (0x0) 0x35-0x35.7 (1)
0x030|                  02                           |      .         |                x: 2 (valid) 0x36-0x36.7 (1)
     |                                               |                |            [3]{}: ex 0x37-0x3f.7 (9)
     |                                               |                |              nm{}: 0x37-0x3d.7 (7)
0x030|                     06                        |       .        |                n: 6 (valid) 0x37-0x37.7 (1)
0x030|                        63 6f 72 6e 65 72      |        corner  |                b: "corner" 0x38-0x3d.7 (6)
     |                                               |                |              d{}: 0x3e-0x3f.7 (2)
0x030|                                          00   |              . |                tag: "funcidx" (0x0) 0x3e-0x3e.7 (1)
0x030|                                             03|               .|                x: 3 (valid) 0x3f-0x3f.7 (1)
     |                                               |                |    [3]{}: section 0x40-0x120.7 (225)
0x040|0a                                             |.               |      id: "code_section" (10) 0x40-0x40.7 (1)
0x040|   de 01                                       | ..             |      size: 222 (valid) 0x41-0x42.7 (2)
     |                                               |                |      content{}: 0x43-0x120.7 (222)
     |                                               |                |        code{}: 0x43-0x120.7 (222)
0x040|         04                                    |   .            |          n: 4 (valid) 0x43-0x43.7 (1)
     |                                               |                |          x[0:4]: 0x44-0x120.7 (221)
     |                                               |                |            [0]{}: code 0x44-0x9b.7 (88)
0x040|            57                                 |    W           |              size: 87 (valid) 0x44-0x44.7 (1)
     |                                               |                |              code{}: 0x45-0x9b.7 (87)
     |                                               |                |                t{}: 0x45-0x47.7 (3)
0x040|               01                              |     .          |                  n: 1 (valid) 0x45-0x45.7 (1)
     |                                               |                |                  x[0:1]: 0x46-0x47.7 (2)
     |                                               |                |                    [0]{}: t 0x46-0x47.7 (2)
0x040|                  01                           |      .         |                      n: 1 (valid) 0x46-0x46.7 (1)
0x040|                     7f                        |       .        |                      t: "i32" (0x7f) 0x47-0x47.7 (1)
     |                                               |                |                e[0:6]: 0x48-0x9b.7 (84)
     |                                               |                |                  [0]{}: in 0x48-0x4a.7 (3)
0x040|                        41                     |        A       |                    opcode: "i32.const" (0x41) 0x48-0x48.7 (1)
0x040|                           e4 00               |         ..     |                    n: 100 (valid) 0x49-0x4a.7 (2)
     |                                               |                |                  [1]{}: in 0x4b-0x4c.7 (2)
0x040|                                 21            |           !    |                    opcode: "local.set" (0x21) 0x4b-0x4b.7 (1)
0x040|                                    01         |            .   |                    x: 1 (valid) 0x4c-0x4c.7 (1)
     |                                               |                |                  [2]{}: in 0x4d-0x97.7 (75)
0x040|                                       02      |             .  |                    opcode: "block" (0x2) 0x4d-0x4d.7 (1)
0x040|                                          40   |              @ |                    bt: "ε" (64) 0x4e-0x4e.7 (1)
     |                                               |                |                    instructions[0:1]: 0x4f-0x96.7 (72)
     |                                               |                |                      [0]{}: instr 0x4f-0x96.7 (72)
0x040|                                             02|               .|                        opcode: "block" (0x2) 0x4f-0x4f.7 (1)
0x050|40                                             |@               |                        bt: "ε" (64) 0x50-0x50.7 (1)
     |                                               |                |                        instructions[0:3]: 0x51-0x95.7 (69)
     |                                               |                |                          [0]{}: instr 0x51-0x90.7 (64)
0x050|   02                                          | .              |                            opcode: "block" (0x2) 0x51-0x51.7 (1)
0x050|      40                                       |  @             |                            bt: "ε" (64) 0x52-0x52.7 (1)
     |                                               |                |                            instructions[0:3]: 0x53-0x8f.7 (61)
     |                                               |                |                              [0]{}: instr 0x53-0x8a.7 (56)
0x050|         02                                    |   .            |                                opcode: "block" (0x2) 0x53-0x53.7 (1)
0x050|            40                                 |    @           |                                bt: "ε" (64) 0x54-0x54.7 (1)
     |                                               |                |                                instructions[0:4]: 0x55-0x89.7 (53)
     |                                               |                |                                  [0]{}: instr 0x55-0x82.7 (46)
0x050|               02                              |     .          |                                    opcode: "block" (0x2) 0x55-0x55.7 (1)
0x050|                  40                           |      @         |                                    bt: "ε" (64) 0x56-0x56.7 (1)
     |                                               |                |                                    instructions[0:2]: 0x57-0x81.7 (43)
     |                                               |                |                                      [0]{}: instr 0x57-0x7f.7 (41)
0x050|                     02                        |       .        |                                        opcode: "block" (0x2) 0x57-0x57.7 (1)
0x050|                        40                     |        @       |                                        bt: "ε" (64) 0x58-0x58.7 (1)
     |                                               |                |                                        instructions[0:6]: 0x59-0x7e.7 (38)
     |                                               |                |                                          [0]{}: instr 0x59-0x75.7 (29)
0x050|                           02                  |         .      |                                            opcode: "block" (0x2) 0x59-0x59.7 (1)
0x050|                              40               |          @     |                                            bt: "ε" (64) 0x5a-0x5a.7 (1)
     |                                               |                |                                            instructions[0:1]: 0x5b-0x74.7 (26)
     |                                               |                |                                              [0]{}: instr 0x5b-0x74.7 (26)
0x050|                                 02            |           .    |                                                opcode: "block" (0x2) 0x5b-0x5b.7 (1)
0x050|                                    40         |            @   |                                                bt: "ε" (64) 0x5c-0x5c.7 (1)
     |                                               |                |                                                instructions[0:2]: 0x5d-0x73.7 (23)
     |                                               |                |                                                  [0]{}: instr 0x5d-0x72.7 (22)
0x050|                                       02      |             .  |                                                    opcode: "block" (0x2) 0x5d-0x5d.7 (1)
0x050|                                          40   |              @ |                                                    bt: "ε" (64) 0x5e-0x5e.7 (1)
     |                                               |                |                                                    instructions[0:3]: 0x5f-0x71.7 (19)
     |                                               |                |                                                      [0]{}: instr 0x5f-0x6e.7 (16)
0x050|                                             02|               .|                                                        opcode: "block" (0x2) 0x5f-0x5f.7 (1)
0x060|40                                             |@               |                                                        bt: "ε" (64) 0x60-0x60.7 (1)
     |                                               |                |                                                        instructions[0:2]: 0x61-0x6d.7 (13)
     |                                               |                |                                                          [0]{}: instr 0x61-0x62.7 (2)
0x060|   20                                          |                |                                                            opcode: "local.get" (0x20) 0x61-0x61.7 (1)
0x060|      00                                       |  .             |                                                            x: 0 (valid) 0x62-0x62.7 (1)
     |                                               |                |                                                          [1]{}: instr 0x63-0x6d.7 (11)
0x060|         0e                                    |   .            |                                                            opcode: "br_table" (0xe) 0x63-0x63.7 (1)
     |                                               |                |                                                            l{}: 0x64-0x6c.7 (9)
0x060|            08                                 |    .           |                                                              n: 8 (valid) 0x64-0x64.7 (1)
     |                                               |                |                                                              x[0:8]: 0x65-0x6c.7 (8)
0x060|               00                              |     .          |                                                                [0]: 0 l (valid) 0x65-0x65.7 (1)
0x060|                  01                           |      .         |                                                                [1]: 1 l (valid) 0x66-0x66.7 (1)
0x060|                     02                        |       .        |                                                                [2]: 2 l (valid) 0x67-0x67.7 (1)
0x060|                        03                     |        .       |                                                                [3]: 3 l (valid) 0x68-0x68.7 (1)
0x060|                           04                  |         .      |                                                                [4]: 4 l (valid) 0x69-0x69.7 (1)
0x060|                              05               |          .     |                                                                [5]: 5 l (valid) 0x6a-0x6a.7 (1)
0x060|                                 06            |           .    |                                                                [6]: 6 l (valid) 0x6b-0x6b.7 (1)
0x060|                                    08         |            .   |                                                                [7]: 8 l (valid) 0x6c-0x6c.7 (1)
0x060|                                       07      |             .  |                                                            lN: 7 (valid) 0x6d-0x6d.7 (1)
0x060|                                          0b   |              . |                                                        end: 0xb (valid) 0x6e-0x6e.7 (1)
     |                                               |                |                                                      [1]{}: instr 0x6f-0x70.7 (2)
0x060|                                             20|                |                                                        opcode: "local.get" (0x20) 0x6f-0x6f.7 (1)
0x070|00                                             |.               |                                                        x: 0 (valid) 0x70-0x70.7 (1)
     |                                               |                |                                                      [2]{}: instr 0x71-0x71.7 (1)
0x070|   0f                                          | .              |                                                        opcode: "return" (0xf) 0x71-0x71.7 (1)
0x070|      0b                                       |  .             |                                                    end: 0xb (valid) 0x72-0x72.7 (1)
     |                                               |                |                                                  [1]{}: instr 0x73-0x73.7 (1)
0x070|         01                                    |   .            |                                                    opcode: "nop" (0x1) 0x73-0x73.7 (1)
0x070|            0b                                 |    .           |                                                end: 0xb (valid) 0x74-0x74.7 (1)
0x070|               0b                              |     .          |                                            end: 0xb (valid) 0x75-0x75.7 (1)
     |                                               |                |                                          [1]{}: instr 0x76-0x77.7 (2)
0x070|                  41                           |      A         |                                            opcode: "i32.const" (0x41) 0x76-0x76.7 (1)
0x070|                     00                        |       .        |                                            n: 0 (valid) 0x77-0x77.7 (1)
     |                                               |                |                                          [2]{}: instr 0x78-0x79.7 (2)
0x070|                        20                     |                |                                            opcode: "local.get" (0x20) 0x78-0x78.7 (1)
0x070|                           00                  |         .      |                                            x: 0 (valid) 0x79-0x79.7 (1)
     |                                               |                |                                          [3]{}: instr 0x7a-0x7a.7 (1)
0x070|                              6b               |          k     |                                            opcode: "i32.sub" (0x6b) 0x7a-0x7a.7 (1)
     |                                               |                |                                          [4]{}: instr 0x7b-0x7c.7 (2)
0x070|                                 21            |           !    |                                            opcode: "local.set" (0x21) 0x7b-0x7b.7 (1)
0x070|                                    01         |            .   |                                            x: 1 (valid) 0x7c-0x7c.7 (1)
     |                                               |                |                                          [5]{}: instr 0x7d-0x7e.7 (2)
0x070|                                       0c      |             .  |                                            opcode: "br" (0xc) 0x7d-0x7d.7 (1)
0x070|                                          05   |              . |                                            l: 5 (valid) 0x7e-0x7e.7 (1)
0x070|                                             0b|               .|                                        end: 0xb (valid) 0x7f-0x7f.7 (1)
     |                                               |                |                                      [1]{}: instr 0x80-0x81.7 (2)
0x080|0c                                             |.               |                                        opcode: "br" (0xc) 0x80-0x80.7 (1)
0x080|   04                                          | .              |                                        l: 4 (valid) 0x81-0x81.7 (1)
0x080|      0b                                       |  .             |                                    end: 0xb (valid) 0x82-0x82.7 (1)
     |                                               |                |                                  [1]{}: instr 0x83-0x85.7 (3)
0x080|         41                                    |   A            |                                    opcode: "i32.const" (0x41) 0x83-0x83.7 (1)
0x080|            e5 00                              |    ..          |                                    n: 101 (valid) 0x84-0x85.7 (2)
     |                                               |                |                                  [2]{}: instr 0x86-0x87.7 (2)
0x080|                  21                           |      !         |                                    opcode: "local.set" (0x21) 0x86-0x86.7 (1)
0x080|                     01                        |       .        |                                    x: 1 (valid) 0x87-0x87.7 (1)
     |                                               |                |                                  [3]{}: instr 0x88-0x89.7 (2)
0x080|                        0c                     |        .       |                                    opcode: "br" (0xc) 0x88-0x88.7 (1)
0x080|                           03                  |         .      |                                    l: 3 (valid) 0x89-0x89.7 (1)
0x080|                              0b               |          .     |                                end: 0xb (valid) 0x8a-0x8a.7 (1)
     |                                               |                |                              [1]{}: instr 0x8b-0x8d.7 (3)
0x080|                                 41            |           A    |                                opcode: "i32.const" (0x41) 0x8b-0x8b.7 (1)
0x080|                                    e5 00      |            ..  |                                n: 101 (valid) 0x8c-0x8d.7 (2)
     |                                               |                |                              [2]{}: instr 0x8e-0x8f.7 (2)
0x080|                                          21   |              ! |                                opcode: "local.set" (0x21) 0x8e-0x8e.7 (1)
0x080|                                             01|               .|                                x: 1 (valid) 0x8f-0x8f.7 (1)
0x090|0b                                             |.               |                            end: 0xb (valid) 0x90-0x90.7 (1)
     |                                               |                |                          [1]{}: instr 0x91-0x93.7 (3)
0x090|   41                                          | A              |                            opcode: "i32.const" (0x41) 0x91-0x91.7 (1)
0x090|      e6 00                                    |  ..            |                            n: 102 (valid) 0x92-0x93.7 (2)
     |                                               |                |                          [2]{}: instr 0x94-0x95.7 (2)
0x090|            21                                 |    !           |                            opcode: "local.set" (0x21) 0x94-0x94.7 (1)
0x090|               01                              |     .          |                            x: 1 (valid) 0x95-0x95.7 (1)
0x090|                  0b                           |      .         |                        end: 0xb (valid) 0x96-0x96.7 (1)
0x090|                     0b                        |       .        |                    end: 0xb (valid) 0x97-0x97.7 (1)
     |                                               |                |                  [3]{}: in 0x98-0x99.7 (2)
0x090|                        20                     |                |                    opcode: "local.get" (0x20) 0x98-0x98.7 (1)
0x090|                           01                  |         .      |                    x: 1 (valid) 0x99-0x99.7 (1)
     |                                               |                |                  [4]{}: in 0x9a-0x9a.7 (1)
0x090|                              0f               |          .     |                    opcode: "return" (0xf) 0x9a-0x9a.7 (1)
     |                                               |                |                  [5]{}: in 0x9b-0x9b.7 (1)
0x090|                                 0b            |           .    |                    opcode: "end" (0xb) 0x9b-0x9b.7 (1)
     |                                               |                |            [1]{}: code 0x9c-0xe8.7 (77)
0x090|                                    4c         |            L   |              size: 76 (valid) 0x9c-0x9c.7 (1)
     |                                               |                |              code{}: 0x9d-0xe8.7 (76)
     |                                               |                |                t{}: 0x9d-0x9f.7 (3)
0x090|                                       01      |             .  |                  n: 1 (valid) 0x9d-0x9d.7 (1)
     |                                               |                |                  x[0:1]: 0x9e-0x9f.7 (2)
     |                                               |                |                    [0]{}: t 0x9e-0x9f.7 (2)
0x090|                                          01   |              . |                      n: 1 (valid) 0x9e-0x9e.7 (1)
0x090|                                             7e|               ~|                      t: "i64" (0x7e) 0x9f-0x9f.7 (1)
     |                                               |                |                e[0:5]: 0xa0-0xe8.7 (73)
     |                                               |                |                  [0]{}: in 0xa0-0xa2.7 (3)
0x0a0|42                                             |B               |                    opcode: "i64.const" (0x42) 0xa0-0xa0.7 (1)
0x0a0|   e4 00                                       | ..             |                    n: 100 0xa1-0xa2.7 (2)
     |                                               |                |                  [1]{}: in 0xa3-0xa4.7 (2)
0x0a0|         21                                    |   !            |                    opcode: "local.set" (0x21) 0xa3-0xa3.7 (1)
0x0a0|            01                                 |    .           |                    x: 1 (valid) 0xa4-0xa4.7 (1)
     |                                               |                |                  [2]{}: in 0xa5-0xe6.7 (66)
0x0a0|               02                              |     .          |                    opcode: "block" (0x2) 0xa5-0xa5.7 (1)
0x0a0|                  7e                           |      ~         |                    bt: "i64" (126) 0xa6-0xa6.7 (1)
     |                                               |                |                    instructions[0:2]: 0xa7-0xe5.7 (63)
     |                                               |                |                      [0]{}: instr 0xa7-0xe3.7 (61)
0x0a0|                     02                        |       .        |                        opcode: "block" (0x2) 0xa7-0xa7.7 (1)
0x0a0|                        40                     |        @       |                        bt: "ε" (64) 0xa8-0xa8.7 (1)
     |                                               |                |                        instructions[0:3]: 0xa9-0xe2.7 (58)
     |                                               |                |                          [0]{}: instr 0xa9-0xde.7 (54)
0x0a0|                           02                  |         .      |                            opcode: "block" (0x2) 0xa9-0xa9.7 (1)
0x0a0|                              40               |          @     |                            bt: "ε" (64) 0xaa-0xaa.7 (1)
     |                                               |                |                            instructions[0:1]: 0xab-0xdd.7 (51)
     |                                               |                |                              [0]{}: instr 0xab-0xdd.7 (51)
0x0a0|                                 02            |           .    |                                opcode: "block" (0x2) 0xab-0xab.7 (1)
0x0a0|                                    40         |            @   |                                bt: "ε" (64) 0xac-0xac.7 (1)
     |                                               |                |                                instructions[0:1]: 0xad-0xdc.7 (48)
     |                                               |                |                                  [0]{}: instr 0xad-0xdc.7 (48)
0x0a0|                                       02      |             .  |                                    opcode: "block" (0x2) 0xad-0xad.7 (1)
0x0a0|                                          40   |              @ |                                    bt: "ε" (64) 0xae-0xae.7 (1)
     |                                               |                |                                    instructions[0:3]: 0xaf-0xdb.7 (45)
     |                                               |                |                                      [0]{}: instr 0xaf-0xd6.7 (40)
0x0a0|                                             02|               .|                                        opcode: "block" (0x2) 0xaf-0xaf.7 (1)
0x0b0|40                                             |@               |                                        bt: "ε" (64) 0xb0-0xb0.7 (1)
     |                                               |                |                                        instructions[0:5]: 0xb1-0xd5.7 (37)
     |                                               |                |                                          [0]{}: instr 0xb1-0xce.7 (30)
0x0b0|   02                                          | .              |                                            opcode: "block" (0x2) 0xb1-0xb1.7 (1)
0x0b0|      40                                       |  @             |                                            bt: "ε" (64) 0xb2-0xb2.7 (1)
     |                                               |                |                                            instructions[0:1]: 0xb3-0xcd.7 (27)
     |                                               |                |                                              [0]{}: instr 0xb3-0xcd.7 (27)
0x0b0|         02                                    |   .            |                                                opcode: "block" (0x2) 0xb3-0xb3.7 (1)
0x0b0|            40                                 |    @           |                                                bt: "ε" (64) 0xb4-0xb4.7 (1)
     |                                               |                |                                                instructions[0:2]: 0xb5-0xcc.7 (24)
     |                                               |                |                                                  [0]{}: instr 0xb5-0xcb.7 (23)
0x0b0|               02                              |     .          |                                                    opcode: "block" (0x2) 0xb5-0xb5.7 (1)
0x0b0|                  40                           |      @         |                                                    bt: "ε" (64) 0xb6-0xb6.7 (1)
     |                                               |                |                                                    instructions[0:3]: 0xb7-0xca.7 (20)
     |                                               |                |                                                      [0]{}: instr 0xb7-0xc7.7 (17)
0x0b0|                     02                        |       .        |                                                        opcode: "block" (0x2) 0xb7-0xb7.7 (1)
0x0b0|                        40                     |        @       |                                                        bt: "ε" (64) 0xb8-0xb8.7 (1)
     |                                               |                |                                                        instructions[0:3]: 0xb9-0xc6.7 (14)
     |                                               |                |                                                          [0]{}: instr 0xb9-0xba.7 (2)
0x0b0|                           20                  |                |                                                            opcode: "local.get" (0x20) 0xb9-0xb9.7 (1)
0x0b0|                              00               |          .     |                                                            x: 0 (valid) 0xba-0xba.7 (1)
     |                                               |                |                                                          [1]{}: instr 0xbb-0xbb.7 (1)
0x0b0|                                 a7            |           .    |                                                            opcode: "i32.wrap_i64" (0xa7) 0xbb-0xbb.7 (1)
     |                                               |                |                                                          [2]{}: instr 0xbc-0xc6.7 (11)
0x0b0|                                    0e         |            .   |                                                            opcode: "br_table" (0xe) 0xbc-0xbc.7 (1)
     |                                               |                |                                                            l{}: 0xbd-0xc5.7 (9)
0x0b0|                                       08      |             .  |                                                              n: 8 (valid) 0xbd-0xbd.7 (1)
     |                                               |                |                                                              x[0:8]: 0xbe-0xc5.7 (8)
0x0b0|                                          00   |              . |                                                                [0]: 0 l (valid) 0xbe-0xbe.7 (1)
0x0b0|                                             01|               .|                                                                [1]: 1 l (valid) 0xbf-0xbf.7 (1)
0x0c0|02                                             |.               |                                                                [2]: 2 l (valid) 0xc0-0xc0.7 (1)
0x0c0|   03                                          | .              |                                                                [3]: 3 l (valid) 0xc1-0xc1.7 (1)
0x0c0|      06                                       |  .             |                                                                [4]: 6 l (valid) 0xc2-0xc2.7 (1)
0x0c0|         05                                    |   .            |                                                                [5]: 5 l (valid) 0xc3-0xc3.7 (1)
0x0c0|            04                                 |    .           |                                                                [6]: 4 l (valid) 0xc4-0xc4.7 (1)
0x0c0|               08                              |     .          |                                                                [7]: 8 l (valid) 0xc5-0xc5.7 (1)
0x0c0|                  07                           |      .         |                                                            lN: 7 (valid) 0xc6-0xc6.7 (1)
0x0c0|                     0b                        |       .        |                                                        end: 0xb (valid) 0xc7-0xc7.7 (1)
     |                                               |                |                                                      [1]{}: instr 0xc8-0xc9.7 (2)
0x0c0|                        20                     |                |                                                        opcode: "local.get" (0x20) 0xc8-0xc8.7 (1)
0x0c0|                           00                  |         .      |                                                        x: 0 (valid) 0xc9-0xc9.7 (1)
     |                                               |                |                                                      [2]{}: instr 0xca-0xca.7 (1)
0x0c0|                              0f               |          .     |                                                        opcode: "return" (0xf) 0xca-0xca.7 (1)
0x0c0|                                 0b            |           .    |                                                    end: 0xb (valid) 0xcb-0xcb.7 (1)
     |                                               |                |                                                  [1]{}: instr 0xcc-0xcc.7 (1)
0x0c0|                                    01         |            .   |                                                    opcode: "nop" (0x1) 0xcc-0xcc.7 (1)
0x0c0|                                       0b      |             .  |                                                end: 0xb (valid) 0xcd-0xcd.7 (1)
0x0c0|                                          0b   |              . |                                            end: 0xb (valid) 0xce-0xce.7 (1)
     |                                               |                |                                          [1]{}: instr 0xcf-0xd0.7 (2)
0x0c0|                                             42|               B|                                            opcode: "i64.const" (0x42) 0xcf-0xcf.7 (1)
0x0d0|00                                             |.               |                                            n: 0 0xd0-0xd0.7 (1)
     |                                               |                |                                          [2]{}: instr 0xd1-0xd2.7 (2)
0x0d0|   20                                          |                |                                            opcode: "local.get" (0x20) 0xd1-0xd1.7 (1)
0x0d0|      00                                       |  .             |                                            x: 0 (valid) 0xd2-0xd2.7 (1)
     |                                               |                |                                          [3]{}: instr 0xd3-0xd3.7 (1)
0x0d0|         7d                                    |   }            |                                            opcode: "i64.sub" (0x7d) 0xd3-0xd3.7 (1)
     |                                               |                |                                          [4]{}: instr 0xd4-0xd5.7 (2)
0x0d0|            0c                                 |    .           |                                            opcode: "br" (0xc) 0xd4-0xd4.7 (1)
0x0d0|               05                              |     .          |                                            l: 5 (valid) 0xd5-0xd5.7 (1)
0x0d0|                  0b                           |      .         |                                        end: 0xb (valid) 0xd6-0xd6.7 (1)
     |                                               |                |                                      [1]{}: instr 0xd7-0xd9.7 (3)
0x0d0|                     42                        |       B        |                                        opcode: "i64.const" (0x42) 0xd7-0xd7.7 (1)
0x0d0|                        e5 00                  |        ..      |                                        n: 101 0xd8-0xd9.7 (2)
     |                                               |                |                                      [2]{}: instr 0xda-0xdb.7 (2)
0x0d0|                              21               |          !     |                                        opcode: "local.set" (0x21) 0xda-0xda.7 (1)
0x0d0|                                 01            |           .    |                                        x: 1 (valid) 0xdb-0xdb.7 (1)
0x0d0|                                    0b         |            .   |                                    end: 0xb (valid) 0xdc-0xdc.7 (1)
0x0d0|                                       0b      |             .  |                                end: 0xb (valid) 0xdd-0xdd.7 (1)
0x0d0|                                          0b   |              . |                            end: 0xb (valid) 0xde-0xde.7 (1)
     |                                               |                |                          [1]{}: instr 0xdf-0xe0.7 (2)
0x0d0|                                             20|                |                            opcode: "local.get" (0x20) 0xdf-0xdf.7 (1)
0x0e0|01                                             |.               |                            x: 1 (valid) 0xe0-0xe0.7 (1)
     |                                               |                |                          [2]{}: instr 0xe1-0xe2.7 (2)
0x0e0|   0c                                          | .              |                            opcode: "br" (0xc) 0xe1-0xe1.7 (1)
0x0e0|      01                                       |  .             |                            l: 1 (valid) 0xe2-0xe2.7 (1)
0x0e0|         0b                                    |   .            |                        end: 0xb (valid) 0xe3-0xe3.7 (1)
     |                                               |                |                      [1]{}: instr 0xe4-0xe5.7 (2)
0x0e0|            42                                 |    B           |                        opcode: "i64.const" (0x42) 0xe4-0xe4.7 (1)
0x0e0|               7b                              |     {          |                        n: -5 0xe5-0xe5.7 (1)
0x0e0|                  0b                           |      .         |                    end: 0xb (valid) 0xe6-0xe6.7 (1)
     |                                               |                |                  [3]{}: in 0xe7-0xe7.7 (1)
0x0e0|                     0f                        |       .        |                    opcode: "return" (0xf) 0xe7-0xe7.7 (1)
     |                                               |                |                  [4]{}: in 0xe8-0xe8.7 (1)
0x0e0|                        0b                     |        .       |                    opcode: "end" (0xb) 0xe8-0xe8.7 (1)
     |                                               |                |            [2]{}: code 0xe9-0x113.7 (43)
0x0e0|                           2a                  |         *      |              size: 42 (valid) 0xe9-0xe9.7 (1)
     |                                               |                |              code{}: 0xea-0x113.7 (42)
     |                                               |                |                t{}: 0xea-0xea.7 (1)
0x0e0|                              00               |          .     |                  n: 0 (valid) 0xea-0xea.7 (1)
     |                                               |                |                  x[0:0]: 0xeb-NA (0)
     |                                               |                |                e[0:3]: 0xeb-0x113.7 (41)
     |                                               |                |                  [0]{}: in 0xeb-0x111.7 (39)
0x0e0|                                 02            |           .    |                    opcode: "block" (0x2) 0xeb-0xeb.7 (1)
0x0e0|                                    7f         |            .   |                    bt: "i32" (127) 0xec-0xec.7 (1)
     |                                               |                |                    instructions[0:3]: 0xed-0x110.7 (36)
     |                                               |                |                      [0]{}: instr 0xed-0xee.7 (2)
0x0e0|                                       41      |             A  |                        opcode: "i32.const" (0x41) 0xed-0xed.7 (1)
0x0e0|                                          0a   |              . |                        n: 10 (valid) 0xee-0xee.7 (1)
     |                                               |                |                      [1]{}: instr 0xef-0x10f.7 (33)
0x0e0|                                             02|               .|                        opcode: "block" (0x2) 0xef-0xef.7 (1)
0x0f0|7f                                             |.               |                        bt: "i32" (127) 0xf0-0xf0.7 (1)
     |                                               |                |                        instructions[0:3]: 0xf1-0x10e.7 (30)
     |                                               |                |                          [0]{}: instr 0xf1-0xf3.7 (3)
0x0f0|   41                                          | A              |                            opcode: "i32.const" (0x41) 0xf1-0xf1.7 (1)
0x0f0|      e4 00                                    |  ..            |                            n: 100 (valid) 0xf2-0xf3.7 (2)
     |                                               |                |                          [1]{}: instr 0xf4-0x10d.7 (26)
0x0f0|            02                                 |    .           |                            opcode: "block" (0x2) 0xf4-0xf4.7 (1)
0x0f0|               7f                              |     .          |                            bt: "i32" (127) 0xf5-0xf5.7 (1)
     |                                               |                |                            instructions[0:3]: 0xf6-0x10c.7 (23)
     |                                               |                |                              [0]{}: instr 0xf6-0xf8.7 (3)
0x0f0|                  41                           |      A         |                                opcode: "i32.const" (0x41) 0xf6-0xf6.7 (1)
0x0f0|                     e8 07                     |       ..       |                                n: 1000 (valid) 0xf7-0xf8.7 (2)
     |                                               |                |                              [1]{}: instr 0xf9-0x10b.7 (19)
0x0f0|                           02                  |         .      |                                opcode: "block" (0x2) 0xf9-0xf9.7 (1)
0x0f0|                              7f               |          .     |                                bt: "i32" (127) 0xfa-0xfa.7 (1)
     |                                               |                |                                instructions[0:7]: 0xfb-0x10a.7 (16)
     |                                               |                |                                  [0]{}: instr 0xfb-0xfc.7 (2)
0x0f0|                                 41            |           A    |                                    opcode: "i32.const" (0x41) 0xfb-0xfb.7 (1)
0x0f0|                                    02         |            .   |                                    n: 2 (valid) 0xfc-0xfc.7 (1)
     |                                               |                |                                  [1]{}: instr 0xfd-0xfe.7 (2)
0x0f0|                                       20      |                |                                    opcode: "local.get" (0x20) 0xfd-0xfd.7 (1)
0x0f0|                                          00   |              . |                                    x: 0 (valid) 0xfe-0xfe.7 (1)
     |                                               |                |                                  [2]{}: instr 0xff-0xff.7 (1)
0x0f0|                                             6c|               l|                                    opcode: "i32.mul" (0x6c) 0xff-0xff.7 (1)
     |                                               |                |                                  [3]{}: instr 0x100-0x101.7 (2)
0x100|41                                             |A               |                                    opcode: "i32.const" (0x41) 0x100-0x100.7 (1)
0x100|   03                                          | .              |                                    n: 3 (valid) 0x101-0x101.7 (1)
     |                                               |                |                                  [4]{}: instr 0x102-0x103.7 (2)
0x100|      20                                       |                |                                    opcode: "local.get" (0x20) 0x102-0x102.7 (1)
0x100|         00                                    |   .            |                                    x: 0 (valid) 0x103-0x103.7 (1)
     |                                               |                |                                  [5]{}: instr 0x104-0x104.7 (1)
0x100|            71                                 |    q           |                                    opcode: "i32.and" (0x71) 0x104-0x104.7 (1)
     |                                               |                |                                  [6]{}: instr 0x105-0x10a.7 (6)
0x100|               0e                              |     .          |                                    opcode: "br_table" (0xe) 0x105-0x105.7 (1)
     |                                               |                |                                    l{}: 0x106-0x109.7 (4)
0x100|                  03                           |      .         |                                      n: 3 (valid) 0x106-0x106.7 (1)
     |                                               |                |                                      x[0:3]: 0x107-0x109.7 (3)
0x100|                     01                        |       .        |                                        [0]: 1 l (valid) 0x107-0x107.7 (1)
0x100|                        02                     |        .       |                                        [1]: 2 l (valid) 0x108-0x108.7 (1)
0x100|                           03                  |         .      |                                        [2]: 3 l (valid) 0x109-0x109.7 (1)
0x100|                              00               |          .     |                                    lN: 0 (valid) 0x10a-0x10a.7 (1)
0x100|                                 0b            |           .    |                                end: 0xb (valid) 0x10b-0x10b.7 (1)
     |                                               |                |                              [2]{}: instr 0x10c-0x10c.7 (1)
0x100|                                    6a         |            j   |                                opcode: "i32.add" (0x6a) 0x10c-0x10c.7 (1)
0x100|                                       0b      |             .  |                            end: 0xb (valid) 0x10d-0x10d.7 (1)
     |                                               |                |                          [2]{}: instr 0x10e-0x10e.7 (1)
0x100|                                          6a   |              j |                            opcode: "i32.add" (0x6a) 0x10e-0x10e.7 (1)
0x100|                                             0b|               .|                        end: 0xb (valid) 0x10f-0x10f.7 (1)
     |                                               |                |                      [2]{}: instr 0x110-0x110.7 (1)
0x110|6a                                             |j               |                        opcode: "i32.add" (0x6a) 0x110-0x110.7 (1)
0x110|   0b                                          | .              |                    end: 0xb (valid) 0x111-0x111.7 (1)
     |                                               |                |                  [1]{}: in 0x112-0x112.7 (1)
0x110|      0f                                       |  .             |                    opcode: "return" (0xf) 0x112-0x112.7 (1)
     |                                               |                |                  [2]{}: in 0x113-0x113.7 (1)
0x110|         0b                                    |   .            |                    opcode: "end" (0xb) 0x113-0x113.7 (1)
     |                                               |                |            [3]{}: code 0x114-0x120.7 (13)
0x110|            0c                                 |    .           |              size: 12 (valid) 0x114-0x114.7 (1)
     |                                               |                |              code{}: 0x115-0x120.7 (12)
     |                                               |                |                t{}: 0x115-0x115.7 (1)
0x110|               00                              |     .          |                  n: 0 (valid) 0x115-0x115.7 (1)
     |                                               |                |                  x[0:0]: 0x116-NA (0)
     |                                               |                |                e[0:3]: 0x116-0x120.7 (11)
     |                                               |                |                  [0]{}: in 0x116-0x11d.7 (8)
0x110|                  02                           |      .         |                    opcode: "block" (0x2) 0x116-0x116.7 (1)
0x110|                     40                        |       @        |                    bt: "ε" (64) 0x117-0x117.7 (1)
     |                                               |                |                    instructions[0:2]: 0x118-0x11c.7 (5)
     |                                               |                |                      [0]{}: instr 0x118-0x119.7 (2)
0x110|                        41                     |        A       |                        opcode: "i32.const" (0x41) 0x118-0x118.7 (1)
0x110|                           00                  |         .      |                        n: 0 (valid) 0x119-0x119.7 (1)
     |                                               |                |                      [1]{}: instr 0x11a-0x11c.7 (3)
0x110|                              0e               |          .     |                        opcode: "br_table" (0xe) 0x11a-0x11a.7 (1)
     |                                               |                |                        l{}: 0x11b-0x11b.7 (1)
0x110|                                 00            |           .    |                          n: 0 (valid) 0x11b-0x11b.7 (1)
     |                                               |                |                          x[0:0]: 0x11c-NA (0)
0x110|                                    00         |            .   |                        lN: 0 (valid) 0x11c-0x11c.7 (1)
0x110|                                       0b      |             .  |                    end: 0xb (valid) 0x11d-0x11d.7 (1)
     |                                               |                |                  [1]{}: in 0x11e-0x11f.7 (2)
0x110|                                          41   |              A |                    opcode: "i32.const" (0x41) 0x11e-0x11e.7 (1)
0x110|                                             01|               .|                    n: 1 (valid) 0x11f-0x11f.7 (1)
     |                                               |                |                  [2]{}: in 0x120-0x120.7 (1)
0x120|0b|                                            |.|              |                    opcode: "end" (0xb) 0x120-0x120.7 (1)
