$ fq -d wasm dv table_fill-0.wasm
    |00 01 02 03 04 05 06 07 08 09 0a 0b 0c 0d 0e 0f|0123456789abcdef|.{}: table_fill-0.wasm (wasm) 0x0-0x47 (71)
0x00|00 61 73 6d                                    |.asm            |  magic: raw bits (valid) 0x0-0x4 (4)
0x00|            01 00 00 00                        |    ....        |  version: 1 0x4-0x8 (4)
    |                                               |                |  sections[0:5]: 0x8-0x47 (63)
    |                                               |                |    [0]{}: section 0x8-0x16 (14)
0x00|                        01                     |        .       |      id: "type_section" (1) 0x8-0x9 (1)
0x00|                           0c                  |         .      |      size: 12 (valid) 0x9-0xa (1)
    |                                               |                |      content{}: 0xa-0x16 (12)
    |                                               |                |        ft{}: 0xa-0x16 (12)
0x00|                              02               |          .     |          n: 2 (valid) 0xa-0xb (1)
    |                                               |                |          x[0:2]: 0xb-0x16 (11)
    |                                               |                |            [0]{}: ft 0xb-0x11 (6)
0x00|                                 60            |           `    |              tag: 0x60 (valid) 0xb-0xc (1)
    |                                               |                |              rt1{}: 0xc-0x10 (4)
0x00|                                    03         |            .   |                n: 3 (valid) 0xc-0xd (1)
    |                                               |                |                x[0:3]: 0xd-0x10 (3)
0x00|                                       7f      |             .  |                  [0]: "i32" (0x7f) t 0xd-0xe (1)
0x00|                                          6f   |              o |                  [1]: "externref" (0x6f) t 0xe-0xf (1)
0x00|                                             7f|               .|                  [2]: "i32" (0x7f) t 0xf-0x10 (1)
    |                                               |                |              rt2{}: 0x10-0x11 (1)
0x10|00                                             |.               |                n: 0 (valid) 0x10-0x11 (1)
    |                                               |                |                x[0:0]: 0x11-0x11 (0)
    |                                               |                |            [1]{}: ft 0x11-0x16 (5)
0x10|   60                                          | `              |              tag: 0x60 (valid) 0x11-0x12 (1)
    |                                               |                |              rt1{}: 0x12-0x14 (2)
0x10|      01                                       |  .             |                n: 1 (valid) 0x12-0x13 (1)
    |                                               |                |                x[0:1]: 0x13-0x14 (1)
0x10|         7f                                    |   .            |                  [0]: "i32" (0x7f) t 0x13-0x14 (1)
    |                                               |                |              rt2{}: 0x14-0x16 (2)
0x10|            01                                 |    .           |                n: 1 (valid) 0x14-0x15 (1)
    |                                               |                |                x[0:1]: 0x15-0x16 (1)
0x10|               6f                              |     o          |                  [0]: "externref" (0x6f) t 0x15-0x16 (1)
    |                                               |                |    [1]{}: section 0x16-0x1b (5)
0x10|                  03                           |      .         |      id: "function_section" (3) 0x16-0x17 (1)
0x10|                     03                        |       .        |      size: 3 (valid) 0x17-0x18 (1)
    |                                               |                |      content{}: 0x18-0x1b (3)
    |                                               |                |        x{}: 0x18-0x1b (3)
0x10|                        02                     |        .       |          n: 2 (valid) 0x18-0x19 (1)
    |                                               |                |          x[0:2]: 0x19-0x1b (2)
0x10|                           00                  |         .      |            [0]: 0 x (valid) 0x19-0x1a (1)
0x10|                              01               |          .     |            [1]: 1 x (valid) 0x1a-0x1b (1)
    |                                               |                |    [2]{}: section 0x1b-0x21 (6)
0x10|                                 04            |           .    |      id: "table_section" (4) 0x1b-0x1c (1)
0x10|                                    04         |            .   |      size: 4 (valid) 0x1c-0x1d (1)
    |                                               |                |      content{}: 0x1d-0x21 (4)
    |                                               |                |        tab{}: 0x1d-0x21 (4)
0x10|                                       01      |             .  |          n: 1 (valid) 0x1d-0x1e (1)
    |                                               |                |          x[0:1]: 0x1e-0x21 (3)
    |                                               |                |            [0]{}: tab 0x1e-0x21 (3)
0x10|                                          6f   |              o |              et: "externref" (111) 0x1e-0x1f (1)
    |                                               |                |              lim{}: 0x1f-0x21 (2)
0x10|                                             00|               .|                tag: 0x0 0x1f-0x20 (1)
0x20|0a                                             |.               |                n: 10 (valid) 0x20-0x21 (1)
    |                                               |                |    [3]{}: section 0x21-0x31 (16)
0x20|   07                                          | .              |      id: "export_section" (7) 0x21-0x22 (1)
0x20|      0e                                       |  .             |      size: 14 (valid) 0x22-0x23 (1)
    |                                               |                |      content{}: 0x23-0x31 (14)
    |                                               |                |        ex{}: 0x23-0x31 (14)
0x20|         02                                    |   .            |          n: 2 (valid) 0x23-0x24 (1)
    |                                               |                |          x[0:2]: 0x24-0x31 (13)
    |                                               |                |            [0]{}: ex 0x24-0x2b (7)
    |                                               |                |              nm{}: 0x24-0x29 (5)
0x20|            04                                 |    .           |                n: 4 (valid) 0x24-0x25 (1)
0x20|               66 69 6c 6c                     |     fill       |                b: "fill" 0x25-0x29 (4)
    |                                               |                |              d{}: 0x29-0x2b (2)
0x20|                           00                  |         .      |                tag: "funcidx" (0x0) 0x29-0x2a (1)
0x20|                              00               |          .     |                x: 0 (valid) 0x2a-0x2b (1)
    |                                               |                |            [1]{}: ex 0x2b-0x31 (6)
    |                                               |                |              nm{}: 0x2b-0x2f (4)
0x20|                                 03            |           .    |                n: 3 (valid) 0x2b-0x2c (1)
0x20|                                    67 65 74   |            get |                b: "get" 0x2c-0x2f (3)
    |                                               |                |              d{}: 0x2f-0x31 (2)
0x20|                                             00|               .|                tag: "funcidx" (0x0) 0x2f-0x30 (1)
0x30|01                                             |.               |                x: 1 (valid) 0x30-0x31 (1)
    |                                               |                |    [4]{}: section 0x31-0x47 (22)
0x30|   0a                                          | .              |      id: "code_section" (10) 0x31-0x32 (1)
0x30|      14                                       |  .             |      size: 20 (valid) 0x32-0x33 (1)
    |                                               |                |      content{}: 0x33-0x47 (20)
    |                                               |                |        code{}: 0x33-0x47 (20)
0x30|         02                                    |   .            |          n: 2 (valid) 0x33-0x34 (1)
    |                                               |                |          x[0:2]: 0x34-0x47 (19)
    |                                               |                |            [0]{}: code 0x34-0x40 (12)
0x30|            0b                                 |    .           |              size: 11 (valid) 0x34-0x35 (1)
    |                                               |                |              code{}: 0x35-0x40 (11)
    |                                               |                |                t{}: 0x35-0x36 (1)
0x30|               00                              |     .          |                  n: 0 (valid) 0x35-0x36 (1)
    |                                               |                |                  x[0:0]: 0x36-0x36 (0)
    |                                               |                |                e[0:5]: 0x36-0x40 (10)
    |                                               |                |                  [0]{}: in 0x36-0x38 (2)
0x30|                  20                           |                |                    opcode: "local.get" (0x20) 0x36-0x37 (1)
0x30|                     00                        |       .        |                    x: 0 (valid) 0x37-0x38 (1)
    |                                               |                |                  [1]{}: in 0x38-0x3a (2)
0x30|                        20                     |                |                    opcode: "local.get" (0x20) 0x38-0x39 (1)
0x30|                           01                  |         .      |                    x: 1 (valid) 0x39-0x3a (1)
    |                                               |                |                  [2]{}: in 0x3a-0x3c (2)
0x30|                              20               |                |                    opcode: "local.get" (0x20) 0x3a-0x3b (1)
0x30|                                 02            |           .    |                    x: 2 (valid) 0x3b-0x3c (1)
    |                                               |                |                  [3]{}: in 0x3c-0x3f (3)
0x30|                                    fc         |            .   |                    opcode: "prefix" (0xfc) 0x3c-0x3d (1)
0x30|                                       11      |             .  |                    p_opcode: "table.fill" (17) 0x3d-0x3e (1)
0x30|                                          00   |              . |                    x: 0 (valid) 0x3e-0x3f (1)
    |                                               |                |                  [4]{}: in 0x3f-0x40 (1)
0x30|                                             0b|               .|                    opcode: "end" (0xb) 0x3f-0x40 (1)
    |                                               |                |            [1]{}: code 0x40-0x47 (7)
0x40|06                                             |.               |              size: 6 (valid) 0x40-0x41 (1)
    |                                               |                |              code{}: 0x41-0x47 (6)
    |                                               |                |                t{}: 0x41-0x42 (1)
0x40|   00                                          | .              |                  n: 0 (valid) 0x41-0x42 (1)
    |                                               |                |                  x[0:0]: 0x42-0x42 (0)
    |                                               |                |                e[0:3]: 0x42-0x47 (5)
    |                                               |                |                  [0]{}: in 0x42-0x44 (2)
0x40|      20                                       |                |                    opcode: "local.get" (0x20) 0x42-0x43 (1)
0x40|         00                                    |   .            |                    x: 0 (valid) 0x43-0x44 (1)
    |                                               |                |                  [1]{}: in 0x44-0x46 (2)
0x40|            25                                 |    %           |                    opcode: "table.get" (0x25) 0x44-0x45 (1)
0x40|               00                              |     .          |                    x: 0 (valid) 0x45-0x46 (1)
    |                                               |                |                  [2]{}: in 0x46-0x47 (1)
0x40|                  0b|                          |      .|        |                    opcode: "end" (0xb) 0x46-0x47 (1)
