$ fq -d wasm dv table_init-34.wasm
    |00 01 02 03 04 05 06 07 08 09 0a 0b 0c 0d 0e 0f|0123456789abcdef|.{}: table_init-34.wasm (wasm) 0x0-0xee.7 (239)
0x00|00 61 73 6d                                    |.asm            |  magic: raw bits (valid) 0x0-0x3.7 (4)
0x00|            01 00 00 00                        |    ....        |  version: 1 0x4-0x7.7 (4)
    |                                               |                |  sections[0:5]: 0x8-0xee.7 (231)
    |                                               |                |    [0]{}: section 0x8-0xd.7 (6)
0x00|                        01                     |        .       |      id: "type section" (1) 0x8-0x8.7 (1)
0x00|                           04                  |         .      |      size: 4 0x9-0x9.7 (1)
    |                                               |                |      content{}: 0xa-0xd.7 (4)
    |                                               |                |        ft{}: 0xa-0xd.7 (4)
0x00|                              01               |          .     |          n: 1 0xa-0xa.7 (1)
    |                                               |                |          x[0:1]: 0xb-0xd.7 (3)
    |                                               |                |            [0]{}: ft 0xb-0xd.7 (3)
0x00|                                 60            |           `    |              tag: 0x60 (valid) 0xb-0xb.7 (1)
    |                                               |                |              rt1{}: 0xc-0xc.7 (1)
0x00|                                    00         |            .   |                n: 0 0xc-0xc.7 (1)
    |                                               |                |                x[0:0]: 0xd-NA (0)
    |                                               |                |              rt2{}: 0xd-0xd.7 (1)
0x00|                                       00      |             .  |                n: 0 0xd-0xd.7 (1)
    |                                               |                |                x[0:0]: 0xe-NA (0)
    |                                               |                |    [1]{}: section 0xe-0x11.7 (4)
0x00|                                          03   |              . |      id: "function section" (3) 0xe-0xe.7 (1)
0x00|                                             02|               .|      size: 2 0xf-0xf.7 (1)
    |                                               |                |      content{}: 0x10-0x11.7 (2)
    |                                               |                |        x{}: 0x10-0x11.7 (2)
0x10|01                                             |.               |          n: 1 0x10-0x10.7 (1)
    |                                               |                |          x[0:1]: 0x11-0x11.7 (1)
0x10|   00                                          | .              |            [0]: 0 x 0x11-0x11.7 (1)
    |                                               |                |    [2]{}: section 0x12-0x17.7 (6)
0x10|      04                                       |  .             |      id: "table section" (4) 0x12-0x12.7 (1)
0x10|         04                                    |   .            |      size: 4 0x13-0x13.7 (1)
    |                                               |                |      content{}: 0x14-0x17.7 (4)
    |                                               |                |        tab{}: 0x14-0x17.7 (4)
0x10|            01                                 |    .           |          n: 1 0x14-0x14.7 (1)
    |                                               |                |          x[0:1]: 0x15-0x17.7 (3)
    |                                               |                |            [0]{}: tab 0x15-0x17.7 (3)
0x10|               70                              |     p          |              et: "funcref" (112) 0x15-0x15.7 (1)
    |                                               |                |              lim{}: 0x16-0x17.7 (2)
0x10|                  00                           |      .         |                tag: 0x0 0x16-0x16.7 (1)
0x10|                     01                        |       .        |                n: 1 0x17-0x17.7 (1)
    |                                               |                |    [3]{}: section 0x18-0xde.7 (199)
0x10|                        09                     |        .       |      id: "element section" (9) 0x18-0x18.7 (1)
0x10|                           c4 01               |         ..     |      size: 196 0x19-0x1a.7 (2)
    |                                               |                |      element{}: 0x1b-0xde.7 (196)
    |                                               |                |        seg{}: 0x1b-0xde.7 (196)
0x10|                                 41            |           A    |          n: 65 0x1b-0x1b.7 (1)
    |                                               |                |          x[0:65]: 0x1c-0xde.7 (195)
    |                                               |                |            [0]{}: seg 0x1c-0x1e.7 (3)
0x10|                                    01         |            .   |              tag: 1 0x1c-0x1c.7 (1)
0x10|                                       00      |             .  |              et: "funcref" (0) (valid) 0x1d-0x1d.7 (1)
    |                                               |                |              y{}: 0x1e-0x1e.7 (1)
0x10|                                          00   |              . |                n: 0 0x1e-0x1e.7 (1)
    |                                               |                |                x[0:0]: 0x1f-NA (0)
    |                                               |                |            [1]{}: seg 0x1f-0x21.7 (3)
0x10|                                             01|               .|              tag: 1 0x1f-0x1f.7 (1)
0x20|00                                             |.               |              et: "funcref" (0) (valid) 0x20-0x20.7 (1)
    |                                               |                |              y{}: 0x21-0x21.7 (1)
0x20|   00                                          | .              |                n: 0 0x21-0x21.7 (1)
    |                                               |                |                x[0:0]: 0x22-NA (0)
    |                                               |                |            [2]{}: seg 0x22-0x24.7 (3)
0x20|      01                                       |  .             |              tag: 1 0x22-0x22.7 (1)
0x20|         00                                    |   .            |              et: "funcref" (0) (valid) 0x23-0x23.7 (1)
    |                                               |                |              y{}: 0x24-0x24.7 (1)
0x20|            00                                 |    .           |                n: 0 0x24-0x24.7 (1)
    |                                               |                |                x[0:0]: 0x25-NA (0)
    |                                               |                |            [3]{}: seg 0x25-0x27.7 (3)
0x20|               01                              |     .          |              tag: 1 0x25-0x25.7 (1)
0x20|                  00                           |      .         |              et: "funcref" (0) (valid) 0x26-0x26.7 (1)
    |                                               |                |              y{}: 0x27-0x27.7 (1)
0x20|                     00                        |       .        |                n: 0 0x27-0x27.7 (1)
    |                                               |                |                x[0:0]: 0x28-NA (0)
    |                                               |                |            [4]{}: seg 0x28-0x2a.7 (3)
0x20|                        01                     |        .       |              tag: 1 0x28-0x28.7 (1)
0x20|                           00                  |         .      |              et: "funcref" (0) (valid) 0x29-0x29.7 (1)
    |                                               |                |              y{}: 0x2a-0x2a.7 (1)
0x20|                              00               |          .     |                n: 0 0x2a-0x2a.7 (1)
    |                                               |                |                x[0:0]: 0x2b-NA (0)
    |                                               |                |            [5]{}: seg 0x2b-0x2d.7 (3)
0x20|                                 01            |           .    |              tag: 1 0x2b-0x2b.7 (1)
0x20|                                    00         |            .   |              et: "funcref" (0) (valid) 0x2c-0x2c.7 (1)
    |                                               |                |              y{}: 0x2d-0x2d.7 (1)
0x20|                                       00      |             .  |                n: 0 0x2d-0x2d.7 (1)
    |                                               |                |                x[0:0]: 0x2e-NA (0)
    |                                               |                |            [6]{}: seg 0x2e-0x30.7 (3)
0x20|                                          01   |              . |              tag: 1 0x2e-0x2e.7 (1)
0x20|                                             00|               .|              et: "funcref" (0) (valid) 0x2f-0x2f.7 (1)
    |                                               |                |              y{}: 0x30-0x30.7 (1)
0x30|00                                             |.               |                n: 0 0x30-0x30.7 (1)
    |                                               |                |                x[0:0]: 0x31-NA (0)
    |                                               |                |            [7]{}: seg 0x31-0x33.7 (3)
0x30|   01                                          | .              |              tag: 1 0x31-0x31.7 (1)
0x30|      00                                       |  .             |              et: "funcref" (0) (valid) 0x32-0x32.7 (1)
    |                                               |                |              y{}: 0x33-0x33.7 (1)
0x30|         00                                    |   .            |                n: 0 0x33-0x33.7 (1)
    |                                               |                |                x[0:0]: 0x34-NA (0)
    |                                               |                |            [8]{}: seg 0x34-0x36.7 (3)
0x30|            01                                 |    .           |              tag: 1 0x34-0x34.7 (1)
0x30|               00                              |     .          |              et: "funcref" (0) (valid) 0x35-0x35.7 (1)
    |                                               |                |              y{}: 0x36-0x36.7 (1)
0x30|                  00                           |      .         |                n: 0 0x36-0x36.7 (1)
    |                                               |                |                x[0:0]: 0x37-NA (0)
    |                                               |                |            [9]{}: seg 0x37-0x39.7 (3)
0x30|                     01                        |       .        |              tag: 1 0x37-0x37.7 (1)
0x30|                        00                     |        .       |              et: "funcref" (0) (valid) 0x38-0x38.7 (1)
    |                                               |                |              y{}: 0x39-0x39.7 (1)
0x30|                           00                  |         .      |                n: 0 0x39-0x39.7 (1)
    |                                               |                |                x[0:0]: 0x3a-NA (0)
    |                                               |                |            [10]{}: seg 0x3a-0x3c.7 (3)
0x30|                              01               |          .     |              tag: 1 0x3a-0x3a.7 (1)
0x30|                                 00            |           .    |              et: "funcref" (0) (valid) 0x3b-0x3b.7 (1)
    |                                               |                |              y{}: 0x3c-0x3c.7 (1)
0x30|                                    00         |            .   |                n: 0 0x3c-0x3c.7 (1)
    |                                               |                |                x[0:0]: 0x3d-NA (0)
    |                                               |                |            [11]{}: seg 0x3d-0x3f.7 (3)
0x30|                                       01      |             .  |              tag: 1 0x3d-0x3d.7 (1)
0x30|                                          00   |              . |              et: "funcref" (0) (valid) 0x3e-0x3e.7 (1)
    |                                               |                |              y{}: 0x3f-0x3f.7 (1)
0x30|                                             00|               .|                n: 0 0x3f-0x3f.7 (1)
    |                                               |                |                x[0:0]: 0x40-NA (0)
    |                                               |                |            [12]{}: seg 0x40-0x42.7 (3)
0x40|01                                             |.               |              tag: 1 0x40-0x40.7 (1)
0x40|   00                                          | .              |              et: "funcref" (0) (valid) 0x41-0x41.7 (1)
    |                                               |                |              y{}: 0x42-0x42.7 (1)
0x40|      00                                       |  .             |                n: 0 0x42-0x42.7 (1)
    |                                               |                |                x[0:0]: 0x43-NA (0)
    |                                               |                |            [13]{}: seg 0x43-0x45.7 (3)
0x40|         01                                    |   .            |              tag: 1 0x43-0x43.7 (1)
0x40|            00                                 |    .           |              et: "funcref" (0) (valid) 0x44-0x44.7 (1)
    |                                               |                |              y{}: 0x45-0x45.7 (1)
0x40|               00                              |     .          |                n: 0 0x45-0x45.7 (1)
    |                                               |                |                x[0:0]: 0x46-NA (0)
    |                                               |                |            [14]{}: seg 0x46-0x48.7 (3)
0x40|                  01                           |      .         |              tag: 1 0x46-0x46.7 (1)
0x40|                     00                        |       .        |              et: "funcref" (0) (valid) 0x47-0x47.7 (1)
    |                                               |                |              y{}: 0x48-0x48.7 (1)
0x40|                        00                     |        .       |                n: 0 0x48-0x48.7 (1)
    |                                               |                |                x[0:0]: 0x49-NA (0)
    |                                               |                |            [15]{}: seg 0x49-0x4b.7 (3)
0x40|                           01                  |         .      |              tag: 1 0x49-0x49.7 (1)
0x40|                              00               |          .     |              et: "funcref" (0) (valid) 0x4a-0x4a.7 (1)
    |                                               |                |              y{}: 0x4b-0x4b.7 (1)
0x40|                                 00            |           .    |                n: 0 0x4b-0x4b.7 (1)
    |                                               |                |                x[0:0]: 0x4c-NA (0)
    |                                               |                |            [16]{}: seg 0x4c-0x4e.7 (3)
0x40|                                    01         |            .   |              tag: 1 0x4c-0x4c.7 (1)
0x40|                                       00      |             .  |              et: "funcref" (0) (valid) 0x4d-0x4d.7 (1)
    |                                               |                |              y{}: 0x4e-0x4e.7 (1)
0x40|                                          00   |              . |                n: 0 0x4e-0x4e.7 (1)
    |                                               |                |                x[0:0]: 0x4f-NA (0)
    |                                               |                |            [17]{}: seg 0x4f-0x51.7 (3)
0x40|                                             01|               .|              tag: 1 0x4f-0x4f.7 (1)
0x50|00                                             |.               |              et: "funcref" (0) (valid) 0x50-0x50.7 (1)
    |                                               |                |              y{}: 0x51-0x51.7 (1)
0x50|   00                                          | .              |                n: 0 0x51-0x51.7 (1)
    |                                               |                |                x[0:0]: 0x52-NA (0)
    |                                               |                |            [18]{}: seg 0x52-0x54.7 (3)
0x50|      01                                       |  .             |              tag: 1 0x52-0x52.7 (1)
0x50|         00                                    |   .            |              et: "funcref" (0) (valid) 0x53-0x53.7 (1)
    |                                               |                |              y{}: 0x54-0x54.7 (1)
0x50|            00                                 |    .           |                n: 0 0x54-0x54.7 (1)
    |                                               |                |                x[0:0]: 0x55-NA (0)
    |                                               |                |            [19]{}: seg 0x55-0x57.7 (3)
0x50|               01                              |     .          |              tag: 1 0x55-0x55.7 (1)
0x50|                  00                           |      .         |              et: "funcref" (0) (valid) 0x56-0x56.7 (1)
    |                                               |                |              y{}: 0x57-0x57.7 (1)
0x50|                     00                        |       .        |                n: 0 0x57-0x57.7 (1)
    |                                               |                |                x[0:0]: 0x58-NA (0)
    |                                               |                |            [20]{}: seg 0x58-0x5a.7 (3)
0x50|                        01                     |        .       |              tag: 1 0x58-0x58.7 (1)
0x50|                           00                  |         .      |              et: "funcref" (0) (valid) 0x59-0x59.7 (1)
    |                                               |                |              y{}: 0x5a-0x5a.7 (1)
0x50|                              00               |          .     |                n: 0 0x5a-0x5a.7 (1)
    |                                               |                |                x[0:0]: 0x5b-NA (0)
    |                                               |                |            [21]{}: seg 0x5b-0x5d.7 (3)
0x50|                                 01            |           .    |              tag: 1 0x5b-0x5b.7 (1)
0x50|                                    00         |            .   |              et: "funcref" (0) (valid) 0x5c-0x5c.7 (1)
    |                                               |                |              y{}: 0x5d-0x5d.7 (1)
0x50|                                       00      |             .  |                n: 0 0x5d-0x5d.7 (1)
    |                                               |                |                x[0:0]: 0x5e-NA (0)
    |                                               |                |            [22]{}: seg 0x5e-0x60.7 (3)
0x50|                                          01   |              . |              tag: 1 0x5e-0x5e.7 (1)
0x50|                                             00|               .|              et: "funcref" (0) (valid) 0x5f-0x5f.7 (1)
    |                                               |                |              y{}: 0x60-0x60.7 (1)
0x60|00                                             |.               |                n: 0 0x60-0x60.7 (1)
    |                                               |                |                x[0:0]: 0x61-NA (0)
    |                                               |                |            [23]{}: seg 0x61-0x63.7 (3)
0x60|   01                                          | .              |              tag: 1 0x61-0x61.7 (1)
0x60|      00                                       |  .             |              et: "funcref" (0) (valid) 0x62-0x62.7 (1)
    |                                               |                |              y{}: 0x63-0x63.7 (1)
0x60|         00                                    |   .            |                n: 0 0x63-0x63.7 (1)
    |                                               |                |                x[0:0]: 0x64-NA (0)
    |                                               |                |            [24]{}: seg 0x64-0x66.7 (3)
0x60|            01                                 |    .           |              tag: 1 0x64-0x64.7 (1)
0x60|               00                              |     .          |              et: "funcref" (0) (valid) 0x65-0x65.7 (1)
    |                                               |                |              y{}: 0x66-0x66.7 (1)
0x60|                  00                           |      .         |                n: 0 0x66-0x66.7 (1)
    |                                               |                |                x[0:0]: 0x67-NA (0)
    |                                               |                |            [25]{}: seg 0x67-0x69.7 (3)
0x60|                     01                        |       .        |              tag: 1 0x67-0x67.7 (1)
0x60|                        00                     |        .       |              et: "funcref" (0) (valid) 0x68-0x68.7 (1)
    |                                               |                |              y{}: 0x69-0x69.7 (1)
0x60|                           00                  |         .      |                n: 0 0x69-0x69.7 (1)
    |                                               |                |                x[0:0]: 0x6a-NA (0)
    |                                               |                |            [26]{}: seg 0x6a-0x6c.7 (3)
0x60|                              01               |          .     |              tag: 1 0x6a-0x6a.7 (1)
0x60|                                 00            |           .    |              et: "funcref" (0) (valid) 0x6b-0x6b.7 (1)
    |                                               |                |              y{}: 0x6c-0x6c.7 (1)
0x60|                                    00         |            .   |                n: 0 0x6c-0x6c.7 (1)
    |                                               |                |                x[0:0]: 0x6d-NA (0)
    |                                               |                |            [27]{}: seg 0x6d-0x6f.7 (3)
0x60|                                       01      |             .  |              tag: 1 0x6d-0x6d.7 (1)
0x60|                                          00   |              . |              et: "funcref" (0) (valid) 0x6e-0x6e.7 (1)
    |                                               |                |              y{}: 0x6f-0x6f.7 (1)
0x60|                                             00|               .|                n: 0 0x6f-0x6f.7 (1)
    |                                               |                |                x[0:0]: 0x70-NA (0)
    |                                               |                |            [28]{}: seg 0x70-0x72.7 (3)
0x70|01                                             |.               |              tag: 1 0x70-0x70.7 (1)
0x70|   00                                          | .              |              et: "funcref" (0) (valid) 0x71-0x71.7 (1)
    |                                               |                |              y{}: 0x72-0x72.7 (1)
0x70|      00                                       |  .             |                n: 0 0x72-0x72.7 (1)
    |                                               |                |                x[0:0]: 0x73-NA (0)
    |                                               |                |            [29]{}: seg 0x73-0x75.7 (3)
0x70|         01                                    |   .            |              tag: 1 0x73-0x73.7 (1)
0x70|            00                                 |    .           |              et: "funcref" (0) (valid) 0x74-0x74.7 (1)
    |                                               |                |              y{}: 0x75-0x75.7 (1)
0x70|               00                              |     .          |                n: 0 0x75-0x75.7 (1)
    |                                               |                |                x[0:0]: 0x76-NA (0)
    |                                               |                |            [30]{}: seg 0x76-0x78.7 (3)
0x70|                  01                           |      .         |              tag: 1 0x76-0x76.7 (1)
0x70|                     00                        |       .        |              et: "funcref" (0) (valid) 0x77-0x77.7 (1)
    |                                               |                |              y{}: 0x78-0x78.7 (1)
0x70|                        00                     |        .       |                n: 0 0x78-0x78.7 (1)
    |                                               |                |                x[0:0]: 0x79-NA (0)
    |                                               |                |            [31]{}: seg 0x79-0x7b.7 (3)
0x70|                           01                  |         .      |              tag: 1 0x79-0x79.7 (1)
0x70|                              00               |          .     |              et: "funcref" (0) (valid) 0x7a-0x7a.7 (1)
    |                                               |                |              y{}: 0x7b-0x7b.7 (1)
0x70|                                 00            |           .    |                n: 0 0x7b-0x7b.7 (1)
    |                                               |                |                x[0:0]: 0x7c-NA (0)
    |                                               |                |            [32]{}: seg 0x7c-0x7e.7 (3)
0x70|                                    01         |            .   |              tag: 1 0x7c-0x7c.7 (1)
0x70|                                       00      |             .  |              et: "funcref" (0) (valid) 0x7d-0x7d.7 (1)
    |                                               |                |              y{}: 0x7e-0x7e.7 (1)
0x70|                                          00   |              . |                n: 0 0x7e-0x7e.7 (1)
    |                                               |                |                x[0:0]: 0x7f-NA (0)
    |                                               |                |            [33]{}: seg 0x7f-0x81.7 (3)
0x70|                                             01|               .|              tag: 1 0x7f-0x7f.7 (1)
0x80|00                                             |.               |              et: "funcref" (0) (valid) 0x80-0x80.7 (1)
    |                                               |                |              y{}: 0x81-0x81.7 (1)
0x80|   00                                          | .              |                n: 0 0x81-0x81.7 (1)
    |                                               |                |                x[0:0]: 0x82-NA (0)
    |                                               |                |            [34]{}: seg 0x82-0x84.7 (3)
0x80|      01                                       |  .             |              tag: 1 0x82-0x82.7 (1)
0x80|         00                                    |   .            |              et: "funcref" (0) (valid) 0x83-0x83.7 (1)
    |                                               |                |              y{}: 0x84-0x84.7 (1)
0x80|            00                                 |    .           |                n: 0 0x84-0x84.7 (1)
    |                                               |                |                x[0:0]: 0x85-NA (0)
    |                                               |                |            [35]{}: seg 0x85-0x87.7 (3)
0x80|               01                              |     .          |              tag: 1 0x85-0x85.7 (1)
0x80|                  00                           |      .         |              et: "funcref" (0) (valid) 0x86-0x86.7 (1)
    |                                               |                |              y{}: 0x87-0x87.7 (1)
0x80|                     00                        |       .        |                n: 0 0x87-0x87.7 (1)
    |                                               |                |                x[0:0]: 0x88-NA (0)
    |                                               |                |            [36]{}: seg 0x88-0x8a.7 (3)
0x80|                        01                     |        .       |              tag: 1 0x88-0x88.7 (1)
0x80|                           00                  |         .      |              et: "funcref" (0) (valid) 0x89-0x89.7 (1)
    |                                               |                |              y{}: 0x8a-0x8a.7 (1)
0x80|                              00               |          .     |                n: 0 0x8a-0x8a.7 (1)
    |                                               |                |                x[0:0]: 0x8b-NA (0)
    |                                               |                |            [37]{}: seg 0x8b-0x8d.7 (3)
0x80|                                 01            |           .    |              tag: 1 0x8b-0x8b.7 (1)
0x80|                                    00         |            .   |              et: "funcref" (0) (valid) 0x8c-0x8c.7 (1)
    |                                               |                |              y{}: 0x8d-0x8d.7 (1)
0x80|                                       00      |             .  |                n: 0 0x8d-0x8d.7 (1)
    |                                               |                |                x[0:0]: 0x8e-NA (0)
    |                                               |                |            [38]{}: seg 0x8e-0x90.7 (3)
0x80|                                          01   |              . |              tag: 1 0x8e-0x8e.7 (1)
0x80|                                             00|               .|              et: "funcref" (0) (valid) 0x8f-0x8f.7 (1)
    |                                               |                |              y{}: 0x90-0x90.7 (1)
0x90|00                                             |.               |                n: 0 0x90-0x90.7 (1)
    |                                               |                |                x[0:0]: 0x91-NA (0)
    |                                               |                |            [39]{}: seg 0x91-0x93.7 (3)
0x90|   01                                          | .              |              tag: 1 0x91-0x91.7 (1)
0x90|      00                                       |  .             |              et: "funcref" (0) (valid) 0x92-0x92.7 (1)
    |                                               |                |              y{}: 0x93-0x93.7 (1)
0x90|         00                                    |   .            |                n: 0 0x93-0x93.7 (1)
    |                                               |                |                x[0:0]: 0x94-NA (0)
    |                                               |                |            [40]{}: seg 0x94-0x96.7 (3)
0x90|            01                                 |    .           |              tag: 1 0x94-0x94.7 (1)
0x90|               00                              |     .          |              et: "funcref" (0) (valid) 0x95-0x95.7 (1)
    |                                               |                |              y{}: 0x96-0x96.7 (1)
0x90|                  00                           |      .         |                n: 0 0x96-0x96.7 (1)
    |                                               |                |                x[0:0]: 0x97-NA (0)
    |                                               |                |            [41]{}: seg 0x97-0x99.7 (3)
0x90|                     01                        |       .        |              tag: 1 0x97-0x97.7 (1)
0x90|                        00                     |        .       |              et: "funcref" (0) (valid) 0x98-0x98.7 (1)
    |                                               |                |              y{}: 0x99-0x99.7 (1)
0x90|                           00                  |         .      |                n: 0 0x99-0x99.7 (1)
    |                                               |                |                x[0:0]: 0x9a-NA (0)
    |                                               |                |            [42]{}: seg 0x9a-0x9c.7 (3)
0x90|                              01               |          .     |              tag: 1 0x9a-0x9a.7 (1)
0x90|                                 00            |           .    |              et: "funcref" (0) (valid) 0x9b-0x9b.7 (1)
    |                                               |                |              y{}: 0x9c-0x9c.7 (1)
0x90|                                    00         |            .   |                n: 0 0x9c-0x9c.7 (1)
    |                                               |                |                x[0:0]: 0x9d-NA (0)
    |                                               |                |            [43]{}: seg 0x9d-0x9f.7 (3)
0x90|                                       01      |             .  |              tag: 1 0x9d-0x9d.7 (1)
0x90|                                          00   |              . |              et: "funcref" (0) (valid) 0x9e-0x9e.7 (1)
    |                                               |                |              y{}: 0x9f-0x9f.7 (1)
0x90|                                             00|               .|                n: 0 0x9f-0x9f.7 (1)
    |                                               |                |                x[0:0]: 0xa0-NA (0)
    |                                               |                |            [44]{}: seg 0xa0-0xa2.7 (3)
0xa0|01                                             |.               |              tag: 1 0xa0-0xa0.7 (1)
0xa0|   00                                          | .              |              et: "funcref" (0) (valid) 0xa1-0xa1.7 (1)
    |                                               |                |              y{}: 0xa2-0xa2.7 (1)
0xa0|      00                                       |  .             |                n: 0 0xa2-0xa2.7 (1)
    |                                               |                |                x[0:0]: 0xa3-NA (0)
    |                                               |                |            [45]{}: seg 0xa3-0xa5.7 (3)
0xa0|         01                                    |   .            |              tag: 1 0xa3-0xa3.7 (1)
0xa0|            00                                 |    .           |              et: "funcref" (0) (valid) 0xa4-0xa4.7 (1)
    |                                               |                |              y{}: 0xa5-0xa5.7 (1)
0xa0|               00                              |     .          |                n: 0 0xa5-0xa5.7 (1)
    |                                               |                |                x[0:0]: 0xa6-NA (0)
    |                                               |                |            [46]{}: seg 0xa6-0xa8.7 (3)
0xa0|                  01                           |      .         |              tag: 1 0xa6-0xa6.7 (1)
0xa0|                     00                        |       .        |              et: "funcref" (0) (valid) 0xa7-0xa7.7 (1)
    |                                               |                |              y{}: 0xa8-0xa8.7 (1)
0xa0|                        00                     |        .       |                n: 0 0xa8-0xa8.7 (1)
    |                                               |                |                x[0:0]: 0xa9-NA (0)
    |                                               |                |            [47]{}: seg 0xa9-0xab.7 (3)
0xa0|                           01                  |         .      |              tag: 1 0xa9-0xa9.7 (1)
0xa0|                              00               |          .     |              et: "funcref" (0) (valid) 0xaa-0xaa.7 (1)
    |                                               |                |              y{}: 0xab-0xab.7 (1)
0xa0|                                 00            |           .    |                n: 0 0xab-0xab.7 (1)
    |                                               |                |                x[0:0]: 0xac-NA (0)
    |                                               |                |            [48]{}: seg 0xac-0xae.7 (3)
0xa0|                                    01         |            .   |              tag: 1 0xac-0xac.7 (1)
0xa0|                                       00      |             .  |              et: "funcref" (0) (valid) 0xad-0xad.7 (1)
    |                                               |                |              y{}: 0xae-0xae.7 (1)
0xa0|                                          00   |              . |                n: 0 0xae-0xae.7 (1)
    |                                               |                |                x[0:0]: 0xaf-NA (0)
    |                                               |                |            [49]{}: seg 0xaf-0xb1.7 (3)
0xa0|                                             01|               .|              tag: 1 0xaf-0xaf.7 (1)
0xb0|00                                             |.               |              et: "funcref" (0) (valid) 0xb0-0xb0.7 (1)
    |                                               |                |              y{}: 0xb1-0xb1.7 (1)
0xb0|   00                                          | .              |                n: 0 0xb1-0xb1.7 (1)
    |                                               |                |                x[0:0]: 0xb2-NA (0)
    |                                               |                |            [50]{}: seg 0xb2-0xb4.7 (3)
0xb0|      01                                       |  .             |              tag: 1 0xb2-0xb2.7 (1)
0xb0|         00                                    |   .            |              et: "funcref" (0) (valid) 0xb3-0xb3.7 (1)
    |                                               |                |              y{}: 0xb4-0xb4.7 (1)
0xb0|            00                                 |    .           |                n: 0 0xb4-0xb4.7 (1)
    |                                               |                |                x[0:0]: 0xb5-NA (0)
    |                                               |                |            [51]{}: seg 0xb5-0xb7.7 (3)
0xb0|               01                              |     .          |              tag: 1 0xb5-0xb5.7 (1)
0xb0|                  00                           |      .         |              et: "funcref" (0) (valid) 0xb6-0xb6.7 (1)
    |                                               |                |              y{}: 0xb7-0xb7.7 (1)
0xb0|                     00                        |       .        |                n: 0 0xb7-0xb7.7 (1)
    |                                               |                |                x[0:0]: 0xb8-NA (0)
    |                                               |                |            [52]{}: seg 0xb8-0xba.7 (3)
0xb0|                        01                     |        .       |              tag: 1 0xb8-0xb8.7 (1)
0xb0|                           00                  |         .      |              et: "funcref" (0) (valid) 0xb9-0xb9.7 (1)
    |                                               |                |              y{}: 0xba-0xba.7 (1)
0xb0|                              00               |          .     |                n: 0 0xba-0xba.7 (1)
    |                                               |                |                x[0:0]: 0xbb-NA (0)
    |                                               |                |            [53]{}: seg 0xbb-0xbd.7 (3)
0xb0|                                 01            |           .    |              tag: 1 0xbb-0xbb.7 (1)
0xb0|                                    00         |            .   |              et: "funcref" (0) (valid) 0xbc-0xbc.7 (1)
    |                                               |                |              y{}: 0xbd-0xbd.7 (1)
0xb0|                                       00      |             .  |                n: 0 0xbd-0xbd.7 (1)
    |                                               |                |                x[0:0]: 0xbe-NA (0)
    |                                               |                |            [54]{}: seg 0xbe-0xc0.7 (3)
0xb0|                                          01   |              . |              tag: 1 0xbe-0xbe.7 (1)
0xb0|                                             00|               .|              et: "funcref" (0) (valid) 0xbf-0xbf.7 (1)
    |                                               |                |              y{}: 0xc0-0xc0.7 (1)
0xc0|00                                             |.               |                n: 0 0xc0-0xc0.7 (1)
    |                                               |                |                x[0:0]: 0xc1-NA (0)
    |                                               |                |            [55]{}: seg 0xc1-0xc3.7 (3)
0xc0|   01                                          | .              |              tag: 1 0xc1-0xc1.7 (1)
0xc0|      00                                       |  .             |              et: "funcref" (0) (valid) 0xc2-0xc2.7 (1)
    |                                               |                |              y{}: 0xc3-0xc3.7 (1)
0xc0|         00                                    |   .            |                n: 0 0xc3-0xc3.7 (1)
    |                                               |                |                x[0:0]: 0xc4-NA (0)
    |                                               |                |            [56]{}: seg 0xc4-0xc6.7 (3)
0xc0|            01                                 |    .           |              tag: 1 0xc4-0xc4.7 (1)
0xc0|               00                              |     .          |              et: "funcref" (0) (valid) 0xc5-0xc5.7 (1)
    |                                               |                |              y{}: 0xc6-0xc6.7 (1)
0xc0|                  00                           |      .         |                n: 0 0xc6-0xc6.7 (1)
    |                                               |                |                x[0:0]: 0xc7-NA (0)
    |                                               |                |            [57]{}: seg 0xc7-0xc9.7 (3)
0xc0|                     01                        |       .        |              tag: 1 0xc7-0xc7.7 (1)
0xc0|                        00                     |        .       |              et: "funcref" (0) (valid) 0xc8-0xc8.7 (1)
    |                                               |                |              y{}: 0xc9-0xc9.7 (1)
0xc0|                           00                  |         .      |                n: 0 0xc9-0xc9.7 (1)
    |                                               |                |                x[0:0]: 0xca-NA (0)
    |                                               |                |            [58]{}: seg 0xca-0xcc.7 (3)
0xc0|                              01               |          .     |              tag: 1 0xca-0xca.7 (1)
0xc0|                                 00            |           .    |              et: "funcref" (0) (valid) 0xcb-0xcb.7 (1)
    |                                               |                |              y{}: 0xcc-0xcc.7 (1)
0xc0|                                    00         |            .   |                n: 0 0xcc-0xcc.7 (1)
    |                                               |                |                x[0:0]: 0xcd-NA (0)
    |                                               |                |            [59]{}: seg 0xcd-0xcf.7 (3)
0xc0|                                       01      |             .  |              tag: 1 0xcd-0xcd.7 (1)
0xc0|                                          00   |              . |              et: "funcref" (0) (valid) 0xce-0xce.7 (1)
    |                                               |                |              y{}: 0xcf-0xcf.7 (1)
0xc0|                                             00|               .|                n: 0 0xcf-0xcf.7 (1)
    |                                               |                |                x[0:0]: 0xd0-NA (0)
    |                                               |                |            [60]{}: seg 0xd0-0xd2.7 (3)
0xd0|01                                             |.               |              tag: 1 0xd0-0xd0.7 (1)
0xd0|   00                                          | .              |              et: "funcref" (0) (valid) 0xd1-0xd1.7 (1)
    |                                               |                |              y{}: 0xd2-0xd2.7 (1)
0xd0|      00                                       |  .             |                n: 0 0xd2-0xd2.7 (1)
    |                                               |                |                x[0:0]: 0xd3-NA (0)
    |                                               |                |            [61]{}: seg 0xd3-0xd5.7 (3)
0xd0|         01                                    |   .            |              tag: 1 0xd3-0xd3.7 (1)
0xd0|            00                                 |    .           |              et: "funcref" (0) (valid) 0xd4-0xd4.7 (1)
    |                                               |                |              y{}: 0xd5-0xd5.7 (1)
0xd0|               00                              |     .          |                n: 0 0xd5-0xd5.7 (1)
    |                                               |                |                x[0:0]: 0xd6-NA (0)
    |                                               |                |            [62]{}: seg 0xd6-0xd8.7 (3)
0xd0|                  01                           |      .         |              tag: 1 0xd6-0xd6.7 (1)
0xd0|                     00                        |       .        |              et: "funcref" (0) (valid) 0xd7-0xd7.7 (1)
    |                                               |                |              y{}: 0xd8-0xd8.7 (1)
0xd0|                        00                     |        .       |                n: 0 0xd8-0xd8.7 (1)
    |                                               |                |                x[0:0]: 0xd9-NA (0)
    |                                               |                |            [63]{}: seg 0xd9-0xdb.7 (3)
0xd0|                           01                  |         .      |              tag: 1 0xd9-0xd9.7 (1)
0xd0|                              00               |          .     |              et: "funcref" (0) (valid) 0xda-0xda.7 (1)
    |                                               |                |              y{}: 0xdb-0xdb.7 (1)
0xd0|                                 00            |           .    |                n: 0 0xdb-0xdb.7 (1)
    |                                               |                |                x[0:0]: 0xdc-NA (0)
    |                                               |                |            [64]{}: seg 0xdc-0xde.7 (3)
0xd0|                                    01         |            .   |              tag: 1 0xdc-0xdc.7 (1)
0xd0|                                       00      |             .  |              et: "funcref" (0) (valid) 0xdd-0xdd.7 (1)
    |                                               |                |              y{}: 0xde-0xde.7 (1)
0xd0|                                          00   |              . |                n: 0 0xde-0xde.7 (1)
    |                                               |                |                x[0:0]: 0xdf-NA (0)
    |                                               |                |    [4]{}: section 0xdf-0xee.7 (16)
0xd0|                                             0a|               .|      id: "code section" (10) 0xdf-0xdf.7 (1)
0xe0|0e                                             |.               |      size: 14 0xe0-0xe0.7 (1)
    |                                               |                |      content{}: 0xe1-0xee.7 (14)
    |                                               |                |        code{}: 0xe1-0xee.7 (14)
0xe0|   01                                          | .              |          n: 1 0xe1-0xe1.7 (1)
    |                                               |                |          x[0:1]: 0xe2-0xee.7 (13)
    |                                               |                |            [0]{}: code 0xe2-0xee.7 (13)
0xe0|      0c                                       |  .             |              size: 12 0xe2-0xe2.7 (1)
    |                                               |                |              code{}: 0xe3-0xee.7 (12)
    |                                               |                |                t{}: 0xe3-0xe3.7 (1)
0xe0|         00                                    |   .            |                  n: 0 0xe3-0xe3.7 (1)
    |                                               |                |                  x[0:0]: 0xe4-NA (0)
    |                                               |                |                e[0:5]: 0xe4-0xee.7 (11)
    |                                               |                |                  [0]{}: in 0xe4-0xe5.7 (2)
0xe0|            41                                 |    A           |                    i32.const: 0x41 (valid) 0xe4-0xe4.7 (1)
0xe0|               00                              |     .          |                    n: 0 0xe5-0xe5.7 (1)
    |                                               |                |                  [1]{}: in 0xe6-0xe7.7 (2)
0xe0|                  41                           |      A         |                    i32.const: 0x41 (valid) 0xe6-0xe6.7 (1)
0xe0|                     00                        |       .        |                    n: 0 0xe7-0xe7.7 (1)
    |                                               |                |                  [2]{}: in 0xe8-0xe9.7 (2)
0xe0|                        41                     |        A       |                    i32.const: 0x41 (valid) 0xe8-0xe8.7 (1)
0xe0|                           00                  |         .      |                    n: 0 0xe9-0xe9.7 (1)
    |                                               |                |                  [3]{}: in 0xea-0xed.7 (4)
0xe0|                              fc               |          .     |                    prefix: 0xfc (valid) 0xea-0xea.7 (1)
0xe0|                                 0c            |           .    |                    table.init: 12 (valid) 0xeb-0xeb.7 (1)
0xe0|                                    40         |            @   |                    y: 64 0xec-0xec.7 (1)
0xe0|                                       00      |             .  |                    x: 0 0xed-0xed.7 (1)
    |                                               |                |                  [4]{}: in 0xee-0xee.7 (1)
0xe0|                                          0b|  |              .||                    end: 0xb (valid) 0xee-0xee.7 (1)
