$ fq -d wasm dv table_copy-10.wasm
    |00 01 02 03 04 05 06 07 08 09 0a 0b 0c 0d 0e 0f|0123456789abcdef|.{}: table_copy-10.wasm (wasm) 0x0-0xe3.7 (228)
0x00|00 61 73 6d                                    |.asm            |  magic: raw bits (valid) 0x0-0x3.7 (4)
0x00|            01 00 00 00                        |    ....        |  version: 1 0x4-0x7.7 (4)
    |                                               |                |  sections[0:7]: 0x8-0xe3.7 (220)
    |                                               |                |    [0]{}: section 0x8-0x16.7 (15)
0x00|                        01                     |        .       |      id: "type section" (1) 0x8-0x8.7 (1)
0x00|                           0d                  |         .      |      size: 13 0x9-0x9.7 (1)
    |                                               |                |      content{}: 0xa-0x16.7 (13)
    |                                               |                |        ft{}: 0xa-0x16.7 (13)
0x00|                              03               |          .     |          n: 3 0xa-0xa.7 (1)
    |                                               |                |          x[0:3]: 0xb-0x16.7 (12)
    |                                               |                |            [0]{}: ft 0xb-0xe.7 (4)
0x00|                                 60            |           `    |              tag: 0x60 (valid) 0xb-0xb.7 (1)
    |                                               |                |              rt1{}: 0xc-0xc.7 (1)
0x00|                                    00         |            .   |                n: 0 0xc-0xc.7 (1)
    |                                               |                |                x[0:0]: 0xd-NA (0)
    |                                               |                |              rt2{}: 0xd-0xe.7 (2)
0x00|                                       01      |             .  |                n: 1 0xd-0xd.7 (1)
    |                                               |                |                x[0:1]: 0xe-0xe.7 (1)
0x00|                                          7f   |              . |                  [0]: "i32" (0x7f) t 0xe-0xe.7 (1)
    |                                               |                |            [1]{}: ft 0xf-0x11.7 (3)
0x00|                                             60|               `|              tag: 0x60 (valid) 0xf-0xf.7 (1)
    |                                               |                |              rt1{}: 0x10-0x10.7 (1)
0x10|00                                             |.               |                n: 0 0x10-0x10.7 (1)
    |                                               |                |                x[0:0]: 0x11-NA (0)
    |                                               |                |              rt2{}: 0x11-0x11.7 (1)
0x10|   00                                          | .              |                n: 0 0x11-0x11.7 (1)
    |                                               |                |                x[0:0]: 0x12-NA (0)
    |                                               |                |            [2]{}: ft 0x12-0x16.7 (5)
0x10|      60                                       |  `             |              tag: 0x60 (valid) 0x12-0x12.7 (1)
    |                                               |                |              rt1{}: 0x13-0x14.7 (2)
0x10|         01                                    |   .            |                n: 1 0x13-0x13.7 (1)
    |                                               |                |                x[0:1]: 0x14-0x14.7 (1)
0x10|            7f                                 |    .           |                  [0]: "i32" (0x7f) t 0x14-0x14.7 (1)
    |                                               |                |              rt2{}: 0x15-0x16.7 (2)
0x10|               01                              |     .          |                n: 1 0x15-0x15.7 (1)
    |                                               |                |                x[0:1]: 0x16-0x16.7 (1)
0x10|                  7f                           |      .         |                  [0]: "i32" (0x7f) t 0x16-0x16.7 (1)
    |                                               |                |    [1]{}: section 0x17-0x41.7 (43)
0x10|                     02                        |       .        |      id: "import section" (2) 0x17-0x17.7 (1)
0x10|                        29                     |        )       |      size: 41 0x18-0x18.7 (1)
    |                                               |                |      content{}: 0x19-0x41.7 (41)
    |                                               |                |        im{}: 0x19-0x41.7 (41)
0x10|                           05                  |         .      |          n: 5 0x19-0x19.7 (1)
    |                                               |                |          x[0:5]: 0x1a-0x41.7 (40)
    |                                               |                |            [0]{}: im 0x1a-0x21.7 (8)
    |                                               |                |              mod{}: 0x1a-0x1b.7 (2)
0x10|                              01               |          .     |                n: 1 0x1a-0x1a.7 (1)
0x10|                                 61            |           a    |                b: "a" 0x1b-0x1b.7 (1)
    |                                               |                |              nm{}: 0x1c-0x1f.7 (4)
0x10|                                    03         |            .   |                n: 3 0x1c-0x1c.7 (1)
0x10|                                       65 66 30|             ef0|                b: "ef0" 0x1d-0x1f.7 (3)
    |                                               |                |              d{}: 0x20-0x21.7 (2)
0x20|00                                             |.               |                tag: "func" (0x0) 0x20-0x20.7 (1)
0x20|   00                                          | .              |                x: 0 0x21-0x21.7 (1)
    |                                               |                |            [1]{}: im 0x22-0x29.7 (8)
    |                                               |                |              mod{}: 0x22-0x23.7 (2)
0x20|      01                                       |  .             |                n: 1 0x22-0x22.7 (1)
0x20|         61                                    |   a            |                b: "a" 0x23-0x23.7 (1)
    |                                               |                |              nm{}: 0x24-0x27.7 (4)
0x20|            03                                 |    .           |                n: 3 0x24-0x24.7 (1)
0x20|               65 66 31                        |     ef1        |                b: "ef1" 0x25-0x27.7 (3)
    |                                               |                |              d{}: 0x28-0x29.7 (2)
0x20|                        00                     |        .       |                tag: "func" (0x0) 0x28-0x28.7 (1)
0x20|                           00                  |         .      |                x: 0 0x29-0x29.7 (1)
    |                                               |                |            [2]{}: im 0x2a-0x31.7 (8)
    |                                               |                |              mod{}: 0x2a-0x2b.7 (2)
0x20|                              01               |          .     |                n: 1 0x2a-0x2a.7 (1)
0x20|                                 61            |           a    |                b: "a" 0x2b-0x2b.7 (1)
    |                                               |                |              nm{}: 0x2c-0x2f.7 (4)
0x20|                                    03         |            .   |                n: 3 0x2c-0x2c.7 (1)
0x20|                                       65 66 32|             ef2|                b: "ef2" 0x2d-0x2f.7 (3)
    |                                               |                |              d{}: 0x30-0x31.7 (2)
0x30|00                                             |.               |                tag: "func" (0x0) 0x30-0x30.7 (1)
0x30|   00                                          | .              |                x: 0 0x31-0x31.7 (1)
    |                                               |                |            [3]{}: im 0x32-0x39.7 (8)
    |                                               |                |              mod{}: 0x32-0x33.7 (2)
0x30|      01                                       |  .             |                n: 1 0x32-0x32.7 (1)
0x30|         61                                    |   a            |                b: "a" 0x33-0x33.7 (1)
    |                                               |                |              nm{}: 0x34-0x37.7 (4)
0x30|            03                                 |    .           |                n: 3 0x34-0x34.7 (1)
0x30|               65 66 33                        |     ef3        |                b: "ef3" 0x35-0x37.7 (3)
    |                                               |                |              d{}: 0x38-0x39.7 (2)
0x30|                        00                     |        .       |                tag: "func" (0x0) 0x38-0x38.7 (1)
0x30|                           00                  |         .      |                x: 0 0x39-0x39.7 (1)
    |                                               |                |            [4]{}: im 0x3a-0x41.7 (8)
    |                                               |                |              mod{}: 0x3a-0x3b.7 (2)
0x30|                              01               |          .     |                n: 1 0x3a-0x3a.7 (1)
0x30|                                 61            |           a    |                b: "a" 0x3b-0x3b.7 (1)
    |                                               |                |              nm{}: 0x3c-0x3f.7 (4)
0x30|                                    03         |            .   |                n: 3 0x3c-0x3c.7 (1)
0x30|                                       65 66 34|             ef4|                b: "ef4" 0x3d-0x3f.7 (3)
    |                                               |                |              d{}: 0x40-0x41.7 (2)
0x40|00                                             |.               |                tag: "func" (0x0) 0x40-0x40.7 (1)
0x40|   00                                          | .              |                x: 0 0x41-0x41.7 (1)
    |                                               |                |    [2]{}: section 0x42-0x4c.7 (11)
0x40|      03                                       |  .             |      id: "function section" (3) 0x42-0x42.7 (1)
0x40|         09                                    |   .            |      size: 9 0x43-0x43.7 (1)
    |                                               |                |      content{}: 0x44-0x4c.7 (9)
    |                                               |                |        x{}: 0x44-0x4c.7 (9)
0x40|            08                                 |    .           |          n: 8 0x44-0x44.7 (1)
    |                                               |                |          x[0:8]: 0x45-0x4c.7 (8)
0x40|               00                              |     .          |            [0]: 0 x 0x45-0x45.7 (1)
0x40|                  00                           |      .         |            [1]: 0 x 0x46-0x46.7 (1)
0x40|                     00                        |       .        |            [2]: 0 x 0x47-0x47.7 (1)
0x40|                        00                     |        .       |            [3]: 0 x 0x48-0x48.7 (1)
0x40|                           00                  |         .      |            [4]: 0 x 0x49-0x49.7 (1)
0x40|                              01               |          .     |            [5]: 1 x 0x4a-0x4a.7 (1)
0x40|                                 02            |           .    |            [6]: 2 x 0x4b-0x4b.7 (1)
0x40|                                    02         |            .   |            [7]: 2 x 0x4c-0x4c.7 (1)
    |                                               |                |    [3]{}: section 0x4d-0x57.7 (11)
0x40|                                       04      |             .  |      id: "table section" (4) 0x4d-0x4d.7 (1)
0x40|                                          09   |              . |      size: 9 0x4e-0x4e.7 (1)
    |                                               |                |      content{}: 0x4f-0x57.7 (9)
    |                                               |                |        tab{}: 0x4f-0x57.7 (9)
0x40|                                             02|               .|          n: 2 0x4f-0x4f.7 (1)
    |                                               |                |          x[0:2]: 0x50-0x57.7 (8)
    |                                               |                |            [0]{}: tab 0x50-0x53.7 (4)
0x50|70                                             |p               |              et: "funcref" (112) 0x50-0x50.7 (1)
    |                                               |                |              lim{}: 0x51-0x53.7 (3)
0x50|   01                                          | .              |                tag: 0x1 0x51-0x51.7 (1)
0x50|      1e                                       |  .             |                n: 30 0x52-0x52.7 (1)
0x50|         1e                                    |   .            |                m: 30 0x53-0x53.7 (1)
    |                                               |                |            [1]{}: tab 0x54-0x57.7 (4)
0x50|            70                                 |    p           |              et: "funcref" (112) 0x54-0x54.7 (1)
    |                                               |                |              lim{}: 0x55-0x57.7 (3)
0x50|               01                              |     .          |                tag: 0x1 0x55-0x55.7 (1)
0x50|                  1e                           |      .         |                n: 30 0x56-0x56.7 (1)
0x50|                     1e                        |       .        |                m: 30 0x57-0x57.7 (1)
    |                                               |                |    [4]{}: section 0x58-0x77.7 (32)
0x50|                        07                     |        .       |      id: "export section" (7) 0x58-0x58.7 (1)
0x50|                           1e                  |         .      |      size: 30 0x59-0x59.7 (1)
    |                                               |                |      content{}: 0x5a-0x77.7 (30)
    |                                               |                |        ex{}: 0x5a-0x77.7 (30)
0x50|                              03               |          .     |          n: 3 0x5a-0x5a.7 (1)
    |                                               |                |          x[0:3]: 0x5b-0x77.7 (29)
    |                                               |                |            [0]{}: ex 0x5b-0x61.7 (7)
    |                                               |                |              nm{}: 0x5b-0x5f.7 (5)
0x50|                                 04            |           .    |                n: 4 0x5b-0x5b.7 (1)
0x50|                                    74 65 73 74|            test|                b: "test" 0x5c-0x5f.7 (4)
    |                                               |                |              d{}: 0x60-0x61.7 (2)
0x60|00                                             |.               |                tag: "funcidx" (0x0) 0x60-0x60.7 (1)
0x60|   0a                                          | .              |                x: 10 0x61-0x61.7 (1)
    |                                               |                |            [1]{}: ex 0x62-0x6c.7 (11)
    |                                               |                |              nm{}: 0x62-0x6a.7 (9)
0x60|      08                                       |  .             |                n: 8 0x62-0x62.7 (1)
0x60|         63 68 65 63 6b 5f 74 30               |   check_t0     |                b: "check_t0" 0x63-0x6a.7 (8)
    |                                               |                |              d{}: 0x6b-0x6c.7 (2)
0x60|                                 00            |           .    |                tag: "funcidx" (0x0) 0x6b-0x6b.7 (1)
0x60|                                    0b         |            .   |                x: 11 0x6c-0x6c.7 (1)
    |                                               |                |            [2]{}: ex 0x6d-0x77.7 (11)
    |                                               |                |              nm{}: 0x6d-0x75.7 (9)
0x60|                                       08      |             .  |                n: 8 0x6d-0x6d.7 (1)
0x60|                                          63 68|              ch|                b: "check_t1" 0x6e-0x75.7 (8)
0x70|65 63 6b 5f 74 31                              |eck_t1          |
    |                                               |                |              d{}: 0x76-0x77.7 (2)
0x70|                  00                           |      .         |                tag: "funcidx" (0x0) 0x76-0x76.7 (1)
0x70|                     0c                        |       .        |                x: 12 0x77-0x77.7 (1)
    |                                               |                |    [5]{}: section 0x78-0xb3.7 (60)
0x70|                        09                     |        .       |      id: "element section" (9) 0x78-0x78.7 (1)
0x70|                           3a                  |         :      |      size: 58 0x79-0x79.7 (1)
    |                                               |                |      element{}: 0x7a-0xb3.7 (58)
    |                                               |                |        seg{}: 0x7a-0xb3.7 (58)
0x70|                              06               |          .     |          n: 6 0x7a-0x7a.7 (1)
    |                                               |                |          x[0:6]: 0x7b-0xb3.7 (57)
    |                                               |                |            [0]{}: seg 0x7b-0x85.7 (11)
0x70|                                 02            |           .    |              tag: 2 0x7b-0x7b.7 (1)
0x70|                                    01         |            .   |              x: 1 0x7c-0x7c.7 (1)
    |                                               |                |              e[0:2]: 0x7d-0x7f.7 (3)
    |                                               |                |                [0]{}: in 0x7d-0x7e.7 (2)
0x70|                                       41      |             A  |                  i32.const: 0x41 (valid) 0x7d-0x7d.7 (1)
0x70|                                          02   |              . |                  n: 2 0x7e-0x7e.7 (1)
    |                                               |                |                [1]{}: in 0x7f-0x7f.7 (1)
0x70|                                             0b|               .|                  end: 0xb (valid) 0x7f-0x7f.7 (1)
0x80|00                                             |.               |              et: "funcref" (0) (valid) 0x80-0x80.7 (1)
    |                                               |                |              y{}: 0x81-0x85.7 (5)
0x80|   04                                          | .              |                n: 4 0x81-0x81.7 (1)
    |                                               |                |                x[0:4]: 0x82-0x85.7 (4)
0x80|      03                                       |  .             |                  [0]: 3 y 0x82-0x82.7 (1)
0x80|         01                                    |   .            |                  [1]: 1 y 0x83-0x83.7 (1)
0x80|            04                                 |    .           |                  [2]: 4 y 0x84-0x84.7 (1)
0x80|               01                              |     .          |                  [3]: 1 y 0x85-0x85.7 (1)
    |                                               |                |            [1]{}: seg 0x86-0x8c.7 (7)
0x80|                  01                           |      .         |              tag: 1 0x86-0x86.7 (1)
0x80|                     00                        |       .        |              et: "funcref" (0) (valid) 0x87-0x87.7 (1)
    |                                               |                |              y{}: 0x88-0x8c.7 (5)
0x80|                        04                     |        .       |                n: 4 0x88-0x88.7 (1)
    |                                               |                |                x[0:4]: 0x89-0x8c.7 (4)
0x80|                           02                  |         .      |                  [0]: 2 y 0x89-0x89.7 (1)
0x80|                              07               |          .     |                  [1]: 7 y 0x8a-0x8a.7 (1)
0x80|                                 01            |           .    |                  [2]: 1 y 0x8b-0x8b.7 (1)
0x80|                                    08         |            .   |                  [3]: 8 y 0x8c-0x8c.7 (1)
    |                                               |                |            [2]{}: seg 0x8d-0x98.7 (12)
0x80|                                       02      |             .  |              tag: 2 0x8d-0x8d.7 (1)
0x80|                                          01   |              . |              x: 1 0x8e-0x8e.7 (1)
    |                                               |                |              e[0:2]: 0x8f-0x91.7 (3)
    |                                               |                |                [0]{}: in 0x8f-0x90.7 (2)
0x80|                                             41|               A|                  i32.const: 0x41 (valid) 0x8f-0x8f.7 (1)
0x90|0c                                             |.               |                  n: 12 0x90-0x90.7 (1)
    |                                               |                |                [1]{}: in 0x91-0x91.7 (1)
0x90|   0b                                          | .              |                  end: 0xb (valid) 0x91-0x91.7 (1)
0x90|      00                                       |  .             |              et: "funcref" (0) (valid) 0x92-0x92.7 (1)
    |                                               |                |              y{}: 0x93-0x98.7 (6)
0x90|         05                                    |   .            |                n: 5 0x93-0x93.7 (1)
    |                                               |                |                x[0:5]: 0x94-0x98.7 (5)
0x90|            07                                 |    .           |                  [0]: 7 y 0x94-0x94.7 (1)
0x90|               05                              |     .          |                  [1]: 5 y 0x95-0x95.7 (1)
0x90|                  02                           |      .         |                  [2]: 2 y 0x96-0x96.7 (1)
0x90|                     03                        |       .        |                  [3]: 3 y 0x97-0x97.7 (1)
0x90|                        06                     |        .       |                  [4]: 6 y 0x98-0x98.7 (1)
    |                                               |                |            [3]{}: seg 0x99-0xa0.7 (8)
0x90|                           01                  |         .      |              tag: 1 0x99-0x99.7 (1)
0x90|                              00               |          .     |              et: "funcref" (0) (valid) 0x9a-0x9a.7 (1)
    |                                               |                |              y{}: 0x9b-0xa0.7 (6)
0x90|                                 05            |           .    |                n: 5 0x9b-0x9b.7 (1)
    |                                               |                |                x[0:5]: 0x9c-0xa0.7 (5)
0x90|                                    05         |            .   |                  [0]: 5 y 0x9c-0x9c.7 (1)
0x90|                                       09      |             .  |                  [1]: 9 y 0x9d-0x9d.7 (1)
0x90|                                          02   |              . |                  [2]: 2 y 0x9e-0x9e.7 (1)
0x90|                                             07|               .|                  [3]: 7 y 0x9f-0x9f.7 (1)
0xa0|06                                             |.               |                  [4]: 6 y 0xa0-0xa0.7 (1)
    |                                               |                |            [4]{}: seg 0xa1-0xa9.7 (9)
0xa0|   00                                          | .              |              tag: 0 0xa1-0xa1.7 (1)
    |                                               |                |              e[0:2]: 0xa2-0xa4.7 (3)
    |                                               |                |                [0]{}: in 0xa2-0xa3.7 (2)
0xa0|      41                                       |  A             |                  i32.const: 0x41 (valid) 0xa2-0xa2.7 (1)
0xa0|         03                                    |   .            |                  n: 3 0xa3-0xa3.7 (1)
    |                                               |                |                [1]{}: in 0xa4-0xa4.7 (1)
0xa0|            0b                                 |    .           |                  end: 0xb (valid) 0xa4-0xa4.7 (1)
    |                                               |                |              y{}: 0xa5-0xa9.7 (5)
0xa0|               04                              |     .          |                n: 4 0xa5-0xa5.7 (1)
    |                                               |                |                x[0:4]: 0xa6-0xa9.7 (4)
0xa0|                  01                           |      .         |                  [0]: 1 y 0xa6-0xa6.7 (1)
0xa0|                     03                        |       .        |                  [1]: 3 y 0xa7-0xa7.7 (1)
0xa0|                        01                     |        .       |                  [2]: 1 y 0xa8-0xa8.7 (1)
0xa0|                           04                  |         .      |                  [3]: 4 y 0xa9-0xa9.7 (1)
    |                                               |                |            [5]{}: seg 0xaa-0xb3.7 (10)
0xa0|                              00               |          .     |              tag: 0 0xaa-0xaa.7 (1)
    |                                               |                |              e[0:2]: 0xab-0xad.7 (3)
    |                                               |                |                [0]{}: in 0xab-0xac.7 (2)
0xa0|                                 41            |           A    |                  i32.const: 0x41 (valid) 0xab-0xab.7 (1)
0xa0|                                    0b         |            .   |                  n: 11 0xac-0xac.7 (1)
    |                                               |                |                [1]{}: in 0xad-0xad.7 (1)
0xa0|                                       0b      |             .  |                  end: 0xb (valid) 0xad-0xad.7 (1)
    |                                               |                |              y{}: 0xae-0xb3.7 (6)
0xa0|                                          05   |              . |                n: 5 0xae-0xae.7 (1)
    |                                               |                |                x[0:5]: 0xaf-0xb3.7 (5)
0xa0|                                             06|               .|                  [0]: 6 y 0xaf-0xaf.7 (1)
0xb0|03                                             |.               |                  [1]: 3 y 0xb0-0xb0.7 (1)
0xb0|   02                                          | .              |                  [2]: 2 y 0xb1-0xb1.7 (1)
0xb0|      05                                       |  .             |                  [3]: 5 y 0xb2-0xb2.7 (1)
0xb0|         07                                    |   .            |                  [4]: 7 y 0xb3-0xb3.7 (1)
    |                                               |                |    [6]{}: section 0xb4-0xe3.7 (48)
0xb0|            0a                                 |    .           |      id: "code section" (10) 0xb4-0xb4.7 (1)
0xb0|               2e                              |     .          |      size: 46 0xb5-0xb5.7 (1)
    |                                               |                |      content{}: 0xb6-0xe3.7 (46)
    |                                               |                |        code{}: 0xb6-0xe3.7 (46)
0xb0|                  08                           |      .         |          n: 8 0xb6-0xb6.7 (1)
    |                                               |                |          x[0:8]: 0xb7-0xe3.7 (45)
    |                                               |                |            [0]{}: code 0xb7-0xbb.7 (5)
0xb0|                     04                        |       .        |              size: 4 0xb7-0xb7.7 (1)
    |                                               |                |              code{}: 0xb8-0xbb.7 (4)
    |                                               |                |                t{}: 0xb8-0xb8.7 (1)
0xb0|                        00                     |        .       |                  n: 0 0xb8-0xb8.7 (1)
    |                                               |                |                  x[0:0]: 0xb9-NA (0)
    |                                               |                |                e[0:2]: 0xb9-0xbb.7 (3)
    |                                               |                |                  [0]{}: in 0xb9-0xba.7 (2)
0xb0|                           41                  |         A      |                    i32.const: 0x41 (valid) 0xb9-0xb9.7 (1)
0xb0|                              05               |          .     |                    n: 5 0xba-0xba.7 (1)
    |                                               |                |                  [1]{}: in 0xbb-0xbb.7 (1)
0xb0|                                 0b            |           .    |                    end: 0xb (valid) 0xbb-0xbb.7 (1)
    |                                               |                |            [1]{}: code 0xbc-0xc0.7 (5)
0xb0|                                    04         |            .   |              size: 4 0xbc-0xbc.7 (1)
    |                                               |                |              code{}: 0xbd-0xc0.7 (4)
    |                                               |                |                t{}: 0xbd-0xbd.7 (1)
0xb0|                                       00      |             .  |                  n: 0 0xbd-0xbd.7 (1)
    |                                               |                |                  x[0:0]: 0xbe-NA (0)
    |                                               |                |                e[0:2]: 0xbe-0xc0.7 (3)
    |                                               |                |                  [0]{}: in 0xbe-0xbf.7 (2)
0xb0|                                          41   |              A |                    i32.const: 0x41 (valid) 0xbe-0xbe.7 (1)
0xb0|                                             06|               .|                    n: 6 0xbf-0xbf.7 (1)
    |                                               |                |                  [1]{}: in 0xc0-0xc0.7 (1)
0xc0|0b                                             |.               |                    end: 0xb (valid) 0xc0-0xc0.7 (1)
    |                                               |                |            [2]{}: code 0xc1-0xc5.7 (5)
0xc0|   04                                          | .              |              size: 4 0xc1-0xc1.7 (1)
    |                                               |                |              code{}: 0xc2-0xc5.7 (4)
    |                                               |                |                t{}: 0xc2-0xc2.7 (1)
0xc0|      00                                       |  .             |                  n: 0 0xc2-0xc2.7 (1)
    |                                               |                |                  x[0:0]: 0xc3-NA (0)
    |                                               |                |                e[0:2]: 0xc3-0xc5.7 (3)
    |                                               |                |                  [0]{}: in 0xc3-0xc4.7 (2)
0xc0|         41                                    |   A            |                    i32.const: 0x41 (valid) 0xc3-0xc3.7 (1)
0xc0|            07                                 |    .           |                    n: 7 0xc4-0xc4.7 (1)
    |                                               |                |                  [1]{}: in 0xc5-0xc5.7 (1)
0xc0|               0b                              |     .          |                    end: 0xb (valid) 0xc5-0xc5.7 (1)
    |                                               |                |            [3]{}: code 0xc6-0xca.7 (5)
0xc0|                  04                           |      .         |              size: 4 0xc6-0xc6.7 (1)
    |                                               |                |              code{}: 0xc7-0xca.7 (4)
    |                                               |                |                t{}: 0xc7-0xc7.7 (1)
0xc0|                     00                        |       .        |                  n: 0 0xc7-0xc7.7 (1)
    |                                               |                |                  x[0:0]: 0xc8-NA (0)
    |                                               |                |                e[0:2]: 0xc8-0xca.7 (3)
    |                                               |                |                  [0]{}: in 0xc8-0xc9.7 (2)
0xc0|                        41                     |        A       |                    i32.const: 0x41 (valid) 0xc8-0xc8.7 (1)
0xc0|                           08                  |         .      |                    n: 8 0xc9-0xc9.7 (1)
    |                                               |                |                  [1]{}: in 0xca-0xca.7 (1)
0xc0|                              0b               |          .     |                    end: 0xb (valid) 0xca-0xca.7 (1)
    |                                               |                |            [4]{}: code 0xcb-0xcf.7 (5)
0xc0|                                 04            |           .    |              size: 4 0xcb-0xcb.7 (1)
    |                                               |                |              code{}: 0xcc-0xcf.7 (4)
    |                                               |                |                t{}: 0xcc-0xcc.7 (1)
0xc0|                                    00         |            .   |                  n: 0 0xcc-0xcc.7 (1)
    |                                               |                |                  x[0:0]: 0xcd-NA (0)
    |                                               |                |                e[0:2]: 0xcd-0xcf.7 (3)
    |                                               |                |                  [0]{}: in 0xcd-0xce.7 (2)
0xc0|                                       41      |             A  |                    i32.const: 0x41 (valid) 0xcd-0xcd.7 (1)
0xc0|                                          09   |              . |                    n: 9 0xce-0xce.7 (1)
    |                                               |                |                  [1]{}: in 0xcf-0xcf.7 (1)
0xc0|                                             0b|               .|                    end: 0xb (valid) 0xcf-0xcf.7 (1)
    |                                               |                |            [5]{}: code 0xd0-0xd3.7 (4)
0xd0|03                                             |.               |              size: 3 0xd0-0xd0.7 (1)
    |                                               |                |              code{}: 0xd1-0xd3.7 (3)
    |                                               |                |                t{}: 0xd1-0xd1.7 (1)
0xd0|   00                                          | .              |                  n: 0 0xd1-0xd1.7 (1)
    |                                               |                |                  x[0:0]: 0xd2-NA (0)
    |                                               |                |                e[0:2]: 0xd2-0xd3.7 (2)
    |                                               |                |                  [0]{}: in 0xd2-0xd2.7 (1)
0xd0|      01                                       |  .             |                    nop: 0x1 (valid) 0xd2-0xd2.7 (1)
    |                                               |                |                  [1]{}: in 0xd3-0xd3.7 (1)
0xd0|         0b                                    |   .            |                    end: 0xb (valid) 0xd3-0xd3.7 (1)
    |                                               |                |            [6]{}: code 0xd4-0xdb.7 (8)
0xd0|            07                                 |    .           |              size: 7 0xd4-0xd4.7 (1)
    |                                               |                |              code{}: 0xd5-0xdb.7 (7)
    |                                               |                |                t{}: 0xd5-0xd5.7 (1)
0xd0|               00                              |     .          |                  n: 0 0xd5-0xd5.7 (1)
    |                                               |                |                  x[0:0]: 0xd6-NA (0)
    |                                               |                |                e[0:3]: 0xd6-0xdb.7 (6)
    |                                               |                |                  [0]{}: in 0xd6-0xd7.7 (2)
0xd0|                  20                           |                |                    local.get: 0x20 (valid) 0xd6-0xd6.7 (1)
0xd0|                     00                        |       .        |                    x: 0 0xd7-0xd7.7 (1)
    |                                               |                |                  [1]{}: in 0xd8-0xda.7 (3)
0xd0|                        11                     |        .       |                    call: 0x11 (valid) 0xd8-0xd8.7 (1)
0xd0|                           00                  |         .      |                    y: 0 0xd9-0xd9.7 (1)
0xd0|                              01               |          .     |                    x: 1 0xda-0xda.7 (1)
    |                                               |                |                  [2]{}: in 0xdb-0xdb.7 (1)
0xd0|                                 0b            |           .    |                    end: 0xb (valid) 0xdb-0xdb.7 (1)
    |                                               |                |            [7]{}: code 0xdc-0xe3.7 (8)
0xd0|                                    07         |            .   |              size: 7 0xdc-0xdc.7 (1)
    |                                               |                |              code{}: 0xdd-0xe3.7 (7)
    |                                               |                |                t{}: 0xdd-0xdd.7 (1)
0xd0|                                       00      |             .  |                  n: 0 0xdd-0xdd.7 (1)
    |                                               |                |                  x[0:0]: 0xde-NA (0)
    |                                               |                |                e[0:3]: 0xde-0xe3.7 (6)
    |                                               |                |                  [0]{}: in 0xde-0xdf.7 (2)
0xd0|                                          20   |                |                    local.get: 0x20 (valid) 0xde-0xde.7 (1)
0xd0|                                             00|               .|                    x: 0 0xdf-0xdf.7 (1)
    |                                               |                |                  [1]{}: in 0xe0-0xe2.7 (3)
0xe0|11                                             |.               |                    call: 0x11 (valid) 0xe0-0xe0.7 (1)
0xe0|   00                                          | .              |                    y: 0 0xe1-0xe1.7 (1)
0xe0|      00                                       |  .             |                    x: 0 0xe2-0xe2.7 (1)
    |                                               |                |                  [2]{}: in 0xe3-0xe3.7 (1)
0xe0|         0b|                                   |   .|           |                    end: 0xb (valid) 0xe3-0xe3.7 (1)
