$ fq -d wasm dv table_copy-8.wasm
    |00 01 02 03 04 05 06 07 08 09 0a 0b 0c 0d 0e 0f|0123456789abcdef|.{}: table_copy-8.wasm (wasm) 0x0-0xed (237)
0x00|00 61 73 6d                                    |.asm            |  magic: raw bits (valid) 0x0-0x4 (4)
0x00|            01 00 00 00                        |    ....        |  version: 1 0x4-0x8 (4)
    |                                               |                |  sections[0:7]: 0x8-0xed (229)
    |                                               |                |    [0]{}: section 0x8-0x17 (15)
0x00|                        01                     |        .       |      id: "type_section" (1) 0x8-0x9 (1)
0x00|                           0d                  |         .      |      size: 13 (valid) 0x9-0xa (1)
    |                                               |                |      content{}: 0xa-0x17 (13)
    |                                               |                |        ft{}: 0xa-0x17 (13)
0x00|                              03               |          .     |          n: 3 (valid) 0xa-0xb (1)
    |                                               |                |          x[0:3]: 0xb-0x17 (12)
    |                                               |                |            [0]{}: ft 0xb-0xf (4)
0x00|                                 60            |           `    |              tag: 0x60 (valid) 0xb-0xc (1)
    |                                               |                |              rt1{}: 0xc-0xd (1)
0x00|                                    00         |            .   |                n: 0 (valid) 0xc-0xd (1)
    |                                               |                |                x[0:0]: 0xd-0xd (0)
    |                                               |                |              rt2{}: 0xd-0xf (2)
0x00|                                       01      |             .  |                n: 1 (valid) 0xd-0xe (1)
    |                                               |                |                x[0:1]: 0xe-0xf (1)
0x00|                                          7f   |              . |                  [0]: "i32" (0x7f) t 0xe-0xf (1)
    |                                               |                |            [1]{}: ft 0xf-0x12 (3)
0x00|                                             60|               `|              tag: 0x60 (valid) 0xf-0x10 (1)
    |                                               |                |              rt1{}: 0x10-0x11 (1)
0x10|00                                             |.               |                n: 0 (valid) 0x10-0x11 (1)
    |                                               |                |                x[0:0]: 0x11-0x11 (0)
    |                                               |                |              rt2{}: 0x11-0x12 (1)
0x10|   00                                          | .              |                n: 0 (valid) 0x11-0x12 (1)
    |                                               |                |                x[0:0]: 0x12-0x12 (0)
    |                                               |                |            [2]{}: ft 0x12-0x17 (5)
0x10|      60                                       |  `             |              tag: 0x60 (valid) 0x12-0x13 (1)
    |                                               |                |              rt1{}: 0x13-0x15 (2)
0x10|         01                                    |   .            |                n: 1 (valid) 0x13-0x14 (1)
    |                                               |                |                x[0:1]: 0x14-0x15 (1)
0x10|            7f                                 |    .           |                  [0]: "i32" (0x7f) t 0x14-0x15 (1)
    |                                               |                |              rt2{}: 0x15-0x17 (2)
0x10|               01                              |     .          |                n: 1 (valid) 0x15-0x16 (1)
    |                                               |                |                x[0:1]: 0x16-0x17 (1)
0x10|                  7f                           |      .         |                  [0]: "i32" (0x7f) t 0x16-0x17 (1)
    |                                               |                |    [1]{}: section 0x17-0x42 (43)
0x10|                     02                        |       .        |      id: "import_section" (2) 0x17-0x18 (1)
0x10|                        29                     |        )       |      size: 41 (valid) 0x18-0x19 (1)
    |                                               |                |      content{}: 0x19-0x42 (41)
    |                                               |                |        im{}: 0x19-0x42 (41)
0x10|                           05                  |         .      |          n: 5 (valid) 0x19-0x1a (1)
    |                                               |                |          x[0:5]: 0x1a-0x42 (40)
    |                                               |                |            [0]{}: im 0x1a-0x22 (8)
    |                                               |                |              mod{}: 0x1a-0x1c (2)
0x10|                              01               |          .     |                n: 1 (valid) 0x1a-0x1b (1)
0x10|                                 61            |           a    |                b: "a" 0x1b-0x1c (1)
    |                                               |                |              nm{}: 0x1c-0x20 (4)
0x10|                                    03         |            .   |                n: 3 (valid) 0x1c-0x1d (1)
0x10|                                       65 66 30|             ef0|                b: "ef0" 0x1d-0x20 (3)
    |                                               |                |              d{}: 0x20-0x22 (2)
0x20|00                                             |.               |                tag: "func" (0x0) 0x20-0x21 (1)
0x20|   00                                          | .              |                x: 0 (valid) 0x21-0x22 (1)
    |                                               |                |            [1]{}: im 0x22-0x2a (8)
    |                                               |                |              mod{}: 0x22-0x24 (2)
0x20|      01                                       |  .             |                n: 1 (valid) 0x22-0x23 (1)
0x20|         61                                    |   a            |                b: "a" 0x23-0x24 (1)
    |                                               |                |              nm{}: 0x24-0x28 (4)
0x20|            03                                 |    .           |                n: 3 (valid) 0x24-0x25 (1)
0x20|               65 66 31                        |     ef1        |                b: "ef1" 0x25-0x28 (3)
    |                                               |                |              d{}: 0x28-0x2a (2)
0x20|                        00                     |        .       |                tag: "func" (0x0) 0x28-0x29 (1)
0x20|                           00                  |         .      |                x: 0 (valid) 0x29-0x2a (1)
    |                                               |                |            [2]{}: im 0x2a-0x32 (8)
    |                                               |                |              mod{}: 0x2a-0x2c (2)
0x20|                              01               |          .     |                n: 1 (valid) 0x2a-0x2b (1)
0x20|                                 61            |           a    |                b: "a" 0x2b-0x2c (1)
    |                                               |                |              nm{}: 0x2c-0x30 (4)
0x20|                                    03         |            .   |                n: 3 (valid) 0x2c-0x2d (1)
0x20|                                       65 66 32|             ef2|                b: "ef2" 0x2d-0x30 (3)
    |                                               |                |              d{}: 0x30-0x32 (2)
0x30|00                                             |.               |                tag: "func" (0x0) 0x30-0x31 (1)
0x30|   00                                          | .              |                x: 0 (valid) 0x31-0x32 (1)
    |                                               |                |            [3]{}: im 0x32-0x3a (8)
    |                                               |                |              mod{}: 0x32-0x34 (2)
0x30|      01                                       |  .             |                n: 1 (valid) 0x32-0x33 (1)
0x30|         61                                    |   a            |                b: "a" 0x33-0x34 (1)
    |                                               |                |              nm{}: 0x34-0x38 (4)
0x30|            03                                 |    .           |                n: 3 (valid) 0x34-0x35 (1)
0x30|               65 66 33                        |     ef3        |                b: "ef3" 0x35-0x38 (3)
    |                                               |                |              d{}: 0x38-0x3a (2)
0x30|                        00                     |        .       |                tag: "func" (0x0) 0x38-0x39 (1)
0x30|                           00                  |         .      |                x: 0 (valid) 0x39-0x3a (1)
    |                                               |                |            [4]{}: im 0x3a-0x42 (8)
    |                                               |                |              mod{}: 0x3a-0x3c (2)
0x30|                              01               |          .     |                n: 1 (valid) 0x3a-0x3b (1)
0x30|                                 61            |           a    |                b: "a" 0x3b-0x3c (1)
    |                                               |                |              nm{}: 0x3c-0x40 (4)
0x30|                                    03         |            .   |                n: 3 (valid) 0x3c-0x3d (1)
0x30|                                       65 66 34|             ef4|                b: "ef4" 0x3d-0x40 (3)
    |                                               |                |              d{}: 0x40-0x42 (2)
0x40|00                                             |.               |                tag: "func" (0x0) 0x40-0x41 (1)
0x40|   00                                          | .              |                x: 0 (valid) 0x41-0x42 (1)
    |                                               |                |    [2]{}: section 0x42-0x4d (11)
0x40|      03                                       |  .             |      id: "function_section" (3) 0x42-0x43 (1)
0x40|         09                                    |   .            |      size: 9 (valid) 0x43-0x44 (1)
    |                                               |                |      content{}: 0x44-0x4d (9)
    |                                               |                |        x{}: 0x44-0x4d (9)
0x40|            08                                 |    .           |          n: 8 (valid) 0x44-0x45 (1)
    |                                               |                |          x[0:8]: 0x45-0x4d (8)
0x40|               00                              |     .          |            [0]: 0 x (valid) 0x45-0x46 (1)
0x40|                  00                           |      .         |            [1]: 0 x (valid) 0x46-0x47 (1)
0x40|                     00                        |       .        |            [2]: 0 x (valid) 0x47-0x48 (1)
0x40|                        00                     |        .       |            [3]: 0 x (valid) 0x48-0x49 (1)
0x40|                           00                  |         .      |            [4]: 0 x (valid) 0x49-0x4a (1)
0x40|                              01               |          .     |            [5]: 1 x (valid) 0x4a-0x4b (1)
0x40|                                 02            |           .    |            [6]: 2 x (valid) 0x4b-0x4c (1)
0x40|                                    02         |            .   |            [7]: 2 x (valid) 0x4c-0x4d (1)
    |                                               |                |    [3]{}: section 0x4d-0x58 (11)
0x40|                                       04      |             .  |      id: "table_section" (4) 0x4d-0x4e (1)
0x40|                                          09   |              . |      size: 9 (valid) 0x4e-0x4f (1)
    |                                               |                |      content{}: 0x4f-0x58 (9)
    |                                               |                |        tab{}: 0x4f-0x58 (9)
0x40|                                             02|               .|          n: 2 (valid) 0x4f-0x50 (1)
    |                                               |                |          x[0:2]: 0x50-0x58 (8)
    |                                               |                |            [0]{}: tab 0x50-0x54 (4)
0x50|70                                             |p               |              et: "funcref" (112) 0x50-0x51 (1)
    |                                               |                |              lim{}: 0x51-0x54 (3)
0x50|   01                                          | .              |                tag: 0x1 0x51-0x52 (1)
0x50|      1e                                       |  .             |                n: 30 (valid) 0x52-0x53 (1)
0x50|         1e                                    |   .            |                m: 30 (valid) 0x53-0x54 (1)
    |                                               |                |            [1]{}: tab 0x54-0x58 (4)
0x50|            70                                 |    p           |              et: "funcref" (112) 0x54-0x55 (1)
    |                                               |                |              lim{}: 0x55-0x58 (3)
0x50|               01                              |     .          |                tag: 0x1 0x55-0x56 (1)
0x50|                  1e                           |      .         |                n: 30 (valid) 0x56-0x57 (1)
0x50|                     1e                        |       .        |                m: 30 (valid) 0x57-0x58 (1)
    |                                               |                |    [4]{}: section 0x58-0x78 (32)
0x50|                        07                     |        .       |      id: "export_section" (7) 0x58-0x59 (1)
0x50|                           1e                  |         .      |      size: 30 (valid) 0x59-0x5a (1)
    |                                               |                |      content{}: 0x5a-0x78 (30)
    |                                               |                |        ex{}: 0x5a-0x78 (30)
0x50|                              03               |          .     |          n: 3 (valid) 0x5a-0x5b (1)
    |                                               |                |          x[0:3]: 0x5b-0x78 (29)
    |                                               |                |            [0]{}: ex 0x5b-0x62 (7)
    |                                               |                |              nm{}: 0x5b-0x60 (5)
0x50|                                 04            |           .    |                n: 4 (valid) 0x5b-0x5c (1)
0x50|                                    74 65 73 74|            test|                b: "test" 0x5c-0x60 (4)
    |                                               |                |              d{}: 0x60-0x62 (2)
0x60|00                                             |.               |                tag: "funcidx" (0x0) 0x60-0x61 (1)
0x60|   0a                                          | .              |                x: 10 (valid) 0x61-0x62 (1)
    |                                               |                |            [1]{}: ex 0x62-0x6d (11)
    |                                               |                |              nm{}: 0x62-0x6b (9)
0x60|      08                                       |  .             |                n: 8 (valid) 0x62-0x63 (1)
0x60|         63 68 65 63 6b 5f 74 30               |   check_t0     |                b: "check_t0" 0x63-0x6b (8)
    |                                               |                |              d{}: 0x6b-0x6d (2)
0x60|                                 00            |           .    |                tag: "funcidx" (0x0) 0x6b-0x6c (1)
0x60|                                    0b         |            .   |                x: 11 (valid) 0x6c-0x6d (1)
    |                                               |                |            [2]{}: ex 0x6d-0x78 (11)
    |                                               |                |              nm{}: 0x6d-0x76 (9)
0x60|                                       08      |             .  |                n: 8 (valid) 0x6d-0x6e (1)
0x60|                                          63 68|              ch|                b: "check_t1" 0x6e-0x76 (8)
0x70|65 63 6b 5f 74 31                              |eck_t1          |
    |                                               |                |              d{}: 0x76-0x78 (2)
0x70|                  00                           |      .         |                tag: "funcidx" (0x0) 0x76-0x77 (1)
0x70|                     0c                        |       .        |                x: 12 (valid) 0x77-0x78 (1)
    |                                               |                |    [5]{}: section 0x78-0xb4 (60)
0x70|                        09                     |        .       |      id: "element_section" (9) 0x78-0x79 (1)
0x70|                           3a                  |         :      |      size: 58 (valid) 0x79-0x7a (1)
    |                                               |                |      element{}: 0x7a-0xb4 (58)
    |                                               |                |        seg{}: 0x7a-0xb4 (58)
0x70|                              06               |          .     |          n: 6 (valid) 0x7a-0x7b (1)
    |                                               |                |          x[0:6]: 0x7b-0xb4 (57)
    |                                               |                |            [0]{}: seg 0x7b-0x84 (9)
0x70|                                 00            |           .    |              tag: 0 (valid) 0x7b-0x7c (1)
    |                                               |                |              e[0:2]: 0x7c-0x7f (3)
    |                                               |                |                [0]{}: in 0x7c-0x7e (2)
0x70|                                    41         |            A   |                  opcode: "i32.const" (0x41) 0x7c-0x7d (1)
0x70|                                       02      |             .  |                  n: 2 (valid) 0x7d-0x7e (1)
    |                                               |                |                [1]{}: in 0x7e-0x7f (1)
0x70|                                          0b   |              . |                  opcode: "end" (0xb) 0x7e-0x7f (1)
    |                                               |                |              y{}: 0x7f-0x84 (5)
0x70|                                             04|               .|                n: 4 (valid) 0x7f-0x80 (1)
    |                                               |                |                x[0:4]: 0x80-0x84 (4)
0x80|03                                             |.               |                  [0]: 3 y (valid) 0x80-0x81 (1)
0x80|   01                                          | .              |                  [1]: 1 y (valid) 0x81-0x82 (1)
0x80|      04                                       |  .             |                  [2]: 4 y (valid) 0x82-0x83 (1)
0x80|         01                                    |   .            |                  [3]: 1 y (valid) 0x83-0x84 (1)
    |                                               |                |            [1]{}: seg 0x84-0x8b (7)
0x80|            01                                 |    .           |              tag: 1 (valid) 0x84-0x85 (1)
0x80|               00                              |     .          |              et: "funcref" (0) (valid) 0x85-0x86 (1)
    |                                               |                |              y{}: 0x86-0x8b (5)
0x80|                  04                           |      .         |                n: 4 (valid) 0x86-0x87 (1)
    |                                               |                |                x[0:4]: 0x87-0x8b (4)
0x80|                     02                        |       .        |                  [0]: 2 y (valid) 0x87-0x88 (1)
0x80|                        07                     |        .       |                  [1]: 7 y (valid) 0x88-0x89 (1)
0x80|                           01                  |         .      |                  [2]: 1 y (valid) 0x89-0x8a (1)
0x80|                              08               |          .     |                  [3]: 8 y (valid) 0x8a-0x8b (1)
    |                                               |                |            [2]{}: seg 0x8b-0x95 (10)
0x80|                                 00            |           .    |              tag: 0 (valid) 0x8b-0x8c (1)
    |                                               |                |              e[0:2]: 0x8c-0x8f (3)
    |                                               |                |                [0]{}: in 0x8c-0x8e (2)
0x80|                                    41         |            A   |                  opcode: "i32.const" (0x41) 0x8c-0x8d (1)
0x80|                                       0c      |             .  |                  n: 12 (valid) 0x8d-0x8e (1)
    |                                               |                |                [1]{}: in 0x8e-0x8f (1)
0x80|                                          0b   |              . |                  opcode: "end" (0xb) 0x8e-0x8f (1)
    |                                               |                |              y{}: 0x8f-0x95 (6)
0x80|                                             05|               .|                n: 5 (valid) 0x8f-0x90 (1)
    |                                               |                |                x[0:5]: 0x90-0x95 (5)
0x90|07                                             |.               |                  [0]: 7 y (valid) 0x90-0x91 (1)
0x90|   05                                          | .              |                  [1]: 5 y (valid) 0x91-0x92 (1)
0x90|      02                                       |  .             |                  [2]: 2 y (valid) 0x92-0x93 (1)
0x90|         03                                    |   .            |                  [3]: 3 y (valid) 0x93-0x94 (1)
0x90|            06                                 |    .           |                  [4]: 6 y (valid) 0x94-0x95 (1)
    |                                               |                |            [3]{}: seg 0x95-0x9d (8)
0x90|               01                              |     .          |              tag: 1 (valid) 0x95-0x96 (1)
0x90|                  00                           |      .         |              et: "funcref" (0) (valid) 0x96-0x97 (1)
    |                                               |                |              y{}: 0x97-0x9d (6)
0x90|                     05                        |       .        |                n: 5 (valid) 0x97-0x98 (1)
    |                                               |                |                x[0:5]: 0x98-0x9d (5)
0x90|                        05                     |        .       |                  [0]: 5 y (valid) 0x98-0x99 (1)
0x90|                           09                  |         .      |                  [1]: 9 y (valid) 0x99-0x9a (1)
0x90|                              02               |          .     |                  [2]: 2 y (valid) 0x9a-0x9b (1)
0x90|                                 07            |           .    |                  [3]: 7 y (valid) 0x9b-0x9c (1)
0x90|                                    06         |            .   |                  [4]: 6 y (valid) 0x9c-0x9d (1)
    |                                               |                |            [4]{}: seg 0x9d-0xa8 (11)
0x90|                                       02      |             .  |              tag: 2 (valid) 0x9d-0x9e (1)
0x90|                                          01   |              . |              x: 1 (valid) 0x9e-0x9f (1)
    |                                               |                |              e[0:2]: 0x9f-0xa2 (3)
    |                                               |                |                [0]{}: in 0x9f-0xa1 (2)
0x90|                                             41|               A|                  opcode: "i32.const" (0x41) 0x9f-0xa0 (1)
0xa0|03                                             |.               |                  n: 3 (valid) 0xa0-0xa1 (1)
    |                                               |                |                [1]{}: in 0xa1-0xa2 (1)
0xa0|   0b                                          | .              |                  opcode: "end" (0xb) 0xa1-0xa2 (1)
0xa0|      00                                       |  .             |              et: "funcref" (0) (valid) 0xa2-0xa3 (1)
    |                                               |                |              y{}: 0xa3-0xa8 (5)
0xa0|         04                                    |   .            |                n: 4 (valid) 0xa3-0xa4 (1)
    |                                               |                |                x[0:4]: 0xa4-0xa8 (4)
0xa0|            01                                 |    .           |                  [0]: 1 y (valid) 0xa4-0xa5 (1)
0xa0|               03                              |     .          |                  [1]: 3 y (valid) 0xa5-0xa6 (1)
0xa0|                  01                           |      .         |                  [2]: 1 y (valid) 0xa6-0xa7 (1)
0xa0|                     04                        |       .        |                  [3]: 4 y (valid) 0xa7-0xa8 (1)
    |                                               |                |            [5]{}: seg 0xa8-0xb4 (12)
0xa0|                        02                     |        .       |              tag: 2 (valid) 0xa8-0xa9 (1)
0xa0|                           01                  |         .      |              x: 1 (valid) 0xa9-0xaa (1)
    |                                               |                |              e[0:2]: 0xaa-0xad (3)
    |                                               |                |                [0]{}: in 0xaa-0xac (2)
0xa0|                              41               |          A     |                  opcode: "i32.const" (0x41) 0xaa-0xab (1)
0xa0|                                 0b            |           .    |                  n: 11 (valid) 0xab-0xac (1)
    |                                               |                |                [1]{}: in 0xac-0xad (1)
0xa0|                                    0b         |            .   |                  opcode: "end" (0xb) 0xac-0xad (1)
0xa0|                                       00      |             .  |              et: "funcref" (0) (valid) 0xad-0xae (1)
    |                                               |                |              y{}: 0xae-0xb4 (6)
0xa0|                                          05   |              . |                n: 5 (valid) 0xae-0xaf (1)
    |                                               |                |                x[0:5]: 0xaf-0xb4 (5)
0xa0|                                             06|               .|                  [0]: 6 y (valid) 0xaf-0xb0 (1)
0xb0|03                                             |.               |                  [1]: 3 y (valid) 0xb0-0xb1 (1)
0xb0|   02                                          | .              |                  [2]: 2 y (valid) 0xb1-0xb2 (1)
0xb0|      05                                       |  .             |                  [3]: 5 y (valid) 0xb2-0xb3 (1)
0xb0|         07                                    |   .            |                  [4]: 7 y (valid) 0xb3-0xb4 (1)
    |                                               |                |    [6]{}: section 0xb4-0xed (57)
0xb0|            0a                                 |    .           |      id: "code_section" (10) 0xb4-0xb5 (1)
0xb0|               37                              |     7          |      size: 55 (valid) 0xb5-0xb6 (1)
    |                                               |                |      content{}: 0xb6-0xed (55)
    |                                               |                |        code{}: 0xb6-0xed (55)
0xb0|                  08                           |      .         |          n: 8 (valid) 0xb6-0xb7 (1)
    |                                               |                |          x[0:8]: 0xb7-0xed (54)
    |                                               |                |            [0]{}: code 0xb7-0xbc (5)
0xb0|                     04                        |       .        |              size: 4 (valid) 0xb7-0xb8 (1)
    |                                               |                |              code{}: 0xb8-0xbc (4)
    |                                               |                |                t{}: 0xb8-0xb9 (1)
0xb0|                        00                     |        .       |                  n: 0 (valid) 0xb8-0xb9 (1)
    |                                               |                |                  x[0:0]: 0xb9-0xb9 (0)
    |                                               |                |                e[0:2]: 0xb9-0xbc (3)
    |                                               |                |                  [0]{}: in 0xb9-0xbb (2)
0xb0|                           41                  |         A      |                    opcode: "i32.const" (0x41) 0xb9-0xba (1)
0xb0|                              05               |          .     |                    n: 5 (valid) 0xba-0xbb (1)
    |                                               |                |                  [1]{}: in 0xbb-0xbc (1)
0xb0|                                 0b            |           .    |                    opcode: "end" (0xb) 0xbb-0xbc (1)
    |                                               |                |            [1]{}: code 0xbc-0xc1 (5)
0xb0|                                    04         |            .   |              size: 4 (valid) 0xbc-0xbd (1)
    |                                               |                |              code{}: 0xbd-0xc1 (4)
    |                                               |                |                t{}: 0xbd-0xbe (1)
0xb0|                                       00      |             .  |                  n: 0 (valid) 0xbd-0xbe (1)
    |                                               |                |                  x[0:0]: 0xbe-0xbe (0)
    |                                               |                |                e[0:2]: 0xbe-0xc1 (3)
    |                                               |                |                  [0]{}: in 0xbe-0xc0 (2)
0xb0|                                          41   |              A |                    opcode: "i32.const" (0x41) 0xbe-0xbf (1)
0xb0|                                             06|               .|                    n: 6 (valid) 0xbf-0xc0 (1)
    |                                               |                |                  [1]{}: in 0xc0-0xc1 (1)
0xc0|0b                                             |.               |                    opcode: "end" (0xb) 0xc0-0xc1 (1)
    |                                               |                |            [2]{}: code 0xc1-0xc6 (5)
0xc0|   04                                          | .              |              size: 4 (valid) 0xc1-0xc2 (1)
    |                                               |                |              code{}: 0xc2-0xc6 (4)
    |                                               |                |                t{}: 0xc2-0xc3 (1)
0xc0|      00                                       |  .             |                  n: 0 (valid) 0xc2-0xc3 (1)
    |                                               |                |                  x[0:0]: 0xc3-0xc3 (0)
    |                                               |                |                e[0:2]: 0xc3-0xc6 (3)
    |                                               |                |                  [0]{}: in 0xc3-0xc5 (2)
0xc0|         41                                    |   A            |                    opcode: "i32.const" (0x41) 0xc3-0xc4 (1)
0xc0|            07                                 |    .           |                    n: 7 (valid) 0xc4-0xc5 (1)
    |                                               |                |                  [1]{}: in 0xc5-0xc6 (1)
0xc0|               0b                              |     .          |                    opcode: "end" (0xb) 0xc5-0xc6 (1)
    |                                               |                |            [3]{}: code 0xc6-0xcb (5)
0xc0|                  04                           |      .         |              size: 4 (valid) 0xc6-0xc7 (1)
    |                                               |                |              code{}: 0xc7-0xcb (4)
    |                                               |                |                t{}: 0xc7-0xc8 (1)
0xc0|                     00                        |       .        |                  n: 0 (valid) 0xc7-0xc8 (1)
    |                                               |                |                  x[0:0]: 0xc8-0xc8 (0)
    |                                               |                |                e[0:2]: 0xc8-0xcb (3)
    |                                               |                |                  [0]{}: in 0xc8-0xca (2)
0xc0|                        41                     |        A       |                    opcode: "i32.const" (0x41) 0xc8-0xc9 (1)
0xc0|                           08                  |         .      |                    n: 8 (valid) 0xc9-0xca (1)
    |                                               |                |                  [1]{}: in 0xca-0xcb (1)
0xc0|                              0b               |          .     |                    opcode: "end" (0xb) 0xca-0xcb (1)
    |                                               |                |            [4]{}: code 0xcb-0xd0 (5)
0xc0|                                 04            |           .    |              size: 4 (valid) 0xcb-0xcc (1)
    |                                               |                |              code{}: 0xcc-0xd0 (4)
    |                                               |                |                t{}: 0xcc-0xcd (1)
0xc0|                                    00         |            .   |                  n: 0 (valid) 0xcc-0xcd (1)
    |                                               |                |                  x[0:0]: 0xcd-0xcd (0)
    |                                               |                |                e[0:2]: 0xcd-0xd0 (3)
    |                                               |                |                  [0]{}: in 0xcd-0xcf (2)
0xc0|                                       41      |             A  |                    opcode: "i32.const" (0x41) 0xcd-0xce (1)
0xc0|                                          09   |              . |                    n: 9 (valid) 0xce-0xcf (1)
    |                                               |                |                  [1]{}: in 0xcf-0xd0 (1)
0xc0|                                             0b|               .|                    opcode: "end" (0xb) 0xcf-0xd0 (1)
    |                                               |                |            [5]{}: code 0xd0-0xdd (13)
0xd0|0c                                             |.               |              size: 12 (valid) 0xd0-0xd1 (1)
    |                                               |                |              code{}: 0xd1-0xdd (12)
    |                                               |                |                t{}: 0xd1-0xd2 (1)
0xd0|   00                                          | .              |                  n: 0 (valid) 0xd1-0xd2 (1)
    |                                               |                |                  x[0:0]: 0xd2-0xd2 (0)
    |                                               |                |                e[0:5]: 0xd2-0xdd (11)
    |                                               |                |                  [0]{}: in 0xd2-0xd4 (2)
0xd0|      41                                       |  A             |                    opcode: "i32.const" (0x41) 0xd2-0xd3 (1)
0xd0|         0c                                    |   .            |                    n: 12 (valid) 0xd3-0xd4 (1)
    |                                               |                |                  [1]{}: in 0xd4-0xd6 (2)
0xd0|            41                                 |    A           |                    opcode: "i32.const" (0x41) 0xd4-0xd5 (1)
0xd0|               0a                              |     .          |                    n: 10 (valid) 0xd5-0xd6 (1)
    |                                               |                |                  [2]{}: in 0xd6-0xd8 (2)
0xd0|                  41                           |      A         |                    opcode: "i32.const" (0x41) 0xd6-0xd7 (1)
0xd0|                     07                        |       .        |                    n: 7 (valid) 0xd7-0xd8 (1)
    |                                               |                |                  [3]{}: in 0xd8-0xdc (4)
0xd0|                        fc                     |        .       |                    opcode: "prefix" (0xfc) 0xd8-0xd9 (1)
0xd0|                           0e                  |         .      |                    p_opcode: "table.copy" (14) 0xd9-0xda (1)
0xd0|                              00               |          .     |                    x: 0 (valid) 0xda-0xdb (1)
0xd0|                                 00            |           .    |                    y: 0 (valid) 0xdb-0xdc (1)
    |                                               |                |                  [4]{}: in 0xdc-0xdd (1)
0xd0|                                    0b         |            .   |                    opcode: "end" (0xb) 0xdc-0xdd (1)
    |                                               |                |            [6]{}: code 0xdd-0xe5 (8)
0xd0|                                       07      |             .  |              size: 7 (valid) 0xdd-0xde (1)
    |                                               |                |              code{}: 0xde-0xe5 (7)
    |                                               |                |                t{}: 0xde-0xdf (1)
0xd0|                                          00   |              . |                  n: 0 (valid) 0xde-0xdf (1)
    |                                               |                |                  x[0:0]: 0xdf-0xdf (0)
    |                                               |                |                e[0:3]: 0xdf-0xe5 (6)
    |                                               |                |                  [0]{}: in 0xdf-0xe1 (2)
0xd0|                                             20|                |                    opcode: "local.get" (0x20) 0xdf-0xe0 (1)
0xe0|00                                             |.               |                    x: 0 (valid) 0xe0-0xe1 (1)
    |                                               |                |                  [1]{}: in 0xe1-0xe4 (3)
0xe0|   11                                          | .              |                    opcode: "call_indirect" (0x11) 0xe1-0xe2 (1)
0xe0|      00                                       |  .             |                    y: 0 (valid) 0xe2-0xe3 (1)
0xe0|         00                                    |   .            |                    x: 0 (valid) 0xe3-0xe4 (1)
    |                                               |                |                  [2]{}: in 0xe4-0xe5 (1)
0xe0|            0b                                 |    .           |                    opcode: "end" (0xb) 0xe4-0xe5 (1)
    |                                               |                |            [7]{}: code 0xe5-0xed (8)
0xe0|               07                              |     .          |              size: 7 (valid) 0xe5-0xe6 (1)
    |                                               |                |              code{}: 0xe6-0xed (7)
    |                                               |                |                t{}: 0xe6-0xe7 (1)
0xe0|                  00                           |      .         |                  n: 0 (valid) 0xe6-0xe7 (1)
    |                                               |                |                  x[0:0]: 0xe7-0xe7 (0)
    |                                               |                |                e[0:3]: 0xe7-0xed (6)
    |                                               |                |                  [0]{}: in 0xe7-0xe9 (2)
0xe0|                     20                        |                |                    opcode: "local.get" (0x20) 0xe7-0xe8 (1)
0xe0|                        00                     |        .       |                    x: 0 (valid) 0xe8-0xe9 (1)
    |                                               |                |                  [1]{}: in 0xe9-0xec (3)
0xe0|                           11                  |         .      |                    opcode: "call_indirect" (0x11) 0xe9-0xea (1)
0xe0|                              00               |          .     |                    y: 0 (valid) 0xea-0xeb (1)
0xe0|                                 01            |           .    |                    x: 1 (valid) 0xeb-0xec (1)
    |                                               |                |                  [2]{}: in 0xec-0xed (1)
0xe0|                                    0b|        |            .|  |                    opcode: "end" (0xb) 0xec-0xed (1)
