$ fq -d wasm dv table_grow-4.wasm
    |00 01 02 03 04 05 06 07 08 09 0a 0b 0c 0d 0e 0f|0123456789abcdef|.{}: table_grow-4.wasm (wasm) 0x0-0x84 (132)
0x00|00 61 73 6d                                    |.asm            |  magic: raw bits (valid) 0x0-0x4 (4)
0x00|            01 00 00 00                        |    ....        |  version: 1 0x4-0x8 (4)
    |                                               |                |  sections[0:6]: 0x8-0x84 (124)
    |                                               |                |    [0]{}: section 0x8-0x16 (14)
0x00|                        01                     |        .       |      id: "type_section" (1) 0x8-0x9 (1)
0x00|                           0c                  |         .      |      size: 12 (valid) 0x9-0xa (1)
    |                                               |                |      content{}: 0xa-0x16 (12)
    |                                               |                |        ft{}: 0xa-0x16 (12)
0x00|                              02               |          .     |          n: 2 (valid) 0xa-0xb (1)
    |                                               |                |          x[0:2]: 0xb-0x16 (11)
    |                                               |                |            [0]{}: ft 0xb-0x10 (5)
0x00|                                 60            |           `    |              tag: 0x60 (valid) 0xb-0xc (1)
    |                                               |                |              rt1{}: 0xc-0xe (2)
0x00|                                    01         |            .   |                n: 1 (valid) 0xc-0xd (1)
    |                                               |                |                x[0:1]: 0xd-0xe (1)
0x00|                                       7f      |             .  |                  [0]: "i32" (0x7f) t 0xd-0xe (1)
    |                                               |                |              rt2{}: 0xe-0x10 (2)
0x00|                                          01   |              . |                n: 1 (valid) 0xe-0xf (1)
    |                                               |                |                x[0:1]: 0xf-0x10 (1)
0x00|                                             7f|               .|                  [0]: "i32" (0x7f) t 0xf-0x10 (1)
    |                                               |                |            [1]{}: ft 0x10-0x16 (6)
0x10|60                                             |`               |              tag: 0x60 (valid) 0x10-0x11 (1)
    |                                               |                |              rt1{}: 0x11-0x14 (3)
0x10|   02                                          | .              |                n: 2 (valid) 0x11-0x12 (1)
    |                                               |                |                x[0:2]: 0x12-0x14 (2)
0x10|      7f                                       |  .             |                  [0]: "i32" (0x7f) t 0x12-0x13 (1)
0x10|         7f                                    |   .            |                  [1]: "i32" (0x7f) t 0x13-0x14 (1)
    |                                               |                |              rt2{}: 0x14-0x16 (2)
0x10|            01                                 |    .           |                n: 1 (valid) 0x14-0x15 (1)
    |                                               |                |                x[0:1]: 0x15-0x16 (1)
0x10|               70                              |     p          |                  [0]: "funcref" (0x70) t 0x15-0x16 (1)
    |                                               |                |    [1]{}: section 0x16-0x1b (5)
0x10|                  03                           |      .         |      id: "function_section" (3) 0x16-0x17 (1)
0x10|                     03                        |       .        |      size: 3 (valid) 0x17-0x18 (1)
    |                                               |                |      content{}: 0x18-0x1b (3)
    |                                               |                |        x{}: 0x18-0x1b (3)
0x10|                        02                     |        .       |          n: 2 (valid) 0x18-0x19 (1)
    |                                               |                |          x[0:2]: 0x19-0x1b (2)
0x10|                           00                  |         .      |            [0]: 0 x (valid) 0x19-0x1a (1)
0x10|                              01               |          .     |            [1]: 1 x (valid) 0x1a-0x1b (1)
    |                                               |                |    [2]{}: section 0x1b-0x21 (6)
0x10|                                 04            |           .    |      id: "table_section" (4) 0x1b-0x1c (1)
0x10|                                    04         |            .   |      size: 4 (valid) 0x1c-0x1d (1)
    |                                               |                |      content{}: 0x1d-0x21 (4)
    |                                               |                |        tab{}: 0x1d-0x21 (4)
0x10|                                       01      |             .  |          n: 1 (valid) 0x1d-0x1e (1)
    |                                               |                |          x[0:1]: 0x1e-0x21 (3)
    |                                               |                |            [0]{}: tab 0x1e-0x21 (3)
0x10|                                          70   |              p |              et: "funcref" (112) 0x1e-0x1f (1)
    |                                               |                |              lim{}: 0x1f-0x21 (2)
0x10|                                             00|               .|                tag: 0x0 0x1f-0x20 (1)
0x20|0a                                             |.               |                n: 10 (valid) 0x20-0x21 (1)
    |                                               |                |    [3]{}: section 0x21-0x3e (29)
0x20|   07                                          | .              |      id: "export_section" (7) 0x21-0x22 (1)
0x20|      1b                                       |  .             |      size: 27 (valid) 0x22-0x23 (1)
    |                                               |                |      content{}: 0x23-0x3e (27)
    |                                               |                |        ex{}: 0x23-0x3e (27)
0x20|         02                                    |   .            |          n: 2 (valid) 0x23-0x24 (1)
    |                                               |                |          x[0:2]: 0x24-0x3e (26)
    |                                               |                |            [0]{}: ex 0x24-0x2b (7)
    |                                               |                |              nm{}: 0x24-0x29 (5)
0x20|            04                                 |    .           |                n: 4 (valid) 0x24-0x25 (1)
0x20|               67 72 6f 77                     |     grow       |                b: "grow" 0x25-0x29 (4)
    |                                               |                |              d{}: 0x29-0x2b (2)
0x20|                           00                  |         .      |                tag: "funcidx" (0x0) 0x29-0x2a (1)
0x20|                              00               |          .     |                x: 0 (valid) 0x2a-0x2b (1)
    |                                               |                |            [1]{}: ex 0x2b-0x3e (19)
    |                                               |                |              nm{}: 0x2b-0x3c (17)
0x20|                                 10            |           .    |                n: 16 (valid) 0x2b-0x2c (1)
0x20|                                    63 68 65 63|            chec|                b: "check-table-null" 0x2c-0x3c (16)
0x30|6b 2d 74 61 62 6c 65 2d 6e 75 6c 6c            |k-table-null    |
    |                                               |                |              d{}: 0x3c-0x3e (2)
0x30|                                    00         |            .   |                tag: "funcidx" (0x0) 0x3c-0x3d (1)
0x30|                                       01      |             .  |                x: 1 (valid) 0x3d-0x3e (1)
    |                                               |                |    [4]{}: section 0x3e-0x45 (7)
0x30|                                          09   |              . |      id: "element_section" (9) 0x3e-0x3f (1)
0x30|                                             05|               .|      size: 5 (valid) 0x3f-0x40 (1)
    |                                               |                |      element{}: 0x40-0x45 (5)
    |                                               |                |        seg{}: 0x40-0x45 (5)
0x40|01                                             |.               |          n: 1 (valid) 0x40-0x41 (1)
    |                                               |                |          x[0:1]: 0x41-0x45 (4)
    |                                               |                |            [0]{}: seg 0x41-0x45 (4)
0x40|   03                                          | .              |              tag: 3 (valid) 0x41-0x42 (1)
0x40|      00                                       |  .             |              et: "funcref" (0) (valid) 0x42-0x43 (1)
    |                                               |                |              y{}: 0x43-0x45 (2)
0x40|         01                                    |   .            |                n: 1 (valid) 0x43-0x44 (1)
    |                                               |                |                x[0:1]: 0x44-0x45 (1)
0x40|            01                                 |    .           |                  [0]: 1 y (valid) 0x44-0x45 (1)
    |                                               |                |    [5]{}: section 0x45-0x84 (63)
0x40|               0a                              |     .          |      id: "code_section" (10) 0x45-0x46 (1)
0x40|                  3d                           |      =         |      size: 61 (valid) 0x46-0x47 (1)
    |                                               |                |      content{}: 0x47-0x84 (61)
    |                                               |                |        code{}: 0x47-0x84 (61)
0x40|                     02                        |       .        |          n: 2 (valid) 0x47-0x48 (1)
    |                                               |                |          x[0:2]: 0x48-0x84 (60)
    |                                               |                |            [0]{}: code 0x48-0x52 (10)
0x40|                        09                     |        .       |              size: 9 (valid) 0x48-0x49 (1)
    |                                               |                |              code{}: 0x49-0x52 (9)
    |                                               |                |                t{}: 0x49-0x4a (1)
0x40|                           00                  |         .      |                  n: 0 (valid) 0x49-0x4a (1)
    |                                               |                |                  x[0:0]: 0x4a-0x4a (0)
    |                                               |                |                e[0:4]: 0x4a-0x52 (8)
    |                                               |                |                  [0]{}: in 0x4a-0x4c (2)
0x40|                              d0               |          .     |                    opcode: "ref.null" (0xd0) 0x4a-0x4b (1)
0x40|                                 70            |           p    |                    t: "funcref" (112) 0x4b-0x4c (1)
    |                                               |                |                  [1]{}: in 0x4c-0x4e (2)
0x40|                                    20         |                |                    opcode: "local.get" (0x20) 0x4c-0x4d (1)
0x40|                                       00      |             .  |                    x: 0 (valid) 0x4d-0x4e (1)
    |                                               |                |                  [2]{}: in 0x4e-0x51 (3)
0x40|                                          fc   |              . |                    opcode: "prefix" (0xfc) 0x4e-0x4f (1)
0x40|                                             0f|               .|                    p_opcode: "table.grow" (15) 0x4f-0x50 (1)
0x50|00                                             |.               |                    x: 0 (valid) 0x50-0x51 (1)
    |                                               |                |                  [3]{}: in 0x51-0x52 (1)
0x50|   0b                                          | .              |                    opcode: "end" (0xb) 0x51-0x52 (1)
    |                                               |                |            [1]{}: code 0x52-0x84 (50)
0x50|      31                                       |  1             |              size: 49 (valid) 0x52-0x53 (1)
    |                                               |                |              code{}: 0x53-0x84 (49)
    |                                               |                |                t{}: 0x53-0x56 (3)
0x50|         01                                    |   .            |                  n: 1 (valid) 0x53-0x54 (1)
    |                                               |                |                  x[0:1]: 0x54-0x56 (2)
    |                                               |                |                    [0]{}: t 0x54-0x56 (2)
0x50|            01                                 |    .           |                      n: 1 (valid) 0x54-0x55 (1)
0x50|               70                              |     p          |                      t: "funcref" (0x70) 0x55-0x56 (1)
    |                                               |                |                e[0:5]: 0x56-0x84 (46)
    |                                               |                |                  [0]{}: in 0x56-0x58 (2)
0x50|                  d2                           |      .         |                    opcode: "ref.func" (0xd2) 0x56-0x57 (1)
0x50|                     01                        |       .        |                    x: 1 (valid) 0x57-0x58 (1)
    |                                               |                |                  [1]{}: in 0x58-0x5a (2)
0x50|                        21                     |        !       |                    opcode: "local.set" (0x21) 0x58-0x59 (1)
0x50|                           02                  |         .      |                    x: 2 (valid) 0x59-0x5a (1)
    |                                               |                |                  [2]{}: in 0x5a-0x81 (39)
0x50|                              02               |          .     |                    opcode: "block" (0x2) 0x5a-0x5b (1)
0x50|                                 40            |           @    |                    bt: "ε" (64) 0x5b-0x5c (1)
    |                                               |                |                    instructions[0:1]: 0x5c-0x80 (36)
    |                                               |                |                      [0]{}: instr 0x5c-0x80 (36)
0x50|                                    03         |            .   |                        opcode: "loop" (0x3) 0x5c-0x5d (1)
0x50|                                       40      |             @  |                        bt: "ε" (64) 0x5d-0x5e (1)
    |                                               |                |                        instructions[0:19]: 0x5e-0x7f (33)
    |                                               |                |                          [0]{}: instr 0x5e-0x60 (2)
0x50|                                          20   |                |                            opcode: "local.get" (0x20) 0x5e-0x5f (1)
0x50|                                             00|               .|                            x: 0 (valid) 0x5f-0x60 (1)
    |                                               |                |                          [1]{}: instr 0x60-0x62 (2)
0x60|25                                             |%               |                            opcode: "table.get" (0x25) 0x60-0x61 (1)
0x60|   00                                          | .              |                            x: 0 (valid) 0x61-0x62 (1)
    |                                               |                |                          [2]{}: instr 0x62-0x64 (2)
0x60|      21                                       |  !             |                            opcode: "local.set" (0x21) 0x62-0x63 (1)
0x60|         02                                    |   .            |                            x: 2 (valid) 0x63-0x64 (1)
    |                                               |                |                          [3]{}: instr 0x64-0x66 (2)
0x60|            20                                 |                |                            opcode: "local.get" (0x20) 0x64-0x65 (1)
0x60|               02                              |     .          |                            x: 2 (valid) 0x65-0x66 (1)
    |                                               |                |                          [4]{}: instr 0x66-0x67 (1)
0x60|                  d1                           |      .         |                            opcode: "ref.is_null" (0xd1) 0x66-0x67 (1)
    |                                               |                |                          [5]{}: instr 0x67-0x68 (1)
0x60|                     45                        |       E        |                            opcode: "32.eqz" (0x45) 0x67-0x68 (1)
    |                                               |                |                          [6]{}: instr 0x68-0x6a (2)
0x60|                        0d                     |        .       |                            opcode: "br_if" (0xd) 0x68-0x69 (1)
0x60|                           01                  |         .      |                            l: 1 (valid) 0x69-0x6a (1)
    |                                               |                |                          [7]{}: instr 0x6a-0x6c (2)
0x60|                              20               |                |                            opcode: "local.get" (0x20) 0x6a-0x6b (1)
0x60|                                 00            |           .    |                            x: 0 (valid) 0x6b-0x6c (1)
    |                                               |                |                          [8]{}: instr 0x6c-0x6e (2)
0x60|                                    20         |                |                            opcode: "local.get" (0x20) 0x6c-0x6d (1)
0x60|                                       01      |             .  |                            x: 1 (valid) 0x6d-0x6e (1)
    |                                               |                |                          [9]{}: instr 0x6e-0x6f (1)
0x60|                                          4f   |              O |                            opcode: "i32.ge_u" (0x4f) 0x6e-0x6f (1)
    |                                               |                |                          [10]{}: instr 0x6f-0x71 (2)
0x60|                                             0d|               .|                            opcode: "br_if" (0xd) 0x6f-0x70 (1)
0x70|01                                             |.               |                            l: 1 (valid) 0x70-0x71 (1)
    |                                               |                |                          [11]{}: instr 0x71-0x73 (2)
0x70|   20                                          |                |                            opcode: "local.get" (0x20) 0x71-0x72 (1)
0x70|      00                                       |  .             |                            x: 0 (valid) 0x72-0x73 (1)
    |                                               |                |                          [12]{}: instr 0x73-0x75 (2)
0x70|         41                                    |   A            |                            opcode: "i32.const" (0x41) 0x73-0x74 (1)
0x70|            01                                 |    .           |                            n: 1 (valid) 0x74-0x75 (1)
    |                                               |                |                          [13]{}: instr 0x75-0x76 (1)
0x70|               6a                              |     j          |                            opcode: "i32.add" (0x6a) 0x75-0x76 (1)
    |                                               |                |                          [14]{}: instr 0x76-0x78 (2)
0x70|                  21                           |      !         |                            opcode: "local.set" (0x21) 0x76-0x77 (1)
0x70|                     00                        |       .        |                            x: 0 (valid) 0x77-0x78 (1)
    |                                               |                |                          [15]{}: instr 0x78-0x7a (2)
0x70|                        20                     |                |                            opcode: "local.get" (0x20) 0x78-0x79 (1)
0x70|                           00                  |         .      |                            x: 0 (valid) 0x79-0x7a (1)
    |                                               |                |                          [16]{}: instr 0x7a-0x7c (2)
0x70|                              20               |                |                            opcode: "local.get" (0x20) 0x7a-0x7b (1)
0x70|                                 01            |           .    |                            x: 1 (valid) 0x7b-0x7c (1)
    |                                               |                |                          [17]{}: instr 0x7c-0x7d (1)
0x70|                                    4d         |            M   |                            opcode: "i32.le_u" (0x4d) 0x7c-0x7d (1)
    |                                               |                |                          [18]{}: instr 0x7d-0x7f (2)
0x70|                                       0d      |             .  |                            opcode: "br_if" (0xd) 0x7d-0x7e (1)
0x70|                                          00   |              . |                            l: 0 (valid) 0x7e-0x7f (1)
0x70|                                             0b|               .|                        end: 0xb (valid) 0x7f-0x80 (1)
0x80|0b                                             |.               |                    end: 0xb (valid) 0x80-0x81 (1)
    |                                               |                |                  [3]{}: in 0x81-0x83 (2)
0x80|   20                                          |                |                    opcode: "local.get" (0x20) 0x81-0x82 (1)
0x80|      02                                       |  .             |                    x: 2 (valid) 0x82-0x83 (1)
    |                                               |                |                  [4]{}: in 0x83-0x84 (1)
0x80|         0b|                                   |   .|           |                    opcode: "end" (0xb) 0x83-0x84 (1)
