$ fq -d wasm dv table_grow-0.wasm
    |00 01 02 03 04 05 06 07 08 09 0a 0b 0c 0d 0e 0f|0123456789abcdef|.{}: table_grow-0.wasm (wasm) 0x0-0x6b.7 (108)
0x00|00 61 73 6d                                    |.asm            |  magic: raw bits (valid) 0x0-0x3.7 (4)
0x00|            01 00 00 00                        |    ....        |  version: 1 0x4-0x7.7 (4)
    |                                               |                |  sections[0:5]: 0x8-0x6b.7 (100)
    |                                               |                |    [0]{}: section 0x8-0x1e.7 (23)
0x00|                        01                     |        .       |      id: "type section" (1) 0x8-0x8.7 (1)
0x00|                           15                  |         .      |      size: 21 0x9-0x9.7 (1)
    |                                               |                |      content{}: 0xa-0x1e.7 (21)
    |                                               |                |        ft{}: 0xa-0x1e.7 (21)
0x00|                              04               |          .     |          n: 4 0xa-0xa.7 (1)
    |                                               |                |          x[0:4]: 0xb-0x1e.7 (20)
    |                                               |                |            [0]{}: ft 0xb-0xf.7 (5)
0x00|                                 60            |           `    |              tag: 0x60 (valid) 0xb-0xb.7 (1)
    |                                               |                |              rt1{}: 0xc-0xd.7 (2)
0x00|                                    01         |            .   |                n: 1 0xc-0xc.7 (1)
    |                                               |                |                x[0:1]: 0xd-0xd.7 (1)
0x00|                                       7f      |             .  |                  [0]: "i32" (0x7f) t 0xd-0xd.7 (1)
    |                                               |                |              rt2{}: 0xe-0xf.7 (2)
0x00|                                          01   |              . |                n: 1 0xe-0xe.7 (1)
    |                                               |                |                x[0:1]: 0xf-0xf.7 (1)
0x00|                                             6f|               o|                  [0]: "externref" (0x6f) t 0xf-0xf.7 (1)
    |                                               |                |            [1]{}: ft 0x10-0x14.7 (5)
0x10|60                                             |`               |              tag: 0x60 (valid) 0x10-0x10.7 (1)
    |                                               |                |              rt1{}: 0x11-0x13.7 (3)
0x10|   02                                          | .              |                n: 2 0x11-0x11.7 (1)
    |                                               |                |                x[0:2]: 0x12-0x13.7 (2)
0x10|      7f                                       |  .             |                  [0]: "i32" (0x7f) t 0x12-0x12.7 (1)
0x10|         6f                                    |   o            |                  [1]: "externref" (0x6f) t 0x13-0x13.7 (1)
    |                                               |                |              rt2{}: 0x14-0x14.7 (1)
0x10|            00                                 |    .           |                n: 0 0x14-0x14.7 (1)
    |                                               |                |                x[0:0]: 0x15-NA (0)
    |                                               |                |            [2]{}: ft 0x15-0x1a.7 (6)
0x10|               60                              |     `          |              tag: 0x60 (valid) 0x15-0x15.7 (1)
    |                                               |                |              rt1{}: 0x16-0x18.7 (3)
0x10|                  02                           |      .         |                n: 2 0x16-0x16.7 (1)
    |                                               |                |                x[0:2]: 0x17-0x18.7 (2)
0x10|                     7f                        |       .        |                  [0]: "i32" (0x7f) t 0x17-0x17.7 (1)
0x10|                        6f                     |        o       |                  [1]: "externref" (0x6f) t 0x18-0x18.7 (1)
    |                                               |                |              rt2{}: 0x19-0x1a.7 (2)
0x10|                           01                  |         .      |                n: 1 0x19-0x19.7 (1)
    |                                               |                |                x[0:1]: 0x1a-0x1a.7 (1)
0x10|                              7f               |          .     |                  [0]: "i32" (0x7f) t 0x1a-0x1a.7 (1)
    |                                               |                |            [3]{}: ft 0x1b-0x1e.7 (4)
0x10|                                 60            |           `    |              tag: 0x60 (valid) 0x1b-0x1b.7 (1)
    |                                               |                |              rt1{}: 0x1c-0x1c.7 (1)
0x10|                                    00         |            .   |                n: 0 0x1c-0x1c.7 (1)
    |                                               |                |                x[0:0]: 0x1d-NA (0)
    |                                               |                |              rt2{}: 0x1d-0x1e.7 (2)
0x10|                                       01      |             .  |                n: 1 0x1d-0x1d.7 (1)
    |                                               |                |                x[0:1]: 0x1e-0x1e.7 (1)
0x10|                                          7f   |              . |                  [0]: "i32" (0x7f) t 0x1e-0x1e.7 (1)
    |                                               |                |    [1]{}: section 0x1f-0x25.7 (7)
0x10|                                             03|               .|      id: "function section" (3) 0x1f-0x1f.7 (1)
0x20|05                                             |.               |      size: 5 0x20-0x20.7 (1)
    |                                               |                |      content{}: 0x21-0x25.7 (5)
    |                                               |                |        x{}: 0x21-0x25.7 (5)
0x20|   04                                          | .              |          n: 4 0x21-0x21.7 (1)
    |                                               |                |          x[0:4]: 0x22-0x25.7 (4)
0x20|      00                                       |  .             |            [0]: 0 x 0x22-0x22.7 (1)
0x20|         01                                    |   .            |            [1]: 1 x 0x23-0x23.7 (1)
0x20|            02                                 |    .           |            [2]: 2 x 0x24-0x24.7 (1)
0x20|               03                              |     .          |            [3]: 3 x 0x25-0x25.7 (1)
    |                                               |                |    [2]{}: section 0x26-0x2b.7 (6)
0x20|                  04                           |      .         |      id: "table section" (4) 0x26-0x26.7 (1)
0x20|                     04                        |       .        |      size: 4 0x27-0x27.7 (1)
    |                                               |                |      content{}: 0x28-0x2b.7 (4)
    |                                               |                |        tab{}: 0x28-0x2b.7 (4)
0x20|                        01                     |        .       |          n: 1 0x28-0x28.7 (1)
    |                                               |                |          x[0:1]: 0x29-0x2b.7 (3)
    |                                               |                |            [0]{}: tab 0x29-0x2b.7 (3)
0x20|                           6f                  |         o      |              et: "externref" (111) 0x29-0x29.7 (1)
    |                                               |                |              lim{}: 0x2a-0x2b.7 (2)
0x20|                              00               |          .     |                tag: 0x0 0x2a-0x2a.7 (1)
0x20|                                 00            |           .    |                n: 0 0x2b-0x2b.7 (1)
    |                                               |                |    [3]{}: section 0x2c-0x48.7 (29)
0x20|                                    07         |            .   |      id: "export section" (7) 0x2c-0x2c.7 (1)
0x20|                                       1b      |             .  |      size: 27 0x2d-0x2d.7 (1)
    |                                               |                |      content{}: 0x2e-0x48.7 (27)
    |                                               |                |        ex{}: 0x2e-0x48.7 (27)
0x20|                                          04   |              . |          n: 4 0x2e-0x2e.7 (1)
    |                                               |                |          x[0:4]: 0x2f-0x48.7 (26)
    |                                               |                |            [0]{}: ex 0x2f-0x34.7 (6)
    |                                               |                |              nm{}: 0x2f-0x32.7 (4)
0x20|                                             03|               .|                n: 3 0x2f-0x2f.7 (1)
0x30|67 65 74                                       |get             |                b: "get" 0x30-0x32.7 (3)
    |                                               |                |              d{}: 0x33-0x34.7 (2)
0x30|         00                                    |   .            |                tag: "funcidx" (0x0) 0x33-0x33.7 (1)
0x30|            00                                 |    .           |                x: 0 0x34-0x34.7 (1)
    |                                               |                |            [1]{}: ex 0x35-0x3a.7 (6)
    |                                               |                |              nm{}: 0x35-0x38.7 (4)
0x30|               03                              |     .          |                n: 3 0x35-0x35.7 (1)
0x30|                  73 65 74                     |      set       |                b: "set" 0x36-0x38.7 (3)
    |                                               |                |              d{}: 0x39-0x3a.7 (2)
0x30|                           00                  |         .      |                tag: "funcidx" (0x0) 0x39-0x39.7 (1)
0x30|                              01               |          .     |                x: 1 0x3a-0x3a.7 (1)
    |                                               |                |            [2]{}: ex 0x3b-0x41.7 (7)
    |                                               |                |              nm{}: 0x3b-0x3f.7 (5)
0x30|                                 04            |           .    |                n: 4 0x3b-0x3b.7 (1)
0x30|                                    67 72 6f 77|            grow|                b: "grow" 0x3c-0x3f.7 (4)
    |                                               |                |              d{}: 0x40-0x41.7 (2)
0x40|00                                             |.               |                tag: "funcidx" (0x0) 0x40-0x40.7 (1)
0x40|   02                                          | .              |                x: 2 0x41-0x41.7 (1)
    |                                               |                |            [3]{}: ex 0x42-0x48.7 (7)
    |                                               |                |              nm{}: 0x42-0x46.7 (5)
0x40|      04                                       |  .             |                n: 4 0x42-0x42.7 (1)
0x40|         73 69 7a 65                           |   size         |                b: "size" 0x43-0x46.7 (4)
    |                                               |                |              d{}: 0x47-0x48.7 (2)
0x40|                     00                        |       .        |                tag: "funcidx" (0x0) 0x47-0x47.7 (1)
0x40|                        03                     |        .       |                x: 3 0x48-0x48.7 (1)
    |                                               |                |    [4]{}: section 0x49-0x6b.7 (35)
0x40|                           0a                  |         .      |      id: "code section" (10) 0x49-0x49.7 (1)
0x40|                              21               |          !     |      size: 33 0x4a-0x4a.7 (1)
    |                                               |                |      content{}: 0x4b-0x6b.7 (33)
    |                                               |                |        code{}: 0x4b-0x6b.7 (33)
0x40|                                 04            |           .    |          n: 4 0x4b-0x4b.7 (1)
    |                                               |                |          x[0:4]: 0x4c-0x6b.7 (32)
    |                                               |                |            [0]{}: code 0x4c-0x52.7 (7)
0x40|                                    06         |            .   |              size: 6 0x4c-0x4c.7 (1)
    |                                               |                |              code{}: 0x4d-0x52.7 (6)
    |                                               |                |                t{}: 0x4d-0x4d.7 (1)
0x40|                                       00      |             .  |                  n: 0 0x4d-0x4d.7 (1)
    |                                               |                |                  x[0:0]: 0x4e-NA (0)
    |                                               |                |                e[0:3]: 0x4e-0x52.7 (5)
    |                                               |                |                  [0]{}: in 0x4e-0x4f.7 (2)
0x40|                                          20   |                |                    local.get: 0x20 (valid) 0x4e-0x4e.7 (1)
0x40|                                             00|               .|                    x: 0 0x4f-0x4f.7 (1)
    |                                               |                |                  [1]{}: in 0x50-0x51.7 (2)
0x50|25                                             |%               |                    table.get: 0x25 (valid) 0x50-0x50.7 (1)
0x50|   00                                          | .              |                    x: 0 0x51-0x51.7 (1)
    |                                               |                |                  [2]{}: in 0x52-0x52.7 (1)
0x50|      0b                                       |  .             |                    end: 0xb (valid) 0x52-0x52.7 (1)
    |                                               |                |            [1]{}: code 0x53-0x5b.7 (9)
0x50|         08                                    |   .            |              size: 8 0x53-0x53.7 (1)
    |                                               |                |              code{}: 0x54-0x5b.7 (8)
    |                                               |                |                t{}: 0x54-0x54.7 (1)
0x50|            00                                 |    .           |                  n: 0 0x54-0x54.7 (1)
    |                                               |                |                  x[0:0]: 0x55-NA (0)
    |                                               |                |                e[0:4]: 0x55-0x5b.7 (7)
    |                                               |                |                  [0]{}: in 0x55-0x56.7 (2)
0x50|               20                              |                |                    local.get: 0x20 (valid) 0x55-0x55.7 (1)
0x50|                  00                           |      .         |                    x: 0 0x56-0x56.7 (1)
    |                                               |                |                  [1]{}: in 0x57-0x58.7 (2)
0x50|                     20                        |                |                    local.get: 0x20 (valid) 0x57-0x57.7 (1)
0x50|                        01                     |        .       |                    x: 1 0x58-0x58.7 (1)
    |                                               |                |                  [2]{}: in 0x59-0x5a.7 (2)
0x50|                           26                  |         &      |                    table.set: 0x26 (valid) 0x59-0x59.7 (1)
0x50|                              00               |          .     |                    x: 0 0x5a-0x5a.7 (1)
    |                                               |                |                  [3]{}: in 0x5b-0x5b.7 (1)
0x50|                                 0b            |           .    |                    end: 0xb (valid) 0x5b-0x5b.7 (1)
    |                                               |                |            [2]{}: code 0x5c-0x65.7 (10)
0x50|                                    09         |            .   |              size: 9 0x5c-0x5c.7 (1)
    |                                               |                |              code{}: 0x5d-0x65.7 (9)
    |                                               |                |                t{}: 0x5d-0x5d.7 (1)
0x50|                                       00      |             .  |                  n: 0 0x5d-0x5d.7 (1)
    |                                               |                |                  x[0:0]: 0x5e-NA (0)
    |                                               |                |                e[0:4]: 0x5e-0x65.7 (8)
    |                                               |                |                  [0]{}: in 0x5e-0x5f.7 (2)
0x50|                                          20   |                |                    local.get: 0x20 (valid) 0x5e-0x5e.7 (1)
0x50|                                             01|               .|                    x: 1 0x5f-0x5f.7 (1)
    |                                               |                |                  [1]{}: in 0x60-0x61.7 (2)
0x60|20                                             |                |                    local.get: 0x20 (valid) 0x60-0x60.7 (1)
0x60|   00                                          | .              |                    x: 0 0x61-0x61.7 (1)
    |                                               |                |                  [2]{}: in 0x62-0x64.7 (3)
0x60|      fc                                       |  .             |                    prefix: 0xfc (valid) 0x62-0x62.7 (1)
0x60|         0f                                    |   .            |                    table.grow: 15 (valid) 0x63-0x63.7 (1)
0x60|            00                                 |    .           |                    x: 0 0x64-0x64.7 (1)
    |                                               |                |                  [3]{}: in 0x65-0x65.7 (1)
0x60|               0b                              |     .          |                    end: 0xb (valid) 0x65-0x65.7 (1)
    |                                               |                |            [3]{}: code 0x66-0x6b.7 (6)
0x60|                  05                           |      .         |              size: 5 0x66-0x66.7 (1)
    |                                               |                |              code{}: 0x67-0x6b.7 (5)
    |                                               |                |                t{}: 0x67-0x67.7 (1)
0x60|                     00                        |       .        |                  n: 0 0x67-0x67.7 (1)
    |                                               |                |                  x[0:0]: 0x68-NA (0)
    |                                               |                |                e[0:2]: 0x68-0x6b.7 (4)
    |                                               |                |                  [0]{}: in 0x68-0x6a.7 (3)
0x60|                        fc                     |        .       |                    prefix: 0xfc (valid) 0x68-0x68.7 (1)
0x60|                           10                  |         .      |                    table.size: 16 (valid) 0x69-0x69.7 (1)
0x60|                              00               |          .     |                    x: 0 0x6a-0x6a.7 (1)
    |                                               |                |                  [1]{}: in 0x6b-0x6b.7 (1)
0x60|                                 0b|           |           .|   |                    end: 0xb (valid) 0x6b-0x6b.7 (1)
