$ fq -d wasm dv table_init-6.wasm
     |00 01 02 03 04 05 06 07 08 09 0a 0b 0c 0d 0e 0f|0123456789abcdef|.{}: table_init-6.wasm (wasm) 0x0-0x104.7 (261)
0x000|00 61 73 6d                                    |.asm            |  magic: raw bits (valid) 0x0-0x3.7 (4)
0x000|            01 00 00 00                        |    ....        |  version: 1 0x4-0x7.7 (4)
     |                                               |                |  sections[0:7]: 0x8-0x104.7 (253)
     |                                               |                |    [0]{}: section 0x8-0x16.7 (15)
0x000|                        01                     |        .       |      id: "type section" (1) 0x8-0x8.7 (1)
0x000|                           0d                  |         .      |      size: 13 0x9-0x9.7 (1)
     |                                               |                |      content{}: 0xa-0x16.7 (13)
     |                                               |                |        ft{}: 0xa-0x16.7 (13)
0x000|                              03               |          .     |          n: 3 0xa-0xa.7 (1)
     |                                               |                |          x[0:3]: 0xb-0x16.7 (12)
     |                                               |                |            [0]{}: ft 0xb-0xe.7 (4)
0x000|                                 60            |           `    |              tag: 0x60 (valid) 0xb-0xb.7 (1)
     |                                               |                |              rt1{}: 0xc-0xc.7 (1)
0x000|                                    00         |            .   |                n: 0 0xc-0xc.7 (1)
     |                                               |                |                x[0:0]: 0xd-NA (0)
     |                                               |                |              rt2{}: 0xd-0xe.7 (2)
0x000|                                       01      |             .  |                n: 1 0xd-0xd.7 (1)
     |                                               |                |                x[0:1]: 0xe-0xe.7 (1)
0x000|                                          7f   |              . |                  [0]: "i32" (0x7f) t 0xe-0xe.7 (1)
     |                                               |                |            [1]{}: ft 0xf-0x11.7 (3)
0x000|                                             60|               `|              tag: 0x60 (valid) 0xf-0xf.7 (1)
     |                                               |                |              rt1{}: 0x10-0x10.7 (1)
0x010|00                                             |.               |                n: 0 0x10-0x10.7 (1)
     |                                               |                |                x[0:0]: 0x11-NA (0)
     |                                               |                |              rt2{}: 0x11-0x11.7 (1)
0x010|   00                                          | .              |                n: 0 0x11-0x11.7 (1)
     |                                               |                |                x[0:0]: 0x12-NA (0)
     |                                               |                |            [2]{}: ft 0x12-0x16.7 (5)
0x010|      60                                       |  `             |              tag: 0x60 (valid) 0x12-0x12.7 (1)
     |                                               |                |              rt1{}: 0x13-0x14.7 (2)
0x010|         01                                    |   .            |                n: 1 0x13-0x13.7 (1)
     |                                               |                |                x[0:1]: 0x14-0x14.7 (1)
0x010|            7f                                 |    .           |                  [0]: "i32" (0x7f) t 0x14-0x14.7 (1)
     |                                               |                |              rt2{}: 0x15-0x16.7 (2)
0x010|               01                              |     .          |                n: 1 0x15-0x15.7 (1)
     |                                               |                |                x[0:1]: 0x16-0x16.7 (1)
0x010|                  7f                           |      .         |                  [0]: "i32" (0x7f) t 0x16-0x16.7 (1)
     |                                               |                |    [1]{}: section 0x17-0x41.7 (43)
0x010|                     02                        |       .        |      id: "import section" (2) 0x17-0x17.7 (1)
0x010|                        29                     |        )       |      size: 41 0x18-0x18.7 (1)
     |                                               |                |      content{}: 0x19-0x41.7 (41)
     |                                               |                |        im{}: 0x19-0x41.7 (41)
0x010|                           05                  |         .      |          n: 5 0x19-0x19.7 (1)
     |                                               |                |          x[0:5]: 0x1a-0x41.7 (40)
     |                                               |                |            [0]{}: im 0x1a-0x21.7 (8)
     |                                               |                |              mod{}: 0x1a-0x1b.7 (2)
0x010|                              01               |          .     |                n: 1 0x1a-0x1a.7 (1)
0x010|                                 61            |           a    |                b: "a" 0x1b-0x1b.7 (1)
     |                                               |                |              nm{}: 0x1c-0x1f.7 (4)
0x010|                                    03         |            .   |                n: 3 0x1c-0x1c.7 (1)
0x010|                                       65 66 30|             ef0|                b: "ef0" 0x1d-0x1f.7 (3)
     |                                               |                |              d{}: 0x20-0x21.7 (2)
0x020|00                                             |.               |                tag: "func" (0x0) 0x20-0x20.7 (1)
0x020|   00                                          | .              |                x: 0 0x21-0x21.7 (1)
     |                                               |                |            [1]{}: im 0x22-0x29.7 (8)
     |                                               |                |              mod{}: 0x22-0x23.7 (2)
0x020|      01                                       |  .             |                n: 1 0x22-0x22.7 (1)
0x020|         61                                    |   a            |                b: "a" 0x23-0x23.7 (1)
     |                                               |                |              nm{}: 0x24-0x27.7 (4)
0x020|            03                                 |    .           |                n: 3 0x24-0x24.7 (1)
0x020|               65 66 31                        |     ef1        |                b: "ef1" 0x25-0x27.7 (3)
     |                                               |                |              d{}: 0x28-0x29.7 (2)
0x020|                        00                     |        .       |                tag: "func" (0x0) 0x28-0x28.7 (1)
0x020|                           00                  |         .      |                x: 0 0x29-0x29.7 (1)
     |                                               |                |            [2]{}: im 0x2a-0x31.7 (8)
     |                                               |                |              mod{}: 0x2a-0x2b.7 (2)
0x020|                              01               |          .     |                n: 1 0x2a-0x2a.7 (1)
0x020|                                 61            |           a    |                b: "a" 0x2b-0x2b.7 (1)
     |                                               |                |              nm{}: 0x2c-0x2f.7 (4)
0x020|                                    03         |            .   |                n: 3 0x2c-0x2c.7 (1)
0x020|                                       65 66 32|             ef2|                b: "ef2" 0x2d-0x2f.7 (3)
     |                                               |                |              d{}: 0x30-0x31.7 (2)
0x030|00                                             |.               |                tag: "func" (0x0) 0x30-0x30.7 (1)
0x030|   00                                          | .              |                x: 0 0x31-0x31.7 (1)
     |                                               |                |            [3]{}: im 0x32-0x39.7 (8)
     |                                               |                |              mod{}: 0x32-0x33.7 (2)
0x030|      01                                       |  .             |                n: 1 0x32-0x32.7 (1)
0x030|         61                                    |   a            |                b: "a" 0x33-0x33.7 (1)
     |                                               |                |              nm{}: 0x34-0x37.7 (4)
0x030|            03                                 |    .           |                n: 3 0x34-0x34.7 (1)
0x030|               65 66 33                        |     ef3        |                b: "ef3" 0x35-0x37.7 (3)
     |                                               |                |              d{}: 0x38-0x39.7 (2)
0x030|                        00                     |        .       |                tag: "func" (0x0) 0x38-0x38.7 (1)
0x030|                           00                  |         .      |                x: 0 0x39-0x39.7 (1)
     |                                               |                |            [4]{}: im 0x3a-0x41.7 (8)
     |                                               |                |              mod{}: 0x3a-0x3b.7 (2)
0x030|                              01               |          .     |                n: 1 0x3a-0x3a.7 (1)
0x030|                                 61            |           a    |                b: "a" 0x3b-0x3b.7 (1)
     |                                               |                |              nm{}: 0x3c-0x3f.7 (4)
0x030|                                    03         |            .   |                n: 3 0x3c-0x3c.7 (1)
0x030|                                       65 66 34|             ef4|                b: "ef4" 0x3d-0x3f.7 (3)
     |                                               |                |              d{}: 0x40-0x41.7 (2)
0x040|00                                             |.               |                tag: "func" (0x0) 0x40-0x40.7 (1)
0x040|   00                                          | .              |                x: 0 0x41-0x41.7 (1)
     |                                               |                |    [2]{}: section 0x42-0x4b.7 (10)
0x040|      03                                       |  .             |      id: "function section" (3) 0x42-0x42.7 (1)
0x040|         08                                    |   .            |      size: 8 0x43-0x43.7 (1)
     |                                               |                |      content{}: 0x44-0x4b.7 (8)
     |                                               |                |        x{}: 0x44-0x4b.7 (8)
0x040|            07                                 |    .           |          n: 7 0x44-0x44.7 (1)
     |                                               |                |          x[0:7]: 0x45-0x4b.7 (7)
0x040|               00                              |     .          |            [0]: 0 x 0x45-0x45.7 (1)
0x040|                  00                           |      .         |            [1]: 0 x 0x46-0x46.7 (1)
0x040|                     00                        |       .        |            [2]: 0 x 0x47-0x47.7 (1)
0x040|                        00                     |        .       |            [3]: 0 x 0x48-0x48.7 (1)
0x040|                           00                  |         .      |            [4]: 0 x 0x49-0x49.7 (1)
0x040|                              01               |          .     |            [5]: 1 x 0x4a-0x4a.7 (1)
0x040|                                 02            |           .    |            [6]: 2 x 0x4b-0x4b.7 (1)
     |                                               |                |    [3]{}: section 0x4c-0x56.7 (11)
0x040|                                    04         |            .   |      id: "table section" (4) 0x4c-0x4c.7 (1)
0x040|                                       09      |             .  |      size: 9 0x4d-0x4d.7 (1)
     |                                               |                |      content{}: 0x4e-0x56.7 (9)
     |                                               |                |        tab{}: 0x4e-0x56.7 (9)
0x040|                                          02   |              . |          n: 2 0x4e-0x4e.7 (1)
     |                                               |                |          x[0:2]: 0x4f-0x56.7 (8)
     |                                               |                |            [0]{}: tab 0x4f-0x52.7 (4)
0x040|                                             70|               p|              et: "funcref" (112) 0x4f-0x4f.7 (1)
     |                                               |                |              lim{}: 0x50-0x52.7 (3)
0x050|01                                             |.               |                tag: 0x1 0x50-0x50.7 (1)
0x050|   1e                                          | .              |                n: 30 0x51-0x51.7 (1)
0x050|      1e                                       |  .             |                m: 30 0x52-0x52.7 (1)
     |                                               |                |            [1]{}: tab 0x53-0x56.7 (4)
0x050|         70                                    |   p            |              et: "funcref" (112) 0x53-0x53.7 (1)
     |                                               |                |              lim{}: 0x54-0x56.7 (3)
0x050|            01                                 |    .           |                tag: 0x1 0x54-0x54.7 (1)
0x050|               1e                              |     .          |                n: 30 0x55-0x55.7 (1)
0x050|                  1e                           |      .         |                m: 30 0x56-0x56.7 (1)
     |                                               |                |    [4]{}: section 0x57-0x68.7 (18)
0x050|                     07                        |       .        |      id: "export section" (7) 0x57-0x57.7 (1)
0x050|                        10                     |        .       |      size: 16 0x58-0x58.7 (1)
     |                                               |                |      content{}: 0x59-0x68.7 (16)
     |                                               |                |        ex{}: 0x59-0x68.7 (16)
0x050|                           02                  |         .      |          n: 2 0x59-0x59.7 (1)
     |                                               |                |          x[0:2]: 0x5a-0x68.7 (15)
     |                                               |                |            [0]{}: ex 0x5a-0x60.7 (7)
     |                                               |                |              nm{}: 0x5a-0x5e.7 (5)
0x050|                              04               |          .     |                n: 4 0x5a-0x5a.7 (1)
0x050|                                 74 65 73 74   |           test |                b: "test" 0x5b-0x5e.7 (4)
     |                                               |                |              d{}: 0x5f-0x60.7 (2)
0x050|                                             00|               .|                tag: "funcidx" (0x0) 0x5f-0x5f.7 (1)
0x060|0a                                             |.               |                x: 10 0x60-0x60.7 (1)
     |                                               |                |            [1]{}: ex 0x61-0x68.7 (8)
     |                                               |                |              nm{}: 0x61-0x66.7 (6)
0x060|   05                                          | .              |                n: 5 0x61-0x61.7 (1)
0x060|      63 68 65 63 6b                           |  check         |                b: "check" 0x62-0x66.7 (5)
     |                                               |                |              d{}: 0x67-0x68.7 (2)
0x060|                     00                        |       .        |                tag: "funcidx" (0x0) 0x67-0x67.7 (1)
0x060|                        0b                     |        .       |                x: 11 0x68-0x68.7 (1)
     |                                               |                |    [5]{}: section 0x69-0x91.7 (41)
0x060|                           09                  |         .      |      id: "element section" (9) 0x69-0x69.7 (1)
0x060|                              27               |          '     |      size: 39 0x6a-0x6a.7 (1)
     |                                               |                |      element{}: 0x6b-0x91.7 (39)
     |                                               |                |        seg{}: 0x6b-0x91.7 (39)
0x060|                                 04            |           .    |          n: 4 0x6b-0x6b.7 (1)
     |                                               |                |          x[0:4]: 0x6c-0x91.7 (38)
     |                                               |                |            [0]{}: seg 0x6c-0x76.7 (11)
0x060|                                    02         |            .   |              tag: 2 0x6c-0x6c.7 (1)
0x060|                                       01      |             .  |              x: 1 0x6d-0x6d.7 (1)
     |                                               |                |              e[0:2]: 0x6e-0x70.7 (3)
     |                                               |                |                [0]{}: in 0x6e-0x6f.7 (2)
0x060|                                          41   |              A |                  i32.const: 0x41 (valid) 0x6e-0x6e.7 (1)
0x060|                                             02|               .|                  n: 2 0x6f-0x6f.7 (1)
     |                                               |                |                [1]{}: in 0x70-0x70.7 (1)
0x070|0b                                             |.               |                  end: 0xb (valid) 0x70-0x70.7 (1)
0x070|   00                                          | .              |              et: "funcref" (0) (valid) 0x71-0x71.7 (1)
     |                                               |                |              y{}: 0x72-0x76.7 (5)
0x070|      04                                       |  .             |                n: 4 0x72-0x72.7 (1)
     |                                               |                |                x[0:4]: 0x73-0x76.7 (4)
0x070|         03                                    |   .            |                  [0]: 3 y 0x73-0x73.7 (1)
0x070|            01                                 |    .           |                  [1]: 1 y 0x74-0x74.7 (1)
0x070|               04                              |     .          |                  [2]: 4 y 0x75-0x75.7 (1)
0x070|                  01                           |      .         |                  [3]: 1 y 0x76-0x76.7 (1)
     |                                               |                |            [1]{}: seg 0x77-0x7d.7 (7)
0x070|                     01                        |       .        |              tag: 1 0x77-0x77.7 (1)
0x070|                        00                     |        .       |              et: "funcref" (0) (valid) 0x78-0x78.7 (1)
     |                                               |                |              y{}: 0x79-0x7d.7 (5)
0x070|                           04                  |         .      |                n: 4 0x79-0x79.7 (1)
     |                                               |                |                x[0:4]: 0x7a-0x7d.7 (4)
0x070|                              02               |          .     |                  [0]: 2 y 0x7a-0x7a.7 (1)
0x070|                                 07            |           .    |                  [1]: 7 y 0x7b-0x7b.7 (1)
0x070|                                    01         |            .   |                  [2]: 1 y 0x7c-0x7c.7 (1)
0x070|                                       08      |             .  |                  [3]: 8 y 0x7d-0x7d.7 (1)
     |                                               |                |            [2]{}: seg 0x7e-0x89.7 (12)
0x070|                                          02   |              . |              tag: 2 0x7e-0x7e.7 (1)
0x070|                                             01|               .|              x: 1 0x7f-0x7f.7 (1)
     |                                               |                |              e[0:2]: 0x80-0x82.7 (3)
     |                                               |                |                [0]{}: in 0x80-0x81.7 (2)
0x080|41                                             |A               |                  i32.const: 0x41 (valid) 0x80-0x80.7 (1)
0x080|   0c                                          | .              |                  n: 12 0x81-0x81.7 (1)
     |                                               |                |                [1]{}: in 0x82-0x82.7 (1)
0x080|      0b                                       |  .             |                  end: 0xb (valid) 0x82-0x82.7 (1)
0x080|         00                                    |   .            |              et: "funcref" (0) (valid) 0x83-0x83.7 (1)
     |                                               |                |              y{}: 0x84-0x89.7 (6)
0x080|            05                                 |    .           |                n: 5 0x84-0x84.7 (1)
     |                                               |                |                x[0:5]: 0x85-0x89.7 (5)
0x080|               07                              |     .          |                  [0]: 7 y 0x85-0x85.7 (1)
0x080|                  05                           |      .         |                  [1]: 5 y 0x86-0x86.7 (1)
0x080|                     02                        |       .        |                  [2]: 2 y 0x87-0x87.7 (1)
0x080|                        03                     |        .       |                  [3]: 3 y 0x88-0x88.7 (1)
0x080|                           06                  |         .      |                  [4]: 6 y 0x89-0x89.7 (1)
     |                                               |                |            [3]{}: seg 0x8a-0x91.7 (8)
0x080|                              01               |          .     |              tag: 1 0x8a-0x8a.7 (1)
0x080|                                 00            |           .    |              et: "funcref" (0) (valid) 0x8b-0x8b.7 (1)
     |                                               |                |              y{}: 0x8c-0x91.7 (6)
0x080|                                    05         |            .   |                n: 5 0x8c-0x8c.7 (1)
     |                                               |                |                x[0:5]: 0x8d-0x91.7 (5)
0x080|                                       05      |             .  |                  [0]: 5 y 0x8d-0x8d.7 (1)
0x080|                                          09   |              . |                  [1]: 9 y 0x8e-0x8e.7 (1)
0x080|                                             02|               .|                  [2]: 2 y 0x8f-0x8f.7 (1)
0x090|07                                             |.               |                  [3]: 7 y 0x90-0x90.7 (1)
0x090|   06                                          | .              |                  [4]: 6 y 0x91-0x91.7 (1)
     |                                               |                |    [6]{}: section 0x92-0x104.7 (115)
0x090|      0a                                       |  .             |      id: "code section" (10) 0x92-0x92.7 (1)
0x090|         71                                    |   q            |      size: 113 0x93-0x93.7 (1)
     |                                               |                |      content{}: 0x94-0x104.7 (113)
     |                                               |                |        code{}: 0x94-0x104.7 (113)
0x090|            07                                 |    .           |          n: 7 0x94-0x94.7 (1)
     |                                               |                |          x[0:7]: 0x95-0x104.7 (112)
     |                                               |                |            [0]{}: code 0x95-0x99.7 (5)
0x090|               04                              |     .          |              size: 4 0x95-0x95.7 (1)
     |                                               |                |              code{}: 0x96-0x99.7 (4)
     |                                               |                |                t{}: 0x96-0x96.7 (1)
0x090|                  00                           |      .         |                  n: 0 0x96-0x96.7 (1)
     |                                               |                |                  x[0:0]: 0x97-NA (0)
     |                                               |                |                e[0:2]: 0x97-0x99.7 (3)
     |                                               |                |                  [0]{}: in 0x97-0x98.7 (2)
0x090|                     41                        |       A        |                    i32.const: 0x41 (valid) 0x97-0x97.7 (1)
0x090|                        05                     |        .       |                    n: 5 0x98-0x98.7 (1)
     |                                               |                |                  [1]{}: in 0x99-0x99.7 (1)
0x090|                           0b                  |         .      |                    end: 0xb (valid) 0x99-0x99.7 (1)
     |                                               |                |            [1]{}: code 0x9a-0x9e.7 (5)
0x090|                              04               |          .     |              size: 4 0x9a-0x9a.7 (1)
     |                                               |                |              code{}: 0x9b-0x9e.7 (4)
     |                                               |                |                t{}: 0x9b-0x9b.7 (1)
0x090|                                 00            |           .    |                  n: 0 0x9b-0x9b.7 (1)
     |                                               |                |                  x[0:0]: 0x9c-NA (0)
     |                                               |                |                e[0:2]: 0x9c-0x9e.7 (3)
     |                                               |                |                  [0]{}: in 0x9c-0x9d.7 (2)
0x090|                                    41         |            A   |                    i32.const: 0x41 (valid) 0x9c-0x9c.7 (1)
0x090|                                       06      |             .  |                    n: 6 0x9d-0x9d.7 (1)
     |                                               |                |                  [1]{}: in 0x9e-0x9e.7 (1)
0x090|                                          0b   |              . |                    end: 0xb (valid) 0x9e-0x9e.7 (1)
     |                                               |                |            [2]{}: code 0x9f-0xa3.7 (5)
0x090|                                             04|               .|              size: 4 0x9f-0x9f.7 (1)
     |                                               |                |              code{}: 0xa0-0xa3.7 (4)
     |                                               |                |                t{}: 0xa0-0xa0.7 (1)
0x0a0|00                                             |.               |                  n: 0 0xa0-0xa0.7 (1)
     |                                               |                |                  x[0:0]: 0xa1-NA (0)
     |                                               |                |                e[0:2]: 0xa1-0xa3.7 (3)
     |                                               |                |                  [0]{}: in 0xa1-0xa2.7 (2)
0x0a0|   41                                          | A              |                    i32.const: 0x41 (valid) 0xa1-0xa1.7 (1)
0x0a0|      07                                       |  .             |                    n: 7 0xa2-0xa2.7 (1)
     |                                               |                |                  [1]{}: in 0xa3-0xa3.7 (1)
0x0a0|         0b                                    |   .            |                    end: 0xb (valid) 0xa3-0xa3.7 (1)
     |                                               |                |            [3]{}: code 0xa4-0xa8.7 (5)
0x0a0|            04                                 |    .           |              size: 4 0xa4-0xa4.7 (1)
     |                                               |                |              code{}: 0xa5-0xa8.7 (4)
     |                                               |                |                t{}: 0xa5-0xa5.7 (1)
0x0a0|               00                              |     .          |                  n: 0 0xa5-0xa5.7 (1)
     |                                               |                |                  x[0:0]: 0xa6-NA (0)
     |                                               |                |                e[0:2]: 0xa6-0xa8.7 (3)
     |                                               |                |                  [0]{}: in 0xa6-0xa7.7 (2)
0x0a0|                  41                           |      A         |                    i32.const: 0x41 (valid) 0xa6-0xa6.7 (1)
0x0a0|                     08                        |       .        |                    n: 8 0xa7-0xa7.7 (1)
     |                                               |                |                  [1]{}: in 0xa8-0xa8.7 (1)
0x0a0|                        0b                     |        .       |                    end: 0xb (valid) 0xa8-0xa8.7 (1)
     |                                               |                |            [4]{}: code 0xa9-0xad.7 (5)
0x0a0|                           04                  |         .      |              size: 4 0xa9-0xa9.7 (1)
     |                                               |                |              code{}: 0xaa-0xad.7 (4)
     |                                               |                |                t{}: 0xaa-0xaa.7 (1)
0x0a0|                              00               |          .     |                  n: 0 0xaa-0xaa.7 (1)
     |                                               |                |                  x[0:0]: 0xab-NA (0)
     |                                               |                |                e[0:2]: 0xab-0xad.7 (3)
     |                                               |                |                  [0]{}: in 0xab-0xac.7 (2)
0x0a0|                                 41            |           A    |                    i32.const: 0x41 (valid) 0xab-0xab.7 (1)
0x0a0|                                    09         |            .   |                    n: 9 0xac-0xac.7 (1)
     |                                               |                |                  [1]{}: in 0xad-0xad.7 (1)
0x0a0|                                       0b      |             .  |                    end: 0xb (valid) 0xad-0xad.7 (1)
     |                                               |                |            [5]{}: code 0xae-0xfc.7 (79)
0x0a0|                                          4e   |              N |              size: 78 0xae-0xae.7 (1)
     |                                               |                |              code{}: 0xaf-0xfc.7 (78)
     |                                               |                |                t{}: 0xaf-0xaf.7 (1)
0x0a0|                                             00|               .|                  n: 0 0xaf-0xaf.7 (1)
     |                                               |                |                  x[0:0]: 0xb0-NA (0)
     |                                               |                |                e[0:31]: 0xb0-0xfc.7 (77)
     |                                               |                |                  [0]{}: in 0xb0-0xb1.7 (2)
0x0b0|41                                             |A               |                    i32.const: 0x41 (valid) 0xb0-0xb0.7 (1)
0x0b0|   07                                          | .              |                    n: 7 0xb1-0xb1.7 (1)
     |                                               |                |                  [1]{}: in 0xb2-0xb3.7 (2)
0x0b0|      41                                       |  A             |                    i32.const: 0x41 (valid) 0xb2-0xb2.7 (1)
0x0b0|         00                                    |   .            |                    n: 0 0xb3-0xb3.7 (1)
     |                                               |                |                  [2]{}: in 0xb4-0xb5.7 (2)
0x0b0|            41                                 |    A           |                    i32.const: 0x41 (valid) 0xb4-0xb4.7 (1)
0x0b0|               04                              |     .          |                    n: 4 0xb5-0xb5.7 (1)
     |                                               |                |                  [3]{}: in 0xb6-0xb9.7 (4)
0x0b0|                  fc                           |      .         |                    prefix: 0xfc (valid) 0xb6-0xb6.7 (1)
0x0b0|                     0c                        |       .        |                    table.init: 12 (valid) 0xb7-0xb7.7 (1)
0x0b0|                        01                     |        .       |                    y: 1 0xb8-0xb8.7 (1)
0x0b0|                           01                  |         .      |                    x: 1 0xb9-0xb9.7 (1)
     |                                               |                |                  [4]{}: in 0xba-0xbc.7 (3)
0x0b0|                              fc               |          .     |                    prefix: 0xfc (valid) 0xba-0xba.7 (1)
0x0b0|                                 0d            |           .    |                    elem.drop: 13 (valid) 0xbb-0xbb.7 (1)
0x0b0|                                    01         |            .   |                    x: 1 0xbc-0xbc.7 (1)
     |                                               |                |                  [5]{}: in 0xbd-0xbe.7 (2)
0x0b0|                                       41      |             A  |                    i32.const: 0x41 (valid) 0xbd-0xbd.7 (1)
0x0b0|                                          0f   |              . |                    n: 15 0xbe-0xbe.7 (1)
     |                                               |                |                  [6]{}: in 0xbf-0xc0.7 (2)
0x0b0|                                             41|               A|                    i32.const: 0x41 (valid) 0xbf-0xbf.7 (1)
0x0c0|01                                             |.               |                    n: 1 0xc0-0xc0.7 (1)
     |                                               |                |                  [7]{}: in 0xc1-0xc2.7 (2)
0x0c0|   41                                          | A              |                    i32.const: 0x41 (valid) 0xc1-0xc1.7 (1)
0x0c0|      03                                       |  .             |                    n: 3 0xc2-0xc2.7 (1)
     |                                               |                |                  [8]{}: in 0xc3-0xc6.7 (4)
0x0c0|         fc                                    |   .            |                    prefix: 0xfc (valid) 0xc3-0xc3.7 (1)
0x0c0|            0c                                 |    .           |                    table.init: 12 (valid) 0xc4-0xc4.7 (1)
0x0c0|               03                              |     .          |                    y: 3 0xc5-0xc5.7 (1)
0x0c0|                  01                           |      .         |                    x: 1 0xc6-0xc6.7 (1)
     |                                               |                |                  [9]{}: in 0xc7-0xc9.7 (3)
0x0c0|                     fc                        |       .        |                    prefix: 0xfc (valid) 0xc7-0xc7.7 (1)
0x0c0|                        0d                     |        .       |                    elem.drop: 13 (valid) 0xc8-0xc8.7 (1)
0x0c0|                           03                  |         .      |                    x: 3 0xc9-0xc9.7 (1)
     |                                               |                |                  [10]{}: in 0xca-0xcb.7 (2)
0x0c0|                              41               |          A     |                    i32.const: 0x41 (valid) 0xca-0xca.7 (1)
0x0c0|                                 14            |           .    |                    n: 20 0xcb-0xcb.7 (1)
     |                                               |                |                  [11]{}: in 0xcc-0xcd.7 (2)
0x0c0|                                    41         |            A   |                    i32.const: 0x41 (valid) 0xcc-0xcc.7 (1)
0x0c0|                                       0f      |             .  |                    n: 15 0xcd-0xcd.7 (1)
     |                                               |                |                  [12]{}: in 0xce-0xcf.7 (2)
0x0c0|                                          41   |              A |                    i32.const: 0x41 (valid) 0xce-0xce.7 (1)
0x0c0|                                             05|               .|                    n: 5 0xcf-0xcf.7 (1)
     |                                               |                |                  [13]{}: in 0xd0-0xd3.7 (4)
0x0d0|fc                                             |.               |                    prefix: 0xfc (valid) 0xd0-0xd0.7 (1)
0x0d0|   0e                                          | .              |                    table.copy: 14 (valid) 0xd1-0xd1.7 (1)
0x0d0|      01                                       |  .             |                    x: 1 0xd2-0xd2.7 (1)
0x0d0|         01                                    |   .            |                    y: 1 0xd3-0xd3.7 (1)
     |                                               |                |                  [14]{}: in 0xd4-0xd5.7 (2)
0x0d0|            41                                 |    A           |                    i32.const: 0x41 (valid) 0xd4-0xd4.7 (1)
0x0d0|               15                              |     .          |                    n: 21 0xd5-0xd5.7 (1)
     |                                               |                |                  [15]{}: in 0xd6-0xd7.7 (2)
0x0d0|                  41                           |      A         |                    i32.const: 0x41 (valid) 0xd6-0xd6.7 (1)
0x0d0|                     1d                        |       .        |                    n: 29 0xd7-0xd7.7 (1)
     |                                               |                |                  [16]{}: in 0xd8-0xd9.7 (2)
0x0d0|                        41                     |        A       |                    i32.const: 0x41 (valid) 0xd8-0xd8.7 (1)
0x0d0|                           01                  |         .      |                    n: 1 0xd9-0xd9.7 (1)
     |                                               |                |                  [17]{}: in 0xda-0xdd.7 (4)
0x0d0|                              fc               |          .     |                    prefix: 0xfc (valid) 0xda-0xda.7 (1)
0x0d0|                                 0e            |           .    |                    table.copy: 14 (valid) 0xdb-0xdb.7 (1)
0x0d0|                                    01         |            .   |                    x: 1 0xdc-0xdc.7 (1)
0x0d0|                                       01      |             .  |                    y: 1 0xdd-0xdd.7 (1)
     |                                               |                |                  [18]{}: in 0xde-0xdf.7 (2)
0x0d0|                                          41   |              A |                    i32.const: 0x41 (valid) 0xde-0xde.7 (1)
0x0d0|                                             18|               .|                    n: 24 0xdf-0xdf.7 (1)
     |                                               |                |                  [19]{}: in 0xe0-0xe1.7 (2)
0x0e0|41                                             |A               |                    i32.const: 0x41 (valid) 0xe0-0xe0.7 (1)
0x0e0|   0a                                          | .              |                    n: 10 0xe1-0xe1.7 (1)
     |                                               |                |                  [20]{}: in 0xe2-0xe3.7 (2)
0x0e0|      41                                       |  A             |                    i32.const: 0x41 (valid) 0xe2-0xe2.7 (1)
0x0e0|         01                                    |   .            |                    n: 1 0xe3-0xe3.7 (1)
     |                                               |                |                  [21]{}: in 0xe4-0xe7.7 (4)
0x0e0|            fc                                 |    .           |                    prefix: 0xfc (valid) 0xe4-0xe4.7 (1)
0x0e0|               0e                              |     .          |                    table.copy: 14 (valid) 0xe5-0xe5.7 (1)
0x0e0|                  01                           |      .         |                    x: 1 0xe6-0xe6.7 (1)
0x0e0|                     01                        |       .        |                    y: 1 0xe7-0xe7.7 (1)
     |                                               |                |                  [22]{}: in 0xe8-0xe9.7 (2)
0x0e0|                        41                     |        A       |                    i32.const: 0x41 (valid) 0xe8-0xe8.7 (1)
0x0e0|                           0d                  |         .      |                    n: 13 0xe9-0xe9.7 (1)
     |                                               |                |                  [23]{}: in 0xea-0xeb.7 (2)
0x0e0|                              41               |          A     |                    i32.const: 0x41 (valid) 0xea-0xea.7 (1)
0x0e0|                                 0b            |           .    |                    n: 11 0xeb-0xeb.7 (1)
     |                                               |                |                  [24]{}: in 0xec-0xed.7 (2)
0x0e0|                                    41         |            A   |                    i32.const: 0x41 (valid) 0xec-0xec.7 (1)
0x0e0|                                       04      |             .  |                    n: 4 0xed-0xed.7 (1)
     |                                               |                |                  [25]{}: in 0xee-0xf1.7 (4)
0x0e0|                                          fc   |              . |                    prefix: 0xfc (valid) 0xee-0xee.7 (1)
0x0e0|                                             0e|               .|                    table.copy: 14 (valid) 0xef-0xef.7 (1)
0x0f0|01                                             |.               |                    x: 1 0xf0-0xf0.7 (1)
0x0f0|   01                                          | .              |                    y: 1 0xf1-0xf1.7 (1)
     |                                               |                |                  [26]{}: in 0xf2-0xf3.7 (2)
0x0f0|      41                                       |  A             |                    i32.const: 0x41 (valid) 0xf2-0xf2.7 (1)
0x0f0|         13                                    |   .            |                    n: 19 0xf3-0xf3.7 (1)
     |                                               |                |                  [27]{}: in 0xf4-0xf5.7 (2)
0x0f0|            41                                 |    A           |                    i32.const: 0x41 (valid) 0xf4-0xf4.7 (1)
0x0f0|               14                              |     .          |                    n: 20 0xf5-0xf5.7 (1)
     |                                               |                |                  [28]{}: in 0xf6-0xf7.7 (2)
0x0f0|                  41                           |      A         |                    i32.const: 0x41 (valid) 0xf6-0xf6.7 (1)
0x0f0|                     05                        |       .        |                    n: 5 0xf7-0xf7.7 (1)
     |                                               |                |                  [29]{}: in 0xf8-0xfb.7 (4)
0x0f0|                        fc                     |        .       |                    prefix: 0xfc (valid) 0xf8-0xf8.7 (1)
0x0f0|                           0e                  |         .      |                    table.copy: 14 (valid) 0xf9-0xf9.7 (1)
0x0f0|                              01               |          .     |                    x: 1 0xfa-0xfa.7 (1)
0x0f0|                                 01            |           .    |                    y: 1 0xfb-0xfb.7 (1)
     |                                               |                |                  [30]{}: in 0xfc-0xfc.7 (1)
0x0f0|                                    0b         |            .   |                    end: 0xb (valid) 0xfc-0xfc.7 (1)
     |                                               |                |            [6]{}: code 0xfd-0x104.7 (8)
0x0f0|                                       07      |             .  |              size: 7 0xfd-0xfd.7 (1)
     |                                               |                |              code{}: 0xfe-0x104.7 (7)
     |                                               |                |                t{}: 0xfe-0xfe.7 (1)
0x0f0|                                          00   |              . |                  n: 0 0xfe-0xfe.7 (1)
     |                                               |                |                  x[0:0]: 0xff-NA (0)
     |                                               |                |                e[0:3]: 0xff-0x104.7 (6)
     |                                               |                |                  [0]{}: in 0xff-0x100.7 (2)
0x0f0|                                             20|                |                    local.get: 0x20 (valid) 0xff-0xff.7 (1)
0x100|00                                             |.               |                    x: 0 0x100-0x100.7 (1)
     |                                               |                |                  [1]{}: in 0x101-0x103.7 (3)
0x100|   11                                          | .              |                    call: 0x11 (valid) 0x101-0x101.7 (1)
0x100|      00                                       |  .             |                    y: 0 0x102-0x102.7 (1)
0x100|         01                                    |   .            |                    x: 1 0x103-0x103.7 (1)
     |                                               |                |                  [2]{}: in 0x104-0x104.7 (1)
0x100|            0b|                                |    .|          |                    end: 0xb (valid) 0x104-0x104.7 (1)
