$ fq -d wasm dv table_init-26.wasm
    |00 01 02 03 04 05 06 07 08 09 0a 0b 0c 0d 0e 0f|0123456789abcdef|.{}: table_init-26.wasm (wasm) 0x0-0x9f.7 (160)
0x00|00 61 73 6d                                    |.asm            |  magic: raw bits (valid) 0x0-0x3.7 (4)
0x00|            01 00 00 00                        |    ....        |  version: 1 0x4-0x7.7 (4)
    |                                               |                |  sections[0:6]: 0x8-0x9f.7 (152)
    |                                               |                |    [0]{}: section 0x8-0x11.7 (10)
0x00|                        01                     |        .       |      id: "type section" (1) 0x8-0x8.7 (1)
0x00|                           08                  |         .      |      size: 8 0x9-0x9.7 (1)
    |                                               |                |      content{}: 0xa-0x11.7 (8)
    |                                               |                |        ft{}: 0xa-0x11.7 (8)
0x00|                              02               |          .     |          n: 2 0xa-0xa.7 (1)
    |                                               |                |          x[0:2]: 0xb-0x11.7 (7)
    |                                               |                |            [0]{}: ft 0xb-0xe.7 (4)
0x00|                                 60            |           `    |              tag: 0x60 (valid) 0xb-0xb.7 (1)
    |                                               |                |              rt1{}: 0xc-0xc.7 (1)
0x00|                                    00         |            .   |                n: 0 0xc-0xc.7 (1)
    |                                               |                |                x[0:0]: 0xd-NA (0)
    |                                               |                |              rt2{}: 0xd-0xe.7 (2)
0x00|                                       01      |             .  |                n: 1 0xd-0xd.7 (1)
    |                                               |                |                x[0:1]: 0xe-0xe.7 (1)
0x00|                                          7f   |              . |                  [0]: "i32" (0x7f) t 0xe-0xe.7 (1)
    |                                               |                |            [1]{}: ft 0xf-0x11.7 (3)
0x00|                                             60|               `|              tag: 0x60 (valid) 0xf-0xf.7 (1)
    |                                               |                |              rt1{}: 0x10-0x10.7 (1)
0x10|00                                             |.               |                n: 0 0x10-0x10.7 (1)
    |                                               |                |                x[0:0]: 0x11-NA (0)
    |                                               |                |              rt2{}: 0x11-0x11.7 (1)
0x10|   00                                          | .              |                n: 0 0x11-0x11.7 (1)
    |                                               |                |                x[0:0]: 0x12-NA (0)
    |                                               |                |    [1]{}: section 0x12-0x1f.7 (14)
0x10|      03                                       |  .             |      id: "function section" (3) 0x12-0x12.7 (1)
0x10|         0c                                    |   .            |      size: 12 0x13-0x13.7 (1)
    |                                               |                |      content{}: 0x14-0x1f.7 (12)
    |                                               |                |        x{}: 0x14-0x1f.7 (12)
0x10|            0b                                 |    .           |          n: 11 0x14-0x14.7 (1)
    |                                               |                |          x[0:11]: 0x15-0x1f.7 (11)
0x10|               00                              |     .          |            [0]: 0 x 0x15-0x15.7 (1)
0x10|                  00                           |      .         |            [1]: 0 x 0x16-0x16.7 (1)
0x10|                     00                        |       .        |            [2]: 0 x 0x17-0x17.7 (1)
0x10|                        00                     |        .       |            [3]: 0 x 0x18-0x18.7 (1)
0x10|                           00                  |         .      |            [4]: 0 x 0x19-0x19.7 (1)
0x10|                              00               |          .     |            [5]: 0 x 0x1a-0x1a.7 (1)
0x10|                                 00            |           .    |            [6]: 0 x 0x1b-0x1b.7 (1)
0x10|                                    00         |            .   |            [7]: 0 x 0x1c-0x1c.7 (1)
0x10|                                       00      |             .  |            [8]: 0 x 0x1d-0x1d.7 (1)
0x10|                                          00   |              . |            [9]: 0 x 0x1e-0x1e.7 (1)
0x10|                                             01|               .|            [10]: 1 x 0x1f-0x1f.7 (1)
    |                                               |                |    [2]{}: section 0x20-0x2a.7 (11)
0x20|04                                             |.               |      id: "table section" (4) 0x20-0x20.7 (1)
0x20|   09                                          | .              |      size: 9 0x21-0x21.7 (1)
    |                                               |                |      content{}: 0x22-0x2a.7 (9)
    |                                               |                |        tab{}: 0x22-0x2a.7 (9)
0x20|      02                                       |  .             |          n: 2 0x22-0x22.7 (1)
    |                                               |                |          x[0:2]: 0x23-0x2a.7 (8)
    |                                               |                |            [0]{}: tab 0x23-0x26.7 (4)
0x20|         70                                    |   p            |              et: "funcref" (112) 0x23-0x23.7 (1)
    |                                               |                |              lim{}: 0x24-0x26.7 (3)
0x20|            01                                 |    .           |                tag: 0x1 0x24-0x24.7 (1)
0x20|               1e                              |     .          |                n: 30 0x25-0x25.7 (1)
0x20|                  1e                           |      .         |                m: 30 0x26-0x26.7 (1)
    |                                               |                |            [1]{}: tab 0x27-0x2a.7 (4)
0x20|                     70                        |       p        |              et: "funcref" (112) 0x27-0x27.7 (1)
    |                                               |                |              lim{}: 0x28-0x2a.7 (3)
0x20|                        01                     |        .       |                tag: 0x1 0x28-0x28.7 (1)
0x20|                           1c                  |         .      |                n: 28 0x29-0x29.7 (1)
0x20|                              1c               |          .     |                m: 28 0x2a-0x2a.7 (1)
    |                                               |                |    [3]{}: section 0x2b-0x34.7 (10)
0x20|                                 07            |           .    |      id: "export section" (7) 0x2b-0x2b.7 (1)
0x20|                                    08         |            .   |      size: 8 0x2c-0x2c.7 (1)
    |                                               |                |      content{}: 0x2d-0x34.7 (8)
    |                                               |                |        ex{}: 0x2d-0x34.7 (8)
0x20|                                       01      |             .  |          n: 1 0x2d-0x2d.7 (1)
    |                                               |                |          x[0:1]: 0x2e-0x34.7 (7)
    |                                               |                |            [0]{}: ex 0x2e-0x34.7 (7)
    |                                               |                |              nm{}: 0x2e-0x32.7 (5)
0x20|                                          04   |              . |                n: 4 0x2e-0x2e.7 (1)
0x20|                                             74|               t|                b: "test" 0x2f-0x32.7 (4)
0x30|65 73 74                                       |est             |
    |                                               |                |              d{}: 0x33-0x34.7 (2)
0x30|         00                                    |   .            |                tag: "funcidx" (0x0) 0x33-0x33.7 (1)
0x30|            0a                                 |    .           |                x: 10 0x34-0x34.7 (1)
    |                                               |                |    [4]{}: section 0x35-0x5d.7 (41)
0x30|               09                              |     .          |      id: "element section" (9) 0x35-0x35.7 (1)
0x30|                  27                           |      '         |      size: 39 0x36-0x36.7 (1)
    |                                               |                |      element{}: 0x37-0x5d.7 (39)
    |                                               |                |        seg{}: 0x37-0x5d.7 (39)
0x30|                     04                        |       .        |          n: 4 0x37-0x37.7 (1)
    |                                               |                |          x[0:4]: 0x38-0x5d.7 (38)
    |                                               |                |            [0]{}: seg 0x38-0x42.7 (11)
0x30|                        02                     |        .       |              tag: 2 0x38-0x38.7 (1)
0x30|                           01                  |         .      |              x: 1 0x39-0x39.7 (1)
    |                                               |                |              e[0:2]: 0x3a-0x3c.7 (3)
    |                                               |                |                [0]{}: in 0x3a-0x3b.7 (2)
0x30|                              41               |          A     |                  i32.const: 0x41 (valid) 0x3a-0x3a.7 (1)
0x30|                                 02            |           .    |                  n: 2 0x3b-0x3b.7 (1)
    |                                               |                |                [1]{}: in 0x3c-0x3c.7 (1)
0x30|                                    0b         |            .   |                  end: 0xb (valid) 0x3c-0x3c.7 (1)
0x30|                                       00      |             .  |              et: "funcref" (0) (valid) 0x3d-0x3d.7 (1)
    |                                               |                |              y{}: 0x3e-0x42.7 (5)
0x30|                                          04   |              . |                n: 4 0x3e-0x3e.7 (1)
    |                                               |                |                x[0:4]: 0x3f-0x42.7 (4)
0x30|                                             03|               .|                  [0]: 3 y 0x3f-0x3f.7 (1)
0x40|01                                             |.               |                  [1]: 1 y 0x40-0x40.7 (1)
0x40|   04                                          | .              |                  [2]: 4 y 0x41-0x41.7 (1)
0x40|      01                                       |  .             |                  [3]: 1 y 0x42-0x42.7 (1)
    |                                               |                |            [1]{}: seg 0x43-0x49.7 (7)
0x40|         01                                    |   .            |              tag: 1 0x43-0x43.7 (1)
0x40|            00                                 |    .           |              et: "funcref" (0) (valid) 0x44-0x44.7 (1)
    |                                               |                |              y{}: 0x45-0x49.7 (5)
0x40|               04                              |     .          |                n: 4 0x45-0x45.7 (1)
    |                                               |                |                x[0:4]: 0x46-0x49.7 (4)
0x40|                  02                           |      .         |                  [0]: 2 y 0x46-0x46.7 (1)
0x40|                     07                        |       .        |                  [1]: 7 y 0x47-0x47.7 (1)
0x40|                        01                     |        .       |                  [2]: 1 y 0x48-0x48.7 (1)
0x40|                           08                  |         .      |                  [3]: 8 y 0x49-0x49.7 (1)
    |                                               |                |            [2]{}: seg 0x4a-0x55.7 (12)
0x40|                              02               |          .     |              tag: 2 0x4a-0x4a.7 (1)
0x40|                                 01            |           .    |              x: 1 0x4b-0x4b.7 (1)
    |                                               |                |              e[0:2]: 0x4c-0x4e.7 (3)
    |                                               |                |                [0]{}: in 0x4c-0x4d.7 (2)
0x40|                                    41         |            A   |                  i32.const: 0x41 (valid) 0x4c-0x4c.7 (1)
0x40|                                       0c      |             .  |                  n: 12 0x4d-0x4d.7 (1)
    |                                               |                |                [1]{}: in 0x4e-0x4e.7 (1)
0x40|                                          0b   |              . |                  end: 0xb (valid) 0x4e-0x4e.7 (1)
0x40|                                             00|               .|              et: "funcref" (0) (valid) 0x4f-0x4f.7 (1)
    |                                               |                |              y{}: 0x50-0x55.7 (6)
0x50|05                                             |.               |                n: 5 0x50-0x50.7 (1)
    |                                               |                |                x[0:5]: 0x51-0x55.7 (5)
0x50|   07                                          | .              |                  [0]: 7 y 0x51-0x51.7 (1)
0x50|      05                                       |  .             |                  [1]: 5 y 0x52-0x52.7 (1)
0x50|         02                                    |   .            |                  [2]: 2 y 0x53-0x53.7 (1)
0x50|            03                                 |    .           |                  [3]: 3 y 0x54-0x54.7 (1)
0x50|               06                              |     .          |                  [4]: 6 y 0x55-0x55.7 (1)
    |                                               |                |            [3]{}: seg 0x56-0x5d.7 (8)
0x50|                  01                           |      .         |              tag: 1 0x56-0x56.7 (1)
0x50|                     00                        |       .        |              et: "funcref" (0) (valid) 0x57-0x57.7 (1)
    |                                               |                |              y{}: 0x58-0x5d.7 (6)
0x50|                        05                     |        .       |                n: 5 0x58-0x58.7 (1)
    |                                               |                |                x[0:5]: 0x59-0x5d.7 (5)
0x50|                           05                  |         .      |                  [0]: 5 y 0x59-0x59.7 (1)
0x50|                              09               |          .     |                  [1]: 9 y 0x5a-0x5a.7 (1)
0x50|                                 02            |           .    |                  [2]: 2 y 0x5b-0x5b.7 (1)
0x50|                                    07         |            .   |                  [3]: 7 y 0x5c-0x5c.7 (1)
0x50|                                       06      |             .  |                  [4]: 6 y 0x5d-0x5d.7 (1)
    |                                               |                |    [5]{}: section 0x5e-0x9f.7 (66)
0x50|                                          0a   |              . |      id: "code section" (10) 0x5e-0x5e.7 (1)
0x50|                                             40|               @|      size: 64 0x5f-0x5f.7 (1)
    |                                               |                |      content{}: 0x60-0x9f.7 (64)
    |                                               |                |        code{}: 0x60-0x9f.7 (64)
0x60|0b                                             |.               |          n: 11 0x60-0x60.7 (1)
    |                                               |                |          x[0:11]: 0x61-0x9f.7 (63)
    |                                               |                |            [0]{}: code 0x61-0x65.7 (5)
0x60|   04                                          | .              |              size: 4 0x61-0x61.7 (1)
    |                                               |                |              code{}: 0x62-0x65.7 (4)
    |                                               |                |                t{}: 0x62-0x62.7 (1)
0x60|      00                                       |  .             |                  n: 0 0x62-0x62.7 (1)
    |                                               |                |                  x[0:0]: 0x63-NA (0)
    |                                               |                |                e[0:2]: 0x63-0x65.7 (3)
    |                                               |                |                  [0]{}: in 0x63-0x64.7 (2)
0x60|         41                                    |   A            |                    i32.const: 0x41 (valid) 0x63-0x63.7 (1)
0x60|            00                                 |    .           |                    n: 0 0x64-0x64.7 (1)
    |                                               |                |                  [1]{}: in 0x65-0x65.7 (1)
0x60|               0b                              |     .          |                    end: 0xb (valid) 0x65-0x65.7 (1)
    |                                               |                |            [1]{}: code 0x66-0x6a.7 (5)
0x60|                  04                           |      .         |              size: 4 0x66-0x66.7 (1)
    |                                               |                |              code{}: 0x67-0x6a.7 (4)
    |                                               |                |                t{}: 0x67-0x67.7 (1)
0x60|                     00                        |       .        |                  n: 0 0x67-0x67.7 (1)
    |                                               |                |                  x[0:0]: 0x68-NA (0)
    |                                               |                |                e[0:2]: 0x68-0x6a.7 (3)
    |                                               |                |                  [0]{}: in 0x68-0x69.7 (2)
0x60|                        41                     |        A       |                    i32.const: 0x41 (valid) 0x68-0x68.7 (1)
0x60|                           01                  |         .      |                    n: 1 0x69-0x69.7 (1)
    |                                               |                |                  [1]{}: in 0x6a-0x6a.7 (1)
0x60|                              0b               |          .     |                    end: 0xb (valid) 0x6a-0x6a.7 (1)
    |                                               |                |            [2]{}: code 0x6b-0x6f.7 (5)
0x60|                                 04            |           .    |              size: 4 0x6b-0x6b.7 (1)
    |                                               |                |              code{}: 0x6c-0x6f.7 (4)
    |                                               |                |                t{}: 0x6c-0x6c.7 (1)
0x60|                                    00         |            .   |                  n: 0 0x6c-0x6c.7 (1)
    |                                               |                |                  x[0:0]: 0x6d-NA (0)
    |                                               |                |                e[0:2]: 0x6d-0x6f.7 (3)
    |                                               |                |                  [0]{}: in 0x6d-0x6e.7 (2)
0x60|                                       41      |             A  |                    i32.const: 0x41 (valid) 0x6d-0x6d.7 (1)
0x60|                                          02   |              . |                    n: 2 0x6e-0x6e.7 (1)
    |                                               |                |                  [1]{}: in 0x6f-0x6f.7 (1)
0x60|                                             0b|               .|                    end: 0xb (valid) 0x6f-0x6f.7 (1)
    |                                               |                |            [3]{}: code 0x70-0x74.7 (5)
0x70|04                                             |.               |              size: 4 0x70-0x70.7 (1)
    |                                               |                |              code{}: 0x71-0x74.7 (4)
    |                                               |                |                t{}: 0x71-0x71.7 (1)
0x70|   00                                          | .              |                  n: 0 0x71-0x71.7 (1)
    |                                               |                |                  x[0:0]: 0x72-NA (0)
    |                                               |                |                e[0:2]: 0x72-0x74.7 (3)
    |                                               |                |                  [0]{}: in 0x72-0x73.7 (2)
0x70|      41                                       |  A             |                    i32.const: 0x41 (valid) 0x72-0x72.7 (1)
0x70|         03                                    |   .            |                    n: 3 0x73-0x73.7 (1)
    |                                               |                |                  [1]{}: in 0x74-0x74.7 (1)
0x70|            0b                                 |    .           |                    end: 0xb (valid) 0x74-0x74.7 (1)
    |                                               |                |            [4]{}: code 0x75-0x79.7 (5)
0x70|               04                              |     .          |              size: 4 0x75-0x75.7 (1)
    |                                               |                |              code{}: 0x76-0x79.7 (4)
    |                                               |                |                t{}: 0x76-0x76.7 (1)
0x70|                  00                           |      .         |                  n: 0 0x76-0x76.7 (1)
    |                                               |                |                  x[0:0]: 0x77-NA (0)
    |                                               |                |                e[0:2]: 0x77-0x79.7 (3)
    |                                               |                |                  [0]{}: in 0x77-0x78.7 (2)
0x70|                     41                        |       A        |                    i32.const: 0x41 (valid) 0x77-0x77.7 (1)
0x70|                        04                     |        .       |                    n: 4 0x78-0x78.7 (1)
    |                                               |                |                  [1]{}: in 0x79-0x79.7 (1)
0x70|                           0b                  |         .      |                    end: 0xb (valid) 0x79-0x79.7 (1)
    |                                               |                |            [5]{}: code 0x7a-0x7e.7 (5)
0x70|                              04               |          .     |              size: 4 0x7a-0x7a.7 (1)
    |                                               |                |              code{}: 0x7b-0x7e.7 (4)
    |                                               |                |                t{}: 0x7b-0x7b.7 (1)
0x70|                                 00            |           .    |                  n: 0 0x7b-0x7b.7 (1)
    |                                               |                |                  x[0:0]: 0x7c-NA (0)
    |                                               |                |                e[0:2]: 0x7c-0x7e.7 (3)
    |                                               |                |                  [0]{}: in 0x7c-0x7d.7 (2)
0x70|                                    41         |            A   |                    i32.const: 0x41 (valid) 0x7c-0x7c.7 (1)
0x70|                                       05      |             .  |                    n: 5 0x7d-0x7d.7 (1)
    |                                               |                |                  [1]{}: in 0x7e-0x7e.7 (1)
0x70|                                          0b   |              . |                    end: 0xb (valid) 0x7e-0x7e.7 (1)
    |                                               |                |            [6]{}: code 0x7f-0x83.7 (5)
0x70|                                             04|               .|              size: 4 0x7f-0x7f.7 (1)
    |                                               |                |              code{}: 0x80-0x83.7 (4)
    |                                               |                |                t{}: 0x80-0x80.7 (1)
0x80|00                                             |.               |                  n: 0 0x80-0x80.7 (1)
    |                                               |                |                  x[0:0]: 0x81-NA (0)
    |                                               |                |                e[0:2]: 0x81-0x83.7 (3)
    |                                               |                |                  [0]{}: in 0x81-0x82.7 (2)
0x80|   41                                          | A              |                    i32.const: 0x41 (valid) 0x81-0x81.7 (1)
0x80|      06                                       |  .             |                    n: 6 0x82-0x82.7 (1)
    |                                               |                |                  [1]{}: in 0x83-0x83.7 (1)
0x80|         0b                                    |   .            |                    end: 0xb (valid) 0x83-0x83.7 (1)
    |                                               |                |            [7]{}: code 0x84-0x88.7 (5)
0x80|            04                                 |    .           |              size: 4 0x84-0x84.7 (1)
    |                                               |                |              code{}: 0x85-0x88.7 (4)
    |                                               |                |                t{}: 0x85-0x85.7 (1)
0x80|               00                              |     .          |                  n: 0 0x85-0x85.7 (1)
    |                                               |                |                  x[0:0]: 0x86-NA (0)
    |                                               |                |                e[0:2]: 0x86-0x88.7 (3)
    |                                               |                |                  [0]{}: in 0x86-0x87.7 (2)
0x80|                  41                           |      A         |                    i32.const: 0x41 (valid) 0x86-0x86.7 (1)
0x80|                     07                        |       .        |                    n: 7 0x87-0x87.7 (1)
    |                                               |                |                  [1]{}: in 0x88-0x88.7 (1)
0x80|                        0b                     |        .       |                    end: 0xb (valid) 0x88-0x88.7 (1)
    |                                               |                |            [8]{}: code 0x89-0x8d.7 (5)
0x80|                           04                  |         .      |              size: 4 0x89-0x89.7 (1)
    |                                               |                |              code{}: 0x8a-0x8d.7 (4)
    |                                               |                |                t{}: 0x8a-0x8a.7 (1)
0x80|                              00               |          .     |                  n: 0 0x8a-0x8a.7 (1)
    |                                               |                |                  x[0:0]: 0x8b-NA (0)
    |                                               |                |                e[0:2]: 0x8b-0x8d.7 (3)
    |                                               |                |                  [0]{}: in 0x8b-0x8c.7 (2)
0x80|                                 41            |           A    |                    i32.const: 0x41 (valid) 0x8b-0x8b.7 (1)
0x80|                                    08         |            .   |                    n: 8 0x8c-0x8c.7 (1)
    |                                               |                |                  [1]{}: in 0x8d-0x8d.7 (1)
0x80|                                       0b      |             .  |                    end: 0xb (valid) 0x8d-0x8d.7 (1)
    |                                               |                |            [9]{}: code 0x8e-0x92.7 (5)
0x80|                                          04   |              . |              size: 4 0x8e-0x8e.7 (1)
    |                                               |                |              code{}: 0x8f-0x92.7 (4)
    |                                               |                |                t{}: 0x8f-0x8f.7 (1)
0x80|                                             00|               .|                  n: 0 0x8f-0x8f.7 (1)
    |                                               |                |                  x[0:0]: 0x90-NA (0)
    |                                               |                |                e[0:2]: 0x90-0x92.7 (3)
    |                                               |                |                  [0]{}: in 0x90-0x91.7 (2)
0x90|41                                             |A               |                    i32.const: 0x41 (valid) 0x90-0x90.7 (1)
0x90|   09                                          | .              |                    n: 9 0x91-0x91.7 (1)
    |                                               |                |                  [1]{}: in 0x92-0x92.7 (1)
0x90|      0b                                       |  .             |                    end: 0xb (valid) 0x92-0x92.7 (1)
    |                                               |                |            [10]{}: code 0x93-0x9f.7 (13)
0x90|         0c                                    |   .            |              size: 12 0x93-0x93.7 (1)
    |                                               |                |              code{}: 0x94-0x9f.7 (12)
    |                                               |                |                t{}: 0x94-0x94.7 (1)
0x90|            00                                 |    .           |                  n: 0 0x94-0x94.7 (1)
    |                                               |                |                  x[0:0]: 0x95-NA (0)
    |                                               |                |                e[0:5]: 0x95-0x9f.7 (11)
    |                                               |                |                  [0]{}: in 0x95-0x96.7 (2)
0x90|               41                              |     A          |                    i32.const: 0x41 (valid) 0x95-0x95.7 (1)
0x90|                  1c                           |      .         |                    n: 28 0x96-0x96.7 (1)
    |                                               |                |                  [1]{}: in 0x97-0x98.7 (2)
0x90|                     41                        |       A        |                    i32.const: 0x41 (valid) 0x97-0x97.7 (1)
0x90|                        04                     |        .       |                    n: 4 0x98-0x98.7 (1)
    |                                               |                |                  [2]{}: in 0x99-0x9a.7 (2)
0x90|                           41                  |         A      |                    i32.const: 0x41 (valid) 0x99-0x99.7 (1)
0x90|                              00               |          .     |                    n: 0 0x9a-0x9a.7 (1)
    |                                               |                |                  [3]{}: in 0x9b-0x9e.7 (4)
0x90|                                 fc            |           .    |                    prefix: 0xfc (valid) 0x9b-0x9b.7 (1)
0x90|                                    0c         |            .   |                    table.init: 12 (valid) 0x9c-0x9c.7 (1)
0x90|                                       01      |             .  |                    y: 1 0x9d-0x9d.7 (1)
0x90|                                          01   |              . |                    x: 1 0x9e-0x9e.7 (1)
    |                                               |                |                  [4]{}: in 0x9f-0x9f.7 (1)
0x90|                                             0b|               .|                    end: 0xb (valid) 0x9f-0x9f.7 (1)
