$ fq -d wasm dv table_get-0.wasm
    |00 01 02 03 04 05 06 07 08 09 0a 0b 0c 0d 0e 0f|0123456789abcdef|.{}: table_get-0.wasm (wasm) 0x0-0xa4 (164)
0x00|00 61 73 6d                                    |.asm            |  magic: raw bits (valid) 0x0-0x4 (4)
0x00|            01 00 00 00                        |    ....        |  version: 1 0x4-0x8 (4)
    |                                               |                |  sections[0:6]: 0x8-0xa4 (156)
    |                                               |                |    [0]{}: section 0x8-0x21 (25)
0x00|                        01                     |        .       |      id: "type_section" (1) 0x8-0x9 (1)
0x00|                           17                  |         .      |      size: 23 (valid) 0x9-0xa (1)
    |                                               |                |      content{}: 0xa-0x21 (23)
    |                                               |                |        ft{}: 0xa-0x21 (23)
0x00|                              05               |          .     |          n: 5 (valid) 0xa-0xb (1)
    |                                               |                |          x[0:5]: 0xb-0x21 (22)
    |                                               |                |            [0]{}: ft 0xb-0xe (3)
0x00|                                 60            |           `    |              tag: 0x60 (valid) 0xb-0xc (1)
    |                                               |                |              rt1{}: 0xc-0xd (1)
0x00|                                    00         |            .   |                n: 0 (valid) 0xc-0xd (1)
    |                                               |                |                x[0:0]: 0xd-0xd (0)
    |                                               |                |              rt2{}: 0xd-0xe (1)
0x00|                                       00      |             .  |                n: 0 (valid) 0xd-0xe (1)
    |                                               |                |                x[0:0]: 0xe-0xe (0)
    |                                               |                |            [1]{}: ft 0xe-0x12 (4)
0x00|                                          60   |              ` |              tag: 0x60 (valid) 0xe-0xf (1)
    |                                               |                |              rt1{}: 0xf-0x11 (2)
0x00|                                             01|               .|                n: 1 (valid) 0xf-0x10 (1)
    |                                               |                |                x[0:1]: 0x10-0x11 (1)
0x10|6f                                             |o               |                  [0]: "externref" (0x6f) t 0x10-0x11 (1)
    |                                               |                |              rt2{}: 0x11-0x12 (1)
0x10|   00                                          | .              |                n: 0 (valid) 0x11-0x12 (1)
    |                                               |                |                x[0:0]: 0x12-0x12 (0)
    |                                               |                |            [2]{}: ft 0x12-0x17 (5)
0x10|      60                                       |  `             |              tag: 0x60 (valid) 0x12-0x13 (1)
    |                                               |                |              rt1{}: 0x13-0x15 (2)
0x10|         01                                    |   .            |                n: 1 (valid) 0x13-0x14 (1)
    |                                               |                |                x[0:1]: 0x14-0x15 (1)
0x10|            7f                                 |    .           |                  [0]: "i32" (0x7f) t 0x14-0x15 (1)
    |                                               |                |              rt2{}: 0x15-0x17 (2)
0x10|               01                              |     .          |                n: 1 (valid) 0x15-0x16 (1)
    |                                               |                |                x[0:1]: 0x16-0x17 (1)
0x10|                  6f                           |      o         |                  [0]: "externref" (0x6f) t 0x16-0x17 (1)
    |                                               |                |            [3]{}: ft 0x17-0x1c (5)
0x10|                     60                        |       `        |              tag: 0x60 (valid) 0x17-0x18 (1)
    |                                               |                |              rt1{}: 0x18-0x1a (2)
0x10|                        01                     |        .       |                n: 1 (valid) 0x18-0x19 (1)
    |                                               |                |                x[0:1]: 0x19-0x1a (1)
0x10|                           7f                  |         .      |                  [0]: "i32" (0x7f) t 0x19-0x1a (1)
    |                                               |                |              rt2{}: 0x1a-0x1c (2)
0x10|                              01               |          .     |                n: 1 (valid) 0x1a-0x1b (1)
    |                                               |                |                x[0:1]: 0x1b-0x1c (1)
0x10|                                 70            |           p    |                  [0]: "funcref" (0x70) t 0x1b-0x1c (1)
    |                                               |                |            [4]{}: ft 0x1c-0x21 (5)
0x10|                                    60         |            `   |              tag: 0x60 (valid) 0x1c-0x1d (1)
    |                                               |                |              rt1{}: 0x1d-0x1f (2)
0x10|                                       01      |             .  |                n: 1 (valid) 0x1d-0x1e (1)
    |                                               |                |                x[0:1]: 0x1e-0x1f (1)
0x10|                                          7f   |              . |                  [0]: "i32" (0x7f) t 0x1e-0x1f (1)
    |                                               |                |              rt2{}: 0x1f-0x21 (2)
0x10|                                             01|               .|                n: 1 (valid) 0x1f-0x20 (1)
    |                                               |                |                x[0:1]: 0x20-0x21 (1)
0x20|7f                                             |.               |                  [0]: "i32" (0x7f) t 0x20-0x21 (1)
    |                                               |                |    [1]{}: section 0x21-0x29 (8)
0x20|   03                                          | .              |      id: "function_section" (3) 0x21-0x22 (1)
0x20|      06                                       |  .             |      size: 6 (valid) 0x22-0x23 (1)
    |                                               |                |      content{}: 0x23-0x29 (6)
    |                                               |                |        x{}: 0x23-0x29 (6)
0x20|         05                                    |   .            |          n: 5 (valid) 0x23-0x24 (1)
    |                                               |                |          x[0:5]: 0x24-0x29 (5)
0x20|            00                                 |    .           |            [0]: 0 x (valid) 0x24-0x25 (1)
0x20|               01                              |     .          |            [1]: 1 x (valid) 0x25-0x26 (1)
0x20|                  02                           |      .         |            [2]: 2 x (valid) 0x26-0x27 (1)
0x20|                     03                        |       .        |            [3]: 3 x (valid) 0x27-0x28 (1)
0x20|                        04                     |        .       |            [4]: 4 x (valid) 0x28-0x29 (1)
    |                                               |                |    [2]{}: section 0x29-0x32 (9)
0x20|                           04                  |         .      |      id: "table_section" (4) 0x29-0x2a (1)
0x20|                              07               |          .     |      size: 7 (valid) 0x2a-0x2b (1)
    |                                               |                |      content{}: 0x2b-0x32 (7)
    |                                               |                |        tab{}: 0x2b-0x32 (7)
0x20|                                 02            |           .    |          n: 2 (valid) 0x2b-0x2c (1)
    |                                               |                |          x[0:2]: 0x2c-0x32 (6)
    |                                               |                |            [0]{}: tab 0x2c-0x2f (3)
0x20|                                    6f         |            o   |              et: "externref" (111) 0x2c-0x2d (1)
    |                                               |                |              lim{}: 0x2d-0x2f (2)
0x20|                                       00      |             .  |                tag: 0x0 0x2d-0x2e (1)
0x20|                                          02   |              . |                n: 2 (valid) 0x2e-0x2f (1)
    |                                               |                |            [1]{}: tab 0x2f-0x32 (3)
0x20|                                             70|               p|              et: "funcref" (112) 0x2f-0x30 (1)
    |                                               |                |              lim{}: 0x30-0x32 (2)
0x30|00                                             |.               |                tag: 0x0 0x30-0x31 (1)
0x30|   03                                          | .              |                n: 3 (valid) 0x31-0x32 (1)
    |                                               |                |    [3]{}: section 0x32-0x6c (58)
0x30|      07                                       |  .             |      id: "export_section" (7) 0x32-0x33 (1)
0x30|         38                                    |   8            |      size: 56 (valid) 0x33-0x34 (1)
    |                                               |                |      content{}: 0x34-0x6c (56)
    |                                               |                |        ex{}: 0x34-0x6c (56)
0x30|            04                                 |    .           |          n: 4 (valid) 0x34-0x35 (1)
    |                                               |                |          x[0:4]: 0x35-0x6c (55)
    |                                               |                |            [0]{}: ex 0x35-0x3c (7)
    |                                               |                |              nm{}: 0x35-0x3a (5)
0x30|               04                              |     .          |                n: 4 (valid) 0x35-0x36 (1)
0x30|                  69 6e 69 74                  |      init      |                b: "init" 0x36-0x3a (4)
    |                                               |                |              d{}: 0x3a-0x3c (2)
0x30|                              00               |          .     |                tag: "funcidx" (0x0) 0x3a-0x3b (1)
0x30|                                 01            |           .    |                x: 1 (valid) 0x3b-0x3c (1)
    |                                               |                |            [1]{}: ex 0x3c-0x4c (16)
    |                                               |                |              nm{}: 0x3c-0x4a (14)
0x30|                                    0d         |            .   |                n: 13 (valid) 0x3c-0x3d (1)
0x30|                                       67 65 74|             get|                b: "get-externref" 0x3d-0x4a (13)
0x40|2d 65 78 74 65 72 6e 72 65 66                  |-externref      |
    |                                               |                |              d{}: 0x4a-0x4c (2)
0x40|                              00               |          .     |                tag: "funcidx" (0x0) 0x4a-0x4b (1)
0x40|                                 02            |           .    |                x: 2 (valid) 0x4b-0x4c (1)
    |                                               |                |            [2]{}: ex 0x4c-0x5a (14)
    |                                               |                |              nm{}: 0x4c-0x58 (12)
0x40|                                    0b         |            .   |                n: 11 (valid) 0x4c-0x4d (1)
0x40|                                       67 65 74|             get|                b: "get-funcref" 0x4d-0x58 (11)
0x50|2d 66 75 6e 63 72 65 66                        |-funcref        |
    |                                               |                |              d{}: 0x58-0x5a (2)
0x50|                        00                     |        .       |                tag: "funcidx" (0x0) 0x58-0x59 (1)
0x50|                           03                  |         .      |                x: 3 (valid) 0x59-0x5a (1)
    |                                               |                |            [3]{}: ex 0x5a-0x6c (18)
    |                                               |                |              nm{}: 0x5a-0x6a (16)
0x50|                              0f               |          .     |                n: 15 (valid) 0x5a-0x5b (1)
0x50|                                 69 73 5f 6e 75|           is_nu|                b: "is_null-funcref" 0x5b-0x6a (15)
0x60|6c 6c 2d 66 75 6e 63 72 65 66                  |ll-funcref      |
    |                                               |                |              d{}: 0x6a-0x6c (2)
0x60|                              00               |          .     |                tag: "funcidx" (0x0) 0x6a-0x6b (1)
0x60|                                 04            |           .    |                x: 4 (valid) 0x6b-0x6c (1)
    |                                               |                |    [4]{}: section 0x6c-0x77 (11)
0x60|                                    09         |            .   |      id: "element_section" (9) 0x6c-0x6d (1)
0x60|                                       09      |             .  |      size: 9 (valid) 0x6d-0x6e (1)
    |                                               |                |      element{}: 0x6e-0x77 (9)
    |                                               |                |        seg{}: 0x6e-0x77 (9)
0x60|                                          01   |              . |          n: 1 (valid) 0x6e-0x6f (1)
    |                                               |                |          x[0:1]: 0x6f-0x77 (8)
    |                                               |                |            [0]{}: seg 0x6f-0x77 (8)
0x60|                                             02|               .|              tag: 2 (valid) 0x6f-0x70 (1)
0x70|01                                             |.               |              x: 1 (valid) 0x70-0x71 (1)
    |                                               |                |              e[0:2]: 0x71-0x74 (3)
    |                                               |                |                [0]{}: in 0x71-0x73 (2)
0x70|   41                                          | A              |                  opcode: "i32.const" (0x41) 0x71-0x72 (1)
0x70|      01                                       |  .             |                  n: 1 (valid) 0x72-0x73 (1)
    |                                               |                |                [1]{}: in 0x73-0x74 (1)
0x70|         0b                                    |   .            |                  opcode: "end" (0xb) 0x73-0x74 (1)
0x70|            00                                 |    .           |              et: "funcref" (0) (valid) 0x74-0x75 (1)
    |                                               |                |              y{}: 0x75-0x77 (2)
0x70|               01                              |     .          |                n: 1 (valid) 0x75-0x76 (1)
    |                                               |                |                x[0:1]: 0x76-0x77 (1)
0x70|                  00                           |      .         |                  [0]: 0 y (valid) 0x76-0x77 (1)
    |                                               |                |    [5]{}: section 0x77-0xa4 (45)
0x70|                     0a                        |       .        |      id: "code_section" (10) 0x77-0x78 (1)
0x70|                        2b                     |        +       |      size: 43 (valid) 0x78-0x79 (1)
    |                                               |                |      content{}: 0x79-0xa4 (43)
    |                                               |                |        code{}: 0x79-0xa4 (43)
0x70|                           05                  |         .      |          n: 5 (valid) 0x79-0x7a (1)
    |                                               |                |          x[0:5]: 0x7a-0xa4 (42)
    |                                               |                |            [0]{}: code 0x7a-0x7d (3)
0x70|                              02               |          .     |              size: 2 (valid) 0x7a-0x7b (1)
    |                                               |                |              code{}: 0x7b-0x7d (2)
    |                                               |                |                t{}: 0x7b-0x7c (1)
0x70|                                 00            |           .    |                  n: 0 (valid) 0x7b-0x7c (1)
    |                                               |                |                  x[0:0]: 0x7c-0x7c (0)
    |                                               |                |                e[0:1]: 0x7c-0x7d (1)
    |                                               |                |                  [0]{}: in 0x7c-0x7d (1)
0x70|                                    0b         |            .   |                    opcode: "end" (0xb) 0x7c-0x7d (1)
    |                                               |                |            [1]{}: code 0x7d-0x8e (17)
0x70|                                       10      |             .  |              size: 16 (valid) 0x7d-0x7e (1)
    |                                               |                |              code{}: 0x7e-0x8e (16)
    |                                               |                |                t{}: 0x7e-0x7f (1)
0x70|                                          00   |              . |                  n: 0 (valid) 0x7e-0x7f (1)
    |                                               |                |                  x[0:0]: 0x7f-0x7f (0)
    |                                               |                |                e[0:8]: 0x7f-0x8e (15)
    |                                               |                |                  [0]{}: in 0x7f-0x81 (2)
0x70|                                             41|               A|                    opcode: "i32.const" (0x41) 0x7f-0x80 (1)
0x80|01                                             |.               |                    n: 1 (valid) 0x80-0x81 (1)
    |                                               |                |                  [1]{}: in 0x81-0x83 (2)
0x80|   20                                          |                |                    opcode: "local.get" (0x20) 0x81-0x82 (1)
0x80|      00                                       |  .             |                    x: 0 (valid) 0x82-0x83 (1)
    |                                               |                |                  [2]{}: in 0x83-0x85 (2)
0x80|         26                                    |   &            |                    opcode: "table.set" (0x26) 0x83-0x84 (1)
0x80|            00                                 |    .           |                    x: 0 (valid) 0x84-0x85 (1)
    |                                               |                |                  [3]{}: in 0x85-0x87 (2)
0x80|               41                              |     A          |                    opcode: "i32.const" (0x41) 0x85-0x86 (1)
0x80|                  02                           |      .         |                    n: 2 (valid) 0x86-0x87 (1)
    |                                               |                |                  [4]{}: in 0x87-0x89 (2)
0x80|                     41                        |       A        |                    opcode: "i32.const" (0x41) 0x87-0x88 (1)
0x80|                        01                     |        .       |                    n: 1 (valid) 0x88-0x89 (1)
    |                                               |                |                  [5]{}: in 0x89-0x8b (2)
0x80|                           25                  |         %      |                    opcode: "table.get" (0x25) 0x89-0x8a (1)
0x80|                              01               |          .     |                    x: 1 (valid) 0x8a-0x8b (1)
    |                                               |                |                  [6]{}: in 0x8b-0x8d (2)
0x80|                                 26            |           &    |                    opcode: "table.set" (0x26) 0x8b-0x8c (1)
0x80|                                    01         |            .   |                    x: 1 (valid) 0x8c-0x8d (1)
    |                                               |                |                  [7]{}: in 0x8d-0x8e (1)
0x80|                                       0b      |             .  |                    opcode: "end" (0xb) 0x8d-0x8e (1)
    |                                               |                |            [2]{}: code 0x8e-0x95 (7)
0x80|                                          06   |              . |              size: 6 (valid) 0x8e-0x8f (1)
    |                                               |                |              code{}: 0x8f-0x95 (6)
    |                                               |                |                t{}: 0x8f-0x90 (1)
0x80|                                             00|               .|                  n: 0 (valid) 0x8f-0x90 (1)
    |                                               |                |                  x[0:0]: 0x90-0x90 (0)
    |                                               |                |                e[0:3]: 0x90-0x95 (5)
    |                                               |                |                  [0]{}: in 0x90-0x92 (2)
0x90|20                                             |                |                    opcode: "local.get" (0x20) 0x90-0x91 (1)
0x90|   00                                          | .              |                    x: 0 (valid) 0x91-0x92 (1)
    |                                               |                |                  [1]{}: in 0x92-0x94 (2)
0x90|      25                                       |  %             |                    opcode: "table.get" (0x25) 0x92-0x93 (1)
0x90|         00                                    |   .            |                    x: 0 (valid) 0x93-0x94 (1)
    |                                               |                |                  [2]{}: in 0x94-0x95 (1)
0x90|            0b                                 |    .           |                    opcode: "end" (0xb) 0x94-0x95 (1)
    |                                               |                |            [3]{}: code 0x95-0x9c (7)
0x90|               06                              |     .          |              size: 6 (valid) 0x95-0x96 (1)
    |                                               |                |              code{}: 0x96-0x9c (6)
    |                                               |                |                t{}: 0x96-0x97 (1)
0x90|                  00                           |      .         |                  n: 0 (valid) 0x96-0x97 (1)
    |                                               |                |                  x[0:0]: 0x97-0x97 (0)
    |                                               |                |                e[0:3]: 0x97-0x9c (5)
    |                                               |                |                  [0]{}: in 0x97-0x99 (2)
0x90|                     20                        |                |                    opcode: "local.get" (0x20) 0x97-0x98 (1)
0x90|                        00                     |        .       |                    x: 0 (valid) 0x98-0x99 (1)
    |                                               |                |                  [1]{}: in 0x99-0x9b (2)
0x90|                           25                  |         %      |                    opcode: "table.get" (0x25) 0x99-0x9a (1)
0x90|                              01               |          .     |                    x: 1 (valid) 0x9a-0x9b (1)
    |                                               |                |                  [2]{}: in 0x9b-0x9c (1)
0x90|                                 0b            |           .    |                    opcode: "end" (0xb) 0x9b-0x9c (1)
    |                                               |                |            [4]{}: code 0x9c-0xa4 (8)
0x90|                                    07         |            .   |              size: 7 (valid) 0x9c-0x9d (1)
    |                                               |                |              code{}: 0x9d-0xa4 (7)
    |                                               |                |                t{}: 0x9d-0x9e (1)
0x90|                                       00      |             .  |                  n: 0 (valid) 0x9d-0x9e (1)
    |                                               |                |                  x[0:0]: 0x9e-0x9e (0)
    |                                               |                |                e[0:4]: 0x9e-0xa4 (6)
    |                                               |                |                  [0]{}: in 0x9e-0xa0 (2)
0x90|                                          20   |                |                    opcode: "local.get" (0x20) 0x9e-0x9f (1)
0x90|                                             00|               .|                    x: 0 (valid) 0x9f-0xa0 (1)
    |                                               |                |                  [1]{}: in 0xa0-0xa2 (2)
0xa0|10                                             |.               |                    opcode: "call" (0x10) 0xa0-0xa1 (1)
0xa0|   03                                          | .              |                    x: 3 (valid) 0xa1-0xa2 (1)
    |                                               |                |                  [2]{}: in 0xa2-0xa3 (1)
0xa0|      d1                                       |  .             |                    opcode: "ref.is_null" (0xd1) 0xa2-0xa3 (1)
    |                                               |                |                  [3]{}: in 0xa3-0xa4 (1)
0xa0|         0b|                                   |   .|           |                    opcode: "end" (0xb) 0xa3-0xa4 (1)
