$ fq -d wasm dv table_size-0.wasm
    |00 01 02 03 04 05 06 07 08 09 0a 0b 0c 0d 0e 0f|0123456789abcdef|.{}: table_size-0.wasm (wasm) 0x0-0xc9 (201)
0x00|00 61 73 6d                                    |.asm            |  magic: raw bits (valid) 0x0-0x4 (4)
0x00|            01 00 00 00                        |    ....        |  version: 1 0x4-0x8 (4)
    |                                               |                |  sections[0:5]: 0x8-0xc9 (193)
    |                                               |                |    [0]{}: section 0x8-0x13 (11)
0x00|                        01                     |        .       |      id: "type_section" (1) 0x8-0x9 (1)
0x00|                           09                  |         .      |      size: 9 (valid) 0x9-0xa (1)
    |                                               |                |      content{}: 0xa-0x13 (9)
    |                                               |                |        ft{}: 0xa-0x13 (9)
0x00|                              02               |          .     |          n: 2 (valid) 0xa-0xb (1)
    |                                               |                |          x[0:2]: 0xb-0x13 (8)
    |                                               |                |            [0]{}: ft 0xb-0xf (4)
0x00|                                 60            |           `    |              tag: 0x60 (valid) 0xb-0xc (1)
    |                                               |                |              rt1{}: 0xc-0xd (1)
0x00|                                    00         |            .   |                n: 0 (valid) 0xc-0xd (1)
    |                                               |                |                x[0:0]: 0xd-0xd (0)
    |                                               |                |              rt2{}: 0xd-0xf (2)
0x00|                                       01      |             .  |                n: 1 (valid) 0xd-0xe (1)
    |                                               |                |                x[0:1]: 0xe-0xf (1)
0x00|                                          7f   |              . |                  [0]: "i32" (0x7f) t 0xe-0xf (1)
    |                                               |                |            [1]{}: ft 0xf-0x13 (4)
0x00|                                             60|               `|              tag: 0x60 (valid) 0xf-0x10 (1)
    |                                               |                |              rt1{}: 0x10-0x12 (2)
0x10|01                                             |.               |                n: 1 (valid) 0x10-0x11 (1)
    |                                               |                |                x[0:1]: 0x11-0x12 (1)
0x10|   7f                                          | .              |                  [0]: "i32" (0x7f) t 0x11-0x12 (1)
    |                                               |                |              rt2{}: 0x12-0x13 (1)
0x10|      00                                       |  .             |                n: 0 (valid) 0x12-0x13 (1)
    |                                               |                |                x[0:0]: 0x13-0x13 (0)
    |                                               |                |    [1]{}: section 0x13-0x1e (11)
0x10|         03                                    |   .            |      id: "function_section" (3) 0x13-0x14 (1)
0x10|            09                                 |    .           |      size: 9 (valid) 0x14-0x15 (1)
    |                                               |                |      content{}: 0x15-0x1e (9)
    |                                               |                |        x{}: 0x15-0x1e (9)
0x10|               08                              |     .          |          n: 8 (valid) 0x15-0x16 (1)
    |                                               |                |          x[0:8]: 0x16-0x1e (8)
0x10|                  00                           |      .         |            [0]: 0 x (valid) 0x16-0x17 (1)
0x10|                     00                        |       .        |            [1]: 0 x (valid) 0x17-0x18 (1)
0x10|                        00                     |        .       |            [2]: 0 x (valid) 0x18-0x19 (1)
0x10|                           00                  |         .      |            [3]: 0 x (valid) 0x19-0x1a (1)
0x10|                              01               |          .     |            [4]: 1 x (valid) 0x1a-0x1b (1)
0x10|                                 01            |           .    |            [5]: 1 x (valid) 0x1b-0x1c (1)
0x10|                                    01         |            .   |            [6]: 1 x (valid) 0x1c-0x1d (1)
0x10|                                       01      |             .  |            [7]: 1 x (valid) 0x1d-0x1e (1)
    |                                               |                |    [2]{}: section 0x1e-0x2f (17)
0x10|                                          04   |              . |      id: "table_section" (4) 0x1e-0x1f (1)
0x10|                                             0f|               .|      size: 15 (valid) 0x1f-0x20 (1)
    |                                               |                |      content{}: 0x20-0x2f (15)
    |                                               |                |        tab{}: 0x20-0x2f (15)
0x20|04                                             |.               |          n: 4 (valid) 0x20-0x21 (1)
    |                                               |                |          x[0:4]: 0x21-0x2f (14)
    |                                               |                |            [0]{}: tab 0x21-0x24 (3)
0x20|   6f                                          | o              |              et: "externref" (111) 0x21-0x22 (1)
    |                                               |                |              lim{}: 0x22-0x24 (2)
0x20|      00                                       |  .             |                tag: 0x0 0x22-0x23 (1)
0x20|         00                                    |   .            |                n: 0 (valid) 0x23-0x24 (1)
    |                                               |                |            [1]{}: tab 0x24-0x27 (3)
0x20|            6f                                 |    o           |              et: "externref" (111) 0x24-0x25 (1)
    |                                               |                |              lim{}: 0x25-0x27 (2)
0x20|               00                              |     .          |                tag: 0x0 0x25-0x26 (1)
0x20|                  01                           |      .         |                n: 1 (valid) 0x26-0x27 (1)
    |                                               |                |            [2]{}: tab 0x27-0x2b (4)
0x20|                     6f                        |       o        |              et: "externref" (111) 0x27-0x28 (1)
    |                                               |                |              lim{}: 0x28-0x2b (3)
0x20|                        01                     |        .       |                tag: 0x1 0x28-0x29 (1)
0x20|                           00                  |         .      |                n: 0 (valid) 0x29-0x2a (1)
0x20|                              02               |          .     |                m: 2 (valid) 0x2a-0x2b (1)
    |                                               |                |            [3]{}: tab 0x2b-0x2f (4)
0x20|                                 6f            |           o    |              et: "externref" (111) 0x2b-0x2c (1)
    |                                               |                |              lim{}: 0x2c-0x2f (3)
0x20|                                    01         |            .   |                tag: 0x1 0x2c-0x2d (1)
0x20|                                       03      |             .  |                n: 3 (valid) 0x2d-0x2e (1)
0x20|                                          08   |              . |                m: 8 (valid) 0x2e-0x2f (1)
    |                                               |                |    [3]{}: section 0x2f-0x82 (83)
0x20|                                             07|               .|      id: "export_section" (7) 0x2f-0x30 (1)
0x30|51                                             |Q               |      size: 81 (valid) 0x30-0x31 (1)
    |                                               |                |      content{}: 0x31-0x82 (81)
    |                                               |                |        ex{}: 0x31-0x82 (81)
0x30|   08                                          | .              |          n: 8 (valid) 0x31-0x32 (1)
    |                                               |                |          x[0:8]: 0x32-0x82 (80)
    |                                               |                |            [0]{}: ex 0x32-0x3c (10)
    |                                               |                |              nm{}: 0x32-0x3a (8)
0x30|      07                                       |  .             |                n: 7 (valid) 0x32-0x33 (1)
0x30|         73 69 7a 65 2d 74 30                  |   size-t0      |                b: "size-t0" 0x33-0x3a (7)
    |                                               |                |              d{}: 0x3a-0x3c (2)
0x30|                              00               |          .     |                tag: "funcidx" (0x0) 0x3a-0x3b (1)
0x30|                                 00            |           .    |                x: 0 (valid) 0x3b-0x3c (1)
    |                                               |                |            [1]{}: ex 0x3c-0x46 (10)
    |                                               |                |              nm{}: 0x3c-0x44 (8)
0x30|                                    07         |            .   |                n: 7 (valid) 0x3c-0x3d (1)
0x30|                                       73 69 7a|             siz|                b: "size-t1" 0x3d-0x44 (7)
0x40|65 2d 74 31                                    |e-t1            |
    |                                               |                |              d{}: 0x44-0x46 (2)
0x40|            00                                 |    .           |                tag: "funcidx" (0x0) 0x44-0x45 (1)
0x40|               01                              |     .          |                x: 1 (valid) 0x45-0x46 (1)
    |                                               |                |            [2]{}: ex 0x46-0x50 (10)
    |                                               |                |              nm{}: 0x46-0x4e (8)
0x40|                  07                           |      .         |                n: 7 (valid) 0x46-0x47 (1)
0x40|                     73 69 7a 65 2d 74 32      |       size-t2  |                b: "size-t2" 0x47-0x4e (7)
    |                                               |                |              d{}: 0x4e-0x50 (2)
0x40|                                          00   |              . |                tag: "funcidx" (0x0) 0x4e-0x4f (1)
0x40|                                             02|               .|                x: 2 (valid) 0x4f-0x50 (1)
    |                                               |                |            [3]{}: ex 0x50-0x5a (10)
    |                                               |                |              nm{}: 0x50-0x58 (8)
0x50|07                                             |.               |                n: 7 (valid) 0x50-0x51 (1)
0x50|   73 69 7a 65 2d 74 33                        | size-t3        |                b: "size-t3" 0x51-0x58 (7)
    |                                               |                |              d{}: 0x58-0x5a (2)
0x50|                        00                     |        .       |                tag: "funcidx" (0x0) 0x58-0x59 (1)
0x50|                           03                  |         .      |                x: 3 (valid) 0x59-0x5a (1)
    |                                               |                |            [4]{}: ex 0x5a-0x64 (10)
    |                                               |                |              nm{}: 0x5a-0x62 (8)
0x50|                              07               |          .     |                n: 7 (valid) 0x5a-0x5b (1)
0x50|                                 67 72 6f 77 2d|           grow-|                b: "grow-t0" 0x5b-0x62 (7)
0x60|74 30                                          |t0              |
    |                                               |                |              d{}: 0x62-0x64 (2)
0x60|      00                                       |  .             |                tag: "funcidx" (0x0) 0x62-0x63 (1)
0x60|         04                                    |   .            |                x: 4 (valid) 0x63-0x64 (1)
    |                                               |                |            [5]{}: ex 0x64-0x6e (10)
    |                                               |                |              nm{}: 0x64-0x6c (8)
0x60|            07                                 |    .           |                n: 7 (valid) 0x64-0x65 (1)
0x60|               67 72 6f 77 2d 74 31            |     grow-t1    |                b: "grow-t1" 0x65-0x6c (7)
    |                                               |                |              d{}: 0x6c-0x6e (2)
0x60|                                    00         |            .   |                tag: "funcidx" (0x0) 0x6c-0x6d (1)
0x60|                                       05      |             .  |                x: 5 (valid) 0x6d-0x6e (1)
    |                                               |                |            [6]{}: ex 0x6e-0x78 (10)
    |                                               |                |              nm{}: 0x6e-0x76 (8)
0x60|                                          07   |              . |                n: 7 (valid) 0x6e-0x6f (1)
0x60|                                             67|               g|                b: "grow-t2" 0x6f-0x76 (7)
0x70|72 6f 77 2d 74 32                              |row-t2          |
    |                                               |                |              d{}: 0x76-0x78 (2)
0x70|                  00                           |      .         |                tag: "funcidx" (0x0) 0x76-0x77 (1)
0x70|                     06                        |       .        |                x: 6 (valid) 0x77-0x78 (1)
    |                                               |                |            [7]{}: ex 0x78-0x82 (10)
    |                                               |                |              nm{}: 0x78-0x80 (8)
0x70|                        07                     |        .       |                n: 7 (valid) 0x78-0x79 (1)
0x70|                           67 72 6f 77 2d 74 33|         grow-t3|                b: "grow-t3" 0x79-0x80 (7)
    |                                               |                |              d{}: 0x80-0x82 (2)
0x80|00                                             |.               |                tag: "funcidx" (0x0) 0x80-0x81 (1)
0x80|   07                                          | .              |                x: 7 (valid) 0x81-0x82 (1)
    |                                               |                |    [4]{}: section 0x82-0xc9 (71)
0x80|      0a                                       |  .             |      id: "code_section" (10) 0x82-0x83 (1)
0x80|         45                                    |   E            |      size: 69 (valid) 0x83-0x84 (1)
    |                                               |                |      content{}: 0x84-0xc9 (69)
    |                                               |                |        code{}: 0x84-0xc9 (69)
0x80|            08                                 |    .           |          n: 8 (valid) 0x84-0x85 (1)
    |                                               |                |          x[0:8]: 0x85-0xc9 (68)
    |                                               |                |            [0]{}: code 0x85-0x8b (6)
0x80|               05                              |     .          |              size: 5 (valid) 0x85-0x86 (1)
    |                                               |                |              code{}: 0x86-0x8b (5)
    |                                               |                |                t{}: 0x86-0x87 (1)
0x80|                  00                           |      .         |                  n: 0 (valid) 0x86-0x87 (1)
    |                                               |                |                  x[0:0]: 0x87-0x87 (0)
    |                                               |                |                e[0:2]: 0x87-0x8b (4)
    |                                               |                |                  [0]{}: in 0x87-0x8a (3)
0x80|                     fc                        |       .        |                    opcode: "prefix" (0xfc) 0x87-0x88 (1)
0x80|                        10                     |        .       |                    p_opcode: "table.size" (16) 0x88-0x89 (1)
0x80|                           00                  |         .      |                    x: 0 (valid) 0x89-0x8a (1)
    |                                               |                |                  [1]{}: in 0x8a-0x8b (1)
0x80|                              0b               |          .     |                    opcode: "end" (0xb) 0x8a-0x8b (1)
    |                                               |                |            [1]{}: code 0x8b-0x91 (6)
0x80|                                 05            |           .    |              size: 5 (valid) 0x8b-0x8c (1)
    |                                               |                |              code{}: 0x8c-0x91 (5)
    |                                               |                |                t{}: 0x8c-0x8d (1)
0x80|                                    00         |            .   |                  n: 0 (valid) 0x8c-0x8d (1)
    |                                               |                |                  x[0:0]: 0x8d-0x8d (0)
    |                                               |                |                e[0:2]: 0x8d-0x91 (4)
    |                                               |                |                  [0]{}: in 0x8d-0x90 (3)
0x80|                                       fc      |             .  |                    opcode: "prefix" (0xfc) 0x8d-0x8e (1)
0x80|                                          10   |              . |                    p_opcode: "table.size" (16) 0x8e-0x8f (1)
0x80|                                             01|               .|                    x: 1 (valid) 0x8f-0x90 (1)
    |                                               |                |                  [1]{}: in 0x90-0x91 (1)
0x90|0b                                             |.               |                    opcode: "end" (0xb) 0x90-0x91 (1)
    |                                               |                |            [2]{}: code 0x91-0x97 (6)
0x90|   05                                          | .              |              size: 5 (valid) 0x91-0x92 (1)
    |                                               |                |              code{}: 0x92-0x97 (5)
    |                                               |                |                t{}: 0x92-0x93 (1)
0x90|      00                                       |  .             |                  n: 0 (valid) 0x92-0x93 (1)
    |                                               |                |                  x[0:0]: 0x93-0x93 (0)
    |                                               |                |                e[0:2]: 0x93-0x97 (4)
    |                                               |                |                  [0]{}: in 0x93-0x96 (3)
0x90|         fc                                    |   .            |                    opcode: "prefix" (0xfc) 0x93-0x94 (1)
0x90|            10                                 |    .           |                    p_opcode: "table.size" (16) 0x94-0x95 (1)
0x90|               02                              |     .          |                    x: 2 (valid) 0x95-0x96 (1)
    |                                               |                |                  [1]{}: in 0x96-0x97 (1)
0x90|                  0b                           |      .         |                    opcode: "end" (0xb) 0x96-0x97 (1)
    |                                               |                |            [3]{}: code 0x97-0x9d (6)
0x90|                     05                        |       .        |              size: 5 (valid) 0x97-0x98 (1)
    |                                               |                |              code{}: 0x98-0x9d (5)
    |                                               |                |                t{}: 0x98-0x99 (1)
0x90|                        00                     |        .       |                  n: 0 (valid) 0x98-0x99 (1)
    |                                               |                |                  x[0:0]: 0x99-0x99 (0)
    |                                               |                |                e[0:2]: 0x99-0x9d (4)
    |                                               |                |                  [0]{}: in 0x99-0x9c (3)
0x90|                           fc                  |         .      |                    opcode: "prefix" (0xfc) 0x99-0x9a (1)
0x90|                              10               |          .     |                    p_opcode: "table.size" (16) 0x9a-0x9b (1)
0x90|                                 03            |           .    |                    x: 3 (valid) 0x9b-0x9c (1)
    |                                               |                |                  [1]{}: in 0x9c-0x9d (1)
0x90|                                    0b         |            .   |                    opcode: "end" (0xb) 0x9c-0x9d (1)
    |                                               |                |            [4]{}: code 0x9d-0xa8 (11)
0x90|                                       0a      |             .  |              size: 10 (valid) 0x9d-0x9e (1)
    |                                               |                |              code{}: 0x9e-0xa8 (10)
    |                                               |                |                t{}: 0x9e-0x9f (1)
0x90|                                          00   |              . |                  n: 0 (valid) 0x9e-0x9f (1)
    |                                               |                |                  x[0:0]: 0x9f-0x9f (0)
    |                                               |                |                e[0:5]: 0x9f-0xa8 (9)
    |                                               |                |                  [0]{}: in 0x9f-0xa1 (2)
0x90|                                             d0|               .|                    opcode: "ref.null" (0xd0) 0x9f-0xa0 (1)
0xa0|6f                                             |o               |                    t: "externref" (111) 0xa0-0xa1 (1)
    |                                               |                |                  [1]{}: in 0xa1-0xa3 (2)
0xa0|   20                                          |                |                    opcode: "local.get" (0x20) 0xa1-0xa2 (1)
0xa0|      00                                       |  .             |                    x: 0 (valid) 0xa2-0xa3 (1)
    |                                               |                |                  [2]{}: in 0xa3-0xa6 (3)
0xa0|         fc                                    |   .            |                    opcode: "prefix" (0xfc) 0xa3-0xa4 (1)
0xa0|            0f                                 |    .           |                    p_opcode: "table.grow" (15) 0xa4-0xa5 (1)
0xa0|               00                              |     .          |                    x: 0 (valid) 0xa5-0xa6 (1)
    |                                               |                |                  [3]{}: in 0xa6-0xa7 (1)
0xa0|                  1a                           |      .         |                    opcode: "drop" (0x1a) 0xa6-0xa7 (1)
    |                                               |                |                  [4]{}: in 0xa7-0xa8 (1)
0xa0|                     0b                        |       .        |                    opcode: "end" (0xb) 0xa7-0xa8 (1)
    |                                               |                |            [5]{}: code 0xa8-0xb3 (11)
0xa0|                        0a                     |        .       |              size: 10 (valid) 0xa8-0xa9 (1)
    |                                               |                |              code{}: 0xa9-0xb3 (10)
    |                                               |                |                t{}: 0xa9-0xaa (1)
0xa0|                           00                  |         .      |                  n: 0 (valid) 0xa9-0xaa (1)
    |                                               |                |                  x[0:0]: 0xaa-0xaa (0)
    |                                               |                |                e[0:5]: 0xaa-0xb3 (9)
    |                                               |                |                  [0]{}: in 0xaa-0xac (2)
0xa0|                              d0               |          .     |                    opcode: "ref.null" (0xd0) 0xaa-0xab (1)
0xa0|                                 6f            |           o    |                    t: "externref" (111) 0xab-0xac (1)
    |                                               |                |                  [1]{}: in 0xac-0xae (2)
0xa0|                                    20         |                |                    opcode: "local.get" (0x20) 0xac-0xad (1)
0xa0|                                       00      |             .  |                    x: 0 (valid) 0xad-0xae (1)
    |                                               |                |                  [2]{}: in 0xae-0xb1 (3)
0xa0|                                          fc   |              . |                    opcode: "prefix" (0xfc) 0xae-0xaf (1)
0xa0|                                             0f|               .|                    p_opcode: "table.grow" (15) 0xaf-0xb0 (1)
0xb0|01                                             |.               |                    x: 1 (valid) 0xb0-0xb1 (1)
    |                                               |                |                  [3]{}: in 0xb1-0xb2 (1)
0xb0|   1a                                          | .              |                    opcode: "drop" (0x1a) 0xb1-0xb2 (1)
    |                                               |                |                  [4]{}: in 0xb2-0xb3 (1)
0xb0|      0b                                       |  .             |                    opcode: "end" (0xb) 0xb2-0xb3 (1)
    |                                               |                |            [6]{}: code 0xb3-0xbe (11)
0xb0|         0a                                    |   .            |              size: 10 (valid) 0xb3-0xb4 (1)
    |                                               |                |              code{}: 0xb4-0xbe (10)
    |                                               |                |                t{}: 0xb4-0xb5 (1)
0xb0|            00                                 |    .           |                  n: 0 (valid) 0xb4-0xb5 (1)
    |                                               |                |                  x[0:0]: 0xb5-0xb5 (0)
    |                                               |                |                e[0:5]: 0xb5-0xbe (9)
    |                                               |                |                  [0]{}: in 0xb5-0xb7 (2)
0xb0|               d0                              |     .          |                    opcode: "ref.null" (0xd0) 0xb5-0xb6 (1)
0xb0|                  6f                           |      o         |                    t: "externref" (111) 0xb6-0xb7 (1)
    |                                               |                |                  [1]{}: in 0xb7-0xb9 (2)
0xb0|                     20                        |                |                    opcode: "local.get" (0x20) 0xb7-0xb8 (1)
0xb0|                        00                     |        .       |                    x: 0 (valid) 0xb8-0xb9 (1)
    |                                               |                |                  [2]{}: in 0xb9-0xbc (3)
0xb0|                           fc                  |         .      |                    opcode: "prefix" (0xfc) 0xb9-0xba (1)
0xb0|                              0f               |          .     |                    p_opcode: "table.grow" (15) 0xba-0xbb (1)
0xb0|                                 02            |           .    |                    x: 2 (valid) 0xbb-0xbc (1)
    |                                               |                |                  [3]{}: in 0xbc-0xbd (1)
0xb0|                                    1a         |            .   |                    opcode: "drop" (0x1a) 0xbc-0xbd (1)
    |                                               |                |                  [4]{}: in 0xbd-0xbe (1)
0xb0|                                       0b      |             .  |                    opcode: "end" (0xb) 0xbd-0xbe (1)
    |                                               |                |            [7]{}: code 0xbe-0xc9 (11)
0xb0|                                          0a   |              . |              size: 10 (valid) 0xbe-0xbf (1)
    |                                               |                |              code{}: 0xbf-0xc9 (10)
    |                                               |                |                t{}: 0xbf-0xc0 (1)
0xb0|                                             00|               .|                  n: 0 (valid) 0xbf-0xc0 (1)
    |                                               |                |                  x[0:0]: 0xc0-0xc0 (0)
    |                                               |                |                e[0:5]: 0xc0-0xc9 (9)
    |                                               |                |                  [0]{}: in 0xc0-0xc2 (2)
0xc0|d0                                             |.               |                    opcode: "ref.null" (0xd0) 0xc0-0xc1 (1)
0xc0|   6f                                          | o              |                    t: "externref" (111) 0xc1-0xc2 (1)
    |                                               |                |                  [1]{}: in 0xc2-0xc4 (2)
0xc0|      20                                       |                |                    opcode: "local.get" (0x20) 0xc2-0xc3 (1)
0xc0|         00                                    |   .            |                    x: 0 (valid) 0xc3-0xc4 (1)
    |                                               |                |                  [2]{}: in 0xc4-0xc7 (3)
0xc0|            fc                                 |    .           |                    opcode: "prefix" (0xfc) 0xc4-0xc5 (1)
0xc0|               0f                              |     .          |                    p_opcode: "table.grow" (15) 0xc5-0xc6 (1)
0xc0|                  03                           |      .         |                    x: 3 (valid) 0xc6-0xc7 (1)
    |                                               |                |                  [3]{}: in 0xc7-0xc8 (1)
0xc0|                     1a                        |       .        |                    opcode: "drop" (0x1a) 0xc7-0xc8 (1)
    |                                               |                |                  [4]{}: in 0xc8-0xc9 (1)
0xc0|                        0b|                    |        .|      |                    opcode: "end" (0xb) 0xc8-0xc9 (1)
