$ fq -d wasm dv table_copy-49.wasm
     |00 01 02 03 04 05 06 07 08 09 0a 0b 0c 0d 0e 0f|0123456789abcdef|.{}: table_copy-49.wasm (wasm) 0x0-0x116.7 (279)
0x000|00 61 73 6d                                    |.asm            |  magic: raw bits (valid) 0x0-0x3.7 (4)
0x000|            01 00 00 00                        |    ....        |  version: 1 0x4-0x7.7 (4)
     |                                               |                |  sections[0:6]: 0x8-0x116.7 (271)
     |                                               |                |    [0]{}: section 0x8-0x19.7 (18)
0x000|                        01                     |        .       |      id: "type section" (1) 0x8-0x8.7 (1)
0x000|                           10                  |         .      |      size: 16 0x9-0x9.7 (1)
     |                                               |                |      content{}: 0xa-0x19.7 (16)
     |                                               |                |        ft{}: 0xa-0x19.7 (16)
0x000|                              03               |          .     |          n: 3 0xa-0xa.7 (1)
     |                                               |                |          x[0:3]: 0xb-0x19.7 (15)
     |                                               |                |            [0]{}: ft 0xb-0xe.7 (4)
0x000|                                 60            |           `    |              tag: 0x60 (valid) 0xb-0xb.7 (1)
     |                                               |                |              rt1{}: 0xc-0xc.7 (1)
0x000|                                    00         |            .   |                n: 0 0xc-0xc.7 (1)
     |                                               |                |                x[0:0]: 0xd-NA (0)
     |                                               |                |              rt2{}: 0xd-0xe.7 (2)
0x000|                                       01      |             .  |                n: 1 0xd-0xd.7 (1)
     |                                               |                |                x[0:1]: 0xe-0xe.7 (1)
0x000|                                          7f   |              . |                  [0]: "i32" (0x7f) t 0xe-0xe.7 (1)
     |                                               |                |            [1]{}: ft 0xf-0x13.7 (5)
0x000|                                             60|               `|              tag: 0x60 (valid) 0xf-0xf.7 (1)
     |                                               |                |              rt1{}: 0x10-0x11.7 (2)
0x010|01                                             |.               |                n: 1 0x10-0x10.7 (1)
     |                                               |                |                x[0:1]: 0x11-0x11.7 (1)
0x010|   7f                                          | .              |                  [0]: "i32" (0x7f) t 0x11-0x11.7 (1)
     |                                               |                |              rt2{}: 0x12-0x13.7 (2)
0x010|      01                                       |  .             |                n: 1 0x12-0x12.7 (1)
     |                                               |                |                x[0:1]: 0x13-0x13.7 (1)
0x010|         7f                                    |   .            |                  [0]: "i32" (0x7f) t 0x13-0x13.7 (1)
     |                                               |                |            [2]{}: ft 0x14-0x19.7 (6)
0x010|            60                                 |    `           |              tag: 0x60 (valid) 0x14-0x14.7 (1)
     |                                               |                |              rt1{}: 0x15-0x18.7 (4)
0x010|               03                              |     .          |                n: 3 0x15-0x15.7 (1)
     |                                               |                |                x[0:3]: 0x16-0x18.7 (3)
0x010|                  7f                           |      .         |                  [0]: "i32" (0x7f) t 0x16-0x16.7 (1)
0x010|                     7f                        |       .        |                  [1]: "i32" (0x7f) t 0x17-0x17.7 (1)
0x010|                        7f                     |        .       |                  [2]: "i32" (0x7f) t 0x18-0x18.7 (1)
     |                                               |                |              rt2{}: 0x19-0x19.7 (1)
0x010|                           00                  |         .      |                n: 0 0x19-0x19.7 (1)
     |                                               |                |                x[0:0]: 0x1a-NA (0)
     |                                               |                |    [1]{}: section 0x1a-0x2e.7 (21)
0x010|                              03               |          .     |      id: "function section" (3) 0x1a-0x1a.7 (1)
0x010|                                 13            |           .    |      size: 19 0x1b-0x1b.7 (1)
     |                                               |                |      content{}: 0x1c-0x2e.7 (19)
     |                                               |                |        x{}: 0x1c-0x2e.7 (19)
0x010|                                    12         |            .   |          n: 18 0x1c-0x1c.7 (1)
     |                                               |                |          x[0:18]: 0x1d-0x2e.7 (18)
0x010|                                       00      |             .  |            [0]: 0 x 0x1d-0x1d.7 (1)
0x010|                                          00   |              . |            [1]: 0 x 0x1e-0x1e.7 (1)
0x010|                                             00|               .|            [2]: 0 x 0x1f-0x1f.7 (1)
0x020|00                                             |.               |            [3]: 0 x 0x20-0x20.7 (1)
0x020|   00                                          | .              |            [4]: 0 x 0x21-0x21.7 (1)
0x020|      00                                       |  .             |            [5]: 0 x 0x22-0x22.7 (1)
0x020|         00                                    |   .            |            [6]: 0 x 0x23-0x23.7 (1)
0x020|            00                                 |    .           |            [7]: 0 x 0x24-0x24.7 (1)
0x020|               00                              |     .          |            [8]: 0 x 0x25-0x25.7 (1)
0x020|                  00                           |      .         |            [9]: 0 x 0x26-0x26.7 (1)
0x020|                     00                        |       .        |            [10]: 0 x 0x27-0x27.7 (1)
0x020|                        00                     |        .       |            [11]: 0 x 0x28-0x28.7 (1)
0x020|                           00                  |         .      |            [12]: 0 x 0x29-0x29.7 (1)
0x020|                              00               |          .     |            [13]: 0 x 0x2a-0x2a.7 (1)
0x020|                                 00            |           .    |            [14]: 0 x 0x2b-0x2b.7 (1)
0x020|                                    00         |            .   |            [15]: 0 x 0x2c-0x2c.7 (1)
0x020|                                       01      |             .  |            [16]: 1 x 0x2d-0x2d.7 (1)
0x020|                                          02   |              . |            [17]: 2 x 0x2e-0x2e.7 (1)
     |                                               |                |    [2]{}: section 0x2f-0x35.7 (7)
0x020|                                             04|               .|      id: "table section" (4) 0x2f-0x2f.7 (1)
0x030|05                                             |.               |      size: 5 0x30-0x30.7 (1)
     |                                               |                |      content{}: 0x31-0x35.7 (5)
     |                                               |                |        tab{}: 0x31-0x35.7 (5)
0x030|   01                                          | .              |          n: 1 0x31-0x31.7 (1)
     |                                               |                |          x[0:1]: 0x32-0x35.7 (4)
     |                                               |                |            [0]{}: tab 0x32-0x35.7 (4)
0x030|      70                                       |  p             |              et: "funcref" (112) 0x32-0x32.7 (1)
     |                                               |                |              lim{}: 0x33-0x35.7 (3)
0x030|         01                                    |   .            |                tag: 0x1 0x33-0x33.7 (1)
0x030|            20                                 |                |                n: 32 0x34-0x34.7 (1)
0x030|               40                              |     @          |                m: 64 0x35-0x35.7 (1)
     |                                               |                |    [3]{}: section 0x36-0x9b.7 (102)
0x030|                  07                           |      .         |      id: "export section" (7) 0x36-0x36.7 (1)
0x030|                     64                        |       d        |      size: 100 0x37-0x37.7 (1)
     |                                               |                |      content{}: 0x38-0x9b.7 (100)
     |                                               |                |        ex{}: 0x38-0x9b.7 (100)
0x030|                        12                     |        .       |          n: 18 0x38-0x38.7 (1)
     |                                               |                |          x[0:18]: 0x39-0x9b.7 (99)
     |                                               |                |            [0]{}: ex 0x39-0x3d.7 (5)
     |                                               |                |              nm{}: 0x39-0x3b.7 (3)
0x030|                           02                  |         .      |                n: 2 0x39-0x39.7 (1)
0x030|                              66 30            |          f0    |                b: "f0" 0x3a-0x3b.7 (2)
     |                                               |                |              d{}: 0x3c-0x3d.7 (2)
0x030|                                    00         |            .   |                tag: "funcidx" (0x0) 0x3c-0x3c.7 (1)
0x030|                                       00      |             .  |                x: 0 0x3d-0x3d.7 (1)
     |                                               |                |            [1]{}: ex 0x3e-0x42.7 (5)
     |                                               |                |              nm{}: 0x3e-0x40.7 (3)
0x030|                                          02   |              . |                n: 2 0x3e-0x3e.7 (1)
0x030|                                             66|               f|                b: "f1" 0x3f-0x40.7 (2)
0x040|31                                             |1               |
     |                                               |                |              d{}: 0x41-0x42.7 (2)
0x040|   00                                          | .              |                tag: "funcidx" (0x0) 0x41-0x41.7 (1)
0x040|      01                                       |  .             |                x: 1 0x42-0x42.7 (1)
     |                                               |                |            [2]{}: ex 0x43-0x47.7 (5)
     |                                               |                |              nm{}: 0x43-0x45.7 (3)
0x040|         02                                    |   .            |                n: 2 0x43-0x43.7 (1)
0x040|            66 32                              |    f2          |                b: "f2" 0x44-0x45.7 (2)
     |                                               |                |              d{}: 0x46-0x47.7 (2)
0x040|                  00                           |      .         |                tag: "funcidx" (0x0) 0x46-0x46.7 (1)
0x040|                     02                        |       .        |                x: 2 0x47-0x47.7 (1)
     |                                               |                |            [3]{}: ex 0x48-0x4c.7 (5)
     |                                               |                |              nm{}: 0x48-0x4a.7 (3)
0x040|                        02                     |        .       |                n: 2 0x48-0x48.7 (1)
0x040|                           66 33               |         f3     |                b: "f3" 0x49-0x4a.7 (2)
     |                                               |                |              d{}: 0x4b-0x4c.7 (2)
0x040|                                 00            |           .    |                tag: "funcidx" (0x0) 0x4b-0x4b.7 (1)
0x040|                                    03         |            .   |                x: 3 0x4c-0x4c.7 (1)
     |                                               |                |            [4]{}: ex 0x4d-0x51.7 (5)
     |                                               |                |              nm{}: 0x4d-0x4f.7 (3)
0x040|                                       02      |             .  |                n: 2 0x4d-0x4d.7 (1)
0x040|                                          66 34|              f4|                b: "f4" 0x4e-0x4f.7 (2)
     |                                               |                |              d{}: 0x50-0x51.7 (2)
0x050|00                                             |.               |                tag: "funcidx" (0x0) 0x50-0x50.7 (1)
0x050|   04                                          | .              |                x: 4 0x51-0x51.7 (1)
     |                                               |                |            [5]{}: ex 0x52-0x56.7 (5)
     |                                               |                |              nm{}: 0x52-0x54.7 (3)
0x050|      02                                       |  .             |                n: 2 0x52-0x52.7 (1)
0x050|         66 35                                 |   f5           |                b: "f5" 0x53-0x54.7 (2)
     |                                               |                |              d{}: 0x55-0x56.7 (2)
0x050|               00                              |     .          |                tag: "funcidx" (0x0) 0x55-0x55.7 (1)
0x050|                  05                           |      .         |                x: 5 0x56-0x56.7 (1)
     |                                               |                |            [6]{}: ex 0x57-0x5b.7 (5)
     |                                               |                |              nm{}: 0x57-0x59.7 (3)
0x050|                     02                        |       .        |                n: 2 0x57-0x57.7 (1)
0x050|                        66 36                  |        f6      |                b: "f6" 0x58-0x59.7 (2)
     |                                               |                |              d{}: 0x5a-0x5b.7 (2)
0x050|                              00               |          .     |                tag: "funcidx" (0x0) 0x5a-0x5a.7 (1)
0x050|                                 06            |           .    |                x: 6 0x5b-0x5b.7 (1)
     |                                               |                |            [7]{}: ex 0x5c-0x60.7 (5)
     |                                               |                |              nm{}: 0x5c-0x5e.7 (3)
0x050|                                    02         |            .   |                n: 2 0x5c-0x5c.7 (1)
0x050|                                       66 37   |             f7 |                b: "f7" 0x5d-0x5e.7 (2)
     |                                               |                |              d{}: 0x5f-0x60.7 (2)
0x050|                                             00|               .|                tag: "funcidx" (0x0) 0x5f-0x5f.7 (1)
0x060|07                                             |.               |                x: 7 0x60-0x60.7 (1)
     |                                               |                |            [8]{}: ex 0x61-0x65.7 (5)
     |                                               |                |              nm{}: 0x61-0x63.7 (3)
0x060|   02                                          | .              |                n: 2 0x61-0x61.7 (1)
0x060|      66 38                                    |  f8            |                b: "f8" 0x62-0x63.7 (2)
     |                                               |                |              d{}: 0x64-0x65.7 (2)
0x060|            00                                 |    .           |                tag: "funcidx" (0x0) 0x64-0x64.7 (1)
0x060|               08                              |     .          |                x: 8 0x65-0x65.7 (1)
     |                                               |                |            [9]{}: ex 0x66-0x6a.7 (5)
     |                                               |                |              nm{}: 0x66-0x68.7 (3)
0x060|                  02                           |      .         |                n: 2 0x66-0x66.7 (1)
0x060|                     66 39                     |       f9       |                b: "f9" 0x67-0x68.7 (2)
     |                                               |                |              d{}: 0x69-0x6a.7 (2)
0x060|                           00                  |         .      |                tag: "funcidx" (0x0) 0x69-0x69.7 (1)
0x060|                              09               |          .     |                x: 9 0x6a-0x6a.7 (1)
     |                                               |                |            [10]{}: ex 0x6b-0x70.7 (6)
     |                                               |                |              nm{}: 0x6b-0x6e.7 (4)
0x060|                                 03            |           .    |                n: 3 0x6b-0x6b.7 (1)
0x060|                                    66 31 30   |            f10 |                b: "f10" 0x6c-0x6e.7 (3)
     |                                               |                |              d{}: 0x6f-0x70.7 (2)
0x060|                                             00|               .|                tag: "funcidx" (0x0) 0x6f-0x6f.7 (1)
0x070|0a                                             |.               |                x: 10 0x70-0x70.7 (1)
     |                                               |                |            [11]{}: ex 0x71-0x76.7 (6)
     |                                               |                |              nm{}: 0x71-0x74.7 (4)
0x070|   03                                          | .              |                n: 3 0x71-0x71.7 (1)
0x070|      66 31 31                                 |  f11           |                b: "f11" 0x72-0x74.7 (3)
     |                                               |                |              d{}: 0x75-0x76.7 (2)
0x070|               00                              |     .          |                tag: "funcidx" (0x0) 0x75-0x75.7 (1)
0x070|                  0b                           |      .         |                x: 11 0x76-0x76.7 (1)
     |                                               |                |            [12]{}: ex 0x77-0x7c.7 (6)
     |                                               |                |              nm{}: 0x77-0x7a.7 (4)
0x070|                     03                        |       .        |                n: 3 0x77-0x77.7 (1)
0x070|                        66 31 32               |        f12     |                b: "f12" 0x78-0x7a.7 (3)
     |                                               |                |              d{}: 0x7b-0x7c.7 (2)
0x070|                                 00            |           .    |                tag: "funcidx" (0x0) 0x7b-0x7b.7 (1)
0x070|                                    0c         |            .   |                x: 12 0x7c-0x7c.7 (1)
     |                                               |                |            [13]{}: ex 0x7d-0x82.7 (6)
     |                                               |                |              nm{}: 0x7d-0x80.7 (4)
0x070|                                       03      |             .  |                n: 3 0x7d-0x7d.7 (1)
0x070|                                          66 31|              f1|                b: "f13" 0x7e-0x80.7 (3)
0x080|33                                             |3               |
     |                                               |                |              d{}: 0x81-0x82.7 (2)
0x080|   00                                          | .              |                tag: "funcidx" (0x0) 0x81-0x81.7 (1)
0x080|      0d                                       |  .             |                x: 13 0x82-0x82.7 (1)
     |                                               |                |            [14]{}: ex 0x83-0x88.7 (6)
     |                                               |                |              nm{}: 0x83-0x86.7 (4)
0x080|         03                                    |   .            |                n: 3 0x83-0x83.7 (1)
0x080|            66 31 34                           |    f14         |                b: "f14" 0x84-0x86.7 (3)
     |                                               |                |              d{}: 0x87-0x88.7 (2)
0x080|                     00                        |       .        |                tag: "funcidx" (0x0) 0x87-0x87.7 (1)
0x080|                        0e                     |        .       |                x: 14 0x88-0x88.7 (1)
     |                                               |                |            [15]{}: ex 0x89-0x8e.7 (6)
     |                                               |                |              nm{}: 0x89-0x8c.7 (4)
0x080|                           03                  |         .      |                n: 3 0x89-0x89.7 (1)
0x080|                              66 31 35         |          f15   |                b: "f15" 0x8a-0x8c.7 (3)
     |                                               |                |              d{}: 0x8d-0x8e.7 (2)
0x080|                                       00      |             .  |                tag: "funcidx" (0x0) 0x8d-0x8d.7 (1)
0x080|                                          0f   |              . |                x: 15 0x8e-0x8e.7 (1)
     |                                               |                |            [16]{}: ex 0x8f-0x95.7 (7)
     |                                               |                |              nm{}: 0x8f-0x93.7 (5)
0x080|                                             04|               .|                n: 4 0x8f-0x8f.7 (1)
0x090|74 65 73 74                                    |test            |                b: "test" 0x90-0x93.7 (4)
     |                                               |                |              d{}: 0x94-0x95.7 (2)
0x090|            00                                 |    .           |                tag: "funcidx" (0x0) 0x94-0x94.7 (1)
0x090|               10                              |     .          |                x: 16 0x95-0x95.7 (1)
     |                                               |                |            [17]{}: ex 0x96-0x9b.7 (6)
     |                                               |                |              nm{}: 0x96-0x99.7 (4)
0x090|                  03                           |      .         |                n: 3 0x96-0x96.7 (1)
0x090|                     72 75 6e                  |       run      |                b: "run" 0x97-0x99.7 (3)
     |                                               |                |              d{}: 0x9a-0x9b.7 (2)
0x090|                              00               |          .     |                tag: "funcidx" (0x0) 0x9a-0x9a.7 (1)
0x090|                                 11            |           .    |                x: 17 0x9b-0x9b.7 (1)
     |                                               |                |    [4]{}: section 0x9c-0xae.7 (19)
0x090|                                    09         |            .   |      id: "element section" (9) 0x9c-0x9c.7 (1)
0x090|                                       11      |             .  |      size: 17 0x9d-0x9d.7 (1)
     |                                               |                |      element{}: 0x9e-0xae.7 (17)
     |                                               |                |        seg{}: 0x9e-0xae.7 (17)
0x090|                                          01   |              . |          n: 1 0x9e-0x9e.7 (1)
     |                                               |                |          x[0:1]: 0x9f-0xae.7 (16)
     |                                               |                |            [0]{}: seg 0x9f-0xae.7 (16)
0x090|                                             00|               .|              tag: 0 0x9f-0x9f.7 (1)
     |                                               |                |              e[0:2]: 0xa0-0xa2.7 (3)
     |                                               |                |                [0]{}: in 0xa0-0xa1.7 (2)
0x0a0|41                                             |A               |                  i32.const: 0x41 (valid) 0xa0-0xa0.7 (1)
0x0a0|   15                                          | .              |                  n: 21 0xa1-0xa1.7 (1)
     |                                               |                |                [1]{}: in 0xa2-0xa2.7 (1)
0x0a0|      0b                                       |  .             |                  end: 0xb (valid) 0xa2-0xa2.7 (1)
     |                                               |                |              y{}: 0xa3-0xae.7 (12)
0x0a0|         0b                                    |   .            |                n: 11 0xa3-0xa3.7 (1)
     |                                               |                |                x[0:11]: 0xa4-0xae.7 (11)
0x0a0|            00                                 |    .           |                  [0]: 0 y 0xa4-0xa4.7 (1)
0x0a0|               01                              |     .          |                  [1]: 1 y 0xa5-0xa5.7 (1)
0x0a0|                  02                           |      .         |                  [2]: 2 y 0xa6-0xa6.7 (1)
0x0a0|                     03                        |       .        |                  [3]: 3 y 0xa7-0xa7.7 (1)
0x0a0|                        04                     |        .       |                  [4]: 4 y 0xa8-0xa8.7 (1)
0x0a0|                           05                  |         .      |                  [5]: 5 y 0xa9-0xa9.7 (1)
0x0a0|                              06               |          .     |                  [6]: 6 y 0xaa-0xaa.7 (1)
0x0a0|                                 07            |           .    |                  [7]: 7 y 0xab-0xab.7 (1)
0x0a0|                                    08         |            .   |                  [8]: 8 y 0xac-0xac.7 (1)
0x0a0|                                       09      |             .  |                  [9]: 9 y 0xad-0xad.7 (1)
0x0a0|                                          0a   |              . |                  [10]: 10 y 0xae-0xae.7 (1)
     |                                               |                |    [5]{}: section 0xaf-0x116.7 (104)
0x0a0|                                             0a|               .|      id: "code section" (10) 0xaf-0xaf.7 (1)
0x0b0|66                                             |f               |      size: 102 0xb0-0xb0.7 (1)
     |                                               |                |      content{}: 0xb1-0x116.7 (102)
     |                                               |                |        code{}: 0xb1-0x116.7 (102)
0x0b0|   12                                          | .              |          n: 18 0xb1-0xb1.7 (1)
     |                                               |                |          x[0:18]: 0xb2-0x116.7 (101)
     |                                               |                |            [0]{}: code 0xb2-0xb6.7 (5)
0x0b0|      04                                       |  .             |              size: 4 0xb2-0xb2.7 (1)
     |                                               |                |              code{}: 0xb3-0xb6.7 (4)
     |                                               |                |                t{}: 0xb3-0xb3.7 (1)
0x0b0|         00                                    |   .            |                  n: 0 0xb3-0xb3.7 (1)
     |                                               |                |                  x[0:0]: 0xb4-NA (0)
     |                                               |                |                e[0:2]: 0xb4-0xb6.7 (3)
     |                                               |                |                  [0]{}: in 0xb4-0xb5.7 (2)
0x0b0|            41                                 |    A           |                    i32.const: 0x41 (valid) 0xb4-0xb4.7 (1)
0x0b0|               00                              |     .          |                    n: 0 0xb5-0xb5.7 (1)
     |                                               |                |                  [1]{}: in 0xb6-0xb6.7 (1)
0x0b0|                  0b                           |      .         |                    end: 0xb (valid) 0xb6-0xb6.7 (1)
     |                                               |                |            [1]{}: code 0xb7-0xbb.7 (5)
0x0b0|                     04                        |       .        |              size: 4 0xb7-0xb7.7 (1)
     |                                               |                |              code{}: 0xb8-0xbb.7 (4)
     |                                               |                |                t{}: 0xb8-0xb8.7 (1)
0x0b0|                        00                     |        .       |                  n: 0 0xb8-0xb8.7 (1)
     |                                               |                |                  x[0:0]: 0xb9-NA (0)
     |                                               |                |                e[0:2]: 0xb9-0xbb.7 (3)
     |                                               |                |                  [0]{}: in 0xb9-0xba.7 (2)
0x0b0|                           41                  |         A      |                    i32.const: 0x41 (valid) 0xb9-0xb9.7 (1)
0x0b0|                              01               |          .     |                    n: 1 0xba-0xba.7 (1)
     |                                               |                |                  [1]{}: in 0xbb-0xbb.7 (1)
0x0b0|                                 0b            |           .    |                    end: 0xb (valid) 0xbb-0xbb.7 (1)
     |                                               |                |            [2]{}: code 0xbc-0xc0.7 (5)
0x0b0|                                    04         |            .   |              size: 4 0xbc-0xbc.7 (1)
     |                                               |                |              code{}: 0xbd-0xc0.7 (4)
     |                                               |                |                t{}: 0xbd-0xbd.7 (1)
0x0b0|                                       00      |             .  |                  n: 0 0xbd-0xbd.7 (1)
     |                                               |                |                  x[0:0]: 0xbe-NA (0)
     |                                               |                |                e[0:2]: 0xbe-0xc0.7 (3)
     |                                               |                |                  [0]{}: in 0xbe-0xbf.7 (2)
0x0b0|                                          41   |              A |                    i32.const: 0x41 (valid) 0xbe-0xbe.7 (1)
0x0b0|                                             02|               .|                    n: 2 0xbf-0xbf.7 (1)
     |                                               |                |                  [1]{}: in 0xc0-0xc0.7 (1)
0x0c0|0b                                             |.               |                    end: 0xb (valid) 0xc0-0xc0.7 (1)
     |                                               |                |            [3]{}: code 0xc1-0xc5.7 (5)
0x0c0|   04                                          | .              |              size: 4 0xc1-0xc1.7 (1)
     |                                               |                |              code{}: 0xc2-0xc5.7 (4)
     |                                               |                |                t{}: 0xc2-0xc2.7 (1)
0x0c0|      00                                       |  .             |                  n: 0 0xc2-0xc2.7 (1)
     |                                               |                |                  x[0:0]: 0xc3-NA (0)
     |                                               |                |                e[0:2]: 0xc3-0xc5.7 (3)
     |                                               |                |                  [0]{}: in 0xc3-0xc4.7 (2)
0x0c0|         41                                    |   A            |                    i32.const: 0x41 (valid) 0xc3-0xc3.7 (1)
0x0c0|            03                                 |    .           |                    n: 3 0xc4-0xc4.7 (1)
     |                                               |                |                  [1]{}: in 0xc5-0xc5.7 (1)
0x0c0|               0b                              |     .          |                    end: 0xb (valid) 0xc5-0xc5.7 (1)
     |                                               |                |            [4]{}: code 0xc6-0xca.7 (5)
0x0c0|                  04                           |      .         |              size: 4 0xc6-0xc6.7 (1)
     |                                               |                |              code{}: 0xc7-0xca.7 (4)
     |                                               |                |                t{}: 0xc7-0xc7.7 (1)
0x0c0|                     00                        |       .        |                  n: 0 0xc7-0xc7.7 (1)
     |                                               |                |                  x[0:0]: 0xc8-NA (0)
     |                                               |                |                e[0:2]: 0xc8-0xca.7 (3)
     |                                               |                |                  [0]{}: in 0xc8-0xc9.7 (2)
0x0c0|                        41                     |        A       |                    i32.const: 0x41 (valid) 0xc8-0xc8.7 (1)
0x0c0|                           04                  |         .      |                    n: 4 0xc9-0xc9.7 (1)
     |                                               |                |                  [1]{}: in 0xca-0xca.7 (1)
0x0c0|                              0b               |          .     |                    end: 0xb (valid) 0xca-0xca.7 (1)
     |                                               |                |            [5]{}: code 0xcb-0xcf.7 (5)
0x0c0|                                 04            |           .    |              size: 4 0xcb-0xcb.7 (1)
     |                                               |                |              code{}: 0xcc-0xcf.7 (4)
     |                                               |                |                t{}: 0xcc-0xcc.7 (1)
0x0c0|                                    00         |            .   |                  n: 0 0xcc-0xcc.7 (1)
     |                                               |                |                  x[0:0]: 0xcd-NA (0)
     |                                               |                |                e[0:2]: 0xcd-0xcf.7 (3)
     |                                               |                |                  [0]{}: in 0xcd-0xce.7 (2)
0x0c0|                                       41      |             A  |                    i32.const: 0x41 (valid) 0xcd-0xcd.7 (1)
0x0c0|                                          05   |              . |                    n: 5 0xce-0xce.7 (1)
     |                                               |                |                  [1]{}: in 0xcf-0xcf.7 (1)
0x0c0|                                             0b|               .|                    end: 0xb (valid) 0xcf-0xcf.7 (1)
     |                                               |                |            [6]{}: code 0xd0-0xd4.7 (5)
0x0d0|04                                             |.               |              size: 4 0xd0-0xd0.7 (1)
     |                                               |                |              code{}: 0xd1-0xd4.7 (4)
     |                                               |                |                t{}: 0xd1-0xd1.7 (1)
0x0d0|   00                                          | .              |                  n: 0 0xd1-0xd1.7 (1)
     |                                               |                |                  x[0:0]: 0xd2-NA (0)
     |                                               |                |                e[0:2]: 0xd2-0xd4.7 (3)
     |                                               |                |                  [0]{}: in 0xd2-0xd3.7 (2)
0x0d0|      41                                       |  A             |                    i32.const: 0x41 (valid) 0xd2-0xd2.7 (1)
0x0d0|         06                                    |   .            |                    n: 6 0xd3-0xd3.7 (1)
     |                                               |                |                  [1]{}: in 0xd4-0xd4.7 (1)
0x0d0|            0b                                 |    .           |                    end: 0xb (valid) 0xd4-0xd4.7 (1)
     |                                               |                |            [7]{}: code 0xd5-0xd9.7 (5)
0x0d0|               04                              |     .          |              size: 4 0xd5-0xd5.7 (1)
     |                                               |                |              code{}: 0xd6-0xd9.7 (4)
     |                                               |                |                t{}: 0xd6-0xd6.7 (1)
0x0d0|                  00                           |      .         |                  n: 0 0xd6-0xd6.7 (1)
     |                                               |                |                  x[0:0]: 0xd7-NA (0)
     |                                               |                |                e[0:2]: 0xd7-0xd9.7 (3)
     |                                               |                |                  [0]{}: in 0xd7-0xd8.7 (2)
0x0d0|                     41                        |       A        |                    i32.const: 0x41 (valid) 0xd7-0xd7.7 (1)
0x0d0|                        07                     |        .       |                    n: 7 0xd8-0xd8.7 (1)
     |                                               |                |                  [1]{}: in 0xd9-0xd9.7 (1)
0x0d0|                           0b                  |         .      |                    end: 0xb (valid) 0xd9-0xd9.7 (1)
     |                                               |                |            [8]{}: code 0xda-0xde.7 (5)
0x0d0|                              04               |          .     |              size: 4 0xda-0xda.7 (1)
     |                                               |                |              code{}: 0xdb-0xde.7 (4)
     |                                               |                |                t{}: 0xdb-0xdb.7 (1)
0x0d0|                                 00            |           .    |                  n: 0 0xdb-0xdb.7 (1)
     |                                               |                |                  x[0:0]: 0xdc-NA (0)
     |                                               |                |                e[0:2]: 0xdc-0xde.7 (3)
     |                                               |                |                  [0]{}: in 0xdc-0xdd.7 (2)
0x0d0|                                    41         |            A   |                    i32.const: 0x41 (valid) 0xdc-0xdc.7 (1)
0x0d0|                                       08      |             .  |                    n: 8 0xdd-0xdd.7 (1)
     |                                               |                |                  [1]{}: in 0xde-0xde.7 (1)
0x0d0|                                          0b   |              . |                    end: 0xb (valid) 0xde-0xde.7 (1)
     |                                               |                |            [9]{}: code 0xdf-0xe3.7 (5)
0x0d0|                                             04|               .|              size: 4 0xdf-0xdf.7 (1)
     |                                               |                |              code{}: 0xe0-0xe3.7 (4)
     |                                               |                |                t{}: 0xe0-0xe0.7 (1)
0x0e0|00                                             |.               |                  n: 0 0xe0-0xe0.7 (1)
     |                                               |                |                  x[0:0]: 0xe1-NA (0)
     |                                               |                |                e[0:2]: 0xe1-0xe3.7 (3)
     |                                               |                |                  [0]{}: in 0xe1-0xe2.7 (2)
0x0e0|   41                                          | A              |                    i32.const: 0x41 (valid) 0xe1-0xe1.7 (1)
0x0e0|      09                                       |  .             |                    n: 9 0xe2-0xe2.7 (1)
     |                                               |                |                  [1]{}: in 0xe3-0xe3.7 (1)
0x0e0|         0b                                    |   .            |                    end: 0xb (valid) 0xe3-0xe3.7 (1)
     |                                               |                |            [10]{}: code 0xe4-0xe8.7 (5)
0x0e0|            04                                 |    .           |              size: 4 0xe4-0xe4.7 (1)
     |                                               |                |              code{}: 0xe5-0xe8.7 (4)
     |                                               |                |                t{}: 0xe5-0xe5.7 (1)
0x0e0|               00                              |     .          |                  n: 0 0xe5-0xe5.7 (1)
     |                                               |                |                  x[0:0]: 0xe6-NA (0)
     |                                               |                |                e[0:2]: 0xe6-0xe8.7 (3)
     |                                               |                |                  [0]{}: in 0xe6-0xe7.7 (2)
0x0e0|                  41                           |      A         |                    i32.const: 0x41 (valid) 0xe6-0xe6.7 (1)
0x0e0|                     0a                        |       .        |                    n: 10 0xe7-0xe7.7 (1)
     |                                               |                |                  [1]{}: in 0xe8-0xe8.7 (1)
0x0e0|                        0b                     |        .       |                    end: 0xb (valid) 0xe8-0xe8.7 (1)
     |                                               |                |            [11]{}: code 0xe9-0xed.7 (5)
0x0e0|                           04                  |         .      |              size: 4 0xe9-0xe9.7 (1)
     |                                               |                |              code{}: 0xea-0xed.7 (4)
     |                                               |                |                t{}: 0xea-0xea.7 (1)
0x0e0|                              00               |          .     |                  n: 0 0xea-0xea.7 (1)
     |                                               |                |                  x[0:0]: 0xeb-NA (0)
     |                                               |                |                e[0:2]: 0xeb-0xed.7 (3)
     |                                               |                |                  [0]{}: in 0xeb-0xec.7 (2)
0x0e0|                                 41            |           A    |                    i32.const: 0x41 (valid) 0xeb-0xeb.7 (1)
0x0e0|                                    0b         |            .   |                    n: 11 0xec-0xec.7 (1)
     |                                               |                |                  [1]{}: in 0xed-0xed.7 (1)
0x0e0|                                       0b      |             .  |                    end: 0xb (valid) 0xed-0xed.7 (1)
     |                                               |                |            [12]{}: code 0xee-0xf2.7 (5)
0x0e0|                                          04   |              . |              size: 4 0xee-0xee.7 (1)
     |                                               |                |              code{}: 0xef-0xf2.7 (4)
     |                                               |                |                t{}: 0xef-0xef.7 (1)
0x0e0|                                             00|               .|                  n: 0 0xef-0xef.7 (1)
     |                                               |                |                  x[0:0]: 0xf0-NA (0)
     |                                               |                |                e[0:2]: 0xf0-0xf2.7 (3)
     |                                               |                |                  [0]{}: in 0xf0-0xf1.7 (2)
0x0f0|41                                             |A               |                    i32.const: 0x41 (valid) 0xf0-0xf0.7 (1)
0x0f0|   0c                                          | .              |                    n: 12 0xf1-0xf1.7 (1)
     |                                               |                |                  [1]{}: in 0xf2-0xf2.7 (1)
0x0f0|      0b                                       |  .             |                    end: 0xb (valid) 0xf2-0xf2.7 (1)
     |                                               |                |            [13]{}: code 0xf3-0xf7.7 (5)
0x0f0|         04                                    |   .            |              size: 4 0xf3-0xf3.7 (1)
     |                                               |                |              code{}: 0xf4-0xf7.7 (4)
     |                                               |                |                t{}: 0xf4-0xf4.7 (1)
0x0f0|            00                                 |    .           |                  n: 0 0xf4-0xf4.7 (1)
     |                                               |                |                  x[0:0]: 0xf5-NA (0)
     |                                               |                |                e[0:2]: 0xf5-0xf7.7 (3)
     |                                               |                |                  [0]{}: in 0xf5-0xf6.7 (2)
0x0f0|               41                              |     A          |                    i32.const: 0x41 (valid) 0xf5-0xf5.7 (1)
0x0f0|                  0d                           |      .         |                    n: 13 0xf6-0xf6.7 (1)
     |                                               |                |                  [1]{}: in 0xf7-0xf7.7 (1)
0x0f0|                     0b                        |       .        |                    end: 0xb (valid) 0xf7-0xf7.7 (1)
     |                                               |                |            [14]{}: code 0xf8-0xfc.7 (5)
0x0f0|                        04                     |        .       |              size: 4 0xf8-0xf8.7 (1)
     |                                               |                |              code{}: 0xf9-0xfc.7 (4)
     |                                               |                |                t{}: 0xf9-0xf9.7 (1)
0x0f0|                           00                  |         .      |                  n: 0 0xf9-0xf9.7 (1)
     |                                               |                |                  x[0:0]: 0xfa-NA (0)
     |                                               |                |                e[0:2]: 0xfa-0xfc.7 (3)
     |                                               |                |                  [0]{}: in 0xfa-0xfb.7 (2)
0x0f0|                              41               |          A     |                    i32.const: 0x41 (valid) 0xfa-0xfa.7 (1)
0x0f0|                                 0e            |           .    |                    n: 14 0xfb-0xfb.7 (1)
     |                                               |                |                  [1]{}: in 0xfc-0xfc.7 (1)
0x0f0|                                    0b         |            .   |                    end: 0xb (valid) 0xfc-0xfc.7 (1)
     |                                               |                |            [15]{}: code 0xfd-0x101.7 (5)
0x0f0|                                       04      |             .  |              size: 4 0xfd-0xfd.7 (1)
     |                                               |                |              code{}: 0xfe-0x101.7 (4)
     |                                               |                |                t{}: 0xfe-0xfe.7 (1)
0x0f0|                                          00   |              . |                  n: 0 0xfe-0xfe.7 (1)
     |                                               |                |                  x[0:0]: 0xff-NA (0)
     |                                               |                |                e[0:2]: 0xff-0x101.7 (3)
     |                                               |                |                  [0]{}: in 0xff-0x100.7 (2)
0x0f0|                                             41|               A|                    i32.const: 0x41 (valid) 0xff-0xff.7 (1)
0x100|0f                                             |.               |                    n: 15 0x100-0x100.7 (1)
     |                                               |                |                  [1]{}: in 0x101-0x101.7 (1)
0x100|   0b                                          | .              |                    end: 0xb (valid) 0x101-0x101.7 (1)
     |                                               |                |            [16]{}: code 0x102-0x109.7 (8)
0x100|      07                                       |  .             |              size: 7 0x102-0x102.7 (1)
     |                                               |                |              code{}: 0x103-0x109.7 (7)
     |                                               |                |                t{}: 0x103-0x103.7 (1)
0x100|         00                                    |   .            |                  n: 0 0x103-0x103.7 (1)
     |                                               |                |                  x[0:0]: 0x104-NA (0)
     |                                               |                |                e[0:3]: 0x104-0x109.7 (6)
     |                                               |                |                  [0]{}: in 0x104-0x105.7 (2)
0x100|            20                                 |                |                    local.get: 0x20 (valid) 0x104-0x104.7 (1)
0x100|               00                              |     .          |                    x: 0 0x105-0x105.7 (1)
     |                                               |                |                  [1]{}: in 0x106-0x108.7 (3)
0x100|                  11                           |      .         |                    call: 0x11 (valid) 0x106-0x106.7 (1)
0x100|                     00                        |       .        |                    y: 0 0x107-0x107.7 (1)
0x100|                        00                     |        .       |                    x: 0 0x108-0x108.7 (1)
     |                                               |                |                  [2]{}: in 0x109-0x109.7 (1)
0x100|                           0b                  |         .      |                    end: 0xb (valid) 0x109-0x109.7 (1)
     |                                               |                |            [17]{}: code 0x10a-0x116.7 (13)
0x100|                              0c               |          .     |              size: 12 0x10a-0x10a.7 (1)
     |                                               |                |              code{}: 0x10b-0x116.7 (12)
     |                                               |                |                t{}: 0x10b-0x10b.7 (1)
0x100|                                 00            |           .    |                  n: 0 0x10b-0x10b.7 (1)
     |                                               |                |                  x[0:0]: 0x10c-NA (0)
     |                                               |                |                e[0:5]: 0x10c-0x116.7 (11)
     |                                               |                |                  [0]{}: in 0x10c-0x10d.7 (2)
0x100|                                    20         |                |                    local.get: 0x20 (valid) 0x10c-0x10c.7 (1)
0x100|                                       00      |             .  |                    x: 0 0x10d-0x10d.7 (1)
     |                                               |                |                  [1]{}: in 0x10e-0x10f.7 (2)
0x100|                                          20   |                |                    local.get: 0x20 (valid) 0x10e-0x10e.7 (1)
0x100|                                             01|               .|                    x: 1 0x10f-0x10f.7 (1)
     |                                               |                |                  [2]{}: in 0x110-0x111.7 (2)
0x110|20                                             |                |                    local.get: 0x20 (valid) 0x110-0x110.7 (1)
0x110|   02                                          | .              |                    x: 2 0x111-0x111.7 (1)
     |                                               |                |                  [3]{}: in 0x112-0x115.7 (4)
0x110|      fc                                       |  .             |                    prefix: 0xfc (valid) 0x112-0x112.7 (1)
0x110|         0e                                    |   .            |                    table.copy: 14 (valid) 0x113-0x113.7 (1)
0x110|            00                                 |    .           |                    x: 0 0x114-0x114.7 (1)
0x110|               00                              |     .          |                    y: 0 0x115-0x115.7 (1)
     |                                               |                |                  [4]{}: in 0x116-0x116.7 (1)
0x110|                  0b|                          |      .|        |                    end: 0xb (valid) 0x116-0x116.7 (1)
