$ fq -d wasm dv table_get-0.wasm
    |00 01 02 03 04 05 06 07 08 09 0a 0b 0c 0d 0e 0f|0123456789abcdef|.{}: table_get-0.wasm (wasm) 0x0-0xa3.7 (164)
0x00|00 61 73 6d                                    |.asm            |  magic: raw bits (valid) 0x0-0x3.7 (4)
0x00|            01 00 00 00                        |    ....        |  version: 1 0x4-0x7.7 (4)
    |                                               |                |  sections[0:6]: 0x8-0xa3.7 (156)
    |                                               |                |    [0]{}: section 0x8-0x20.7 (25)
0x00|                        01                     |        .       |      id: "type section" (1) 0x8-0x8.7 (1)
0x00|                           17                  |         .      |      size: 23 0x9-0x9.7 (1)
    |                                               |                |      content{}: 0xa-0x20.7 (23)
    |                                               |                |        ft{}: 0xa-0x20.7 (23)
0x00|                              05               |          .     |          n: 5 0xa-0xa.7 (1)
    |                                               |                |          x[0:5]: 0xb-0x20.7 (22)
    |                                               |                |            [0]{}: ft 0xb-0xd.7 (3)
0x00|                                 60            |           `    |              tag: 0x60 (valid) 0xb-0xb.7 (1)
    |                                               |                |              rt1{}: 0xc-0xc.7 (1)
0x00|                                    00         |            .   |                n: 0 0xc-0xc.7 (1)
    |                                               |                |                x[0:0]: 0xd-NA (0)
    |                                               |                |              rt2{}: 0xd-0xd.7 (1)
0x00|                                       00      |             .  |                n: 0 0xd-0xd.7 (1)
    |                                               |                |                x[0:0]: 0xe-NA (0)
    |                                               |                |            [1]{}: ft 0xe-0x11.7 (4)
0x00|                                          60   |              ` |              tag: 0x60 (valid) 0xe-0xe.7 (1)
    |                                               |                |              rt1{}: 0xf-0x10.7 (2)
0x00|                                             01|               .|                n: 1 0xf-0xf.7 (1)
    |                                               |                |                x[0:1]: 0x10-0x10.7 (1)
0x10|6f                                             |o               |                  [0]: "externref" (0x6f) t 0x10-0x10.7 (1)
    |                                               |                |              rt2{}: 0x11-0x11.7 (1)
0x10|   00                                          | .              |                n: 0 0x11-0x11.7 (1)
    |                                               |                |                x[0:0]: 0x12-NA (0)
    |                                               |                |            [2]{}: ft 0x12-0x16.7 (5)
0x10|      60                                       |  `             |              tag: 0x60 (valid) 0x12-0x12.7 (1)
    |                                               |                |              rt1{}: 0x13-0x14.7 (2)
0x10|         01                                    |   .            |                n: 1 0x13-0x13.7 (1)
    |                                               |                |                x[0:1]: 0x14-0x14.7 (1)
0x10|            7f                                 |    .           |                  [0]: "i32" (0x7f) t 0x14-0x14.7 (1)
    |                                               |                |              rt2{}: 0x15-0x16.7 (2)
0x10|               01                              |     .          |                n: 1 0x15-0x15.7 (1)
    |                                               |                |                x[0:1]: 0x16-0x16.7 (1)
0x10|                  6f                           |      o         |                  [0]: "externref" (0x6f) t 0x16-0x16.7 (1)
    |                                               |                |            [3]{}: ft 0x17-0x1b.7 (5)
0x10|                     60                        |       `        |              tag: 0x60 (valid) 0x17-0x17.7 (1)
    |                                               |                |              rt1{}: 0x18-0x19.7 (2)
0x10|                        01                     |        .       |                n: 1 0x18-0x18.7 (1)
    |                                               |                |                x[0:1]: 0x19-0x19.7 (1)
0x10|                           7f                  |         .      |                  [0]: "i32" (0x7f) t 0x19-0x19.7 (1)
    |                                               |                |              rt2{}: 0x1a-0x1b.7 (2)
0x10|                              01               |          .     |                n: 1 0x1a-0x1a.7 (1)
    |                                               |                |                x[0:1]: 0x1b-0x1b.7 (1)
0x10|                                 70            |           p    |                  [0]: "funcref" (0x70) t 0x1b-0x1b.7 (1)
    |                                               |                |            [4]{}: ft 0x1c-0x20.7 (5)
0x10|                                    60         |            `   |              tag: 0x60 (valid) 0x1c-0x1c.7 (1)
    |                                               |                |              rt1{}: 0x1d-0x1e.7 (2)
0x10|                                       01      |             .  |                n: 1 0x1d-0x1d.7 (1)
    |                                               |                |                x[0:1]: 0x1e-0x1e.7 (1)
0x10|                                          7f   |              . |                  [0]: "i32" (0x7f) t 0x1e-0x1e.7 (1)
    |                                               |                |              rt2{}: 0x1f-0x20.7 (2)
0x10|                                             01|               .|                n: 1 0x1f-0x1f.7 (1)
    |                                               |                |                x[0:1]: 0x20-0x20.7 (1)
0x20|7f                                             |.               |                  [0]: "i32" (0x7f) t 0x20-0x20.7 (1)
    |                                               |                |    [1]{}: section 0x21-0x28.7 (8)
0x20|   03                                          | .              |      id: "function section" (3) 0x21-0x21.7 (1)
0x20|      06                                       |  .             |      size: 6 0x22-0x22.7 (1)
    |                                               |                |      content{}: 0x23-0x28.7 (6)
    |                                               |                |        x{}: 0x23-0x28.7 (6)
0x20|         05                                    |   .            |          n: 5 0x23-0x23.7 (1)
    |                                               |                |          x[0:5]: 0x24-0x28.7 (5)
0x20|            00                                 |    .           |            [0]: 0 x 0x24-0x24.7 (1)
0x20|               01                              |     .          |            [1]: 1 x 0x25-0x25.7 (1)
0x20|                  02                           |      .         |            [2]: 2 x 0x26-0x26.7 (1)
0x20|                     03                        |       .        |            [3]: 3 x 0x27-0x27.7 (1)
0x20|                        04                     |        .       |            [4]: 4 x 0x28-0x28.7 (1)
    |                                               |                |    [2]{}: section 0x29-0x31.7 (9)
0x20|                           04                  |         .      |      id: "table section" (4) 0x29-0x29.7 (1)
0x20|                              07               |          .     |      size: 7 0x2a-0x2a.7 (1)
    |                                               |                |      content{}: 0x2b-0x31.7 (7)
    |                                               |                |        tab{}: 0x2b-0x31.7 (7)
0x20|                                 02            |           .    |          n: 2 0x2b-0x2b.7 (1)
    |                                               |                |          x[0:2]: 0x2c-0x31.7 (6)
    |                                               |                |            [0]{}: tab 0x2c-0x2e.7 (3)
0x20|                                    6f         |            o   |              et: "externref" (111) 0x2c-0x2c.7 (1)
    |                                               |                |              lim{}: 0x2d-0x2e.7 (2)
0x20|                                       00      |             .  |                tag: 0x0 0x2d-0x2d.7 (1)
0x20|                                          02   |              . |                n: 2 0x2e-0x2e.7 (1)
    |                                               |                |            [1]{}: tab 0x2f-0x31.7 (3)
0x20|                                             70|               p|              et: "funcref" (112) 0x2f-0x2f.7 (1)
    |                                               |                |              lim{}: 0x30-0x31.7 (2)
0x30|00                                             |.               |                tag: 0x0 0x30-0x30.7 (1)
0x30|   03                                          | .              |                n: 3 0x31-0x31.7 (1)
    |                                               |                |    [3]{}: section 0x32-0x6b.7 (58)
0x30|      07                                       |  .             |      id: "export section" (7) 0x32-0x32.7 (1)
0x30|         38                                    |   8            |      size: 56 0x33-0x33.7 (1)
    |                                               |                |      content{}: 0x34-0x6b.7 (56)
    |                                               |                |        ex{}: 0x34-0x6b.7 (56)
0x30|            04                                 |    .           |          n: 4 0x34-0x34.7 (1)
    |                                               |                |          x[0:4]: 0x35-0x6b.7 (55)
    |                                               |                |            [0]{}: ex 0x35-0x3b.7 (7)
    |                                               |                |              nm{}: 0x35-0x39.7 (5)
0x30|               04                              |     .          |                n: 4 0x35-0x35.7 (1)
0x30|                  69 6e 69 74                  |      init      |                b: "init" 0x36-0x39.7 (4)
    |                                               |                |              d{}: 0x3a-0x3b.7 (2)
0x30|                              00               |          .     |                tag: "funcidx" (0x0) 0x3a-0x3a.7 (1)
0x30|                                 01            |           .    |                x: 1 0x3b-0x3b.7 (1)
    |                                               |                |            [1]{}: ex 0x3c-0x4b.7 (16)
    |                                               |                |              nm{}: 0x3c-0x49.7 (14)
0x30|                                    0d         |            .   |                n: 13 0x3c-0x3c.7 (1)
0x30|                                       67 65 74|             get|                b: "get-externref" 0x3d-0x49.7 (13)
0x40|2d 65 78 74 65 72 6e 72 65 66                  |-externref      |
    |                                               |                |              d{}: 0x4a-0x4b.7 (2)
0x40|                              00               |          .     |                tag: "funcidx" (0x0) 0x4a-0x4a.7 (1)
0x40|                                 02            |           .    |                x: 2 0x4b-0x4b.7 (1)
    |                                               |                |            [2]{}: ex 0x4c-0x59.7 (14)
    |                                               |                |              nm{}: 0x4c-0x57.7 (12)
0x40|                                    0b         |            .   |                n: 11 0x4c-0x4c.7 (1)
0x40|                                       67 65 74|             get|                b: "get-funcref" 0x4d-0x57.7 (11)
0x50|2d 66 75 6e 63 72 65 66                        |-funcref        |
    |                                               |                |              d{}: 0x58-0x59.7 (2)
0x50|                        00                     |        .       |                tag: "funcidx" (0x0) 0x58-0x58.7 (1)
0x50|                           03                  |         .      |                x: 3 0x59-0x59.7 (1)
    |                                               |                |            [3]{}: ex 0x5a-0x6b.7 (18)
    |                                               |                |              nm{}: 0x5a-0x69.7 (16)
0x50|                              0f               |          .     |                n: 15 0x5a-0x5a.7 (1)
0x50|                                 69 73 5f 6e 75|           is_nu|                b: "is_null-funcref" 0x5b-0x69.7 (15)
0x60|6c 6c 2d 66 75 6e 63 72 65 66                  |ll-funcref      |
    |                                               |                |              d{}: 0x6a-0x6b.7 (2)
0x60|                              00               |          .     |                tag: "funcidx" (0x0) 0x6a-0x6a.7 (1)
0x60|                                 04            |           .    |                x: 4 0x6b-0x6b.7 (1)
    |                                               |                |    [4]{}: section 0x6c-0x76.7 (11)
0x60|                                    09         |            .   |      id: "element section" (9) 0x6c-0x6c.7 (1)
0x60|                                       09      |             .  |      size: 9 0x6d-0x6d.7 (1)
    |                                               |                |      element{}: 0x6e-0x76.7 (9)
    |                                               |                |        seg{}: 0x6e-0x76.7 (9)
0x60|                                          01   |              . |          n: 1 0x6e-0x6e.7 (1)
    |                                               |                |          x[0:1]: 0x6f-0x76.7 (8)
    |                                               |                |            [0]{}: seg 0x6f-0x76.7 (8)
0x60|                                             02|               .|              tag: 2 0x6f-0x6f.7 (1)
0x70|01                                             |.               |              x: 1 0x70-0x70.7 (1)
    |                                               |                |              e[0:2]: 0x71-0x73.7 (3)
    |                                               |                |                [0]{}: in 0x71-0x72.7 (2)
0x70|   41                                          | A              |                  i32.const: 0x41 (valid) 0x71-0x71.7 (1)
0x70|      01                                       |  .             |                  n: 1 0x72-0x72.7 (1)
    |                                               |                |                [1]{}: in 0x73-0x73.7 (1)
0x70|         0b                                    |   .            |                  end: 0xb (valid) 0x73-0x73.7 (1)
0x70|            00                                 |    .           |              et: "funcref" (0) (valid) 0x74-0x74.7 (1)
    |                                               |                |              y{}: 0x75-0x76.7 (2)
0x70|               01                              |     .          |                n: 1 0x75-0x75.7 (1)
    |                                               |                |                x[0:1]: 0x76-0x76.7 (1)
0x70|                  00                           |      .         |                  [0]: 0 y 0x76-0x76.7 (1)
    |                                               |                |    [5]{}: section 0x77-0xa3.7 (45)
0x70|                     0a                        |       .        |      id: "code section" (10) 0x77-0x77.7 (1)
0x70|                        2b                     |        +       |      size: 43 0x78-0x78.7 (1)
    |                                               |                |      content{}: 0x79-0xa3.7 (43)
    |                                               |                |        code{}: 0x79-0xa3.7 (43)
0x70|                           05                  |         .      |          n: 5 0x79-0x79.7 (1)
    |                                               |                |          x[0:5]: 0x7a-0xa3.7 (42)
    |                                               |                |            [0]{}: code 0x7a-0x7c.7 (3)
0x70|                              02               |          .     |              size: 2 0x7a-0x7a.7 (1)
    |                                               |                |              code{}: 0x7b-0x7c.7 (2)
    |                                               |                |                t{}: 0x7b-0x7b.7 (1)
0x70|                                 00            |           .    |                  n: 0 0x7b-0x7b.7 (1)
    |                                               |                |                  x[0:0]: 0x7c-NA (0)
    |                                               |                |                e[0:1]: 0x7c-0x7c.7 (1)
    |                                               |                |                  [0]{}: in 0x7c-0x7c.7 (1)
0x70|                                    0b         |            .   |                    end: 0xb (valid) 0x7c-0x7c.7 (1)
    |                                               |                |            [1]{}: code 0x7d-0x8d.7 (17)
0x70|                                       10      |             .  |              size: 16 0x7d-0x7d.7 (1)
    |                                               |                |              code{}: 0x7e-0x8d.7 (16)
    |                                               |                |                t{}: 0x7e-0x7e.7 (1)
0x70|                                          00   |              . |                  n: 0 0x7e-0x7e.7 (1)
    |                                               |                |                  x[0:0]: 0x7f-NA (0)
    |                                               |                |                e[0:8]: 0x7f-0x8d.7 (15)
    |                                               |                |                  [0]{}: in 0x7f-0x80.7 (2)
0x70|                                             41|               A|                    i32.const: 0x41 (valid) 0x7f-0x7f.7 (1)
0x80|01                                             |.               |                    n: 1 0x80-0x80.7 (1)
    |                                               |                |                  [1]{}: in 0x81-0x82.7 (2)
0x80|   20                                          |                |                    local.get: 0x20 (valid) 0x81-0x81.7 (1)
0x80|      00                                       |  .             |                    x: 0 0x82-0x82.7 (1)
    |                                               |                |                  [2]{}: in 0x83-0x84.7 (2)
0x80|         26                                    |   &            |                    table.set: 0x26 (valid) 0x83-0x83.7 (1)
0x80|            00                                 |    .           |                    x: 0 0x84-0x84.7 (1)
    |                                               |                |                  [3]{}: in 0x85-0x86.7 (2)
0x80|               41                              |     A          |                    i32.const: 0x41 (valid) 0x85-0x85.7 (1)
0x80|                  02                           |      .         |                    n: 2 0x86-0x86.7 (1)
    |                                               |                |                  [4]{}: in 0x87-0x88.7 (2)
0x80|                     41                        |       A        |                    i32.const: 0x41 (valid) 0x87-0x87.7 (1)
0x80|                        01                     |        .       |                    n: 1 0x88-0x88.7 (1)
    |                                               |                |                  [5]{}: in 0x89-0x8a.7 (2)
0x80|                           25                  |         %      |                    table.get: 0x25 (valid) 0x89-0x89.7 (1)
0x80|                              01               |          .     |                    x: 1 0x8a-0x8a.7 (1)
    |                                               |                |                  [6]{}: in 0x8b-0x8c.7 (2)
0x80|                                 26            |           &    |                    table.set: 0x26 (valid) 0x8b-0x8b.7 (1)
0x80|                                    01         |            .   |                    x: 1 0x8c-0x8c.7 (1)
    |                                               |                |                  [7]{}: in 0x8d-0x8d.7 (1)
0x80|                                       0b      |             .  |                    end: 0xb (valid) 0x8d-0x8d.7 (1)
    |                                               |                |            [2]{}: code 0x8e-0x94.7 (7)
0x80|                                          06   |              . |              size: 6 0x8e-0x8e.7 (1)
    |                                               |                |              code{}: 0x8f-0x94.7 (6)
    |                                               |                |                t{}: 0x8f-0x8f.7 (1)
0x80|                                             00|               .|                  n: 0 0x8f-0x8f.7 (1)
    |                                               |                |                  x[0:0]: 0x90-NA (0)
    |                                               |                |                e[0:3]: 0x90-0x94.7 (5)
    |                                               |                |                  [0]{}: in 0x90-0x91.7 (2)
0x90|20                                             |                |                    local.get: 0x20 (valid) 0x90-0x90.7 (1)
0x90|   00                                          | .              |                    x: 0 0x91-0x91.7 (1)
    |                                               |                |                  [1]{}: in 0x92-0x93.7 (2)
0x90|      25                                       |  %             |                    table.get: 0x25 (valid) 0x92-0x92.7 (1)
0x90|         00                                    |   .            |                    x: 0 0x93-0x93.7 (1)
    |                                               |                |                  [2]{}: in 0x94-0x94.7 (1)
0x90|            0b                                 |    .           |                    end: 0xb (valid) 0x94-0x94.7 (1)
    |                                               |                |            [3]{}: code 0x95-0x9b.7 (7)
0x90|               06                              |     .          |              size: 6 0x95-0x95.7 (1)
    |                                               |                |              code{}: 0x96-0x9b.7 (6)
    |                                               |                |                t{}: 0x96-0x96.7 (1)
0x90|                  00                           |      .         |                  n: 0 0x96-0x96.7 (1)
    |                                               |                |                  x[0:0]: 0x97-NA (0)
    |                                               |                |                e[0:3]: 0x97-0x9b.7 (5)
    |                                               |                |                  [0]{}: in 0x97-0x98.7 (2)
0x90|                     20                        |                |                    local.get: 0x20 (valid) 0x97-0x97.7 (1)
0x90|                        00                     |        .       |                    x: 0 0x98-0x98.7 (1)
    |                                               |                |                  [1]{}: in 0x99-0x9a.7 (2)
0x90|                           25                  |         %      |                    table.get: 0x25 (valid) 0x99-0x99.7 (1)
0x90|                              01               |          .     |                    x: 1 0x9a-0x9a.7 (1)
    |                                               |                |                  [2]{}: in 0x9b-0x9b.7 (1)
0x90|                                 0b            |           .    |                    end: 0xb (valid) 0x9b-0x9b.7 (1)
    |                                               |                |            [4]{}: code 0x9c-0xa3.7 (8)
0x90|                                    07         |            .   |              size: 7 0x9c-0x9c.7 (1)
    |                                               |                |              code{}: 0x9d-0xa3.7 (7)
    |                                               |                |                t{}: 0x9d-0x9d.7 (1)
0x90|                                       00      |             .  |                  n: 0 0x9d-0x9d.7 (1)
    |                                               |                |                  x[0:0]: 0x9e-NA (0)
    |                                               |                |                e[0:4]: 0x9e-0xa3.7 (6)
    |                                               |                |                  [0]{}: in 0x9e-0x9f.7 (2)
0x90|                                          20   |                |                    local.get: 0x20 (valid) 0x9e-0x9e.7 (1)
0x90|                                             00|               .|                    x: 0 0x9f-0x9f.7 (1)
    |                                               |                |                  [1]{}: in 0xa0-0xa1.7 (2)
0xa0|10                                             |.               |                    call: 0x10 (valid) 0xa0-0xa0.7 (1)
0xa0|   03                                          | .              |                    x: 3 0xa1-0xa1.7 (1)
    |                                               |                |                  [2]{}: in 0xa2-0xa2.7 (1)
0xa0|      d1                                       |  .             |                    ref.is_null: 0xd1 (valid) 0xa2-0xa2.7 (1)
    |                                               |                |                  [3]{}: in 0xa3-0xa3.7 (1)
0xa0|         0b|                                   |   .|           |                    end: 0xb (valid) 0xa3-0xa3.7 (1)
