$ fq -d wasm dv table_init-34.wasm
    |00 01 02 03 04 05 06 07 08 09 0a 0b 0c 0d 0e 0f|0123456789abcdef|.{}: table_init-34.wasm (wasm) 0x0-0xef (239)
0x00|00 61 73 6d                                    |.asm            |  magic: raw bits (valid) 0x0-0x4 (4)
0x00|            01 00 00 00                        |    ....        |  version: 1 0x4-0x8 (4)
    |                                               |                |  sections[0:5]: 0x8-0xef (231)
    |                                               |                |    [0]{}: section 0x8-0xe (6)
0x00|                        01                     |        .       |      id: "type_section" (1) 0x8-0x9 (1)
0x00|                           04                  |         .      |      size: 4 (valid) 0x9-0xa (1)
    |                                               |                |      content{}: 0xa-0xe (4)
    |                                               |                |        ft{}: 0xa-0xe (4)
0x00|                              01               |          .     |          n: 1 (valid) 0xa-0xb (1)
    |                                               |                |          x[0:1]: 0xb-0xe (3)
    |                                               |                |            [0]{}: ft 0xb-0xe (3)
0x00|                                 60            |           `    |              tag: 0x60 (valid) 0xb-0xc (1)
    |                                               |                |              rt1{}: 0xc-0xd (1)
0x00|                                    00         |            .   |                n: 0 (valid) 0xc-0xd (1)
    |                                               |                |                x[0:0]: 0xd-0xd (0)
    |                                               |                |              rt2{}: 0xd-0xe (1)
0x00|                                       00      |             .  |                n: 0 (valid) 0xd-0xe (1)
    |                                               |                |                x[0:0]: 0xe-0xe (0)
    |                                               |                |    [1]{}: section 0xe-0x12 (4)
0x00|                                          03   |              . |      id: "function_section" (3) 0xe-0xf (1)
0x00|                                             02|               .|      size: 2 (valid) 0xf-0x10 (1)
    |                                               |                |      content{}: 0x10-0x12 (2)
    |                                               |                |        x{}: 0x10-0x12 (2)
0x10|01                                             |.               |          n: 1 (valid) 0x10-0x11 (1)
    |                                               |                |          x[0:1]: 0x11-0x12 (1)
0x10|   00                                          | .              |            [0]: 0 x (valid) 0x11-0x12 (1)
    |                                               |                |    [2]{}: section 0x12-0x18 (6)
0x10|      04                                       |  .             |      id: "table_section" (4) 0x12-0x13 (1)
0x10|         04                                    |   .            |      size: 4 (valid) 0x13-0x14 (1)
    |                                               |                |      content{}: 0x14-0x18 (4)
    |                                               |                |        tab{}: 0x14-0x18 (4)
0x10|            01                                 |    .           |          n: 1 (valid) 0x14-0x15 (1)
    |                                               |                |          x[0:1]: 0x15-0x18 (3)
    |                                               |                |            [0]{}: tab 0x15-0x18 (3)
0x10|               70                              |     p          |              et: "funcref" (112) 0x15-0x16 (1)
    |                                               |                |              lim{}: 0x16-0x18 (2)
0x10|                  00                           |      .         |                tag: 0x0 0x16-0x17 (1)
0x10|                     01                        |       .        |                n: 1 (valid) 0x17-0x18 (1)
    |                                               |                |    [3]{}: section 0x18-0xdf (199)
0x10|                        09                     |        .       |      id: "element_section" (9) 0x18-0x19 (1)
0x10|                           c4 01               |         ..     |      size: 196 (valid) 0x19-0x1b (2)
    |                                               |                |      element{}: 0x1b-0xdf (196)
    |                                               |                |        seg{}: 0x1b-0xdf (196)
0x10|                                 41            |           A    |          n: 65 (valid) 0x1b-0x1c (1)
    |                                               |                |          x[0:65]: 0x1c-0xdf (195)
    |                                               |                |            [0]{}: seg 0x1c-0x1f (3)
0x10|                                    01         |            .   |              tag: 1 (valid) 0x1c-0x1d (1)
0x10|                                       00      |             .  |              et: "funcref" (0) (valid) 0x1d-0x1e (1)
    |                                               |                |              y{}: 0x1e-0x1f (1)
0x10|                                          00   |              . |                n: 0 (valid) 0x1e-0x1f (1)
    |                                               |                |                x[0:0]: 0x1f-0x1f (0)
    |                                               |                |            [1]{}: seg 0x1f-0x22 (3)
0x10|                                             01|               .|              tag: 1 (valid) 0x1f-0x20 (1)
0x20|00                                             |.               |              et: "funcref" (0) (valid) 0x20-0x21 (1)
    |                                               |                |              y{}: 0x21-0x22 (1)
0x20|   00                                          | .              |                n: 0 (valid) 0x21-0x22 (1)
    |                                               |                |                x[0:0]: 0x22-0x22 (0)
    |                                               |                |            [2]{}: seg 0x22-0x25 (3)
0x20|      01                                       |  .             |              tag: 1 (valid) 0x22-0x23 (1)
0x20|         00                                    |   .            |              et: "funcref" (0) (valid) 0x23-0x24 (1)
    |                                               |                |              y{}: 0x24-0x25 (1)
0x20|            00                                 |    .           |                n: 0 (valid) 0x24-0x25 (1)
    |                                               |                |                x[0:0]: 0x25-0x25 (0)
    |                                               |                |            [3]{}: seg 0x25-0x28 (3)
0x20|               01                              |     .          |              tag: 1 (valid) 0x25-0x26 (1)
0x20|                  00                           |      .         |              et: "funcref" (0) (valid) 0x26-0x27 (1)
    |                                               |                |              y{}: 0x27-0x28 (1)
0x20|                     00                        |       .        |                n: 0 (valid) 0x27-0x28 (1)
    |                                               |                |                x[0:0]: 0x28-0x28 (0)
    |                                               |                |            [4]{}: seg 0x28-0x2b (3)
0x20|                        01                     |        .       |              tag: 1 (valid) 0x28-0x29 (1)
0x20|                           00                  |         .      |              et: "funcref" (0) (valid) 0x29-0x2a (1)
    |                                               |                |              y{}: 0x2a-0x2b (1)
0x20|                              00               |          .     |                n: 0 (valid) 0x2a-0x2b (1)
    |                                               |                |                x[0:0]: 0x2b-0x2b (0)
    |                                               |                |            [5]{}: seg 0x2b-0x2e (3)
0x20|                                 01            |           .    |              tag: 1 (valid) 0x2b-0x2c (1)
0x20|                                    00         |            .   |              et: "funcref" (0) (valid) 0x2c-0x2d (1)
    |                                               |                |              y{}: 0x2d-0x2e (1)
0x20|                                       00      |             .  |                n: 0 (valid) 0x2d-0x2e (1)
    |                                               |                |                x[0:0]: 0x2e-0x2e (0)
    |                                               |                |            [6]{}: seg 0x2e-0x31 (3)
0x20|                                          01   |              . |              tag: 1 (valid) 0x2e-0x2f (1)
0x20|                                             00|               .|              et: "funcref" (0) (valid) 0x2f-0x30 (1)
    |                                               |                |              y{}: 0x30-0x31 (1)
0x30|00                                             |.               |                n: 0 (valid) 0x30-0x31 (1)
    |                                               |                |                x[0:0]: 0x31-0x31 (0)
    |                                               |                |            [7]{}: seg 0x31-0x34 (3)
0x30|   01                                          | .              |              tag: 1 (valid) 0x31-0x32 (1)
0x30|      00                                       |  .             |              et: "funcref" (0) (valid) 0x32-0x33 (1)
    |                                               |                |              y{}: 0x33-0x34 (1)
0x30|         00                                    |   .            |                n: 0 (valid) 0x33-0x34 (1)
    |                                               |                |                x[0:0]: 0x34-0x34 (0)
    |                                               |                |            [8]{}: seg 0x34-0x37 (3)
0x30|            01                                 |    .           |              tag: 1 (valid) 0x34-0x35 (1)
0x30|               00                              |     .          |              et: "funcref" (0) (valid) 0x35-0x36 (1)
    |                                               |                |              y{}: 0x36-0x37 (1)
0x30|                  00                           |      .         |                n: 0 (valid) 0x36-0x37 (1)
    |                                               |                |                x[0:0]: 0x37-0x37 (0)
    |                                               |                |            [9]{}: seg 0x37-0x3a (3)
0x30|                     01                        |       .        |              tag: 1 (valid) 0x37-0x38 (1)
0x30|                        00                     |        .       |              et: "funcref" (0) (valid) 0x38-0x39 (1)
    |                                               |                |              y{}: 0x39-0x3a (1)
0x30|                           00                  |         .      |                n: 0 (valid) 0x39-0x3a (1)
    |                                               |                |                x[0:0]: 0x3a-0x3a (0)
    |                                               |                |            [10]{}: seg 0x3a-0x3d (3)
0x30|                              01               |          .     |              tag: 1 (valid) 0x3a-0x3b (1)
0x30|                                 00            |           .    |              et: "funcref" (0) (valid) 0x3b-0x3c (1)
    |                                               |                |              y{}: 0x3c-0x3d (1)
0x30|                                    00         |            .   |                n: 0 (valid) 0x3c-0x3d (1)
    |                                               |                |                x[0:0]: 0x3d-0x3d (0)
    |                                               |                |            [11]{}: seg 0x3d-0x40 (3)
0x30|                                       01      |             .  |              tag: 1 (valid) 0x3d-0x3e (1)
0x30|                                          00   |              . |              et: "funcref" (0) (valid) 0x3e-0x3f (1)
    |                                               |                |              y{}: 0x3f-0x40 (1)
0x30|                                             00|               .|                n: 0 (valid) 0x3f-0x40 (1)
    |                                               |                |                x[0:0]: 0x40-0x40 (0)
    |                                               |                |            [12]{}: seg 0x40-0x43 (3)
0x40|01                                             |.               |              tag: 1 (valid) 0x40-0x41 (1)
0x40|   00                                          | .              |              et: "funcref" (0) (valid) 0x41-0x42 (1)
    |                                               |                |              y{}: 0x42-0x43 (1)
0x40|      00                                       |  .             |                n: 0 (valid) 0x42-0x43 (1)
    |                                               |                |                x[0:0]: 0x43-0x43 (0)
    |                                               |                |            [13]{}: seg 0x43-0x46 (3)
0x40|         01                                    |   .            |              tag: 1 (valid) 0x43-0x44 (1)
0x40|            00                                 |    .           |              et: "funcref" (0) (valid) 0x44-0x45 (1)
    |                                               |                |              y{}: 0x45-0x46 (1)
0x40|               00                              |     .          |                n: 0 (valid) 0x45-0x46 (1)
    |                                               |                |                x[0:0]: 0x46-0x46 (0)
    |                                               |                |            [14]{}: seg 0x46-0x49 (3)
0x40|                  01                           |      .         |              tag: 1 (valid) 0x46-0x47 (1)
0x40|                     00                        |       .        |              et: "funcref" (0) (valid) 0x47-0x48 (1)
    |                                               |                |              y{}: 0x48-0x49 (1)
0x40|                        00                     |        .       |                n: 0 (valid) 0x48-0x49 (1)
    |                                               |                |                x[0:0]: 0x49-0x49 (0)
    |                                               |                |            [15]{}: seg 0x49-0x4c (3)
0x40|                           01                  |         .      |              tag: 1 (valid) 0x49-0x4a (1)
0x40|                              00               |          .     |              et: "funcref" (0) (valid) 0x4a-0x4b (1)
    |                                               |                |              y{}: 0x4b-0x4c (1)
0x40|                                 00            |           .    |                n: 0 (valid) 0x4b-0x4c (1)
    |                                               |                |                x[0:0]: 0x4c-0x4c (0)
    |                                               |                |            [16]{}: seg 0x4c-0x4f (3)
0x40|                                    01         |            .   |              tag: 1 (valid) 0x4c-0x4d (1)
0x40|                                       00      |             .  |              et: "funcref" (0) (valid) 0x4d-0x4e (1)
    |                                               |                |              y{}: 0x4e-0x4f (1)
0x40|                                          00   |              . |                n: 0 (valid) 0x4e-0x4f (1)
    |                                               |                |                x[0:0]: 0x4f-0x4f (0)
    |                                               |                |            [17]{}: seg 0x4f-0x52 (3)
0x40|                                             01|               .|              tag: 1 (valid) 0x4f-0x50 (1)
0x50|00                                             |.               |              et: "funcref" (0) (valid) 0x50-0x51 (1)
    |                                               |                |              y{}: 0x51-0x52 (1)
0x50|   00                                          | .              |                n: 0 (valid) 0x51-0x52 (1)
    |                                               |                |                x[0:0]: 0x52-0x52 (0)
    |                                               |                |            [18]{}: seg 0x52-0x55 (3)
0x50|      01                                       |  .             |              tag: 1 (valid) 0x52-0x53 (1)
0x50|         00                                    |   .            |              et: "funcref" (0) (valid) 0x53-0x54 (1)
    |                                               |                |              y{}: 0x54-0x55 (1)
0x50|            00                                 |    .           |                n: 0 (valid) 0x54-0x55 (1)
    |                                               |                |                x[0:0]: 0x55-0x55 (0)
    |                                               |                |            [19]{}: seg 0x55-0x58 (3)
0x50|               01                              |     .          |              tag: 1 (valid) 0x55-0x56 (1)
0x50|                  00                           |      .         |              et: "funcref" (0) (valid) 0x56-0x57 (1)
    |                                               |                |              y{}: 0x57-0x58 (1)
0x50|                     00                        |       .        |                n: 0 (valid) 0x57-0x58 (1)
    |                                               |                |                x[0:0]: 0x58-0x58 (0)
    |                                               |                |            [20]{}: seg 0x58-0x5b (3)
0x50|                        01                     |        .       |              tag: 1 (valid) 0x58-0x59 (1)
0x50|                           00                  |         .      |              et: "funcref" (0) (valid) 0x59-0x5a (1)
    |                                               |                |              y{}: 0x5a-0x5b (1)
0x50|                              00               |          .     |                n: 0 (valid) 0x5a-0x5b (1)
    |                                               |                |                x[0:0]: 0x5b-0x5b (0)
    |                                               |                |            [21]{}: seg 0x5b-0x5e (3)
0x50|                                 01            |           .    |              tag: 1 (valid) 0x5b-0x5c (1)
0x50|                                    00         |            .   |              et: "funcref" (0) (valid) 0x5c-0x5d (1)
    |                                               |                |              y{}: 0x5d-0x5e (1)
0x50|                                       00      |             .  |                n: 0 (valid) 0x5d-0x5e (1)
    |                                               |                |                x[0:0]: 0x5e-0x5e (0)
    |                                               |                |            [22]{}: seg 0x5e-0x61 (3)
0x50|                                          01   |              . |              tag: 1 (valid) 0x5e-0x5f (1)
0x50|                                             00|               .|              et: "funcref" (0) (valid) 0x5f-0x60 (1)
    |                                               |                |              y{}: 0x60-0x61 (1)
0x60|00                                             |.               |                n: 0 (valid) 0x60-0x61 (1)
    |                                               |                |                x[0:0]: 0x61-0x61 (0)
    |                                               |                |            [23]{}: seg 0x61-0x64 (3)
0x60|   01                                          | .              |              tag: 1 (valid) 0x61-0x62 (1)
0x60|      00                                       |  .             |              et: "funcref" (0) (valid) 0x62-0x63 (1)
    |                                               |                |              y{}: 0x63-0x64 (1)
0x60|         00                                    |   .            |                n: 0 (valid) 0x63-0x64 (1)
    |                                               |                |                x[0:0]: 0x64-0x64 (0)
    |                                               |                |            [24]{}: seg 0x64-0x67 (3)
0x60|            01                                 |    .           |              tag: 1 (valid) 0x64-0x65 (1)
0x60|               00                              |     .          |              et: "funcref" (0) (valid) 0x65-0x66 (1)
    |                                               |                |              y{}: 0x66-0x67 (1)
0x60|                  00                           |      .         |                n: 0 (valid) 0x66-0x67 (1)
    |                                               |                |                x[0:0]: 0x67-0x67 (0)
    |                                               |                |            [25]{}: seg 0x67-0x6a (3)
0x60|                     01                        |       .        |              tag: 1 (valid) 0x67-0x68 (1)
0x60|                        00                     |        .       |              et: "funcref" (0) (valid) 0x68-0x69 (1)
    |                                               |                |              y{}: 0x69-0x6a (1)
0x60|                           00                  |         .      |                n: 0 (valid) 0x69-0x6a (1)
    |                                               |                |                x[0:0]: 0x6a-0x6a (0)
    |                                               |                |            [26]{}: seg 0x6a-0x6d (3)
0x60|                              01               |          .     |              tag: 1 (valid) 0x6a-0x6b (1)
0x60|                                 00            |           .    |              et: "funcref" (0) (valid) 0x6b-0x6c (1)
    |                                               |                |              y{}: 0x6c-0x6d (1)
0x60|                                    00         |            .   |                n: 0 (valid) 0x6c-0x6d (1)
    |                                               |                |                x[0:0]: 0x6d-0x6d (0)
    |                                               |                |            [27]{}: seg 0x6d-0x70 (3)
0x60|                                       01      |             .  |              tag: 1 (valid) 0x6d-0x6e (1)
0x60|                                          00   |              . |              et: "funcref" (0) (valid) 0x6e-0x6f (1)
    |                                               |                |              y{}: 0x6f-0x70 (1)
0x60|                                             00|               .|                n: 0 (valid) 0x6f-0x70 (1)
    |                                               |                |                x[0:0]: 0x70-0x70 (0)
    |                                               |                |            [28]{}: seg 0x70-0x73 (3)
0x70|01                                             |.               |              tag: 1 (valid) 0x70-0x71 (1)
0x70|   00                                          | .              |              et: "funcref" (0) (valid) 0x71-0x72 (1)
    |                                               |                |              y{}: 0x72-0x73 (1)
0x70|      00                                       |  .             |                n: 0 (valid) 0x72-0x73 (1)
    |                                               |                |                x[0:0]: 0x73-0x73 (0)
    |                                               |                |            [29]{}: seg 0x73-0x76 (3)
0x70|         01                                    |   .            |              tag: 1 (valid) 0x73-0x74 (1)
0x70|            00                                 |    .           |              et: "funcref" (0) (valid) 0x74-0x75 (1)
    |                                               |                |              y{}: 0x75-0x76 (1)
0x70|               00                              |     .          |                n: 0 (valid) 0x75-0x76 (1)
    |                                               |                |                x[0:0]: 0x76-0x76 (0)
    |                                               |                |            [30]{}: seg 0x76-0x79 (3)
0x70|                  01                           |      .         |              tag: 1 (valid) 0x76-0x77 (1)
0x70|                     00                        |       .        |              et: "funcref" (0) (valid) 0x77-0x78 (1)
    |                                               |                |              y{}: 0x78-0x79 (1)
0x70|                        00                     |        .       |                n: 0 (valid) 0x78-0x79 (1)
    |                                               |                |                x[0:0]: 0x79-0x79 (0)
    |                                               |                |            [31]{}: seg 0x79-0x7c (3)
0x70|                           01                  |         .      |              tag: 1 (valid) 0x79-0x7a (1)
0x70|                              00               |          .     |              et: "funcref" (0) (valid) 0x7a-0x7b (1)
    |                                               |                |              y{}: 0x7b-0x7c (1)
0x70|                                 00            |           .    |                n: 0 (valid) 0x7b-0x7c (1)
    |                                               |                |                x[0:0]: 0x7c-0x7c (0)
    |                                               |                |            [32]{}: seg 0x7c-0x7f (3)
0x70|                                    01         |            .   |              tag: 1 (valid) 0x7c-0x7d (1)
0x70|                                       00      |             .  |              et: "funcref" (0) (valid) 0x7d-0x7e (1)
    |                                               |                |              y{}: 0x7e-0x7f (1)
0x70|                                          00   |              . |                n: 0 (valid) 0x7e-0x7f (1)
    |                                               |                |                x[0:0]: 0x7f-0x7f (0)
    |                                               |                |            [33]{}: seg 0x7f-0x82 (3)
0x70|                                             01|               .|              tag: 1 (valid) 0x7f-0x80 (1)
0x80|00                                             |.               |              et: "funcref" (0) (valid) 0x80-0x81 (1)
    |                                               |                |              y{}: 0x81-0x82 (1)
0x80|   00                                          | .              |                n: 0 (valid) 0x81-0x82 (1)
    |                                               |                |                x[0:0]: 0x82-0x82 (0)
    |                                               |                |            [34]{}: seg 0x82-0x85 (3)
0x80|      01                                       |  .             |              tag: 1 (valid) 0x82-0x83 (1)
0x80|         00                                    |   .            |              et: "funcref" (0) (valid) 0x83-0x84 (1)
    |                                               |                |              y{}: 0x84-0x85 (1)
0x80|            00                                 |    .           |                n: 0 (valid) 0x84-0x85 (1)
    |                                               |                |                x[0:0]: 0x85-0x85 (0)
    |                                               |                |            [35]{}: seg 0x85-0x88 (3)
0x80|               01                              |     .          |              tag: 1 (valid) 0x85-0x86 (1)
0x80|                  00                           |      .         |              et: "funcref" (0) (valid) 0x86-0x87 (1)
    |                                               |                |              y{}: 0x87-0x88 (1)
0x80|                     00                        |       .        |                n: 0 (valid) 0x87-0x88 (1)
    |                                               |                |                x[0:0]: 0x88-0x88 (0)
    |                                               |                |            [36]{}: seg 0x88-0x8b (3)
0x80|                        01                     |        .       |              tag: 1 (valid) 0x88-0x89 (1)
0x80|                           00                  |         .      |              et: "funcref" (0) (valid) 0x89-0x8a (1)
    |                                               |                |              y{}: 0x8a-0x8b (1)
0x80|                              00               |          .     |                n: 0 (valid) 0x8a-0x8b (1)
    |                                               |                |                x[0:0]: 0x8b-0x8b (0)
    |                                               |                |            [37]{}: seg 0x8b-0x8e (3)
0x80|                                 01            |           .    |              tag: 1 (valid) 0x8b-0x8c (1)
0x80|                                    00         |            .   |              et: "funcref" (0) (valid) 0x8c-0x8d (1)
    |                                               |                |              y{}: 0x8d-0x8e (1)
0x80|                                       00      |             .  |                n: 0 (valid) 0x8d-0x8e (1)
    |                                               |                |                x[0:0]: 0x8e-0x8e (0)
    |                                               |                |            [38]{}: seg 0x8e-0x91 (3)
0x80|                                          01   |              . |              tag: 1 (valid) 0x8e-0x8f (1)
0x80|                                             00|               .|              et: "funcref" (0) (valid) 0x8f-0x90 (1)
    |                                               |                |              y{}: 0x90-0x91 (1)
0x90|00                                             |.               |                n: 0 (valid) 0x90-0x91 (1)
    |                                               |                |                x[0:0]: 0x91-0x91 (0)
    |                                               |                |            [39]{}: seg 0x91-0x94 (3)
0x90|   01                                          | .              |              tag: 1 (valid) 0x91-0x92 (1)
0x90|      00                                       |  .             |              et: "funcref" (0) (valid) 0x92-0x93 (1)
    |                                               |                |              y{}: 0x93-0x94 (1)
0x90|         00                                    |   .            |                n: 0 (valid) 0x93-0x94 (1)
    |                                               |                |                x[0:0]: 0x94-0x94 (0)
    |                                               |                |            [40]{}: seg 0x94-0x97 (3)
0x90|            01                                 |    .           |              tag: 1 (valid) 0x94-0x95 (1)
0x90|               00                              |     .          |              et: "funcref" (0) (valid) 0x95-0x96 (1)
    |                                               |                |              y{}: 0x96-0x97 (1)
0x90|                  00                           |      .         |                n: 0 (valid) 0x96-0x97 (1)
    |                                               |                |                x[0:0]: 0x97-0x97 (0)
    |                                               |                |            [41]{}: seg 0x97-0x9a (3)
0x90|                     01                        |       .        |              tag: 1 (valid) 0x97-0x98 (1)
0x90|                        00                     |        .       |              et: "funcref" (0) (valid) 0x98-0x99 (1)
    |                                               |                |              y{}: 0x99-0x9a (1)
0x90|                           00                  |         .      |                n: 0 (valid) 0x99-0x9a (1)
    |                                               |                |                x[0:0]: 0x9a-0x9a (0)
    |                                               |                |            [42]{}: seg 0x9a-0x9d (3)
0x90|                              01               |          .     |              tag: 1 (valid) 0x9a-0x9b (1)
0x90|                                 00            |           .    |              et: "funcref" (0) (valid) 0x9b-0x9c (1)
    |                                               |                |              y{}: 0x9c-0x9d (1)
0x90|                                    00         |            .   |                n: 0 (valid) 0x9c-0x9d (1)
    |                                               |                |                x[0:0]: 0x9d-0x9d (0)
    |                                               |                |            [43]{}: seg 0x9d-0xa0 (3)
0x90|                                       01      |             .  |              tag: 1 (valid) 0x9d-0x9e (1)
0x90|                                          00   |              . |              et: "funcref" (0) (valid) 0x9e-0x9f (1)
    |                                               |                |              y{}: 0x9f-0xa0 (1)
0x90|                                             00|               .|                n: 0 (valid) 0x9f-0xa0 (1)
    |                                               |                |                x[0:0]: 0xa0-0xa0 (0)
    |                                               |                |            [44]{}: seg 0xa0-0xa3 (3)
0xa0|01                                             |.               |              tag: 1 (valid) 0xa0-0xa1 (1)
0xa0|   00                                          | .              |              et: "funcref" (0) (valid) 0xa1-0xa2 (1)
    |                                               |                |              y{}: 0xa2-0xa3 (1)
0xa0|      00                                       |  .             |                n: 0 (valid) 0xa2-0xa3 (1)
    |                                               |                |                x[0:0]: 0xa3-0xa3 (0)
    |                                               |                |            [45]{}: seg 0xa3-0xa6 (3)
0xa0|         01                                    |   .            |              tag: 1 (valid) 0xa3-0xa4 (1)
0xa0|            00                                 |    .           |              et: "funcref" (0) (valid) 0xa4-0xa5 (1)
    |                                               |                |              y{}: 0xa5-0xa6 (1)
0xa0|               00                              |     .          |                n: 0 (valid) 0xa5-0xa6 (1)
    |                                               |                |                x[0:0]: 0xa6-0xa6 (0)
    |                                               |                |            [46]{}: seg 0xa6-0xa9 (3)
0xa0|                  01                           |      .         |              tag: 1 (valid) 0xa6-0xa7 (1)
0xa0|                     00                        |       .        |              et: "funcref" (0) (valid) 0xa7-0xa8 (1)
    |                                               |                |              y{}: 0xa8-0xa9 (1)
0xa0|                        00                     |        .       |                n: 0 (valid) 0xa8-0xa9 (1)
    |                                               |                |                x[0:0]: 0xa9-0xa9 (0)
    |                                               |                |            [47]{}: seg 0xa9-0xac (3)
0xa0|                           01                  |         .      |              tag: 1 (valid) 0xa9-0xaa (1)
0xa0|                              00               |          .     |              et: "funcref" (0) (valid) 0xaa-0xab (1)
    |                                               |                |              y{}: 0xab-0xac (1)
0xa0|                                 00            |           .    |                n: 0 (valid) 0xab-0xac (1)
    |                                               |                |                x[0:0]: 0xac-0xac (0)
    |                                               |                |            [48]{}: seg 0xac-0xaf (3)
0xa0|                                    01         |            .   |              tag: 1 (valid) 0xac-0xad (1)
0xa0|                                       00      |             .  |              et: "funcref" (0) (valid) 0xad-0xae (1)
    |                                               |                |              y{}: 0xae-0xaf (1)
0xa0|                                          00   |              . |                n: 0 (valid) 0xae-0xaf (1)
    |                                               |                |                x[0:0]: 0xaf-0xaf (0)
    |                                               |                |            [49]{}: seg 0xaf-0xb2 (3)
0xa0|                                             01|               .|              tag: 1 (valid) 0xaf-0xb0 (1)
0xb0|00                                             |.               |              et: "funcref" (0) (valid) 0xb0-0xb1 (1)
    |                                               |                |              y{}: 0xb1-0xb2 (1)
0xb0|   00                                          | .              |                n: 0 (valid) 0xb1-0xb2 (1)
    |                                               |                |                x[0:0]: 0xb2-0xb2 (0)
    |                                               |                |            [50]{}: seg 0xb2-0xb5 (3)
0xb0|      01                                       |  .             |              tag: 1 (valid) 0xb2-0xb3 (1)
0xb0|         00                                    |   .            |              et: "funcref" (0) (valid) 0xb3-0xb4 (1)
    |                                               |                |              y{}: 0xb4-0xb5 (1)
0xb0|            00                                 |    .           |                n: 0 (valid) 0xb4-0xb5 (1)
    |                                               |                |                x[0:0]: 0xb5-0xb5 (0)
    |                                               |                |            [51]{}: seg 0xb5-0xb8 (3)
0xb0|               01                              |     .          |              tag: 1 (valid) 0xb5-0xb6 (1)
0xb0|                  00                           |      .         |              et: "funcref" (0) (valid) 0xb6-0xb7 (1)
    |                                               |                |              y{}: 0xb7-0xb8 (1)
0xb0|                     00                        |       .        |                n: 0 (valid) 0xb7-0xb8 (1)
    |                                               |                |                x[0:0]: 0xb8-0xb8 (0)
    |                                               |                |            [52]{}: seg 0xb8-0xbb (3)
0xb0|                        01                     |        .       |              tag: 1 (valid) 0xb8-0xb9 (1)
0xb0|                           00                  |         .      |              et: "funcref" (0) (valid) 0xb9-0xba (1)
    |                                               |                |              y{}: 0xba-0xbb (1)
0xb0|                              00               |          .     |                n: 0 (valid) 0xba-0xbb (1)
    |                                               |                |                x[0:0]: 0xbb-0xbb (0)
    |                                               |                |            [53]{}: seg 0xbb-0xbe (3)
0xb0|                                 01            |           .    |              tag: 1 (valid) 0xbb-0xbc (1)
0xb0|                                    00         |            .   |              et: "funcref" (0) (valid) 0xbc-0xbd (1)
    |                                               |                |              y{}: 0xbd-0xbe (1)
0xb0|                                       00      |             .  |                n: 0 (valid) 0xbd-0xbe (1)
    |                                               |                |                x[0:0]: 0xbe-0xbe (0)
    |                                               |                |            [54]{}: seg 0xbe-0xc1 (3)
0xb0|                                          01   |              . |              tag: 1 (valid) 0xbe-0xbf (1)
0xb0|                                             00|               .|              et: "funcref" (0) (valid) 0xbf-0xc0 (1)
    |                                               |                |              y{}: 0xc0-0xc1 (1)
0xc0|00                                             |.               |                n: 0 (valid) 0xc0-0xc1 (1)
    |                                               |                |                x[0:0]: 0xc1-0xc1 (0)
    |                                               |                |            [55]{}: seg 0xc1-0xc4 (3)
0xc0|   01                                          | .              |              tag: 1 (valid) 0xc1-0xc2 (1)
0xc0|      00                                       |  .             |              et: "funcref" (0) (valid) 0xc2-0xc3 (1)
    |                                               |                |              y{}: 0xc3-0xc4 (1)
0xc0|         00                                    |   .            |                n: 0 (valid) 0xc3-0xc4 (1)
    |                                               |                |                x[0:0]: 0xc4-0xc4 (0)
    |                                               |                |            [56]{}: seg 0xc4-0xc7 (3)
0xc0|            01                                 |    .           |              tag: 1 (valid) 0xc4-0xc5 (1)
0xc0|               00                              |     .          |              et: "funcref" (0) (valid) 0xc5-0xc6 (1)
    |                                               |                |              y{}: 0xc6-0xc7 (1)
0xc0|                  00                           |      .         |                n: 0 (valid) 0xc6-0xc7 (1)
    |                                               |                |                x[0:0]: 0xc7-0xc7 (0)
    |                                               |                |            [57]{}: seg 0xc7-0xca (3)
0xc0|                     01                        |       .        |              tag: 1 (valid) 0xc7-0xc8 (1)
0xc0|                        00                     |        .       |              et: "funcref" (0) (valid) 0xc8-0xc9 (1)
    |                                               |                |              y{}: 0xc9-0xca (1)
0xc0|                           00                  |         .      |                n: 0 (valid) 0xc9-0xca (1)
    |                                               |                |                x[0:0]: 0xca-0xca (0)
    |                                               |                |            [58]{}: seg 0xca-0xcd (3)
0xc0|                              01               |          .     |              tag: 1 (valid) 0xca-0xcb (1)
0xc0|                                 00            |           .    |              et: "funcref" (0) (valid) 0xcb-0xcc (1)
    |                                               |                |              y{}: 0xcc-0xcd (1)
0xc0|                                    00         |            .   |                n: 0 (valid) 0xcc-0xcd (1)
    |                                               |                |                x[0:0]: 0xcd-0xcd (0)
    |                                               |                |            [59]{}: seg 0xcd-0xd0 (3)
0xc0|                                       01      |             .  |              tag: 1 (valid) 0xcd-0xce (1)
0xc0|                                          00   |              . |              et: "funcref" (0) (valid) 0xce-0xcf (1)
    |                                               |                |              y{}: 0xcf-0xd0 (1)
0xc0|                                             00|               .|                n: 0 (valid) 0xcf-0xd0 (1)
    |                                               |                |                x[0:0]: 0xd0-0xd0 (0)
    |                                               |                |            [60]{}: seg 0xd0-0xd3 (3)
0xd0|01                                             |.               |              tag: 1 (valid) 0xd0-0xd1 (1)
0xd0|   00                                          | .              |              et: "funcref" (0) (valid) 0xd1-0xd2 (1)
    |                                               |                |              y{}: 0xd2-0xd3 (1)
0xd0|      00                                       |  .             |                n: 0 (valid) 0xd2-0xd3 (1)
    |                                               |                |                x[0:0]: 0xd3-0xd3 (0)
    |                                               |                |            [61]{}: seg 0xd3-0xd6 (3)
0xd0|         01                                    |   .            |              tag: 1 (valid) 0xd3-0xd4 (1)
0xd0|            00                                 |    .           |              et: "funcref" (0) (valid) 0xd4-0xd5 (1)
    |                                               |                |              y{}: 0xd5-0xd6 (1)
0xd0|               00                              |     .          |                n: 0 (valid) 0xd5-0xd6 (1)
    |                                               |                |                x[0:0]: 0xd6-0xd6 (0)
    |                                               |                |            [62]{}: seg 0xd6-0xd9 (3)
0xd0|                  01                           |      .         |              tag: 1 (valid) 0xd6-0xd7 (1)
0xd0|                     00                        |       .        |              et: "funcref" (0) (valid) 0xd7-0xd8 (1)
    |                                               |                |              y{}: 0xd8-0xd9 (1)
0xd0|                        00                     |        .       |                n: 0 (valid) 0xd8-0xd9 (1)
    |                                               |                |                x[0:0]: 0xd9-0xd9 (0)
    |                                               |                |            [63]{}: seg 0xd9-0xdc (3)
0xd0|                           01                  |         .      |              tag: 1 (valid) 0xd9-0xda (1)
0xd0|                              00               |          .     |              et: "funcref" (0) (valid) 0xda-0xdb (1)
    |                                               |                |              y{}: 0xdb-0xdc (1)
0xd0|                                 00            |           .    |                n: 0 (valid) 0xdb-0xdc (1)
    |                                               |                |                x[0:0]: 0xdc-0xdc (0)
    |                                               |                |            [64]{}: seg 0xdc-0xdf (3)
0xd0|                                    01         |            .   |              tag: 1 (valid) 0xdc-0xdd (1)
0xd0|                                       00      |             .  |              et: "funcref" (0) (valid) 0xdd-0xde (1)
    |                                               |                |              y{}: 0xde-0xdf (1)
0xd0|                                          00   |              . |                n: 0 (valid) 0xde-0xdf (1)
    |                                               |                |                x[0:0]: 0xdf-0xdf (0)
    |                                               |                |    [4]{}: section 0xdf-0xef (16)
0xd0|                                             0a|               .|      id: "code_section" (10) 0xdf-0xe0 (1)
0xe0|0e                                             |.               |      size: 14 (valid) 0xe0-0xe1 (1)
    |                                               |                |      content{}: 0xe1-0xef (14)
    |                                               |                |        code{}: 0xe1-0xef (14)
0xe0|   01                                          | .              |          n: 1 (valid) 0xe1-0xe2 (1)
    |                                               |                |          x[0:1]: 0xe2-0xef (13)
    |                                               |                |            [0]{}: code 0xe2-0xef (13)
0xe0|      0c                                       |  .             |              size: 12 (valid) 0xe2-0xe3 (1)
    |                                               |                |              code{}: 0xe3-0xef (12)
    |                                               |                |                t{}: 0xe3-0xe4 (1)
0xe0|         00                                    |   .            |                  n: 0 (valid) 0xe3-0xe4 (1)
    |                                               |                |                  x[0:0]: 0xe4-0xe4 (0)
    |                                               |                |                e[0:5]: 0xe4-0xef (11)
    |                                               |                |                  [0]{}: in 0xe4-0xe6 (2)
0xe0|            41                                 |    A           |                    opcode: "i32.const" (0x41) 0xe4-0xe5 (1)
0xe0|               00                              |     .          |                    n: 0 (valid) 0xe5-0xe6 (1)
    |                                               |                |                  [1]{}: in 0xe6-0xe8 (2)
0xe0|                  41                           |      A         |                    opcode: "i32.const" (0x41) 0xe6-0xe7 (1)
0xe0|                     00                        |       .        |                    n: 0 (valid) 0xe7-0xe8 (1)
    |                                               |                |                  [2]{}: in 0xe8-0xea (2)
0xe0|                        41                     |        A       |                    opcode: "i32.const" (0x41) 0xe8-0xe9 (1)
0xe0|                           00                  |         .      |                    n: 0 (valid) 0xe9-0xea (1)
    |                                               |                |                  [3]{}: in 0xea-0xee (4)
0xe0|                              fc               |          .     |                    opcode: "prefix" (0xfc) 0xea-0xeb (1)
0xe0|                                 0c            |           .    |                    p_opcode: "table.init" (12) 0xeb-0xec (1)
0xe0|                                    40         |            @   |                    y: 64 (valid) 0xec-0xed (1)
0xe0|                                       00      |             .  |                    x: 0 (valid) 0xed-0xee (1)
    |                                               |                |                  [4]{}: in 0xee-0xef (1)
0xe0|                                          0b|  |              .||                    opcode: "end" (0xb) 0xee-0xef (1)
