$ fq -d wasm dv table-8.wasm
    |00 01 02 03 04 05 06 07 08 09 0a 0b 0c 0d 0e 0f|0123456789abcdef|.{}: table-8.wasm (wasm) 0x0-0x23.7 (36)
0x00|00 61 73 6d                                    |.asm            |  magic: raw bits (valid) 0x0-0x3.7 (4)
0x00|            01 00 00 00                        |    ....        |  version: 1 0x4-0x7.7 (4)
    |                                               |                |  sections[0:2]: 0x8-0x23.7 (28)
    |                                               |                |    [0]{}: section 0x8-0x1d.7 (22)
0x00|                        02                     |        .       |      id: "import section" (2) 0x8-0x8.7 (1)
0x00|                           14                  |         .      |      size: 20 0x9-0x9.7 (1)
    |                                               |                |      content{}: 0xa-0x1d.7 (20)
    |                                               |                |        im{}: 0xa-0x1d.7 (20)
0x00|                              01               |          .     |          n: 1 0xa-0xa.7 (1)
    |                                               |                |          x[0:1]: 0xb-0x1d.7 (19)
    |                                               |                |            [0]{}: im 0xb-0x1d.7 (19)
    |                                               |                |              mod{}: 0xb-0x13.7 (9)
0x00|                                 08            |           .    |                n: 8 0xb-0xb.7 (1)
0x00|                                    73 70 65 63|            spec|                b: "spectest" 0xc-0x13.7 (8)
0x10|74 65 73 74                                    |test            |
    |                                               |                |              nm{}: 0x14-0x19.7 (6)
0x10|            05                                 |    .           |                n: 5 0x14-0x14.7 (1)
0x10|               74 61 62 6c 65                  |     table      |                b: "table" 0x15-0x19.7 (5)
    |                                               |                |              d{}: 0x1a-0x1d.7 (4)
0x10|                              01               |          .     |                tag: "table" (0x1) 0x1a-0x1a.7 (1)
    |                                               |                |                tt{}: 0x1b-0x1d.7 (3)
0x10|                                 70            |           p    |                  et: "funcref" (112) 0x1b-0x1b.7 (1)
    |                                               |                |                  lim{}: 0x1c-0x1d.7 (2)
0x10|                                    00         |            .   |                    tag: 0x0 0x1c-0x1c.7 (1)
0x10|                                       00      |             .  |                    n: 0 0x1d-0x1d.7 (1)
    |                                               |                |    [1]{}: section 0x1e-0x23.7 (6)
0x10|                                          04   |              . |      id: "table section" (4) 0x1e-0x1e.7 (1)
0x10|                                             04|               .|      size: 4 0x1f-0x1f.7 (1)
    |                                               |                |      content{}: 0x20-0x23.7 (4)
    |                                               |                |        tab{}: 0x20-0x23.7 (4)
0x20|01                                             |.               |          n: 1 0x20-0x20.7 (1)
    |                                               |                |          x[0:1]: 0x21-0x23.7 (3)
    |                                               |                |            [0]{}: tab 0x21-0x23.7 (3)
0x20|   70                                          | p              |              et: "funcref" (112) 0x21-0x21.7 (1)
    |                                               |                |              lim{}: 0x22-0x23.7 (2)
0x20|      00                                       |  .             |                tag: 0x0 0x22-0x22.7 (1)
0x20|         00|                                   |   .|           |                n: 0 0x23-0x23.7 (1)
