$ fq -d wasm dv table_init-6.wasm
     |00 01 02 03 04 05 06 07 08 09 0a 0b 0c 0d 0e 0f|0123456789abcdef|.{}: table_init-6.wasm (wasm) 0x0-0x105 (261)
0x000|00 61 73 6d                                    |.asm            |  magic: raw bits (valid) 0x0-0x4 (4)
0x000|            01 00 00 00                        |    ....        |  version: 1 0x4-0x8 (4)
     |                                               |                |  sections[0:7]: 0x8-0x105 (253)
     |                                               |                |    [0]{}: section 0x8-0x17 (15)
0x000|                        01                     |        .       |      id: "type_section" (1) 0x8-0x9 (1)
0x000|                           0d                  |         .      |      size: 13 (valid) 0x9-0xa (1)
     |                                               |                |      content{}: 0xa-0x17 (13)
     |                                               |                |        ft{}: 0xa-0x17 (13)
0x000|                              03               |          .     |          n: 3 (valid) 0xa-0xb (1)
     |                                               |                |          x[0:3]: 0xb-0x17 (12)
     |                                               |                |            [0]{}: ft 0xb-0xf (4)
0x000|                                 60            |           `    |              tag: 0x60 (valid) 0xb-0xc (1)
     |                                               |                |              rt1{}: 0xc-0xd (1)
0x000|                                    00         |            .   |                n: 0 (valid) 0xc-0xd (1)
     |                                               |                |                x[0:0]: 0xd-0xd (0)
     |                                               |                |              rt2{}: 0xd-0xf (2)
0x000|                                       01      |             .  |                n: 1 (valid) 0xd-0xe (1)
     |                                               |                |                x[0:1]: 0xe-0xf (1)
0x000|                                          7f   |              . |                  [0]: "i32" (0x7f) t 0xe-0xf (1)
     |                                               |                |            [1]{}: ft 0xf-0x12 (3)
0x000|                                             60|               `|              tag: 0x60 (valid) 0xf-0x10 (1)
     |                                               |                |              rt1{}: 0x10-0x11 (1)
0x010|00                                             |.               |                n: 0 (valid) 0x10-0x11 (1)
     |                                               |                |                x[0:0]: 0x11-0x11 (0)
     |                                               |                |              rt2{}: 0x11-0x12 (1)
0x010|   00                                          | .              |                n: 0 (valid) 0x11-0x12 (1)
     |                                               |                |                x[0:0]: 0x12-0x12 (0)
     |                                               |                |            [2]{}: ft 0x12-0x17 (5)
0x010|      60                                       |  `             |              tag: 0x60 (valid) 0x12-0x13 (1)
     |                                               |                |              rt1{}: 0x13-0x15 (2)
0x010|         01                                    |   .            |                n: 1 (valid) 0x13-0x14 (1)
     |                                               |                |                x[0:1]: 0x14-0x15 (1)
0x010|            7f                                 |    .           |                  [0]: "i32" (0x7f) t 0x14-0x15 (1)
     |                                               |                |              rt2{}: 0x15-0x17 (2)
0x010|               01                              |     .          |                n: 1 (valid) 0x15-0x16 (1)
     |                                               |                |                x[0:1]: 0x16-0x17 (1)
0x010|                  7f                           |      .         |                  [0]: "i32" (0x7f) t 0x16-0x17 (1)
     |                                               |                |    [1]{}: section 0x17-0x42 (43)
0x010|                     02                        |       .        |      id: "import_section" (2) 0x17-0x18 (1)
0x010|                        29                     |        )       |      size: 41 (valid) 0x18-0x19 (1)
     |                                               |                |      content{}: 0x19-0x42 (41)
     |                                               |                |        im{}: 0x19-0x42 (41)
0x010|                           05                  |         .      |          n: 5 (valid) 0x19-0x1a (1)
     |                                               |                |          x[0:5]: 0x1a-0x42 (40)
     |                                               |                |            [0]{}: im 0x1a-0x22 (8)
     |                                               |                |              mod{}: 0x1a-0x1c (2)
0x010|                              01               |          .     |                n: 1 (valid) 0x1a-0x1b (1)
0x010|                                 61            |           a    |                b: "a" 0x1b-0x1c (1)
     |                                               |                |              nm{}: 0x1c-0x20 (4)
0x010|                                    03         |            .   |                n: 3 (valid) 0x1c-0x1d (1)
0x010|                                       65 66 30|             ef0|                b: "ef0" 0x1d-0x20 (3)
     |                                               |                |              d{}: 0x20-0x22 (2)
0x020|00                                             |.               |                tag: "func" (0x0) 0x20-0x21 (1)
0x020|   00                                          | .              |                x: 0 (valid) 0x21-0x22 (1)
     |                                               |                |            [1]{}: im 0x22-0x2a (8)
     |                                               |                |              mod{}: 0x22-0x24 (2)
0x020|      01                                       |  .             |                n: 1 (valid) 0x22-0x23 (1)
0x020|         61                                    |   a            |                b: "a" 0x23-0x24 (1)
     |                                               |                |              nm{}: 0x24-0x28 (4)
0x020|            03                                 |    .           |                n: 3 (valid) 0x24-0x25 (1)
0x020|               65 66 31                        |     ef1        |                b: "ef1" 0x25-0x28 (3)
     |                                               |                |              d{}: 0x28-0x2a (2)
0x020|                        00                     |        .       |                tag: "func" (0x0) 0x28-0x29 (1)
0x020|                           00                  |         .      |                x: 0 (valid) 0x29-0x2a (1)
     |                                               |                |            [2]{}: im 0x2a-0x32 (8)
     |                                               |                |              mod{}: 0x2a-0x2c (2)
0x020|                              01               |          .     |                n: 1 (valid) 0x2a-0x2b (1)
0x020|                                 61            |           a    |                b: "a" 0x2b-0x2c (1)
     |                                               |                |              nm{}: 0x2c-0x30 (4)
0x020|                                    03         |            .   |                n: 3 (valid) 0x2c-0x2d (1)
0x020|                                       65 66 32|             ef2|                b: "ef2" 0x2d-0x30 (3)
     |                                               |                |              d{}: 0x30-0x32 (2)
0x030|00                                             |.               |                tag: "func" (0x0) 0x30-0x31 (1)
0x030|   00                                          | .              |                x: 0 (valid) 0x31-0x32 (1)
     |                                               |                |            [3]{}: im 0x32-0x3a (8)
     |                                               |                |              mod{}: 0x32-0x34 (2)
0x030|      01                                       |  .             |                n: 1 (valid) 0x32-0x33 (1)
0x030|         61                                    |   a            |                b: "a" 0x33-0x34 (1)
     |                                               |                |              nm{}: 0x34-0x38 (4)
0x030|            03                                 |    .           |                n: 3 (valid) 0x34-0x35 (1)
0x030|               65 66 33                        |     ef3        |                b: "ef3" 0x35-0x38 (3)
     |                                               |                |              d{}: 0x38-0x3a (2)
0x030|                        00                     |        .       |                tag: "func" (0x0) 0x38-0x39 (1)
0x030|                           00                  |         .      |                x: 0 (valid) 0x39-0x3a (1)
     |                                               |                |            [4]{}: im 0x3a-0x42 (8)
     |                                               |                |              mod{}: 0x3a-0x3c (2)
0x030|                              01               |          .     |                n: 1 (valid) 0x3a-0x3b (1)
0x030|                                 61            |           a    |                b: "a" 0x3b-0x3c (1)
     |                                               |                |              nm{}: 0x3c-0x40 (4)
0x030|                                    03         |            .   |                n: 3 (valid) 0x3c-0x3d (1)
0x030|                                       65 66 34|             ef4|                b: "ef4" 0x3d-0x40 (3)
     |                                               |                |              d{}: 0x40-0x42 (2)
0x040|00                                             |.               |                tag: "func" (0x0) 0x40-0x41 (1)
0x040|   00                                          | .              |                x: 0 (valid) 0x41-0x42 (1)
     |                                               |                |    [2]{}: section 0x42-0x4c (10)
0x040|      03                                       |  .             |      id: "function_section" (3) 0x42-0x43 (1)
0x040|         08                                    |   .            |      size: 8 (valid) 0x43-0x44 (1)
     |                                               |                |      content{}: 0x44-0x4c (8)
     |                                               |                |        x{}: 0x44-0x4c (8)
0x040|            07                                 |    .           |          n: 7 (valid) 0x44-0x45 (1)
     |                                               |                |          x[0:7]: 0x45-0x4c (7)
0x040|               00                              |     .          |            [0]: 0 x (valid) 0x45-0x46 (1)
0x040|                  00                           |      .         |            [1]: 0 x (valid) 0x46-0x47 (1)
0x040|                     00                        |       .        |            [2]: 0 x (valid) 0x47-0x48 (1)
0x040|                        00                     |        .       |            [3]: 0 x (valid) 0x48-0x49 (1)
0x040|                           00                  |         .      |            [4]: 0 x (valid) 0x49-0x4a (1)
0x040|                              01               |          .     |            [5]: 1 x (valid) 0x4a-0x4b (1)
0x040|                                 02            |           .    |            [6]: 2 x (valid) 0x4b-0x4c (1)
     |                                               |                |    [3]{}: section 0x4c-0x57 (11)
0x040|                                    04         |            .   |      id: "table_section" (4) 0x4c-0x4d (1)
0x040|                                       09      |             .  |      size: 9 (valid) 0x4d-0x4e (1)
     |                                               |                |      content{}: 0x4e-0x57 (9)
     |                                               |                |        tab{}: 0x4e-0x57 (9)
0x040|                                          02   |              . |          n: 2 (valid) 0x4e-0x4f (1)
     |                                               |                |          x[0:2]: 0x4f-0x57 (8)
     |                                               |                |            [0]{}: tab 0x4f-0x53 (4)
0x040|                                             70|               p|              et: "funcref" (112) 0x4f-0x50 (1)
     |                                               |                |              lim{}: 0x50-0x53 (3)
0x050|01                                             |.               |                tag: 0x1 0x50-0x51 (1)
0x050|   1e                                          | .              |                n: 30 (valid) 0x51-0x52 (1)
0x050|      1e                                       |  .             |                m: 30 (valid) 0x52-0x53 (1)
     |                                               |                |            [1]{}: tab 0x53-0x57 (4)
0x050|         70                                    |   p            |              et: "funcref" (112) 0x53-0x54 (1)
     |                                               |                |              lim{}: 0x54-0x57 (3)
0x050|            01                                 |    .           |                tag: 0x1 0x54-0x55 (1)
0x050|               1e                              |     .          |                n: 30 (valid) 0x55-0x56 (1)
0x050|                  1e                           |      .         |                m: 30 (valid) 0x56-0x57 (1)
     |                                               |                |    [4]{}: section 0x57-0x69 (18)
0x050|                     07                        |       .        |      id: "export_section" (7) 0x57-0x58 (1)
0x050|                        10                     |        .       |      size: 16 (valid) 0x58-0x59 (1)
     |                                               |                |      content{}: 0x59-0x69 (16)
     |                                               |                |        ex{}: 0x59-0x69 (16)
0x050|                           02                  |         .      |          n: 2 (valid) 0x59-0x5a (1)
     |                                               |                |          x[0:2]: 0x5a-0x69 (15)
     |                                               |                |            [0]{}: ex 0x5a-0x61 (7)
     |                                               |                |              nm{}: 0x5a-0x5f (5)
0x050|                              04               |          .     |                n: 4 (valid) 0x5a-0x5b (1)
0x050|                                 74 65 73 74   |           test |                b: "test" 0x5b-0x5f (4)
     |                                               |                |              d{}: 0x5f-0x61 (2)
0x050|                                             00|               .|                tag: "funcidx" (0x0) 0x5f-0x60 (1)
0x060|0a                                             |.               |                x: 10 (valid) 0x60-0x61 (1)
     |                                               |                |            [1]{}: ex 0x61-0x69 (8)
     |                                               |                |              nm{}: 0x61-0x67 (6)
0x060|   05                                          | .              |                n: 5 (valid) 0x61-0x62 (1)
0x060|      63 68 65 63 6b                           |  check         |                b: "check" 0x62-0x67 (5)
     |                                               |                |              d{}: 0x67-0x69 (2)
0x060|                     00                        |       .        |                tag: "funcidx" (0x0) 0x67-0x68 (1)
0x060|                        0b                     |        .       |                x: 11 (valid) 0x68-0x69 (1)
     |                                               |                |    [5]{}: section 0x69-0x92 (41)
0x060|                           09                  |         .      |      id: "element_section" (9) 0x69-0x6a (1)
0x060|                              27               |          '     |      size: 39 (valid) 0x6a-0x6b (1)
     |                                               |                |      element{}: 0x6b-0x92 (39)
     |                                               |                |        seg{}: 0x6b-0x92 (39)
0x060|                                 04            |           .    |          n: 4 (valid) 0x6b-0x6c (1)
     |                                               |                |          x[0:4]: 0x6c-0x92 (38)
     |                                               |                |            [0]{}: seg 0x6c-0x77 (11)
0x060|                                    02         |            .   |              tag: 2 (valid) 0x6c-0x6d (1)
0x060|                                       01      |             .  |              x: 1 (valid) 0x6d-0x6e (1)
     |                                               |                |              e[0:2]: 0x6e-0x71 (3)
     |                                               |                |                [0]{}: in 0x6e-0x70 (2)
0x060|                                          41   |              A |                  opcode: "i32.const" (0x41) 0x6e-0x6f (1)
0x060|                                             02|               .|                  n: 2 (valid) 0x6f-0x70 (1)
     |                                               |                |                [1]{}: in 0x70-0x71 (1)
0x070|0b                                             |.               |                  opcode: "end" (0xb) 0x70-0x71 (1)
0x070|   00                                          | .              |              et: "funcref" (0) (valid) 0x71-0x72 (1)
     |                                               |                |              y{}: 0x72-0x77 (5)
0x070|      04                                       |  .             |                n: 4 (valid) 0x72-0x73 (1)
     |                                               |                |                x[0:4]: 0x73-0x77 (4)
0x070|         03                                    |   .            |                  [0]: 3 y (valid) 0x73-0x74 (1)
0x070|            01                                 |    .           |                  [1]: 1 y (valid) 0x74-0x75 (1)
0x070|               04                              |     .          |                  [2]: 4 y (valid) 0x75-0x76 (1)
0x070|                  01                           |      .         |                  [3]: 1 y (valid) 0x76-0x77 (1)
     |                                               |                |            [1]{}: seg 0x77-0x7e (7)
0x070|                     01                        |       .        |              tag: 1 (valid) 0x77-0x78 (1)
0x070|                        00                     |        .       |              et: "funcref" (0) (valid) 0x78-0x79 (1)
     |                                               |                |              y{}: 0x79-0x7e (5)
0x070|                           04                  |         .      |                n: 4 (valid) 0x79-0x7a (1)
     |                                               |                |                x[0:4]: 0x7a-0x7e (4)
0x070|                              02               |          .     |                  [0]: 2 y (valid) 0x7a-0x7b (1)
0x070|                                 07            |           .    |                  [1]: 7 y (valid) 0x7b-0x7c (1)
0x070|                                    01         |            .   |                  [2]: 1 y (valid) 0x7c-0x7d (1)
0x070|                                       08      |             .  |                  [3]: 8 y (valid) 0x7d-0x7e (1)
     |                                               |                |            [2]{}: seg 0x7e-0x8a (12)
0x070|                                          02   |              . |              tag: 2 (valid) 0x7e-0x7f (1)
0x070|                                             01|               .|              x: 1 (valid) 0x7f-0x80 (1)
     |                                               |                |              e[0:2]: 0x80-0x83 (3)
     |                                               |                |                [0]{}: in 0x80-0x82 (2)
0x080|41                                             |A               |                  opcode: "i32.const" (0x41) 0x80-0x81 (1)
0x080|   0c                                          | .              |                  n: 12 (valid) 0x81-0x82 (1)
     |                                               |                |                [1]{}: in 0x82-0x83 (1)
0x080|      0b                                       |  .             |                  opcode: "end" (0xb) 0x82-0x83 (1)
0x080|         00                                    |   .            |              et: "funcref" (0) (valid) 0x83-0x84 (1)
     |                                               |                |              y{}: 0x84-0x8a (6)
0x080|            05                                 |    .           |                n: 5 (valid) 0x84-0x85 (1)
     |                                               |                |                x[0:5]: 0x85-0x8a (5)
0x080|               07                              |     .          |                  [0]: 7 y (valid) 0x85-0x86 (1)
0x080|                  05                           |      .         |                  [1]: 5 y (valid) 0x86-0x87 (1)
0x080|                     02                        |       .        |                  [2]: 2 y (valid) 0x87-0x88 (1)
0x080|                        03                     |        .       |                  [3]: 3 y (valid) 0x88-0x89 (1)
0x080|                           06                  |         .      |                  [4]: 6 y (valid) 0x89-0x8a (1)
     |                                               |                |            [3]{}: seg 0x8a-0x92 (8)
0x080|                              01               |          .     |              tag: 1 (valid) 0x8a-0x8b (1)
0x080|                                 00            |           .    |              et: "funcref" (0) (valid) 0x8b-0x8c (1)
     |                                               |                |              y{}: 0x8c-0x92 (6)
0x080|                                    05         |            .   |                n: 5 (valid) 0x8c-0x8d (1)
     |                                               |                |                x[0:5]: 0x8d-0x92 (5)
0x080|                                       05      |             .  |                  [0]: 5 y (valid) 0x8d-0x8e (1)
0x080|                                          09   |              . |                  [1]: 9 y (valid) 0x8e-0x8f (1)
0x080|                                             02|               .|                  [2]: 2 y (valid) 0x8f-0x90 (1)
0x090|07                                             |.               |                  [3]: 7 y (valid) 0x90-0x91 (1)
0x090|   06                                          | .              |                  [4]: 6 y (valid) 0x91-0x92 (1)
     |                                               |                |    [6]{}: section 0x92-0x105 (115)
0x090|      0a                                       |  .             |      id: "code_section" (10) 0x92-0x93 (1)
0x090|         71                                    |   q            |      size: 113 (valid) 0x93-0x94 (1)
     |                                               |                |      content{}: 0x94-0x105 (113)
     |                                               |                |        code{}: 0x94-0x105 (113)
0x090|            07                                 |    .           |          n: 7 (valid) 0x94-0x95 (1)
     |                                               |                |          x[0:7]: 0x95-0x105 (112)
     |                                               |                |            [0]{}: code 0x95-0x9a (5)
0x090|               04                              |     .          |              size: 4 (valid) 0x95-0x96 (1)
     |                                               |                |              code{}: 0x96-0x9a (4)
     |                                               |                |                t{}: 0x96-0x97 (1)
0x090|                  00                           |      .         |                  n: 0 (valid) 0x96-0x97 (1)
     |                                               |                |                  x[0:0]: 0x97-0x97 (0)
     |                                               |                |                e[0:2]: 0x97-0x9a (3)
     |                                               |                |                  [0]{}: in 0x97-0x99 (2)
0x090|                     41                        |       A        |                    opcode: "i32.const" (0x41) 0x97-0x98 (1)
0x090|                        05                     |        .       |                    n: 5 (valid) 0x98-0x99 (1)
     |                                               |                |                  [1]{}: in 0x99-0x9a (1)
0x090|                           0b                  |         .      |                    opcode: "end" (0xb) 0x99-0x9a (1)
     |                                               |                |            [1]{}: code 0x9a-0x9f (5)
0x090|                              04               |          .     |              size: 4 (valid) 0x9a-0x9b (1)
     |                                               |                |              code{}: 0x9b-0x9f (4)
     |                                               |                |                t{}: 0x9b-0x9c (1)
0x090|                                 00            |           .    |                  n: 0 (valid) 0x9b-0x9c (1)
     |                                               |                |                  x[0:0]: 0x9c-0x9c (0)
     |                                               |                |                e[0:2]: 0x9c-0x9f (3)
     |                                               |                |                  [0]{}: in 0x9c-0x9e (2)
0x090|                                    41         |            A   |                    opcode: "i32.const" (0x41) 0x9c-0x9d (1)
0x090|                                       06      |             .  |                    n: 6 (valid) 0x9d-0x9e (1)
     |                                               |                |                  [1]{}: in 0x9e-0x9f (1)
0x090|                                          0b   |              . |                    opcode: "end" (0xb) 0x9e-0x9f (1)
     |                                               |                |            [2]{}: code 0x9f-0xa4 (5)
0x090|                                             04|               .|              size: 4 (valid) 0x9f-0xa0 (1)
     |                                               |                |              code{}: 0xa0-0xa4 (4)
     |                                               |                |                t{}: 0xa0-0xa1 (1)
0x0a0|00                                             |.               |                  n: 0 (valid) 0xa0-0xa1 (1)
     |                                               |                |                  x[0:0]: 0xa1-0xa1 (0)
     |                                               |                |                e[0:2]: 0xa1-0xa4 (3)
     |                                               |                |                  [0]{}: in 0xa1-0xa3 (2)
0x0a0|   41                                          | A              |                    opcode: "i32.const" (0x41) 0xa1-0xa2 (1)
0x0a0|      07                                       |  .             |                    n: 7 (valid) 0xa2-0xa3 (1)
     |                                               |                |                  [1]{}: in 0xa3-0xa4 (1)
0x0a0|         0b                                    |   .            |                    opcode: "end" (0xb) 0xa3-0xa4 (1)
     |                                               |                |            [3]{}: code 0xa4-0xa9 (5)
0x0a0|            04                                 |    .           |              size: 4 (valid) 0xa4-0xa5 (1)
     |                                               |                |              code{}: 0xa5-0xa9 (4)
     |                                               |                |                t{}: 0xa5-0xa6 (1)
0x0a0|               00                              |     .          |                  n: 0 (valid) 0xa5-0xa6 (1)
     |                                               |                |                  x[0:0]: 0xa6-0xa6 (0)
     |                                               |                |                e[0:2]: 0xa6-0xa9 (3)
     |                                               |                |                  [0]{}: in 0xa6-0xa8 (2)
0x0a0|                  41                           |      A         |                    opcode: "i32.const" (0x41) 0xa6-0xa7 (1)
0x0a0|                     08                        |       .        |                    n: 8 (valid) 0xa7-0xa8 (1)
     |                                               |                |                  [1]{}: in 0xa8-0xa9 (1)
0x0a0|                        0b                     |        .       |                    opcode: "end" (0xb) 0xa8-0xa9 (1)
     |                                               |                |            [4]{}: code 0xa9-0xae (5)
0x0a0|                           04                  |         .      |              size: 4 (valid) 0xa9-0xaa (1)
     |                                               |                |              code{}: 0xaa-0xae (4)
     |                                               |                |                t{}: 0xaa-0xab (1)
0x0a0|                              00               |          .     |                  n: 0 (valid) 0xaa-0xab (1)
     |                                               |                |                  x[0:0]: 0xab-0xab (0)
     |                                               |                |                e[0:2]: 0xab-0xae (3)
     |                                               |                |                  [0]{}: in 0xab-0xad (2)
0x0a0|                                 41            |           A    |                    opcode: "i32.const" (0x41) 0xab-0xac (1)
0x0a0|                                    09         |            .   |                    n: 9 (valid) 0xac-0xad (1)
     |                                               |                |                  [1]{}: in 0xad-0xae (1)
0x0a0|                                       0b      |             .  |                    opcode: "end" (0xb) 0xad-0xae (1)
     |                                               |                |            [5]{}: code 0xae-0xfd (79)
0x0a0|                                          4e   |              N |              size: 78 (valid) 0xae-0xaf (1)
     |                                               |                |              code{}: 0xaf-0xfd (78)
     |                                               |                |                t{}: 0xaf-0xb0 (1)
0x0a0|                                             00|               .|                  n: 0 (valid) 0xaf-0xb0 (1)
     |                                               |                |                  x[0:0]: 0xb0-0xb0 (0)
     |                                               |                |                e[0:31]: 0xb0-0xfd (77)
     |                                               |                |                  [0]{}: in 0xb0-0xb2 (2)
0x0b0|41                                             |A               |                    opcode: "i32.const" (0x41) 0xb0-0xb1 (1)
0x0b0|   07                                          | .              |                    n: 7 (valid) 0xb1-0xb2 (1)
     |                                               |                |                  [1]{}: in 0xb2-0xb4 (2)
0x0b0|      41                                       |  A             |                    opcode: "i32.const" (0x41) 0xb2-0xb3 (1)
0x0b0|         00                                    |   .            |                    n: 0 (valid) 0xb3-0xb4 (1)
     |                                               |                |                  [2]{}: in 0xb4-0xb6 (2)
0x0b0|            41                                 |    A           |                    opcode: "i32.const" (0x41) 0xb4-0xb5 (1)
0x0b0|               04                              |     .          |                    n: 4 (valid) 0xb5-0xb6 (1)
     |                                               |                |                  [3]{}: in 0xb6-0xba (4)
0x0b0|                  fc                           |      .         |                    opcode: "prefix" (0xfc) 0xb6-0xb7 (1)
0x0b0|                     0c                        |       .        |                    p_opcode: "table.init" (12) 0xb7-0xb8 (1)
0x0b0|                        01                     |        .       |                    y: 1 (valid) 0xb8-0xb9 (1)
0x0b0|                           01                  |         .      |                    x: 1 (valid) 0xb9-0xba (1)
     |                                               |                |                  [4]{}: in 0xba-0xbd (3)
0x0b0|                              fc               |          .     |                    opcode: "prefix" (0xfc) 0xba-0xbb (1)
0x0b0|                                 0d            |           .    |                    p_opcode: "elem.drop" (13) 0xbb-0xbc (1)
0x0b0|                                    01         |            .   |                    x: 1 (valid) 0xbc-0xbd (1)
     |                                               |                |                  [5]{}: in 0xbd-0xbf (2)
0x0b0|                                       41      |             A  |                    opcode: "i32.const" (0x41) 0xbd-0xbe (1)
0x0b0|                                          0f   |              . |                    n: 15 (valid) 0xbe-0xbf (1)
     |                                               |                |                  [6]{}: in 0xbf-0xc1 (2)
0x0b0|                                             41|               A|                    opcode: "i32.const" (0x41) 0xbf-0xc0 (1)
0x0c0|01                                             |.               |                    n: 1 (valid) 0xc0-0xc1 (1)
     |                                               |                |                  [7]{}: in 0xc1-0xc3 (2)
0x0c0|   41                                          | A              |                    opcode: "i32.const" (0x41) 0xc1-0xc2 (1)
0x0c0|      03                                       |  .             |                    n: 3 (valid) 0xc2-0xc3 (1)
     |                                               |                |                  [8]{}: in 0xc3-0xc7 (4)
0x0c0|         fc                                    |   .            |                    opcode: "prefix" (0xfc) 0xc3-0xc4 (1)
0x0c0|            0c                                 |    .           |                    p_opcode: "table.init" (12) 0xc4-0xc5 (1)
0x0c0|               03                              |     .          |                    y: 3 (valid) 0xc5-0xc6 (1)
0x0c0|                  01                           |      .         |                    x: 1 (valid) 0xc6-0xc7 (1)
     |                                               |                |                  [9]{}: in 0xc7-0xca (3)
0x0c0|                     fc                        |       .        |                    opcode: "prefix" (0xfc) 0xc7-0xc8 (1)
0x0c0|                        0d                     |        .       |                    p_opcode: "elem.drop" (13) 0xc8-0xc9 (1)
0x0c0|                           03                  |         .      |                    x: 3 (valid) 0xc9-0xca (1)
     |                                               |                |                  [10]{}: in 0xca-0xcc (2)
0x0c0|                              41               |          A     |                    opcode: "i32.const" (0x41) 0xca-0xcb (1)
0x0c0|                                 14            |           .    |                    n: 20 (valid) 0xcb-0xcc (1)
     |                                               |                |                  [11]{}: in 0xcc-0xce (2)
0x0c0|                                    41         |            A   |                    opcode: "i32.const" (0x41) 0xcc-0xcd (1)
0x0c0|                                       0f      |             .  |                    n: 15 (valid) 0xcd-0xce (1)
     |                                               |                |                  [12]{}: in 0xce-0xd0 (2)
0x0c0|                                          41   |              A |                    opcode: "i32.const" (0x41) 0xce-0xcf (1)
0x0c0|                                             05|               .|                    n: 5 (valid) 0xcf-0xd0 (1)
     |                                               |                |                  [13]{}: in 0xd0-0xd4 (4)
0x0d0|fc                                             |.               |                    opcode: "prefix" (0xfc) 0xd0-0xd1 (1)
0x0d0|   0e                                          | .              |                    p_opcode: "table.copy" (14) 0xd1-0xd2 (1)
0x0d0|      01                                       |  .             |                    x: 1 (valid) 0xd2-0xd3 (1)
0x0d0|         01                                    |   .            |                    y: 1 (valid) 0xd3-0xd4 (1)
     |                                               |                |                  [14]{}: in 0xd4-0xd6 (2)
0x0d0|            41                                 |    A           |                    opcode: "i32.const" (0x41) 0xd4-0xd5 (1)
0x0d0|               15                              |     .          |                    n: 21 (valid) 0xd5-0xd6 (1)
     |                                               |                |                  [15]{}: in 0xd6-0xd8 (2)
0x0d0|                  41                           |      A         |                    opcode: "i32.const" (0x41) 0xd6-0xd7 (1)
0x0d0|                     1d                        |       .        |                    n: 29 (valid) 0xd7-0xd8 (1)
     |                                               |                |                  [16]{}: in 0xd8-0xda (2)
0x0d0|                        41                     |        A       |                    opcode: "i32.const" (0x41) 0xd8-0xd9 (1)
0x0d0|                           01                  |         .      |                    n: 1 (valid) 0xd9-0xda (1)
     |                                               |                |                  [17]{}: in 0xda-0xde (4)
0x0d0|                              fc               |          .     |                    opcode: "prefix" (0xfc) 0xda-0xdb (1)
0x0d0|                                 0e            |           .    |                    p_opcode: "table.copy" (14) 0xdb-0xdc (1)
0x0d0|                                    01         |            .   |                    x: 1 (valid) 0xdc-0xdd (1)
0x0d0|                                       01      |             .  |                    y: 1 (valid) 0xdd-0xde (1)
     |                                               |                |                  [18]{}: in 0xde-0xe0 (2)
0x0d0|                                          41   |              A |                    opcode: "i32.const" (0x41) 0xde-0xdf (1)
0x0d0|                                             18|               .|                    n: 24 (valid) 0xdf-0xe0 (1)
     |                                               |                |                  [19]{}: in 0xe0-0xe2 (2)
0x0e0|41                                             |A               |                    opcode: "i32.const" (0x41) 0xe0-0xe1 (1)
0x0e0|   0a                                          | .              |                    n: 10 (valid) 0xe1-0xe2 (1)
     |                                               |                |                  [20]{}: in 0xe2-0xe4 (2)
0x0e0|      41                                       |  A             |                    opcode: "i32.const" (0x41) 0xe2-0xe3 (1)
0x0e0|         01                                    |   .            |                    n: 1 (valid) 0xe3-0xe4 (1)
     |                                               |                |                  [21]{}: in 0xe4-0xe8 (4)
0x0e0|            fc                                 |    .           |                    opcode: "prefix" (0xfc) 0xe4-0xe5 (1)
0x0e0|               0e                              |     .          |                    p_opcode: "table.copy" (14) 0xe5-0xe6 (1)
0x0e0|                  01                           |      .         |                    x: 1 (valid) 0xe6-0xe7 (1)
0x0e0|                     01                        |       .        |                    y: 1 (valid) 0xe7-0xe8 (1)
     |                                               |                |                  [22]{}: in 0xe8-0xea (2)
0x0e0|                        41                     |        A       |                    opcode: "i32.const" (0x41) 0xe8-0xe9 (1)
0x0e0|                           0d                  |         .      |                    n: 13 (valid) 0xe9-0xea (1)
     |                                               |                |                  [23]{}: in 0xea-0xec (2)
0x0e0|                              41               |          A     |                    opcode: "i32.const" (0x41) 0xea-0xeb (1)
0x0e0|                                 0b            |           .    |                    n: 11 (valid) 0xeb-0xec (1)
     |                                               |                |                  [24]{}: in 0xec-0xee (2)
0x0e0|                                    41         |            A   |                    opcode: "i32.const" (0x41) 0xec-0xed (1)
0x0e0|                                       04      |             .  |                    n: 4 (valid) 0xed-0xee (1)
     |                                               |                |                  [25]{}: in 0xee-0xf2 (4)
0x0e0|                                          fc   |              . |                    opcode: "prefix" (0xfc) 0xee-0xef (1)
0x0e0|                                             0e|               .|                    p_opcode: "table.copy" (14) 0xef-0xf0 (1)
0x0f0|01                                             |.               |                    x: 1 (valid) 0xf0-0xf1 (1)
0x0f0|   01                                          | .              |                    y: 1 (valid) 0xf1-0xf2 (1)
     |                                               |                |                  [26]{}: in 0xf2-0xf4 (2)
0x0f0|      41                                       |  A             |                    opcode: "i32.const" (0x41) 0xf2-0xf3 (1)
0x0f0|         13                                    |   .            |                    n: 19 (valid) 0xf3-0xf4 (1)
     |                                               |                |                  [27]{}: in 0xf4-0xf6 (2)
0x0f0|            41                                 |    A           |                    opcode: "i32.const" (0x41) 0xf4-0xf5 (1)
0x0f0|               14                              |     .          |                    n: 20 (valid) 0xf5-0xf6 (1)
     |                                               |                |                  [28]{}: in 0xf6-0xf8 (2)
0x0f0|                  41                           |      A         |                    opcode: "i32.const" (0x41) 0xf6-0xf7 (1)
0x0f0|                     05                        |       .        |                    n: 5 (valid) 0xf7-0xf8 (1)
     |                                               |                |                  [29]{}: in 0xf8-0xfc (4)
0x0f0|                        fc                     |        .       |                    opcode: "prefix" (0xfc) 0xf8-0xf9 (1)
0x0f0|                           0e                  |         .      |                    p_opcode: "table.copy" (14) 0xf9-0xfa (1)
0x0f0|                              01               |          .     |                    x: 1 (valid) 0xfa-0xfb (1)
0x0f0|                                 01            |           .    |                    y: 1 (valid) 0xfb-0xfc (1)
     |                                               |                |                  [30]{}: in 0xfc-0xfd (1)
0x0f0|                                    0b         |            .   |                    opcode: "end" (0xb) 0xfc-0xfd (1)
     |                                               |                |            [6]{}: code 0xfd-0x105 (8)
0x0f0|                                       07      |             .  |              size: 7 (valid) 0xfd-0xfe (1)
     |                                               |                |              code{}: 0xfe-0x105 (7)
     |                                               |                |                t{}: 0xfe-0xff (1)
0x0f0|                                          00   |              . |                  n: 0 (valid) 0xfe-0xff (1)
     |                                               |                |                  x[0:0]: 0xff-0xff (0)
     |                                               |                |                e[0:3]: 0xff-0x105 (6)
     |                                               |                |                  [0]{}: in 0xff-0x101 (2)
0x0f0|                                             20|                |                    opcode: "local.get" (0x20) 0xff-0x100 (1)
0x100|00                                             |.               |                    x: 0 (valid) 0x100-0x101 (1)
     |                                               |                |                  [1]{}: in 0x101-0x104 (3)
0x100|   11                                          | .              |                    opcode: "call_indirect" (0x11) 0x101-0x102 (1)
0x100|      00                                       |  .             |                    y: 0 (valid) 0x102-0x103 (1)
0x100|         01                                    |   .            |                    x: 1 (valid) 0x103-0x104 (1)
     |                                               |                |                  [2]{}: in 0x104-0x105 (1)
0x100|            0b|                                |    .|          |                    opcode: "end" (0xb) 0x104-0x105 (1)
