$ fq -d wasm dv table_set-0.wasm
    |00 01 02 03 04 05 06 07 08 09 0a 0b 0c 0d 0e 0f|0123456789abcdef|.{}: table_set-0.wasm (wasm) 0x0-0xe6.7 (231)
0x00|00 61 73 6d                                    |.asm            |  magic: raw bits (valid) 0x0-0x3.7 (4)
0x00|            01 00 00 00                        |    ....        |  version: 1 0x4-0x7.7 (4)
    |                                               |                |  sections[0:6]: 0x8-0xe6.7 (223)
    |                                               |                |    [0]{}: section 0x8-0x2b.7 (36)
0x00|                        01                     |        .       |      id: "type section" (1) 0x8-0x8.7 (1)
0x00|                           22                  |         "      |      size: 34 0x9-0x9.7 (1)
    |                                               |                |      content{}: 0xa-0x2b.7 (34)
    |                                               |                |        ft{}: 0xa-0x2b.7 (34)
0x00|                              07               |          .     |          n: 7 0xa-0xa.7 (1)
    |                                               |                |          x[0:7]: 0xb-0x2b.7 (33)
    |                                               |                |            [0]{}: ft 0xb-0xd.7 (3)
0x00|                                 60            |           `    |              tag: 0x60 (valid) 0xb-0xb.7 (1)
    |                                               |                |              rt1{}: 0xc-0xc.7 (1)
0x00|                                    00         |            .   |                n: 0 0xc-0xc.7 (1)
    |                                               |                |                x[0:0]: 0xd-NA (0)
    |                                               |                |              rt2{}: 0xd-0xd.7 (1)
0x00|                                       00      |             .  |                n: 0 0xd-0xd.7 (1)
    |                                               |                |                x[0:0]: 0xe-NA (0)
    |                                               |                |            [1]{}: ft 0xe-0x12.7 (5)
0x00|                                          60   |              ` |              tag: 0x60 (valid) 0xe-0xe.7 (1)
    |                                               |                |              rt1{}: 0xf-0x10.7 (2)
0x00|                                             01|               .|                n: 1 0xf-0xf.7 (1)
    |                                               |                |                x[0:1]: 0x10-0x10.7 (1)
0x10|7f                                             |.               |                  [0]: "i32" (0x7f) t 0x10-0x10.7 (1)
    |                                               |                |              rt2{}: 0x11-0x12.7 (2)
0x10|   01                                          | .              |                n: 1 0x11-0x11.7 (1)
    |                                               |                |                x[0:1]: 0x12-0x12.7 (1)
0x10|      6f                                       |  o             |                  [0]: "externref" (0x6f) t 0x12-0x12.7 (1)
    |                                               |                |            [2]{}: ft 0x13-0x17.7 (5)
0x10|         60                                    |   `            |              tag: 0x60 (valid) 0x13-0x13.7 (1)
    |                                               |                |              rt1{}: 0x14-0x15.7 (2)
0x10|            01                                 |    .           |                n: 1 0x14-0x14.7 (1)
    |                                               |                |                x[0:1]: 0x15-0x15.7 (1)
0x10|               7f                              |     .          |                  [0]: "i32" (0x7f) t 0x15-0x15.7 (1)
    |                                               |                |              rt2{}: 0x16-0x17.7 (2)
0x10|                  01                           |      .         |                n: 1 0x16-0x16.7 (1)
    |                                               |                |                x[0:1]: 0x17-0x17.7 (1)
0x10|                     70                        |       p        |                  [0]: "funcref" (0x70) t 0x17-0x17.7 (1)
    |                                               |                |            [3]{}: ft 0x18-0x1c.7 (5)
0x10|                        60                     |        `       |              tag: 0x60 (valid) 0x18-0x18.7 (1)
    |                                               |                |              rt1{}: 0x19-0x1b.7 (3)
0x10|                           02                  |         .      |                n: 2 0x19-0x19.7 (1)
    |                                               |                |                x[0:2]: 0x1a-0x1b.7 (2)
0x10|                              7f               |          .     |                  [0]: "i32" (0x7f) t 0x1a-0x1a.7 (1)
0x10|                                 6f            |           o    |                  [1]: "externref" (0x6f) t 0x1b-0x1b.7 (1)
    |                                               |                |              rt2{}: 0x1c-0x1c.7 (1)
0x10|                                    00         |            .   |                n: 0 0x1c-0x1c.7 (1)
    |                                               |                |                x[0:0]: 0x1d-NA (0)
    |                                               |                |            [4]{}: ft 0x1d-0x21.7 (5)
0x10|                                       60      |             `  |              tag: 0x60 (valid) 0x1d-0x1d.7 (1)
    |                                               |                |              rt1{}: 0x1e-0x20.7 (3)
0x10|                                          02   |              . |                n: 2 0x1e-0x1e.7 (1)
    |                                               |                |                x[0:2]: 0x1f-0x20.7 (2)
0x10|                                             7f|               .|                  [0]: "i32" (0x7f) t 0x1f-0x1f.7 (1)
0x20|70                                             |p               |                  [1]: "funcref" (0x70) t 0x20-0x20.7 (1)
    |                                               |                |              rt2{}: 0x21-0x21.7 (1)
0x20|   00                                          | .              |                n: 0 0x21-0x21.7 (1)
    |                                               |                |                x[0:0]: 0x22-NA (0)
    |                                               |                |            [5]{}: ft 0x22-0x26.7 (5)
0x20|      60                                       |  `             |              tag: 0x60 (valid) 0x22-0x22.7 (1)
    |                                               |                |              rt1{}: 0x23-0x25.7 (3)
0x20|         02                                    |   .            |                n: 2 0x23-0x23.7 (1)
    |                                               |                |                x[0:2]: 0x24-0x25.7 (2)
0x20|            7f                                 |    .           |                  [0]: "i32" (0x7f) t 0x24-0x24.7 (1)
0x20|               7f                              |     .          |                  [1]: "i32" (0x7f) t 0x25-0x25.7 (1)
    |                                               |                |              rt2{}: 0x26-0x26.7 (1)
0x20|                  00                           |      .         |                n: 0 0x26-0x26.7 (1)
    |                                               |                |                x[0:0]: 0x27-NA (0)
    |                                               |                |            [6]{}: ft 0x27-0x2b.7 (5)
0x20|                     60                        |       `        |              tag: 0x60 (valid) 0x27-0x27.7 (1)
    |                                               |                |              rt1{}: 0x28-0x29.7 (2)
0x20|                        01                     |        .       |                n: 1 0x28-0x28.7 (1)
    |                                               |                |                x[0:1]: 0x29-0x29.7 (1)
0x20|                           7f                  |         .      |                  [0]: "i32" (0x7f) t 0x29-0x29.7 (1)
    |                                               |                |              rt2{}: 0x2a-0x2b.7 (2)
0x20|                              01               |          .     |                n: 1 0x2a-0x2a.7 (1)
    |                                               |                |                x[0:1]: 0x2b-0x2b.7 (1)
0x20|                                 7f            |           .    |                  [0]: "i32" (0x7f) t 0x2b-0x2b.7 (1)
    |                                               |                |    [1]{}: section 0x2c-0x35.7 (10)
0x20|                                    03         |            .   |      id: "function section" (3) 0x2c-0x2c.7 (1)
0x20|                                       08      |             .  |      size: 8 0x2d-0x2d.7 (1)
    |                                               |                |      content{}: 0x2e-0x35.7 (8)
    |                                               |                |        x{}: 0x2e-0x35.7 (8)
0x20|                                          07   |              . |          n: 7 0x2e-0x2e.7 (1)
    |                                               |                |          x[0:7]: 0x2f-0x35.7 (7)
0x20|                                             00|               .|            [0]: 0 x 0x2f-0x2f.7 (1)
0x30|01                                             |.               |            [1]: 1 x 0x30-0x30.7 (1)
0x30|   02                                          | .              |            [2]: 2 x 0x31-0x31.7 (1)
0x30|      03                                       |  .             |            [3]: 3 x 0x32-0x32.7 (1)
0x30|         04                                    |   .            |            [4]: 4 x 0x33-0x33.7 (1)
0x30|            05                                 |    .           |            [5]: 5 x 0x34-0x34.7 (1)
0x30|               06                              |     .          |            [6]: 6 x 0x35-0x35.7 (1)
    |                                               |                |    [2]{}: section 0x36-0x3e.7 (9)
0x30|                  04                           |      .         |      id: "table section" (4) 0x36-0x36.7 (1)
0x30|                     07                        |       .        |      size: 7 0x37-0x37.7 (1)
    |                                               |                |      content{}: 0x38-0x3e.7 (7)
    |                                               |                |        tab{}: 0x38-0x3e.7 (7)
0x30|                        02                     |        .       |          n: 2 0x38-0x38.7 (1)
    |                                               |                |          x[0:2]: 0x39-0x3e.7 (6)
    |                                               |                |            [0]{}: tab 0x39-0x3b.7 (3)
0x30|                           6f                  |         o      |              et: "externref" (111) 0x39-0x39.7 (1)
    |                                               |                |              lim{}: 0x3a-0x3b.7 (2)
0x30|                              00               |          .     |                tag: 0x0 0x3a-0x3a.7 (1)
0x30|                                 01            |           .    |                n: 1 0x3b-0x3b.7 (1)
    |                                               |                |            [1]{}: tab 0x3c-0x3e.7 (3)
0x30|                                    70         |            p   |              et: "funcref" (112) 0x3c-0x3c.7 (1)
    |                                               |                |              lim{}: 0x3d-0x3e.7 (2)
0x30|                                       00      |             .  |                tag: 0x0 0x3d-0x3d.7 (1)
0x30|                                          02   |              . |                n: 2 0x3e-0x3e.7 (1)
    |                                               |                |    [3]{}: section 0x3f-0xa2.7 (100)
0x30|                                             07|               .|      id: "export section" (7) 0x3f-0x3f.7 (1)
0x40|62                                             |b               |      size: 98 0x40-0x40.7 (1)
    |                                               |                |      content{}: 0x41-0xa2.7 (98)
    |                                               |                |        ex{}: 0x41-0xa2.7 (98)
0x40|   06                                          | .              |          n: 6 0x41-0x41.7 (1)
    |                                               |                |          x[0:6]: 0x42-0xa2.7 (97)
    |                                               |                |            [0]{}: ex 0x42-0x51.7 (16)
    |                                               |                |              nm{}: 0x42-0x4f.7 (14)
0x40|      0d                                       |  .             |                n: 13 0x42-0x42.7 (1)
0x40|         67 65 74 2d 65 78 74 65 72 6e 72 65 66|   get-externref|                b: "get-externref" 0x43-0x4f.7 (13)
    |                                               |                |              d{}: 0x50-0x51.7 (2)
0x50|00                                             |.               |                tag: "funcidx" (0x0) 0x50-0x50.7 (1)
0x50|   01                                          | .              |                x: 1 0x51-0x51.7 (1)
    |                                               |                |            [1]{}: ex 0x52-0x5f.7 (14)
    |                                               |                |              nm{}: 0x52-0x5d.7 (12)
0x50|      0b                                       |  .             |                n: 11 0x52-0x52.7 (1)
0x50|         67 65 74 2d 66 75 6e 63 72 65 66      |   get-funcref  |                b: "get-funcref" 0x53-0x5d.7 (11)
    |                                               |                |              d{}: 0x5e-0x5f.7 (2)
0x50|                                          00   |              . |                tag: "funcidx" (0x0) 0x5e-0x5e.7 (1)
0x50|                                             02|               .|                x: 2 0x5f-0x5f.7 (1)
    |                                               |                |            [2]{}: ex 0x60-0x6f.7 (16)
    |                                               |                |              nm{}: 0x60-0x6d.7 (14)
0x60|0d                                             |.               |                n: 13 0x60-0x60.7 (1)
0x60|   73 65 74 2d 65 78 74 65 72 6e 72 65 66      | set-externref  |                b: "set-externref" 0x61-0x6d.7 (13)
    |                                               |                |              d{}: 0x6e-0x6f.7 (2)
0x60|                                          00   |              . |                tag: "funcidx" (0x0) 0x6e-0x6e.7 (1)
0x60|                                             03|               .|                x: 3 0x6f-0x6f.7 (1)
    |                                               |                |            [3]{}: ex 0x70-0x7d.7 (14)
    |                                               |                |              nm{}: 0x70-0x7b.7 (12)
0x70|0b                                             |.               |                n: 11 0x70-0x70.7 (1)
0x70|   73 65 74 2d 66 75 6e 63 72 65 66            | set-funcref    |                b: "set-funcref" 0x71-0x7b.7 (11)
    |                                               |                |              d{}: 0x7c-0x7d.7 (2)
0x70|                                    00         |            .   |                tag: "funcidx" (0x0) 0x7c-0x7c.7 (1)
0x70|                                       04      |             .  |                x: 4 0x7d-0x7d.7 (1)
    |                                               |                |            [4]{}: ex 0x7e-0x90.7 (19)
    |                                               |                |              nm{}: 0x7e-0x8e.7 (17)
0x70|                                          10   |              . |                n: 16 0x7e-0x7e.7 (1)
0x70|                                             73|               s|                b: "set-funcref-from" 0x7f-0x8e.7 (16)
0x80|65 74 2d 66 75 6e 63 72 65 66 2d 66 72 6f 6d   |et-funcref-from |
    |                                               |                |              d{}: 0x8f-0x90.7 (2)
0x80|                                             00|               .|                tag: "funcidx" (0x0) 0x8f-0x8f.7 (1)
0x90|05                                             |.               |                x: 5 0x90-0x90.7 (1)
    |                                               |                |            [5]{}: ex 0x91-0xa2.7 (18)
    |                                               |                |              nm{}: 0x91-0xa0.7 (16)
0x90|   0f                                          | .              |                n: 15 0x91-0x91.7 (1)
0x90|      69 73 5f 6e 75 6c 6c 2d 66 75 6e 63 72 65|  is_null-funcre|                b: "is_null-funcref" 0x92-0xa0.7 (15)
0xa0|66                                             |f               |
    |                                               |                |              d{}: 0xa1-0xa2.7 (2)
0xa0|   00                                          | .              |                tag: "funcidx" (0x0) 0xa1-0xa1.7 (1)
0xa0|      06                                       |  .             |                x: 6 0xa2-0xa2.7 (1)
    |                                               |                |    [4]{}: section 0xa3-0xad.7 (11)
0xa0|         09                                    |   .            |      id: "element section" (9) 0xa3-0xa3.7 (1)
0xa0|            09                                 |    .           |      size: 9 0xa4-0xa4.7 (1)
    |                                               |                |      element{}: 0xa5-0xad.7 (9)
    |                                               |                |        seg{}: 0xa5-0xad.7 (9)
0xa0|               01                              |     .          |          n: 1 0xa5-0xa5.7 (1)
    |                                               |                |          x[0:1]: 0xa6-0xad.7 (8)
    |                                               |                |            [0]{}: seg 0xa6-0xad.7 (8)
0xa0|                  02                           |      .         |              tag: 2 0xa6-0xa6.7 (1)
0xa0|                     01                        |       .        |              x: 1 0xa7-0xa7.7 (1)
    |                                               |                |              e[0:2]: 0xa8-0xaa.7 (3)
    |                                               |                |                [0]{}: in 0xa8-0xa9.7 (2)
0xa0|                        41                     |        A       |                  i32.const: 0x41 (valid) 0xa8-0xa8.7 (1)
0xa0|                           01                  |         .      |                  n: 1 0xa9-0xa9.7 (1)
    |                                               |                |                [1]{}: in 0xaa-0xaa.7 (1)
0xa0|                              0b               |          .     |                  end: 0xb (valid) 0xaa-0xaa.7 (1)
0xa0|                                 00            |           .    |              et: "funcref" (0) (valid) 0xab-0xab.7 (1)
    |                                               |                |              y{}: 0xac-0xad.7 (2)
0xa0|                                    01         |            .   |                n: 1 0xac-0xac.7 (1)
    |                                               |                |                x[0:1]: 0xad-0xad.7 (1)
0xa0|                                       00      |             .  |                  [0]: 0 y 0xad-0xad.7 (1)
    |                                               |                |    [5]{}: section 0xae-0xe6.7 (57)
0xa0|                                          0a   |              . |      id: "code section" (10) 0xae-0xae.7 (1)
0xa0|                                             37|               7|      size: 55 0xaf-0xaf.7 (1)
    |                                               |                |      content{}: 0xb0-0xe6.7 (55)
    |                                               |                |        code{}: 0xb0-0xe6.7 (55)
0xb0|07                                             |.               |          n: 7 0xb0-0xb0.7 (1)
    |                                               |                |          x[0:7]: 0xb1-0xe6.7 (54)
    |                                               |                |            [0]{}: code 0xb1-0xb3.7 (3)
0xb0|   02                                          | .              |              size: 2 0xb1-0xb1.7 (1)
    |                                               |                |              code{}: 0xb2-0xb3.7 (2)
    |                                               |                |                t{}: 0xb2-0xb2.7 (1)
0xb0|      00                                       |  .             |                  n: 0 0xb2-0xb2.7 (1)
    |                                               |                |                  x[0:0]: 0xb3-NA (0)
    |                                               |                |                e[0:1]: 0xb3-0xb3.7 (1)
    |                                               |                |                  [0]{}: in 0xb3-0xb3.7 (1)
0xb0|         0b                                    |   .            |                    end: 0xb (valid) 0xb3-0xb3.7 (1)
    |                                               |                |            [1]{}: code 0xb4-0xba.7 (7)
0xb0|            06                                 |    .           |              size: 6 0xb4-0xb4.7 (1)
    |                                               |                |              code{}: 0xb5-0xba.7 (6)
    |                                               |                |                t{}: 0xb5-0xb5.7 (1)
0xb0|               00                              |     .          |                  n: 0 0xb5-0xb5.7 (1)
    |                                               |                |                  x[0:0]: 0xb6-NA (0)
    |                                               |                |                e[0:3]: 0xb6-0xba.7 (5)
    |                                               |                |                  [0]{}: in 0xb6-0xb7.7 (2)
0xb0|                  20                           |                |                    local.get: 0x20 (valid) 0xb6-0xb6.7 (1)
0xb0|                     00                        |       .        |                    x: 0 0xb7-0xb7.7 (1)
    |                                               |                |                  [1]{}: in 0xb8-0xb9.7 (2)
0xb0|                        25                     |        %       |                    table.get: 0x25 (valid) 0xb8-0xb8.7 (1)
0xb0|                           00                  |         .      |                    x: 0 0xb9-0xb9.7 (1)
    |                                               |                |                  [2]{}: in 0xba-0xba.7 (1)
0xb0|                              0b               |          .     |                    end: 0xb (valid) 0xba-0xba.7 (1)
    |                                               |                |            [2]{}: code 0xbb-0xc1.7 (7)
0xb0|                                 06            |           .    |              size: 6 0xbb-0xbb.7 (1)
    |                                               |                |              code{}: 0xbc-0xc1.7 (6)
    |                                               |                |                t{}: 0xbc-0xbc.7 (1)
0xb0|                                    00         |            .   |                  n: 0 0xbc-0xbc.7 (1)
    |                                               |                |                  x[0:0]: 0xbd-NA (0)
    |                                               |                |                e[0:3]: 0xbd-0xc1.7 (5)
    |                                               |                |                  [0]{}: in 0xbd-0xbe.7 (2)
0xb0|                                       20      |                |                    local.get: 0x20 (valid) 0xbd-0xbd.7 (1)
0xb0|                                          00   |              . |                    x: 0 0xbe-0xbe.7 (1)
    |                                               |                |                  [1]{}: in 0xbf-0xc0.7 (2)
0xb0|                                             25|               %|                    table.get: 0x25 (valid) 0xbf-0xbf.7 (1)
0xc0|01                                             |.               |                    x: 1 0xc0-0xc0.7 (1)
    |                                               |                |                  [2]{}: in 0xc1-0xc1.7 (1)
0xc0|   0b                                          | .              |                    end: 0xb (valid) 0xc1-0xc1.7 (1)
    |                                               |                |            [3]{}: code 0xc2-0xca.7 (9)
0xc0|      08                                       |  .             |              size: 8 0xc2-0xc2.7 (1)
    |                                               |                |              code{}: 0xc3-0xca.7 (8)
    |                                               |                |                t{}: 0xc3-0xc3.7 (1)
0xc0|         00                                    |   .            |                  n: 0 0xc3-0xc3.7 (1)
    |                                               |                |                  x[0:0]: 0xc4-NA (0)
    |                                               |                |                e[0:4]: 0xc4-0xca.7 (7)
    |                                               |                |                  [0]{}: in 0xc4-0xc5.7 (2)
0xc0|            20                                 |                |                    local.get: 0x20 (valid) 0xc4-0xc4.7 (1)
0xc0|               00                              |     .          |                    x: 0 0xc5-0xc5.7 (1)
    |                                               |                |                  [1]{}: in 0xc6-0xc7.7 (2)
0xc0|                  20                           |                |                    local.get: 0x20 (valid) 0xc6-0xc6.7 (1)
0xc0|                     01                        |       .        |                    x: 1 0xc7-0xc7.7 (1)
    |                                               |                |                  [2]{}: in 0xc8-0xc9.7 (2)
0xc0|                        26                     |        &       |                    table.set: 0x26 (valid) 0xc8-0xc8.7 (1)
0xc0|                           00                  |         .      |                    x: 0 0xc9-0xc9.7 (1)
    |                                               |                |                  [3]{}: in 0xca-0xca.7 (1)
0xc0|                              0b               |          .     |                    end: 0xb (valid) 0xca-0xca.7 (1)
    |                                               |                |            [4]{}: code 0xcb-0xd3.7 (9)
0xc0|                                 08            |           .    |              size: 8 0xcb-0xcb.7 (1)
    |                                               |                |              code{}: 0xcc-0xd3.7 (8)
    |                                               |                |                t{}: 0xcc-0xcc.7 (1)
0xc0|                                    00         |            .   |                  n: 0 0xcc-0xcc.7 (1)
    |                                               |                |                  x[0:0]: 0xcd-NA (0)
    |                                               |                |                e[0:4]: 0xcd-0xd3.7 (7)
    |                                               |                |                  [0]{}: in 0xcd-0xce.7 (2)
0xc0|                                       20      |                |                    local.get: 0x20 (valid) 0xcd-0xcd.7 (1)
0xc0|                                          00   |              . |                    x: 0 0xce-0xce.7 (1)
    |                                               |                |                  [1]{}: in 0xcf-0xd0.7 (2)
0xc0|                                             20|                |                    local.get: 0x20 (valid) 0xcf-0xcf.7 (1)
0xd0|01                                             |.               |                    x: 1 0xd0-0xd0.7 (1)
    |                                               |                |                  [2]{}: in 0xd1-0xd2.7 (2)
0xd0|   26                                          | &              |                    table.set: 0x26 (valid) 0xd1-0xd1.7 (1)
0xd0|      01                                       |  .             |                    x: 1 0xd2-0xd2.7 (1)
    |                                               |                |                  [3]{}: in 0xd3-0xd3.7 (1)
0xd0|         0b                                    |   .            |                    end: 0xb (valid) 0xd3-0xd3.7 (1)
    |                                               |                |            [5]{}: code 0xd4-0xde.7 (11)
0xd0|            0a                                 |    .           |              size: 10 0xd4-0xd4.7 (1)
    |                                               |                |              code{}: 0xd5-0xde.7 (10)
    |                                               |                |                t{}: 0xd5-0xd5.7 (1)
0xd0|               00                              |     .          |                  n: 0 0xd5-0xd5.7 (1)
    |                                               |                |                  x[0:0]: 0xd6-NA (0)
    |                                               |                |                e[0:5]: 0xd6-0xde.7 (9)
    |                                               |                |                  [0]{}: in 0xd6-0xd7.7 (2)
0xd0|                  20                           |                |                    local.get: 0x20 (valid) 0xd6-0xd6.7 (1)
0xd0|                     00                        |       .        |                    x: 0 0xd7-0xd7.7 (1)
    |                                               |                |                  [1]{}: in 0xd8-0xd9.7 (2)
0xd0|                        20                     |                |                    local.get: 0x20 (valid) 0xd8-0xd8.7 (1)
0xd0|                           01                  |         .      |                    x: 1 0xd9-0xd9.7 (1)
    |                                               |                |                  [2]{}: in 0xda-0xdb.7 (2)
0xd0|                              25               |          %     |                    table.get: 0x25 (valid) 0xda-0xda.7 (1)
0xd0|                                 01            |           .    |                    x: 1 0xdb-0xdb.7 (1)
    |                                               |                |                  [3]{}: in 0xdc-0xdd.7 (2)
0xd0|                                    26         |            &   |                    table.set: 0x26 (valid) 0xdc-0xdc.7 (1)
0xd0|                                       01      |             .  |                    x: 1 0xdd-0xdd.7 (1)
    |                                               |                |                  [4]{}: in 0xde-0xde.7 (1)
0xd0|                                          0b   |              . |                    end: 0xb (valid) 0xde-0xde.7 (1)
    |                                               |                |            [6]{}: code 0xdf-0xe6.7 (8)
0xd0|                                             07|               .|              size: 7 0xdf-0xdf.7 (1)
    |                                               |                |              code{}: 0xe0-0xe6.7 (7)
    |                                               |                |                t{}: 0xe0-0xe0.7 (1)
0xe0|00                                             |.               |                  n: 0 0xe0-0xe0.7 (1)
    |                                               |                |                  x[0:0]: 0xe1-NA (0)
    |                                               |                |                e[0:4]: 0xe1-0xe6.7 (6)
    |                                               |                |                  [0]{}: in 0xe1-0xe2.7 (2)
0xe0|   20                                          |                |                    local.get: 0x20 (valid) 0xe1-0xe1.7 (1)
0xe0|      00                                       |  .             |                    x: 0 0xe2-0xe2.7 (1)
    |                                               |                |                  [1]{}: in 0xe3-0xe4.7 (2)
0xe0|         10                                    |   .            |                    call: 0x10 (valid) 0xe3-0xe3.7 (1)
0xe0|            02                                 |    .           |                    x: 2 0xe4-0xe4.7 (1)
    |                                               |                |                  [2]{}: in 0xe5-0xe5.7 (1)
0xe0|               d1                              |     .          |                    ref.is_null: 0xd1 (valid) 0xe5-0xe5.7 (1)
    |                                               |                |                  [3]{}: in 0xe6-0xe6.7 (1)
0xe0|                  0b|                          |      .|        |                    end: 0xb (valid) 0xe6-0xe6.7 (1)
