$ fq -d wasm dv table_copy-37.wasm
    |00 01 02 03 04 05 06 07 08 09 0a 0b 0c 0d 0e 0f|0123456789abcdef|.{}: table_copy-37.wasm (wasm) 0x0-0x9c (156)
0x00|00 61 73 6d                                    |.asm            |  magic: raw bits (valid) 0x0-0x4 (4)
0x00|            01 00 00 00                        |    ....        |  version: 1 0x4-0x8 (4)
    |                                               |                |  sections[0:6]: 0x8-0x9c (148)
    |                                               |                |    [0]{}: section 0x8-0x12 (10)
0x00|                        01                     |        .       |      id: "type_section" (1) 0x8-0x9 (1)
0x00|                           08                  |         .      |      size: 8 (valid) 0x9-0xa (1)
    |                                               |                |      content{}: 0xa-0x12 (8)
    |                                               |                |        ft{}: 0xa-0x12 (8)
0x00|                              02               |          .     |          n: 2 (valid) 0xa-0xb (1)
    |                                               |                |          x[0:2]: 0xb-0x12 (7)
    |                                               |                |            [0]{}: ft 0xb-0xf (4)
0x00|                                 60            |           `    |              tag: 0x60 (valid) 0xb-0xc (1)
    |                                               |                |              rt1{}: 0xc-0xd (1)
0x00|                                    00         |            .   |                n: 0 (valid) 0xc-0xd (1)
    |                                               |                |                x[0:0]: 0xd-0xd (0)
    |                                               |                |              rt2{}: 0xd-0xf (2)
0x00|                                       01      |             .  |                n: 1 (valid) 0xd-0xe (1)
    |                                               |                |                x[0:1]: 0xe-0xf (1)
0x00|                                          7f   |              . |                  [0]: "i32" (0x7f) t 0xe-0xf (1)
    |                                               |                |            [1]{}: ft 0xf-0x12 (3)
0x00|                                             60|               `|              tag: 0x60 (valid) 0xf-0x10 (1)
    |                                               |                |              rt1{}: 0x10-0x11 (1)
0x10|00                                             |.               |                n: 0 (valid) 0x10-0x11 (1)
    |                                               |                |                x[0:0]: 0x11-0x11 (0)
    |                                               |                |              rt2{}: 0x11-0x12 (1)
0x10|   00                                          | .              |                n: 0 (valid) 0x11-0x12 (1)
    |                                               |                |                x[0:0]: 0x12-0x12 (0)
    |                                               |                |    [1]{}: section 0x12-0x20 (14)
0x10|      03                                       |  .             |      id: "function_section" (3) 0x12-0x13 (1)
0x10|         0c                                    |   .            |      size: 12 (valid) 0x13-0x14 (1)
    |                                               |                |      content{}: 0x14-0x20 (12)
    |                                               |                |        x{}: 0x14-0x20 (12)
0x10|            0b                                 |    .           |          n: 11 (valid) 0x14-0x15 (1)
    |                                               |                |          x[0:11]: 0x15-0x20 (11)
0x10|               00                              |     .          |            [0]: 0 x (valid) 0x15-0x16 (1)
0x10|                  00                           |      .         |            [1]: 0 x (valid) 0x16-0x17 (1)
0x10|                     00                        |       .        |            [2]: 0 x (valid) 0x17-0x18 (1)
0x10|                        00                     |        .       |            [3]: 0 x (valid) 0x18-0x19 (1)
0x10|                           00                  |         .      |            [4]: 0 x (valid) 0x19-0x1a (1)
0x10|                              00               |          .     |            [5]: 0 x (valid) 0x1a-0x1b (1)
0x10|                                 00            |           .    |            [6]: 0 x (valid) 0x1b-0x1c (1)
0x10|                                    00         |            .   |            [7]: 0 x (valid) 0x1c-0x1d (1)
0x10|                                       00      |             .  |            [8]: 0 x (valid) 0x1d-0x1e (1)
0x10|                                          00   |              . |            [9]: 0 x (valid) 0x1e-0x1f (1)
0x10|                                             01|               .|            [10]: 1 x (valid) 0x1f-0x20 (1)
    |                                               |                |    [2]{}: section 0x20-0x2b (11)
0x20|04                                             |.               |      id: "table_section" (4) 0x20-0x21 (1)
0x20|   09                                          | .              |      size: 9 (valid) 0x21-0x22 (1)
    |                                               |                |      content{}: 0x22-0x2b (9)
    |                                               |                |        tab{}: 0x22-0x2b (9)
0x20|      02                                       |  .             |          n: 2 (valid) 0x22-0x23 (1)
    |                                               |                |          x[0:2]: 0x23-0x2b (8)
    |                                               |                |            [0]{}: tab 0x23-0x27 (4)
0x20|         70                                    |   p            |              et: "funcref" (112) 0x23-0x24 (1)
    |                                               |                |              lim{}: 0x24-0x27 (3)
0x20|            01                                 |    .           |                tag: 0x1 0x24-0x25 (1)
0x20|               1e                              |     .          |                n: 30 (valid) 0x25-0x26 (1)
0x20|                  1e                           |      .         |                m: 30 (valid) 0x26-0x27 (1)
    |                                               |                |            [1]{}: tab 0x27-0x2b (4)
0x20|                     70                        |       p        |              et: "funcref" (112) 0x27-0x28 (1)
    |                                               |                |              lim{}: 0x28-0x2b (3)
0x20|                        01                     |        .       |                tag: 0x1 0x28-0x29 (1)
0x20|                           1e                  |         .      |                n: 30 (valid) 0x29-0x2a (1)
0x20|                              1e               |          .     |                m: 30 (valid) 0x2a-0x2b (1)
    |                                               |                |    [3]{}: section 0x2b-0x35 (10)
0x20|                                 07            |           .    |      id: "export_section" (7) 0x2b-0x2c (1)
0x20|                                    08         |            .   |      size: 8 (valid) 0x2c-0x2d (1)
    |                                               |                |      content{}: 0x2d-0x35 (8)
    |                                               |                |        ex{}: 0x2d-0x35 (8)
0x20|                                       01      |             .  |          n: 1 (valid) 0x2d-0x2e (1)
    |                                               |                |          x[0:1]: 0x2e-0x35 (7)
    |                                               |                |            [0]{}: ex 0x2e-0x35 (7)
    |                                               |                |              nm{}: 0x2e-0x33 (5)
0x20|                                          04   |              . |                n: 4 (valid) 0x2e-0x2f (1)
0x20|                                             74|               t|                b: "test" 0x2f-0x33 (4)
0x30|65 73 74                                       |est             |
    |                                               |                |              d{}: 0x33-0x35 (2)
0x30|         00                                    |   .            |                tag: "funcidx" (0x0) 0x33-0x34 (1)
0x30|            0a                                 |    .           |                x: 10 (valid) 0x34-0x35 (1)
    |                                               |                |    [4]{}: section 0x35-0x5a (37)
0x30|               09                              |     .          |      id: "element_section" (9) 0x35-0x36 (1)
0x30|                  23                           |      #         |      size: 35 (valid) 0x36-0x37 (1)
    |                                               |                |      element{}: 0x37-0x5a (35)
    |                                               |                |        seg{}: 0x37-0x5a (35)
0x30|                     04                        |       .        |          n: 4 (valid) 0x37-0x38 (1)
    |                                               |                |          x[0:4]: 0x38-0x5a (34)
    |                                               |                |            [0]{}: seg 0x38-0x41 (9)
0x30|                        00                     |        .       |              tag: 0 (valid) 0x38-0x39 (1)
    |                                               |                |              e[0:2]: 0x39-0x3c (3)
    |                                               |                |                [0]{}: in 0x39-0x3b (2)
0x30|                           41                  |         A      |                  opcode: "i32.const" (0x41) 0x39-0x3a (1)
0x30|                              02               |          .     |                  n: 2 (valid) 0x3a-0x3b (1)
    |                                               |                |                [1]{}: in 0x3b-0x3c (1)
0x30|                                 0b            |           .    |                  opcode: "end" (0xb) 0x3b-0x3c (1)
    |                                               |                |              y{}: 0x3c-0x41 (5)
0x30|                                    04         |            .   |                n: 4 (valid) 0x3c-0x3d (1)
    |                                               |                |                x[0:4]: 0x3d-0x41 (4)
0x30|                                       03      |             .  |                  [0]: 3 y (valid) 0x3d-0x3e (1)
0x30|                                          01   |              . |                  [1]: 1 y (valid) 0x3e-0x3f (1)
0x30|                                             04|               .|                  [2]: 4 y (valid) 0x3f-0x40 (1)
0x40|01                                             |.               |                  [3]: 1 y (valid) 0x40-0x41 (1)
    |                                               |                |            [1]{}: seg 0x41-0x48 (7)
0x40|   01                                          | .              |              tag: 1 (valid) 0x41-0x42 (1)
0x40|      00                                       |  .             |              et: "funcref" (0) (valid) 0x42-0x43 (1)
    |                                               |                |              y{}: 0x43-0x48 (5)
0x40|         04                                    |   .            |                n: 4 (valid) 0x43-0x44 (1)
    |                                               |                |                x[0:4]: 0x44-0x48 (4)
0x40|            02                                 |    .           |                  [0]: 2 y (valid) 0x44-0x45 (1)
0x40|               07                              |     .          |                  [1]: 7 y (valid) 0x45-0x46 (1)
0x40|                  01                           |      .         |                  [2]: 1 y (valid) 0x46-0x47 (1)
0x40|                     08                        |       .        |                  [3]: 8 y (valid) 0x47-0x48 (1)
    |                                               |                |            [2]{}: seg 0x48-0x52 (10)
0x40|                        00                     |        .       |              tag: 0 (valid) 0x48-0x49 (1)
    |                                               |                |              e[0:2]: 0x49-0x4c (3)
    |                                               |                |                [0]{}: in 0x49-0x4b (2)
0x40|                           41                  |         A      |                  opcode: "i32.const" (0x41) 0x49-0x4a (1)
0x40|                              0c               |          .     |                  n: 12 (valid) 0x4a-0x4b (1)
    |                                               |                |                [1]{}: in 0x4b-0x4c (1)
0x40|                                 0b            |           .    |                  opcode: "end" (0xb) 0x4b-0x4c (1)
    |                                               |                |              y{}: 0x4c-0x52 (6)
0x40|                                    05         |            .   |                n: 5 (valid) 0x4c-0x4d (1)
    |                                               |                |                x[0:5]: 0x4d-0x52 (5)
0x40|                                       07      |             .  |                  [0]: 7 y (valid) 0x4d-0x4e (1)
0x40|                                          05   |              . |                  [1]: 5 y (valid) 0x4e-0x4f (1)
0x40|                                             02|               .|                  [2]: 2 y (valid) 0x4f-0x50 (1)
0x50|03                                             |.               |                  [3]: 3 y (valid) 0x50-0x51 (1)
0x50|   06                                          | .              |                  [4]: 6 y (valid) 0x51-0x52 (1)
    |                                               |                |            [3]{}: seg 0x52-0x5a (8)
0x50|      01                                       |  .             |              tag: 1 (valid) 0x52-0x53 (1)
0x50|         00                                    |   .            |              et: "funcref" (0) (valid) 0x53-0x54 (1)
    |                                               |                |              y{}: 0x54-0x5a (6)
0x50|            05                                 |    .           |                n: 5 (valid) 0x54-0x55 (1)
    |                                               |                |                x[0:5]: 0x55-0x5a (5)
0x50|               05                              |     .          |                  [0]: 5 y (valid) 0x55-0x56 (1)
0x50|                  09                           |      .         |                  [1]: 9 y (valid) 0x56-0x57 (1)
0x50|                     02                        |       .        |                  [2]: 2 y (valid) 0x57-0x58 (1)
0x50|                        07                     |        .       |                  [3]: 7 y (valid) 0x58-0x59 (1)
0x50|                           06                  |         .      |                  [4]: 6 y (valid) 0x59-0x5a (1)
    |                                               |                |    [5]{}: section 0x5a-0x9c (66)
0x50|                              0a               |          .     |      id: "code_section" (10) 0x5a-0x5b (1)
0x50|                                 40            |           @    |      size: 64 (valid) 0x5b-0x5c (1)
    |                                               |                |      content{}: 0x5c-0x9c (64)
    |                                               |                |        code{}: 0x5c-0x9c (64)
0x50|                                    0b         |            .   |          n: 11 (valid) 0x5c-0x5d (1)
    |                                               |                |          x[0:11]: 0x5d-0x9c (63)
    |                                               |                |            [0]{}: code 0x5d-0x62 (5)
0x50|                                       04      |             .  |              size: 4 (valid) 0x5d-0x5e (1)
    |                                               |                |              code{}: 0x5e-0x62 (4)
    |                                               |                |                t{}: 0x5e-0x5f (1)
0x50|                                          00   |              . |                  n: 0 (valid) 0x5e-0x5f (1)
    |                                               |                |                  x[0:0]: 0x5f-0x5f (0)
    |                                               |                |                e[0:2]: 0x5f-0x62 (3)
    |                                               |                |                  [0]{}: in 0x5f-0x61 (2)
0x50|                                             41|               A|                    opcode: "i32.const" (0x41) 0x5f-0x60 (1)
0x60|00                                             |.               |                    n: 0 (valid) 0x60-0x61 (1)
    |                                               |                |                  [1]{}: in 0x61-0x62 (1)
0x60|   0b                                          | .              |                    opcode: "end" (0xb) 0x61-0x62 (1)
    |                                               |                |            [1]{}: code 0x62-0x67 (5)
0x60|      04                                       |  .             |              size: 4 (valid) 0x62-0x63 (1)
    |                                               |                |              code{}: 0x63-0x67 (4)
    |                                               |                |                t{}: 0x63-0x64 (1)
0x60|         00                                    |   .            |                  n: 0 (valid) 0x63-0x64 (1)
    |                                               |                |                  x[0:0]: 0x64-0x64 (0)
    |                                               |                |                e[0:2]: 0x64-0x67 (3)
    |                                               |                |                  [0]{}: in 0x64-0x66 (2)
0x60|            41                                 |    A           |                    opcode: "i32.const" (0x41) 0x64-0x65 (1)
0x60|               01                              |     .          |                    n: 1 (valid) 0x65-0x66 (1)
    |                                               |                |                  [1]{}: in 0x66-0x67 (1)
0x60|                  0b                           |      .         |                    opcode: "end" (0xb) 0x66-0x67 (1)
    |                                               |                |            [2]{}: code 0x67-0x6c (5)
0x60|                     04                        |       .        |              size: 4 (valid) 0x67-0x68 (1)
    |                                               |                |              code{}: 0x68-0x6c (4)
    |                                               |                |                t{}: 0x68-0x69 (1)
0x60|                        00                     |        .       |                  n: 0 (valid) 0x68-0x69 (1)
    |                                               |                |                  x[0:0]: 0x69-0x69 (0)
    |                                               |                |                e[0:2]: 0x69-0x6c (3)
    |                                               |                |                  [0]{}: in 0x69-0x6b (2)
0x60|                           41                  |         A      |                    opcode: "i32.const" (0x41) 0x69-0x6a (1)
0x60|                              02               |          .     |                    n: 2 (valid) 0x6a-0x6b (1)
    |                                               |                |                  [1]{}: in 0x6b-0x6c (1)
0x60|                                 0b            |           .    |                    opcode: "end" (0xb) 0x6b-0x6c (1)
    |                                               |                |            [3]{}: code 0x6c-0x71 (5)
0x60|                                    04         |            .   |              size: 4 (valid) 0x6c-0x6d (1)
    |                                               |                |              code{}: 0x6d-0x71 (4)
    |                                               |                |                t{}: 0x6d-0x6e (1)
0x60|                                       00      |             .  |                  n: 0 (valid) 0x6d-0x6e (1)
    |                                               |                |                  x[0:0]: 0x6e-0x6e (0)
    |                                               |                |                e[0:2]: 0x6e-0x71 (3)
    |                                               |                |                  [0]{}: in 0x6e-0x70 (2)
0x60|                                          41   |              A |                    opcode: "i32.const" (0x41) 0x6e-0x6f (1)
0x60|                                             03|               .|                    n: 3 (valid) 0x6f-0x70 (1)
    |                                               |                |                  [1]{}: in 0x70-0x71 (1)
0x70|0b                                             |.               |                    opcode: "end" (0xb) 0x70-0x71 (1)
    |                                               |                |            [4]{}: code 0x71-0x76 (5)
0x70|   04                                          | .              |              size: 4 (valid) 0x71-0x72 (1)
    |                                               |                |              code{}: 0x72-0x76 (4)
    |                                               |                |                t{}: 0x72-0x73 (1)
0x70|      00                                       |  .             |                  n: 0 (valid) 0x72-0x73 (1)
    |                                               |                |                  x[0:0]: 0x73-0x73 (0)
    |                                               |                |                e[0:2]: 0x73-0x76 (3)
    |                                               |                |                  [0]{}: in 0x73-0x75 (2)
0x70|         41                                    |   A            |                    opcode: "i32.const" (0x41) 0x73-0x74 (1)
0x70|            04                                 |    .           |                    n: 4 (valid) 0x74-0x75 (1)
    |                                               |                |                  [1]{}: in 0x75-0x76 (1)
0x70|               0b                              |     .          |                    opcode: "end" (0xb) 0x75-0x76 (1)
    |                                               |                |            [5]{}: code 0x76-0x7b (5)
0x70|                  04                           |      .         |              size: 4 (valid) 0x76-0x77 (1)
    |                                               |                |              code{}: 0x77-0x7b (4)
    |                                               |                |                t{}: 0x77-0x78 (1)
0x70|                     00                        |       .        |                  n: 0 (valid) 0x77-0x78 (1)
    |                                               |                |                  x[0:0]: 0x78-0x78 (0)
    |                                               |                |                e[0:2]: 0x78-0x7b (3)
    |                                               |                |                  [0]{}: in 0x78-0x7a (2)
0x70|                        41                     |        A       |                    opcode: "i32.const" (0x41) 0x78-0x79 (1)
0x70|                           05                  |         .      |                    n: 5 (valid) 0x79-0x7a (1)
    |                                               |                |                  [1]{}: in 0x7a-0x7b (1)
0x70|                              0b               |          .     |                    opcode: "end" (0xb) 0x7a-0x7b (1)
    |                                               |                |            [6]{}: code 0x7b-0x80 (5)
0x70|                                 04            |           .    |              size: 4 (valid) 0x7b-0x7c (1)
    |                                               |                |              code{}: 0x7c-0x80 (4)
    |                                               |                |                t{}: 0x7c-0x7d (1)
0x70|                                    00         |            .   |                  n: 0 (valid) 0x7c-0x7d (1)
    |                                               |                |                  x[0:0]: 0x7d-0x7d (0)
    |                                               |                |                e[0:2]: 0x7d-0x80 (3)
    |                                               |                |                  [0]{}: in 0x7d-0x7f (2)
0x70|                                       41      |             A  |                    opcode: "i32.const" (0x41) 0x7d-0x7e (1)
0x70|                                          06   |              . |                    n: 6 (valid) 0x7e-0x7f (1)
    |                                               |                |                  [1]{}: in 0x7f-0x80 (1)
0x70|                                             0b|               .|                    opcode: "end" (0xb) 0x7f-0x80 (1)
    |                                               |                |            [7]{}: code 0x80-0x85 (5)
0x80|04                                             |.               |              size: 4 (valid) 0x80-0x81 (1)
    |                                               |                |              code{}: 0x81-0x85 (4)
    |                                               |                |                t{}: 0x81-0x82 (1)
0x80|   00                                          | .              |                  n: 0 (valid) 0x81-0x82 (1)
    |                                               |                |                  x[0:0]: 0x82-0x82 (0)
    |                                               |                |                e[0:2]: 0x82-0x85 (3)
    |                                               |                |                  [0]{}: in 0x82-0x84 (2)
0x80|      41                                       |  A             |                    opcode: "i32.const" (0x41) 0x82-0x83 (1)
0x80|         07                                    |   .            |                    n: 7 (valid) 0x83-0x84 (1)
    |                                               |                |                  [1]{}: in 0x84-0x85 (1)
0x80|            0b                                 |    .           |                    opcode: "end" (0xb) 0x84-0x85 (1)
    |                                               |                |            [8]{}: code 0x85-0x8a (5)
0x80|               04                              |     .          |              size: 4 (valid) 0x85-0x86 (1)
    |                                               |                |              code{}: 0x86-0x8a (4)
    |                                               |                |                t{}: 0x86-0x87 (1)
0x80|                  00                           |      .         |                  n: 0 (valid) 0x86-0x87 (1)
    |                                               |                |                  x[0:0]: 0x87-0x87 (0)
    |                                               |                |                e[0:2]: 0x87-0x8a (3)
    |                                               |                |                  [0]{}: in 0x87-0x89 (2)
0x80|                     41                        |       A        |                    opcode: "i32.const" (0x41) 0x87-0x88 (1)
0x80|                        08                     |        .       |                    n: 8 (valid) 0x88-0x89 (1)
    |                                               |                |                  [1]{}: in 0x89-0x8a (1)
0x80|                           0b                  |         .      |                    opcode: "end" (0xb) 0x89-0x8a (1)
    |                                               |                |            [9]{}: code 0x8a-0x8f (5)
0x80|                              04               |          .     |              size: 4 (valid) 0x8a-0x8b (1)
    |                                               |                |              code{}: 0x8b-0x8f (4)
    |                                               |                |                t{}: 0x8b-0x8c (1)
0x80|                                 00            |           .    |                  n: 0 (valid) 0x8b-0x8c (1)
    |                                               |                |                  x[0:0]: 0x8c-0x8c (0)
    |                                               |                |                e[0:2]: 0x8c-0x8f (3)
    |                                               |                |                  [0]{}: in 0x8c-0x8e (2)
0x80|                                    41         |            A   |                    opcode: "i32.const" (0x41) 0x8c-0x8d (1)
0x80|                                       09      |             .  |                    n: 9 (valid) 0x8d-0x8e (1)
    |                                               |                |                  [1]{}: in 0x8e-0x8f (1)
0x80|                                          0b   |              . |                    opcode: "end" (0xb) 0x8e-0x8f (1)
    |                                               |                |            [10]{}: code 0x8f-0x9c (13)
0x80|                                             0c|               .|              size: 12 (valid) 0x8f-0x90 (1)
    |                                               |                |              code{}: 0x90-0x9c (12)
    |                                               |                |                t{}: 0x90-0x91 (1)
0x90|00                                             |.               |                  n: 0 (valid) 0x90-0x91 (1)
    |                                               |                |                  x[0:0]: 0x91-0x91 (0)
    |                                               |                |                e[0:5]: 0x91-0x9c (11)
    |                                               |                |                  [0]{}: in 0x91-0x93 (2)
0x90|   41                                          | A              |                    opcode: "i32.const" (0x41) 0x91-0x92 (1)
0x90|      0f                                       |  .             |                    n: 15 (valid) 0x92-0x93 (1)
    |                                               |                |                  [1]{}: in 0x93-0x95 (2)
0x90|         41                                    |   A            |                    opcode: "i32.const" (0x41) 0x93-0x94 (1)
0x90|            1e                                 |    .           |                    n: 30 (valid) 0x94-0x95 (1)
    |                                               |                |                  [2]{}: in 0x95-0x97 (2)
0x90|               41                              |     A          |                    opcode: "i32.const" (0x41) 0x95-0x96 (1)
0x90|                  00                           |      .         |                    n: 0 (valid) 0x96-0x97 (1)
    |                                               |                |                  [3]{}: in 0x97-0x9b (4)
0x90|                     fc                        |       .        |                    opcode: "prefix" (0xfc) 0x97-0x98 (1)
0x90|                        0e                     |        .       |                    p_opcode: "table.copy" (14) 0x98-0x99 (1)
0x90|                           01                  |         .      |                    x: 1 (valid) 0x99-0x9a (1)
0x90|                              00               |          .     |                    y: 0 (valid) 0x9a-0x9b (1)
    |                                               |                |                  [4]{}: in 0x9b-0x9c (1)
0x90|                                 0b|           |           .|   |                    opcode: "end" (0xb) 0x9b-0x9c (1)
