$ fq -d wasm dv table_set-0.wasm
    |00 01 02 03 04 05 06 07 08 09 0a 0b 0c 0d 0e 0f|0123456789abcdef|.{}: table_set-0.wasm (wasm) 0x0-0xe7 (231)
0x00|00 61 73 6d                                    |.asm            |  magic: raw bits (valid) 0x0-0x4 (4)
0x00|            01 00 00 00                        |    ....        |  version: 1 0x4-0x8 (4)
    |                                               |                |  sections[0:6]: 0x8-0xe7 (223)
    |                                               |                |    [0]{}: section 0x8-0x2c (36)
0x00|                        01                     |        .       |      id: "type_section" (1) 0x8-0x9 (1)
0x00|                           22                  |         "      |      size: 34 (valid) 0x9-0xa (1)
    |                                               |                |      content{}: 0xa-0x2c (34)
    |                                               |                |        ft{}: 0xa-0x2c (34)
0x00|                              07               |          .     |          n: 7 (valid) 0xa-0xb (1)
    |                                               |                |          x[0:7]: 0xb-0x2c (33)
    |                                               |                |            [0]{}: ft 0xb-0xe (3)
0x00|                                 60            |           `    |              tag: 0x60 (valid) 0xb-0xc (1)
    |                                               |                |              rt1{}: 0xc-0xd (1)
0x00|                                    00         |            .   |                n: 0 (valid) 0xc-0xd (1)
    |                                               |                |                x[0:0]: 0xd-0xd (0)
    |                                               |                |              rt2{}: 0xd-0xe (1)
0x00|                                       00      |             .  |                n: 0 (valid) 0xd-0xe (1)
    |                                               |                |                x[0:0]: 0xe-0xe (0)
    |                                               |                |            [1]{}: ft 0xe-0x13 (5)
0x00|                                          60   |              ` |              tag: 0x60 (valid) 0xe-0xf (1)
    |                                               |                |              rt1{}: 0xf-0x11 (2)
0x00|                                             01|               .|                n: 1 (valid) 0xf-0x10 (1)
    |                                               |                |                x[0:1]: 0x10-0x11 (1)
0x10|7f                                             |.               |                  [0]: "i32" (0x7f) t 0x10-0x11 (1)
    |                                               |                |              rt2{}: 0x11-0x13 (2)
0x10|   01                                          | .              |                n: 1 (valid) 0x11-0x12 (1)
    |                                               |                |                x[0:1]: 0x12-0x13 (1)
0x10|      6f                                       |  o             |                  [0]: "externref" (0x6f) t 0x12-0x13 (1)
    |                                               |                |            [2]{}: ft 0x13-0x18 (5)
0x10|         60                                    |   `            |              tag: 0x60 (valid) 0x13-0x14 (1)
    |                                               |                |              rt1{}: 0x14-0x16 (2)
0x10|            01                                 |    .           |                n: 1 (valid) 0x14-0x15 (1)
    |                                               |                |                x[0:1]: 0x15-0x16 (1)
0x10|               7f                              |     .          |                  [0]: "i32" (0x7f) t 0x15-0x16 (1)
    |                                               |                |              rt2{}: 0x16-0x18 (2)
0x10|                  01                           |      .         |                n: 1 (valid) 0x16-0x17 (1)
    |                                               |                |                x[0:1]: 0x17-0x18 (1)
0x10|                     70                        |       p        |                  [0]: "funcref" (0x70) t 0x17-0x18 (1)
    |                                               |                |            [3]{}: ft 0x18-0x1d (5)
0x10|                        60                     |        `       |              tag: 0x60 (valid) 0x18-0x19 (1)
    |                                               |                |              rt1{}: 0x19-0x1c (3)
0x10|                           02                  |         .      |                n: 2 (valid) 0x19-0x1a (1)
    |                                               |                |                x[0:2]: 0x1a-0x1c (2)
0x10|                              7f               |          .     |                  [0]: "i32" (0x7f) t 0x1a-0x1b (1)
0x10|                                 6f            |           o    |                  [1]: "externref" (0x6f) t 0x1b-0x1c (1)
    |                                               |                |              rt2{}: 0x1c-0x1d (1)
0x10|                                    00         |            .   |                n: 0 (valid) 0x1c-0x1d (1)
    |                                               |                |                x[0:0]: 0x1d-0x1d (0)
    |                                               |                |            [4]{}: ft 0x1d-0x22 (5)
0x10|                                       60      |             `  |              tag: 0x60 (valid) 0x1d-0x1e (1)
    |                                               |                |              rt1{}: 0x1e-0x21 (3)
0x10|                                          02   |              . |                n: 2 (valid) 0x1e-0x1f (1)
    |                                               |                |                x[0:2]: 0x1f-0x21 (2)
0x10|                                             7f|               .|                  [0]: "i32" (0x7f) t 0x1f-0x20 (1)
0x20|70                                             |p               |                  [1]: "funcref" (0x70) t 0x20-0x21 (1)
    |                                               |                |              rt2{}: 0x21-0x22 (1)
0x20|   00                                          | .              |                n: 0 (valid) 0x21-0x22 (1)
    |                                               |                |                x[0:0]: 0x22-0x22 (0)
    |                                               |                |            [5]{}: ft 0x22-0x27 (5)
0x20|      60                                       |  `             |              tag: 0x60 (valid) 0x22-0x23 (1)
    |                                               |                |              rt1{}: 0x23-0x26 (3)
0x20|         02                                    |   .            |                n: 2 (valid) 0x23-0x24 (1)
    |                                               |                |                x[0:2]: 0x24-0x26 (2)
0x20|            7f                                 |    .           |                  [0]: "i32" (0x7f) t 0x24-0x25 (1)
0x20|               7f                              |     .          |                  [1]: "i32" (0x7f) t 0x25-0x26 (1)
    |                                               |                |              rt2{}: 0x26-0x27 (1)
0x20|                  00                           |      .         |                n: 0 (valid) 0x26-0x27 (1)
    |                                               |                |                x[0:0]: 0x27-0x27 (0)
    |                                               |                |            [6]{}: ft 0x27-0x2c (5)
0x20|                     60                        |       `        |              tag: 0x60 (valid) 0x27-0x28 (1)
    |                                               |                |              rt1{}: 0x28-0x2a (2)
0x20|                        01                     |        .       |                n: 1 (valid) 0x28-0x29 (1)
    |                                               |                |                x[0:1]: 0x29-0x2a (1)
0x20|                           7f                  |         .      |                  [0]: "i32" (0x7f) t 0x29-0x2a (1)
    |                                               |                |              rt2{}: 0x2a-0x2c (2)
0x20|                              01               |          .     |                n: 1 (valid) 0x2a-0x2b (1)
    |                                               |                |                x[0:1]: 0x2b-0x2c (1)
0x20|                                 7f            |           .    |                  [0]: "i32" (0x7f) t 0x2b-0x2c (1)
    |                                               |                |    [1]{}: section 0x2c-0x36 (10)
0x20|                                    03         |            .   |      id: "function_section" (3) 0x2c-0x2d (1)
0x20|                                       08      |             .  |      size: 8 (valid) 0x2d-0x2e (1)
    |                                               |                |      content{}: 0x2e-0x36 (8)
    |                                               |                |        x{}: 0x2e-0x36 (8)
0x20|                                          07   |              . |          n: 7 (valid) 0x2e-0x2f (1)
    |                                               |                |          x[0:7]: 0x2f-0x36 (7)
0x20|                                             00|               .|            [0]: 0 x (valid) 0x2f-0x30 (1)
0x30|01                                             |.               |            [1]: 1 x (valid) 0x30-0x31 (1)
0x30|   02                                          | .              |            [2]: 2 x (valid) 0x31-0x32 (1)
0x30|      03                                       |  .             |            [3]: 3 x (valid) 0x32-0x33 (1)
0x30|         04                                    |   .            |            [4]: 4 x (valid) 0x33-0x34 (1)
0x30|            05                                 |    .           |            [5]: 5 x (valid) 0x34-0x35 (1)
0x30|               06                              |     .          |            [6]: 6 x (valid) 0x35-0x36 (1)
    |                                               |                |    [2]{}: section 0x36-0x3f (9)
0x30|                  04                           |      .         |      id: "table_section" (4) 0x36-0x37 (1)
0x30|                     07                        |       .        |      size: 7 (valid) 0x37-0x38 (1)
    |                                               |                |      content{}: 0x38-0x3f (7)
    |                                               |                |        tab{}: 0x38-0x3f (7)
0x30|                        02                     |        .       |          n: 2 (valid) 0x38-0x39 (1)
    |                                               |                |          x[0:2]: 0x39-0x3f (6)
    |                                               |                |            [0]{}: tab 0x39-0x3c (3)
0x30|                           6f                  |         o      |              et: "externref" (111) 0x39-0x3a (1)
    |                                               |                |              lim{}: 0x3a-0x3c (2)
0x30|                              00               |          .     |                tag: 0x0 0x3a-0x3b (1)
0x30|                                 01            |           .    |                n: 1 (valid) 0x3b-0x3c (1)
    |                                               |                |            [1]{}: tab 0x3c-0x3f (3)
0x30|                                    70         |            p   |              et: "funcref" (112) 0x3c-0x3d (1)
    |                                               |                |              lim{}: 0x3d-0x3f (2)
0x30|                                       00      |             .  |                tag: 0x0 0x3d-0x3e (1)
0x30|                                          02   |              . |                n: 2 (valid) 0x3e-0x3f (1)
    |                                               |                |    [3]{}: section 0x3f-0xa3 (100)
0x30|                                             07|               .|      id: "export_section" (7) 0x3f-0x40 (1)
0x40|62                                             |b               |      size: 98 (valid) 0x40-0x41 (1)
    |                                               |                |      content{}: 0x41-0xa3 (98)
    |                                               |                |        ex{}: 0x41-0xa3 (98)
0x40|   06                                          | .              |          n: 6 (valid) 0x41-0x42 (1)
    |                                               |                |          x[0:6]: 0x42-0xa3 (97)
    |                                               |                |            [0]{}: ex 0x42-0x52 (16)
    |                                               |                |              nm{}: 0x42-0x50 (14)
0x40|      0d                                       |  .             |                n: 13 (valid) 0x42-0x43 (1)
0x40|         67 65 74 2d 65 78 74 65 72 6e 72 65 66|   get-externref|                b: "get-externref" 0x43-0x50 (13)
    |                                               |                |              d{}: 0x50-0x52 (2)
0x50|00                                             |.               |                tag: "funcidx" (0x0) 0x50-0x51 (1)
0x50|   01                                          | .              |                x: 1 (valid) 0x51-0x52 (1)
    |                                               |                |            [1]{}: ex 0x52-0x60 (14)
    |                                               |                |              nm{}: 0x52-0x5e (12)
0x50|      0b                                       |  .             |                n: 11 (valid) 0x52-0x53 (1)
0x50|         67 65 74 2d 66 75 6e 63 72 65 66      |   get-funcref  |                b: "get-funcref" 0x53-0x5e (11)
    |                                               |                |              d{}: 0x5e-0x60 (2)
0x50|                                          00   |              . |                tag: "funcidx" (0x0) 0x5e-0x5f (1)
0x50|                                             02|               .|                x: 2 (valid) 0x5f-0x60 (1)
    |                                               |                |            [2]{}: ex 0x60-0x70 (16)
    |                                               |                |              nm{}: 0x60-0x6e (14)
0x60|0d                                             |.               |                n: 13 (valid) 0x60-0x61 (1)
0x60|   73 65 74 2d 65 78 74 65 72 6e 72 65 66      | set-externref  |                b: "set-externref" 0x61-0x6e (13)
    |                                               |                |              d{}: 0x6e-0x70 (2)
0x60|                                          00   |              . |                tag: "funcidx" (0x0) 0x6e-0x6f (1)
0x60|                                             03|               .|                x: 3 (valid) 0x6f-0x70 (1)
    |                                               |                |            [3]{}: ex 0x70-0x7e (14)
    |                                               |                |              nm{}: 0x70-0x7c (12)
0x70|0b                                             |.               |                n: 11 (valid) 0x70-0x71 (1)
0x70|   73 65 74 2d 66 75 6e 63 72 65 66            | set-funcref    |                b: "set-funcref" 0x71-0x7c (11)
    |                                               |                |              d{}: 0x7c-0x7e (2)
0x70|                                    00         |            .   |                tag: "funcidx" (0x0) 0x7c-0x7d (1)
0x70|                                       04      |             .  |                x: 4 (valid) 0x7d-0x7e (1)
    |                                               |                |            [4]{}: ex 0x7e-0x91 (19)
    |                                               |                |              nm{}: 0x7e-0x8f (17)
0x70|                                          10   |              . |                n: 16 (valid) 0x7e-0x7f (1)
0x70|                                             73|               s|                b: "set-funcref-from" 0x7f-0x8f (16)
0x80|65 74 2d 66 75 6e 63 72 65 66 2d 66 72 6f 6d   |et-funcref-from |
    |                                               |                |              d{}: 0x8f-0x91 (2)
0x80|                                             00|               .|                tag: "funcidx" (0x0) 0x8f-0x90 (1)
0x90|05                                             |.               |                x: 5 (valid) 0x90-0x91 (1)
    |                                               |                |            [5]{}: ex 0x91-0xa3 (18)
    |                                               |                |              nm{}: 0x91-0xa1 (16)
0x90|   0f                                          | .              |                n: 15 (valid) 0x91-0x92 (1)
0x90|      69 73 5f 6e 75 6c 6c 2d 66 75 6e 63 72 65|  is_null-funcre|                b: "is_null-funcref" 0x92-0xa1 (15)
0xa0|66                                             |f               |
    |                                               |                |              d{}: 0xa1-0xa3 (2)
0xa0|   00                                          | .              |                tag: "funcidx" (0x0) 0xa1-0xa2 (1)
0xa0|      06                                       |  .             |                x: 6 (valid) 0xa2-0xa3 (1)
    |                                               |                |    [4]{}: section 0xa3-0xae (11)
0xa0|         09                                    |   .            |      id: "element_section" (9) 0xa3-0xa4 (1)
0xa0|            09                                 |    .           |      size: 9 (valid) 0xa4-0xa5 (1)
    |                                               |                |      element{}: 0xa5-0xae (9)
    |                                               |                |        seg{}: 0xa5-0xae (9)
0xa0|               01                              |     .          |          n: 1 (valid) 0xa5-0xa6 (1)
    |                                               |                |          x[0:1]: 0xa6-0xae (8)
    |                                               |                |            [0]{}: seg 0xa6-0xae (8)
0xa0|                  02                           |      .         |              tag: 2 (valid) 0xa6-0xa7 (1)
0xa0|                     01                        |       .        |              x: 1 (valid) 0xa7-0xa8 (1)
    |                                               |                |              e[0:2]: 0xa8-0xab (3)
    |                                               |                |                [0]{}: in 0xa8-0xaa (2)
0xa0|                        41                     |        A       |                  opcode: "i32.const" (0x41) 0xa8-0xa9 (1)
0xa0|                           01                  |         .      |                  n: 1 (valid) 0xa9-0xaa (1)
    |                                               |                |                [1]{}: in 0xaa-0xab (1)
0xa0|                              0b               |          .     |                  opcode: "end" (0xb) 0xaa-0xab (1)
0xa0|                                 00            |           .    |              et: "funcref" (0) (valid) 0xab-0xac (1)
    |                                               |                |              y{}: 0xac-0xae (2)
0xa0|                                    01         |            .   |                n: 1 (valid) 0xac-0xad (1)
    |                                               |                |                x[0:1]: 0xad-0xae (1)
0xa0|                                       00      |             .  |                  [0]: 0 y (valid) 0xad-0xae (1)
    |                                               |                |    [5]{}: section 0xae-0xe7 (57)
0xa0|                                          0a   |              . |      id: "code_section" (10) 0xae-0xaf (1)
0xa0|                                             37|               7|      size: 55 (valid) 0xaf-0xb0 (1)
    |                                               |                |      content{}: 0xb0-0xe7 (55)
    |                                               |                |        code{}: 0xb0-0xe7 (55)
0xb0|07                                             |.               |          n: 7 (valid) 0xb0-0xb1 (1)
    |                                               |                |          x[0:7]: 0xb1-0xe7 (54)
    |                                               |                |            [0]{}: code 0xb1-0xb4 (3)
0xb0|   02                                          | .              |              size: 2 (valid) 0xb1-0xb2 (1)
    |                                               |                |              code{}: 0xb2-0xb4 (2)
    |                                               |                |                t{}: 0xb2-0xb3 (1)
0xb0|      00                                       |  .             |                  n: 0 (valid) 0xb2-0xb3 (1)
    |                                               |                |                  x[0:0]: 0xb3-0xb3 (0)
    |                                               |                |                e[0:1]: 0xb3-0xb4 (1)
    |                                               |                |                  [0]{}: in 0xb3-0xb4 (1)
0xb0|         0b                                    |   .            |                    opcode: "end" (0xb) 0xb3-0xb4 (1)
    |                                               |                |            [1]{}: code 0xb4-0xbb (7)
0xb0|            06                                 |    .           |              size: 6 (valid) 0xb4-0xb5 (1)
    |                                               |                |              code{}: 0xb5-0xbb (6)
    |                                               |                |                t{}: 0xb5-0xb6 (1)
0xb0|               00                              |     .          |                  n: 0 (valid) 0xb5-0xb6 (1)
    |                                               |                |                  x[0:0]: 0xb6-0xb6 (0)
    |                                               |                |                e[0:3]: 0xb6-0xbb (5)
    |                                               |                |                  [0]{}: in 0xb6-0xb8 (2)
0xb0|                  20                           |                |                    opcode: "local.get" (0x20) 0xb6-0xb7 (1)
0xb0|                     00                        |       .        |                    x: 0 (valid) 0xb7-0xb8 (1)
    |                                               |                |                  [1]{}: in 0xb8-0xba (2)
0xb0|                        25                     |        %       |                    opcode: "table.get" (0x25) 0xb8-0xb9 (1)
0xb0|                           00                  |         .      |                    x: 0 (valid) 0xb9-0xba (1)
    |                                               |                |                  [2]{}: in 0xba-0xbb (1)
0xb0|                              0b               |          .     |                    opcode: "end" (0xb) 0xba-0xbb (1)
    |                                               |                |            [2]{}: code 0xbb-0xc2 (7)
0xb0|                                 06            |           .    |              size: 6 (valid) 0xbb-0xbc (1)
    |                                               |                |              code{}: 0xbc-0xc2 (6)
    |                                               |                |                t{}: 0xbc-0xbd (1)
0xb0|                                    00         |            .   |                  n: 0 (valid) 0xbc-0xbd (1)
    |                                               |                |                  x[0:0]: 0xbd-0xbd (0)
    |                                               |                |                e[0:3]: 0xbd-0xc2 (5)
    |                                               |                |                  [0]{}: in 0xbd-0xbf (2)
0xb0|                                       20      |                |                    opcode: "local.get" (0x20) 0xbd-0xbe (1)
0xb0|                                          00   |              . |                    x: 0 (valid) 0xbe-0xbf (1)
    |                                               |                |                  [1]{}: in 0xbf-0xc1 (2)
0xb0|                                             25|               %|                    opcode: "table.get" (0x25) 0xbf-0xc0 (1)
0xc0|01                                             |.               |                    x: 1 (valid) 0xc0-0xc1 (1)
    |                                               |                |                  [2]{}: in 0xc1-0xc2 (1)
0xc0|   0b                                          | .              |                    opcode: "end" (0xb) 0xc1-0xc2 (1)
    |                                               |                |            [3]{}: code 0xc2-0xcb (9)
0xc0|      08                                       |  .             |              size: 8 (valid) 0xc2-0xc3 (1)
    |                                               |                |              code{}: 0xc3-0xcb (8)
    |                                               |                |                t{}: 0xc3-0xc4 (1)
0xc0|         00                                    |   .            |                  n: 0 (valid) 0xc3-0xc4 (1)
    |                                               |                |                  x[0:0]: 0xc4-0xc4 (0)
    |                                               |                |                e[0:4]: 0xc4-0xcb (7)
    |                                               |                |                  [0]{}: in 0xc4-0xc6 (2)
0xc0|            20                                 |                |                    opcode: "local.get" (0x20) 0xc4-0xc5 (1)
0xc0|               00                              |     .          |                    x: 0 (valid) 0xc5-0xc6 (1)
    |                                               |                |                  [1]{}: in 0xc6-0xc8 (2)
0xc0|                  20                           |                |                    opcode: "local.get" (0x20) 0xc6-0xc7 (1)
0xc0|                     01                        |       .        |                    x: 1 (valid) 0xc7-0xc8 (1)
    |                                               |                |                  [2]{}: in 0xc8-0xca (2)
0xc0|                        26                     |        &       |                    opcode: "table.set" (0x26) 0xc8-0xc9 (1)
0xc0|                           00                  |         .      |                    x: 0 (valid) 0xc9-0xca (1)
    |                                               |                |                  [3]{}: in 0xca-0xcb (1)
0xc0|                              0b               |          .     |                    opcode: "end" (0xb) 0xca-0xcb (1)
    |                                               |                |            [4]{}: code 0xcb-0xd4 (9)
0xc0|                                 08            |           .    |              size: 8 (valid) 0xcb-0xcc (1)
    |                                               |                |              code{}: 0xcc-0xd4 (8)
    |                                               |                |                t{}: 0xcc-0xcd (1)
0xc0|                                    00         |            .   |                  n: 0 (valid) 0xcc-0xcd (1)
    |                                               |                |                  x[0:0]: 0xcd-0xcd (0)
    |                                               |                |                e[0:4]: 0xcd-0xd4 (7)
    |                                               |                |                  [0]{}: in 0xcd-0xcf (2)
0xc0|                                       20      |                |                    opcode: "local.get" (0x20) 0xcd-0xce (1)
0xc0|                                          00   |              . |                    x: 0 (valid) 0xce-0xcf (1)
    |                                               |                |                  [1]{}: in 0xcf-0xd1 (2)
0xc0|                                             20|                |                    opcode: "local.get" (0x20) 0xcf-0xd0 (1)
0xd0|01                                             |.               |                    x: 1 (valid) 0xd0-0xd1 (1)
    |                                               |                |                  [2]{}: in 0xd1-0xd3 (2)
0xd0|   26                                          | &              |                    opcode: "table.set" (0x26) 0xd1-0xd2 (1)
0xd0|      01                                       |  .             |                    x: 1 (valid) 0xd2-0xd3 (1)
    |                                               |                |                  [3]{}: in 0xd3-0xd4 (1)
0xd0|         0b                                    |   .            |                    opcode: "end" (0xb) 0xd3-0xd4 (1)
    |                                               |                |            [5]{}: code 0xd4-0xdf (11)
0xd0|            0a                                 |    .           |              size: 10 (valid) 0xd4-0xd5 (1)
    |                                               |                |              code{}: 0xd5-0xdf (10)
    |                                               |                |                t{}: 0xd5-0xd6 (1)
0xd0|               00                              |     .          |                  n: 0 (valid) 0xd5-0xd6 (1)
    |                                               |                |                  x[0:0]: 0xd6-0xd6 (0)
    |                                               |                |                e[0:5]: 0xd6-0xdf (9)
    |                                               |                |                  [0]{}: in 0xd6-0xd8 (2)
0xd0|                  20                           |                |                    opcode: "local.get" (0x20) 0xd6-0xd7 (1)
0xd0|                     00                        |       .        |                    x: 0 (valid) 0xd7-0xd8 (1)
    |                                               |                |                  [1]{}: in 0xd8-0xda (2)
0xd0|                        20                     |                |                    opcode: "local.get" (0x20) 0xd8-0xd9 (1)
0xd0|                           01                  |         .      |                    x: 1 (valid) 0xd9-0xda (1)
    |                                               |                |                  [2]{}: in 0xda-0xdc (2)
0xd0|                              25               |          %     |                    opcode: "table.get" (0x25) 0xda-0xdb (1)
0xd0|                                 01            |           .    |                    x: 1 (valid) 0xdb-0xdc (1)
    |                                               |                |                  [3]{}: in 0xdc-0xde (2)
0xd0|                                    26         |            &   |                    opcode: "table.set" (0x26) 0xdc-0xdd (1)
0xd0|                                       01      |             .  |                    x: 1 (valid) 0xdd-0xde (1)
    |                                               |                |                  [4]{}: in 0xde-0xdf (1)
0xd0|                                          0b   |              . |                    opcode: "end" (0xb) 0xde-0xdf (1)
    |                                               |                |            [6]{}: code 0xdf-0xe7 (8)
0xd0|                                             07|               .|              size: 7 (valid) 0xdf-0xe0 (1)
    |                                               |                |              code{}: 0xe0-0xe7 (7)
    |                                               |                |                t{}: 0xe0-0xe1 (1)
0xe0|00                                             |.               |                  n: 0 (valid) 0xe0-0xe1 (1)
    |                                               |                |                  x[0:0]: 0xe1-0xe1 (0)
    |                                               |                |                e[0:4]: 0xe1-0xe7 (6)
    |                                               |                |                  [0]{}: in 0xe1-0xe3 (2)
0xe0|   20                                          |                |                    opcode: "local.get" (0x20) 0xe1-0xe2 (1)
0xe0|      00                                       |  .             |                    x: 0 (valid) 0xe2-0xe3 (1)
    |                                               |                |                  [1]{}: in 0xe3-0xe5 (2)
0xe0|         10                                    |   .            |                    opcode: "call" (0x10) 0xe3-0xe4 (1)
0xe0|            02                                 |    .           |                    x: 2 (valid) 0xe4-0xe5 (1)
    |                                               |                |                  [2]{}: in 0xe5-0xe6 (1)
0xe0|               d1                              |     .          |                    opcode: "ref.is_null" (0xd1) 0xe5-0xe6 (1)
    |                                               |                |                  [3]{}: in 0xe6-0xe7 (1)
0xe0|                  0b|                          |      .|        |                    opcode: "end" (0xb) 0xe6-0xe7 (1)
