$ fq -d wasm dv table_init-30.wasm
     |00 01 02 03 04 05 06 07 08 09 0a 0b 0c 0d 0e 0f|0123456789abcdef|.{}: table_init-30.wasm (wasm) 0x0-0x11b (283)
0x000|00 61 73 6d                                    |.asm            |  magic: raw bits (valid) 0x0-0x4 (4)
0x000|            01 00 00 00                        |    ....        |  version: 1 0x4-0x8 (4)
     |                                               |                |  sections[0:6]: 0x8-0x11b (275)
     |                                               |                |    [0]{}: section 0x8-0x19 (17)
0x000|                        01                     |        .       |      id: "type_section" (1) 0x8-0x9 (1)
0x000|                           0f                  |         .      |      size: 15 (valid) 0x9-0xa (1)
     |                                               |                |      content{}: 0xa-0x19 (15)
     |                                               |                |        ft{}: 0xa-0x19 (15)
0x000|                              03               |          .     |          n: 3 (valid) 0xa-0xb (1)
     |                                               |                |          x[0:3]: 0xb-0x19 (14)
     |                                               |                |            [0]{}: ft 0xb-0xf (4)
0x000|                                 60            |           `    |              tag: 0x60 (valid) 0xb-0xc (1)
     |                                               |                |              rt1{}: 0xc-0xd (1)
0x000|                                    00         |            .   |                n: 0 (valid) 0xc-0xd (1)
     |                                               |                |                x[0:0]: 0xd-0xd (0)
     |                                               |                |              rt2{}: 0xd-0xf (2)
0x000|                                       01      |             .  |                n: 1 (valid) 0xd-0xe (1)
     |                                               |                |                x[0:1]: 0xe-0xf (1)
0x000|                                          7f   |              . |                  [0]: "i32" (0x7f) t 0xe-0xf (1)
     |                                               |                |            [1]{}: ft 0xf-0x14 (5)
0x000|                                             60|               `|              tag: 0x60 (valid) 0xf-0x10 (1)
     |                                               |                |              rt1{}: 0x10-0x12 (2)
0x010|01                                             |.               |                n: 1 (valid) 0x10-0x11 (1)
     |                                               |                |                x[0:1]: 0x11-0x12 (1)
0x010|   7f                                          | .              |                  [0]: "i32" (0x7f) t 0x11-0x12 (1)
     |                                               |                |              rt2{}: 0x12-0x14 (2)
0x010|      01                                       |  .             |                n: 1 (valid) 0x12-0x13 (1)
     |                                               |                |                x[0:1]: 0x13-0x14 (1)
0x010|         7f                                    |   .            |                  [0]: "i32" (0x7f) t 0x13-0x14 (1)
     |                                               |                |            [2]{}: ft 0x14-0x19 (5)
0x010|            60                                 |    `           |              tag: 0x60 (valid) 0x14-0x15 (1)
     |                                               |                |              rt1{}: 0x15-0x18 (3)
0x010|               02                              |     .          |                n: 2 (valid) 0x15-0x16 (1)
     |                                               |                |                x[0:2]: 0x16-0x18 (2)
0x010|                  7f                           |      .         |                  [0]: "i32" (0x7f) t 0x16-0x17 (1)
0x010|                     7f                        |       .        |                  [1]: "i32" (0x7f) t 0x17-0x18 (1)
     |                                               |                |              rt2{}: 0x18-0x19 (1)
0x010|                        00                     |        .       |                n: 0 (valid) 0x18-0x19 (1)
     |                                               |                |                x[0:0]: 0x19-0x19 (0)
     |                                               |                |    [1]{}: section 0x19-0x2e (21)
0x010|                           03                  |         .      |      id: "function_section" (3) 0x19-0x1a (1)
0x010|                              13               |          .     |      size: 19 (valid) 0x1a-0x1b (1)
     |                                               |                |      content{}: 0x1b-0x2e (19)
     |                                               |                |        x{}: 0x1b-0x2e (19)
0x010|                                 12            |           .    |          n: 18 (valid) 0x1b-0x1c (1)
     |                                               |                |          x[0:18]: 0x1c-0x2e (18)
0x010|                                    00         |            .   |            [0]: 0 x (valid) 0x1c-0x1d (1)
0x010|                                       00      |             .  |            [1]: 0 x (valid) 0x1d-0x1e (1)
0x010|                                          00   |              . |            [2]: 0 x (valid) 0x1e-0x1f (1)
0x010|                                             00|               .|            [3]: 0 x (valid) 0x1f-0x20 (1)
0x020|00                                             |.               |            [4]: 0 x (valid) 0x20-0x21 (1)
0x020|   00                                          | .              |            [5]: 0 x (valid) 0x21-0x22 (1)
0x020|      00                                       |  .             |            [6]: 0 x (valid) 0x22-0x23 (1)
0x020|         00                                    |   .            |            [7]: 0 x (valid) 0x23-0x24 (1)
0x020|            00                                 |    .           |            [8]: 0 x (valid) 0x24-0x25 (1)
0x020|               00                              |     .          |            [9]: 0 x (valid) 0x25-0x26 (1)
0x020|                  00                           |      .         |            [10]: 0 x (valid) 0x26-0x27 (1)
0x020|                     00                        |       .        |            [11]: 0 x (valid) 0x27-0x28 (1)
0x020|                        00                     |        .       |            [12]: 0 x (valid) 0x28-0x29 (1)
0x020|                           00                  |         .      |            [13]: 0 x (valid) 0x29-0x2a (1)
0x020|                              00               |          .     |            [14]: 0 x (valid) 0x2a-0x2b (1)
0x020|                                 00            |           .    |            [15]: 0 x (valid) 0x2b-0x2c (1)
0x020|                                    01         |            .   |            [16]: 1 x (valid) 0x2c-0x2d (1)
0x020|                                       02      |             .  |            [17]: 2 x (valid) 0x2d-0x2e (1)
     |                                               |                |    [2]{}: section 0x2e-0x37 (9)
0x020|                                          04   |              . |      id: "table_section" (4) 0x2e-0x2f (1)
0x020|                                             07|               .|      size: 7 (valid) 0x2f-0x30 (1)
     |                                               |                |      content{}: 0x30-0x37 (7)
     |                                               |                |        tab{}: 0x30-0x37 (7)
0x030|01                                             |.               |          n: 1 (valid) 0x30-0x31 (1)
     |                                               |                |          x[0:1]: 0x31-0x37 (6)
     |                                               |                |            [0]{}: tab 0x31-0x37 (6)
0x030|   70                                          | p              |              et: "funcref" (112) 0x31-0x32 (1)
     |                                               |                |              lim{}: 0x32-0x37 (5)
0x030|      01                                       |  .             |                tag: 0x1 0x32-0x33 (1)
0x030|         a0 01                                 |   ..           |                n: 160 (valid) 0x33-0x35 (2)
0x030|               c0 02                           |     ..         |                m: 320 (valid) 0x35-0x37 (2)
     |                                               |                |    [3]{}: section 0x37-0x9d (102)
0x030|                     07                        |       .        |      id: "export_section" (7) 0x37-0x38 (1)
0x030|                        64                     |        d       |      size: 100 (valid) 0x38-0x39 (1)
     |                                               |                |      content{}: 0x39-0x9d (100)
     |                                               |                |        ex{}: 0x39-0x9d (100)
0x030|                           12                  |         .      |          n: 18 (valid) 0x39-0x3a (1)
     |                                               |                |          x[0:18]: 0x3a-0x9d (99)
     |                                               |                |            [0]{}: ex 0x3a-0x3f (5)
     |                                               |                |              nm{}: 0x3a-0x3d (3)
0x030|                              02               |          .     |                n: 2 (valid) 0x3a-0x3b (1)
0x030|                                 66 30         |           f0   |                b: "f0" 0x3b-0x3d (2)
     |                                               |                |              d{}: 0x3d-0x3f (2)
0x030|                                       00      |             .  |                tag: "funcidx" (0x0) 0x3d-0x3e (1)
0x030|                                          00   |              . |                x: 0 (valid) 0x3e-0x3f (1)
     |                                               |                |            [1]{}: ex 0x3f-0x44 (5)
     |                                               |                |              nm{}: 0x3f-0x42 (3)
0x030|                                             02|               .|                n: 2 (valid) 0x3f-0x40 (1)
0x040|66 31                                          |f1              |                b: "f1" 0x40-0x42 (2)
     |                                               |                |              d{}: 0x42-0x44 (2)
0x040|      00                                       |  .             |                tag: "funcidx" (0x0) 0x42-0x43 (1)
0x040|         01                                    |   .            |                x: 1 (valid) 0x43-0x44 (1)
     |                                               |                |            [2]{}: ex 0x44-0x49 (5)
     |                                               |                |              nm{}: 0x44-0x47 (3)
0x040|            02                                 |    .           |                n: 2 (valid) 0x44-0x45 (1)
0x040|               66 32                           |     f2         |                b: "f2" 0x45-0x47 (2)
     |                                               |                |              d{}: 0x47-0x49 (2)
0x040|                     00                        |       .        |                tag: "funcidx" (0x0) 0x47-0x48 (1)
0x040|                        02                     |        .       |                x: 2 (valid) 0x48-0x49 (1)
     |                                               |                |            [3]{}: ex 0x49-0x4e (5)
     |                                               |                |              nm{}: 0x49-0x4c (3)
0x040|                           02                  |         .      |                n: 2 (valid) 0x49-0x4a (1)
0x040|                              66 33            |          f3    |                b: "f3" 0x4a-0x4c (2)
     |                                               |                |              d{}: 0x4c-0x4e (2)
0x040|                                    00         |            .   |                tag: "funcidx" (0x0) 0x4c-0x4d (1)
0x040|                                       03      |             .  |                x: 3 (valid) 0x4d-0x4e (1)
     |                                               |                |            [4]{}: ex 0x4e-0x53 (5)
     |                                               |                |              nm{}: 0x4e-0x51 (3)
0x040|                                          02   |              . |                n: 2 (valid) 0x4e-0x4f (1)
0x040|                                             66|               f|                b: "f4" 0x4f-0x51 (2)
0x050|34                                             |4               |
     |                                               |                |              d{}: 0x51-0x53 (2)
0x050|   00                                          | .              |                tag: "funcidx" (0x0) 0x51-0x52 (1)
0x050|      04                                       |  .             |                x: 4 (valid) 0x52-0x53 (1)
     |                                               |                |            [5]{}: ex 0x53-0x58 (5)
     |                                               |                |              nm{}: 0x53-0x56 (3)
0x050|         02                                    |   .            |                n: 2 (valid) 0x53-0x54 (1)
0x050|            66 35                              |    f5          |                b: "f5" 0x54-0x56 (2)
     |                                               |                |              d{}: 0x56-0x58 (2)
0x050|                  00                           |      .         |                tag: "funcidx" (0x0) 0x56-0x57 (1)
0x050|                     05                        |       .        |                x: 5 (valid) 0x57-0x58 (1)
     |                                               |                |            [6]{}: ex 0x58-0x5d (5)
     |                                               |                |              nm{}: 0x58-0x5b (3)
0x050|                        02                     |        .       |                n: 2 (valid) 0x58-0x59 (1)
0x050|                           66 36               |         f6     |                b: "f6" 0x59-0x5b (2)
     |                                               |                |              d{}: 0x5b-0x5d (2)
0x050|                                 00            |           .    |                tag: "funcidx" (0x0) 0x5b-0x5c (1)
0x050|                                    06         |            .   |                x: 6 (valid) 0x5c-0x5d (1)
     |                                               |                |            [7]{}: ex 0x5d-0x62 (5)
     |                                               |                |              nm{}: 0x5d-0x60 (3)
0x050|                                       02      |             .  |                n: 2 (valid) 0x5d-0x5e (1)
0x050|                                          66 37|              f7|                b: "f7" 0x5e-0x60 (2)
     |                                               |                |              d{}: 0x60-0x62 (2)
0x060|00                                             |.               |                tag: "funcidx" (0x0) 0x60-0x61 (1)
0x060|   07                                          | .              |                x: 7 (valid) 0x61-0x62 (1)
     |                                               |                |            [8]{}: ex 0x62-0x67 (5)
     |                                               |                |              nm{}: 0x62-0x65 (3)
0x060|      02                                       |  .             |                n: 2 (valid) 0x62-0x63 (1)
0x060|         66 38                                 |   f8           |                b: "f8" 0x63-0x65 (2)
     |                                               |                |              d{}: 0x65-0x67 (2)
0x060|               00                              |     .          |                tag: "funcidx" (0x0) 0x65-0x66 (1)
0x060|                  08                           |      .         |                x: 8 (valid) 0x66-0x67 (1)
     |                                               |                |            [9]{}: ex 0x67-0x6c (5)
     |                                               |                |              nm{}: 0x67-0x6a (3)
0x060|                     02                        |       .        |                n: 2 (valid) 0x67-0x68 (1)
0x060|                        66 39                  |        f9      |                b: "f9" 0x68-0x6a (2)
     |                                               |                |              d{}: 0x6a-0x6c (2)
0x060|                              00               |          .     |                tag: "funcidx" (0x0) 0x6a-0x6b (1)
0x060|                                 09            |           .    |                x: 9 (valid) 0x6b-0x6c (1)
     |                                               |                |            [10]{}: ex 0x6c-0x72 (6)
     |                                               |                |              nm{}: 0x6c-0x70 (4)
0x060|                                    03         |            .   |                n: 3 (valid) 0x6c-0x6d (1)
0x060|                                       66 31 30|             f10|                b: "f10" 0x6d-0x70 (3)
     |                                               |                |              d{}: 0x70-0x72 (2)
0x070|00                                             |.               |                tag: "funcidx" (0x0) 0x70-0x71 (1)
0x070|   0a                                          | .              |                x: 10 (valid) 0x71-0x72 (1)
     |                                               |                |            [11]{}: ex 0x72-0x78 (6)
     |                                               |                |              nm{}: 0x72-0x76 (4)
0x070|      03                                       |  .             |                n: 3 (valid) 0x72-0x73 (1)
0x070|         66 31 31                              |   f11          |                b: "f11" 0x73-0x76 (3)
     |                                               |                |              d{}: 0x76-0x78 (2)
0x070|                  00                           |      .         |                tag: "funcidx" (0x0) 0x76-0x77 (1)
0x070|                     0b                        |       .        |                x: 11 (valid) 0x77-0x78 (1)
     |                                               |                |            [12]{}: ex 0x78-0x7e (6)
     |                                               |                |              nm{}: 0x78-0x7c (4)
0x070|                        03                     |        .       |                n: 3 (valid) 0x78-0x79 (1)
0x070|                           66 31 32            |         f12    |                b: "f12" 0x79-0x7c (3)
     |                                               |                |              d{}: 0x7c-0x7e (2)
0x070|                                    00         |            .   |                tag: "funcidx" (0x0) 0x7c-0x7d (1)
0x070|                                       0c      |             .  |                x: 12 (valid) 0x7d-0x7e (1)
     |                                               |                |            [13]{}: ex 0x7e-0x84 (6)
     |                                               |                |              nm{}: 0x7e-0x82 (4)
0x070|                                          03   |              . |                n: 3 (valid) 0x7e-0x7f (1)
0x070|                                             66|               f|                b: "f13" 0x7f-0x82 (3)
0x080|31 33                                          |13              |
     |                                               |                |              d{}: 0x82-0x84 (2)
0x080|      00                                       |  .             |                tag: "funcidx" (0x0) 0x82-0x83 (1)
0x080|         0d                                    |   .            |                x: 13 (valid) 0x83-0x84 (1)
     |                                               |                |            [14]{}: ex 0x84-0x8a (6)
     |                                               |                |              nm{}: 0x84-0x88 (4)
0x080|            03                                 |    .           |                n: 3 (valid) 0x84-0x85 (1)
0x080|               66 31 34                        |     f14        |                b: "f14" 0x85-0x88 (3)
     |                                               |                |              d{}: 0x88-0x8a (2)
0x080|                        00                     |        .       |                tag: "funcidx" (0x0) 0x88-0x89 (1)
0x080|                           0e                  |         .      |                x: 14 (valid) 0x89-0x8a (1)
     |                                               |                |            [15]{}: ex 0x8a-0x90 (6)
     |                                               |                |              nm{}: 0x8a-0x8e (4)
0x080|                              03               |          .     |                n: 3 (valid) 0x8a-0x8b (1)
0x080|                                 66 31 35      |           f15  |                b: "f15" 0x8b-0x8e (3)
     |                                               |                |              d{}: 0x8e-0x90 (2)
0x080|                                          00   |              . |                tag: "funcidx" (0x0) 0x8e-0x8f (1)
0x080|                                             0f|               .|                x: 15 (valid) 0x8f-0x90 (1)
     |                                               |                |            [16]{}: ex 0x90-0x97 (7)
     |                                               |                |              nm{}: 0x90-0x95 (5)
0x090|04                                             |.               |                n: 4 (valid) 0x90-0x91 (1)
0x090|   74 65 73 74                                 | test           |                b: "test" 0x91-0x95 (4)
     |                                               |                |              d{}: 0x95-0x97 (2)
0x090|               00                              |     .          |                tag: "funcidx" (0x0) 0x95-0x96 (1)
0x090|                  10                           |      .         |                x: 16 (valid) 0x96-0x97 (1)
     |                                               |                |            [17]{}: ex 0x97-0x9d (6)
     |                                               |                |              nm{}: 0x97-0x9b (4)
0x090|                     03                        |       .        |                n: 3 (valid) 0x97-0x98 (1)
0x090|                        72 75 6e               |        run     |                b: "run" 0x98-0x9b (3)
     |                                               |                |              d{}: 0x9b-0x9d (2)
0x090|                                 00            |           .    |                tag: "funcidx" (0x0) 0x9b-0x9c (1)
0x090|                                    11         |            .   |                x: 17 (valid) 0x9c-0x9d (1)
     |                                               |                |    [4]{}: section 0x9d-0xb3 (22)
0x090|                                       09      |             .  |      id: "element_section" (9) 0x9d-0x9e (1)
0x090|                                          14   |              . |      size: 20 (valid) 0x9e-0x9f (1)
     |                                               |                |      element{}: 0x9f-0xb3 (20)
     |                                               |                |        seg{}: 0x9f-0xb3 (20)
0x090|                                             01|               .|          n: 1 (valid) 0x9f-0xa0 (1)
     |                                               |                |          x[0:1]: 0xa0-0xb3 (19)
     |                                               |                |            [0]{}: seg 0xa0-0xb3 (19)
0x0a0|01                                             |.               |              tag: 1 (valid) 0xa0-0xa1 (1)
0x0a0|   00                                          | .              |              et: "funcref" (0) (valid) 0xa1-0xa2 (1)
     |                                               |                |              y{}: 0xa2-0xb3 (17)
0x0a0|      10                                       |  .             |                n: 16 (valid) 0xa2-0xa3 (1)
     |                                               |                |                x[0:16]: 0xa3-0xb3 (16)
0x0a0|         00                                    |   .            |                  [0]: 0 y (valid) 0xa3-0xa4 (1)
0x0a0|            01                                 |    .           |                  [1]: 1 y (valid) 0xa4-0xa5 (1)
0x0a0|               02                              |     .          |                  [2]: 2 y (valid) 0xa5-0xa6 (1)
0x0a0|                  03                           |      .         |                  [3]: 3 y (valid) 0xa6-0xa7 (1)
0x0a0|                     04                        |       .        |                  [4]: 4 y (valid) 0xa7-0xa8 (1)
0x0a0|                        05                     |        .       |                  [5]: 5 y (valid) 0xa8-0xa9 (1)
0x0a0|                           06                  |         .      |                  [6]: 6 y (valid) 0xa9-0xaa (1)
0x0a0|                              07               |          .     |                  [7]: 7 y (valid) 0xaa-0xab (1)
0x0a0|                                 08            |           .    |                  [8]: 8 y (valid) 0xab-0xac (1)
0x0a0|                                    09         |            .   |                  [9]: 9 y (valid) 0xac-0xad (1)
0x0a0|                                       0a      |             .  |                  [10]: 10 y (valid) 0xad-0xae (1)
0x0a0|                                          0b   |              . |                  [11]: 11 y (valid) 0xae-0xaf (1)
0x0a0|                                             0c|               .|                  [12]: 12 y (valid) 0xaf-0xb0 (1)
0x0b0|0d                                             |.               |                  [13]: 13 y (valid) 0xb0-0xb1 (1)
0x0b0|   0e                                          | .              |                  [14]: 14 y (valid) 0xb1-0xb2 (1)
0x0b0|      0f                                       |  .             |                  [15]: 15 y (valid) 0xb2-0xb3 (1)
     |                                               |                |    [5]{}: section 0xb3-0x11b (104)
0x0b0|         0a                                    |   .            |      id: "code_section" (10) 0xb3-0xb4 (1)
0x0b0|            66                                 |    f           |      size: 102 (valid) 0xb4-0xb5 (1)
     |                                               |                |      content{}: 0xb5-0x11b (102)
     |                                               |                |        code{}: 0xb5-0x11b (102)
0x0b0|               12                              |     .          |          n: 18 (valid) 0xb5-0xb6 (1)
     |                                               |                |          x[0:18]: 0xb6-0x11b (101)
     |                                               |                |            [0]{}: code 0xb6-0xbb (5)
0x0b0|                  04                           |      .         |              size: 4 (valid) 0xb6-0xb7 (1)
     |                                               |                |              code{}: 0xb7-0xbb (4)
     |                                               |                |                t{}: 0xb7-0xb8 (1)
0x0b0|                     00                        |       .        |                  n: 0 (valid) 0xb7-0xb8 (1)
     |                                               |                |                  x[0:0]: 0xb8-0xb8 (0)
     |                                               |                |                e[0:2]: 0xb8-0xbb (3)
     |                                               |                |                  [0]{}: in 0xb8-0xba (2)
0x0b0|                        41                     |        A       |                    opcode: "i32.const" (0x41) 0xb8-0xb9 (1)
0x0b0|                           00                  |         .      |                    n: 0 (valid) 0xb9-0xba (1)
     |                                               |                |                  [1]{}: in 0xba-0xbb (1)
0x0b0|                              0b               |          .     |                    opcode: "end" (0xb) 0xba-0xbb (1)
     |                                               |                |            [1]{}: code 0xbb-0xc0 (5)
0x0b0|                                 04            |           .    |              size: 4 (valid) 0xbb-0xbc (1)
     |                                               |                |              code{}: 0xbc-0xc0 (4)
     |                                               |                |                t{}: 0xbc-0xbd (1)
0x0b0|                                    00         |            .   |                  n: 0 (valid) 0xbc-0xbd (1)
     |                                               |                |                  x[0:0]: 0xbd-0xbd (0)
     |                                               |                |                e[0:2]: 0xbd-0xc0 (3)
     |                                               |                |                  [0]{}: in 0xbd-0xbf (2)
0x0b0|                                       41      |             A  |                    opcode: "i32.const" (0x41) 0xbd-0xbe (1)
0x0b0|                                          01   |              . |                    n: 1 (valid) 0xbe-0xbf (1)
     |                                               |                |                  [1]{}: in 0xbf-0xc0 (1)
0x0b0|                                             0b|               .|                    opcode: "end" (0xb) 0xbf-0xc0 (1)
     |                                               |                |            [2]{}: code 0xc0-0xc5 (5)
0x0c0|04                                             |.               |              size: 4 (valid) 0xc0-0xc1 (1)
     |                                               |                |              code{}: 0xc1-0xc5 (4)
     |                                               |                |                t{}: 0xc1-0xc2 (1)
0x0c0|   00                                          | .              |                  n: 0 (valid) 0xc1-0xc2 (1)
     |                                               |                |                  x[0:0]: 0xc2-0xc2 (0)
     |                                               |                |                e[0:2]: 0xc2-0xc5 (3)
     |                                               |                |                  [0]{}: in 0xc2-0xc4 (2)
0x0c0|      41                                       |  A             |                    opcode: "i32.const" (0x41) 0xc2-0xc3 (1)
0x0c0|         02                                    |   .            |                    n: 2 (valid) 0xc3-0xc4 (1)
     |                                               |                |                  [1]{}: in 0xc4-0xc5 (1)
0x0c0|            0b                                 |    .           |                    opcode: "end" (0xb) 0xc4-0xc5 (1)
     |                                               |                |            [3]{}: code 0xc5-0xca (5)
0x0c0|               04                              |     .          |              size: 4 (valid) 0xc5-0xc6 (1)
     |                                               |                |              code{}: 0xc6-0xca (4)
     |                                               |                |                t{}: 0xc6-0xc7 (1)
0x0c0|                  00                           |      .         |                  n: 0 (valid) 0xc6-0xc7 (1)
     |                                               |                |                  x[0:0]: 0xc7-0xc7 (0)
     |                                               |                |                e[0:2]: 0xc7-0xca (3)
     |                                               |                |                  [0]{}: in 0xc7-0xc9 (2)
0x0c0|                     41                        |       A        |                    opcode: "i32.const" (0x41) 0xc7-0xc8 (1)
0x0c0|                        03                     |        .       |                    n: 3 (valid) 0xc8-0xc9 (1)
     |                                               |                |                  [1]{}: in 0xc9-0xca (1)
0x0c0|                           0b                  |         .      |                    opcode: "end" (0xb) 0xc9-0xca (1)
     |                                               |                |            [4]{}: code 0xca-0xcf (5)
0x0c0|                              04               |          .     |              size: 4 (valid) 0xca-0xcb (1)
     |                                               |                |              code{}: 0xcb-0xcf (4)
     |                                               |                |                t{}: 0xcb-0xcc (1)
0x0c0|                                 00            |           .    |                  n: 0 (valid) 0xcb-0xcc (1)
     |                                               |                |                  x[0:0]: 0xcc-0xcc (0)
     |                                               |                |                e[0:2]: 0xcc-0xcf (3)
     |                                               |                |                  [0]{}: in 0xcc-0xce (2)
0x0c0|                                    41         |            A   |                    opcode: "i32.const" (0x41) 0xcc-0xcd (1)
0x0c0|                                       04      |             .  |                    n: 4 (valid) 0xcd-0xce (1)
     |                                               |                |                  [1]{}: in 0xce-0xcf (1)
0x0c0|                                          0b   |              . |                    opcode: "end" (0xb) 0xce-0xcf (1)
     |                                               |                |            [5]{}: code 0xcf-0xd4 (5)
0x0c0|                                             04|               .|              size: 4 (valid) 0xcf-0xd0 (1)
     |                                               |                |              code{}: 0xd0-0xd4 (4)
     |                                               |                |                t{}: 0xd0-0xd1 (1)
0x0d0|00                                             |.               |                  n: 0 (valid) 0xd0-0xd1 (1)
     |                                               |                |                  x[0:0]: 0xd1-0xd1 (0)
     |                                               |                |                e[0:2]: 0xd1-0xd4 (3)
     |                                               |                |                  [0]{}: in 0xd1-0xd3 (2)
0x0d0|   41                                          | A              |                    opcode: "i32.const" (0x41) 0xd1-0xd2 (1)
0x0d0|      05                                       |  .             |                    n: 5 (valid) 0xd2-0xd3 (1)
     |                                               |                |                  [1]{}: in 0xd3-0xd4 (1)
0x0d0|         0b                                    |   .            |                    opcode: "end" (0xb) 0xd3-0xd4 (1)
     |                                               |                |            [6]{}: code 0xd4-0xd9 (5)
0x0d0|            04                                 |    .           |              size: 4 (valid) 0xd4-0xd5 (1)
     |                                               |                |              code{}: 0xd5-0xd9 (4)
     |                                               |                |                t{}: 0xd5-0xd6 (1)
0x0d0|               00                              |     .          |                  n: 0 (valid) 0xd5-0xd6 (1)
     |                                               |                |                  x[0:0]: 0xd6-0xd6 (0)
     |                                               |                |                e[0:2]: 0xd6-0xd9 (3)
     |                                               |                |                  [0]{}: in 0xd6-0xd8 (2)
0x0d0|                  41                           |      A         |                    opcode: "i32.const" (0x41) 0xd6-0xd7 (1)
0x0d0|                     06                        |       .        |                    n: 6 (valid) 0xd7-0xd8 (1)
     |                                               |                |                  [1]{}: in 0xd8-0xd9 (1)
0x0d0|                        0b                     |        .       |                    opcode: "end" (0xb) 0xd8-0xd9 (1)
     |                                               |                |            [7]{}: code 0xd9-0xde (5)
0x0d0|                           04                  |         .      |              size: 4 (valid) 0xd9-0xda (1)
     |                                               |                |              code{}: 0xda-0xde (4)
     |                                               |                |                t{}: 0xda-0xdb (1)
0x0d0|                              00               |          .     |                  n: 0 (valid) 0xda-0xdb (1)
     |                                               |                |                  x[0:0]: 0xdb-0xdb (0)
     |                                               |                |                e[0:2]: 0xdb-0xde (3)
     |                                               |                |                  [0]{}: in 0xdb-0xdd (2)
0x0d0|                                 41            |           A    |                    opcode: "i32.const" (0x41) 0xdb-0xdc (1)
0x0d0|                                    07         |            .   |                    n: 7 (valid) 0xdc-0xdd (1)
     |                                               |                |                  [1]{}: in 0xdd-0xde (1)
0x0d0|                                       0b      |             .  |                    opcode: "end" (0xb) 0xdd-0xde (1)
     |                                               |                |            [8]{}: code 0xde-0xe3 (5)
0x0d0|                                          04   |              . |              size: 4 (valid) 0xde-0xdf (1)
     |                                               |                |              code{}: 0xdf-0xe3 (4)
     |                                               |                |                t{}: 0xdf-0xe0 (1)
0x0d0|                                             00|               .|                  n: 0 (valid) 0xdf-0xe0 (1)
     |                                               |                |                  x[0:0]: 0xe0-0xe0 (0)
     |                                               |                |                e[0:2]: 0xe0-0xe3 (3)
     |                                               |                |                  [0]{}: in 0xe0-0xe2 (2)
0x0e0|41                                             |A               |                    opcode: "i32.const" (0x41) 0xe0-0xe1 (1)
0x0e0|   08                                          | .              |                    n: 8 (valid) 0xe1-0xe2 (1)
     |                                               |                |                  [1]{}: in 0xe2-0xe3 (1)
0x0e0|      0b                                       |  .             |                    opcode: "end" (0xb) 0xe2-0xe3 (1)
     |                                               |                |            [9]{}: code 0xe3-0xe8 (5)
0x0e0|         04                                    |   .            |              size: 4 (valid) 0xe3-0xe4 (1)
     |                                               |                |              code{}: 0xe4-0xe8 (4)
     |                                               |                |                t{}: 0xe4-0xe5 (1)
0x0e0|            00                                 |    .           |                  n: 0 (valid) 0xe4-0xe5 (1)
     |                                               |                |                  x[0:0]: 0xe5-0xe5 (0)
     |                                               |                |                e[0:2]: 0xe5-0xe8 (3)
     |                                               |                |                  [0]{}: in 0xe5-0xe7 (2)
0x0e0|               41                              |     A          |                    opcode: "i32.const" (0x41) 0xe5-0xe6 (1)
0x0e0|                  09                           |      .         |                    n: 9 (valid) 0xe6-0xe7 (1)
     |                                               |                |                  [1]{}: in 0xe7-0xe8 (1)
0x0e0|                     0b                        |       .        |                    opcode: "end" (0xb) 0xe7-0xe8 (1)
     |                                               |                |            [10]{}: code 0xe8-0xed (5)
0x0e0|                        04                     |        .       |              size: 4 (valid) 0xe8-0xe9 (1)
     |                                               |                |              code{}: 0xe9-0xed (4)
     |                                               |                |                t{}: 0xe9-0xea (1)
0x0e0|                           00                  |         .      |                  n: 0 (valid) 0xe9-0xea (1)
     |                                               |                |                  x[0:0]: 0xea-0xea (0)
     |                                               |                |                e[0:2]: 0xea-0xed (3)
     |                                               |                |                  [0]{}: in 0xea-0xec (2)
0x0e0|                              41               |          A     |                    opcode: "i32.const" (0x41) 0xea-0xeb (1)
0x0e0|                                 0a            |           .    |                    n: 10 (valid) 0xeb-0xec (1)
     |                                               |                |                  [1]{}: in 0xec-0xed (1)
0x0e0|                                    0b         |            .   |                    opcode: "end" (0xb) 0xec-0xed (1)
     |                                               |                |            [11]{}: code 0xed-0xf2 (5)
0x0e0|                                       04      |             .  |              size: 4 (valid) 0xed-0xee (1)
     |                                               |                |              code{}: 0xee-0xf2 (4)
     |                                               |                |                t{}: 0xee-0xef (1)
0x0e0|                                          00   |              . |                  n: 0 (valid) 0xee-0xef (1)
     |                                               |                |                  x[0:0]: 0xef-0xef (0)
     |                                               |                |                e[0:2]: 0xef-0xf2 (3)
     |                                               |                |                  [0]{}: in 0xef-0xf1 (2)
0x0e0|                                             41|               A|                    opcode: "i32.const" (0x41) 0xef-0xf0 (1)
0x0f0|0b                                             |.               |                    n: 11 (valid) 0xf0-0xf1 (1)
     |                                               |                |                  [1]{}: in 0xf1-0xf2 (1)
0x0f0|   0b                                          | .              |                    opcode: "end" (0xb) 0xf1-0xf2 (1)
     |                                               |                |            [12]{}: code 0xf2-0xf7 (5)
0x0f0|      04                                       |  .             |              size: 4 (valid) 0xf2-0xf3 (1)
     |                                               |                |              code{}: 0xf3-0xf7 (4)
     |                                               |                |                t{}: 0xf3-0xf4 (1)
0x0f0|         00                                    |   .            |                  n: 0 (valid) 0xf3-0xf4 (1)
     |                                               |                |                  x[0:0]: 0xf4-0xf4 (0)
     |                                               |                |                e[0:2]: 0xf4-0xf7 (3)
     |                                               |                |                  [0]{}: in 0xf4-0xf6 (2)
0x0f0|            41                                 |    A           |                    opcode: "i32.const" (0x41) 0xf4-0xf5 (1)
0x0f0|               0c                              |     .          |                    n: 12 (valid) 0xf5-0xf6 (1)
     |                                               |                |                  [1]{}: in 0xf6-0xf7 (1)
0x0f0|                  0b                           |      .         |                    opcode: "end" (0xb) 0xf6-0xf7 (1)
     |                                               |                |            [13]{}: code 0xf7-0xfc (5)
0x0f0|                     04                        |       .        |              size: 4 (valid) 0xf7-0xf8 (1)
     |                                               |                |              code{}: 0xf8-0xfc (4)
     |                                               |                |                t{}: 0xf8-0xf9 (1)
0x0f0|                        00                     |        .       |                  n: 0 (valid) 0xf8-0xf9 (1)
     |                                               |                |                  x[0:0]: 0xf9-0xf9 (0)
     |                                               |                |                e[0:2]: 0xf9-0xfc (3)
     |                                               |                |                  [0]{}: in 0xf9-0xfb (2)
0x0f0|                           41                  |         A      |                    opcode: "i32.const" (0x41) 0xf9-0xfa (1)
0x0f0|                              0d               |          .     |                    n: 13 (valid) 0xfa-0xfb (1)
     |                                               |                |                  [1]{}: in 0xfb-0xfc (1)
0x0f0|                                 0b            |           .    |                    opcode: "end" (0xb) 0xfb-0xfc (1)
     |                                               |                |            [14]{}: code 0xfc-0x101 (5)
0x0f0|                                    04         |            .   |              size: 4 (valid) 0xfc-0xfd (1)
     |                                               |                |              code{}: 0xfd-0x101 (4)
     |                                               |                |                t{}: 0xfd-0xfe (1)
0x0f0|                                       00      |             .  |                  n: 0 (valid) 0xfd-0xfe (1)
     |                                               |                |                  x[0:0]: 0xfe-0xfe (0)
     |                                               |                |                e[0:2]: 0xfe-0x101 (3)
     |                                               |                |                  [0]{}: in 0xfe-0x100 (2)
0x0f0|                                          41   |              A |                    opcode: "i32.const" (0x41) 0xfe-0xff (1)
0x0f0|                                             0e|               .|                    n: 14 (valid) 0xff-0x100 (1)
     |                                               |                |                  [1]{}: in 0x100-0x101 (1)
0x100|0b                                             |.               |                    opcode: "end" (0xb) 0x100-0x101 (1)
     |                                               |                |            [15]{}: code 0x101-0x106 (5)
0x100|   04                                          | .              |              size: 4 (valid) 0x101-0x102 (1)
     |                                               |                |              code{}: 0x102-0x106 (4)
     |                                               |                |                t{}: 0x102-0x103 (1)
0x100|      00                                       |  .             |                  n: 0 (valid) 0x102-0x103 (1)
     |                                               |                |                  x[0:0]: 0x103-0x103 (0)
     |                                               |                |                e[0:2]: 0x103-0x106 (3)
     |                                               |                |                  [0]{}: in 0x103-0x105 (2)
0x100|         41                                    |   A            |                    opcode: "i32.const" (0x41) 0x103-0x104 (1)
0x100|            0f                                 |    .           |                    n: 15 (valid) 0x104-0x105 (1)
     |                                               |                |                  [1]{}: in 0x105-0x106 (1)
0x100|               0b                              |     .          |                    opcode: "end" (0xb) 0x105-0x106 (1)
     |                                               |                |            [16]{}: code 0x106-0x10e (8)
0x100|                  07                           |      .         |              size: 7 (valid) 0x106-0x107 (1)
     |                                               |                |              code{}: 0x107-0x10e (7)
     |                                               |                |                t{}: 0x107-0x108 (1)
0x100|                     00                        |       .        |                  n: 0 (valid) 0x107-0x108 (1)
     |                                               |                |                  x[0:0]: 0x108-0x108 (0)
     |                                               |                |                e[0:3]: 0x108-0x10e (6)
     |                                               |                |                  [0]{}: in 0x108-0x10a (2)
0x100|                        20                     |                |                    opcode: "local.get" (0x20) 0x108-0x109 (1)
0x100|                           00                  |         .      |                    x: 0 (valid) 0x109-0x10a (1)
     |                                               |                |                  [1]{}: in 0x10a-0x10d (3)
0x100|                              11               |          .     |                    opcode: "call_indirect" (0x11) 0x10a-0x10b (1)
0x100|                                 00            |           .    |                    y: 0 (valid) 0x10b-0x10c (1)
0x100|                                    00         |            .   |                    x: 0 (valid) 0x10c-0x10d (1)
     |                                               |                |                  [2]{}: in 0x10d-0x10e (1)
0x100|                                       0b      |             .  |                    opcode: "end" (0xb) 0x10d-0x10e (1)
     |                                               |                |            [17]{}: code 0x10e-0x11b (13)
0x100|                                          0c   |              . |              size: 12 (valid) 0x10e-0x10f (1)
     |                                               |                |              code{}: 0x10f-0x11b (12)
     |                                               |                |                t{}: 0x10f-0x110 (1)
0x100|                                             00|               .|                  n: 0 (valid) 0x10f-0x110 (1)
     |                                               |                |                  x[0:0]: 0x110-0x110 (0)
     |                                               |                |                e[0:5]: 0x110-0x11b (11)
     |                                               |                |                  [0]{}: in 0x110-0x112 (2)
0x110|20                                             |                |                    opcode: "local.get" (0x20) 0x110-0x111 (1)
0x110|   00                                          | .              |                    x: 0 (valid) 0x111-0x112 (1)
     |                                               |                |                  [1]{}: in 0x112-0x114 (2)
0x110|      41                                       |  A             |                    opcode: "i32.const" (0x41) 0x112-0x113 (1)
0x110|         00                                    |   .            |                    n: 0 (valid) 0x113-0x114 (1)
     |                                               |                |                  [2]{}: in 0x114-0x116 (2)
0x110|            20                                 |                |                    opcode: "local.get" (0x20) 0x114-0x115 (1)
0x110|               01                              |     .          |                    x: 1 (valid) 0x115-0x116 (1)
     |                                               |                |                  [3]{}: in 0x116-0x11a (4)
0x110|                  fc                           |      .         |                    opcode: "prefix" (0xfc) 0x116-0x117 (1)
0x110|                     0c                        |       .        |                    p_opcode: "table.init" (12) 0x117-0x118 (1)
0x110|                        00                     |        .       |                    y: 0 (valid) 0x118-0x119 (1)
0x110|                           00                  |         .      |                    x: 0 (valid) 0x119-0x11a (1)
     |                                               |                |                  [4]{}: in 0x11a-0x11b (1)
0x110|                              0b|              |          .|    |                    opcode: "end" (0xb) 0x11a-0x11b (1)
