$ fq -d wasm dv table_init-1.wasm
    |00 01 02 03 04 05 06 07 08 09 0a 0b 0c 0d 0e 0f|0123456789abcdef|.{}: table_init-1.wasm (wasm) 0x0-0xbf (191)
0x00|00 61 73 6d                                    |.asm            |  magic: raw bits (valid) 0x0-0x4 (4)
0x00|            01 00 00 00                        |    ....        |  version: 1 0x4-0x8 (4)
    |                                               |                |  sections[0:7]: 0x8-0xbf (183)
    |                                               |                |    [0]{}: section 0x8-0x17 (15)
0x00|                        01                     |        .       |      id: "type_section" (1) 0x8-0x9 (1)
0x00|                           0d                  |         .      |      size: 13 (valid) 0x9-0xa (1)
    |                                               |                |      content{}: 0xa-0x17 (13)
    |                                               |                |        ft{}: 0xa-0x17 (13)
0x00|                              03               |          .     |          n: 3 (valid) 0xa-0xb (1)
    |                                               |                |          x[0:3]: 0xb-0x17 (12)
    |                                               |                |            [0]{}: ft 0xb-0xf (4)
0x00|                                 60            |           `    |              tag: 0x60 (valid) 0xb-0xc (1)
    |                                               |                |              rt1{}: 0xc-0xd (1)
0x00|                                    00         |            .   |                n: 0 (valid) 0xc-0xd (1)
    |                                               |                |                x[0:0]: 0xd-0xd (0)
    |                                               |                |              rt2{}: 0xd-0xf (2)
0x00|                                       01      |             .  |                n: 1 (valid) 0xd-0xe (1)
    |                                               |                |                x[0:1]: 0xe-0xf (1)
0x00|                                          7f   |              . |                  [0]: "i32" (0x7f) t 0xe-0xf (1)
    |                                               |                |            [1]{}: ft 0xf-0x12 (3)
0x00|                                             60|               `|              tag: 0x60 (valid) 0xf-0x10 (1)
    |                                               |                |              rt1{}: 0x10-0x11 (1)
0x10|00                                             |.               |                n: 0 (valid) 0x10-0x11 (1)
    |                                               |                |                x[0:0]: 0x11-0x11 (0)
    |                                               |                |              rt2{}: 0x11-0x12 (1)
0x10|   00                                          | .              |                n: 0 (valid) 0x11-0x12 (1)
    |                                               |                |                x[0:0]: 0x12-0x12 (0)
    |                                               |                |            [2]{}: ft 0x12-0x17 (5)
0x10|      60                                       |  `             |              tag: 0x60 (valid) 0x12-0x13 (1)
    |                                               |                |              rt1{}: 0x13-0x15 (2)
0x10|         01                                    |   .            |                n: 1 (valid) 0x13-0x14 (1)
    |                                               |                |                x[0:1]: 0x14-0x15 (1)
0x10|            7f                                 |    .           |                  [0]: "i32" (0x7f) t 0x14-0x15 (1)
    |                                               |                |              rt2{}: 0x15-0x17 (2)
0x10|               01                              |     .          |                n: 1 (valid) 0x15-0x16 (1)
    |                                               |                |                x[0:1]: 0x16-0x17 (1)
0x10|                  7f                           |      .         |                  [0]: "i32" (0x7f) t 0x16-0x17 (1)
    |                                               |                |    [1]{}: section 0x17-0x42 (43)
0x10|                     02                        |       .        |      id: "import_section" (2) 0x17-0x18 (1)
0x10|                        29                     |        )       |      size: 41 (valid) 0x18-0x19 (1)
    |                                               |                |      content{}: 0x19-0x42 (41)
    |                                               |                |        im{}: 0x19-0x42 (41)
0x10|                           05                  |         .      |          n: 5 (valid) 0x19-0x1a (1)
    |                                               |                |          x[0:5]: 0x1a-0x42 (40)
    |                                               |                |            [0]{}: im 0x1a-0x22 (8)
    |                                               |                |              mod{}: 0x1a-0x1c (2)
0x10|                              01               |          .     |                n: 1 (valid) 0x1a-0x1b (1)
0x10|                                 61            |           a    |                b: "a" 0x1b-0x1c (1)
    |                                               |                |              nm{}: 0x1c-0x20 (4)
0x10|                                    03         |            .   |                n: 3 (valid) 0x1c-0x1d (1)
0x10|                                       65 66 30|             ef0|                b: "ef0" 0x1d-0x20 (3)
    |                                               |                |              d{}: 0x20-0x22 (2)
0x20|00                                             |.               |                tag: "func" (0x0) 0x20-0x21 (1)
0x20|   00                                          | .              |                x: 0 (valid) 0x21-0x22 (1)
    |                                               |                |            [1]{}: im 0x22-0x2a (8)
    |                                               |                |              mod{}: 0x22-0x24 (2)
0x20|      01                                       |  .             |                n: 1 (valid) 0x22-0x23 (1)
0x20|         61                                    |   a            |                b: "a" 0x23-0x24 (1)
    |                                               |                |              nm{}: 0x24-0x28 (4)
0x20|            03                                 |    .           |                n: 3 (valid) 0x24-0x25 (1)
0x20|               65 66 31                        |     ef1        |                b: "ef1" 0x25-0x28 (3)
    |                                               |                |              d{}: 0x28-0x2a (2)
0x20|                        00                     |        .       |                tag: "func" (0x0) 0x28-0x29 (1)
0x20|                           00                  |         .      |                x: 0 (valid) 0x29-0x2a (1)
    |                                               |                |            [2]{}: im 0x2a-0x32 (8)
    |                                               |                |              mod{}: 0x2a-0x2c (2)
0x20|                              01               |          .     |                n: 1 (valid) 0x2a-0x2b (1)
0x20|                                 61            |           a    |                b: "a" 0x2b-0x2c (1)
    |                                               |                |              nm{}: 0x2c-0x30 (4)
0x20|                                    03         |            .   |                n: 3 (valid) 0x2c-0x2d (1)
0x20|                                       65 66 32|             ef2|                b: "ef2" 0x2d-0x30 (3)
    |                                               |                |              d{}: 0x30-0x32 (2)
0x30|00                                             |.               |                tag: "func" (0x0) 0x30-0x31 (1)
0x30|   00                                          | .              |                x: 0 (valid) 0x31-0x32 (1)
    |                                               |                |            [3]{}: im 0x32-0x3a (8)
    |                                               |                |              mod{}: 0x32-0x34 (2)
0x30|      01                                       |  .             |                n: 1 (valid) 0x32-0x33 (1)
0x30|         61                                    |   a            |                b: "a" 0x33-0x34 (1)
    |                                               |                |              nm{}: 0x34-0x38 (4)
0x30|            03                                 |    .           |                n: 3 (valid) 0x34-0x35 (1)
0x30|               65 66 33                        |     ef3        |                b: "ef3" 0x35-0x38 (3)
    |                                               |                |              d{}: 0x38-0x3a (2)
0x30|                        00                     |        .       |                tag: "func" (0x0) 0x38-0x39 (1)
0x30|                           00                  |         .      |                x: 0 (valid) 0x39-0x3a (1)
    |                                               |                |            [4]{}: im 0x3a-0x42 (8)
    |                                               |                |              mod{}: 0x3a-0x3c (2)
0x30|                              01               |          .     |                n: 1 (valid) 0x3a-0x3b (1)
0x30|                                 61            |           a    |                b: "a" 0x3b-0x3c (1)
    |                                               |                |              nm{}: 0x3c-0x40 (4)
0x30|                                    03         |            .   |                n: 3 (valid) 0x3c-0x3d (1)
0x30|                                       65 66 34|             ef4|                b: "ef4" 0x3d-0x40 (3)
    |                                               |                |              d{}: 0x40-0x42 (2)
0x40|00                                             |.               |                tag: "func" (0x0) 0x40-0x41 (1)
0x40|   00                                          | .              |                x: 0 (valid) 0x41-0x42 (1)
    |                                               |                |    [2]{}: section 0x42-0x4c (10)
0x40|      03                                       |  .             |      id: "function_section" (3) 0x42-0x43 (1)
0x40|         08                                    |   .            |      size: 8 (valid) 0x43-0x44 (1)
    |                                               |                |      content{}: 0x44-0x4c (8)
    |                                               |                |        x{}: 0x44-0x4c (8)
0x40|            07                                 |    .           |          n: 7 (valid) 0x44-0x45 (1)
    |                                               |                |          x[0:7]: 0x45-0x4c (7)
0x40|               00                              |     .          |            [0]: 0 x (valid) 0x45-0x46 (1)
0x40|                  00                           |      .         |            [1]: 0 x (valid) 0x46-0x47 (1)
0x40|                     00                        |       .        |            [2]: 0 x (valid) 0x47-0x48 (1)
0x40|                        00                     |        .       |            [3]: 0 x (valid) 0x48-0x49 (1)
0x40|                           00                  |         .      |            [4]: 0 x (valid) 0x49-0x4a (1)
0x40|                              01               |          .     |            [5]: 1 x (valid) 0x4a-0x4b (1)
0x40|                                 02            |           .    |            [6]: 2 x (valid) 0x4b-0x4c (1)
    |                                               |                |    [3]{}: section 0x4c-0x57 (11)
0x40|                                    04         |            .   |      id: "table_section" (4) 0x4c-0x4d (1)
0x40|                                       09      |             .  |      size: 9 (valid) 0x4d-0x4e (1)
    |                                               |                |      content{}: 0x4e-0x57 (9)
    |                                               |                |        tab{}: 0x4e-0x57 (9)
0x40|                                          02   |              . |          n: 2 (valid) 0x4e-0x4f (1)
    |                                               |                |          x[0:2]: 0x4f-0x57 (8)
    |                                               |                |            [0]{}: tab 0x4f-0x53 (4)
0x40|                                             70|               p|              et: "funcref" (112) 0x4f-0x50 (1)
    |                                               |                |              lim{}: 0x50-0x53 (3)
0x50|01                                             |.               |                tag: 0x1 0x50-0x51 (1)
0x50|   1e                                          | .              |                n: 30 (valid) 0x51-0x52 (1)
0x50|      1e                                       |  .             |                m: 30 (valid) 0x52-0x53 (1)
    |                                               |                |            [1]{}: tab 0x53-0x57 (4)
0x50|         70                                    |   p            |              et: "funcref" (112) 0x53-0x54 (1)
    |                                               |                |              lim{}: 0x54-0x57 (3)
0x50|            01                                 |    .           |                tag: 0x1 0x54-0x55 (1)
0x50|               1e                              |     .          |                n: 30 (valid) 0x55-0x56 (1)
0x50|                  1e                           |      .         |                m: 30 (valid) 0x56-0x57 (1)
    |                                               |                |    [4]{}: section 0x57-0x69 (18)
0x50|                     07                        |       .        |      id: "export_section" (7) 0x57-0x58 (1)
0x50|                        10                     |        .       |      size: 16 (valid) 0x58-0x59 (1)
    |                                               |                |      content{}: 0x59-0x69 (16)
    |                                               |                |        ex{}: 0x59-0x69 (16)
0x50|                           02                  |         .      |          n: 2 (valid) 0x59-0x5a (1)
    |                                               |                |          x[0:2]: 0x5a-0x69 (15)
    |                                               |                |            [0]{}: ex 0x5a-0x61 (7)
    |                                               |                |              nm{}: 0x5a-0x5f (5)
0x50|                              04               |          .     |                n: 4 (valid) 0x5a-0x5b (1)
0x50|                                 74 65 73 74   |           test |                b: "test" 0x5b-0x5f (4)
    |                                               |                |              d{}: 0x5f-0x61 (2)
0x50|                                             00|               .|                tag: "funcidx" (0x0) 0x5f-0x60 (1)
0x60|0a                                             |.               |                x: 10 (valid) 0x60-0x61 (1)
    |                                               |                |            [1]{}: ex 0x61-0x69 (8)
    |                                               |                |              nm{}: 0x61-0x67 (6)
0x60|   05                                          | .              |                n: 5 (valid) 0x61-0x62 (1)
0x60|      63 68 65 63 6b                           |  check         |                b: "check" 0x62-0x67 (5)
    |                                               |                |              d{}: 0x67-0x69 (2)
0x60|                     00                        |       .        |                tag: "funcidx" (0x0) 0x67-0x68 (1)
0x60|                        0b                     |        .       |                x: 11 (valid) 0x68-0x69 (1)
    |                                               |                |    [5]{}: section 0x69-0x8e (37)
0x60|                           09                  |         .      |      id: "element_section" (9) 0x69-0x6a (1)
0x60|                              23               |          #     |      size: 35 (valid) 0x6a-0x6b (1)
    |                                               |                |      element{}: 0x6b-0x8e (35)
    |                                               |                |        seg{}: 0x6b-0x8e (35)
0x60|                                 04            |           .    |          n: 4 (valid) 0x6b-0x6c (1)
    |                                               |                |          x[0:4]: 0x6c-0x8e (34)
    |                                               |                |            [0]{}: seg 0x6c-0x75 (9)
0x60|                                    00         |            .   |              tag: 0 (valid) 0x6c-0x6d (1)
    |                                               |                |              e[0:2]: 0x6d-0x70 (3)
    |                                               |                |                [0]{}: in 0x6d-0x6f (2)
0x60|                                       41      |             A  |                  opcode: "i32.const" (0x41) 0x6d-0x6e (1)
0x60|                                          02   |              . |                  n: 2 (valid) 0x6e-0x6f (1)
    |                                               |                |                [1]{}: in 0x6f-0x70 (1)
0x60|                                             0b|               .|                  opcode: "end" (0xb) 0x6f-0x70 (1)
    |                                               |                |              y{}: 0x70-0x75 (5)
0x70|04                                             |.               |                n: 4 (valid) 0x70-0x71 (1)
    |                                               |                |                x[0:4]: 0x71-0x75 (4)
0x70|   03                                          | .              |                  [0]: 3 y (valid) 0x71-0x72 (1)
0x70|      01                                       |  .             |                  [1]: 1 y (valid) 0x72-0x73 (1)
0x70|         04                                    |   .            |                  [2]: 4 y (valid) 0x73-0x74 (1)
0x70|            01                                 |    .           |                  [3]: 1 y (valid) 0x74-0x75 (1)
    |                                               |                |            [1]{}: seg 0x75-0x7c (7)
0x70|               01                              |     .          |              tag: 1 (valid) 0x75-0x76 (1)
0x70|                  00                           |      .         |              et: "funcref" (0) (valid) 0x76-0x77 (1)
    |                                               |                |              y{}: 0x77-0x7c (5)
0x70|                     04                        |       .        |                n: 4 (valid) 0x77-0x78 (1)
    |                                               |                |                x[0:4]: 0x78-0x7c (4)
0x70|                        02                     |        .       |                  [0]: 2 y (valid) 0x78-0x79 (1)
0x70|                           07                  |         .      |                  [1]: 7 y (valid) 0x79-0x7a (1)
0x70|                              01               |          .     |                  [2]: 1 y (valid) 0x7a-0x7b (1)
0x70|                                 08            |           .    |                  [3]: 8 y (valid) 0x7b-0x7c (1)
    |                                               |                |            [2]{}: seg 0x7c-0x86 (10)
0x70|                                    00         |            .   |              tag: 0 (valid) 0x7c-0x7d (1)
    |                                               |                |              e[0:2]: 0x7d-0x80 (3)
    |                                               |                |                [0]{}: in 0x7d-0x7f (2)
0x70|                                       41      |             A  |                  opcode: "i32.const" (0x41) 0x7d-0x7e (1)
0x70|                                          0c   |              . |                  n: 12 (valid) 0x7e-0x7f (1)
    |                                               |                |                [1]{}: in 0x7f-0x80 (1)
0x70|                                             0b|               .|                  opcode: "end" (0xb) 0x7f-0x80 (1)
    |                                               |                |              y{}: 0x80-0x86 (6)
0x80|05                                             |.               |                n: 5 (valid) 0x80-0x81 (1)
    |                                               |                |                x[0:5]: 0x81-0x86 (5)
0x80|   07                                          | .              |                  [0]: 7 y (valid) 0x81-0x82 (1)
0x80|      05                                       |  .             |                  [1]: 5 y (valid) 0x82-0x83 (1)
0x80|         02                                    |   .            |                  [2]: 2 y (valid) 0x83-0x84 (1)
0x80|            03                                 |    .           |                  [3]: 3 y (valid) 0x84-0x85 (1)
0x80|               06                              |     .          |                  [4]: 6 y (valid) 0x85-0x86 (1)
    |                                               |                |            [3]{}: seg 0x86-0x8e (8)
0x80|                  01                           |      .         |              tag: 1 (valid) 0x86-0x87 (1)
0x80|                     00                        |       .        |              et: "funcref" (0) (valid) 0x87-0x88 (1)
    |                                               |                |              y{}: 0x88-0x8e (6)
0x80|                        05                     |        .       |                n: 5 (valid) 0x88-0x89 (1)
    |                                               |                |                x[0:5]: 0x89-0x8e (5)
0x80|                           05                  |         .      |                  [0]: 5 y (valid) 0x89-0x8a (1)
0x80|                              09               |          .     |                  [1]: 9 y (valid) 0x8a-0x8b (1)
0x80|                                 02            |           .    |                  [2]: 2 y (valid) 0x8b-0x8c (1)
0x80|                                    07         |            .   |                  [3]: 7 y (valid) 0x8c-0x8d (1)
0x80|                                       06      |             .  |                  [4]: 6 y (valid) 0x8d-0x8e (1)
    |                                               |                |    [6]{}: section 0x8e-0xbf (49)
0x80|                                          0a   |              . |      id: "code_section" (10) 0x8e-0x8f (1)
0x80|                                             2f|               /|      size: 47 (valid) 0x8f-0x90 (1)
    |                                               |                |      content{}: 0x90-0xbf (47)
    |                                               |                |        code{}: 0x90-0xbf (47)
0x90|07                                             |.               |          n: 7 (valid) 0x90-0x91 (1)
    |                                               |                |          x[0:7]: 0x91-0xbf (46)
    |                                               |                |            [0]{}: code 0x91-0x96 (5)
0x90|   04                                          | .              |              size: 4 (valid) 0x91-0x92 (1)
    |                                               |                |              code{}: 0x92-0x96 (4)
    |                                               |                |                t{}: 0x92-0x93 (1)
0x90|      00                                       |  .             |                  n: 0 (valid) 0x92-0x93 (1)
    |                                               |                |                  x[0:0]: 0x93-0x93 (0)
    |                                               |                |                e[0:2]: 0x93-0x96 (3)
    |                                               |                |                  [0]{}: in 0x93-0x95 (2)
0x90|         41                                    |   A            |                    opcode: "i32.const" (0x41) 0x93-0x94 (1)
0x90|            05                                 |    .           |                    n: 5 (valid) 0x94-0x95 (1)
    |                                               |                |                  [1]{}: in 0x95-0x96 (1)
0x90|               0b                              |     .          |                    opcode: "end" (0xb) 0x95-0x96 (1)
    |                                               |                |            [1]{}: code 0x96-0x9b (5)
0x90|                  04                           |      .         |              size: 4 (valid) 0x96-0x97 (1)
    |                                               |                |              code{}: 0x97-0x9b (4)
    |                                               |                |                t{}: 0x97-0x98 (1)
0x90|                     00                        |       .        |                  n: 0 (valid) 0x97-0x98 (1)
    |                                               |                |                  x[0:0]: 0x98-0x98 (0)
    |                                               |                |                e[0:2]: 0x98-0x9b (3)
    |                                               |                |                  [0]{}: in 0x98-0x9a (2)
0x90|                        41                     |        A       |                    opcode: "i32.const" (0x41) 0x98-0x99 (1)
0x90|                           06                  |         .      |                    n: 6 (valid) 0x99-0x9a (1)
    |                                               |                |                  [1]{}: in 0x9a-0x9b (1)
0x90|                              0b               |          .     |                    opcode: "end" (0xb) 0x9a-0x9b (1)
    |                                               |                |            [2]{}: code 0x9b-0xa0 (5)
0x90|                                 04            |           .    |              size: 4 (valid) 0x9b-0x9c (1)
    |                                               |                |              code{}: 0x9c-0xa0 (4)
    |                                               |                |                t{}: 0x9c-0x9d (1)
0x90|                                    00         |            .   |                  n: 0 (valid) 0x9c-0x9d (1)
    |                                               |                |                  x[0:0]: 0x9d-0x9d (0)
    |                                               |                |                e[0:2]: 0x9d-0xa0 (3)
    |                                               |                |                  [0]{}: in 0x9d-0x9f (2)
0x90|                                       41      |             A  |                    opcode: "i32.const" (0x41) 0x9d-0x9e (1)
0x90|                                          07   |              . |                    n: 7 (valid) 0x9e-0x9f (1)
    |                                               |                |                  [1]{}: in 0x9f-0xa0 (1)
0x90|                                             0b|               .|                    opcode: "end" (0xb) 0x9f-0xa0 (1)
    |                                               |                |            [3]{}: code 0xa0-0xa5 (5)
0xa0|04                                             |.               |              size: 4 (valid) 0xa0-0xa1 (1)
    |                                               |                |              code{}: 0xa1-0xa5 (4)
    |                                               |                |                t{}: 0xa1-0xa2 (1)
0xa0|   00                                          | .              |                  n: 0 (valid) 0xa1-0xa2 (1)
    |                                               |                |                  x[0:0]: 0xa2-0xa2 (0)
    |                                               |                |                e[0:2]: 0xa2-0xa5 (3)
    |                                               |                |                  [0]{}: in 0xa2-0xa4 (2)
0xa0|      41                                       |  A             |                    opcode: "i32.const" (0x41) 0xa2-0xa3 (1)
0xa0|         08                                    |   .            |                    n: 8 (valid) 0xa3-0xa4 (1)
    |                                               |                |                  [1]{}: in 0xa4-0xa5 (1)
0xa0|            0b                                 |    .           |                    opcode: "end" (0xb) 0xa4-0xa5 (1)
    |                                               |                |            [4]{}: code 0xa5-0xaa (5)
0xa0|               04                              |     .          |              size: 4 (valid) 0xa5-0xa6 (1)
    |                                               |                |              code{}: 0xa6-0xaa (4)
    |                                               |                |                t{}: 0xa6-0xa7 (1)
0xa0|                  00                           |      .         |                  n: 0 (valid) 0xa6-0xa7 (1)
    |                                               |                |                  x[0:0]: 0xa7-0xa7 (0)
    |                                               |                |                e[0:2]: 0xa7-0xaa (3)
    |                                               |                |                  [0]{}: in 0xa7-0xa9 (2)
0xa0|                     41                        |       A        |                    opcode: "i32.const" (0x41) 0xa7-0xa8 (1)
0xa0|                        09                     |        .       |                    n: 9 (valid) 0xa8-0xa9 (1)
    |                                               |                |                  [1]{}: in 0xa9-0xaa (1)
0xa0|                           0b                  |         .      |                    opcode: "end" (0xb) 0xa9-0xaa (1)
    |                                               |                |            [5]{}: code 0xaa-0xb7 (13)
0xa0|                              0c               |          .     |              size: 12 (valid) 0xaa-0xab (1)
    |                                               |                |              code{}: 0xab-0xb7 (12)
    |                                               |                |                t{}: 0xab-0xac (1)
0xa0|                                 00            |           .    |                  n: 0 (valid) 0xab-0xac (1)
    |                                               |                |                  x[0:0]: 0xac-0xac (0)
    |                                               |                |                e[0:5]: 0xac-0xb7 (11)
    |                                               |                |                  [0]{}: in 0xac-0xae (2)
0xa0|                                    41         |            A   |                    opcode: "i32.const" (0x41) 0xac-0xad (1)
0xa0|                                       07      |             .  |                    n: 7 (valid) 0xad-0xae (1)
    |                                               |                |                  [1]{}: in 0xae-0xb0 (2)
0xa0|                                          41   |              A |                    opcode: "i32.const" (0x41) 0xae-0xaf (1)
0xa0|                                             00|               .|                    n: 0 (valid) 0xaf-0xb0 (1)
    |                                               |                |                  [2]{}: in 0xb0-0xb2 (2)
0xb0|41                                             |A               |                    opcode: "i32.const" (0x41) 0xb0-0xb1 (1)
0xb0|   04                                          | .              |                    n: 4 (valid) 0xb1-0xb2 (1)
    |                                               |                |                  [3]{}: in 0xb2-0xb6 (4)
0xb0|      fc                                       |  .             |                    opcode: "prefix" (0xfc) 0xb2-0xb3 (1)
0xb0|         0c                                    |   .            |                    p_opcode: "table.init" (12) 0xb3-0xb4 (1)
0xb0|            01                                 |    .           |                    y: 1 (valid) 0xb4-0xb5 (1)
0xb0|               00                              |     .          |                    x: 0 (valid) 0xb5-0xb6 (1)
    |                                               |                |                  [4]{}: in 0xb6-0xb7 (1)
0xb0|                  0b                           |      .         |                    opcode: "end" (0xb) 0xb6-0xb7 (1)
    |                                               |                |            [6]{}: code 0xb7-0xbf (8)
0xb0|                     07                        |       .        |              size: 7 (valid) 0xb7-0xb8 (1)
    |                                               |                |              code{}: 0xb8-0xbf (7)
    |                                               |                |                t{}: 0xb8-0xb9 (1)
0xb0|                        00                     |        .       |                  n: 0 (valid) 0xb8-0xb9 (1)
    |                                               |                |                  x[0:0]: 0xb9-0xb9 (0)
    |                                               |                |                e[0:3]: 0xb9-0xbf (6)
    |                                               |                |                  [0]{}: in 0xb9-0xbb (2)
0xb0|                           20                  |                |                    opcode: "local.get" (0x20) 0xb9-0xba (1)
0xb0|                              00               |          .     |                    x: 0 (valid) 0xba-0xbb (1)
    |                                               |                |                  [1]{}: in 0xbb-0xbe (3)
0xb0|                                 11            |           .    |                    opcode: "call_indirect" (0x11) 0xbb-0xbc (1)
0xb0|                                    00         |            .   |                    y: 0 (valid) 0xbc-0xbd (1)
0xb0|                                       00      |             .  |                    x: 0 (valid) 0xbd-0xbe (1)
    |                                               |                |                  [2]{}: in 0xbe-0xbf (1)
0xb0|                                          0b|  |              .||                    opcode: "end" (0xb) 0xbe-0xbf (1)
