$ fq -d wasm dv table_grow-0.wasm
    |00 01 02 03 04 05 06 07 08 09 0a 0b 0c 0d 0e 0f|0123456789abcdef|.{}: table_grow-0.wasm (wasm) 0x0-0x6c (108)
0x00|00 61 73 6d                                    |.asm            |  magic: raw bits (valid) 0x0-0x4 (4)
0x00|            01 00 00 00                        |    ....        |  version: 1 0x4-0x8 (4)
    |                                               |                |  sections[0:5]: 0x8-0x6c (100)
    |                                               |                |    [0]{}: section 0x8-0x1f (23)
0x00|                        01                     |        .       |      id: "type_section" (1) 0x8-0x9 (1)
0x00|                           15                  |         .      |      size: 21 (valid) 0x9-0xa (1)
    |                                               |                |      content{}: 0xa-0x1f (21)
    |                                               |                |        ft{}: 0xa-0x1f (21)
0x00|                              04               |          .     |          n: 4 (valid) 0xa-0xb (1)
    |                                               |                |          x[0:4]: 0xb-0x1f (20)
    |                                               |                |            [0]{}: ft 0xb-0x10 (5)
0x00|                                 60            |           `    |              tag: 0x60 (valid) 0xb-0xc (1)
    |                                               |                |              rt1{}: 0xc-0xe (2)
0x00|                                    01         |            .   |                n: 1 (valid) 0xc-0xd (1)
    |                                               |                |                x[0:1]: 0xd-0xe (1)
0x00|                                       7f      |             .  |                  [0]: "i32" (0x7f) t 0xd-0xe (1)
    |                                               |                |              rt2{}: 0xe-0x10 (2)
0x00|                                          01   |              . |                n: 1 (valid) 0xe-0xf (1)
    |                                               |                |                x[0:1]: 0xf-0x10 (1)
0x00|                                             6f|               o|                  [0]: "externref" (0x6f) t 0xf-0x10 (1)
    |                                               |                |            [1]{}: ft 0x10-0x15 (5)
0x10|60                                             |`               |              tag: 0x60 (valid) 0x10-0x11 (1)
    |                                               |                |              rt1{}: 0x11-0x14 (3)
0x10|   02                                          | .              |                n: 2 (valid) 0x11-0x12 (1)
    |                                               |                |                x[0:2]: 0x12-0x14 (2)
0x10|      7f                                       |  .             |                  [0]: "i32" (0x7f) t 0x12-0x13 (1)
0x10|         6f                                    |   o            |                  [1]: "externref" (0x6f) t 0x13-0x14 (1)
    |                                               |                |              rt2{}: 0x14-0x15 (1)
0x10|            00                                 |    .           |                n: 0 (valid) 0x14-0x15 (1)
    |                                               |                |                x[0:0]: 0x15-0x15 (0)
    |                                               |                |            [2]{}: ft 0x15-0x1b (6)
0x10|               60                              |     `          |              tag: 0x60 (valid) 0x15-0x16 (1)
    |                                               |                |              rt1{}: 0x16-0x19 (3)
0x10|                  02                           |      .         |                n: 2 (valid) 0x16-0x17 (1)
    |                                               |                |                x[0:2]: 0x17-0x19 (2)
0x10|                     7f                        |       .        |                  [0]: "i32" (0x7f) t 0x17-0x18 (1)
0x10|                        6f                     |        o       |                  [1]: "externref" (0x6f) t 0x18-0x19 (1)
    |                                               |                |              rt2{}: 0x19-0x1b (2)
0x10|                           01                  |         .      |                n: 1 (valid) 0x19-0x1a (1)
    |                                               |                |                x[0:1]: 0x1a-0x1b (1)
0x10|                              7f               |          .     |                  [0]: "i32" (0x7f) t 0x1a-0x1b (1)
    |                                               |                |            [3]{}: ft 0x1b-0x1f (4)
0x10|                                 60            |           `    |              tag: 0x60 (valid) 0x1b-0x1c (1)
    |                                               |                |              rt1{}: 0x1c-0x1d (1)
0x10|                                    00         |            .   |                n: 0 (valid) 0x1c-0x1d (1)
    |                                               |                |                x[0:0]: 0x1d-0x1d (0)
    |                                               |                |              rt2{}: 0x1d-0x1f (2)
0x10|                                       01      |             .  |                n: 1 (valid) 0x1d-0x1e (1)
    |                                               |                |                x[0:1]: 0x1e-0x1f (1)
0x10|                                          7f   |              . |                  [0]: "i32" (0x7f) t 0x1e-0x1f (1)
    |                                               |                |    [1]{}: section 0x1f-0x26 (7)
0x10|                                             03|               .|      id: "function_section" (3) 0x1f-0x20 (1)
0x20|05                                             |.               |      size: 5 (valid) 0x20-0x21 (1)
    |                                               |                |      content{}: 0x21-0x26 (5)
    |                                               |                |        x{}: 0x21-0x26 (5)
0x20|   04                                          | .              |          n: 4 (valid) 0x21-0x22 (1)
    |                                               |                |          x[0:4]: 0x22-0x26 (4)
0x20|      00                                       |  .             |            [0]: 0 x (valid) 0x22-0x23 (1)
0x20|         01                                    |   .            |            [1]: 1 x (valid) 0x23-0x24 (1)
0x20|            02                                 |    .           |            [2]: 2 x (valid) 0x24-0x25 (1)
0x20|               03                              |     .          |            [3]: 3 x (valid) 0x25-0x26 (1)
    |                                               |                |    [2]{}: section 0x26-0x2c (6)
0x20|                  04                           |      .         |      id: "table_section" (4) 0x26-0x27 (1)
0x20|                     04                        |       .        |      size: 4 (valid) 0x27-0x28 (1)
    |                                               |                |      content{}: 0x28-0x2c (4)
    |                                               |                |        tab{}: 0x28-0x2c (4)
0x20|                        01                     |        .       |          n: 1 (valid) 0x28-0x29 (1)
    |                                               |                |          x[0:1]: 0x29-0x2c (3)
    |                                               |                |            [0]{}: tab 0x29-0x2c (3)
0x20|                           6f                  |         o      |              et: "externref" (111) 0x29-0x2a (1)
    |                                               |                |              lim{}: 0x2a-0x2c (2)
0x20|                              00               |          .     |                tag: 0x0 0x2a-0x2b (1)
0x20|                                 00            |           .    |                n: 0 (valid) 0x2b-0x2c (1)
    |                                               |                |    [3]{}: section 0x2c-0x49 (29)
0x20|                                    07         |            .   |      id: "export_section" (7) 0x2c-0x2d (1)
0x20|                                       1b      |             .  |      size: 27 (valid) 0x2d-0x2e (1)
    |                                               |                |      content{}: 0x2e-0x49 (27)
    |                                               |                |        ex{}: 0x2e-0x49 (27)
0x20|                                          04   |              . |          n: 4 (valid) 0x2e-0x2f (1)
    |                                               |                |          x[0:4]: 0x2f-0x49 (26)
    |                                               |                |            [0]{}: ex 0x2f-0x35 (6)
    |                                               |                |              nm{}: 0x2f-0x33 (4)
0x20|                                             03|               .|                n: 3 (valid) 0x2f-0x30 (1)
0x30|67 65 74                                       |get             |                b: "get" 0x30-0x33 (3)
    |                                               |                |              d{}: 0x33-0x35 (2)
0x30|         00                                    |   .            |                tag: "funcidx" (0x0) 0x33-0x34 (1)
0x30|            00                                 |    .           |                x: 0 (valid) 0x34-0x35 (1)
    |                                               |                |            [1]{}: ex 0x35-0x3b (6)
    |                                               |                |              nm{}: 0x35-0x39 (4)
0x30|               03                              |     .          |                n: 3 (valid) 0x35-0x36 (1)
0x30|                  73 65 74                     |      set       |                b: "set" 0x36-0x39 (3)
    |                                               |                |              d{}: 0x39-0x3b (2)
0x30|                           00                  |         .      |                tag: "funcidx" (0x0) 0x39-0x3a (1)
0x30|                              01               |          .     |                x: 1 (valid) 0x3a-0x3b (1)
    |                                               |                |            [2]{}: ex 0x3b-0x42 (7)
    |                                               |                |              nm{}: 0x3b-0x40 (5)
0x30|                                 04            |           .    |                n: 4 (valid) 0x3b-0x3c (1)
0x30|                                    67 72 6f 77|            grow|                b: "grow" 0x3c-0x40 (4)
    |                                               |                |              d{}: 0x40-0x42 (2)
0x40|00                                             |.               |                tag: "funcidx" (0x0) 0x40-0x41 (1)
0x40|   02                                          | .              |                x: 2 (valid) 0x41-0x42 (1)
    |                                               |                |            [3]{}: ex 0x42-0x49 (7)
    |                                               |                |              nm{}: 0x42-0x47 (5)
0x40|      04                                       |  .             |                n: 4 (valid) 0x42-0x43 (1)
0x40|         73 69 7a 65                           |   size         |                b: "size" 0x43-0x47 (4)
    |                                               |                |              d{}: 0x47-0x49 (2)
0x40|                     00                        |       .        |                tag: "funcidx" (0x0) 0x47-0x48 (1)
0x40|                        03                     |        .       |                x: 3 (valid) 0x48-0x49 (1)
    |                                               |                |    [4]{}: section 0x49-0x6c (35)
0x40|                           0a                  |         .      |      id: "code_section" (10) 0x49-0x4a (1)
0x40|                              21               |          !     |      size: 33 (valid) 0x4a-0x4b (1)
    |                                               |                |      content{}: 0x4b-0x6c (33)
    |                                               |                |        code{}: 0x4b-0x6c (33)
0x40|                                 04            |           .    |          n: 4 (valid) 0x4b-0x4c (1)
    |                                               |                |          x[0:4]: 0x4c-0x6c (32)
    |                                               |                |            [0]{}: code 0x4c-0x53 (7)
0x40|                                    06         |            .   |              size: 6 (valid) 0x4c-0x4d (1)
    |                                               |                |              code{}: 0x4d-0x53 (6)
    |                                               |                |                t{}: 0x4d-0x4e (1)
0x40|                                       00      |             .  |                  n: 0 (valid) 0x4d-0x4e (1)
    |                                               |                |                  x[0:0]: 0x4e-0x4e (0)
    |                                               |                |                e[0:3]: 0x4e-0x53 (5)
    |                                               |                |                  [0]{}: in 0x4e-0x50 (2)
0x40|                                          20   |                |                    opcode: "local.get" (0x20) 0x4e-0x4f (1)
0x40|                                             00|               .|                    x: 0 (valid) 0x4f-0x50 (1)
    |                                               |                |                  [1]{}: in 0x50-0x52 (2)
0x50|25                                             |%               |                    opcode: "table.get" (0x25) 0x50-0x51 (1)
0x50|   00                                          | .              |                    x: 0 (valid) 0x51-0x52 (1)
    |                                               |                |                  [2]{}: in 0x52-0x53 (1)
0x50|      0b                                       |  .             |                    opcode: "end" (0xb) 0x52-0x53 (1)
    |                                               |                |            [1]{}: code 0x53-0x5c (9)
0x50|         08                                    |   .            |              size: 8 (valid) 0x53-0x54 (1)
    |                                               |                |              code{}: 0x54-0x5c (8)
    |                                               |                |                t{}: 0x54-0x55 (1)
0x50|            00                                 |    .           |                  n: 0 (valid) 0x54-0x55 (1)
    |                                               |                |                  x[0:0]: 0x55-0x55 (0)
    |                                               |                |                e[0:4]: 0x55-0x5c (7)
    |                                               |                |                  [0]{}: in 0x55-0x57 (2)
0x50|               20                              |                |                    opcode: "local.get" (0x20) 0x55-0x56 (1)
0x50|                  00                           |      .         |                    x: 0 (valid) 0x56-0x57 (1)
    |                                               |                |                  [1]{}: in 0x57-0x59 (2)
0x50|                     20                        |                |                    opcode: "local.get" (0x20) 0x57-0x58 (1)
0x50|                        01                     |        .       |                    x: 1 (valid) 0x58-0x59 (1)
    |                                               |                |                  [2]{}: in 0x59-0x5b (2)
0x50|                           26                  |         &      |                    opcode: "table.set" (0x26) 0x59-0x5a (1)
0x50|                              00               |          .     |                    x: 0 (valid) 0x5a-0x5b (1)
    |                                               |                |                  [3]{}: in 0x5b-0x5c (1)
0x50|                                 0b            |           .    |                    opcode: "end" (0xb) 0x5b-0x5c (1)
    |                                               |                |            [2]{}: code 0x5c-0x66 (10)
0x50|                                    09         |            .   |              size: 9 (valid) 0x5c-0x5d (1)
    |                                               |                |              code{}: 0x5d-0x66 (9)
    |                                               |                |                t{}: 0x5d-0x5e (1)
0x50|                                       00      |             .  |                  n: 0 (valid) 0x5d-0x5e (1)
    |                                               |                |                  x[0:0]: 0x5e-0x5e (0)
    |                                               |                |                e[0:4]: 0x5e-0x66 (8)
    |                                               |                |                  [0]{}: in 0x5e-0x60 (2)
0x50|                                          20   |                |                    opcode: "local.get" (0x20) 0x5e-0x5f (1)
0x50|                                             01|               .|                    x: 1 (valid) 0x5f-0x60 (1)
    |                                               |                |                  [1]{}: in 0x60-0x62 (2)
0x60|20                                             |                |                    opcode: "local.get" (0x20) 0x60-0x61 (1)
0x60|   00                                          | .              |                    x: 0 (valid) 0x61-0x62 (1)
    |                                               |                |                  [2]{}: in 0x62-0x65 (3)
0x60|      fc                                       |  .             |                    opcode: "prefix" (0xfc) 0x62-0x63 (1)
0x60|         0f                                    |   .            |                    p_opcode: "table.grow" (15) 0x63-0x64 (1)
0x60|            00                                 |    .           |                    x: 0 (valid) 0x64-0x65 (1)
    |                                               |                |                  [3]{}: in 0x65-0x66 (1)
0x60|               0b                              |     .          |                    opcode: "end" (0xb) 0x65-0x66 (1)
    |                                               |                |            [3]{}: code 0x66-0x6c (6)
0x60|                  05                           |      .         |              size: 5 (valid) 0x66-0x67 (1)
    |                                               |                |              code{}: 0x67-0x6c (5)
    |                                               |                |                t{}: 0x67-0x68 (1)
0x60|                     00                        |       .        |                  n: 0 (valid) 0x67-0x68 (1)
    |                                               |                |                  x[0:0]: 0x68-0x68 (0)
    |                                               |                |                e[0:2]: 0x68-0x6c (4)
    |                                               |                |                  [0]{}: in 0x68-0x6b (3)
0x60|                        fc                     |        .       |                    opcode: "prefix" (0xfc) 0x68-0x69 (1)
0x60|                           10                  |         .      |                    p_opcode: "table.size" (16) 0x69-0x6a (1)
0x60|                              00               |          .     |                    x: 0 (valid) 0x6a-0x6b (1)
    |                                               |                |                  [1]{}: in 0x6b-0x6c (1)
0x60|                                 0b|           |           .|   |                    opcode: "end" (0xb) 0x6b-0x6c (1)
