$ fq -d wasm dv table_init-0.wasm
    |00 01 02 03 04 05 06 07 08 09 0a 0b 0c 0d 0e 0f|0123456789abcdef|.{}: table_init-0.wasm (wasm) 0x0-0x54 (84)
0x00|00 61 73 6d                                    |.asm            |  magic: raw bits (valid) 0x0-0x4 (4)
0x00|            01 00 00 00                        |    ....        |  version: 1 0x4-0x8 (4)
    |                                               |                |  sections[0:4]: 0x8-0x54 (76)
    |                                               |                |    [0]{}: section 0x8-0xf (7)
0x00|                        01                     |        .       |      id: "type_section" (1) 0x8-0x9 (1)
0x00|                           05                  |         .      |      size: 5 (valid) 0x9-0xa (1)
    |                                               |                |      content{}: 0xa-0xf (5)
    |                                               |                |        ft{}: 0xa-0xf (5)
0x00|                              01               |          .     |          n: 1 (valid) 0xa-0xb (1)
    |                                               |                |          x[0:1]: 0xb-0xf (4)
    |                                               |                |            [0]{}: ft 0xb-0xf (4)
0x00|                                 60            |           `    |              tag: 0x60 (valid) 0xb-0xc (1)
    |                                               |                |              rt1{}: 0xc-0xd (1)
0x00|                                    00         |            .   |                n: 0 (valid) 0xc-0xd (1)
    |                                               |                |                x[0:0]: 0xd-0xd (0)
    |                                               |                |              rt2{}: 0xd-0xf (2)
0x00|                                       01      |             .  |                n: 1 (valid) 0xd-0xe (1)
    |                                               |                |                x[0:1]: 0xe-0xf (1)
0x00|                                          7f   |              . |                  [0]: "i32" (0x7f) t 0xe-0xf (1)
    |                                               |                |    [1]{}: section 0xf-0x17 (8)
0x00|                                             03|               .|      id: "function_section" (3) 0xf-0x10 (1)
0x10|06                                             |.               |      size: 6 (valid) 0x10-0x11 (1)
    |                                               |                |      content{}: 0x11-0x17 (6)
    |                                               |                |        x{}: 0x11-0x17 (6)
0x10|   05                                          | .              |          n: 5 (valid) 0x11-0x12 (1)
    |                                               |                |          x[0:5]: 0x12-0x17 (5)
0x10|      00                                       |  .             |            [0]: 0 x (valid) 0x12-0x13 (1)
0x10|         00                                    |   .            |            [1]: 0 x (valid) 0x13-0x14 (1)
0x10|            00                                 |    .           |            [2]: 0 x (valid) 0x14-0x15 (1)
0x10|               00                              |     .          |            [3]: 0 x (valid) 0x15-0x16 (1)
0x10|                  00                           |      .         |            [4]: 0 x (valid) 0x16-0x17 (1)
    |                                               |                |    [2]{}: section 0x17-0x38 (33)
0x10|                     07                        |       .        |      id: "export_section" (7) 0x17-0x18 (1)
0x10|                        1f                     |        .       |      size: 31 (valid) 0x18-0x19 (1)
    |                                               |                |      content{}: 0x19-0x38 (31)
    |                                               |                |        ex{}: 0x19-0x38 (31)
0x10|                           05                  |         .      |          n: 5 (valid) 0x19-0x1a (1)
    |                                               |                |          x[0:5]: 0x1a-0x38 (30)
    |                                               |                |            [0]{}: ex 0x1a-0x20 (6)
    |                                               |                |              nm{}: 0x1a-0x1e (4)
0x10|                              03               |          .     |                n: 3 (valid) 0x1a-0x1b (1)
0x10|                                 65 66 30      |           ef0  |                b: "ef0" 0x1b-0x1e (3)
    |                                               |                |              d{}: 0x1e-0x20 (2)
0x10|                                          00   |              . |                tag: "funcidx" (0x0) 0x1e-0x1f (1)
0x10|                                             00|               .|                x: 0 (valid) 0x1f-0x20 (1)
    |                                               |                |            [1]{}: ex 0x20-0x26 (6)
    |                                               |                |              nm{}: 0x20-0x24 (4)
0x20|03                                             |.               |                n: 3 (valid) 0x20-0x21 (1)
0x20|   65 66 31                                    | ef1            |                b: "ef1" 0x21-0x24 (3)
    |                                               |                |              d{}: 0x24-0x26 (2)
0x20|            00                                 |    .           |                tag: "funcidx" (0x0) 0x24-0x25 (1)
0x20|               01                              |     .          |                x: 1 (valid) 0x25-0x26 (1)
    |                                               |                |            [2]{}: ex 0x26-0x2c (6)
    |                                               |                |              nm{}: 0x26-0x2a (4)
0x20|                  03                           |      .         |                n: 3 (valid) 0x26-0x27 (1)
0x20|                     65 66 32                  |       ef2      |                b: "ef2" 0x27-0x2a (3)
    |                                               |                |              d{}: 0x2a-0x2c (2)
0x20|                              00               |          .     |                tag: "funcidx" (0x0) 0x2a-0x2b (1)
0x20|                                 02            |           .    |                x: 2 (valid) 0x2b-0x2c (1)
    |                                               |                |            [3]{}: ex 0x2c-0x32 (6)
    |                                               |                |              nm{}: 0x2c-0x30 (4)
0x20|                                    03         |            .   |                n: 3 (valid) 0x2c-0x2d (1)
0x20|                                       65 66 33|             ef3|                b: "ef3" 0x2d-0x30 (3)
    |                                               |                |              d{}: 0x30-0x32 (2)
0x30|00                                             |.               |                tag: "funcidx" (0x0) 0x30-0x31 (1)
0x30|   03                                          | .              |                x: 3 (valid) 0x31-0x32 (1)
    |                                               |                |            [4]{}: ex 0x32-0x38 (6)
    |                                               |                |              nm{}: 0x32-0x36 (4)
0x30|      03                                       |  .             |                n: 3 (valid) 0x32-0x33 (1)
0x30|         65 66 34                              |   ef4          |                b: "ef4" 0x33-0x36 (3)
    |                                               |                |              d{}: 0x36-0x38 (2)
0x30|                  00                           |      .         |                tag: "funcidx" (0x0) 0x36-0x37 (1)
0x30|                     04                        |       .        |                x: 4 (valid) 0x37-0x38 (1)
    |                                               |                |    [3]{}: section 0x38-0x54 (28)
0x30|                        0a                     |        .       |      id: "code_section" (10) 0x38-0x39 (1)
0x30|                           1a                  |         .      |      size: 26 (valid) 0x39-0x3a (1)
    |                                               |                |      content{}: 0x3a-0x54 (26)
    |                                               |                |        code{}: 0x3a-0x54 (26)
0x30|                              05               |          .     |          n: 5 (valid) 0x3a-0x3b (1)
    |                                               |                |          x[0:5]: 0x3b-0x54 (25)
    |                                               |                |            [0]{}: code 0x3b-0x40 (5)
0x30|                                 04            |           .    |              size: 4 (valid) 0x3b-0x3c (1)
    |                                               |                |              code{}: 0x3c-0x40 (4)
    |                                               |                |                t{}: 0x3c-0x3d (1)
0x30|                                    00         |            .   |                  n: 0 (valid) 0x3c-0x3d (1)
    |                                               |                |                  x[0:0]: 0x3d-0x3d (0)
    |                                               |                |                e[0:2]: 0x3d-0x40 (3)
    |                                               |                |                  [0]{}: in 0x3d-0x3f (2)
0x30|                                       41      |             A  |                    opcode: "i32.const" (0x41) 0x3d-0x3e (1)
0x30|                                          00   |              . |                    n: 0 (valid) 0x3e-0x3f (1)
    |                                               |                |                  [1]{}: in 0x3f-0x40 (1)
0x30|                                             0b|               .|                    opcode: "end" (0xb) 0x3f-0x40 (1)
    |                                               |                |            [1]{}: code 0x40-0x45 (5)
0x40|04                                             |.               |              size: 4 (valid) 0x40-0x41 (1)
    |                                               |                |              code{}: 0x41-0x45 (4)
    |                                               |                |                t{}: 0x41-0x42 (1)
0x40|   00                                          | .              |                  n: 0 (valid) 0x41-0x42 (1)
    |                                               |                |                  x[0:0]: 0x42-0x42 (0)
    |                                               |                |                e[0:2]: 0x42-0x45 (3)
    |                                               |                |                  [0]{}: in 0x42-0x44 (2)
0x40|      41                                       |  A             |                    opcode: "i32.const" (0x41) 0x42-0x43 (1)
0x40|         01                                    |   .            |                    n: 1 (valid) 0x43-0x44 (1)
    |                                               |                |                  [1]{}: in 0x44-0x45 (1)
0x40|            0b                                 |    .           |                    opcode: "end" (0xb) 0x44-0x45 (1)
    |                                               |                |            [2]{}: code 0x45-0x4a (5)
0x40|               04                              |     .          |              size: 4 (valid) 0x45-0x46 (1)
    |                                               |                |              code{}: 0x46-0x4a (4)
    |                                               |                |                t{}: 0x46-0x47 (1)
0x40|                  00                           |      .         |                  n: 0 (valid) 0x46-0x47 (1)
    |                                               |                |                  x[0:0]: 0x47-0x47 (0)
    |                                               |                |                e[0:2]: 0x47-0x4a (3)
    |                                               |                |                  [0]{}: in 0x47-0x49 (2)
0x40|                     41                        |       A        |                    opcode: "i32.const" (0x41) 0x47-0x48 (1)
0x40|                        02                     |        .       |                    n: 2 (valid) 0x48-0x49 (1)
    |                                               |                |                  [1]{}: in 0x49-0x4a (1)
0x40|                           0b                  |         .      |                    opcode: "end" (0xb) 0x49-0x4a (1)
    |                                               |                |            [3]{}: code 0x4a-0x4f (5)
0x40|                              04               |          .     |              size: 4 (valid) 0x4a-0x4b (1)
    |                                               |                |              code{}: 0x4b-0x4f (4)
    |                                               |                |                t{}: 0x4b-0x4c (1)
0x40|                                 00            |           .    |                  n: 0 (valid) 0x4b-0x4c (1)
    |                                               |                |                  x[0:0]: 0x4c-0x4c (0)
    |                                               |                |                e[0:2]: 0x4c-0x4f (3)
    |                                               |                |                  [0]{}: in 0x4c-0x4e (2)
0x40|                                    41         |            A   |                    opcode: "i32.const" (0x41) 0x4c-0x4d (1)
0x40|                                       03      |             .  |                    n: 3 (valid) 0x4d-0x4e (1)
    |                                               |                |                  [1]{}: in 0x4e-0x4f (1)
0x40|                                          0b   |              . |                    opcode: "end" (0xb) 0x4e-0x4f (1)
    |                                               |                |            [4]{}: code 0x4f-0x54 (5)
0x40|                                             04|               .|              size: 4 (valid) 0x4f-0x50 (1)
    |                                               |                |              code{}: 0x50-0x54 (4)
    |                                               |                |                t{}: 0x50-0x51 (1)
0x50|00                                             |.               |                  n: 0 (valid) 0x50-0x51 (1)
    |                                               |                |                  x[0:0]: 0x51-0x51 (0)
    |                                               |                |                e[0:2]: 0x51-0x54 (3)
    |                                               |                |                  [0]{}: in 0x51-0x53 (2)
0x50|   41                                          | A              |                    opcode: "i32.const" (0x41) 0x51-0x52 (1)
0x50|      04                                       |  .             |                    n: 4 (valid) 0x52-0x53 (1)
    |                                               |                |                  [1]{}: in 0x53-0x54 (1)
0x50|         0b|                                   |   .|           |                    opcode: "end" (0xb) 0x53-0x54 (1)
