$ fq -d wasm dv table_fill-0.wasm
    |00 01 02 03 04 05 06 07 08 09 0a 0b 0c 0d 0e 0f|0123456789abcdef|.{}: table_fill-0.wasm (wasm) 0x0-0x46.7 (71)
0x00|00 61 73 6d                                    |.asm            |  magic: raw bits (valid) 0x0-0x3.7 (4)
0x00|            01 00 00 00                        |    ....        |  version: 1 0x4-0x7.7 (4)
    |                                               |                |  sections[0:5]: 0x8-0x46.7 (63)
    |                                               |                |    [0]{}: section 0x8-0x15.7 (14)
0x00|                        01                     |        .       |      id: "type section" (1) 0x8-0x8.7 (1)
0x00|                           0c                  |         .      |      size: 12 0x9-0x9.7 (1)
    |                                               |                |      content{}: 0xa-0x15.7 (12)
    |                                               |                |        ft{}: 0xa-0x15.7 (12)
0x00|                              02               |          .     |          n: 2 0xa-0xa.7 (1)
    |                                               |                |          x[0:2]: 0xb-0x15.7 (11)
    |                                               |                |            [0]{}: ft 0xb-0x10.7 (6)
0x00|                                 60            |           `    |              tag: 0x60 (valid) 0xb-0xb.7 (1)
    |                                               |                |              rt1{}: 0xc-0xf.7 (4)
0x00|                                    03         |            .   |                n: 3 0xc-0xc.7 (1)
    |                                               |                |                x[0:3]: 0xd-0xf.7 (3)
0x00|                                       7f      |             .  |                  [0]: "i32" (0x7f) t 0xd-0xd.7 (1)
0x00|                                          6f   |              o |                  [1]: "externref" (0x6f) t 0xe-0xe.7 (1)
0x00|                                             7f|               .|                  [2]: "i32" (0x7f) t 0xf-0xf.7 (1)
    |                                               |                |              rt2{}: 0x10-0x10.7 (1)
0x10|00                                             |.               |                n: 0 0x10-0x10.7 (1)
    |                                               |                |                x[0:0]: 0x11-NA (0)
    |                                               |                |            [1]{}: ft 0x11-0x15.7 (5)
0x10|   60                                          | `              |              tag: 0x60 (valid) 0x11-0x11.7 (1)
    |                                               |                |              rt1{}: 0x12-0x13.7 (2)
0x10|      01                                       |  .             |                n: 1 0x12-0x12.7 (1)
    |                                               |                |                x[0:1]: 0x13-0x13.7 (1)
0x10|         7f                                    |   .            |                  [0]: "i32" (0x7f) t 0x13-0x13.7 (1)
    |                                               |                |              rt2{}: 0x14-0x15.7 (2)
0x10|            01                                 |    .           |                n: 1 0x14-0x14.7 (1)
    |                                               |                |                x[0:1]: 0x15-0x15.7 (1)
0x10|               6f                              |     o          |                  [0]: "externref" (0x6f) t 0x15-0x15.7 (1)
    |                                               |                |    [1]{}: section 0x16-0x1a.7 (5)
0x10|                  03                           |      .         |      id: "function section" (3) 0x16-0x16.7 (1)
0x10|                     03                        |       .        |      size: 3 0x17-0x17.7 (1)
    |                                               |                |      content{}: 0x18-0x1a.7 (3)
    |                                               |                |        x{}: 0x18-0x1a.7 (3)
0x10|                        02                     |        .       |          n: 2 0x18-0x18.7 (1)
    |                                               |                |          x[0:2]: 0x19-0x1a.7 (2)
0x10|                           00                  |         .      |            [0]: 0 x 0x19-0x19.7 (1)
0x10|                              01               |          .     |            [1]: 1 x 0x1a-0x1a.7 (1)
    |                                               |                |    [2]{}: section 0x1b-0x20.7 (6)
0x10|                                 04            |           .    |      id: "table section" (4) 0x1b-0x1b.7 (1)
0x10|                                    04         |            .   |      size: 4 0x1c-0x1c.7 (1)
    |                                               |                |      content{}: 0x1d-0x20.7 (4)
    |                                               |                |        tab{}: 0x1d-0x20.7 (4)
0x10|                                       01      |             .  |          n: 1 0x1d-0x1d.7 (1)
    |                                               |                |          x[0:1]: 0x1e-0x20.7 (3)
    |                                               |                |            [0]{}: tab 0x1e-0x20.7 (3)
0x10|                                          6f   |              o |              et: "externref" (111) 0x1e-0x1e.7 (1)
    |                                               |                |              lim{}: 0x1f-0x20.7 (2)
0x10|                                             00|               .|                tag: 0x0 0x1f-0x1f.7 (1)
0x20|0a                                             |.               |                n: 10 0x20-0x20.7 (1)
    |                                               |                |    [3]{}: section 0x21-0x30.7 (16)
0x20|   07                                          | .              |      id: "export section" (7) 0x21-0x21.7 (1)
0x20|      0e                                       |  .             |      size: 14 0x22-0x22.7 (1)
    |                                               |                |      content{}: 0x23-0x30.7 (14)
    |                                               |                |        ex{}: 0x23-0x30.7 (14)
0x20|         02                                    |   .            |          n: 2 0x23-0x23.7 (1)
    |                                               |                |          x[0:2]: 0x24-0x30.7 (13)
    |                                               |                |            [0]{}: ex 0x24-0x2a.7 (7)
    |                                               |                |              nm{}: 0x24-0x28.7 (5)
0x20|            04                                 |    .           |                n: 4 0x24-0x24.7 (1)
0x20|               66 69 6c 6c                     |     fill       |                b: "fill" 0x25-0x28.7 (4)
    |                                               |                |              d{}: 0x29-0x2a.7 (2)
0x20|                           00                  |         .      |                tag: "funcidx" (0x0) 0x29-0x29.7 (1)
0x20|                              00               |          .     |                x: 0 0x2a-0x2a.7 (1)
    |                                               |                |            [1]{}: ex 0x2b-0x30.7 (6)
    |                                               |                |              nm{}: 0x2b-0x2e.7 (4)
0x20|                                 03            |           .    |                n: 3 0x2b-0x2b.7 (1)
0x20|                                    67 65 74   |            get |                b: "get" 0x2c-0x2e.7 (3)
    |                                               |                |              d{}: 0x2f-0x30.7 (2)
0x20|                                             00|               .|                tag: "funcidx" (0x0) 0x2f-0x2f.7 (1)
0x30|01                                             |.               |                x: 1 0x30-0x30.7 (1)
    |                                               |                |    [4]{}: section 0x31-0x46.7 (22)
0x30|   0a                                          | .              |      id: "code section" (10) 0x31-0x31.7 (1)
0x30|      14                                       |  .             |      size: 20 0x32-0x32.7 (1)
    |                                               |                |      content{}: 0x33-0x46.7 (20)
    |                                               |                |        code{}: 0x33-0x46.7 (20)
0x30|         02                                    |   .            |          n: 2 0x33-0x33.7 (1)
    |                                               |                |          x[0:2]: 0x34-0x46.7 (19)
    |                                               |                |            [0]{}: code 0x34-0x3f.7 (12)
0x30|            0b                                 |    .           |              size: 11 0x34-0x34.7 (1)
    |                                               |                |              code{}: 0x35-0x3f.7 (11)
    |                                               |                |                t{}: 0x35-0x35.7 (1)
0x30|               00                              |     .          |                  n: 0 0x35-0x35.7 (1)
    |                                               |                |                  x[0:0]: 0x36-NA (0)
    |                                               |                |                e[0:5]: 0x36-0x3f.7 (10)
    |                                               |                |                  [0]{}: in 0x36-0x37.7 (2)
0x30|                  20                           |                |                    local.get: 0x20 (valid) 0x36-0x36.7 (1)
0x30|                     00                        |       .        |                    x: 0 0x37-0x37.7 (1)
    |                                               |                |                  [1]{}: in 0x38-0x39.7 (2)
0x30|                        20                     |                |                    local.get: 0x20 (valid) 0x38-0x38.7 (1)
0x30|                           01                  |         .      |                    x: 1 0x39-0x39.7 (1)
    |                                               |                |                  [2]{}: in 0x3a-0x3b.7 (2)
0x30|                              20               |                |                    local.get: 0x20 (valid) 0x3a-0x3a.7 (1)
0x30|                                 02            |           .    |                    x: 2 0x3b-0x3b.7 (1)
    |                                               |                |                  [3]{}: in 0x3c-0x3e.7 (3)
0x30|                                    fc         |            .   |                    prefix: 0xfc (valid) 0x3c-0x3c.7 (1)
0x30|                                       11      |             .  |                    table.fill: 17 (valid) 0x3d-0x3d.7 (1)
0x30|                                          00   |              . |                    x: 0 0x3e-0x3e.7 (1)
    |                                               |                |                  [4]{}: in 0x3f-0x3f.7 (1)
0x30|                                             0b|               .|                    end: 0xb (valid) 0x3f-0x3f.7 (1)
    |                                               |                |            [1]{}: code 0x40-0x46.7 (7)
0x40|06                                             |.               |              size: 6 0x40-0x40.7 (1)
    |                                               |                |              code{}: 0x41-0x46.7 (6)
    |                                               |                |                t{}: 0x41-0x41.7 (1)
0x40|   00                                          | .              |                  n: 0 0x41-0x41.7 (1)
    |                                               |                |                  x[0:0]: 0x42-NA (0)
    |                                               |                |                e[0:3]: 0x42-0x46.7 (5)
    |                                               |                |                  [0]{}: in 0x42-0x43.7 (2)
0x40|      20                                       |                |                    local.get: 0x20 (valid) 0x42-0x42.7 (1)
0x40|         00                                    |   .            |                    x: 0 0x43-0x43.7 (1)
    |                                               |                |                  [1]{}: in 0x44-0x45.7 (2)
0x40|            25                                 |    %           |                    table.get: 0x25 (valid) 0x44-0x44.7 (1)
0x40|               00                              |     .          |                    x: 0 0x45-0x45.7 (1)
    |                                               |                |                  [2]{}: in 0x46-0x46.7 (1)
0x40|                  0b|                          |      .|        |                    end: 0xb (valid) 0x46-0x46.7 (1)
