$ fq -d wasm dv table-6.wasm
    |00 01 02 03 04 05 06 07 08 09 0a 0b 0c 0d 0e 0f|0123456789abcdef|.{}: table-6.wasm (wasm) 0x0-0x12.7 (19)
0x00|00 61 73 6d                                    |.asm            |  magic: raw bits (valid) 0x0-0x3.7 (4)
0x00|            01 00 00 00                        |    ....        |  version: 1 0x4-0x7.7 (4)
    |                                               |                |  sections[0:1]: 0x8-0x12.7 (11)
    |                                               |                |    [0]{}: section 0x8-0x12.7 (11)
0x00|                        04                     |        .       |      id: "table section" (4) 0x8-0x8.7 (1)
0x00|                           09                  |         .      |      size: 9 0x9-0x9.7 (1)
    |                                               |                |      content{}: 0xa-0x12.7 (9)
    |                                               |                |        tab{}: 0xa-0x12.7 (9)
0x00|                              01               |          .     |          n: 1 0xa-0xa.7 (1)
    |                                               |                |          x[0:1]: 0xb-0x12.7 (8)
    |                                               |                |            [0]{}: tab 0xb-0x12.7 (8)
0x00|                                 70            |           p    |              et: "funcref" (112) 0xb-0xb.7 (1)
    |                                               |                |              lim{}: 0xc-0x12.7 (7)
0x00|                                    01         |            .   |                tag: 0x1 0xc-0xc.7 (1)
0x00|                                       00      |             .  |                n: 0 0xd-0xd.7 (1)
0x00|                                          ff ff|              ..|                m: 4294967295 0xe-0x12.7 (5)
0x10|ff ff 0f|                                      |...|            |
