$ fq -d wasm dv tokens-9.wasm
    |00 01 02 03 04 05 06 07 08 09 0a 0b 0c 0d 0e 0f|0123456789abcdef|.{}: tokens-9.wasm (wasm) 0x0-0x22 (34)
0x00|00 61 73 6d                                    |.asm            |  magic: raw bits (valid) 0x0-0x4 (4)
0x00|            01 00 00 00                        |    ....        |  version: 1 0x4-0x8 (4)
    |                                               |                |  sections[0:2]: 0x8-0x22 (26)
    |                                               |                |    [0]{}: section 0x8-0xe (6)
0x00|                        01                     |        .       |      id: "type_section" (1) 0x8-0x9 (1)
0x00|                           04                  |         .      |      size: 4 (valid) 0x9-0xa (1)
    |                                               |                |      content{}: 0xa-0xe (4)
    |                                               |                |        ft{}: 0xa-0xe (4)
0x00|                              01               |          .     |          n: 1 (valid) 0xa-0xb (1)
    |                                               |                |          x[0:1]: 0xb-0xe (3)
    |                                               |                |            [0]{}: ft 0xb-0xe (3)
0x00|                                 60            |           `    |              tag: 0x60 (valid) 0xb-0xc (1)
    |                                               |                |              rt1{}: 0xc-0xd (1)
0x00|                                    00         |            .   |                n: 0 (valid) 0xc-0xd (1)
    |                                               |                |                x[0:0]: 0xd-0xd (0)
    |                                               |                |              rt2{}: 0xd-0xe (1)
0x00|                                       00      |             .  |                n: 0 (valid) 0xd-0xe (1)
    |                                               |                |                x[0:0]: 0xe-0xe (0)
    |                                               |                |    [1]{}: section 0xe-0x22 (20)
0x00|                                          02   |              . |      id: "import_section" (2) 0xe-0xf (1)
0x00|                                             12|               .|      size: 18 (valid) 0xf-0x10 (1)
    |                                               |                |      content{}: 0x10-0x22 (18)
    |                                               |                |        im{}: 0x10-0x22 (18)
0x10|01                                             |.               |          n: 1 (valid) 0x10-0x11 (1)
    |                                               |                |          x[0:1]: 0x11-0x22 (17)
    |                                               |                |            [0]{}: im 0x11-0x22 (17)
    |                                               |                |              mod{}: 0x11-0x1a (9)
0x10|   08                                          | .              |                n: 8 (valid) 0x11-0x12 (1)
0x10|      73 70 65 63 74 65 73 74                  |  spectest      |                b: "spectest" 0x12-0x1a (8)
    |                                               |                |              nm{}: 0x1a-0x20 (6)
0x10|                              05               |          .     |                n: 5 (valid) 0x1a-0x1b (1)
0x10|                                 70 72 69 6e 74|           print|                b: "print" 0x1b-0x20 (5)
    |                                               |                |              d{}: 0x20-0x22 (2)
0x20|00                                             |.               |                tag: "func" (0x0) 0x20-0x21 (1)
0x20|   00|                                         | .|             |                x: 0 (valid) 0x21-0x22 (1)
