$ fq -d wasm dv tokens-29.wasm
   |00 01 02 03 04 05 06 07 08 09 0a 0b 0c 0d 0e 0f|0123456789abcdef|.{}: tokens-29.wasm (wasm) 0x0-0xe.7 (15)
0x0|00 61 73 6d                                    |.asm            |  magic: raw bits (valid) 0x0-0x3.7 (4)
0x0|            01 00 00 00                        |    ....        |  version: 1 0x4-0x7.7 (4)
   |                                               |                |  sections[0:1]: 0x8-0xe.7 (7)
   |                                               |                |    [0]{}: section 0x8-0xe.7 (7)
0x0|                        0b                     |        .       |      id: "data section" (11) 0x8-0x8.7 (1)
0x0|                           05                  |         .      |      size: 5 0x9-0x9.7 (1)
   |                                               |                |      content{}: 0xa-0xe.7 (5)
   |                                               |                |        seg{}: 0xa-0xe.7 (5)
0x0|                              01               |          .     |          n: 1 0xa-0xa.7 (1)
   |                                               |                |          x[0:1]: 0xb-0xe.7 (4)
   |                                               |                |            [0]{}: seg 0xb-0xe.7 (4)
0x0|                                 01            |           .    |              tag: 1 0xb-0xb.7 (1)
   |                                               |                |              b{}: 0xc-0xe.7 (3)
0x0|                                    02         |            .   |                n: 2 0xc-0xc.7 (1)
0x0|                                       61 62|  |             ab||                x: raw bits 0xd-0xe.7 (2)
