$ fq -d wasm dv tokens-26.wasm
    |00 01 02 03 04 05 06 07 08 09 0a 0b 0c 0d 0e 0f|0123456789abcdef|.{}: tokens-26.wasm (wasm) 0x0-0x12.7 (19)
0x00|00 61 73 6d                                    |.asm            |  magic: raw bits (valid) 0x0-0x3.7 (4)
0x00|            01 00 00 00                        |    ....        |  version: 1 0x4-0x7.7 (4)
    |                                               |                |  sections[0:1]: 0x8-0x12.7 (11)
    |                                               |                |    [0]{}: section 0x8-0x12.7 (11)
0x00|                        0b                     |        .       |      id: "data section" (11) 0x8-0x8.7 (1)
0x00|                           09                  |         .      |      size: 9 0x9-0x9.7 (1)
    |                                               |                |      content{}: 0xa-0x12.7 (9)
    |                                               |                |        seg{}: 0xa-0x12.7 (9)
0x00|                              01               |          .     |          n: 1 0xa-0xa.7 (1)
    |                                               |                |          x[0:1]: 0xb-0x12.7 (8)
    |                                               |                |            [0]{}: seg 0xb-0x12.7 (8)
0x00|                                 01            |           .    |              tag: 1 0xb-0xb.7 (1)
    |                                               |                |              b{}: 0xc-0x12.7 (7)
0x00|                                    06         |            .   |                n: 6 0xc-0xc.7 (1)
0x00|                                       ef 98 9a|             ...|                x: raw bits 0xd-0x12.7 (6)
0x10|ef 92 a9|                                      |...|            |
