$ fq -d wasm dv tokens-28.wasm
    |00 01 02 03 04 05 06 07 08 09 0a 0b 0c 0d 0e 0f|0123456789abcdef|.{}: tokens-28.wasm (wasm) 0x0-0x14 (20)
0x00|00 61 73 6d                                    |.asm            |  magic: raw bits (valid) 0x0-0x4 (4)
0x00|            01 00 00 00                        |    ....        |  version: 1 0x4-0x8 (4)
    |                                               |                |  sections[0:1]: 0x8-0x14 (12)
    |                                               |                |    [0]{}: section 0x8-0x14 (12)
0x00|                        0b                     |        .       |      id: "data_section" (11) 0x8-0x9 (1)
0x00|                           0a                  |         .      |      size: 10 (valid) 0x9-0xa (1)
    |                                               |                |      content{}: 0xa-0x14 (10)
    |                                               |                |        seg{}: 0xa-0x14 (10)
0x00|                              01               |          .     |          n: 1 (valid) 0xa-0xb (1)
    |                                               |                |          x[0:1]: 0xb-0x14 (9)
    |                                               |                |            [0]{}: seg 0xb-0x14 (9)
0x00|                                 01            |           .    |              tag: 1 (valid) 0xb-0xc (1)
    |                                               |                |              b{}: 0xc-0x14 (8)
0x00|                                    07         |            .   |                n: 7 (valid) 0xc-0xd (1)
0x00|                                       ef 98 9a|             ...|                x: raw bits 0xd-0x14 (7)
0x10|ef 92 a9 20|                                   |... |           |
