$ fq -d wasm dv tokens-15.wasm
   |00 01 02 03 04 05 06 07 08 09 0a 0b 0c 0d 0e 0f|0123456789abcdef|.{}: tokens-15.wasm (wasm) 0x0-0xe (14)
0x0|00 61 73 6d                                    |.asm            |  magic: raw bits (valid) 0x0-0x4 (4)
0x0|            01 00 00 00                        |    ....        |  version: 1 0x4-0x8 (4)
   |                                               |                |  sections[0:1]: 0x8-0xe (6)
   |                                               |                |    [0]{}: section 0x8-0xe (6)
0x0|                        0b                     |        .       |      id: "data_section" (11) 0x8-0x9 (1)
0x0|                           04                  |         .      |      size: 4 (valid) 0x9-0xa (1)
   |                                               |                |      content{}: 0xa-0xe (4)
   |                                               |                |        seg{}: 0xa-0xe (4)
0x0|                              01               |          .     |          n: 1 (valid) 0xa-0xb (1)
   |                                               |                |          x[0:1]: 0xb-0xe (3)
   |                                               |                |            [0]{}: seg 0xb-0xe (3)
0x0|                                 01            |           .    |              tag: 1 (valid) 0xb-0xc (1)
   |                                               |                |              b{}: 0xc-0xe (2)
0x0|                                    01         |            .   |                n: 1 (valid) 0xc-0xd (1)
0x0|                                       61|     |             a| |                x: raw bits 0xd-0xe (1)
