$ fq -d wasm dv tokens-34.wasm
    |00 01 02 03 04 05 06 07 08 09 0a 0b 0c 0d 0e 0f|0123456789abcdef|.{}: tokens-34.wasm (wasm) 0x0-0x19.7 (26)
0x00|00 61 73 6d                                    |.asm            |  magic: raw bits (valid) 0x0-0x3.7 (4)
0x00|            01 00 00 00                        |    ....        |  version: 1 0x4-0x7.7 (4)
    |                                               |                |  sections[0:1]: 0x8-0x19.7 (18)
    |                                               |                |    [0]{}: section 0x8-0x19.7 (18)
0x00|                        0b                     |        .       |      id: "data_section" (11) 0x8-0x8.7 (1)
0x00|                           10                  |         .      |      size: 16 (valid) 0x9-0x9.7 (1)
    |                                               |                |      content{}: 0xa-0x19.7 (16)
    |                                               |                |        seg{}: 0xa-0x19.7 (16)
0x00|                              01               |          .     |          n: 1 (valid) 0xa-0xa.7 (1)
    |                                               |                |          x[0:1]: 0xb-0x19.7 (15)
    |                                               |                |            [0]{}: seg 0xb-0x19.7 (15)
0x00|                                 01            |           .    |              tag: 1 (valid) 0xb-0xb.7 (1)
    |                                               |                |              b{}: 0xc-0x19.7 (14)
0x00|                                    0d         |            .   |                n: 13 (valid) 0xc-0xc.7 (1)
0x00|                                       ef 98 9a|             ...|                x: raw bits 0xd-0x19.7 (13)
0x10|ef 92 a9 20 ef 98 9a ef 92 a9|                 |... ......|     |
