$ fq -d wasm dv tokens-29.wasm
   |00 01 02 03 04 05 06 07 08 09 0a 0b 0c 0d 0e 0f|0123456789abcdef|.{}: tokens-29.wasm (wasm) 0x0-0xf (15)
0x0|00 61 73 6d                                    |.asm            |  magic: raw bits (valid) 0x0-0x4 (4)
0x0|            01 00 00 00                        |    ....        |  version: 1 0x4-0x8 (4)
   |                                               |                |  sections[0:1]: 0x8-0xf (7)
   |                                               |                |    [0]{}: section 0x8-0xf (7)
0x0|                        0b                     |        .       |      id: "data_section" (11) 0x8-0x9 (1)
0x0|                           05                  |         .      |      size: 5 (valid) 0x9-0xa (1)
   |                                               |                |      content{}: 0xa-0xf (5)
   |                                               |                |        seg{}: 0xa-0xf (5)
0x0|                              01               |          .     |          n: 1 (valid) 0xa-0xb (1)
   |                                               |                |          x[0:1]: 0xb-0xf (4)
   |                                               |                |            [0]{}: seg 0xb-0xf (4)
0x0|                                 01            |           .    |              tag: 1 (valid) 0xb-0xc (1)
   |                                               |                |              b{}: 0xc-0xf (3)
0x0|                                    02         |            .   |                n: 2 (valid) 0xc-0xd (1)
0x0|                                       61 62|  |             ab||                x: raw bits 0xd-0xf (2)
