$ fq -d wasm dv traps-1.wasm
    |00 01 02 03 04 05 06 07 08 09 0a 0b 0c 0d 0e 0f|0123456789abcdef|.{}: traps-1.wasm (wasm) 0x0-0x92 (146)
0x00|00 61 73 6d                                    |.asm            |  magic: raw bits (valid) 0x0-0x4 (4)
0x00|            01 00 00 00                        |    ....        |  version: 1 0x4-0x8 (4)
    |                                               |                |  sections[0:4]: 0x8-0x92 (138)
    |                                               |                |    [0]{}: section 0x8-0x15 (13)
0x00|                        01                     |        .       |      id: "type_section" (1) 0x8-0x9 (1)
0x00|                           0b                  |         .      |      size: 11 (valid) 0x9-0xa (1)
    |                                               |                |      content{}: 0xa-0x15 (11)
    |                                               |                |        ft{}: 0xa-0x15 (11)
0x00|                              02               |          .     |          n: 2 (valid) 0xa-0xb (1)
    |                                               |                |          x[0:2]: 0xb-0x15 (10)
    |                                               |                |            [0]{}: ft 0xb-0x10 (5)
0x00|                                 60            |           `    |              tag: 0x60 (valid) 0xb-0xc (1)
    |                                               |                |              rt1{}: 0xc-0xf (3)
0x00|                                    02         |            .   |                n: 2 (valid) 0xc-0xd (1)
    |                                               |                |                x[0:2]: 0xd-0xf (2)
0x00|                                       7f      |             .  |                  [0]: "i32" (0x7f) t 0xd-0xe (1)
0x00|                                          7f   |              . |                  [1]: "i32" (0x7f) t 0xe-0xf (1)
    |                                               |                |              rt2{}: 0xf-0x10 (1)
0x00|                                             00|               .|                n: 0 (valid) 0xf-0x10 (1)
    |                                               |                |                x[0:0]: 0x10-0x10 (0)
    |                                               |                |            [1]{}: ft 0x10-0x15 (5)
0x10|60                                             |`               |              tag: 0x60 (valid) 0x10-0x11 (1)
    |                                               |                |              rt1{}: 0x11-0x14 (3)
0x10|   02                                          | .              |                n: 2 (valid) 0x11-0x12 (1)
    |                                               |                |                x[0:2]: 0x12-0x14 (2)
0x10|      7e                                       |  ~             |                  [0]: "i64" (0x7e) t 0x12-0x13 (1)
0x10|         7e                                    |   ~            |                  [1]: "i64" (0x7e) t 0x13-0x14 (1)
    |                                               |                |              rt2{}: 0x14-0x15 (1)
0x10|            00                                 |    .           |                n: 0 (valid) 0x14-0x15 (1)
    |                                               |                |                x[0:0]: 0x15-0x15 (0)
    |                                               |                |    [1]{}: section 0x15-0x1c (7)
0x10|               03                              |     .          |      id: "function_section" (3) 0x15-0x16 (1)
0x10|                  05                           |      .         |      size: 5 (valid) 0x16-0x17 (1)
    |                                               |                |      content{}: 0x17-0x1c (5)
    |                                               |                |        x{}: 0x17-0x1c (5)
0x10|                     04                        |       .        |          n: 4 (valid) 0x17-0x18 (1)
    |                                               |                |          x[0:4]: 0x18-0x1c (4)
0x10|                        00                     |        .       |            [0]: 0 x (valid) 0x18-0x19 (1)
0x10|                           00                  |         .      |            [1]: 0 x (valid) 0x19-0x1a (1)
0x10|                              01               |          .     |            [2]: 1 x (valid) 0x1a-0x1b (1)
0x10|                                 01            |           .    |            [3]: 1 x (valid) 0x1b-0x1c (1)
    |                                               |                |    [2]{}: section 0x1c-0x6b (79)
0x10|                                    07         |            .   |      id: "export_section" (7) 0x1c-0x1d (1)
0x10|                                       4d      |             M  |      size: 77 (valid) 0x1d-0x1e (1)
    |                                               |                |      content{}: 0x1e-0x6b (77)
    |                                               |                |        ex{}: 0x1e-0x6b (77)
0x10|                                          04   |              . |          n: 4 (valid) 0x1e-0x1f (1)
    |                                               |                |          x[0:4]: 0x1f-0x6b (76)
    |                                               |                |            [0]{}: ex 0x1f-0x32 (19)
    |                                               |                |              nm{}: 0x1f-0x30 (17)
0x10|                                             10|               .|                n: 16 (valid) 0x1f-0x20 (1)
0x20|6e 6f 5f 64 63 65 2e 69 33 32 2e 72 65 6d 5f 73|no_dce.i32.rem_s|                b: "no_dce.i32.rem_s" 0x20-0x30 (16)
    |                                               |                |              d{}: 0x30-0x32 (2)
0x30|00                                             |.               |                tag: "funcidx" (0x0) 0x30-0x31 (1)
0x30|   00                                          | .              |                x: 0 (valid) 0x31-0x32 (1)
    |                                               |                |            [1]{}: ex 0x32-0x45 (19)
    |                                               |                |              nm{}: 0x32-0x43 (17)
0x30|      10                                       |  .             |                n: 16 (valid) 0x32-0x33 (1)
0x30|         6e 6f 5f 64 63 65 2e 69 33 32 2e 72 65|   no_dce.i32.re|                b: "no_dce.i32.rem_u" 0x33-0x43 (16)
0x40|6d 5f 75                                       |m_u             |
    |                                               |                |              d{}: 0x43-0x45 (2)
0x40|         00                                    |   .            |                tag: "funcidx" (0x0) 0x43-0x44 (1)
0x40|            01                                 |    .           |                x: 1 (valid) 0x44-0x45 (1)
    |                                               |                |            [2]{}: ex 0x45-0x58 (19)
    |                                               |                |              nm{}: 0x45-0x56 (17)
0x40|               10                              |     .          |                n: 16 (valid) 0x45-0x46 (1)
0x40|                  6e 6f 5f 64 63 65 2e 69 36 34|      no_dce.i64|                b: "no_dce.i64.rem_s" 0x46-0x56 (16)
0x50|2e 72 65 6d 5f 73                              |.rem_s          |
    |                                               |                |              d{}: 0x56-0x58 (2)
0x50|                  00                           |      .         |                tag: "funcidx" (0x0) 0x56-0x57 (1)
0x50|                     02                        |       .        |                x: 2 (valid) 0x57-0x58 (1)
    |                                               |                |            [3]{}: ex 0x58-0x6b (19)
    |                                               |                |              nm{}: 0x58-0x69 (17)
0x50|                        10                     |        .       |                n: 16 (valid) 0x58-0x59 (1)
0x50|                           6e 6f 5f 64 63 65 2e|         no_dce.|                b: "no_dce.i64.rem_u" 0x59-0x69 (16)
0x60|69 36 34 2e 72 65 6d 5f 75                     |i64.rem_u       |
    |                                               |                |              d{}: 0x69-0x6b (2)
0x60|                           00                  |         .      |                tag: "funcidx" (0x0) 0x69-0x6a (1)
0x60|                              03               |          .     |                x: 3 (valid) 0x6a-0x6b (1)
    |                                               |                |    [3]{}: section 0x6b-0x92 (39)
0x60|                                 0a            |           .    |      id: "code_section" (10) 0x6b-0x6c (1)
0x60|                                    25         |            %   |      size: 37 (valid) 0x6c-0x6d (1)
    |                                               |                |      content{}: 0x6d-0x92 (37)
    |                                               |                |        code{}: 0x6d-0x92 (37)
0x60|                                       04      |             .  |          n: 4 (valid) 0x6d-0x6e (1)
    |                                               |                |          x[0:4]: 0x6e-0x92 (36)
    |                                               |                |            [0]{}: code 0x6e-0x77 (9)
0x60|                                          08   |              . |              size: 8 (valid) 0x6e-0x6f (1)
    |                                               |                |              code{}: 0x6f-0x77 (8)
    |                                               |                |                t{}: 0x6f-0x70 (1)
0x60|                                             00|               .|                  n: 0 (valid) 0x6f-0x70 (1)
    |                                               |                |                  x[0:0]: 0x70-0x70 (0)
    |                                               |                |                e[0:5]: 0x70-0x77 (7)
    |                                               |                |                  [0]{}: in 0x70-0x72 (2)
0x70|20                                             |                |                    opcode: "local.get" (0x20) 0x70-0x71 (1)
0x70|   00                                          | .              |                    x: 0 (valid) 0x71-0x72 (1)
    |                                               |                |                  [1]{}: in 0x72-0x74 (2)
0x70|      20                                       |                |                    opcode: "local.get" (0x20) 0x72-0x73 (1)
0x70|         01                                    |   .            |                    x: 1 (valid) 0x73-0x74 (1)
    |                                               |                |                  [2]{}: in 0x74-0x75 (1)
0x70|            6f                                 |    o           |                    opcode: "i32.rem_s" (0x6f) 0x74-0x75 (1)
    |                                               |                |                  [3]{}: in 0x75-0x76 (1)
0x70|               1a                              |     .          |                    opcode: "drop" (0x1a) 0x75-0x76 (1)
    |                                               |                |                  [4]{}: in 0x76-0x77 (1)
0x70|                  0b                           |      .         |                    opcode: "end" (0xb) 0x76-0x77 (1)
    |                                               |                |            [1]{}: code 0x77-0x80 (9)
0x70|                     08                        |       .        |              size: 8 (valid) 0x77-0x78 (1)
    |                                               |                |              code{}: 0x78-0x80 (8)
    |                                               |                |                t{}: 0x78-0x79 (1)
0x70|                        00                     |        .       |                  n: 0 (valid) 0x78-0x79 (1)
    |                                               |                |                  x[0:0]: 0x79-0x79 (0)
    |                                               |                |                e[0:5]: 0x79-0x80 (7)
    |                                               |                |                  [0]{}: in 0x79-0x7b (2)
0x70|                           20                  |                |                    opcode: "local.get" (0x20) 0x79-0x7a (1)
0x70|                              00               |          .     |                    x: 0 (valid) 0x7a-0x7b (1)
    |                                               |                |                  [1]{}: in 0x7b-0x7d (2)
0x70|                                 20            |                |                    opcode: "local.get" (0x20) 0x7b-0x7c (1)
0x70|                                    01         |            .   |                    x: 1 (valid) 0x7c-0x7d (1)
    |                                               |                |                  [2]{}: in 0x7d-0x7e (1)
0x70|                                       70      |             p  |                    opcode: "i32.rem_u" (0x70) 0x7d-0x7e (1)
    |                                               |                |                  [3]{}: in 0x7e-0x7f (1)
0x70|                                          1a   |              . |                    opcode: "drop" (0x1a) 0x7e-0x7f (1)
    |                                               |                |                  [4]{}: in 0x7f-0x80 (1)
0x70|                                             0b|               .|                    opcode: "end" (0xb) 0x7f-0x80 (1)
    |                                               |                |            [2]{}: code 0x80-0x89 (9)
0x80|08                                             |.               |              size: 8 (valid) 0x80-0x81 (1)
    |                                               |                |              code{}: 0x81-0x89 (8)
    |                                               |                |                t{}: 0x81-0x82 (1)
0x80|   00                                          | .              |                  n: 0 (valid) 0x81-0x82 (1)
    |                                               |                |                  x[0:0]: 0x82-0x82 (0)
    |                                               |                |                e[0:5]: 0x82-0x89 (7)
    |                                               |                |                  [0]{}: in 0x82-0x84 (2)
0x80|      20                                       |                |                    opcode: "local.get" (0x20) 0x82-0x83 (1)
0x80|         00                                    |   .            |                    x: 0 (valid) 0x83-0x84 (1)
    |                                               |                |                  [1]{}: in 0x84-0x86 (2)
0x80|            20                                 |                |                    opcode: "local.get" (0x20) 0x84-0x85 (1)
0x80|               01                              |     .          |                    x: 1 (valid) 0x85-0x86 (1)
    |                                               |                |                  [2]{}: in 0x86-0x87 (1)
0x80|                  81                           |      .         |                    opcode: "i64.rem_s" (0x81) 0x86-0x87 (1)
    |                                               |                |                  [3]{}: in 0x87-0x88 (1)
0x80|                     1a                        |       .        |                    opcode: "drop" (0x1a) 0x87-0x88 (1)
    |                                               |                |                  [4]{}: in 0x88-0x89 (1)
0x80|                        0b                     |        .       |                    opcode: "end" (0xb) 0x88-0x89 (1)
    |                                               |                |            [3]{}: code 0x89-0x92 (9)
0x80|                           08                  |         .      |              size: 8 (valid) 0x89-0x8a (1)
    |                                               |                |              code{}: 0x8a-0x92 (8)
    |                                               |                |                t{}: 0x8a-0x8b (1)
0x80|                              00               |          .     |                  n: 0 (valid) 0x8a-0x8b (1)
    |                                               |                |                  x[0:0]: 0x8b-0x8b (0)
    |                                               |                |                e[0:5]: 0x8b-0x92 (7)
    |                                               |                |                  [0]{}: in 0x8b-0x8d (2)
0x80|                                 20            |                |                    opcode: "local.get" (0x20) 0x8b-0x8c (1)
0x80|                                    00         |            .   |                    x: 0 (valid) 0x8c-0x8d (1)
    |                                               |                |                  [1]{}: in 0x8d-0x8f (2)
0x80|                                       20      |                |                    opcode: "local.get" (0x20) 0x8d-0x8e (1)
0x80|                                          01   |              . |                    x: 1 (valid) 0x8e-0x8f (1)
    |                                               |                |                  [2]{}: in 0x8f-0x90 (1)
0x80|                                             82|               .|                    opcode: "i64.rem_u" (0x82) 0x8f-0x90 (1)
    |                                               |                |                  [3]{}: in 0x90-0x91 (1)
0x90|1a                                             |.               |                    opcode: "drop" (0x1a) 0x90-0x91 (1)
    |                                               |                |                  [4]{}: in 0x91-0x92 (1)
0x90|   0b|                                         | .|             |                    opcode: "end" (0xb) 0x91-0x92 (1)
