$ fq -d wasm dv traps-2.wasm
     |00 01 02 03 04 05 06 07 08 09 0a 0b 0c 0d 0e 0f|0123456789abcdef|.{}: traps-2.wasm (wasm) 0x0-0x124.7 (293)
0x000|00 61 73 6d                                    |.asm            |  magic: raw bits (valid) 0x0-0x3.7 (4)
0x000|            01 00 00 00                        |    ....        |  version: 1 0x4-0x7.7 (4)
     |                                               |                |  sections[0:4]: 0x8-0x124.7 (285)
     |                                               |                |    [0]{}: section 0x8-0x12.7 (11)
0x000|                        01                     |        .       |      id: "type section" (1) 0x8-0x8.7 (1)
0x000|                           09                  |         .      |      size: 9 0x9-0x9.7 (1)
     |                                               |                |      content{}: 0xa-0x12.7 (9)
     |                                               |                |        ft{}: 0xa-0x12.7 (9)
0x000|                              02               |          .     |          n: 2 0xa-0xa.7 (1)
     |                                               |                |          x[0:2]: 0xb-0x12.7 (8)
     |                                               |                |            [0]{}: ft 0xb-0xe.7 (4)
0x000|                                 60            |           `    |              tag: 0x60 (valid) 0xb-0xb.7 (1)
     |                                               |                |              rt1{}: 0xc-0xd.7 (2)
0x000|                                    01         |            .   |                n: 1 0xc-0xc.7 (1)
     |                                               |                |                x[0:1]: 0xd-0xd.7 (1)
0x000|                                       7d      |             }  |                  [0]: "f32" (0x7d) t 0xd-0xd.7 (1)
     |                                               |                |              rt2{}: 0xe-0xe.7 (1)
0x000|                                          00   |              . |                n: 0 0xe-0xe.7 (1)
     |                                               |                |                x[0:0]: 0xf-NA (0)
     |                                               |                |            [1]{}: ft 0xf-0x12.7 (4)
0x000|                                             60|               `|              tag: 0x60 (valid) 0xf-0xf.7 (1)
     |                                               |                |              rt1{}: 0x10-0x11.7 (2)
0x010|01                                             |.               |                n: 1 0x10-0x10.7 (1)
     |                                               |                |                x[0:1]: 0x11-0x11.7 (1)
0x010|   7c                                          | |              |                  [0]: "f64" (0x7c) t 0x11-0x11.7 (1)
     |                                               |                |              rt2{}: 0x12-0x12.7 (1)
0x010|      00                                       |  .             |                n: 0 0x12-0x12.7 (1)
     |                                               |                |                x[0:0]: 0x13-NA (0)
     |                                               |                |    [1]{}: section 0x13-0x1d.7 (11)
0x010|         03                                    |   .            |      id: "function section" (3) 0x13-0x13.7 (1)
0x010|            09                                 |    .           |      size: 9 0x14-0x14.7 (1)
     |                                               |                |      content{}: 0x15-0x1d.7 (9)
     |                                               |                |        x{}: 0x15-0x1d.7 (9)
0x010|               08                              |     .          |          n: 8 0x15-0x15.7 (1)
     |                                               |                |          x[0:8]: 0x16-0x1d.7 (8)
0x010|                  00                           |      .         |            [0]: 0 x 0x16-0x16.7 (1)
0x010|                     00                        |       .        |            [1]: 0 x 0x17-0x17.7 (1)
0x010|                        01                     |        .       |            [2]: 1 x 0x18-0x18.7 (1)
0x010|                           01                  |         .      |            [3]: 1 x 0x19-0x19.7 (1)
0x010|                              00               |          .     |            [4]: 0 x 0x1a-0x1a.7 (1)
0x010|                                 00            |           .    |            [5]: 0 x 0x1b-0x1b.7 (1)
0x010|                                    01         |            .   |            [6]: 1 x 0x1c-0x1c.7 (1)
0x010|                                       01      |             .  |            [7]: 1 x 0x1d-0x1d.7 (1)
     |                                               |                |    [2]{}: section 0x1e-0xe9.7 (204)
0x010|                                          07   |              . |      id: "export section" (7) 0x1e-0x1e.7 (1)
0x010|                                             c9|               .|      size: 201 0x1f-0x20.7 (2)
0x020|01                                             |.               |
     |                                               |                |      content{}: 0x21-0xe9.7 (201)
     |                                               |                |        ex{}: 0x21-0xe9.7 (201)
0x020|   08                                          | .              |          n: 8 0x21-0x21.7 (1)
     |                                               |                |          x[0:8]: 0x22-0xe9.7 (200)
     |                                               |                |            [0]{}: ex 0x22-0x3a.7 (25)
     |                                               |                |              nm{}: 0x22-0x38.7 (23)
0x020|      16                                       |  .             |                n: 22 0x22-0x22.7 (1)
0x020|         6e 6f 5f 64 63 65 2e 69 33 32 2e 74 72|   no_dce.i32.tr|                b: "no_dce.i32.trunc_f32_s" 0x23-0x38.7 (22)
0x030|75 6e 63 5f 66 33 32 5f 73                     |unc_f32_s       |
     |                                               |                |              d{}: 0x39-0x3a.7 (2)
0x030|                           00                  |         .      |                tag: "funcidx" (0x0) 0x39-0x39.7 (1)
0x030|                              00               |          .     |                x: 0 0x3a-0x3a.7 (1)
     |                                               |                |            [1]{}: ex 0x3b-0x53.7 (25)
     |                                               |                |              nm{}: 0x3b-0x51.7 (23)
0x030|                                 16            |           .    |                n: 22 0x3b-0x3b.7 (1)
0x030|                                    6e 6f 5f 64|            no_d|                b: "no_dce.i32.trunc_f32_u" 0x3c-0x51.7 (22)
0x040|63 65 2e 69 33 32 2e 74 72 75 6e 63 5f 66 33 32|ce.i32.trunc_f32|
0x050|5f 75                                          |_u              |
     |                                               |                |              d{}: 0x52-0x53.7 (2)
0x050|      00                                       |  .             |                tag: "funcidx" (0x0) 0x52-0x52.7 (1)
0x050|         01                                    |   .            |                x: 1 0x53-0x53.7 (1)
     |                                               |                |            [2]{}: ex 0x54-0x6c.7 (25)
     |                                               |                |              nm{}: 0x54-0x6a.7 (23)
0x050|            16                                 |    .           |                n: 22 0x54-0x54.7 (1)
0x050|               6e 6f 5f 64 63 65 2e 69 33 32 2e|     no_dce.i32.|                b: "no_dce.i32.trunc_f64_s" 0x55-0x6a.7 (22)
0x060|74 72 75 6e 63 5f 66 36 34 5f 73               |trunc_f64_s     |
     |                                               |                |              d{}: 0x6b-0x6c.7 (2)
0x060|                                 00            |           .    |                tag: "funcidx" (0x0) 0x6b-0x6b.7 (1)
0x060|                                    02         |            .   |                x: 2 0x6c-0x6c.7 (1)
     |                                               |                |            [3]{}: ex 0x6d-0x85.7 (25)
     |                                               |                |              nm{}: 0x6d-0x83.7 (23)
0x060|                                       16      |             .  |                n: 22 0x6d-0x6d.7 (1)
0x060|                                          6e 6f|              no|                b: "no_dce.i32.trunc_f64_u" 0x6e-0x83.7 (22)
0x070|5f 64 63 65 2e 69 33 32 2e 74 72 75 6e 63 5f 66|_dce.i32.trunc_f|
0x080|36 34 5f 75                                    |64_u            |
     |                                               |                |              d{}: 0x84-0x85.7 (2)
0x080|            00                                 |    .           |                tag: "funcidx" (0x0) 0x84-0x84.7 (1)
0x080|               03                              |     .          |                x: 3 0x85-0x85.7 (1)
     |                                               |                |            [4]{}: ex 0x86-0x9e.7 (25)
     |                                               |                |              nm{}: 0x86-0x9c.7 (23)
0x080|                  16                           |      .         |                n: 22 0x86-0x86.7 (1)
0x080|                     6e 6f 5f 64 63 65 2e 69 36|       no_dce.i6|                b: "no_dce.i64.trunc_f32_s" 0x87-0x9c.7 (22)
0x090|34 2e 74 72 75 6e 63 5f 66 33 32 5f 73         |4.trunc_f32_s   |
     |                                               |                |              d{}: 0x9d-0x9e.7 (2)
0x090|                                       00      |             .  |                tag: "funcidx" (0x0) 0x9d-0x9d.7 (1)
0x090|                                          04   |              . |                x: 4 0x9e-0x9e.7 (1)
     |                                               |                |            [5]{}: ex 0x9f-0xb7.7 (25)
     |                                               |                |              nm{}: 0x9f-0xb5.7 (23)
0x090|                                             16|               .|                n: 22 0x9f-0x9f.7 (1)
0x0a0|6e 6f 5f 64 63 65 2e 69 36 34 2e 74 72 75 6e 63|no_dce.i64.trunc|                b: "no_dce.i64.trunc_f32_u" 0xa0-0xb5.7 (22)
0x0b0|5f 66 33 32 5f 75                              |_f32_u          |
     |                                               |                |              d{}: 0xb6-0xb7.7 (2)
0x0b0|                  00                           |      .         |                tag: "funcidx" (0x0) 0xb6-0xb6.7 (1)
0x0b0|                     05                        |       .        |                x: 5 0xb7-0xb7.7 (1)
     |                                               |                |            [6]{}: ex 0xb8-0xd0.7 (25)
     |                                               |                |              nm{}: 0xb8-0xce.7 (23)
0x0b0|                        16                     |        .       |                n: 22 0xb8-0xb8.7 (1)
0x0b0|                           6e 6f 5f 64 63 65 2e|         no_dce.|                b: "no_dce.i64.trunc_f64_s" 0xb9-0xce.7 (22)
0x0c0|69 36 34 2e 74 72 75 6e 63 5f 66 36 34 5f 73   |i64.trunc_f64_s |
     |                                               |                |              d{}: 0xcf-0xd0.7 (2)
0x0c0|                                             00|               .|                tag: "funcidx" (0x0) 0xcf-0xcf.7 (1)
0x0d0|06                                             |.               |                x: 6 0xd0-0xd0.7 (1)
     |                                               |                |            [7]{}: ex 0xd1-0xe9.7 (25)
     |                                               |                |              nm{}: 0xd1-0xe7.7 (23)
0x0d0|   16                                          | .              |                n: 22 0xd1-0xd1.7 (1)
0x0d0|      6e 6f 5f 64 63 65 2e 69 36 34 2e 74 72 75|  no_dce.i64.tru|                b: "no_dce.i64.trunc_f64_u" 0xd2-0xe7.7 (22)
0x0e0|6e 63 5f 66 36 34 5f 75                        |nc_f64_u        |
     |                                               |                |              d{}: 0xe8-0xe9.7 (2)
0x0e0|                        00                     |        .       |                tag: "funcidx" (0x0) 0xe8-0xe8.7 (1)
0x0e0|                           07                  |         .      |                x: 7 0xe9-0xe9.7 (1)
     |                                               |                |    [3]{}: section 0xea-0x124.7 (59)
0x0e0|                              0a               |          .     |      id: "code section" (10) 0xea-0xea.7 (1)
0x0e0|                                 39            |           9    |      size: 57 0xeb-0xeb.7 (1)
     |                                               |                |      content{}: 0xec-0x124.7 (57)
     |                                               |                |        code{}: 0xec-0x124.7 (57)
0x0e0|                                    08         |            .   |          n: 8 0xec-0xec.7 (1)
     |                                               |                |          x[0:8]: 0xed-0x124.7 (56)
     |                                               |                |            [0]{}: code 0xed-0xf3.7 (7)
0x0e0|                                       06      |             .  |              size: 6 0xed-0xed.7 (1)
     |                                               |                |              code{}: 0xee-0xf3.7 (6)
     |                                               |                |                t{}: 0xee-0xee.7 (1)
0x0e0|                                          00   |              . |                  n: 0 0xee-0xee.7 (1)
     |                                               |                |                  x[0:0]: 0xef-NA (0)
     |                                               |                |                e[0:4]: 0xef-0xf3.7 (5)
     |                                               |                |                  [0]{}: in 0xef-0xf0.7 (2)
0x0e0|                                             20|                |                    local.get: 0x20 (valid) 0xef-0xef.7 (1)
0x0f0|00                                             |.               |                    x: 0 0xf0-0xf0.7 (1)
     |                                               |                |                  [1]{}: in 0xf1-0xf1.7 (1)
0x0f0|   a8                                          | .              |                    i32.trunc_f32_s: 0xa8 (valid) 0xf1-0xf1.7 (1)
     |                                               |                |                  [2]{}: in 0xf2-0xf2.7 (1)
0x0f0|      1a                                       |  .             |                    drop: 0x1a (valid) 0xf2-0xf2.7 (1)
     |                                               |                |                  [3]{}: in 0xf3-0xf3.7 (1)
0x0f0|         0b                                    |   .            |                    end: 0xb (valid) 0xf3-0xf3.7 (1)
     |                                               |                |            [1]{}: code 0xf4-0xfa.7 (7)
0x0f0|            06                                 |    .           |              size: 6 0xf4-0xf4.7 (1)
     |                                               |                |              code{}: 0xf5-0xfa.7 (6)
     |                                               |                |                t{}: 0xf5-0xf5.7 (1)
0x0f0|               00                              |     .          |                  n: 0 0xf5-0xf5.7 (1)
     |                                               |                |                  x[0:0]: 0xf6-NA (0)
     |                                               |                |                e[0:4]: 0xf6-0xfa.7 (5)
     |                                               |                |                  [0]{}: in 0xf6-0xf7.7 (2)
0x0f0|                  20                           |                |                    local.get: 0x20 (valid) 0xf6-0xf6.7 (1)
0x0f0|                     00                        |       .        |                    x: 0 0xf7-0xf7.7 (1)
     |                                               |                |                  [1]{}: in 0xf8-0xf8.7 (1)
0x0f0|                        a9                     |        .       |                    i32.trunc_f32_u: 0xa9 (valid) 0xf8-0xf8.7 (1)
     |                                               |                |                  [2]{}: in 0xf9-0xf9.7 (1)
0x0f0|                           1a                  |         .      |                    drop: 0x1a (valid) 0xf9-0xf9.7 (1)
     |                                               |                |                  [3]{}: in 0xfa-0xfa.7 (1)
0x0f0|                              0b               |          .     |                    end: 0xb (valid) 0xfa-0xfa.7 (1)
     |                                               |                |            [2]{}: code 0xfb-0x101.7 (7)
0x0f0|                                 06            |           .    |              size: 6 0xfb-0xfb.7 (1)
     |                                               |                |              code{}: 0xfc-0x101.7 (6)
     |                                               |                |                t{}: 0xfc-0xfc.7 (1)
0x0f0|                                    00         |            .   |                  n: 0 0xfc-0xfc.7 (1)
     |                                               |                |                  x[0:0]: 0xfd-NA (0)
     |                                               |                |                e[0:4]: 0xfd-0x101.7 (5)
     |                                               |                |                  [0]{}: in 0xfd-0xfe.7 (2)
0x0f0|                                       20      |                |                    local.get: 0x20 (valid) 0xfd-0xfd.7 (1)
0x0f0|                                          00   |              . |                    x: 0 0xfe-0xfe.7 (1)
     |                                               |                |                  [1]{}: in 0xff-0xff.7 (1)
0x0f0|                                             aa|               .|                    i32.trunc_f64_s: 0xaa (valid) 0xff-0xff.7 (1)
     |                                               |                |                  [2]{}: in 0x100-0x100.7 (1)
0x100|1a                                             |.               |                    drop: 0x1a (valid) 0x100-0x100.7 (1)
     |                                               |                |                  [3]{}: in 0x101-0x101.7 (1)
0x100|   0b                                          | .              |                    end: 0xb (valid) 0x101-0x101.7 (1)
     |                                               |                |            [3]{}: code 0x102-0x108.7 (7)
0x100|      06                                       |  .             |              size: 6 0x102-0x102.7 (1)
     |                                               |                |              code{}: 0x103-0x108.7 (6)
     |                                               |                |                t{}: 0x103-0x103.7 (1)
0x100|         00                                    |   .            |                  n: 0 0x103-0x103.7 (1)
     |                                               |                |                  x[0:0]: 0x104-NA (0)
     |                                               |                |                e[0:4]: 0x104-0x108.7 (5)
     |                                               |                |                  [0]{}: in 0x104-0x105.7 (2)
0x100|            20                                 |                |                    local.get: 0x20 (valid) 0x104-0x104.7 (1)
0x100|               00                              |     .          |                    x: 0 0x105-0x105.7 (1)
     |                                               |                |                  [1]{}: in 0x106-0x106.7 (1)
0x100|                  ab                           |      .         |                    i32.trunc_f64_u: 0xab (valid) 0x106-0x106.7 (1)
     |                                               |                |                  [2]{}: in 0x107-0x107.7 (1)
0x100|                     1a                        |       .        |                    drop: 0x1a (valid) 0x107-0x107.7 (1)
     |                                               |                |                  [3]{}: in 0x108-0x108.7 (1)
0x100|                        0b                     |        .       |                    end: 0xb (valid) 0x108-0x108.7 (1)
     |                                               |                |            [4]{}: code 0x109-0x10f.7 (7)
0x100|                           06                  |         .      |              size: 6 0x109-0x109.7 (1)
     |                                               |                |              code{}: 0x10a-0x10f.7 (6)
     |                                               |                |                t{}: 0x10a-0x10a.7 (1)
0x100|                              00               |          .     |                  n: 0 0x10a-0x10a.7 (1)
     |                                               |                |                  x[0:0]: 0x10b-NA (0)
     |                                               |                |                e[0:4]: 0x10b-0x10f.7 (5)
     |                                               |                |                  [0]{}: in 0x10b-0x10c.7 (2)
0x100|                                 20            |                |                    local.get: 0x20 (valid) 0x10b-0x10b.7 (1)
0x100|                                    00         |            .   |                    x: 0 0x10c-0x10c.7 (1)
     |                                               |                |                  [1]{}: in 0x10d-0x10d.7 (1)
0x100|                                       ae      |             .  |                    i64.trunc_f32_s: 0xae (valid) 0x10d-0x10d.7 (1)
     |                                               |                |                  [2]{}: in 0x10e-0x10e.7 (1)
0x100|                                          1a   |              . |                    drop: 0x1a (valid) 0x10e-0x10e.7 (1)
     |                                               |                |                  [3]{}: in 0x10f-0x10f.7 (1)
0x100|                                             0b|               .|                    end: 0xb (valid) 0x10f-0x10f.7 (1)
     |                                               |                |            [5]{}: code 0x110-0x116.7 (7)
0x110|06                                             |.               |              size: 6 0x110-0x110.7 (1)
     |                                               |                |              code{}: 0x111-0x116.7 (6)
     |                                               |                |                t{}: 0x111-0x111.7 (1)
0x110|   00                                          | .              |                  n: 0 0x111-0x111.7 (1)
     |                                               |                |                  x[0:0]: 0x112-NA (0)
     |                                               |                |                e[0:4]: 0x112-0x116.7 (5)
     |                                               |                |                  [0]{}: in 0x112-0x113.7 (2)
0x110|      20                                       |                |                    local.get: 0x20 (valid) 0x112-0x112.7 (1)
0x110|         00                                    |   .            |                    x: 0 0x113-0x113.7 (1)
     |                                               |                |                  [1]{}: in 0x114-0x114.7 (1)
0x110|            af                                 |    .           |                    i64.trunc_f32_u: 0xaf (valid) 0x114-0x114.7 (1)
     |                                               |                |                  [2]{}: in 0x115-0x115.7 (1)
0x110|               1a                              |     .          |                    drop: 0x1a (valid) 0x115-0x115.7 (1)
     |                                               |                |                  [3]{}: in 0x116-0x116.7 (1)
0x110|                  0b                           |      .         |                    end: 0xb (valid) 0x116-0x116.7 (1)
     |                                               |                |            [6]{}: code 0x117-0x11d.7 (7)
0x110|                     06                        |       .        |              size: 6 0x117-0x117.7 (1)
     |                                               |                |              code{}: 0x118-0x11d.7 (6)
     |                                               |                |                t{}: 0x118-0x118.7 (1)
0x110|                        00                     |        .       |                  n: 0 0x118-0x118.7 (1)
     |                                               |                |                  x[0:0]: 0x119-NA (0)
     |                                               |                |                e[0:4]: 0x119-0x11d.7 (5)
     |                                               |                |                  [0]{}: in 0x119-0x11a.7 (2)
0x110|                           20                  |                |                    local.get: 0x20 (valid) 0x119-0x119.7 (1)
0x110|                              00               |          .     |                    x: 0 0x11a-0x11a.7 (1)
     |                                               |                |                  [1]{}: in 0x11b-0x11b.7 (1)
0x110|                                 b0            |           .    |                    i64.trunc_f64_s: 0xb0 (valid) 0x11b-0x11b.7 (1)
     |                                               |                |                  [2]{}: in 0x11c-0x11c.7 (1)
0x110|                                    1a         |            .   |                    drop: 0x1a (valid) 0x11c-0x11c.7 (1)
     |                                               |                |                  [3]{}: in 0x11d-0x11d.7 (1)
0x110|                                       0b      |             .  |                    end: 0xb (valid) 0x11d-0x11d.7 (1)
     |                                               |                |            [7]{}: code 0x11e-0x124.7 (7)
0x110|                                          06   |              . |              size: 6 0x11e-0x11e.7 (1)
     |                                               |                |              code{}: 0x11f-0x124.7 (6)
     |                                               |                |                t{}: 0x11f-0x11f.7 (1)
0x110|                                             00|               .|                  n: 0 0x11f-0x11f.7 (1)
     |                                               |                |                  x[0:0]: 0x120-NA (0)
     |                                               |                |                e[0:4]: 0x120-0x124.7 (5)
     |                                               |                |                  [0]{}: in 0x120-0x121.7 (2)
0x120|20                                             |                |                    local.get: 0x20 (valid) 0x120-0x120.7 (1)
0x120|   00                                          | .              |                    x: 0 0x121-0x121.7 (1)
     |                                               |                |                  [1]{}: in 0x122-0x122.7 (1)
0x120|      b1                                       |  .             |                    i64.trunc_f64_u: 0xb1 (valid) 0x122-0x122.7 (1)
     |                                               |                |                  [2]{}: in 0x123-0x123.7 (1)
0x120|         1a                                    |   .            |                    drop: 0x1a (valid) 0x123-0x123.7 (1)
     |                                               |                |                  [3]{}: in 0x124-0x124.7 (1)
0x120|            0b|                                |    .|          |                    end: 0xb (valid) 0x124-0x124.7 (1)
