$ fq -d wasm dv traps-3.wasm
     |00 01 02 03 04 05 06 07 08 09 0a 0b 0c 0d 0e 0f|0123456789abcdef|.{}: traps-3.wasm (wasm) 0x0-0x1ca (458)
0x000|00 61 73 6d                                    |.asm            |  magic: raw bits (valid) 0x0-0x4 (4)
0x000|            01 00 00 00                        |    ....        |  version: 1 0x4-0x8 (4)
     |                                               |                |  sections[0:5]: 0x8-0x1ca (450)
     |                                               |                |    [0]{}: section 0x8-0xf (7)
0x000|                        01                     |        .       |      id: "type_section" (1) 0x8-0x9 (1)
0x000|                           05                  |         .      |      size: 5 (valid) 0x9-0xa (1)
     |                                               |                |      content{}: 0xa-0xf (5)
     |                                               |                |        ft{}: 0xa-0xf (5)
0x000|                              01               |          .     |          n: 1 (valid) 0xa-0xb (1)
     |                                               |                |          x[0:1]: 0xb-0xf (4)
     |                                               |                |            [0]{}: ft 0xb-0xf (4)
0x000|                                 60            |           `    |              tag: 0x60 (valid) 0xb-0xc (1)
     |                                               |                |              rt1{}: 0xc-0xe (2)
0x000|                                    01         |            .   |                n: 1 (valid) 0xc-0xd (1)
     |                                               |                |                x[0:1]: 0xd-0xe (1)
0x000|                                       7f      |             .  |                  [0]: "i32" (0x7f) t 0xd-0xe (1)
     |                                               |                |              rt2{}: 0xe-0xf (1)
0x000|                                          00   |              . |                n: 0 (valid) 0xe-0xf (1)
     |                                               |                |                x[0:0]: 0xf-0xf (0)
     |                                               |                |    [1]{}: section 0xf-0x20 (17)
0x000|                                             03|               .|      id: "function_section" (3) 0xf-0x10 (1)
0x010|0f                                             |.               |      size: 15 (valid) 0x10-0x11 (1)
     |                                               |                |      content{}: 0x11-0x20 (15)
     |                                               |                |        x{}: 0x11-0x20 (15)
0x010|   0e                                          | .              |          n: 14 (valid) 0x11-0x12 (1)
     |                                               |                |          x[0:14]: 0x12-0x20 (14)
0x010|      00                                       |  .             |            [0]: 0 x (valid) 0x12-0x13 (1)
0x010|         00                                    |   .            |            [1]: 0 x (valid) 0x13-0x14 (1)
0x010|            00                                 |    .           |            [2]: 0 x (valid) 0x14-0x15 (1)
0x010|               00                              |     .          |            [3]: 0 x (valid) 0x15-0x16 (1)
0x010|                  00                           |      .         |            [4]: 0 x (valid) 0x16-0x17 (1)
0x010|                     00                        |       .        |            [5]: 0 x (valid) 0x17-0x18 (1)
0x010|                        00                     |        .       |            [6]: 0 x (valid) 0x18-0x19 (1)
0x010|                           00                  |         .      |            [7]: 0 x (valid) 0x19-0x1a (1)
0x010|                              00               |          .     |            [8]: 0 x (valid) 0x1a-0x1b (1)
0x010|                                 00            |           .    |            [9]: 0 x (valid) 0x1b-0x1c (1)
0x010|                                    00         |            .   |            [10]: 0 x (valid) 0x1c-0x1d (1)
0x010|                                       00      |             .  |            [11]: 0 x (valid) 0x1d-0x1e (1)
0x010|                                          00   |              . |            [12]: 0 x (valid) 0x1e-0x1f (1)
0x010|                                             00|               .|            [13]: 0 x (valid) 0x1f-0x20 (1)
     |                                               |                |    [2]{}: section 0x20-0x25 (5)
0x020|05                                             |.               |      id: "memory_section" (5) 0x20-0x21 (1)
0x020|   03                                          | .              |      size: 3 (valid) 0x21-0x22 (1)
     |                                               |                |      content{}: 0x22-0x25 (3)
     |                                               |                |        mem{}: 0x22-0x25 (3)
0x020|      01                                       |  .             |          n: 1 (valid) 0x22-0x23 (1)
     |                                               |                |          x[0:1]: 0x23-0x25 (2)
     |                                               |                |            [0]{}: mem 0x23-0x25 (2)
     |                                               |                |              lim{}: 0x23-0x25 (2)
0x020|         00                                    |   .            |                tag: 0x0 0x23-0x24 (1)
0x020|            01                                 |    .           |                n: 1 (valid) 0x24-0x25 (1)
     |                                               |                |    [3]{}: section 0x25-0x149 (292)
0x020|               07                              |     .          |      id: "export_section" (7) 0x25-0x26 (1)
0x020|                  a1 02                        |      ..        |      size: 289 (valid) 0x26-0x28 (2)
     |                                               |                |      content{}: 0x28-0x149 (289)
     |                                               |                |        ex{}: 0x28-0x149 (289)
0x020|                        0e                     |        .       |          n: 14 (valid) 0x28-0x29 (1)
     |                                               |                |          x[0:14]: 0x29-0x149 (288)
     |                                               |                |            [0]{}: ex 0x29-0x3b (18)
     |                                               |                |              nm{}: 0x29-0x39 (16)
0x020|                           0f                  |         .      |                n: 15 (valid) 0x29-0x2a (1)
0x020|                              6e 6f 5f 64 63 65|          no_dce|                b: "no_dce.i32.load" 0x2a-0x39 (15)
0x030|2e 69 33 32 2e 6c 6f 61 64                     |.i32.load       |
     |                                               |                |              d{}: 0x39-0x3b (2)
0x030|                           00                  |         .      |                tag: "funcidx" (0x0) 0x39-0x3a (1)
0x030|                              00               |          .     |                x: 0 (valid) 0x3a-0x3b (1)
     |                                               |                |            [1]{}: ex 0x3b-0x51 (22)
     |                                               |                |              nm{}: 0x3b-0x4f (20)
0x030|                                 13            |           .    |                n: 19 (valid) 0x3b-0x3c (1)
0x030|                                    6e 6f 5f 64|            no_d|                b: "no_dce.i32.load16_s" 0x3c-0x4f (19)
0x040|63 65 2e 69 33 32 2e 6c 6f 61 64 31 36 5f 73   |ce.i32.load16_s |
     |                                               |                |              d{}: 0x4f-0x51 (2)
0x040|                                             00|               .|                tag: "funcidx" (0x0) 0x4f-0x50 (1)
0x050|01                                             |.               |                x: 1 (valid) 0x50-0x51 (1)
     |                                               |                |            [2]{}: ex 0x51-0x67 (22)
     |                                               |                |              nm{}: 0x51-0x65 (20)
0x050|   13                                          | .              |                n: 19 (valid) 0x51-0x52 (1)
0x050|      6e 6f 5f 64 63 65 2e 69 33 32 2e 6c 6f 61|  no_dce.i32.loa|                b: "no_dce.i32.load16_u" 0x52-0x65 (19)
0x060|64 31 36 5f 75                                 |d16_u           |
     |                                               |                |              d{}: 0x65-0x67 (2)
0x060|               00                              |     .          |                tag: "funcidx" (0x0) 0x65-0x66 (1)
0x060|                  02                           |      .         |                x: 2 (valid) 0x66-0x67 (1)
     |                                               |                |            [3]{}: ex 0x67-0x7c (21)
     |                                               |                |              nm{}: 0x67-0x7a (19)
0x060|                     12                        |       .        |                n: 18 (valid) 0x67-0x68 (1)
0x060|                        6e 6f 5f 64 63 65 2e 69|        no_dce.i|                b: "no_dce.i32.load8_s" 0x68-0x7a (18)
0x070|33 32 2e 6c 6f 61 64 38 5f 73                  |32.load8_s      |
     |                                               |                |              d{}: 0x7a-0x7c (2)
0x070|                              00               |          .     |                tag: "funcidx" (0x0) 0x7a-0x7b (1)
0x070|                                 03            |           .    |                x: 3 (valid) 0x7b-0x7c (1)
     |                                               |                |            [4]{}: ex 0x7c-0x91 (21)
     |                                               |                |              nm{}: 0x7c-0x8f (19)
0x070|                                    12         |            .   |                n: 18 (valid) 0x7c-0x7d (1)
0x070|                                       6e 6f 5f|             no_|                b: "no_dce.i32.load8_u" 0x7d-0x8f (18)
0x080|64 63 65 2e 69 33 32 2e 6c 6f 61 64 38 5f 75   |dce.i32.load8_u |
     |                                               |                |              d{}: 0x8f-0x91 (2)
0x080|                                             00|               .|                tag: "funcidx" (0x0) 0x8f-0x90 (1)
0x090|04                                             |.               |                x: 4 (valid) 0x90-0x91 (1)
     |                                               |                |            [5]{}: ex 0x91-0xa3 (18)
     |                                               |                |              nm{}: 0x91-0xa1 (16)
0x090|   0f                                          | .              |                n: 15 (valid) 0x91-0x92 (1)
0x090|      6e 6f 5f 64 63 65 2e 69 36 34 2e 6c 6f 61|  no_dce.i64.loa|                b: "no_dce.i64.load" 0x92-0xa1 (15)
0x0a0|64                                             |d               |
     |                                               |                |              d{}: 0xa1-0xa3 (2)
0x0a0|   00                                          | .              |                tag: "funcidx" (0x0) 0xa1-0xa2 (1)
0x0a0|      05                                       |  .             |                x: 5 (valid) 0xa2-0xa3 (1)
     |                                               |                |            [6]{}: ex 0xa3-0xb9 (22)
     |                                               |                |              nm{}: 0xa3-0xb7 (20)
0x0a0|         13                                    |   .            |                n: 19 (valid) 0xa3-0xa4 (1)
0x0a0|            6e 6f 5f 64 63 65 2e 69 36 34 2e 6c|    no_dce.i64.l|                b: "no_dce.i64.load32_s" 0xa4-0xb7 (19)
0x0b0|6f 61 64 33 32 5f 73                           |oad32_s         |
     |                                               |                |              d{}: 0xb7-0xb9 (2)
0x0b0|                     00                        |       .        |                tag: "funcidx" (0x0) 0xb7-0xb8 (1)
0x0b0|                        06                     |        .       |                x: 6 (valid) 0xb8-0xb9 (1)
     |                                               |                |            [7]{}: ex 0xb9-0xcf (22)
     |                                               |                |              nm{}: 0xb9-0xcd (20)
0x0b0|                           13                  |         .      |                n: 19 (valid) 0xb9-0xba (1)
0x0b0|                              6e 6f 5f 64 63 65|          no_dce|                b: "no_dce.i64.load32_u" 0xba-0xcd (19)
0x0c0|2e 69 36 34 2e 6c 6f 61 64 33 32 5f 75         |.i64.load32_u   |
     |                                               |                |              d{}: 0xcd-0xcf (2)
0x0c0|                                       00      |             .  |                tag: "funcidx" (0x0) 0xcd-0xce (1)
0x0c0|                                          07   |              . |                x: 7 (valid) 0xce-0xcf (1)
     |                                               |                |            [8]{}: ex 0xcf-0xe5 (22)
     |                                               |                |              nm{}: 0xcf-0xe3 (20)
0x0c0|                                             13|               .|                n: 19 (valid) 0xcf-0xd0 (1)
0x0d0|6e 6f 5f 64 63 65 2e 69 36 34 2e 6c 6f 61 64 31|no_dce.i64.load1|                b: "no_dce.i64.load16_s" 0xd0-0xe3 (19)
0x0e0|36 5f 73                                       |6_s             |
     |                                               |                |              d{}: 0xe3-0xe5 (2)
0x0e0|         00                                    |   .            |                tag: "funcidx" (0x0) 0xe3-0xe4 (1)
0x0e0|            08                                 |    .           |                x: 8 (valid) 0xe4-0xe5 (1)
     |                                               |                |            [9]{}: ex 0xe5-0xfb (22)
     |                                               |                |              nm{}: 0xe5-0xf9 (20)
0x0e0|               13                              |     .          |                n: 19 (valid) 0xe5-0xe6 (1)
0x0e0|                  6e 6f 5f 64 63 65 2e 69 36 34|      no_dce.i64|                b: "no_dce.i64.load16_u" 0xe6-0xf9 (19)
0x0f0|2e 6c 6f 61 64 31 36 5f 75                     |.load16_u       |
     |                                               |                |              d{}: 0xf9-0xfb (2)
0x0f0|                           00                  |         .      |                tag: "funcidx" (0x0) 0xf9-0xfa (1)
0x0f0|                              09               |          .     |                x: 9 (valid) 0xfa-0xfb (1)
     |                                               |                |            [10]{}: ex 0xfb-0x110 (21)
     |                                               |                |              nm{}: 0xfb-0x10e (19)
0x0f0|                                 12            |           .    |                n: 18 (valid) 0xfb-0xfc (1)
0x0f0|                                    6e 6f 5f 64|            no_d|                b: "no_dce.i64.load8_s" 0xfc-0x10e (18)
0x100|63 65 2e 69 36 34 2e 6c 6f 61 64 38 5f 73      |ce.i64.load8_s  |
     |                                               |                |              d{}: 0x10e-0x110 (2)
0x100|                                          00   |              . |                tag: "funcidx" (0x0) 0x10e-0x10f (1)
0x100|                                             0a|               .|                x: 10 (valid) 0x10f-0x110 (1)
     |                                               |                |            [11]{}: ex 0x110-0x125 (21)
     |                                               |                |              nm{}: 0x110-0x123 (19)
0x110|12                                             |.               |                n: 18 (valid) 0x110-0x111 (1)
0x110|   6e 6f 5f 64 63 65 2e 69 36 34 2e 6c 6f 61 64| no_dce.i64.load|                b: "no_dce.i64.load8_u" 0x111-0x123 (18)
0x120|38 5f 75                                       |8_u             |
     |                                               |                |              d{}: 0x123-0x125 (2)
0x120|         00                                    |   .            |                tag: "funcidx" (0x0) 0x123-0x124 (1)
0x120|            0b                                 |    .           |                x: 11 (valid) 0x124-0x125 (1)
     |                                               |                |            [12]{}: ex 0x125-0x137 (18)
     |                                               |                |              nm{}: 0x125-0x135 (16)
0x120|               0f                              |     .          |                n: 15 (valid) 0x125-0x126 (1)
0x120|                  6e 6f 5f 64 63 65 2e 66 33 32|      no_dce.f32|                b: "no_dce.f32.load" 0x126-0x135 (15)
0x130|2e 6c 6f 61 64                                 |.load           |
     |                                               |                |              d{}: 0x135-0x137 (2)
0x130|               00                              |     .          |                tag: "funcidx" (0x0) 0x135-0x136 (1)
0x130|                  0c                           |      .         |                x: 12 (valid) 0x136-0x137 (1)
     |                                               |                |            [13]{}: ex 0x137-0x149 (18)
     |                                               |                |              nm{}: 0x137-0x147 (16)
0x130|                     0f                        |       .        |                n: 15 (valid) 0x137-0x138 (1)
0x130|                        6e 6f 5f 64 63 65 2e 66|        no_dce.f|                b: "no_dce.f64.load" 0x138-0x147 (15)
0x140|36 34 2e 6c 6f 61 64                           |64.load         |
     |                                               |                |              d{}: 0x147-0x149 (2)
0x140|                     00                        |       .        |                tag: "funcidx" (0x0) 0x147-0x148 (1)
0x140|                        0d                     |        .       |                x: 13 (valid) 0x148-0x149 (1)
     |                                               |                |    [4]{}: section 0x149-0x1ca (129)
0x140|                           0a                  |         .      |      id: "code_section" (10) 0x149-0x14a (1)
0x140|                              7f               |          .     |      size: 127 (valid) 0x14a-0x14b (1)
     |                                               |                |      content{}: 0x14b-0x1ca (127)
     |                                               |                |        code{}: 0x14b-0x1ca (127)
0x140|                                 0e            |           .    |          n: 14 (valid) 0x14b-0x14c (1)
     |                                               |                |          x[0:14]: 0x14c-0x1ca (126)
     |                                               |                |            [0]{}: code 0x14c-0x155 (9)
0x140|                                    08         |            .   |              size: 8 (valid) 0x14c-0x14d (1)
     |                                               |                |              code{}: 0x14d-0x155 (8)
     |                                               |                |                t{}: 0x14d-0x14e (1)
0x140|                                       00      |             .  |                  n: 0 (valid) 0x14d-0x14e (1)
     |                                               |                |                  x[0:0]: 0x14e-0x14e (0)
     |                                               |                |                e[0:4]: 0x14e-0x155 (7)
     |                                               |                |                  [0]{}: in 0x14e-0x150 (2)
0x140|                                          20   |                |                    opcode: "local.get" (0x20) 0x14e-0x14f (1)
0x140|                                             00|               .|                    x: 0 (valid) 0x14f-0x150 (1)
     |                                               |                |                  [1]{}: in 0x150-0x153 (3)
0x150|28                                             |(               |                    opcode: "i32.load" (0x28) 0x150-0x151 (1)
     |                                               |                |                    m{}: 0x151-0x153 (2)
0x150|   02                                          | .              |                      a: 2 (valid) 0x151-0x152 (1)
0x150|      00                                       |  .             |                      o: 0 (valid) 0x152-0x153 (1)
     |                                               |                |                  [2]{}: in 0x153-0x154 (1)
0x150|         1a                                    |   .            |                    opcode: "drop" (0x1a) 0x153-0x154 (1)
     |                                               |                |                  [3]{}: in 0x154-0x155 (1)
0x150|            0b                                 |    .           |                    opcode: "end" (0xb) 0x154-0x155 (1)
     |                                               |                |            [1]{}: code 0x155-0x15e (9)
0x150|               08                              |     .          |              size: 8 (valid) 0x155-0x156 (1)
     |                                               |                |              code{}: 0x156-0x15e (8)
     |                                               |                |                t{}: 0x156-0x157 (1)
0x150|                  00                           |      .         |                  n: 0 (valid) 0x156-0x157 (1)
     |                                               |                |                  x[0:0]: 0x157-0x157 (0)
     |                                               |                |                e[0:4]: 0x157-0x15e (7)
     |                                               |                |                  [0]{}: in 0x157-0x159 (2)
0x150|                     20                        |                |                    opcode: "local.get" (0x20) 0x157-0x158 (1)
0x150|                        00                     |        .       |                    x: 0 (valid) 0x158-0x159 (1)
     |                                               |                |                  [1]{}: in 0x159-0x15c (3)
0x150|                           2e                  |         .      |                    opcode: "i32.load16_s" (0x2e) 0x159-0x15a (1)
     |                                               |                |                    m{}: 0x15a-0x15c (2)
0x150|                              01               |          .     |                      a: 1 (valid) 0x15a-0x15b (1)
0x150|                                 00            |           .    |                      o: 0 (valid) 0x15b-0x15c (1)
     |                                               |                |                  [2]{}: in 0x15c-0x15d (1)
0x150|                                    1a         |            .   |                    opcode: "drop" (0x1a) 0x15c-0x15d (1)
     |                                               |                |                  [3]{}: in 0x15d-0x15e (1)
0x150|                                       0b      |             .  |                    opcode: "end" (0xb) 0x15d-0x15e (1)
     |                                               |                |            [2]{}: code 0x15e-0x167 (9)
0x150|                                          08   |              . |              size: 8 (valid) 0x15e-0x15f (1)
     |                                               |                |              code{}: 0x15f-0x167 (8)
     |                                               |                |                t{}: 0x15f-0x160 (1)
0x150|                                             00|               .|                  n: 0 (valid) 0x15f-0x160 (1)
     |                                               |                |                  x[0:0]: 0x160-0x160 (0)
     |                                               |                |                e[0:4]: 0x160-0x167 (7)
     |                                               |                |                  [0]{}: in 0x160-0x162 (2)
0x160|20                                             |                |                    opcode: "local.get" (0x20) 0x160-0x161 (1)
0x160|   00                                          | .              |                    x: 0 (valid) 0x161-0x162 (1)
     |                                               |                |                  [1]{}: in 0x162-0x165 (3)
0x160|      2f                                       |  /             |                    opcode: "i32.load16_u" (0x2f) 0x162-0x163 (1)
     |                                               |                |                    m{}: 0x163-0x165 (2)
0x160|         01                                    |   .            |                      a: 1 (valid) 0x163-0x164 (1)
0x160|            00                                 |    .           |                      o: 0 (valid) 0x164-0x165 (1)
     |                                               |                |                  [2]{}: in 0x165-0x166 (1)
0x160|               1a                              |     .          |                    opcode: "drop" (0x1a) 0x165-0x166 (1)
     |                                               |                |                  [3]{}: in 0x166-0x167 (1)
0x160|                  0b                           |      .         |                    opcode: "end" (0xb) 0x166-0x167 (1)
     |                                               |                |            [3]{}: code 0x167-0x170 (9)
0x160|                     08                        |       .        |              size: 8 (valid) 0x167-0x168 (1)
     |                                               |                |              code{}: 0x168-0x170 (8)
     |                                               |                |                t{}: 0x168-0x169 (1)
0x160|                        00                     |        .       |                  n: 0 (valid) 0x168-0x169 (1)
     |                                               |                |                  x[0:0]: 0x169-0x169 (0)
     |                                               |                |                e[0:4]: 0x169-0x170 (7)
     |                                               |                |                  [0]{}: in 0x169-0x16b (2)
0x160|                           20                  |                |                    opcode: "local.get" (0x20) 0x169-0x16a (1)
0x160|                              00               |          .     |                    x: 0 (valid) 0x16a-0x16b (1)
     |                                               |                |                  [1]{}: in 0x16b-0x16e (3)
0x160|                                 2c            |           ,    |                    opcode: "i32.load8_s" (0x2c) 0x16b-0x16c (1)
     |                                               |                |                    m{}: 0x16c-0x16e (2)
0x160|                                    00         |            .   |                      a: 0 (valid) 0x16c-0x16d (1)
0x160|                                       00      |             .  |                      o: 0 (valid) 0x16d-0x16e (1)
     |                                               |                |                  [2]{}: in 0x16e-0x16f (1)
0x160|                                          1a   |              . |                    opcode: "drop" (0x1a) 0x16e-0x16f (1)
     |                                               |                |                  [3]{}: in 0x16f-0x170 (1)
0x160|                                             0b|               .|                    opcode: "end" (0xb) 0x16f-0x170 (1)
     |                                               |                |            [4]{}: code 0x170-0x179 (9)
0x170|08                                             |.               |              size: 8 (valid) 0x170-0x171 (1)
     |                                               |                |              code{}: 0x171-0x179 (8)
     |                                               |                |                t{}: 0x171-0x172 (1)
0x170|   00                                          | .              |                  n: 0 (valid) 0x171-0x172 (1)
     |                                               |                |                  x[0:0]: 0x172-0x172 (0)
     |                                               |                |                e[0:4]: 0x172-0x179 (7)
     |                                               |                |                  [0]{}: in 0x172-0x174 (2)
0x170|      20                                       |                |                    opcode: "local.get" (0x20) 0x172-0x173 (1)
0x170|         00                                    |   .            |                    x: 0 (valid) 0x173-0x174 (1)
     |                                               |                |                  [1]{}: in 0x174-0x177 (3)
0x170|            2d                                 |    -           |                    opcode: "i32.load8_u" (0x2d) 0x174-0x175 (1)
     |                                               |                |                    m{}: 0x175-0x177 (2)
0x170|               00                              |     .          |                      a: 0 (valid) 0x175-0x176 (1)
0x170|                  00                           |      .         |                      o: 0 (valid) 0x176-0x177 (1)
     |                                               |                |                  [2]{}: in 0x177-0x178 (1)
0x170|                     1a                        |       .        |                    opcode: "drop" (0x1a) 0x177-0x178 (1)
     |                                               |                |                  [3]{}: in 0x178-0x179 (1)
0x170|                        0b                     |        .       |                    opcode: "end" (0xb) 0x178-0x179 (1)
     |                                               |                |            [5]{}: code 0x179-0x182 (9)
0x170|                           08                  |         .      |              size: 8 (valid) 0x179-0x17a (1)
     |                                               |                |              code{}: 0x17a-0x182 (8)
     |                                               |                |                t{}: 0x17a-0x17b (1)
0x170|                              00               |          .     |                  n: 0 (valid) 0x17a-0x17b (1)
     |                                               |                |                  x[0:0]: 0x17b-0x17b (0)
     |                                               |                |                e[0:4]: 0x17b-0x182 (7)
     |                                               |                |                  [0]{}: in 0x17b-0x17d (2)
0x170|                                 20            |                |                    opcode: "local.get" (0x20) 0x17b-0x17c (1)
0x170|                                    00         |            .   |                    x: 0 (valid) 0x17c-0x17d (1)
     |                                               |                |                  [1]{}: in 0x17d-0x180 (3)
0x170|                                       29      |             )  |                    opcode: "i64.load" (0x29) 0x17d-0x17e (1)
     |                                               |                |                    m{}: 0x17e-0x180 (2)
0x170|                                          03   |              . |                      a: 3 (valid) 0x17e-0x17f (1)
0x170|                                             00|               .|                      o: 0 (valid) 0x17f-0x180 (1)
     |                                               |                |                  [2]{}: in 0x180-0x181 (1)
0x180|1a                                             |.               |                    opcode: "drop" (0x1a) 0x180-0x181 (1)
     |                                               |                |                  [3]{}: in 0x181-0x182 (1)
0x180|   0b                                          | .              |                    opcode: "end" (0xb) 0x181-0x182 (1)
     |                                               |                |            [6]{}: code 0x182-0x18b (9)
0x180|      08                                       |  .             |              size: 8 (valid) 0x182-0x183 (1)
     |                                               |                |              code{}: 0x183-0x18b (8)
     |                                               |                |                t{}: 0x183-0x184 (1)
0x180|         00                                    |   .            |                  n: 0 (valid) 0x183-0x184 (1)
     |                                               |                |                  x[0:0]: 0x184-0x184 (0)
     |                                               |                |                e[0:4]: 0x184-0x18b (7)
     |                                               |                |                  [0]{}: in 0x184-0x186 (2)
0x180|            20                                 |                |                    opcode: "local.get" (0x20) 0x184-0x185 (1)
0x180|               00                              |     .          |                    x: 0 (valid) 0x185-0x186 (1)
     |                                               |                |                  [1]{}: in 0x186-0x189 (3)
0x180|                  34                           |      4         |                    opcode: "i64.load32_s" (0x34) 0x186-0x187 (1)
     |                                               |                |                    m{}: 0x187-0x189 (2)
0x180|                     02                        |       .        |                      a: 2 (valid) 0x187-0x188 (1)
0x180|                        00                     |        .       |                      o: 0 (valid) 0x188-0x189 (1)
     |                                               |                |                  [2]{}: in 0x189-0x18a (1)
0x180|                           1a                  |         .      |                    opcode: "drop" (0x1a) 0x189-0x18a (1)
     |                                               |                |                  [3]{}: in 0x18a-0x18b (1)
0x180|                              0b               |          .     |                    opcode: "end" (0xb) 0x18a-0x18b (1)
     |                                               |                |            [7]{}: code 0x18b-0x194 (9)
0x180|                                 08            |           .    |              size: 8 (valid) 0x18b-0x18c (1)
     |                                               |                |              code{}: 0x18c-0x194 (8)
     |                                               |                |                t{}: 0x18c-0x18d (1)
0x180|                                    00         |            .   |                  n: 0 (valid) 0x18c-0x18d (1)
     |                                               |                |                  x[0:0]: 0x18d-0x18d (0)
     |                                               |                |                e[0:4]: 0x18d-0x194 (7)
     |                                               |                |                  [0]{}: in 0x18d-0x18f (2)
0x180|                                       20      |                |                    opcode: "local.get" (0x20) 0x18d-0x18e (1)
0x180|                                          00   |              . |                    x: 0 (valid) 0x18e-0x18f (1)
     |                                               |                |                  [1]{}: in 0x18f-0x192 (3)
0x180|                                             35|               5|                    opcode: "i64.load32_u" (0x35) 0x18f-0x190 (1)
     |                                               |                |                    m{}: 0x190-0x192 (2)
0x190|02                                             |.               |                      a: 2 (valid) 0x190-0x191 (1)
0x190|   00                                          | .              |                      o: 0 (valid) 0x191-0x192 (1)
     |                                               |                |                  [2]{}: in 0x192-0x193 (1)
0x190|      1a                                       |  .             |                    opcode: "drop" (0x1a) 0x192-0x193 (1)
     |                                               |                |                  [3]{}: in 0x193-0x194 (1)
0x190|         0b                                    |   .            |                    opcode: "end" (0xb) 0x193-0x194 (1)
     |                                               |                |            [8]{}: code 0x194-0x19d (9)
0x190|            08                                 |    .           |              size: 8 (valid) 0x194-0x195 (1)
     |                                               |                |              code{}: 0x195-0x19d (8)
     |                                               |                |                t{}: 0x195-0x196 (1)
0x190|               00                              |     .          |                  n: 0 (valid) 0x195-0x196 (1)
     |                                               |                |                  x[0:0]: 0x196-0x196 (0)
     |                                               |                |                e[0:4]: 0x196-0x19d (7)
     |                                               |                |                  [0]{}: in 0x196-0x198 (2)
0x190|                  20                           |                |                    opcode: "local.get" (0x20) 0x196-0x197 (1)
0x190|                     00                        |       .        |                    x: 0 (valid) 0x197-0x198 (1)
     |                                               |                |                  [1]{}: in 0x198-0x19b (3)
0x190|                        32                     |        2       |                    opcode: "i64.load16_s" (0x32) 0x198-0x199 (1)
     |                                               |                |                    m{}: 0x199-0x19b (2)
0x190|                           01                  |         .      |                      a: 1 (valid) 0x199-0x19a (1)
0x190|                              00               |          .     |                      o: 0 (valid) 0x19a-0x19b (1)
     |                                               |                |                  [2]{}: in 0x19b-0x19c (1)
0x190|                                 1a            |           .    |                    opcode: "drop" (0x1a) 0x19b-0x19c (1)
     |                                               |                |                  [3]{}: in 0x19c-0x19d (1)
0x190|                                    0b         |            .   |                    opcode: "end" (0xb) 0x19c-0x19d (1)
     |                                               |                |            [9]{}: code 0x19d-0x1a6 (9)
0x190|                                       08      |             .  |              size: 8 (valid) 0x19d-0x19e (1)
     |                                               |                |              code{}: 0x19e-0x1a6 (8)
     |                                               |                |                t{}: 0x19e-0x19f (1)
0x190|                                          00   |              . |                  n: 0 (valid) 0x19e-0x19f (1)
     |                                               |                |                  x[0:0]: 0x19f-0x19f (0)
     |                                               |                |                e[0:4]: 0x19f-0x1a6 (7)
     |                                               |                |                  [0]{}: in 0x19f-0x1a1 (2)
0x190|                                             20|                |                    opcode: "local.get" (0x20) 0x19f-0x1a0 (1)
0x1a0|00                                             |.               |                    x: 0 (valid) 0x1a0-0x1a1 (1)
     |                                               |                |                  [1]{}: in 0x1a1-0x1a4 (3)
0x1a0|   33                                          | 3              |                    opcode: "i64.load16_u" (0x33) 0x1a1-0x1a2 (1)
     |                                               |                |                    m{}: 0x1a2-0x1a4 (2)
0x1a0|      01                                       |  .             |                      a: 1 (valid) 0x1a2-0x1a3 (1)
0x1a0|         00                                    |   .            |                      o: 0 (valid) 0x1a3-0x1a4 (1)
     |                                               |                |                  [2]{}: in 0x1a4-0x1a5 (1)
0x1a0|            1a                                 |    .           |                    opcode: "drop" (0x1a) 0x1a4-0x1a5 (1)
     |                                               |                |                  [3]{}: in 0x1a5-0x1a6 (1)
0x1a0|               0b                              |     .          |                    opcode: "end" (0xb) 0x1a5-0x1a6 (1)
     |                                               |                |            [10]{}: code 0x1a6-0x1af (9)
0x1a0|                  08                           |      .         |              size: 8 (valid) 0x1a6-0x1a7 (1)
     |                                               |                |              code{}: 0x1a7-0x1af (8)
     |                                               |                |                t{}: 0x1a7-0x1a8 (1)
0x1a0|                     00                        |       .        |                  n: 0 (valid) 0x1a7-0x1a8 (1)
     |                                               |                |                  x[0:0]: 0x1a8-0x1a8 (0)
     |                                               |                |                e[0:4]: 0x1a8-0x1af (7)
     |                                               |                |                  [0]{}: in 0x1a8-0x1aa (2)
0x1a0|                        20                     |                |                    opcode: "local.get" (0x20) 0x1a8-0x1a9 (1)
0x1a0|                           00                  |         .      |                    x: 0 (valid) 0x1a9-0x1aa (1)
     |                                               |                |                  [1]{}: in 0x1aa-0x1ad (3)
0x1a0|                              30               |          0     |                    opcode: "i64.load8_s" (0x30) 0x1aa-0x1ab (1)
     |                                               |                |                    m{}: 0x1ab-0x1ad (2)
0x1a0|                                 00            |           .    |                      a: 0 (valid) 0x1ab-0x1ac (1)
0x1a0|                                    00         |            .   |                      o: 0 (valid) 0x1ac-0x1ad (1)
     |                                               |                |                  [2]{}: in 0x1ad-0x1ae (1)
0x1a0|                                       1a      |             .  |                    opcode: "drop" (0x1a) 0x1ad-0x1ae (1)
     |                                               |                |                  [3]{}: in 0x1ae-0x1af (1)
0x1a0|                                          0b   |              . |                    opcode: "end" (0xb) 0x1ae-0x1af (1)
     |                                               |                |            [11]{}: code 0x1af-0x1b8 (9)
0x1a0|                                             08|               .|              size: 8 (valid) 0x1af-0x1b0 (1)
     |                                               |                |              code{}: 0x1b0-0x1b8 (8)
     |                                               |                |                t{}: 0x1b0-0x1b1 (1)
0x1b0|00                                             |.               |                  n: 0 (valid) 0x1b0-0x1b1 (1)
     |                                               |                |                  x[0:0]: 0x1b1-0x1b1 (0)
     |                                               |                |                e[0:4]: 0x1b1-0x1b8 (7)
     |                                               |                |                  [0]{}: in 0x1b1-0x1b3 (2)
0x1b0|   20                                          |                |                    opcode: "local.get" (0x20) 0x1b1-0x1b2 (1)
0x1b0|      00                                       |  .             |                    x: 0 (valid) 0x1b2-0x1b3 (1)
     |                                               |                |                  [1]{}: in 0x1b3-0x1b6 (3)
0x1b0|         31                                    |   1            |                    opcode: "i64.load8_u" (0x31) 0x1b3-0x1b4 (1)
     |                                               |                |                    m{}: 0x1b4-0x1b6 (2)
0x1b0|            00                                 |    .           |                      a: 0 (valid) 0x1b4-0x1b5 (1)
0x1b0|               00                              |     .          |                      o: 0 (valid) 0x1b5-0x1b6 (1)
     |                                               |                |                  [2]{}: in 0x1b6-0x1b7 (1)
0x1b0|                  1a                           |      .         |                    opcode: "drop" (0x1a) 0x1b6-0x1b7 (1)
     |                                               |                |                  [3]{}: in 0x1b7-0x1b8 (1)
0x1b0|                     0b                        |       .        |                    opcode: "end" (0xb) 0x1b7-0x1b8 (1)
     |                                               |                |            [12]{}: code 0x1b8-0x1c1 (9)
0x1b0|                        08                     |        .       |              size: 8 (valid) 0x1b8-0x1b9 (1)
     |                                               |                |              code{}: 0x1b9-0x1c1 (8)
     |                                               |                |                t{}: 0x1b9-0x1ba (1)
0x1b0|                           00                  |         .      |                  n: 0 (valid) 0x1b9-0x1ba (1)
     |                                               |                |                  x[0:0]: 0x1ba-0x1ba (0)
     |                                               |                |                e[0:4]: 0x1ba-0x1c1 (7)
     |                                               |                |                  [0]{}: in 0x1ba-0x1bc (2)
0x1b0|                              20               |                |                    opcode: "local.get" (0x20) 0x1ba-0x1bb (1)
0x1b0|                                 00            |           .    |                    x: 0 (valid) 0x1bb-0x1bc (1)
     |                                               |                |                  [1]{}: in 0x1bc-0x1bf (3)
0x1b0|                                    2a         |            *   |                    opcode: "f32.load" (0x2a) 0x1bc-0x1bd (1)
     |                                               |                |                    m{}: 0x1bd-0x1bf (2)
0x1b0|                                       02      |             .  |                      a: 2 (valid) 0x1bd-0x1be (1)
0x1b0|                                          00   |              . |                      o: 0 (valid) 0x1be-0x1bf (1)
     |                                               |                |                  [2]{}: in 0x1bf-0x1c0 (1)
0x1b0|                                             1a|               .|                    opcode: "drop" (0x1a) 0x1bf-0x1c0 (1)
     |                                               |                |                  [3]{}: in 0x1c0-0x1c1 (1)
0x1c0|0b                                             |.               |                    opcode: "end" (0xb) 0x1c0-0x1c1 (1)
     |                                               |                |            [13]{}: code 0x1c1-0x1ca (9)
0x1c0|   08                                          | .              |              size: 8 (valid) 0x1c1-0x1c2 (1)
     |                                               |                |              code{}: 0x1c2-0x1ca (8)
     |                                               |                |                t{}: 0x1c2-0x1c3 (1)
0x1c0|      00                                       |  .             |                  n: 0 (valid) 0x1c2-0x1c3 (1)
     |                                               |                |                  x[0:0]: 0x1c3-0x1c3 (0)
     |                                               |                |                e[0:4]: 0x1c3-0x1ca (7)
     |                                               |                |                  [0]{}: in 0x1c3-0x1c5 (2)
0x1c0|         20                                    |                |                    opcode: "local.get" (0x20) 0x1c3-0x1c4 (1)
0x1c0|            00                                 |    .           |                    x: 0 (valid) 0x1c4-0x1c5 (1)
     |                                               |                |                  [1]{}: in 0x1c5-0x1c8 (3)
0x1c0|               2b                              |     +          |                    opcode: "f64.load" (0x2b) 0x1c5-0x1c6 (1)
     |                                               |                |                    m{}: 0x1c6-0x1c8 (2)
0x1c0|                  03                           |      .         |                      a: 3 (valid) 0x1c6-0x1c7 (1)
0x1c0|                     00                        |       .        |                      o: 0 (valid) 0x1c7-0x1c8 (1)
     |                                               |                |                  [2]{}: in 0x1c8-0x1c9 (1)
0x1c0|                        1a                     |        .       |                    opcode: "drop" (0x1a) 0x1c8-0x1c9 (1)
     |                                               |                |                  [3]{}: in 0x1c9-0x1ca (1)
0x1c0|                           0b|                 |         .|     |                    opcode: "end" (0xb) 0x1c9-0x1ca (1)
