$ fq -d wasm dv type-0.wasm
    |00 01 02 03 04 05 06 07 08 09 0a 0b 0c 0d 0e 0f|0123456789abcdef|.{}: type-0.wasm (wasm) 0x0-0x94 (148)
0x00|00 61 73 6d                                    |.asm            |  magic: raw bits (valid) 0x0-0x4 (4)
0x00|            01 00 00 00                        |    ....        |  version: 1 0x4-0x8 (4)
    |                                               |                |  sections[0:1]: 0x8-0x94 (140)
    |                                               |                |    [0]{}: section 0x8-0x94 (140)
0x00|                        01                     |        .       |      id: "type_section" (1) 0x8-0x9 (1)
0x00|                           89 01               |         ..     |      size: 137 (valid) 0x9-0xb (2)
    |                                               |                |      content{}: 0xb-0x94 (137)
    |                                               |                |        ft{}: 0xb-0x94 (137)
0x00|                                 17            |           .    |          n: 23 (valid) 0xb-0xc (1)
    |                                               |                |          x[0:23]: 0xc-0x94 (136)
    |                                               |                |            [0]{}: ft 0xc-0xf (3)
0x00|                                    60         |            `   |              tag: 0x60 (valid) 0xc-0xd (1)
    |                                               |                |              rt1{}: 0xd-0xe (1)
0x00|                                       00      |             .  |                n: 0 (valid) 0xd-0xe (1)
    |                                               |                |                x[0:0]: 0xe-0xe (0)
    |                                               |                |              rt2{}: 0xe-0xf (1)
0x00|                                          00   |              . |                n: 0 (valid) 0xe-0xf (1)
    |                                               |                |                x[0:0]: 0xf-0xf (0)
    |                                               |                |            [1]{}: ft 0xf-0x12 (3)
0x00|                                             60|               `|              tag: 0x60 (valid) 0xf-0x10 (1)
    |                                               |                |              rt1{}: 0x10-0x11 (1)
0x10|00                                             |.               |                n: 0 (valid) 0x10-0x11 (1)
    |                                               |                |                x[0:0]: 0x11-0x11 (0)
    |                                               |                |              rt2{}: 0x11-0x12 (1)
0x10|   00                                          | .              |                n: 0 (valid) 0x11-0x12 (1)
    |                                               |                |                x[0:0]: 0x12-0x12 (0)
    |                                               |                |            [2]{}: ft 0x12-0x16 (4)
0x10|      60                                       |  `             |              tag: 0x60 (valid) 0x12-0x13 (1)
    |                                               |                |              rt1{}: 0x13-0x15 (2)
0x10|         01                                    |   .            |                n: 1 (valid) 0x13-0x14 (1)
    |                                               |                |                x[0:1]: 0x14-0x15 (1)
0x10|            7f                                 |    .           |                  [0]: "i32" (0x7f) t 0x14-0x15 (1)
    |                                               |                |              rt2{}: 0x15-0x16 (1)
0x10|               00                              |     .          |                n: 0 (valid) 0x15-0x16 (1)
    |                                               |                |                x[0:0]: 0x16-0x16 (0)
    |                                               |                |            [3]{}: ft 0x16-0x1a (4)
0x10|                  60                           |      `         |              tag: 0x60 (valid) 0x16-0x17 (1)
    |                                               |                |              rt1{}: 0x17-0x19 (2)
0x10|                     01                        |       .        |                n: 1 (valid) 0x17-0x18 (1)
    |                                               |                |                x[0:1]: 0x18-0x19 (1)
0x10|                        7f                     |        .       |                  [0]: "i32" (0x7f) t 0x18-0x19 (1)
    |                                               |                |              rt2{}: 0x19-0x1a (1)
0x10|                           00                  |         .      |                n: 0 (valid) 0x19-0x1a (1)
    |                                               |                |                x[0:0]: 0x1a-0x1a (0)
    |                                               |                |            [4]{}: ft 0x1a-0x1e (4)
0x10|                              60               |          `     |              tag: 0x60 (valid) 0x1a-0x1b (1)
    |                                               |                |              rt1{}: 0x1b-0x1c (1)
0x10|                                 00            |           .    |                n: 0 (valid) 0x1b-0x1c (1)
    |                                               |                |                x[0:0]: 0x1c-0x1c (0)
    |                                               |                |              rt2{}: 0x1c-0x1e (2)
0x10|                                    01         |            .   |                n: 1 (valid) 0x1c-0x1d (1)
    |                                               |                |                x[0:1]: 0x1d-0x1e (1)
0x10|                                       7f      |             .  |                  [0]: "i32" (0x7f) t 0x1d-0x1e (1)
    |                                               |                |            [5]{}: ft 0x1e-0x23 (5)
0x10|                                          60   |              ` |              tag: 0x60 (valid) 0x1e-0x1f (1)
    |                                               |                |              rt1{}: 0x1f-0x21 (2)
0x10|                                             01|               .|                n: 1 (valid) 0x1f-0x20 (1)
    |                                               |                |                x[0:1]: 0x20-0x21 (1)
0x20|7f                                             |.               |                  [0]: "i32" (0x7f) t 0x20-0x21 (1)
    |                                               |                |              rt2{}: 0x21-0x23 (2)
0x20|   01                                          | .              |                n: 1 (valid) 0x21-0x22 (1)
    |                                               |                |                x[0:1]: 0x22-0x23 (1)
0x20|      7f                                       |  .             |                  [0]: "i32" (0x7f) t 0x22-0x23 (1)
    |                                               |                |            [6]{}: ft 0x23-0x28 (5)
0x20|         60                                    |   `            |              tag: 0x60 (valid) 0x23-0x24 (1)
    |                                               |                |              rt1{}: 0x24-0x26 (2)
0x20|            01                                 |    .           |                n: 1 (valid) 0x24-0x25 (1)
    |                                               |                |                x[0:1]: 0x25-0x26 (1)
0x20|               7f                              |     .          |                  [0]: "i32" (0x7f) t 0x25-0x26 (1)
    |                                               |                |              rt2{}: 0x26-0x28 (2)
0x20|                  01                           |      .         |                n: 1 (valid) 0x26-0x27 (1)
    |                                               |                |                x[0:1]: 0x27-0x28 (1)
0x20|                     7f                        |       .        |                  [0]: "i32" (0x7f) t 0x27-0x28 (1)
    |                                               |                |            [7]{}: ft 0x28-0x2d (5)
0x20|                        60                     |        `       |              tag: 0x60 (valid) 0x28-0x29 (1)
    |                                               |                |              rt1{}: 0x29-0x2c (3)
0x20|                           02                  |         .      |                n: 2 (valid) 0x29-0x2a (1)
    |                                               |                |                x[0:2]: 0x2a-0x2c (2)
0x20|                              7d               |          }     |                  [0]: "f32" (0x7d) t 0x2a-0x2b (1)
0x20|                                 7c            |           |    |                  [1]: "f64" (0x7c) t 0x2b-0x2c (1)
    |                                               |                |              rt2{}: 0x2c-0x2d (1)
0x20|                                    00         |            .   |                n: 0 (valid) 0x2c-0x2d (1)
    |                                               |                |                x[0:0]: 0x2d-0x2d (0)
    |                                               |                |            [8]{}: ft 0x2d-0x32 (5)
0x20|                                       60      |             `  |              tag: 0x60 (valid) 0x2d-0x2e (1)
    |                                               |                |              rt1{}: 0x2e-0x2f (1)
0x20|                                          00   |              . |                n: 0 (valid) 0x2e-0x2f (1)
    |                                               |                |                x[0:0]: 0x2f-0x2f (0)
    |                                               |                |              rt2{}: 0x2f-0x32 (3)
0x20|                                             02|               .|                n: 2 (valid) 0x2f-0x30 (1)
    |                                               |                |                x[0:2]: 0x30-0x32 (2)
0x30|7e                                             |~               |                  [0]: "i64" (0x7e) t 0x30-0x31 (1)
0x30|   7d                                          | }              |                  [1]: "f32" (0x7d) t 0x31-0x32 (1)
    |                                               |                |            [9]{}: ft 0x32-0x39 (7)
0x30|      60                                       |  `             |              tag: 0x60 (valid) 0x32-0x33 (1)
    |                                               |                |              rt1{}: 0x33-0x36 (3)
0x30|         02                                    |   .            |                n: 2 (valid) 0x33-0x34 (1)
    |                                               |                |                x[0:2]: 0x34-0x36 (2)
0x30|            7f                                 |    .           |                  [0]: "i32" (0x7f) t 0x34-0x35 (1)
0x30|               7e                              |     ~          |                  [1]: "i64" (0x7e) t 0x35-0x36 (1)
    |                                               |                |              rt2{}: 0x36-0x39 (3)
0x30|                  02                           |      .         |                n: 2 (valid) 0x36-0x37 (1)
    |                                               |                |                x[0:2]: 0x37-0x39 (2)
0x30|                     7d                        |       }        |                  [0]: "f32" (0x7d) t 0x37-0x38 (1)
0x30|                        7c                     |        |       |                  [1]: "f64" (0x7c) t 0x38-0x39 (1)
    |                                               |                |            [10]{}: ft 0x39-0x3e (5)
0x30|                           60                  |         `      |              tag: 0x60 (valid) 0x39-0x3a (1)
    |                                               |                |              rt1{}: 0x3a-0x3d (3)
0x30|                              02               |          .     |                n: 2 (valid) 0x3a-0x3b (1)
    |                                               |                |                x[0:2]: 0x3b-0x3d (2)
0x30|                                 7d            |           }    |                  [0]: "f32" (0x7d) t 0x3b-0x3c (1)
0x30|                                    7c         |            |   |                  [1]: "f64" (0x7c) t 0x3c-0x3d (1)
    |                                               |                |              rt2{}: 0x3d-0x3e (1)
0x30|                                       00      |             .  |                n: 0 (valid) 0x3d-0x3e (1)
    |                                               |                |                x[0:0]: 0x3e-0x3e (0)
    |                                               |                |            [11]{}: ft 0x3e-0x43 (5)
0x30|                                          60   |              ` |              tag: 0x60 (valid) 0x3e-0x3f (1)
    |                                               |                |              rt1{}: 0x3f-0x42 (3)
0x30|                                             02|               .|                n: 2 (valid) 0x3f-0x40 (1)
    |                                               |                |                x[0:2]: 0x40-0x42 (2)
0x40|7d                                             |}               |                  [0]: "f32" (0x7d) t 0x40-0x41 (1)
0x40|   7c                                          | |              |                  [1]: "f64" (0x7c) t 0x41-0x42 (1)
    |                                               |                |              rt2{}: 0x42-0x43 (1)
0x40|      00                                       |  .             |                n: 0 (valid) 0x42-0x43 (1)
    |                                               |                |                x[0:0]: 0x43-0x43 (0)
    |                                               |                |            [12]{}: ft 0x43-0x48 (5)
0x40|         60                                    |   `            |              tag: 0x60 (valid) 0x43-0x44 (1)
    |                                               |                |              rt1{}: 0x44-0x47 (3)
0x40|            02                                 |    .           |                n: 2 (valid) 0x44-0x45 (1)
    |                                               |                |                x[0:2]: 0x45-0x47 (2)
0x40|               7d                              |     }          |                  [0]: "f32" (0x7d) t 0x45-0x46 (1)
0x40|                  7c                           |      |         |                  [1]: "f64" (0x7c) t 0x46-0x47 (1)
    |                                               |                |              rt2{}: 0x47-0x48 (1)
0x40|                     00                        |       .        |                n: 0 (valid) 0x47-0x48 (1)
    |                                               |                |                x[0:0]: 0x48-0x48 (0)
    |                                               |                |            [13]{}: ft 0x48-0x4d (5)
0x40|                        60                     |        `       |              tag: 0x60 (valid) 0x48-0x49 (1)
    |                                               |                |              rt1{}: 0x49-0x4c (3)
0x40|                           02                  |         .      |                n: 2 (valid) 0x49-0x4a (1)
    |                                               |                |                x[0:2]: 0x4a-0x4c (2)
0x40|                              7d               |          }     |                  [0]: "f32" (0x7d) t 0x4a-0x4b (1)
0x40|                                 7c            |           |    |                  [1]: "f64" (0x7c) t 0x4b-0x4c (1)
    |                                               |                |              rt2{}: 0x4c-0x4d (1)
0x40|                                    00         |            .   |                n: 0 (valid) 0x4c-0x4d (1)
    |                                               |                |                x[0:0]: 0x4d-0x4d (0)
    |                                               |                |            [14]{}: ft 0x4d-0x52 (5)
0x40|                                       60      |             `  |              tag: 0x60 (valid) 0x4d-0x4e (1)
    |                                               |                |              rt1{}: 0x4e-0x4f (1)
0x40|                                          00   |              . |                n: 0 (valid) 0x4e-0x4f (1)
    |                                               |                |                x[0:0]: 0x4f-0x4f (0)
    |                                               |                |              rt2{}: 0x4f-0x52 (3)
0x40|                                             02|               .|                n: 2 (valid) 0x4f-0x50 (1)
    |                                               |                |                x[0:2]: 0x50-0x52 (2)
0x50|7e                                             |~               |                  [0]: "i64" (0x7e) t 0x50-0x51 (1)
0x50|   7d                                          | }              |                  [1]: "f32" (0x7d) t 0x51-0x52 (1)
    |                                               |                |            [15]{}: ft 0x52-0x59 (7)
0x50|      60                                       |  `             |              tag: 0x60 (valid) 0x52-0x53 (1)
    |                                               |                |              rt1{}: 0x53-0x56 (3)
0x50|         02                                    |   .            |                n: 2 (valid) 0x53-0x54 (1)
    |                                               |                |                x[0:2]: 0x54-0x56 (2)
0x50|            7f                                 |    .           |                  [0]: "i32" (0x7f) t 0x54-0x55 (1)
0x50|               7e                              |     ~          |                  [1]: "i64" (0x7e) t 0x55-0x56 (1)
    |                                               |                |              rt2{}: 0x56-0x59 (3)
0x50|                  02                           |      .         |                n: 2 (valid) 0x56-0x57 (1)
    |                                               |                |                x[0:2]: 0x57-0x59 (2)
0x50|                     7d                        |       }        |                  [0]: "f32" (0x7d) t 0x57-0x58 (1)
0x50|                        7c                     |        |       |                  [1]: "f64" (0x7c) t 0x58-0x59 (1)
    |                                               |                |            [16]{}: ft 0x59-0x60 (7)
0x50|                           60                  |         `      |              tag: 0x60 (valid) 0x59-0x5a (1)
    |                                               |                |              rt1{}: 0x5a-0x5d (3)
0x50|                              02               |          .     |                n: 2 (valid) 0x5a-0x5b (1)
    |                                               |                |                x[0:2]: 0x5b-0x5d (2)
0x50|                                 7f            |           .    |                  [0]: "i32" (0x7f) t 0x5b-0x5c (1)
0x50|                                    7e         |            ~   |                  [1]: "i64" (0x7e) t 0x5c-0x5d (1)
    |                                               |                |              rt2{}: 0x5d-0x60 (3)
0x50|                                       02      |             .  |                n: 2 (valid) 0x5d-0x5e (1)
    |                                               |                |                x[0:2]: 0x5e-0x60 (2)
0x50|                                          7d   |              } |                  [0]: "f32" (0x7d) t 0x5e-0x5f (1)
0x50|                                             7c|               ||                  [1]: "f64" (0x7c) t 0x5f-0x60 (1)
    |                                               |                |            [17]{}: ft 0x60-0x69 (9)
0x60|60                                             |`               |              tag: 0x60 (valid) 0x60-0x61 (1)
    |                                               |                |              rt1{}: 0x61-0x68 (7)
0x60|   06                                          | .              |                n: 6 (valid) 0x61-0x62 (1)
    |                                               |                |                x[0:6]: 0x62-0x68 (6)
0x60|      7d                                       |  }             |                  [0]: "f32" (0x7d) t 0x62-0x63 (1)
0x60|         7c                                    |   |            |                  [1]: "f64" (0x7c) t 0x63-0x64 (1)
0x60|            7f                                 |    .           |                  [2]: "i32" (0x7f) t 0x64-0x65 (1)
0x60|               7c                              |     |          |                  [3]: "f64" (0x7c) t 0x65-0x66 (1)
0x60|                  7f                           |      .         |                  [4]: "i32" (0x7f) t 0x66-0x67 (1)
0x60|                     7f                        |       .        |                  [5]: "i32" (0x7f) t 0x67-0x68 (1)
    |                                               |                |              rt2{}: 0x68-0x69 (1)
0x60|                        00                     |        .       |                n: 0 (valid) 0x68-0x69 (1)
    |                                               |                |                x[0:0]: 0x69-0x69 (0)
    |                                               |                |            [18]{}: ft 0x69-0x71 (8)
0x60|                           60                  |         `      |              tag: 0x60 (valid) 0x69-0x6a (1)
    |                                               |                |              rt1{}: 0x6a-0x6b (1)
0x60|                              00               |          .     |                n: 0 (valid) 0x6a-0x6b (1)
    |                                               |                |                x[0:0]: 0x6b-0x6b (0)
    |                                               |                |              rt2{}: 0x6b-0x71 (6)
0x60|                                 05            |           .    |                n: 5 (valid) 0x6b-0x6c (1)
    |                                               |                |                x[0:5]: 0x6c-0x71 (5)
0x60|                                    7e         |            ~   |                  [0]: "i64" (0x7e) t 0x6c-0x6d (1)
0x60|                                       7e      |             ~  |                  [1]: "i64" (0x7e) t 0x6d-0x6e (1)
0x60|                                          7d   |              } |                  [2]: "f32" (0x7d) t 0x6e-0x6f (1)
0x60|                                             7d|               }|                  [3]: "f32" (0x7d) t 0x6f-0x70 (1)
0x70|7f                                             |.               |                  [4]: "i32" (0x7f) t 0x70-0x71 (1)
    |                                               |                |            [19]{}: ft 0x71-0x7c (11)
0x70|   60                                          | `              |              tag: 0x60 (valid) 0x71-0x72 (1)
    |                                               |                |              rt1{}: 0x72-0x77 (5)
0x70|      04                                       |  .             |                n: 4 (valid) 0x72-0x73 (1)
    |                                               |                |                x[0:4]: 0x73-0x77 (4)
0x70|         7f                                    |   .            |                  [0]: "i32" (0x7f) t 0x73-0x74 (1)
0x70|            7f                                 |    .           |                  [1]: "i32" (0x7f) t 0x74-0x75 (1)
0x70|               7e                              |     ~          |                  [2]: "i64" (0x7e) t 0x75-0x76 (1)
0x70|                  7f                           |      .         |                  [3]: "i32" (0x7f) t 0x76-0x77 (1)
    |                                               |                |              rt2{}: 0x77-0x7c (5)
0x70|                     04                        |       .        |                n: 4 (valid) 0x77-0x78 (1)
    |                                               |                |                x[0:4]: 0x78-0x7c (4)
0x70|                        7d                     |        }       |                  [0]: "f32" (0x7d) t 0x78-0x79 (1)
0x70|                           7c                  |         |      |                  [1]: "f64" (0x7c) t 0x79-0x7a (1)
0x70|                              7c               |          |     |                  [2]: "f64" (0x7c) t 0x7a-0x7b (1)
0x70|                                 7f            |           .    |                  [3]: "i32" (0x7f) t 0x7b-0x7c (1)
    |                                               |                |            [20]{}: ft 0x7c-0x82 (6)
0x70|                                    60         |            `   |              tag: 0x60 (valid) 0x7c-0x7d (1)
    |                                               |                |              rt1{}: 0x7d-0x81 (4)
0x70|                                       03      |             .  |                n: 3 (valid) 0x7d-0x7e (1)
    |                                               |                |                x[0:3]: 0x7e-0x81 (3)
0x70|                                          7d   |              } |                  [0]: "f32" (0x7d) t 0x7e-0x7f (1)
0x70|                                             7c|               ||                  [1]: "f64" (0x7c) t 0x7f-0x80 (1)
0x80|7f                                             |.               |                  [2]: "i32" (0x7f) t 0x80-0x81 (1)
    |                                               |                |              rt2{}: 0x81-0x82 (1)
0x80|   00                                          | .              |                n: 0 (valid) 0x81-0x82 (1)
    |                                               |                |                x[0:0]: 0x82-0x82 (0)
    |                                               |                |            [21]{}: ft 0x82-0x88 (6)
0x80|      60                                       |  `             |              tag: 0x60 (valid) 0x82-0x83 (1)
    |                                               |                |              rt1{}: 0x83-0x84 (1)
0x80|         00                                    |   .            |                n: 0 (valid) 0x83-0x84 (1)
    |                                               |                |                x[0:0]: 0x84-0x84 (0)
    |                                               |                |              rt2{}: 0x84-0x88 (4)
0x80|            03                                 |    .           |                n: 3 (valid) 0x84-0x85 (1)
    |                                               |                |                x[0:3]: 0x85-0x88 (3)
0x80|               7e                              |     ~          |                  [0]: "i64" (0x7e) t 0x85-0x86 (1)
0x80|                  7e                           |      ~         |                  [1]: "i64" (0x7e) t 0x86-0x87 (1)
0x80|                     7d                        |       }        |                  [2]: "f32" (0x7d) t 0x87-0x88 (1)
    |                                               |                |            [22]{}: ft 0x88-0x94 (12)
0x80|                        60                     |        `       |              tag: 0x60 (valid) 0x88-0x89 (1)
    |                                               |                |              rt1{}: 0x89-0x8f (6)
0x80|                           05                  |         .      |                n: 5 (valid) 0x89-0x8a (1)
    |                                               |                |                x[0:5]: 0x8a-0x8f (5)
0x80|                              7f               |          .     |                  [0]: "i32" (0x7f) t 0x8a-0x8b (1)
0x80|                                 7f            |           .    |                  [1]: "i32" (0x7f) t 0x8b-0x8c (1)
0x80|                                    7e         |            ~   |                  [2]: "i64" (0x7e) t 0x8c-0x8d (1)
0x80|                                       7f      |             .  |                  [3]: "i32" (0x7f) t 0x8d-0x8e (1)
0x80|                                          7f   |              . |                  [4]: "i32" (0x7f) t 0x8e-0x8f (1)
    |                                               |                |              rt2{}: 0x8f-0x94 (5)
0x80|                                             04|               .|                n: 4 (valid) 0x8f-0x90 (1)
    |                                               |                |                x[0:4]: 0x90-0x94 (4)
0x90|7d                                             |}               |                  [0]: "f32" (0x7d) t 0x90-0x91 (1)
0x90|   7c                                          | |              |                  [1]: "f64" (0x7c) t 0x91-0x92 (1)
0x90|      7c                                       |  |             |                  [2]: "f64" (0x7c) t 0x92-0x93 (1)
0x90|         7f|                                   |   .|           |                  [3]: "i32" (0x7f) t 0x93-0x94 (1)
