$ fq -d wasm dv unreachable-0.wasm
     |00 01 02 03 04 05 06 07 08 09 0a 0b 0c 0d 0e 0f|0123456789abcdef|.{}: unreachable-0.wasm (wasm) 0x0-0x6d0 (1744)
0x000|00 61 73 6d                                    |.asm            |  magic: raw bits (valid) 0x0-0x4 (4)
0x000|            01 00 00 00                        |    ....        |  version: 1 0x4-0x8 (4)
     |                                               |                |  sections[0:8]: 0x8-0x6d0 (1736)
     |                                               |                |    [0]{}: section 0x8-0x2a (34)
0x000|                        01                     |        .       |      id: "type_section" (1) 0x8-0x9 (1)
0x000|                           20                  |                |      size: 32 (valid) 0x9-0xa (1)
     |                                               |                |      content{}: 0xa-0x2a (32)
     |                                               |                |        ft{}: 0xa-0x2a (32)
0x000|                              07               |          .     |          n: 7 (valid) 0xa-0xb (1)
     |                                               |                |          x[0:7]: 0xb-0x2a (31)
     |                                               |                |            [0]{}: ft 0xb-0x11 (6)
0x000|                                 60            |           `    |              tag: 0x60 (valid) 0xb-0xc (1)
     |                                               |                |              rt1{}: 0xc-0x10 (4)
0x000|                                    03         |            .   |                n: 3 (valid) 0xc-0xd (1)
     |                                               |                |                x[0:3]: 0xd-0x10 (3)
0x000|                                       7f      |             .  |                  [0]: "i32" (0x7f) t 0xd-0xe (1)
0x000|                                          7f   |              . |                  [1]: "i32" (0x7f) t 0xe-0xf (1)
0x000|                                             7f|               .|                  [2]: "i32" (0x7f) t 0xf-0x10 (1)
     |                                               |                |              rt2{}: 0x10-0x11 (1)
0x010|00                                             |.               |                n: 0 (valid) 0x10-0x11 (1)
     |                                               |                |                x[0:0]: 0x11-0x11 (0)
     |                                               |                |            [1]{}: ft 0x11-0x14 (3)
0x010|   60                                          | `              |              tag: 0x60 (valid) 0x11-0x12 (1)
     |                                               |                |              rt1{}: 0x12-0x13 (1)
0x010|      00                                       |  .             |                n: 0 (valid) 0x12-0x13 (1)
     |                                               |                |                x[0:0]: 0x13-0x13 (0)
     |                                               |                |              rt2{}: 0x13-0x14 (1)
0x010|         00                                    |   .            |                n: 0 (valid) 0x13-0x14 (1)
     |                                               |                |                x[0:0]: 0x14-0x14 (0)
     |                                               |                |            [2]{}: ft 0x14-0x18 (4)
0x010|            60                                 |    `           |              tag: 0x60 (valid) 0x14-0x15 (1)
     |                                               |                |              rt1{}: 0x15-0x16 (1)
0x010|               00                              |     .          |                n: 0 (valid) 0x15-0x16 (1)
     |                                               |                |                x[0:0]: 0x16-0x16 (0)
     |                                               |                |              rt2{}: 0x16-0x18 (2)
0x010|                  01                           |      .         |                n: 1 (valid) 0x16-0x17 (1)
     |                                               |                |                x[0:1]: 0x17-0x18 (1)
0x010|                     7f                        |       .        |                  [0]: "i32" (0x7f) t 0x17-0x18 (1)
     |                                               |                |            [3]{}: ft 0x18-0x1c (4)
0x010|                        60                     |        `       |              tag: 0x60 (valid) 0x18-0x19 (1)
     |                                               |                |              rt1{}: 0x19-0x1a (1)
0x010|                           00                  |         .      |                n: 0 (valid) 0x19-0x1a (1)
     |                                               |                |                x[0:0]: 0x1a-0x1a (0)
     |                                               |                |              rt2{}: 0x1a-0x1c (2)
0x010|                              01               |          .     |                n: 1 (valid) 0x1a-0x1b (1)
     |                                               |                |                x[0:1]: 0x1b-0x1c (1)
0x010|                                 7c            |           |    |                  [0]: "f64" (0x7c) t 0x1b-0x1c (1)
     |                                               |                |            [4]{}: ft 0x1c-0x20 (4)
0x010|                                    60         |            `   |              tag: 0x60 (valid) 0x1c-0x1d (1)
     |                                               |                |              rt1{}: 0x1d-0x1e (1)
0x010|                                       00      |             .  |                n: 0 (valid) 0x1d-0x1e (1)
     |                                               |                |                x[0:0]: 0x1e-0x1e (0)
     |                                               |                |              rt2{}: 0x1e-0x20 (2)
0x010|                                          01   |              . |                n: 1 (valid) 0x1e-0x1f (1)
     |                                               |                |                x[0:1]: 0x1f-0x20 (1)
0x010|                                             7e|               ~|                  [0]: "i64" (0x7e) t 0x1f-0x20 (1)
     |                                               |                |            [5]{}: ft 0x20-0x26 (6)
0x020|60                                             |`               |              tag: 0x60 (valid) 0x20-0x21 (1)
     |                                               |                |              rt1{}: 0x21-0x24 (3)
0x020|   02                                          | .              |                n: 2 (valid) 0x21-0x22 (1)
     |                                               |                |                x[0:2]: 0x22-0x24 (2)
0x020|      7f                                       |  .             |                  [0]: "i32" (0x7f) t 0x22-0x23 (1)
0x020|         7f                                    |   .            |                  [1]: "i32" (0x7f) t 0x23-0x24 (1)
     |                                               |                |              rt2{}: 0x24-0x26 (2)
0x020|            01                                 |    .           |                n: 1 (valid) 0x24-0x25 (1)
     |                                               |                |                x[0:1]: 0x25-0x26 (1)
0x020|               7f                              |     .          |                  [0]: "i32" (0x7f) t 0x25-0x26 (1)
     |                                               |                |            [6]{}: ft 0x26-0x2a (4)
0x020|                  60                           |      `         |              tag: 0x60 (valid) 0x26-0x27 (1)
     |                                               |                |              rt1{}: 0x27-0x28 (1)
0x020|                     00                        |       .        |                n: 0 (valid) 0x27-0x28 (1)
     |                                               |                |                x[0:0]: 0x28-0x28 (0)
     |                                               |                |              rt2{}: 0x28-0x2a (2)
0x020|                        01                     |        .       |                n: 1 (valid) 0x28-0x29 (1)
     |                                               |                |                x[0:1]: 0x29-0x2a (1)
0x020|                           7d                  |         }      |                  [0]: "f32" (0x7d) t 0x29-0x2a (1)
     |                                               |                |    [1]{}: section 0x2a-0x69 (63)
0x020|                              03               |          .     |      id: "function_section" (3) 0x2a-0x2b (1)
0x020|                                 3d            |           =    |      size: 61 (valid) 0x2b-0x2c (1)
     |                                               |                |      content{}: 0x2c-0x69 (61)
     |                                               |                |        x{}: 0x2c-0x69 (61)
0x020|                                    3c         |            <   |          n: 60 (valid) 0x2c-0x2d (1)
     |                                               |                |          x[0:60]: 0x2d-0x69 (60)
0x020|                                       01      |             .  |            [0]: 1 x (valid) 0x2d-0x2e (1)
0x020|                                          00   |              . |            [1]: 0 x (valid) 0x2e-0x2f (1)
0x020|                                             02|               .|            [2]: 2 x (valid) 0x2f-0x30 (1)
0x030|02                                             |.               |            [3]: 2 x (valid) 0x30-0x31 (1)
0x030|   03                                          | .              |            [4]: 3 x (valid) 0x31-0x32 (1)
0x030|      03                                       |  .             |            [5]: 3 x (valid) 0x32-0x33 (1)
0x030|         02                                    |   .            |            [6]: 2 x (valid) 0x33-0x34 (1)
0x030|            02                                 |    .           |            [7]: 2 x (valid) 0x34-0x35 (1)
0x030|               01                              |     .          |            [8]: 1 x (valid) 0x35-0x36 (1)
0x030|                  02                           |      .         |            [9]: 2 x (valid) 0x36-0x37 (1)
0x030|                     02                        |       .        |            [10]: 2 x (valid) 0x37-0x38 (1)
0x030|                        02                     |        .       |            [11]: 2 x (valid) 0x38-0x39 (1)
0x030|                           01                  |         .      |            [12]: 1 x (valid) 0x39-0x3a (1)
0x030|                              02               |          .     |            [13]: 2 x (valid) 0x3a-0x3b (1)
0x030|                                 02            |           .    |            [14]: 2 x (valid) 0x3b-0x3c (1)
0x030|                                    02         |            .   |            [15]: 2 x (valid) 0x3c-0x3d (1)
0x030|                                       02      |             .  |            [16]: 2 x (valid) 0x3d-0x3e (1)
0x030|                                          01   |              . |            [17]: 1 x (valid) 0x3e-0x3f (1)
0x030|                                             02|               .|            [18]: 2 x (valid) 0x3f-0x40 (1)
0x040|02                                             |.               |            [19]: 2 x (valid) 0x40-0x41 (1)
0x040|   01                                          | .              |            [20]: 1 x (valid) 0x41-0x42 (1)
0x040|      02                                       |  .             |            [21]: 2 x (valid) 0x42-0x43 (1)
0x040|         02                                    |   .            |            [22]: 2 x (valid) 0x43-0x44 (1)
0x040|            01                                 |    .           |            [23]: 1 x (valid) 0x44-0x45 (1)
0x040|               02                              |     .          |            [24]: 2 x (valid) 0x45-0x46 (1)
0x040|                  02                           |      .         |            [25]: 2 x (valid) 0x46-0x47 (1)
0x040|                     02                        |       .        |            [26]: 2 x (valid) 0x47-0x48 (1)
0x040|                        02                     |        .       |            [27]: 2 x (valid) 0x48-0x49 (1)
0x040|                           04                  |         .      |            [28]: 4 x (valid) 0x49-0x4a (1)
0x040|                              02               |          .     |            [29]: 2 x (valid) 0x4a-0x4b (1)
0x040|                                 05            |           .    |            [30]: 5 x (valid) 0x4b-0x4c (1)
0x040|                                    05         |            .   |            [31]: 5 x (valid) 0x4c-0x4d (1)
0x040|                                       05      |             .  |            [32]: 5 x (valid) 0x4d-0x4e (1)
0x040|                                          05   |              . |            [33]: 5 x (valid) 0x4e-0x4f (1)
0x040|                                             05|               .|            [34]: 5 x (valid) 0x4f-0x50 (1)
0x050|02                                             |.               |            [35]: 2 x (valid) 0x50-0x51 (1)
0x050|   01                                          | .              |            [36]: 1 x (valid) 0x51-0x52 (1)
0x050|      01                                       |  .             |            [37]: 1 x (valid) 0x52-0x53 (1)
0x050|         01                                    |   .            |            [38]: 1 x (valid) 0x53-0x54 (1)
0x050|            01                                 |    .           |            [39]: 1 x (valid) 0x54-0x55 (1)
0x050|               01                              |     .          |            [40]: 1 x (valid) 0x55-0x56 (1)
0x050|                  01                           |      .         |            [41]: 1 x (valid) 0x56-0x57 (1)
0x050|                     01                        |       .        |            [42]: 1 x (valid) 0x57-0x58 (1)
0x050|                        01                     |        .       |            [43]: 1 x (valid) 0x58-0x59 (1)
0x050|                           06                  |         .      |            [44]: 6 x (valid) 0x59-0x5a (1)
0x050|                              06               |          .     |            [45]: 6 x (valid) 0x5a-0x5b (1)
0x050|                                 06            |           .    |            [46]: 6 x (valid) 0x5b-0x5c (1)
0x050|                                    04         |            .   |            [47]: 4 x (valid) 0x5c-0x5d (1)
0x050|                                       01      |             .  |            [48]: 1 x (valid) 0x5d-0x5e (1)
0x050|                                          01   |              . |            [49]: 1 x (valid) 0x5e-0x5f (1)
0x050|                                             01|               .|            [50]: 1 x (valid) 0x5f-0x60 (1)
0x060|01                                             |.               |            [51]: 1 x (valid) 0x60-0x61 (1)
0x060|   06                                          | .              |            [52]: 6 x (valid) 0x61-0x62 (1)
0x060|      02                                       |  .             |            [53]: 2 x (valid) 0x62-0x63 (1)
0x060|         04                                    |   .            |            [54]: 4 x (valid) 0x63-0x64 (1)
0x060|            02                                 |    .           |            [55]: 2 x (valid) 0x64-0x65 (1)
0x060|               02                              |     .          |            [56]: 2 x (valid) 0x65-0x66 (1)
0x060|                  02                           |      .         |            [57]: 2 x (valid) 0x66-0x67 (1)
0x060|                     02                        |       .        |            [58]: 2 x (valid) 0x67-0x68 (1)
0x060|                        02                     |        .       |            [59]: 2 x (valid) 0x68-0x69 (1)
     |                                               |                |    [2]{}: section 0x69-0x70 (7)
0x060|                           04                  |         .      |      id: "table_section" (4) 0x69-0x6a (1)
0x060|                              05               |          .     |      size: 5 (valid) 0x6a-0x6b (1)
     |                                               |                |      content{}: 0x6b-0x70 (5)
     |                                               |                |        tab{}: 0x6b-0x70 (5)
0x060|                                 01            |           .    |          n: 1 (valid) 0x6b-0x6c (1)
     |                                               |                |          x[0:1]: 0x6c-0x70 (4)
     |                                               |                |            [0]{}: tab 0x6c-0x70 (4)
0x060|                                    70         |            p   |              et: "funcref" (112) 0x6c-0x6d (1)
     |                                               |                |              lim{}: 0x6d-0x70 (3)
0x060|                                       01      |             .  |                tag: 0x1 0x6d-0x6e (1)
0x060|                                          01   |              . |                n: 1 (valid) 0x6e-0x6f (1)
0x060|                                             01|               .|                m: 1 (valid) 0x6f-0x70 (1)
     |                                               |                |    [3]{}: section 0x70-0x75 (5)
0x070|05                                             |.               |      id: "memory_section" (5) 0x70-0x71 (1)
0x070|   03                                          | .              |      size: 3 (valid) 0x71-0x72 (1)
     |                                               |                |      content{}: 0x72-0x75 (3)
     |                                               |                |        mem{}: 0x72-0x75 (3)
0x070|      01                                       |  .             |          n: 1 (valid) 0x72-0x73 (1)
     |                                               |                |          x[0:1]: 0x73-0x75 (2)
     |                                               |                |            [0]{}: mem 0x73-0x75 (2)
     |                                               |                |              lim{}: 0x73-0x75 (2)
0x070|         00                                    |   .            |                tag: 0x0 0x73-0x74 (1)
0x070|            01                                 |    .           |                n: 1 (valid) 0x74-0x75 (1)
     |                                               |                |    [4]{}: section 0x75-0x80 (11)
0x070|               06                              |     .          |      id: "global_section" (6) 0x75-0x76 (1)
0x070|                  09                           |      .         |      size: 9 (valid) 0x76-0x77 (1)
     |                                               |                |      content{}: 0x77-0x80 (9)
     |                                               |                |        glob{}: 0x77-0x80 (9)
0x070|                     01                        |       .        |          n: 1 (valid) 0x77-0x78 (1)
     |                                               |                |          x[0:1]: 0x78-0x80 (8)
     |                                               |                |            [0]{}: glob 0x78-0x80 (8)
     |                                               |                |              gt{}: 0x78-0x7a (2)
0x070|                        7d                     |        }       |                t: "f32" (0x7d) 0x78-0x79 (1)
0x070|                           01                  |         .      |                m: "var" (1) 0x79-0x7a (1)
     |                                               |                |              e[0:2]: 0x7a-0x80 (6)
     |                                               |                |                [0]{}: in 0x7a-0x7f (5)
0x070|                              43               |          C     |                  opcode: "f32.const" (0x43) 0x7a-0x7b (1)
0x070|                                 00 00 00 00   |           .... |                  z: 0 0x7b-0x7f (4)
     |                                               |                |                [1]{}: in 0x7f-0x80 (1)
0x070|                                             0b|               .|                  opcode: "end" (0xb) 0x7f-0x80 (1)
     |                                               |                |    [5]{}: section 0x80-0x48f (1039)
0x080|07                                             |.               |      id: "export_section" (7) 0x80-0x81 (1)
0x080|   8c 08                                       | ..             |      size: 1036 (valid) 0x81-0x83 (2)
     |                                               |                |      content{}: 0x83-0x48f (1036)
     |                                               |                |        ex{}: 0x83-0x48f (1036)
0x080|         3a                                    |   :            |          n: 58 (valid) 0x83-0x84 (1)
     |                                               |                |          x[0:58]: 0x84-0x48f (1035)
     |                                               |                |            [0]{}: ex 0x84-0x8f (11)
     |                                               |                |              nm{}: 0x84-0x8d (9)
0x080|            08                                 |    .           |                n: 8 (valid) 0x84-0x85 (1)
0x080|               74 79 70 65 2d 69 33 32         |     type-i32   |                b: "type-i32" 0x85-0x8d (8)
     |                                               |                |              d{}: 0x8d-0x8f (2)
0x080|                                       00      |             .  |                tag: "funcidx" (0x0) 0x8d-0x8e (1)
0x080|                                          02   |              . |                x: 2 (valid) 0x8e-0x8f (1)
     |                                               |                |            [1]{}: ex 0x8f-0x9a (11)
     |                                               |                |              nm{}: 0x8f-0x98 (9)
0x080|                                             08|               .|                n: 8 (valid) 0x8f-0x90 (1)
0x090|74 79 70 65 2d 69 36 34                        |type-i64        |                b: "type-i64" 0x90-0x98 (8)
     |                                               |                |              d{}: 0x98-0x9a (2)
0x090|                        00                     |        .       |                tag: "funcidx" (0x0) 0x98-0x99 (1)
0x090|                           03                  |         .      |                x: 3 (valid) 0x99-0x9a (1)
     |                                               |                |            [2]{}: ex 0x9a-0xa5 (11)
     |                                               |                |              nm{}: 0x9a-0xa3 (9)
0x090|                              08               |          .     |                n: 8 (valid) 0x9a-0x9b (1)
0x090|                                 74 79 70 65 2d|           type-|                b: "type-f32" 0x9b-0xa3 (8)
0x0a0|66 33 32                                       |f32             |
     |                                               |                |              d{}: 0xa3-0xa5 (2)
0x0a0|         00                                    |   .            |                tag: "funcidx" (0x0) 0xa3-0xa4 (1)
0x0a0|            04                                 |    .           |                x: 4 (valid) 0xa4-0xa5 (1)
     |                                               |                |            [3]{}: ex 0xa5-0xb0 (11)
     |                                               |                |              nm{}: 0xa5-0xae (9)
0x0a0|               08                              |     .          |                n: 8 (valid) 0xa5-0xa6 (1)
0x0a0|                  74 79 70 65 2d 66 36 34      |      type-f64  |                b: "type-f64" 0xa6-0xae (8)
     |                                               |                |              d{}: 0xae-0xb0 (2)
0x0a0|                                          00   |              . |                tag: "funcidx" (0x0) 0xae-0xaf (1)
0x0a0|                                             05|               .|                x: 5 (valid) 0xaf-0xb0 (1)
     |                                               |                |            [4]{}: ex 0xb0-0xc0 (16)
     |                                               |                |              nm{}: 0xb0-0xbe (14)
0x0b0|0d                                             |.               |                n: 13 (valid) 0xb0-0xb1 (1)
0x0b0|   61 73 2d 66 75 6e 63 2d 66 69 72 73 74      | as-func-first  |                b: "as-func-first" 0xb1-0xbe (13)
     |                                               |                |              d{}: 0xbe-0xc0 (2)
0x0b0|                                          00   |              . |                tag: "funcidx" (0x0) 0xbe-0xbf (1)
0x0b0|                                             06|               .|                x: 6 (valid) 0xbf-0xc0 (1)
     |                                               |                |            [5]{}: ex 0xc0-0xce (14)
     |                                               |                |              nm{}: 0xc0-0xcc (12)
0x0c0|0b                                             |.               |                n: 11 (valid) 0xc0-0xc1 (1)
0x0c0|   61 73 2d 66 75 6e 63 2d 6d 69 64            | as-func-mid    |                b: "as-func-mid" 0xc1-0xcc (11)
     |                                               |                |              d{}: 0xcc-0xce (2)
0x0c0|                                    00         |            .   |                tag: "funcidx" (0x0) 0xcc-0xcd (1)
0x0c0|                                       07      |             .  |                x: 7 (valid) 0xcd-0xce (1)
     |                                               |                |            [6]{}: ex 0xce-0xdd (15)
     |                                               |                |              nm{}: 0xce-0xdb (13)
0x0c0|                                          0c   |              . |                n: 12 (valid) 0xce-0xcf (1)
0x0c0|                                             61|               a|                b: "as-func-last" 0xcf-0xdb (12)
0x0d0|73 2d 66 75 6e 63 2d 6c 61 73 74               |s-func-last     |
     |                                               |                |              d{}: 0xdb-0xdd (2)
0x0d0|                                 00            |           .    |                tag: "funcidx" (0x0) 0xdb-0xdc (1)
0x0d0|                                    08         |            .   |                x: 8 (valid) 0xdc-0xdd (1)
     |                                               |                |            [7]{}: ex 0xdd-0xed (16)
     |                                               |                |              nm{}: 0xdd-0xeb (14)
0x0d0|                                       0d      |             .  |                n: 13 (valid) 0xdd-0xde (1)
0x0d0|                                          61 73|              as|                b: "as-func-value" 0xde-0xeb (13)
0x0e0|2d 66 75 6e 63 2d 76 61 6c 75 65               |-func-value     |
     |                                               |                |              d{}: 0xeb-0xed (2)
0x0e0|                                 00            |           .    |                tag: "funcidx" (0x0) 0xeb-0xec (1)
0x0e0|                                    09         |            .   |                x: 9 (valid) 0xec-0xed (1)
     |                                               |                |            [8]{}: ex 0xed-0xfe (17)
     |                                               |                |              nm{}: 0xed-0xfc (15)
0x0e0|                                       0e      |             .  |                n: 14 (valid) 0xed-0xee (1)
0x0e0|                                          61 73|              as|                b: "as-block-first" 0xee-0xfc (14)
0x0f0|2d 62 6c 6f 63 6b 2d 66 69 72 73 74            |-block-first    |
     |                                               |                |              d{}: 0xfc-0xfe (2)
0x0f0|                                    00         |            .   |                tag: "funcidx" (0x0) 0xfc-0xfd (1)
0x0f0|                                       0a      |             .  |                x: 10 (valid) 0xfd-0xfe (1)
     |                                               |                |            [9]{}: ex 0xfe-0x10d (15)
     |                                               |                |              nm{}: 0xfe-0x10b (13)
0x0f0|                                          0c   |              . |                n: 12 (valid) 0xfe-0xff (1)
0x0f0|                                             61|               a|                b: "as-block-mid" 0xff-0x10b (12)
0x100|73 2d 62 6c 6f 63 6b 2d 6d 69 64               |s-block-mid     |
     |                                               |                |              d{}: 0x10b-0x10d (2)
0x100|                                 00            |           .    |                tag: "funcidx" (0x0) 0x10b-0x10c (1)
0x100|                                    0b         |            .   |                x: 11 (valid) 0x10c-0x10d (1)
     |                                               |                |            [10]{}: ex 0x10d-0x11d (16)
     |                                               |                |              nm{}: 0x10d-0x11b (14)
0x100|                                       0d      |             .  |                n: 13 (valid) 0x10d-0x10e (1)
0x100|                                          61 73|              as|                b: "as-block-last" 0x10e-0x11b (13)
0x110|2d 62 6c 6f 63 6b 2d 6c 61 73 74               |-block-last     |
     |                                               |                |              d{}: 0x11b-0x11d (2)
0x110|                                 00            |           .    |                tag: "funcidx" (0x0) 0x11b-0x11c (1)
0x110|                                    0c         |            .   |                x: 12 (valid) 0x11c-0x11d (1)
     |                                               |                |            [11]{}: ex 0x11d-0x12e (17)
     |                                               |                |              nm{}: 0x11d-0x12c (15)
0x110|                                       0e      |             .  |                n: 14 (valid) 0x11d-0x11e (1)
0x110|                                          61 73|              as|                b: "as-block-value" 0x11e-0x12c (14)
0x120|2d 62 6c 6f 63 6b 2d 76 61 6c 75 65            |-block-value    |
     |                                               |                |              d{}: 0x12c-0x12e (2)
0x120|                                    00         |            .   |                tag: "funcidx" (0x0) 0x12c-0x12d (1)
0x120|                                       0d      |             .  |                x: 13 (valid) 0x12d-0x12e (1)
     |                                               |                |            [12]{}: ex 0x12e-0x13f (17)
     |                                               |                |              nm{}: 0x12e-0x13d (15)
0x120|                                          0e   |              . |                n: 14 (valid) 0x12e-0x12f (1)
0x120|                                             61|               a|                b: "as-block-broke" 0x12f-0x13d (14)
0x130|73 2d 62 6c 6f 63 6b 2d 62 72 6f 6b 65         |s-block-broke   |
     |                                               |                |              d{}: 0x13d-0x13f (2)
0x130|                                       00      |             .  |                tag: "funcidx" (0x0) 0x13d-0x13e (1)
0x130|                                          0e   |              . |                x: 14 (valid) 0x13e-0x13f (1)
     |                                               |                |            [13]{}: ex 0x13f-0x14f (16)
     |                                               |                |              nm{}: 0x13f-0x14d (14)
0x130|                                             0d|               .|                n: 13 (valid) 0x13f-0x140 (1)
0x140|61 73 2d 6c 6f 6f 70 2d 66 69 72 73 74         |as-loop-first   |                b: "as-loop-first" 0x140-0x14d (13)
     |                                               |                |              d{}: 0x14d-0x14f (2)
0x140|                                       00      |             .  |                tag: "funcidx" (0x0) 0x14d-0x14e (1)
0x140|                                          0f   |              . |                x: 15 (valid) 0x14e-0x14f (1)
     |                                               |                |            [14]{}: ex 0x14f-0x15d (14)
     |                                               |                |              nm{}: 0x14f-0x15b (12)
0x140|                                             0b|               .|                n: 11 (valid) 0x14f-0x150 (1)
0x150|61 73 2d 6c 6f 6f 70 2d 6d 69 64               |as-loop-mid     |                b: "as-loop-mid" 0x150-0x15b (11)
     |                                               |                |              d{}: 0x15b-0x15d (2)
0x150|                                 00            |           .    |                tag: "funcidx" (0x0) 0x15b-0x15c (1)
0x150|                                    10         |            .   |                x: 16 (valid) 0x15c-0x15d (1)
     |                                               |                |            [15]{}: ex 0x15d-0x16c (15)
     |                                               |                |              nm{}: 0x15d-0x16a (13)
0x150|                                       0c      |             .  |                n: 12 (valid) 0x15d-0x15e (1)
0x150|                                          61 73|              as|                b: "as-loop-last" 0x15e-0x16a (12)
0x160|2d 6c 6f 6f 70 2d 6c 61 73 74                  |-loop-last      |
     |                                               |                |              d{}: 0x16a-0x16c (2)
0x160|                              00               |          .     |                tag: "funcidx" (0x0) 0x16a-0x16b (1)
0x160|                                 11            |           .    |                x: 17 (valid) 0x16b-0x16c (1)
     |                                               |                |            [16]{}: ex 0x16c-0x17c (16)
     |                                               |                |              nm{}: 0x16c-0x17a (14)
0x160|                                    0d         |            .   |                n: 13 (valid) 0x16c-0x16d (1)
0x160|                                       61 73 2d|             as-|                b: "as-loop-broke" 0x16d-0x17a (13)
0x170|6c 6f 6f 70 2d 62 72 6f 6b 65                  |loop-broke      |
     |                                               |                |              d{}: 0x17a-0x17c (2)
0x170|                              00               |          .     |                tag: "funcidx" (0x0) 0x17a-0x17b (1)
0x170|                                 12            |           .    |                x: 18 (valid) 0x17b-0x17c (1)
     |                                               |                |            [17]{}: ex 0x17c-0x18a (14)
     |                                               |                |              nm{}: 0x17c-0x188 (12)
0x170|                                    0b         |            .   |                n: 11 (valid) 0x17c-0x17d (1)
0x170|                                       61 73 2d|             as-|                b: "as-br-value" 0x17d-0x188 (11)
0x180|62 72 2d 76 61 6c 75 65                        |br-value        |
     |                                               |                |              d{}: 0x188-0x18a (2)
0x180|                        00                     |        .       |                tag: "funcidx" (0x0) 0x188-0x189 (1)
0x180|                           13                  |         .      |                x: 19 (valid) 0x189-0x18a (1)
     |                                               |                |            [18]{}: ex 0x18a-0x19a (16)
     |                                               |                |              nm{}: 0x18a-0x198 (14)
0x180|                              0d               |          .     |                n: 13 (valid) 0x18a-0x18b (1)
0x180|                                 61 73 2d 62 72|           as-br|                b: "as-br_if-cond" 0x18b-0x198 (13)
0x190|5f 69 66 2d 63 6f 6e 64                        |_if-cond        |
     |                                               |                |              d{}: 0x198-0x19a (2)
0x190|                        00                     |        .       |                tag: "funcidx" (0x0) 0x198-0x199 (1)
0x190|                           14                  |         .      |                x: 20 (valid) 0x199-0x19a (1)
     |                                               |                |            [19]{}: ex 0x19a-0x1ab (17)
     |                                               |                |              nm{}: 0x19a-0x1a9 (15)
0x190|                              0e               |          .     |                n: 14 (valid) 0x19a-0x19b (1)
0x190|                                 61 73 2d 62 72|           as-br|                b: "as-br_if-value" 0x19b-0x1a9 (14)
0x1a0|5f 69 66 2d 76 61 6c 75 65                     |_if-value       |
     |                                               |                |              d{}: 0x1a9-0x1ab (2)
0x1a0|                           00                  |         .      |                tag: "funcidx" (0x0) 0x1a9-0x1aa (1)
0x1a0|                              15               |          .     |                x: 21 (valid) 0x1aa-0x1ab (1)
     |                                               |                |            [20]{}: ex 0x1ab-0x1c1 (22)
     |                                               |                |              nm{}: 0x1ab-0x1bf (20)
0x1a0|                                 13            |           .    |                n: 19 (valid) 0x1ab-0x1ac (1)
0x1a0|                                    61 73 2d 62|            as-b|                b: "as-br_if-value-cond" 0x1ac-0x1bf (19)
0x1b0|72 5f 69 66 2d 76 61 6c 75 65 2d 63 6f 6e 64   |r_if-value-cond |
     |                                               |                |              d{}: 0x1bf-0x1c1 (2)
0x1b0|                                             00|               .|                tag: "funcidx" (0x0) 0x1bf-0x1c0 (1)
0x1c0|16                                             |.               |                x: 22 (valid) 0x1c0-0x1c1 (1)
     |                                               |                |            [21]{}: ex 0x1c1-0x1d5 (20)
     |                                               |                |              nm{}: 0x1c1-0x1d3 (18)
0x1c0|   11                                          | .              |                n: 17 (valid) 0x1c1-0x1c2 (1)
0x1c0|      61 73 2d 62 72 5f 74 61 62 6c 65 2d 69 6e|  as-br_table-in|                b: "as-br_table-index" 0x1c2-0x1d3 (17)
0x1d0|64 65 78                                       |dex             |
     |                                               |                |              d{}: 0x1d3-0x1d5 (2)
0x1d0|         00                                    |   .            |                tag: "funcidx" (0x0) 0x1d3-0x1d4 (1)
0x1d0|            17                                 |    .           |                x: 23 (valid) 0x1d4-0x1d5 (1)
     |                                               |                |            [22]{}: ex 0x1d5-0x1e9 (20)
     |                                               |                |              nm{}: 0x1d5-0x1e7 (18)
0x1d0|               11                              |     .          |                n: 17 (valid) 0x1d5-0x1d6 (1)
0x1d0|                  61 73 2d 62 72 5f 74 61 62 6c|      as-br_tabl|                b: "as-br_table-value" 0x1d6-0x1e7 (17)
0x1e0|65 2d 76 61 6c 75 65                           |e-value         |
     |                                               |                |              d{}: 0x1e7-0x1e9 (2)
0x1e0|                     00                        |       .        |                tag: "funcidx" (0x0) 0x1e7-0x1e8 (1)
0x1e0|                        18                     |        .       |                x: 24 (valid) 0x1e8-0x1e9 (1)
     |                                               |                |            [23]{}: ex 0x1e9-0x1ff (22)
     |                                               |                |              nm{}: 0x1e9-0x1fd (20)
0x1e0|                           13                  |         .      |                n: 19 (valid) 0x1e9-0x1ea (1)
0x1e0|                              61 73 2d 62 72 5f|          as-br_|                b: "as-br_table-value-2" 0x1ea-0x1fd (19)
0x1f0|74 61 62 6c 65 2d 76 61 6c 75 65 2d 32         |table-value-2   |
     |                                               |                |              d{}: 0x1fd-0x1ff (2)
0x1f0|                                       00      |             .  |                tag: "funcidx" (0x0) 0x1fd-0x1fe (1)
0x1f0|                                          19   |              . |                x: 25 (valid) 0x1fe-0x1ff (1)
     |                                               |                |            [24]{}: ex 0x1ff-0x219 (26)
     |                                               |                |              nm{}: 0x1ff-0x217 (24)
0x1f0|                                             17|               .|                n: 23 (valid) 0x1ff-0x200 (1)
0x200|61 73 2d 62 72 5f 74 61 62 6c 65 2d 76 61 6c 75|as-br_table-valu|                b: "as-br_table-value-index" 0x200-0x217 (23)
0x210|65 2d 69 6e 64 65 78                           |e-index         |
     |                                               |                |              d{}: 0x217-0x219 (2)
0x210|                     00                        |       .        |                tag: "funcidx" (0x0) 0x217-0x218 (1)
0x210|                        1a                     |        .       |                x: 26 (valid) 0x218-0x219 (1)
     |                                               |                |            [25]{}: ex 0x219-0x237 (30)
     |                                               |                |              nm{}: 0x219-0x235 (28)
0x210|                           1b                  |         .      |                n: 27 (valid) 0x219-0x21a (1)
0x210|                              61 73 2d 62 72 5f|          as-br_|                b: "as-br_table-value-and-index" 0x21a-0x235 (27)
0x220|74 61 62 6c 65 2d 76 61 6c 75 65 2d 61 6e 64 2d|table-value-and-|
0x230|69 6e 64 65 78                                 |index           |
     |                                               |                |              d{}: 0x235-0x237 (2)
0x230|               00                              |     .          |                tag: "funcidx" (0x0) 0x235-0x236 (1)
0x230|                  1b                           |      .         |                x: 27 (valid) 0x236-0x237 (1)
     |                                               |                |            [26]{}: ex 0x237-0x249 (18)
     |                                               |                |              nm{}: 0x237-0x247 (16)
0x230|                     0f                        |       .        |                n: 15 (valid) 0x237-0x238 (1)
0x230|                        61 73 2d 72 65 74 75 72|        as-retur|                b: "as-return-value" 0x238-0x247 (15)
0x240|6e 2d 76 61 6c 75 65                           |n-value         |
     |                                               |                |              d{}: 0x247-0x249 (2)
0x240|                     00                        |       .        |                tag: "funcidx" (0x0) 0x247-0x248 (1)
0x240|                        1c                     |        .       |                x: 28 (valid) 0x248-0x249 (1)
     |                                               |                |            [27]{}: ex 0x249-0x256 (13)
     |                                               |                |              nm{}: 0x249-0x254 (11)
0x240|                           0a                  |         .      |                n: 10 (valid) 0x249-0x24a (1)
0x240|                              61 73 2d 69 66 2d|          as-if-|                b: "as-if-cond" 0x24a-0x254 (10)
0x250|63 6f 6e 64                                    |cond            |
     |                                               |                |              d{}: 0x254-0x256 (2)
0x250|            00                                 |    .           |                tag: "funcidx" (0x0) 0x254-0x255 (1)
0x250|               1d                              |     .          |                x: 29 (valid) 0x255-0x256 (1)
     |                                               |                |            [28]{}: ex 0x256-0x263 (13)
     |                                               |                |              nm{}: 0x256-0x261 (11)
0x250|                  0a                           |      .         |                n: 10 (valid) 0x256-0x257 (1)
0x250|                     61 73 2d 69 66 2d 74 68 65|       as-if-the|                b: "as-if-then" 0x257-0x261 (10)
0x260|6e                                             |n               |
     |                                               |                |              d{}: 0x261-0x263 (2)
0x260|   00                                          | .              |                tag: "funcidx" (0x0) 0x261-0x262 (1)
0x260|      1e                                       |  .             |                x: 30 (valid) 0x262-0x263 (1)
     |                                               |                |            [29]{}: ex 0x263-0x270 (13)
     |                                               |                |              nm{}: 0x263-0x26e (11)
0x260|         0a                                    |   .            |                n: 10 (valid) 0x263-0x264 (1)
0x260|            61 73 2d 69 66 2d 65 6c 73 65      |    as-if-else  |                b: "as-if-else" 0x264-0x26e (10)
     |                                               |                |              d{}: 0x26e-0x270 (2)
0x260|                                          00   |              . |                tag: "funcidx" (0x0) 0x26e-0x26f (1)
0x260|                                             1f|               .|                x: 31 (valid) 0x26f-0x270 (1)
     |                                               |                |            [30]{}: ex 0x270-0x285 (21)
     |                                               |                |              nm{}: 0x270-0x283 (19)
0x270|12                                             |.               |                n: 18 (valid) 0x270-0x271 (1)
0x270|   61 73 2d 69 66 2d 74 68 65 6e 2d 6e 6f 2d 65| as-if-then-no-e|                b: "as-if-then-no-else" 0x271-0x283 (18)
0x280|6c 73 65                                       |lse             |
     |                                               |                |              d{}: 0x283-0x285 (2)
0x280|         00                                    |   .            |                tag: "funcidx" (0x0) 0x283-0x284 (1)
0x280|            20                                 |                |                x: 32 (valid) 0x284-0x285 (1)
     |                                               |                |            [31]{}: ex 0x285-0x297 (18)
     |                                               |                |              nm{}: 0x285-0x295 (16)
0x280|               0f                              |     .          |                n: 15 (valid) 0x285-0x286 (1)
0x280|                  61 73 2d 73 65 6c 65 63 74 2d|      as-select-|                b: "as-select-first" 0x286-0x295 (15)
0x290|66 69 72 73 74                                 |first           |
     |                                               |                |              d{}: 0x295-0x297 (2)
0x290|               00                              |     .          |                tag: "funcidx" (0x0) 0x295-0x296 (1)
0x290|                  21                           |      !         |                x: 33 (valid) 0x296-0x297 (1)
     |                                               |                |            [32]{}: ex 0x297-0x2aa (19)
     |                                               |                |              nm{}: 0x297-0x2a8 (17)
0x290|                     10                        |       .        |                n: 16 (valid) 0x297-0x298 (1)
0x290|                        61 73 2d 73 65 6c 65 63|        as-selec|                b: "as-select-second" 0x298-0x2a8 (16)
0x2a0|74 2d 73 65 63 6f 6e 64                        |t-second        |
     |                                               |                |              d{}: 0x2a8-0x2aa (2)
0x2a0|                        00                     |        .       |                tag: "funcidx" (0x0) 0x2a8-0x2a9 (1)
0x2a0|                           22                  |         "      |                x: 34 (valid) 0x2a9-0x2aa (1)
     |                                               |                |            [33]{}: ex 0x2aa-0x2bb (17)
     |                                               |                |              nm{}: 0x2aa-0x2b9 (15)
0x2a0|                              0e               |          .     |                n: 14 (valid) 0x2aa-0x2ab (1)
0x2a0|                                 61 73 2d 73 65|           as-se|                b: "as-select-cond" 0x2ab-0x2b9 (14)
0x2b0|6c 65 63 74 2d 63 6f 6e 64                     |lect-cond       |
     |                                               |                |              d{}: 0x2b9-0x2bb (2)
0x2b0|                           00                  |         .      |                tag: "funcidx" (0x0) 0x2b9-0x2ba (1)
0x2b0|                              23               |          #     |                x: 35 (valid) 0x2ba-0x2bb (1)
     |                                               |                |            [34]{}: ex 0x2bb-0x2cb (16)
     |                                               |                |              nm{}: 0x2bb-0x2c9 (14)
0x2b0|                                 0d            |           .    |                n: 13 (valid) 0x2bb-0x2bc (1)
0x2b0|                                    61 73 2d 63|            as-c|                b: "as-call-first" 0x2bc-0x2c9 (13)
0x2c0|61 6c 6c 2d 66 69 72 73 74                     |all-first       |
     |                                               |                |              d{}: 0x2c9-0x2cb (2)
0x2c0|                           00                  |         .      |                tag: "funcidx" (0x0) 0x2c9-0x2ca (1)
0x2c0|                              24               |          $     |                x: 36 (valid) 0x2ca-0x2cb (1)
     |                                               |                |            [35]{}: ex 0x2cb-0x2d9 (14)
     |                                               |                |              nm{}: 0x2cb-0x2d7 (12)
0x2c0|                                 0b            |           .    |                n: 11 (valid) 0x2cb-0x2cc (1)
0x2c0|                                    61 73 2d 63|            as-c|                b: "as-call-mid" 0x2cc-0x2d7 (11)
0x2d0|61 6c 6c 2d 6d 69 64                           |all-mid         |
     |                                               |                |              d{}: 0x2d7-0x2d9 (2)
0x2d0|                     00                        |       .        |                tag: "funcidx" (0x0) 0x2d7-0x2d8 (1)
0x2d0|                        25                     |        %       |                x: 37 (valid) 0x2d8-0x2d9 (1)
     |                                               |                |            [36]{}: ex 0x2d9-0x2e8 (15)
     |                                               |                |              nm{}: 0x2d9-0x2e6 (13)
0x2d0|                           0c                  |         .      |                n: 12 (valid) 0x2d9-0x2da (1)
0x2d0|                              61 73 2d 63 61 6c|          as-cal|                b: "as-call-last" 0x2da-0x2e6 (12)
0x2e0|6c 2d 6c 61 73 74                              |l-last          |
     |                                               |                |              d{}: 0x2e6-0x2e8 (2)
0x2e0|                  00                           |      .         |                tag: "funcidx" (0x0) 0x2e6-0x2e7 (1)
0x2e0|                     26                        |       &        |                x: 38 (valid) 0x2e7-0x2e8 (1)
     |                                               |                |            [37]{}: ex 0x2e8-0x300 (24)
     |                                               |                |              nm{}: 0x2e8-0x2fe (22)
0x2e0|                        15                     |        .       |                n: 21 (valid) 0x2e8-0x2e9 (1)
0x2e0|                           61 73 2d 63 61 6c 6c|         as-call|                b: "as-call_indirect-func" 0x2e9-0x2fe (21)
0x2f0|5f 69 6e 64 69 72 65 63 74 2d 66 75 6e 63      |_indirect-func  |
     |                                               |                |              d{}: 0x2fe-0x300 (2)
0x2f0|                                          00   |              . |                tag: "funcidx" (0x0) 0x2fe-0x2ff (1)
0x2f0|                                             27|               '|                x: 39 (valid) 0x2ff-0x300 (1)
     |                                               |                |            [38]{}: ex 0x300-0x319 (25)
     |                                               |                |              nm{}: 0x300-0x317 (23)
0x300|16                                             |.               |                n: 22 (valid) 0x300-0x301 (1)
0x300|   61 73 2d 63 61 6c 6c 5f 69 6e 64 69 72 65 63| as-call_indirec|                b: "as-call_indirect-first" 0x301-0x317 (22)
0x310|74 2d 66 69 72 73 74                           |t-first         |
     |                                               |                |              d{}: 0x317-0x319 (2)
0x310|                     00                        |       .        |                tag: "funcidx" (0x0) 0x317-0x318 (1)
0x310|                        28                     |        (       |                x: 40 (valid) 0x318-0x319 (1)
     |                                               |                |            [39]{}: ex 0x319-0x330 (23)
     |                                               |                |              nm{}: 0x319-0x32e (21)
0x310|                           14                  |         .      |                n: 20 (valid) 0x319-0x31a (1)
0x310|                              61 73 2d 63 61 6c|          as-cal|                b: "as-call_indirect-mid" 0x31a-0x32e (20)
0x320|6c 5f 69 6e 64 69 72 65 63 74 2d 6d 69 64      |l_indirect-mid  |
     |                                               |                |              d{}: 0x32e-0x330 (2)
0x320|                                          00   |              . |                tag: "funcidx" (0x0) 0x32e-0x32f (1)
0x320|                                             29|               )|                x: 41 (valid) 0x32f-0x330 (1)
     |                                               |                |            [40]{}: ex 0x330-0x348 (24)
     |                                               |                |              nm{}: 0x330-0x346 (22)
0x330|15                                             |.               |                n: 21 (valid) 0x330-0x331 (1)
0x330|   61 73 2d 63 61 6c 6c 5f 69 6e 64 69 72 65 63| as-call_indirec|                b: "as-call_indirect-last" 0x331-0x346 (21)
0x340|74 2d 6c 61 73 74                              |t-last          |
     |                                               |                |              d{}: 0x346-0x348 (2)
0x340|                  00                           |      .         |                tag: "funcidx" (0x0) 0x346-0x347 (1)
0x340|                     2a                        |       *        |                x: 42 (valid) 0x347-0x348 (1)
     |                                               |                |            [41]{}: ex 0x348-0x35d (21)
     |                                               |                |              nm{}: 0x348-0x35b (19)
0x340|                        12                     |        .       |                n: 18 (valid) 0x348-0x349 (1)
0x340|                           61 73 2d 6c 6f 63 61|         as-loca|                b: "as-local.set-value" 0x349-0x35b (18)
0x350|6c 2e 73 65 74 2d 76 61 6c 75 65               |l.set-value     |
     |                                               |                |              d{}: 0x35b-0x35d (2)
0x350|                                 00            |           .    |                tag: "funcidx" (0x0) 0x35b-0x35c (1)
0x350|                                    2b         |            +   |                x: 43 (valid) 0x35c-0x35d (1)
     |                                               |                |            [42]{}: ex 0x35d-0x372 (21)
     |                                               |                |              nm{}: 0x35d-0x370 (19)
0x350|                                       12      |             .  |                n: 18 (valid) 0x35d-0x35e (1)
0x350|                                          61 73|              as|                b: "as-local.tee-value" 0x35e-0x370 (18)
0x360|2d 6c 6f 63 61 6c 2e 74 65 65 2d 76 61 6c 75 65|-local.tee-value|
     |                                               |                |              d{}: 0x370-0x372 (2)
0x370|00                                             |.               |                tag: "funcidx" (0x0) 0x370-0x371 (1)
0x370|   2c                                          | ,              |                x: 44 (valid) 0x371-0x372 (1)
     |                                               |                |            [43]{}: ex 0x372-0x388 (22)
     |                                               |                |              nm{}: 0x372-0x386 (20)
0x370|      13                                       |  .             |                n: 19 (valid) 0x372-0x373 (1)
0x370|         61 73 2d 67 6c 6f 62 61 6c 2e 73 65 74|   as-global.set|                b: "as-global.set-value" 0x373-0x386 (19)
0x380|2d 76 61 6c 75 65                              |-value          |
     |                                               |                |              d{}: 0x386-0x388 (2)
0x380|                  00                           |      .         |                tag: "funcidx" (0x0) 0x386-0x387 (1)
0x380|                     2d                        |       -        |                x: 45 (valid) 0x387-0x388 (1)
     |                                               |                |            [44]{}: ex 0x388-0x39a (18)
     |                                               |                |              nm{}: 0x388-0x398 (16)
0x380|                        0f                     |        .       |                n: 15 (valid) 0x388-0x389 (1)
0x380|                           61 73 2d 6c 6f 61 64|         as-load|                b: "as-load-address" 0x389-0x398 (15)
0x390|2d 61 64 64 72 65 73 73                        |-address        |
     |                                               |                |              d{}: 0x398-0x39a (2)
0x390|                        00                     |        .       |                tag: "funcidx" (0x0) 0x398-0x399 (1)
0x390|                           2e                  |         .      |                x: 46 (valid) 0x399-0x39a (1)
     |                                               |                |            [45]{}: ex 0x39a-0x3ad (19)
     |                                               |                |              nm{}: 0x39a-0x3ab (17)
0x390|                              10               |          .     |                n: 16 (valid) 0x39a-0x39b (1)
0x390|                                 61 73 2d 6c 6f|           as-lo|                b: "as-loadN-address" 0x39b-0x3ab (16)
0x3a0|61 64 4e 2d 61 64 64 72 65 73 73               |adN-address     |
     |                                               |                |              d{}: 0x3ab-0x3ad (2)
0x3a0|                                 00            |           .    |                tag: "funcidx" (0x0) 0x3ab-0x3ac (1)
0x3a0|                                    2f         |            /   |                x: 47 (valid) 0x3ac-0x3ad (1)
     |                                               |                |            [46]{}: ex 0x3ad-0x3c0 (19)
     |                                               |                |              nm{}: 0x3ad-0x3be (17)
0x3a0|                                       10      |             .  |                n: 16 (valid) 0x3ad-0x3ae (1)
0x3a0|                                          61 73|              as|                b: "as-store-address" 0x3ae-0x3be (16)
0x3b0|2d 73 74 6f 72 65 2d 61 64 64 72 65 73 73      |-store-address  |
     |                                               |                |              d{}: 0x3be-0x3c0 (2)
0x3b0|                                          00   |              . |                tag: "funcidx" (0x0) 0x3be-0x3bf (1)
0x3b0|                                             30|               0|                x: 48 (valid) 0x3bf-0x3c0 (1)
     |                                               |                |            [47]{}: ex 0x3c0-0x3d1 (17)
     |                                               |                |              nm{}: 0x3c0-0x3cf (15)
0x3c0|0e                                             |.               |                n: 14 (valid) 0x3c0-0x3c1 (1)
0x3c0|   61 73 2d 73 74 6f 72 65 2d 76 61 6c 75 65   | as-store-value |                b: "as-store-value" 0x3c1-0x3cf (14)
     |                                               |                |              d{}: 0x3cf-0x3d1 (2)
0x3c0|                                             00|               .|                tag: "funcidx" (0x0) 0x3cf-0x3d0 (1)
0x3d0|31                                             |1               |                x: 49 (valid) 0x3d0-0x3d1 (1)
     |                                               |                |            [48]{}: ex 0x3d1-0x3e5 (20)
     |                                               |                |              nm{}: 0x3d1-0x3e3 (18)
0x3d0|   11                                          | .              |                n: 17 (valid) 0x3d1-0x3d2 (1)
0x3d0|      61 73 2d 73 74 6f 72 65 4e 2d 61 64 64 72|  as-storeN-addr|                b: "as-storeN-address" 0x3d2-0x3e3 (17)
0x3e0|65 73 73                                       |ess             |
     |                                               |                |              d{}: 0x3e3-0x3e5 (2)
0x3e0|         00                                    |   .            |                tag: "funcidx" (0x0) 0x3e3-0x3e4 (1)
0x3e0|            32                                 |    2           |                x: 50 (valid) 0x3e4-0x3e5 (1)
     |                                               |                |            [49]{}: ex 0x3e5-0x3f7 (18)
     |                                               |                |              nm{}: 0x3e5-0x3f5 (16)
0x3e0|               0f                              |     .          |                n: 15 (valid) 0x3e5-0x3e6 (1)
0x3e0|                  61 73 2d 73 74 6f 72 65 4e 2d|      as-storeN-|                b: "as-storeN-value" 0x3e6-0x3f5 (15)
0x3f0|76 61 6c 75 65                                 |value           |
     |                                               |                |              d{}: 0x3f5-0x3f7 (2)
0x3f0|               00                              |     .          |                tag: "funcidx" (0x0) 0x3f5-0x3f6 (1)
0x3f0|                  33                           |      3         |                x: 51 (valid) 0x3f6-0x3f7 (1)
     |                                               |                |            [50]{}: ex 0x3f7-0x40a (19)
     |                                               |                |              nm{}: 0x3f7-0x408 (17)
0x3f0|                     10                        |       .        |                n: 16 (valid) 0x3f7-0x3f8 (1)
0x3f0|                        61 73 2d 75 6e 61 72 79|        as-unary|                b: "as-unary-operand" 0x3f8-0x408 (16)
0x400|2d 6f 70 65 72 61 6e 64                        |-operand        |
     |                                               |                |              d{}: 0x408-0x40a (2)
0x400|                        00                     |        .       |                tag: "funcidx" (0x0) 0x408-0x409 (1)
0x400|                           34                  |         4      |                x: 52 (valid) 0x409-0x40a (1)
     |                                               |                |            [51]{}: ex 0x40a-0x41b (17)
     |                                               |                |              nm{}: 0x40a-0x419 (15)
0x400|                              0e               |          .     |                n: 14 (valid) 0x40a-0x40b (1)
0x400|                                 61 73 2d 62 69|           as-bi|                b: "as-binary-left" 0x40b-0x419 (14)
0x410|6e 61 72 79 2d 6c 65 66 74                     |nary-left       |
     |                                               |                |              d{}: 0x419-0x41b (2)
0x410|                           00                  |         .      |                tag: "funcidx" (0x0) 0x419-0x41a (1)
0x410|                              35               |          5     |                x: 53 (valid) 0x41a-0x41b (1)
     |                                               |                |            [52]{}: ex 0x41b-0x42d (18)
     |                                               |                |              nm{}: 0x41b-0x42b (16)
0x410|                                 0f            |           .    |                n: 15 (valid) 0x41b-0x41c (1)
0x410|                                    61 73 2d 62|            as-b|                b: "as-binary-right" 0x41c-0x42b (15)
0x420|69 6e 61 72 79 2d 72 69 67 68 74               |inary-right     |
     |                                               |                |              d{}: 0x42b-0x42d (2)
0x420|                                 00            |           .    |                tag: "funcidx" (0x0) 0x42b-0x42c (1)
0x420|                                    36         |            6   |                x: 54 (valid) 0x42c-0x42d (1)
     |                                               |                |            [53]{}: ex 0x42d-0x43f (18)
     |                                               |                |              nm{}: 0x42d-0x43d (16)
0x420|                                       0f      |             .  |                n: 15 (valid) 0x42d-0x42e (1)
0x420|                                          61 73|              as|                b: "as-test-operand" 0x42e-0x43d (15)
0x430|2d 74 65 73 74 2d 6f 70 65 72 61 6e 64         |-test-operand   |
     |                                               |                |              d{}: 0x43d-0x43f (2)
0x430|                                       00      |             .  |                tag: "funcidx" (0x0) 0x43d-0x43e (1)
0x430|                                          37   |              7 |                x: 55 (valid) 0x43e-0x43f (1)
     |                                               |                |            [54]{}: ex 0x43f-0x451 (18)
     |                                               |                |              nm{}: 0x43f-0x44f (16)
0x430|                                             0f|               .|                n: 15 (valid) 0x43f-0x440 (1)
0x440|61 73 2d 63 6f 6d 70 61 72 65 2d 6c 65 66 74   |as-compare-left |                b: "as-compare-left" 0x440-0x44f (15)
     |                                               |                |              d{}: 0x44f-0x451 (2)
0x440|                                             00|               .|                tag: "funcidx" (0x0) 0x44f-0x450 (1)
0x450|38                                             |8               |                x: 56 (valid) 0x450-0x451 (1)
     |                                               |                |            [55]{}: ex 0x451-0x464 (19)
     |                                               |                |              nm{}: 0x451-0x462 (17)
0x450|   10                                          | .              |                n: 16 (valid) 0x451-0x452 (1)
0x450|      61 73 2d 63 6f 6d 70 61 72 65 2d 72 69 67|  as-compare-rig|                b: "as-compare-right" 0x452-0x462 (16)
0x460|68 74                                          |ht              |
     |                                               |                |              d{}: 0x462-0x464 (2)
0x460|      00                                       |  .             |                tag: "funcidx" (0x0) 0x462-0x463 (1)
0x460|         39                                    |   9            |                x: 57 (valid) 0x463-0x464 (1)
     |                                               |                |            [56]{}: ex 0x464-0x479 (21)
     |                                               |                |              nm{}: 0x464-0x477 (19)
0x460|            12                                 |    .           |                n: 18 (valid) 0x464-0x465 (1)
0x460|               61 73 2d 63 6f 6e 76 65 72 74 2d|     as-convert-|                b: "as-convert-operand" 0x465-0x477 (18)
0x470|6f 70 65 72 61 6e 64                           |operand         |
     |                                               |                |              d{}: 0x477-0x479 (2)
0x470|                     00                        |       .        |                tag: "funcidx" (0x0) 0x477-0x478 (1)
0x470|                        3a                     |        :       |                x: 58 (valid) 0x478-0x479 (1)
     |                                               |                |            [57]{}: ex 0x479-0x48f (22)
     |                                               |                |              nm{}: 0x479-0x48d (20)
0x470|                           13                  |         .      |                n: 19 (valid) 0x479-0x47a (1)
0x470|                              61 73 2d 6d 65 6d|          as-mem|                b: "as-memory.grow-size" 0x47a-0x48d (19)
0x480|6f 72 79 2e 67 72 6f 77 2d 73 69 7a 65         |ory.grow-size   |
     |                                               |                |              d{}: 0x48d-0x48f (2)
0x480|                                       00      |             .  |                tag: "funcidx" (0x0) 0x48d-0x48e (1)
0x480|                                          3b   |              ; |                x: 59 (valid) 0x48e-0x48f (1)
     |                                               |                |    [6]{}: section 0x48f-0x498 (9)
0x480|                                             09|               .|      id: "element_section" (9) 0x48f-0x490 (1)
0x490|07                                             |.               |      size: 7 (valid) 0x490-0x491 (1)
     |                                               |                |      element{}: 0x491-0x498 (7)
     |                                               |                |        seg{}: 0x491-0x498 (7)
0x490|   01                                          | .              |          n: 1 (valid) 0x491-0x492 (1)
     |                                               |                |          x[0:1]: 0x492-0x498 (6)
     |                                               |                |            [0]{}: seg 0x492-0x498 (6)
0x490|      00                                       |  .             |              tag: 0 (valid) 0x492-0x493 (1)
     |                                               |                |              e[0:2]: 0x493-0x496 (3)
     |                                               |                |                [0]{}: in 0x493-0x495 (2)
0x490|         41                                    |   A            |                  opcode: "i32.const" (0x41) 0x493-0x494 (1)
0x490|            00                                 |    .           |                  n: 0 (valid) 0x494-0x495 (1)
     |                                               |                |                [1]{}: in 0x495-0x496 (1)
0x490|               0b                              |     .          |                  opcode: "end" (0xb) 0x495-0x496 (1)
     |                                               |                |              y{}: 0x496-0x498 (2)
0x490|                  01                           |      .         |                n: 1 (valid) 0x496-0x497 (1)
     |                                               |                |                x[0:1]: 0x497-0x498 (1)
0x490|                     01                        |       .        |                  [0]: 1 y (valid) 0x497-0x498 (1)
     |                                               |                |    [7]{}: section 0x498-0x6d0 (568)
0x490|                        0a                     |        .       |      id: "code_section" (10) 0x498-0x499 (1)
0x490|                           b5 04               |         ..     |      size: 565 (valid) 0x499-0x49b (2)
     |                                               |                |      content{}: 0x49b-0x6d0 (565)
     |                                               |                |        code{}: 0x49b-0x6d0 (565)
0x490|                                 3c            |           <    |          n: 60 (valid) 0x49b-0x49c (1)
     |                                               |                |          x[0:60]: 0x49c-0x6d0 (564)
     |                                               |                |            [0]{}: code 0x49c-0x49f (3)
0x490|                                    02         |            .   |              size: 2 (valid) 0x49c-0x49d (1)
     |                                               |                |              code{}: 0x49d-0x49f (2)
     |                                               |                |                t{}: 0x49d-0x49e (1)
0x490|                                       00      |             .  |                  n: 0 (valid) 0x49d-0x49e (1)
     |                                               |                |                  x[0:0]: 0x49e-0x49e (0)
     |                                               |                |                e[0:1]: 0x49e-0x49f (1)
     |                                               |                |                  [0]{}: in 0x49e-0x49f (1)
0x490|                                          0b   |              . |                    opcode: "end" (0xb) 0x49e-0x49f (1)
     |                                               |                |            [1]{}: code 0x49f-0x4a2 (3)
0x490|                                             02|               .|              size: 2 (valid) 0x49f-0x4a0 (1)
     |                                               |                |              code{}: 0x4a0-0x4a2 (2)
     |                                               |                |                t{}: 0x4a0-0x4a1 (1)
0x4a0|00                                             |.               |                  n: 0 (valid) 0x4a0-0x4a1 (1)
     |                                               |                |                  x[0:0]: 0x4a1-0x4a1 (0)
     |                                               |                |                e[0:1]: 0x4a1-0x4a2 (1)
     |                                               |                |                  [0]{}: in 0x4a1-0x4a2 (1)
0x4a0|   0b                                          | .              |                    opcode: "end" (0xb) 0x4a1-0x4a2 (1)
     |                                               |                |            [2]{}: code 0x4a2-0x4a6 (4)
0x4a0|      03                                       |  .             |              size: 3 (valid) 0x4a2-0x4a3 (1)
     |                                               |                |              code{}: 0x4a3-0x4a6 (3)
     |                                               |                |                t{}: 0x4a3-0x4a4 (1)
0x4a0|         00                                    |   .            |                  n: 0 (valid) 0x4a3-0x4a4 (1)
     |                                               |                |                  x[0:0]: 0x4a4-0x4a4 (0)
     |                                               |                |                e[0:2]: 0x4a4-0x4a6 (2)
     |                                               |                |                  [0]{}: in 0x4a4-0x4a5 (1)
0x4a0|            00                                 |    .           |                    opcode: "unreachable" (0x0) 0x4a4-0x4a5 (1)
     |                                               |                |                  [1]{}: in 0x4a5-0x4a6 (1)
0x4a0|               0b                              |     .          |                    opcode: "end" (0xb) 0x4a5-0x4a6 (1)
     |                                               |                |            [3]{}: code 0x4a6-0x4aa (4)
0x4a0|                  03                           |      .         |              size: 3 (valid) 0x4a6-0x4a7 (1)
     |                                               |                |              code{}: 0x4a7-0x4aa (3)
     |                                               |                |                t{}: 0x4a7-0x4a8 (1)
0x4a0|                     00                        |       .        |                  n: 0 (valid) 0x4a7-0x4a8 (1)
     |                                               |                |                  x[0:0]: 0x4a8-0x4a8 (0)
     |                                               |                |                e[0:2]: 0x4a8-0x4aa (2)
     |                                               |                |                  [0]{}: in 0x4a8-0x4a9 (1)
0x4a0|                        00                     |        .       |                    opcode: "unreachable" (0x0) 0x4a8-0x4a9 (1)
     |                                               |                |                  [1]{}: in 0x4a9-0x4aa (1)
0x4a0|                           0b                  |         .      |                    opcode: "end" (0xb) 0x4a9-0x4aa (1)
     |                                               |                |            [4]{}: code 0x4aa-0x4ae (4)
0x4a0|                              03               |          .     |              size: 3 (valid) 0x4aa-0x4ab (1)
     |                                               |                |              code{}: 0x4ab-0x4ae (3)
     |                                               |                |                t{}: 0x4ab-0x4ac (1)
0x4a0|                                 00            |           .    |                  n: 0 (valid) 0x4ab-0x4ac (1)
     |                                               |                |                  x[0:0]: 0x4ac-0x4ac (0)
     |                                               |                |                e[0:2]: 0x4ac-0x4ae (2)
     |                                               |                |                  [0]{}: in 0x4ac-0x4ad (1)
0x4a0|                                    00         |            .   |                    opcode: "unreachable" (0x0) 0x4ac-0x4ad (1)
     |                                               |                |                  [1]{}: in 0x4ad-0x4ae (1)
0x4a0|                                       0b      |             .  |                    opcode: "end" (0xb) 0x4ad-0x4ae (1)
     |                                               |                |            [5]{}: code 0x4ae-0x4b2 (4)
0x4a0|                                          03   |              . |              size: 3 (valid) 0x4ae-0x4af (1)
     |                                               |                |              code{}: 0x4af-0x4b2 (3)
     |                                               |                |                t{}: 0x4af-0x4b0 (1)
0x4a0|                                             00|               .|                  n: 0 (valid) 0x4af-0x4b0 (1)
     |                                               |                |                  x[0:0]: 0x4b0-0x4b0 (0)
     |                                               |                |                e[0:2]: 0x4b0-0x4b2 (2)
     |                                               |                |                  [0]{}: in 0x4b0-0x4b1 (1)
0x4b0|00                                             |.               |                    opcode: "unreachable" (0x0) 0x4b0-0x4b1 (1)
     |                                               |                |                  [1]{}: in 0x4b1-0x4b2 (1)
0x4b0|   0b                                          | .              |                    opcode: "end" (0xb) 0x4b1-0x4b2 (1)
     |                                               |                |            [6]{}: code 0x4b2-0x4b8 (6)
0x4b0|      05                                       |  .             |              size: 5 (valid) 0x4b2-0x4b3 (1)
     |                                               |                |              code{}: 0x4b3-0x4b8 (5)
     |                                               |                |                t{}: 0x4b3-0x4b4 (1)
0x4b0|         00                                    |   .            |                  n: 0 (valid) 0x4b3-0x4b4 (1)
     |                                               |                |                  x[0:0]: 0x4b4-0x4b4 (0)
     |                                               |                |                e[0:3]: 0x4b4-0x4b8 (4)
     |                                               |                |                  [0]{}: in 0x4b4-0x4b5 (1)
0x4b0|            00                                 |    .           |                    opcode: "unreachable" (0x0) 0x4b4-0x4b5 (1)
     |                                               |                |                  [1]{}: in 0x4b5-0x4b7 (2)
0x4b0|               41                              |     A          |                    opcode: "i32.const" (0x41) 0x4b5-0x4b6 (1)
0x4b0|                  7f                           |      .         |                    n: -1 (valid) 0x4b6-0x4b7 (1)
     |                                               |                |                  [2]{}: in 0x4b7-0x4b8 (1)
0x4b0|                     0b                        |       .        |                    opcode: "end" (0xb) 0x4b7-0x4b8 (1)
     |                                               |                |            [7]{}: code 0x4b8-0x4c0 (8)
0x4b0|                        07                     |        .       |              size: 7 (valid) 0x4b8-0x4b9 (1)
     |                                               |                |              code{}: 0x4b9-0x4c0 (7)
     |                                               |                |                t{}: 0x4b9-0x4ba (1)
0x4b0|                           00                  |         .      |                  n: 0 (valid) 0x4b9-0x4ba (1)
     |                                               |                |                  x[0:0]: 0x4ba-0x4ba (0)
     |                                               |                |                e[0:4]: 0x4ba-0x4c0 (6)
     |                                               |                |                  [0]{}: in 0x4ba-0x4bc (2)
0x4b0|                              10               |          .     |                    opcode: "call" (0x10) 0x4ba-0x4bb (1)
0x4b0|                                 00            |           .    |                    x: 0 (valid) 0x4bb-0x4bc (1)
     |                                               |                |                  [1]{}: in 0x4bc-0x4bd (1)
0x4b0|                                    00         |            .   |                    opcode: "unreachable" (0x0) 0x4bc-0x4bd (1)
     |                                               |                |                  [2]{}: in 0x4bd-0x4bf (2)
0x4b0|                                       41      |             A  |                    opcode: "i32.const" (0x41) 0x4bd-0x4be (1)
0x4b0|                                          7f   |              . |                    n: -1 (valid) 0x4be-0x4bf (1)
     |                                               |                |                  [3]{}: in 0x4bf-0x4c0 (1)
0x4b0|                                             0b|               .|                    opcode: "end" (0xb) 0x4bf-0x4c0 (1)
     |                                               |                |            [8]{}: code 0x4c0-0x4c6 (6)
0x4c0|05                                             |.               |              size: 5 (valid) 0x4c0-0x4c1 (1)
     |                                               |                |              code{}: 0x4c1-0x4c6 (5)
     |                                               |                |                t{}: 0x4c1-0x4c2 (1)
0x4c0|   00                                          | .              |                  n: 0 (valid) 0x4c1-0x4c2 (1)
     |                                               |                |                  x[0:0]: 0x4c2-0x4c2 (0)
     |                                               |                |                e[0:3]: 0x4c2-0x4c6 (4)
     |                                               |                |                  [0]{}: in 0x4c2-0x4c4 (2)
0x4c0|      10                                       |  .             |                    opcode: "call" (0x10) 0x4c2-0x4c3 (1)
0x4c0|         00                                    |   .            |                    x: 0 (valid) 0x4c3-0x4c4 (1)
     |                                               |                |                  [1]{}: in 0x4c4-0x4c5 (1)
0x4c0|            00                                 |    .           |                    opcode: "unreachable" (0x0) 0x4c4-0x4c5 (1)
     |                                               |                |                  [2]{}: in 0x4c5-0x4c6 (1)
0x4c0|               0b                              |     .          |                    opcode: "end" (0xb) 0x4c5-0x4c6 (1)
     |                                               |                |            [9]{}: code 0x4c6-0x4cc (6)
0x4c0|                  05                           |      .         |              size: 5 (valid) 0x4c6-0x4c7 (1)
     |                                               |                |              code{}: 0x4c7-0x4cc (5)
     |                                               |                |                t{}: 0x4c7-0x4c8 (1)
0x4c0|                     00                        |       .        |                  n: 0 (valid) 0x4c7-0x4c8 (1)
     |                                               |                |                  x[0:0]: 0x4c8-0x4c8 (0)
     |                                               |                |                e[0:3]: 0x4c8-0x4cc (4)
     |                                               |                |                  [0]{}: in 0x4c8-0x4ca (2)
0x4c0|                        10                     |        .       |                    opcode: "call" (0x10) 0x4c8-0x4c9 (1)
0x4c0|                           00                  |         .      |                    x: 0 (valid) 0x4c9-0x4ca (1)
     |                                               |                |                  [1]{}: in 0x4ca-0x4cb (1)
0x4c0|                              00               |          .     |                    opcode: "unreachable" (0x0) 0x4ca-0x4cb (1)
     |                                               |                |                  [2]{}: in 0x4cb-0x4cc (1)
0x4c0|                                 0b            |           .    |                    opcode: "end" (0xb) 0x4cb-0x4cc (1)
     |                                               |                |            [10]{}: code 0x4cc-0x4d5 (9)
0x4c0|                                    08         |            .   |              size: 8 (valid) 0x4cc-0x4cd (1)
     |                                               |                |              code{}: 0x4cd-0x4d5 (8)
     |                                               |                |                t{}: 0x4cd-0x4ce (1)
0x4c0|                                       00      |             .  |                  n: 0 (valid) 0x4cd-0x4ce (1)
     |                                               |                |                  x[0:0]: 0x4ce-0x4ce (0)
     |                                               |                |                e[0:2]: 0x4ce-0x4d5 (7)
     |                                               |                |                  [0]{}: in 0x4ce-0x4d4 (6)
0x4c0|                                          02   |              . |                    opcode: "block" (0x2) 0x4ce-0x4cf (1)
0x4c0|                                             7f|               .|                    bt: "i32" (127) 0x4cf-0x4d0 (1)
     |                                               |                |                    instructions[0:2]: 0x4d0-0x4d3 (3)
     |                                               |                |                      [0]{}: instr 0x4d0-0x4d1 (1)
0x4d0|00                                             |.               |                        opcode: "unreachable" (0x0) 0x4d0-0x4d1 (1)
     |                                               |                |                      [1]{}: instr 0x4d1-0x4d3 (2)
0x4d0|   41                                          | A              |                        opcode: "i32.const" (0x41) 0x4d1-0x4d2 (1)
0x4d0|      02                                       |  .             |                        n: 2 (valid) 0x4d2-0x4d3 (1)
0x4d0|         0b                                    |   .            |                    end: 0xb (valid) 0x4d3-0x4d4 (1)
     |                                               |                |                  [1]{}: in 0x4d4-0x4d5 (1)
0x4d0|            0b                                 |    .           |                    opcode: "end" (0xb) 0x4d4-0x4d5 (1)
     |                                               |                |            [11]{}: code 0x4d5-0x4e0 (11)
0x4d0|               0a                              |     .          |              size: 10 (valid) 0x4d5-0x4d6 (1)
     |                                               |                |              code{}: 0x4d6-0x4e0 (10)
     |                                               |                |                t{}: 0x4d6-0x4d7 (1)
0x4d0|                  00                           |      .         |                  n: 0 (valid) 0x4d6-0x4d7 (1)
     |                                               |                |                  x[0:0]: 0x4d7-0x4d7 (0)
     |                                               |                |                e[0:2]: 0x4d7-0x4e0 (9)
     |                                               |                |                  [0]{}: in 0x4d7-0x4df (8)
0x4d0|                     02                        |       .        |                    opcode: "block" (0x2) 0x4d7-0x4d8 (1)
0x4d0|                        7f                     |        .       |                    bt: "i32" (127) 0x4d8-0x4d9 (1)
     |                                               |                |                    instructions[0:3]: 0x4d9-0x4de (5)
     |                                               |                |                      [0]{}: instr 0x4d9-0x4db (2)
0x4d0|                           10                  |         .      |                        opcode: "call" (0x10) 0x4d9-0x4da (1)
0x4d0|                              00               |          .     |                        x: 0 (valid) 0x4da-0x4db (1)
     |                                               |                |                      [1]{}: instr 0x4db-0x4dc (1)
0x4d0|                                 00            |           .    |                        opcode: "unreachable" (0x0) 0x4db-0x4dc (1)
     |                                               |                |                      [2]{}: instr 0x4dc-0x4de (2)
0x4d0|                                    41         |            A   |                        opcode: "i32.const" (0x41) 0x4dc-0x4dd (1)
0x4d0|                                       02      |             .  |                        n: 2 (valid) 0x4dd-0x4de (1)
0x4d0|                                          0b   |              . |                    end: 0xb (valid) 0x4de-0x4df (1)
     |                                               |                |                  [1]{}: in 0x4df-0x4e0 (1)
0x4d0|                                             0b|               .|                    opcode: "end" (0xb) 0x4df-0x4e0 (1)
     |                                               |                |            [12]{}: code 0x4e0-0x4ea (10)
0x4e0|09                                             |.               |              size: 9 (valid) 0x4e0-0x4e1 (1)
     |                                               |                |              code{}: 0x4e1-0x4ea (9)
     |                                               |                |                t{}: 0x4e1-0x4e2 (1)
0x4e0|   00                                          | .              |                  n: 0 (valid) 0x4e1-0x4e2 (1)
     |                                               |                |                  x[0:0]: 0x4e2-0x4e2 (0)
     |                                               |                |                e[0:2]: 0x4e2-0x4ea (8)
     |                                               |                |                  [0]{}: in 0x4e2-0x4e9 (7)
0x4e0|      02                                       |  .             |                    opcode: "block" (0x2) 0x4e2-0x4e3 (1)
0x4e0|         40                                    |   @            |                    bt: "ε" (64) 0x4e3-0x4e4 (1)
     |                                               |                |                    instructions[0:3]: 0x4e4-0x4e8 (4)
     |                                               |                |                      [0]{}: instr 0x4e4-0x4e5 (1)
0x4e0|            01                                 |    .           |                        opcode: "nop" (0x1) 0x4e4-0x4e5 (1)
     |                                               |                |                      [1]{}: instr 0x4e5-0x4e7 (2)
0x4e0|               10                              |     .          |                        opcode: "call" (0x10) 0x4e5-0x4e6 (1)
0x4e0|                  00                           |      .         |                        x: 0 (valid) 0x4e6-0x4e7 (1)
     |                                               |                |                      [2]{}: instr 0x4e7-0x4e8 (1)
0x4e0|                     00                        |       .        |                        opcode: "unreachable" (0x0) 0x4e7-0x4e8 (1)
0x4e0|                        0b                     |        .       |                    end: 0xb (valid) 0x4e8-0x4e9 (1)
     |                                               |                |                  [1]{}: in 0x4e9-0x4ea (1)
0x4e0|                           0b                  |         .      |                    opcode: "end" (0xb) 0x4e9-0x4ea (1)
     |                                               |                |            [13]{}: code 0x4ea-0x4f4 (10)
0x4e0|                              09               |          .     |              size: 9 (valid) 0x4ea-0x4eb (1)
     |                                               |                |              code{}: 0x4eb-0x4f4 (9)
     |                                               |                |                t{}: 0x4eb-0x4ec (1)
0x4e0|                                 00            |           .    |                  n: 0 (valid) 0x4eb-0x4ec (1)
     |                                               |                |                  x[0:0]: 0x4ec-0x4ec (0)
     |                                               |                |                e[0:2]: 0x4ec-0x4f4 (8)
     |                                               |                |                  [0]{}: in 0x4ec-0x4f3 (7)
0x4e0|                                    02         |            .   |                    opcode: "block" (0x2) 0x4ec-0x4ed (1)
0x4e0|                                       7f      |             .  |                    bt: "i32" (127) 0x4ed-0x4ee (1)
     |                                               |                |                    instructions[0:3]: 0x4ee-0x4f2 (4)
     |                                               |                |                      [0]{}: instr 0x4ee-0x4ef (1)
0x4e0|                                          01   |              . |                        opcode: "nop" (0x1) 0x4ee-0x4ef (1)
     |                                               |                |                      [1]{}: instr 0x4ef-0x4f1 (2)
0x4e0|                                             10|               .|                        opcode: "call" (0x10) 0x4ef-0x4f0 (1)
0x4f0|00                                             |.               |                        x: 0 (valid) 0x4f0-0x4f1 (1)
     |                                               |                |                      [2]{}: instr 0x4f1-0x4f2 (1)
0x4f0|   00                                          | .              |                        opcode: "unreachable" (0x0) 0x4f1-0x4f2 (1)
0x4f0|      0b                                       |  .             |                    end: 0xb (valid) 0x4f2-0x4f3 (1)
     |                                               |                |                  [1]{}: in 0x4f3-0x4f4 (1)
0x4f0|         0b                                    |   .            |                    opcode: "end" (0xb) 0x4f3-0x4f4 (1)
     |                                               |                |            [14]{}: code 0x4f4-0x501 (13)
0x4f0|            0c                                 |    .           |              size: 12 (valid) 0x4f4-0x4f5 (1)
     |                                               |                |              code{}: 0x4f5-0x501 (12)
     |                                               |                |                t{}: 0x4f5-0x4f6 (1)
0x4f0|               00                              |     .          |                  n: 0 (valid) 0x4f5-0x4f6 (1)
     |                                               |                |                  x[0:0]: 0x4f6-0x4f6 (0)
     |                                               |                |                e[0:2]: 0x4f6-0x501 (11)
     |                                               |                |                  [0]{}: in 0x4f6-0x500 (10)
0x4f0|                  02                           |      .         |                    opcode: "block" (0x2) 0x4f6-0x4f7 (1)
0x4f0|                     7f                        |       .        |                    bt: "i32" (127) 0x4f7-0x4f8 (1)
     |                                               |                |                    instructions[0:4]: 0x4f8-0x4ff (7)
     |                                               |                |                      [0]{}: instr 0x4f8-0x4fa (2)
0x4f0|                        10                     |        .       |                        opcode: "call" (0x10) 0x4f8-0x4f9 (1)
0x4f0|                           00                  |         .      |                        x: 0 (valid) 0x4f9-0x4fa (1)
     |                                               |                |                      [1]{}: instr 0x4fa-0x4fc (2)
0x4f0|                              41               |          A     |                        opcode: "i32.const" (0x41) 0x4fa-0x4fb (1)
0x4f0|                                 01            |           .    |                        n: 1 (valid) 0x4fb-0x4fc (1)
     |                                               |                |                      [2]{}: instr 0x4fc-0x4fe (2)
0x4f0|                                    0c         |            .   |                        opcode: "br" (0xc) 0x4fc-0x4fd (1)
0x4f0|                                       00      |             .  |                        l: 0 (valid) 0x4fd-0x4fe (1)
     |                                               |                |                      [3]{}: instr 0x4fe-0x4ff (1)
0x4f0|                                          00   |              . |                        opcode: "unreachable" (0x0) 0x4fe-0x4ff (1)
0x4f0|                                             0b|               .|                    end: 0xb (valid) 0x4ff-0x500 (1)
     |                                               |                |                  [1]{}: in 0x500-0x501 (1)
0x500|0b                                             |.               |                    opcode: "end" (0xb) 0x500-0x501 (1)
     |                                               |                |            [15]{}: code 0x501-0x50a (9)
0x500|   08                                          | .              |              size: 8 (valid) 0x501-0x502 (1)
     |                                               |                |              code{}: 0x502-0x50a (8)
     |                                               |                |                t{}: 0x502-0x503 (1)
0x500|      00                                       |  .             |                  n: 0 (valid) 0x502-0x503 (1)
     |                                               |                |                  x[0:0]: 0x503-0x503 (0)
     |                                               |                |                e[0:2]: 0x503-0x50a (7)
     |                                               |                |                  [0]{}: in 0x503-0x509 (6)
0x500|         03                                    |   .            |                    opcode: "loop" (0x3) 0x503-0x504 (1)
0x500|            7f                                 |    .           |                    bt: "i32" (127) 0x504-0x505 (1)
     |                                               |                |                    instructions[0:2]: 0x505-0x508 (3)
     |                                               |                |                      [0]{}: instr 0x505-0x506 (1)
0x500|               00                              |     .          |                        opcode: "unreachable" (0x0) 0x505-0x506 (1)
     |                                               |                |                      [1]{}: instr 0x506-0x508 (2)
0x500|                  41                           |      A         |                        opcode: "i32.const" (0x41) 0x506-0x507 (1)
0x500|                     02                        |       .        |                        n: 2 (valid) 0x507-0x508 (1)
0x500|                        0b                     |        .       |                    end: 0xb (valid) 0x508-0x509 (1)
     |                                               |                |                  [1]{}: in 0x509-0x50a (1)
0x500|                           0b                  |         .      |                    opcode: "end" (0xb) 0x509-0x50a (1)
     |                                               |                |            [16]{}: code 0x50a-0x515 (11)
0x500|                              0a               |          .     |              size: 10 (valid) 0x50a-0x50b (1)
     |                                               |                |              code{}: 0x50b-0x515 (10)
     |                                               |                |                t{}: 0x50b-0x50c (1)
0x500|                                 00            |           .    |                  n: 0 (valid) 0x50b-0x50c (1)
     |                                               |                |                  x[0:0]: 0x50c-0x50c (0)
     |                                               |                |                e[0:2]: 0x50c-0x515 (9)
     |                                               |                |                  [0]{}: in 0x50c-0x514 (8)
0x500|                                    03         |            .   |                    opcode: "loop" (0x3) 0x50c-0x50d (1)
0x500|                                       7f      |             .  |                    bt: "i32" (127) 0x50d-0x50e (1)
     |                                               |                |                    instructions[0:3]: 0x50e-0x513 (5)
     |                                               |                |                      [0]{}: instr 0x50e-0x510 (2)
0x500|                                          10   |              . |                        opcode: "call" (0x10) 0x50e-0x50f (1)
0x500|                                             00|               .|                        x: 0 (valid) 0x50f-0x510 (1)
     |                                               |                |                      [1]{}: instr 0x510-0x511 (1)
0x510|00                                             |.               |                        opcode: "unreachable" (0x0) 0x510-0x511 (1)
     |                                               |                |                      [2]{}: instr 0x511-0x513 (2)
0x510|   41                                          | A              |                        opcode: "i32.const" (0x41) 0x511-0x512 (1)
0x510|      02                                       |  .             |                        n: 2 (valid) 0x512-0x513 (1)
0x510|         0b                                    |   .            |                    end: 0xb (valid) 0x513-0x514 (1)
     |                                               |                |                  [1]{}: in 0x514-0x515 (1)
0x510|            0b                                 |    .           |                    opcode: "end" (0xb) 0x514-0x515 (1)
     |                                               |                |            [17]{}: code 0x515-0x51f (10)
0x510|               09                              |     .          |              size: 9 (valid) 0x515-0x516 (1)
     |                                               |                |              code{}: 0x516-0x51f (9)
     |                                               |                |                t{}: 0x516-0x517 (1)
0x510|                  00                           |      .         |                  n: 0 (valid) 0x516-0x517 (1)
     |                                               |                |                  x[0:0]: 0x517-0x517 (0)
     |                                               |                |                e[0:2]: 0x517-0x51f (8)
     |                                               |                |                  [0]{}: in 0x517-0x51e (7)
0x510|                     03                        |       .        |                    opcode: "loop" (0x3) 0x517-0x518 (1)
0x510|                        40                     |        @       |                    bt: "ε" (64) 0x518-0x519 (1)
     |                                               |                |                    instructions[0:3]: 0x519-0x51d (4)
     |                                               |                |                      [0]{}: instr 0x519-0x51a (1)
0x510|                           01                  |         .      |                        opcode: "nop" (0x1) 0x519-0x51a (1)
     |                                               |                |                      [1]{}: instr 0x51a-0x51c (2)
0x510|                              10               |          .     |                        opcode: "call" (0x10) 0x51a-0x51b (1)
0x510|                                 00            |           .    |                        x: 0 (valid) 0x51b-0x51c (1)
     |                                               |                |                      [2]{}: instr 0x51c-0x51d (1)
0x510|                                    00         |            .   |                        opcode: "unreachable" (0x0) 0x51c-0x51d (1)
0x510|                                       0b      |             .  |                    end: 0xb (valid) 0x51d-0x51e (1)
     |                                               |                |                  [1]{}: in 0x51e-0x51f (1)
0x510|                                          0b   |              . |                    opcode: "end" (0xb) 0x51e-0x51f (1)
     |                                               |                |            [18]{}: code 0x51f-0x52f (16)
0x510|                                             0f|               .|              size: 15 (valid) 0x51f-0x520 (1)
     |                                               |                |              code{}: 0x520-0x52f (15)
     |                                               |                |                t{}: 0x520-0x521 (1)
0x520|00                                             |.               |                  n: 0 (valid) 0x520-0x521 (1)
     |                                               |                |                  x[0:0]: 0x521-0x521 (0)
     |                                               |                |                e[0:2]: 0x521-0x52f (14)
     |                                               |                |                  [0]{}: in 0x521-0x52e (13)
0x520|   02                                          | .              |                    opcode: "block" (0x2) 0x521-0x522 (1)
0x520|      7f                                       |  .             |                    bt: "i32" (127) 0x522-0x523 (1)
     |                                               |                |                    instructions[0:1]: 0x523-0x52d (10)
     |                                               |                |                      [0]{}: instr 0x523-0x52d (10)
0x520|         03                                    |   .            |                        opcode: "loop" (0x3) 0x523-0x524 (1)
0x520|            7f                                 |    .           |                        bt: "i32" (127) 0x524-0x525 (1)
     |                                               |                |                        instructions[0:4]: 0x525-0x52c (7)
     |                                               |                |                          [0]{}: instr 0x525-0x527 (2)
0x520|               10                              |     .          |                            opcode: "call" (0x10) 0x525-0x526 (1)
0x520|                  00                           |      .         |                            x: 0 (valid) 0x526-0x527 (1)
     |                                               |                |                          [1]{}: instr 0x527-0x529 (2)
0x520|                     41                        |       A        |                            opcode: "i32.const" (0x41) 0x527-0x528 (1)
0x520|                        01                     |        .       |                            n: 1 (valid) 0x528-0x529 (1)
     |                                               |                |                          [2]{}: instr 0x529-0x52b (2)
0x520|                           0c                  |         .      |                            opcode: "br" (0xc) 0x529-0x52a (1)
0x520|                              01               |          .     |                            l: 1 (valid) 0x52a-0x52b (1)
     |                                               |                |                          [3]{}: instr 0x52b-0x52c (1)
0x520|                                 00            |           .    |                            opcode: "unreachable" (0x0) 0x52b-0x52c (1)
0x520|                                    0b         |            .   |                        end: 0xb (valid) 0x52c-0x52d (1)
0x520|                                       0b      |             .  |                    end: 0xb (valid) 0x52d-0x52e (1)
     |                                               |                |                  [1]{}: in 0x52e-0x52f (1)
0x520|                                          0b   |              . |                    opcode: "end" (0xb) 0x52e-0x52f (1)
     |                                               |                |            [19]{}: code 0x52f-0x538 (9)
0x520|                                             08|               .|              size: 8 (valid) 0x52f-0x530 (1)
     |                                               |                |              code{}: 0x530-0x538 (8)
     |                                               |                |                t{}: 0x530-0x531 (1)
0x530|00                                             |.               |                  n: 0 (valid) 0x530-0x531 (1)
     |                                               |                |                  x[0:0]: 0x531-0x531 (0)
     |                                               |                |                e[0:2]: 0x531-0x538 (7)
     |                                               |                |                  [0]{}: in 0x531-0x537 (6)
0x530|   02                                          | .              |                    opcode: "block" (0x2) 0x531-0x532 (1)
0x530|      7f                                       |  .             |                    bt: "i32" (127) 0x532-0x533 (1)
     |                                               |                |                    instructions[0:2]: 0x533-0x536 (3)
     |                                               |                |                      [0]{}: instr 0x533-0x534 (1)
0x530|         00                                    |   .            |                        opcode: "unreachable" (0x0) 0x533-0x534 (1)
     |                                               |                |                      [1]{}: instr 0x534-0x536 (2)
0x530|            0c                                 |    .           |                        opcode: "br" (0xc) 0x534-0x535 (1)
0x530|               00                              |     .          |                        l: 0 (valid) 0x535-0x536 (1)
0x530|                  0b                           |      .         |                    end: 0xb (valid) 0x536-0x537 (1)
     |                                               |                |                  [1]{}: in 0x537-0x538 (1)
0x530|                     0b                        |       .        |                    opcode: "end" (0xb) 0x537-0x538 (1)
     |                                               |                |            [20]{}: code 0x538-0x541 (9)
0x530|                        08                     |        .       |              size: 8 (valid) 0x538-0x539 (1)
     |                                               |                |              code{}: 0x539-0x541 (8)
     |                                               |                |                t{}: 0x539-0x53a (1)
0x530|                           00                  |         .      |                  n: 0 (valid) 0x539-0x53a (1)
     |                                               |                |                  x[0:0]: 0x53a-0x53a (0)
     |                                               |                |                e[0:2]: 0x53a-0x541 (7)
     |                                               |                |                  [0]{}: in 0x53a-0x540 (6)
0x530|                              02               |          .     |                    opcode: "block" (0x2) 0x53a-0x53b (1)
0x530|                                 40            |           @    |                    bt: "ε" (64) 0x53b-0x53c (1)
     |                                               |                |                    instructions[0:2]: 0x53c-0x53f (3)
     |                                               |                |                      [0]{}: instr 0x53c-0x53d (1)
0x530|                                    00         |            .   |                        opcode: "unreachable" (0x0) 0x53c-0x53d (1)
     |                                               |                |                      [1]{}: instr 0x53d-0x53f (2)
0x530|                                       0d      |             .  |                        opcode: "br_if" (0xd) 0x53d-0x53e (1)
0x530|                                          00   |              . |                        l: 0 (valid) 0x53e-0x53f (1)
0x530|                                             0b|               .|                    end: 0xb (valid) 0x53f-0x540 (1)
     |                                               |                |                  [1]{}: in 0x540-0x541 (1)
0x540|0b                                             |.               |                    opcode: "end" (0xb) 0x540-0x541 (1)
     |                                               |                |            [21]{}: code 0x541-0x54f (14)
0x540|   0d                                          | .              |              size: 13 (valid) 0x541-0x542 (1)
     |                                               |                |              code{}: 0x542-0x54f (13)
     |                                               |                |                t{}: 0x542-0x543 (1)
0x540|      00                                       |  .             |                  n: 0 (valid) 0x542-0x543 (1)
     |                                               |                |                  x[0:0]: 0x543-0x543 (0)
     |                                               |                |                e[0:2]: 0x543-0x54f (12)
     |                                               |                |                  [0]{}: in 0x543-0x54e (11)
0x540|         02                                    |   .            |                    opcode: "block" (0x2) 0x543-0x544 (1)
0x540|            7f                                 |    .           |                    bt: "i32" (127) 0x544-0x545 (1)
     |                                               |                |                    instructions[0:5]: 0x545-0x54d (8)
     |                                               |                |                      [0]{}: instr 0x545-0x546 (1)
0x540|               00                              |     .          |                        opcode: "unreachable" (0x0) 0x545-0x546 (1)
     |                                               |                |                      [1]{}: instr 0x546-0x548 (2)
0x540|                  41                           |      A         |                        opcode: "i32.const" (0x41) 0x546-0x547 (1)
0x540|                     01                        |       .        |                        n: 1 (valid) 0x547-0x548 (1)
     |                                               |                |                      [2]{}: instr 0x548-0x54a (2)
0x540|                        0d                     |        .       |                        opcode: "br_if" (0xd) 0x548-0x549 (1)
0x540|                           00                  |         .      |                        l: 0 (valid) 0x549-0x54a (1)
     |                                               |                |                      [3]{}: instr 0x54a-0x54b (1)
0x540|                              1a               |          .     |                        opcode: "drop" (0x1a) 0x54a-0x54b (1)
     |                                               |                |                      [4]{}: instr 0x54b-0x54d (2)
0x540|                                 41            |           A    |                        opcode: "i32.const" (0x41) 0x54b-0x54c (1)
0x540|                                    07         |            .   |                        n: 7 (valid) 0x54c-0x54d (1)
0x540|                                       0b      |             .  |                    end: 0xb (valid) 0x54d-0x54e (1)
     |                                               |                |                  [1]{}: in 0x54e-0x54f (1)
0x540|                                          0b   |              . |                    opcode: "end" (0xb) 0x54e-0x54f (1)
     |                                               |                |            [22]{}: code 0x54f-0x55d (14)
0x540|                                             0d|               .|              size: 13 (valid) 0x54f-0x550 (1)
     |                                               |                |              code{}: 0x550-0x55d (13)
     |                                               |                |                t{}: 0x550-0x551 (1)
0x550|00                                             |.               |                  n: 0 (valid) 0x550-0x551 (1)
     |                                               |                |                  x[0:0]: 0x551-0x551 (0)
     |                                               |                |                e[0:2]: 0x551-0x55d (12)
     |                                               |                |                  [0]{}: in 0x551-0x55c (11)
0x550|   02                                          | .              |                    opcode: "block" (0x2) 0x551-0x552 (1)
0x550|      7f                                       |  .             |                    bt: "i32" (127) 0x552-0x553 (1)
     |                                               |                |                    instructions[0:5]: 0x553-0x55b (8)
     |                                               |                |                      [0]{}: instr 0x553-0x555 (2)
0x550|         41                                    |   A            |                        opcode: "i32.const" (0x41) 0x553-0x554 (1)
0x550|            06                                 |    .           |                        n: 6 (valid) 0x554-0x555 (1)
     |                                               |                |                      [1]{}: instr 0x555-0x556 (1)
0x550|               00                              |     .          |                        opcode: "unreachable" (0x0) 0x555-0x556 (1)
     |                                               |                |                      [2]{}: instr 0x556-0x558 (2)
0x550|                  0d                           |      .         |                        opcode: "br_if" (0xd) 0x556-0x557 (1)
0x550|                     00                        |       .        |                        l: 0 (valid) 0x557-0x558 (1)
     |                                               |                |                      [3]{}: instr 0x558-0x559 (1)
0x550|                        1a                     |        .       |                        opcode: "drop" (0x1a) 0x558-0x559 (1)
     |                                               |                |                      [4]{}: instr 0x559-0x55b (2)
0x550|                           41                  |         A      |                        opcode: "i32.const" (0x41) 0x559-0x55a (1)
0x550|                              07               |          .     |                        n: 7 (valid) 0x55a-0x55b (1)
0x550|                                 0b            |           .    |                    end: 0xb (valid) 0x55b-0x55c (1)
     |                                               |                |                  [1]{}: in 0x55c-0x55d (1)
0x550|                                    0b         |            .   |                    opcode: "end" (0xb) 0x55c-0x55d (1)
     |                                               |                |            [23]{}: code 0x55d-0x569 (12)
0x550|                                       0b      |             .  |              size: 11 (valid) 0x55d-0x55e (1)
     |                                               |                |              code{}: 0x55e-0x569 (11)
     |                                               |                |                t{}: 0x55e-0x55f (1)
0x550|                                          00   |              . |                  n: 0 (valid) 0x55e-0x55f (1)
     |                                               |                |                  x[0:0]: 0x55f-0x55f (0)
     |                                               |                |                e[0:2]: 0x55f-0x569 (10)
     |                                               |                |                  [0]{}: in 0x55f-0x568 (9)
0x550|                                             02|               .|                    opcode: "block" (0x2) 0x55f-0x560 (1)
0x560|40                                             |@               |                    bt: "ε" (64) 0x560-0x561 (1)
     |                                               |                |                    instructions[0:2]: 0x561-0x567 (6)
     |                                               |                |                      [0]{}: instr 0x561-0x562 (1)
0x560|   00                                          | .              |                        opcode: "unreachable" (0x0) 0x561-0x562 (1)
     |                                               |                |                      [1]{}: instr 0x562-0x567 (5)
0x560|      0e                                       |  .             |                        opcode: "br_table" (0xe) 0x562-0x563 (1)
     |                                               |                |                        l{}: 0x563-0x566 (3)
0x560|         02                                    |   .            |                          n: 2 (valid) 0x563-0x564 (1)
     |                                               |                |                          x[0:2]: 0x564-0x566 (2)
0x560|            00                                 |    .           |                            [0]: 0 l (valid) 0x564-0x565 (1)
0x560|               00                              |     .          |                            [1]: 0 l (valid) 0x565-0x566 (1)
0x560|                  00                           |      .         |                        lN: 0 (valid) 0x566-0x567 (1)
0x560|                     0b                        |       .        |                    end: 0xb (valid) 0x567-0x568 (1)
     |                                               |                |                  [1]{}: in 0x568-0x569 (1)
0x560|                        0b                     |        .       |                    opcode: "end" (0xb) 0x568-0x569 (1)
     |                                               |                |            [24]{}: code 0x569-0x579 (16)
0x560|                           0f                  |         .      |              size: 15 (valid) 0x569-0x56a (1)
     |                                               |                |              code{}: 0x56a-0x579 (15)
     |                                               |                |                t{}: 0x56a-0x56b (1)
0x560|                              00               |          .     |                  n: 0 (valid) 0x56a-0x56b (1)
     |                                               |                |                  x[0:0]: 0x56b-0x56b (0)
     |                                               |                |                e[0:2]: 0x56b-0x579 (14)
     |                                               |                |                  [0]{}: in 0x56b-0x578 (13)
0x560|                                 02            |           .    |                    opcode: "block" (0x2) 0x56b-0x56c (1)
0x560|                                    7f         |            .   |                    bt: "i32" (127) 0x56c-0x56d (1)
     |                                               |                |                    instructions[0:4]: 0x56d-0x577 (10)
     |                                               |                |                      [0]{}: instr 0x56d-0x56e (1)
0x560|                                       00      |             .  |                        opcode: "unreachable" (0x0) 0x56d-0x56e (1)
     |                                               |                |                      [1]{}: instr 0x56e-0x570 (2)
0x560|                                          41   |              A |                        opcode: "i32.const" (0x41) 0x56e-0x56f (1)
0x560|                                             01|               .|                        n: 1 (valid) 0x56f-0x570 (1)
     |                                               |                |                      [2]{}: instr 0x570-0x575 (5)
0x570|0e                                             |.               |                        opcode: "br_table" (0xe) 0x570-0x571 (1)
     |                                               |                |                        l{}: 0x571-0x574 (3)
0x570|   02                                          | .              |                          n: 2 (valid) 0x571-0x572 (1)
     |                                               |                |                          x[0:2]: 0x572-0x574 (2)
0x570|      00                                       |  .             |                            [0]: 0 l (valid) 0x572-0x573 (1)
0x570|         00                                    |   .            |                            [1]: 0 l (valid) 0x573-0x574 (1)
0x570|            00                                 |    .           |                        lN: 0 (valid) 0x574-0x575 (1)
     |                                               |                |                      [3]{}: instr 0x575-0x577 (2)
0x570|               41                              |     A          |                        opcode: "i32.const" (0x41) 0x575-0x576 (1)
0x570|                  07                           |      .         |                        n: 7 (valid) 0x576-0x577 (1)
0x570|                     0b                        |       .        |                    end: 0xb (valid) 0x577-0x578 (1)
     |                                               |                |                  [1]{}: in 0x578-0x579 (1)
0x570|                        0b                     |        .       |                    opcode: "end" (0xb) 0x578-0x579 (1)
     |                                               |                |            [25]{}: code 0x579-0x589 (16)
0x570|                           0f                  |         .      |              size: 15 (valid) 0x579-0x57a (1)
     |                                               |                |              code{}: 0x57a-0x589 (15)
     |                                               |                |                t{}: 0x57a-0x57b (1)
0x570|                              00               |          .     |                  n: 0 (valid) 0x57a-0x57b (1)
     |                                               |                |                  x[0:0]: 0x57b-0x57b (0)
     |                                               |                |                e[0:2]: 0x57b-0x589 (14)
     |                                               |                |                  [0]{}: in 0x57b-0x588 (13)
0x570|                                 02            |           .    |                    opcode: "block" (0x2) 0x57b-0x57c (1)
0x570|                                    7f         |            .   |                    bt: "i32" (127) 0x57c-0x57d (1)
     |                                               |                |                    instructions[0:1]: 0x57d-0x587 (10)
     |                                               |                |                      [0]{}: instr 0x57d-0x587 (10)
0x570|                                       02      |             .  |                        opcode: "block" (0x2) 0x57d-0x57e (1)
0x570|                                          7f   |              . |                        bt: "i32" (127) 0x57e-0x57f (1)
     |                                               |                |                        instructions[0:3]: 0x57f-0x586 (7)
     |                                               |                |                          [0]{}: instr 0x57f-0x580 (1)
0x570|                                             00|               .|                            opcode: "unreachable" (0x0) 0x57f-0x580 (1)
     |                                               |                |                          [1]{}: instr 0x580-0x582 (2)
0x580|41                                             |A               |                            opcode: "i32.const" (0x41) 0x580-0x581 (1)
0x580|   01                                          | .              |                            n: 1 (valid) 0x581-0x582 (1)
     |                                               |                |                          [2]{}: instr 0x582-0x586 (4)
0x580|      0e                                       |  .             |                            opcode: "br_table" (0xe) 0x582-0x583 (1)
     |                                               |                |                            l{}: 0x583-0x585 (2)
0x580|         01                                    |   .            |                              n: 1 (valid) 0x583-0x584 (1)
     |                                               |                |                              x[0:1]: 0x584-0x585 (1)
0x580|            00                                 |    .           |                                [0]: 0 l (valid) 0x584-0x585 (1)
0x580|               01                              |     .          |                            lN: 1 (valid) 0x585-0x586 (1)
0x580|                  0b                           |      .         |                        end: 0xb (valid) 0x586-0x587 (1)
0x580|                     0b                        |       .        |                    end: 0xb (valid) 0x587-0x588 (1)
     |                                               |                |                  [1]{}: in 0x588-0x589 (1)
0x580|                        0b                     |        .       |                    opcode: "end" (0xb) 0x588-0x589 (1)
     |                                               |                |            [26]{}: code 0x589-0x598 (15)
0x580|                           0e                  |         .      |              size: 14 (valid) 0x589-0x58a (1)
     |                                               |                |              code{}: 0x58a-0x598 (14)
     |                                               |                |                t{}: 0x58a-0x58b (1)
0x580|                              00               |          .     |                  n: 0 (valid) 0x58a-0x58b (1)
     |                                               |                |                  x[0:0]: 0x58b-0x58b (0)
     |                                               |                |                e[0:2]: 0x58b-0x598 (13)
     |                                               |                |                  [0]{}: in 0x58b-0x597 (12)
0x580|                                 02            |           .    |                    opcode: "block" (0x2) 0x58b-0x58c (1)
0x580|                                    7f         |            .   |                    bt: "i32" (127) 0x58c-0x58d (1)
     |                                               |                |                    instructions[0:4]: 0x58d-0x596 (9)
     |                                               |                |                      [0]{}: instr 0x58d-0x58f (2)
0x580|                                       41      |             A  |                        opcode: "i32.const" (0x41) 0x58d-0x58e (1)
0x580|                                          06   |              . |                        n: 6 (valid) 0x58e-0x58f (1)
     |                                               |                |                      [1]{}: instr 0x58f-0x590 (1)
0x580|                                             00|               .|                        opcode: "unreachable" (0x0) 0x58f-0x590 (1)
     |                                               |                |                      [2]{}: instr 0x590-0x594 (4)
0x590|0e                                             |.               |                        opcode: "br_table" (0xe) 0x590-0x591 (1)
     |                                               |                |                        l{}: 0x591-0x593 (2)
0x590|   01                                          | .              |                          n: 1 (valid) 0x591-0x592 (1)
     |                                               |                |                          x[0:1]: 0x592-0x593 (1)
0x590|      00                                       |  .             |                            [0]: 0 l (valid) 0x592-0x593 (1)
0x590|         00                                    |   .            |                        lN: 0 (valid) 0x593-0x594 (1)
     |                                               |                |                      [3]{}: instr 0x594-0x596 (2)
0x590|            41                                 |    A           |                        opcode: "i32.const" (0x41) 0x594-0x595 (1)
0x590|               07                              |     .          |                        n: 7 (valid) 0x595-0x596 (1)
0x590|                  0b                           |      .         |                    end: 0xb (valid) 0x596-0x597 (1)
     |                                               |                |                  [1]{}: in 0x597-0x598 (1)
0x590|                     0b                        |       .        |                    opcode: "end" (0xb) 0x597-0x598 (1)
     |                                               |                |            [27]{}: code 0x598-0x5a5 (13)
0x590|                        0c                     |        .       |              size: 12 (valid) 0x598-0x599 (1)
     |                                               |                |              code{}: 0x599-0x5a5 (12)
     |                                               |                |                t{}: 0x599-0x59a (1)
0x590|                           00                  |         .      |                  n: 0 (valid) 0x599-0x59a (1)
     |                                               |                |                  x[0:0]: 0x59a-0x59a (0)
     |                                               |                |                e[0:2]: 0x59a-0x5a5 (11)
     |                                               |                |                  [0]{}: in 0x59a-0x5a4 (10)
0x590|                              02               |          .     |                    opcode: "block" (0x2) 0x59a-0x59b (1)
0x590|                                 7f            |           .    |                    bt: "i32" (127) 0x59b-0x59c (1)
     |                                               |                |                    instructions[0:3]: 0x59c-0x5a3 (7)
     |                                               |                |                      [0]{}: instr 0x59c-0x59d (1)
0x590|                                    00         |            .   |                        opcode: "unreachable" (0x0) 0x59c-0x59d (1)
     |                                               |                |                      [1]{}: instr 0x59d-0x5a1 (4)
0x590|                                       0e      |             .  |                        opcode: "br_table" (0xe) 0x59d-0x59e (1)
     |                                               |                |                        l{}: 0x59e-0x5a0 (2)
0x590|                                          01   |              . |                          n: 1 (valid) 0x59e-0x59f (1)
     |                                               |                |                          x[0:1]: 0x59f-0x5a0 (1)
0x590|                                             00|               .|                            [0]: 0 l (valid) 0x59f-0x5a0 (1)
0x5a0|00                                             |.               |                        lN: 0 (valid) 0x5a0-0x5a1 (1)
     |                                               |                |                      [2]{}: instr 0x5a1-0x5a3 (2)
0x5a0|   41                                          | A              |                        opcode: "i32.const" (0x41) 0x5a1-0x5a2 (1)
0x5a0|      08                                       |  .             |                        n: 8 (valid) 0x5a2-0x5a3 (1)
0x5a0|         0b                                    |   .            |                    end: 0xb (valid) 0x5a3-0x5a4 (1)
     |                                               |                |                  [1]{}: in 0x5a4-0x5a5 (1)
0x5a0|            0b                                 |    .           |                    opcode: "end" (0xb) 0x5a4-0x5a5 (1)
     |                                               |                |            [28]{}: code 0x5a5-0x5aa (5)
0x5a0|               04                              |     .          |              size: 4 (valid) 0x5a5-0x5a6 (1)
     |                                               |                |              code{}: 0x5a6-0x5aa (4)
     |                                               |                |                t{}: 0x5a6-0x5a7 (1)
0x5a0|                  00                           |      .         |                  n: 0 (valid) 0x5a6-0x5a7 (1)
     |                                               |                |                  x[0:0]: 0x5a7-0x5a7 (0)
     |                                               |                |                e[0:3]: 0x5a7-0x5aa (3)
     |                                               |                |                  [0]{}: in 0x5a7-0x5a8 (1)
0x5a0|                     00                        |       .        |                    opcode: "unreachable" (0x0) 0x5a7-0x5a8 (1)
     |                                               |                |                  [1]{}: in 0x5a8-0x5a9 (1)
0x5a0|                        0f                     |        .       |                    opcode: "return" (0xf) 0x5a8-0x5a9 (1)
     |                                               |                |                  [2]{}: in 0x5a9-0x5aa (1)
0x5a0|                           0b                  |         .      |                    opcode: "end" (0xb) 0x5a9-0x5aa (1)
     |                                               |                |            [29]{}: code 0x5aa-0x5b6 (12)
0x5a0|                              0b               |          .     |              size: 11 (valid) 0x5aa-0x5ab (1)
     |                                               |                |              code{}: 0x5ab-0x5b6 (11)
     |                                               |                |                t{}: 0x5ab-0x5ac (1)
0x5a0|                                 00            |           .    |                  n: 0 (valid) 0x5ab-0x5ac (1)
     |                                               |                |                  x[0:0]: 0x5ac-0x5ac (0)
     |                                               |                |                e[0:3]: 0x5ac-0x5b6 (10)
     |                                               |                |                  [0]{}: in 0x5ac-0x5ad (1)
0x5a0|                                    00         |            .   |                    opcode: "unreachable" (0x0) 0x5ac-0x5ad (1)
     |                                               |                |                  [1]{}: in 0x5ad-0x5b5 (8)
0x5a0|                                       04      |             .  |                    opcode: "if" (0x4) 0x5ad-0x5ae (1)
0x5a0|                                          7f   |              . |                    bt: "i32" (127) 0x5ae-0x5af (1)
     |                                               |                |                    in1[0:1]: 0x5af-0x5b1 (2)
     |                                               |                |                      [0]{}: instr 0x5af-0x5b1 (2)
0x5a0|                                             41|               A|                        opcode: "i32.const" (0x41) 0x5af-0x5b0 (1)
0x5b0|00                                             |.               |                        n: 0 (valid) 0x5b0-0x5b1 (1)
0x5b0|   05                                          | .              |                    else: 0x5 (valid) 0x5b1-0x5b2 (1)
     |                                               |                |                    in2[0:1]: 0x5b2-0x5b4 (2)
     |                                               |                |                      [0]{}: instr 0x5b2-0x5b4 (2)
0x5b0|      41                                       |  A             |                        opcode: "i32.const" (0x41) 0x5b2-0x5b3 (1)
0x5b0|         01                                    |   .            |                        n: 1 (valid) 0x5b3-0x5b4 (1)
0x5b0|            0b                                 |    .           |                    end: 0xb (valid) 0x5b4-0x5b5 (1)
     |                                               |                |                  [2]{}: in 0x5b5-0x5b6 (1)
0x5b0|               0b                              |     .          |                    opcode: "end" (0xb) 0x5b5-0x5b6 (1)
     |                                               |                |            [30]{}: code 0x5b6-0x5c2 (12)
0x5b0|                  0b                           |      .         |              size: 11 (valid) 0x5b6-0x5b7 (1)
     |                                               |                |              code{}: 0x5b7-0x5c2 (11)
     |                                               |                |                t{}: 0x5b7-0x5b8 (1)
0x5b0|                     00                        |       .        |                  n: 0 (valid) 0x5b7-0x5b8 (1)
     |                                               |                |                  x[0:0]: 0x5b8-0x5b8 (0)
     |                                               |                |                e[0:3]: 0x5b8-0x5c2 (10)
     |                                               |                |                  [0]{}: in 0x5b8-0x5ba (2)
0x5b0|                        20                     |                |                    opcode: "local.get" (0x20) 0x5b8-0x5b9 (1)
0x5b0|                           00                  |         .      |                    x: 0 (valid) 0x5b9-0x5ba (1)
     |                                               |                |                  [1]{}: in 0x5ba-0x5c1 (7)
0x5b0|                              04               |          .     |                    opcode: "if" (0x4) 0x5ba-0x5bb (1)
0x5b0|                                 7f            |           .    |                    bt: "i32" (127) 0x5bb-0x5bc (1)
     |                                               |                |                    in1[0:1]: 0x5bc-0x5bd (1)
     |                                               |                |                      [0]{}: instr 0x5bc-0x5bd (1)
0x5b0|                                    00         |            .   |                        opcode: "unreachable" (0x0) 0x5bc-0x5bd (1)
0x5b0|                                       05      |             .  |                    else: 0x5 (valid) 0x5bd-0x5be (1)
     |                                               |                |                    in2[0:1]: 0x5be-0x5c0 (2)
     |                                               |                |                      [0]{}: instr 0x5be-0x5c0 (2)
0x5b0|                                          20   |                |                        opcode: "local.get" (0x20) 0x5be-0x5bf (1)
0x5b0|                                             01|               .|                        x: 1 (valid) 0x5bf-0x5c0 (1)
0x5c0|0b                                             |.               |                    end: 0xb (valid) 0x5c0-0x5c1 (1)
     |                                               |                |                  [2]{}: in 0x5c1-0x5c2 (1)
0x5c0|   0b                                          | .              |                    opcode: "end" (0xb) 0x5c1-0x5c2 (1)
     |                                               |                |            [31]{}: code 0x5c2-0x5ce (12)
0x5c0|      0b                                       |  .             |              size: 11 (valid) 0x5c2-0x5c3 (1)
     |                                               |                |              code{}: 0x5c3-0x5ce (11)
     |                                               |                |                t{}: 0x5c3-0x5c4 (1)
0x5c0|         00                                    |   .            |                  n: 0 (valid) 0x5c3-0x5c4 (1)
     |                                               |                |                  x[0:0]: 0x5c4-0x5c4 (0)
     |                                               |                |                e[0:3]: 0x5c4-0x5ce (10)
     |                                               |                |                  [0]{}: in 0x5c4-0x5c6 (2)
0x5c0|            20                                 |                |                    opcode: "local.get" (0x20) 0x5c4-0x5c5 (1)
0x5c0|               00                              |     .          |                    x: 0 (valid) 0x5c5-0x5c6 (1)
     |                                               |                |                  [1]{}: in 0x5c6-0x5cd (7)
0x5c0|                  04                           |      .         |                    opcode: "if" (0x4) 0x5c6-0x5c7 (1)
0x5c0|                     7f                        |       .        |                    bt: "i32" (127) 0x5c7-0x5c8 (1)
     |                                               |                |                    in1[0:1]: 0x5c8-0x5ca (2)
     |                                               |                |                      [0]{}: instr 0x5c8-0x5ca (2)
0x5c0|                        20                     |                |                        opcode: "local.get" (0x20) 0x5c8-0x5c9 (1)
0x5c0|                           01                  |         .      |                        x: 1 (valid) 0x5c9-0x5ca (1)
0x5c0|                              05               |          .     |                    else: 0x5 (valid) 0x5ca-0x5cb (1)
     |                                               |                |                    in2[0:1]: 0x5cb-0x5cc (1)
     |                                               |                |                      [0]{}: instr 0x5cb-0x5cc (1)
0x5c0|                                 00            |           .    |                        opcode: "unreachable" (0x0) 0x5cb-0x5cc (1)
0x5c0|                                    0b         |            .   |                    end: 0xb (valid) 0x5cc-0x5cd (1)
     |                                               |                |                  [2]{}: in 0x5cd-0x5ce (1)
0x5c0|                                       0b      |             .  |                    opcode: "end" (0xb) 0x5cd-0x5ce (1)
     |                                               |                |            [32]{}: code 0x5ce-0x5d9 (11)
0x5c0|                                          0a   |              . |              size: 10 (valid) 0x5ce-0x5cf (1)
     |                                               |                |              code{}: 0x5cf-0x5d9 (10)
     |                                               |                |                t{}: 0x5cf-0x5d0 (1)
0x5c0|                                             00|               .|                  n: 0 (valid) 0x5cf-0x5d0 (1)
     |                                               |                |                  x[0:0]: 0x5d0-0x5d0 (0)
     |                                               |                |                e[0:4]: 0x5d0-0x5d9 (9)
     |                                               |                |                  [0]{}: in 0x5d0-0x5d2 (2)
0x5d0|20                                             |                |                    opcode: "local.get" (0x20) 0x5d0-0x5d1 (1)
0x5d0|   00                                          | .              |                    x: 0 (valid) 0x5d1-0x5d2 (1)
     |                                               |                |                  [1]{}: in 0x5d2-0x5d6 (4)
0x5d0|      04                                       |  .             |                    opcode: "if" (0x4) 0x5d2-0x5d3 (1)
0x5d0|         40                                    |   @            |                    bt: "ε" (64) 0x5d3-0x5d4 (1)
     |                                               |                |                    in1[0:1]: 0x5d4-0x5d5 (1)
     |                                               |                |                      [0]{}: instr 0x5d4-0x5d5 (1)
0x5d0|            00                                 |    .           |                        opcode: "unreachable" (0x0) 0x5d4-0x5d5 (1)
0x5d0|               0b                              |     .          |                    end: 0xb (valid) 0x5d5-0x5d6 (1)
     |                                               |                |                  [2]{}: in 0x5d6-0x5d8 (2)
0x5d0|                  20                           |                |                    opcode: "local.get" (0x20) 0x5d6-0x5d7 (1)
0x5d0|                     01                        |       .        |                    x: 1 (valid) 0x5d7-0x5d8 (1)
     |                                               |                |                  [3]{}: in 0x5d8-0x5d9 (1)
0x5d0|                        0b                     |        .       |                    opcode: "end" (0xb) 0x5d8-0x5d9 (1)
     |                                               |                |            [33]{}: code 0x5d9-0x5e2 (9)
0x5d0|                           08                  |         .      |              size: 8 (valid) 0x5d9-0x5da (1)
     |                                               |                |              code{}: 0x5da-0x5e2 (8)
     |                                               |                |                t{}: 0x5da-0x5db (1)
0x5d0|                              00               |          .     |                  n: 0 (valid) 0x5da-0x5db (1)
     |                                               |                |                  x[0:0]: 0x5db-0x5db (0)
     |                                               |                |                e[0:5]: 0x5db-0x5e2 (7)
     |                                               |                |                  [0]{}: in 0x5db-0x5dc (1)
0x5d0|                                 00            |           .    |                    opcode: "unreachable" (0x0) 0x5db-0x5dc (1)
     |                                               |                |                  [1]{}: in 0x5dc-0x5de (2)
0x5d0|                                    20         |                |                    opcode: "local.get" (0x20) 0x5dc-0x5dd (1)
0x5d0|                                       00      |             .  |                    x: 0 (valid) 0x5dd-0x5de (1)
     |                                               |                |                  [2]{}: in 0x5de-0x5e0 (2)
0x5d0|                                          20   |                |                    opcode: "local.get" (0x20) 0x5de-0x5df (1)
0x5d0|                                             01|               .|                    x: 1 (valid) 0x5df-0x5e0 (1)
     |                                               |                |                  [3]{}: in 0x5e0-0x5e1 (1)
0x5e0|1b                                             |.               |                    opcode: "select" (0x1b) 0x5e0-0x5e1 (1)
     |                                               |                |                  [4]{}: in 0x5e1-0x5e2 (1)
0x5e0|   0b                                          | .              |                    opcode: "end" (0xb) 0x5e1-0x5e2 (1)
     |                                               |                |            [34]{}: code 0x5e2-0x5eb (9)
0x5e0|      08                                       |  .             |              size: 8 (valid) 0x5e2-0x5e3 (1)
     |                                               |                |              code{}: 0x5e3-0x5eb (8)
     |                                               |                |                t{}: 0x5e3-0x5e4 (1)
0x5e0|         00                                    |   .            |                  n: 0 (valid) 0x5e3-0x5e4 (1)
     |                                               |                |                  x[0:0]: 0x5e4-0x5e4 (0)
     |                                               |                |                e[0:5]: 0x5e4-0x5eb (7)
     |                                               |                |                  [0]{}: in 0x5e4-0x5e6 (2)
0x5e0|            20                                 |                |                    opcode: "local.get" (0x20) 0x5e4-0x5e5 (1)
0x5e0|               00                              |     .          |                    x: 0 (valid) 0x5e5-0x5e6 (1)
     |                                               |                |                  [1]{}: in 0x5e6-0x5e7 (1)
0x5e0|                  00                           |      .         |                    opcode: "unreachable" (0x0) 0x5e6-0x5e7 (1)
     |                                               |                |                  [2]{}: in 0x5e7-0x5e9 (2)
0x5e0|                     20                        |                |                    opcode: "local.get" (0x20) 0x5e7-0x5e8 (1)
0x5e0|                        01                     |        .       |                    x: 1 (valid) 0x5e8-0x5e9 (1)
     |                                               |                |                  [3]{}: in 0x5e9-0x5ea (1)
0x5e0|                           1b                  |         .      |                    opcode: "select" (0x1b) 0x5e9-0x5ea (1)
     |                                               |                |                  [4]{}: in 0x5ea-0x5eb (1)
0x5e0|                              0b               |          .     |                    opcode: "end" (0xb) 0x5ea-0x5eb (1)
     |                                               |                |            [35]{}: code 0x5eb-0x5f4 (9)
0x5e0|                                 08            |           .    |              size: 8 (valid) 0x5eb-0x5ec (1)
     |                                               |                |              code{}: 0x5ec-0x5f4 (8)
     |                                               |                |                t{}: 0x5ec-0x5ed (1)
0x5e0|                                    00         |            .   |                  n: 0 (valid) 0x5ec-0x5ed (1)
     |                                               |                |                  x[0:0]: 0x5ed-0x5ed (0)
     |                                               |                |                e[0:5]: 0x5ed-0x5f4 (7)
     |                                               |                |                  [0]{}: in 0x5ed-0x5ef (2)
0x5e0|                                       41      |             A  |                    opcode: "i32.const" (0x41) 0x5ed-0x5ee (1)
0x5e0|                                          00   |              . |                    n: 0 (valid) 0x5ee-0x5ef (1)
     |                                               |                |                  [1]{}: in 0x5ef-0x5f1 (2)
0x5e0|                                             41|               A|                    opcode: "i32.const" (0x41) 0x5ef-0x5f0 (1)
0x5f0|01                                             |.               |                    n: 1 (valid) 0x5f0-0x5f1 (1)
     |                                               |                |                  [2]{}: in 0x5f1-0x5f2 (1)
0x5f0|   00                                          | .              |                    opcode: "unreachable" (0x0) 0x5f1-0x5f2 (1)
     |                                               |                |                  [3]{}: in 0x5f2-0x5f3 (1)
0x5f0|      1b                                       |  .             |                    opcode: "select" (0x1b) 0x5f2-0x5f3 (1)
     |                                               |                |                  [4]{}: in 0x5f3-0x5f4 (1)
0x5f0|         0b                                    |   .            |                    opcode: "end" (0xb) 0x5f3-0x5f4 (1)
     |                                               |                |            [36]{}: code 0x5f4-0x5fe (10)
0x5f0|            09                                 |    .           |              size: 9 (valid) 0x5f4-0x5f5 (1)
     |                                               |                |              code{}: 0x5f5-0x5fe (9)
     |                                               |                |                t{}: 0x5f5-0x5f6 (1)
0x5f0|               00                              |     .          |                  n: 0 (valid) 0x5f5-0x5f6 (1)
     |                                               |                |                  x[0:0]: 0x5f6-0x5f6 (0)
     |                                               |                |                e[0:5]: 0x5f6-0x5fe (8)
     |                                               |                |                  [0]{}: in 0x5f6-0x5f7 (1)
0x5f0|                  00                           |      .         |                    opcode: "unreachable" (0x0) 0x5f6-0x5f7 (1)
     |                                               |                |                  [1]{}: in 0x5f7-0x5f9 (2)
0x5f0|                     41                        |       A        |                    opcode: "i32.const" (0x41) 0x5f7-0x5f8 (1)
0x5f0|                        02                     |        .       |                    n: 2 (valid) 0x5f8-0x5f9 (1)
     |                                               |                |                  [2]{}: in 0x5f9-0x5fb (2)
0x5f0|                           41                  |         A      |                    opcode: "i32.const" (0x41) 0x5f9-0x5fa (1)
0x5f0|                              03               |          .     |                    n: 3 (valid) 0x5fa-0x5fb (1)
     |                                               |                |                  [3]{}: in 0x5fb-0x5fd (2)
0x5f0|                                 10            |           .    |                    opcode: "call" (0x10) 0x5fb-0x5fc (1)
0x5f0|                                    01         |            .   |                    x: 1 (valid) 0x5fc-0x5fd (1)
     |                                               |                |                  [4]{}: in 0x5fd-0x5fe (1)
0x5f0|                                       0b      |             .  |                    opcode: "end" (0xb) 0x5fd-0x5fe (1)
     |                                               |                |            [37]{}: code 0x5fe-0x608 (10)
0x5f0|                                          09   |              . |              size: 9 (valid) 0x5fe-0x5ff (1)
     |                                               |                |              code{}: 0x5ff-0x608 (9)
     |                                               |                |                t{}: 0x5ff-0x600 (1)
0x5f0|                                             00|               .|                  n: 0 (valid) 0x5ff-0x600 (1)
     |                                               |                |                  x[0:0]: 0x600-0x600 (0)
     |                                               |                |                e[0:5]: 0x600-0x608 (8)
     |                                               |                |                  [0]{}: in 0x600-0x602 (2)
0x600|41                                             |A               |                    opcode: "i32.const" (0x41) 0x600-0x601 (1)
0x600|   01                                          | .              |                    n: 1 (valid) 0x601-0x602 (1)
     |                                               |                |                  [1]{}: in 0x602-0x603 (1)
0x600|      00                                       |  .             |                    opcode: "unreachable" (0x0) 0x602-0x603 (1)
     |                                               |                |                  [2]{}: in 0x603-0x605 (2)
0x600|         41                                    |   A            |                    opcode: "i32.const" (0x41) 0x603-0x604 (1)
0x600|            03                                 |    .           |                    n: 3 (valid) 0x604-0x605 (1)
     |                                               |                |                  [3]{}: in 0x605-0x607 (2)
0x600|               10                              |     .          |                    opcode: "call" (0x10) 0x605-0x606 (1)
0x600|                  01                           |      .         |                    x: 1 (valid) 0x606-0x607 (1)
     |                                               |                |                  [4]{}: in 0x607-0x608 (1)
0x600|                     0b                        |       .        |                    opcode: "end" (0xb) 0x607-0x608 (1)
     |                                               |                |            [38]{}: code 0x608-0x612 (10)
0x600|                        09                     |        .       |              size: 9 (valid) 0x608-0x609 (1)
     |                                               |                |              code{}: 0x609-0x612 (9)
     |                                               |                |                t{}: 0x609-0x60a (1)
0x600|                           00                  |         .      |                  n: 0 (valid) 0x609-0x60a (1)
     |                                               |                |                  x[0:0]: 0x60a-0x60a (0)
     |                                               |                |                e[0:5]: 0x60a-0x612 (8)
     |                                               |                |                  [0]{}: in 0x60a-0x60c (2)
0x600|                              41               |          A     |                    opcode: "i32.const" (0x41) 0x60a-0x60b (1)
0x600|                                 01            |           .    |                    n: 1 (valid) 0x60b-0x60c (1)
     |                                               |                |                  [1]{}: in 0x60c-0x60e (2)
0x600|                                    41         |            A   |                    opcode: "i32.const" (0x41) 0x60c-0x60d (1)
0x600|                                       02      |             .  |                    n: 2 (valid) 0x60d-0x60e (1)
     |                                               |                |                  [2]{}: in 0x60e-0x60f (1)
0x600|                                          00   |              . |                    opcode: "unreachable" (0x0) 0x60e-0x60f (1)
     |                                               |                |                  [3]{}: in 0x60f-0x611 (2)
0x600|                                             10|               .|                    opcode: "call" (0x10) 0x60f-0x610 (1)
0x610|01                                             |.               |                    x: 1 (valid) 0x610-0x611 (1)
     |                                               |                |                  [4]{}: in 0x611-0x612 (1)
0x610|   0b                                          | .              |                    opcode: "end" (0xb) 0x611-0x612 (1)
     |                                               |                |            [39]{}: code 0x612-0x61f (13)
0x610|      0c                                       |  .             |              size: 12 (valid) 0x612-0x613 (1)
     |                                               |                |              code{}: 0x613-0x61f (12)
     |                                               |                |                t{}: 0x613-0x614 (1)
0x610|         00                                    |   .            |                  n: 0 (valid) 0x613-0x614 (1)
     |                                               |                |                  x[0:0]: 0x614-0x614 (0)
     |                                               |                |                e[0:6]: 0x614-0x61f (11)
     |                                               |                |                  [0]{}: in 0x614-0x615 (1)
0x610|            00                                 |    .           |                    opcode: "unreachable" (0x0) 0x614-0x615 (1)
     |                                               |                |                  [1]{}: in 0x615-0x617 (2)
0x610|               41                              |     A          |                    opcode: "i32.const" (0x41) 0x615-0x616 (1)
0x610|                  01                           |      .         |                    n: 1 (valid) 0x616-0x617 (1)
     |                                               |                |                  [2]{}: in 0x617-0x619 (2)
0x610|                     41                        |       A        |                    opcode: "i32.const" (0x41) 0x617-0x618 (1)
0x610|                        02                     |        .       |                    n: 2 (valid) 0x618-0x619 (1)
     |                                               |                |                  [3]{}: in 0x619-0x61b (2)
0x610|                           41                  |         A      |                    opcode: "i32.const" (0x41) 0x619-0x61a (1)
0x610|                              03               |          .     |                    n: 3 (valid) 0x61a-0x61b (1)
     |                                               |                |                  [4]{}: in 0x61b-0x61e (3)
0x610|                                 11            |           .    |                    opcode: "call_indirect" (0x11) 0x61b-0x61c (1)
0x610|                                    00         |            .   |                    y: 0 (valid) 0x61c-0x61d (1)
0x610|                                       00      |             .  |                    x: 0 (valid) 0x61d-0x61e (1)
     |                                               |                |                  [5]{}: in 0x61e-0x61f (1)
0x610|                                          0b   |              . |                    opcode: "end" (0xb) 0x61e-0x61f (1)
     |                                               |                |            [40]{}: code 0x61f-0x62c (13)
0x610|                                             0c|               .|              size: 12 (valid) 0x61f-0x620 (1)
     |                                               |                |              code{}: 0x620-0x62c (12)
     |                                               |                |                t{}: 0x620-0x621 (1)
0x620|00                                             |.               |                  n: 0 (valid) 0x620-0x621 (1)
     |                                               |                |                  x[0:0]: 0x621-0x621 (0)
     |                                               |                |                e[0:6]: 0x621-0x62c (11)
     |                                               |                |                  [0]{}: in 0x621-0x623 (2)
0x620|   41                                          | A              |                    opcode: "i32.const" (0x41) 0x621-0x622 (1)
0x620|      00                                       |  .             |                    n: 0 (valid) 0x622-0x623 (1)
     |                                               |                |                  [1]{}: in 0x623-0x624 (1)
0x620|         00                                    |   .            |                    opcode: "unreachable" (0x0) 0x623-0x624 (1)
     |                                               |                |                  [2]{}: in 0x624-0x626 (2)
0x620|            41                                 |    A           |                    opcode: "i32.const" (0x41) 0x624-0x625 (1)
0x620|               02                              |     .          |                    n: 2 (valid) 0x625-0x626 (1)
     |                                               |                |                  [3]{}: in 0x626-0x628 (2)
0x620|                  41                           |      A         |                    opcode: "i32.const" (0x41) 0x626-0x627 (1)
0x620|                     03                        |       .        |                    n: 3 (valid) 0x627-0x628 (1)
     |                                               |                |                  [4]{}: in 0x628-0x62b (3)
0x620|                        11                     |        .       |                    opcode: "call_indirect" (0x11) 0x628-0x629 (1)
0x620|                           00                  |         .      |                    y: 0 (valid) 0x629-0x62a (1)
0x620|                              00               |          .     |                    x: 0 (valid) 0x62a-0x62b (1)
     |                                               |                |                  [5]{}: in 0x62b-0x62c (1)
0x620|                                 0b            |           .    |                    opcode: "end" (0xb) 0x62b-0x62c (1)
     |                                               |                |            [41]{}: code 0x62c-0x639 (13)
0x620|                                    0c         |            .   |              size: 12 (valid) 0x62c-0x62d (1)
     |                                               |                |              code{}: 0x62d-0x639 (12)
     |                                               |                |                t{}: 0x62d-0x62e (1)
0x620|                                       00      |             .  |                  n: 0 (valid) 0x62d-0x62e (1)
     |                                               |                |                  x[0:0]: 0x62e-0x62e (0)
     |                                               |                |                e[0:6]: 0x62e-0x639 (11)
     |                                               |                |                  [0]{}: in 0x62e-0x630 (2)
0x620|                                          41   |              A |                    opcode: "i32.const" (0x41) 0x62e-0x62f (1)
0x620|                                             00|               .|                    n: 0 (valid) 0x62f-0x630 (1)
     |                                               |                |                  [1]{}: in 0x630-0x632 (2)
0x630|41                                             |A               |                    opcode: "i32.const" (0x41) 0x630-0x631 (1)
0x630|   01                                          | .              |                    n: 1 (valid) 0x631-0x632 (1)
     |                                               |                |                  [2]{}: in 0x632-0x633 (1)
0x630|      00                                       |  .             |                    opcode: "unreachable" (0x0) 0x632-0x633 (1)
     |                                               |                |                  [3]{}: in 0x633-0x635 (2)
0x630|         41                                    |   A            |                    opcode: "i32.const" (0x41) 0x633-0x634 (1)
0x630|            03                                 |    .           |                    n: 3 (valid) 0x634-0x635 (1)
     |                                               |                |                  [4]{}: in 0x635-0x638 (3)
0x630|               11                              |     .          |                    opcode: "call_indirect" (0x11) 0x635-0x636 (1)
0x630|                  00                           |      .         |                    y: 0 (valid) 0x636-0x637 (1)
0x630|                     00                        |       .        |                    x: 0 (valid) 0x637-0x638 (1)
     |                                               |                |                  [5]{}: in 0x638-0x639 (1)
0x630|                        0b                     |        .       |                    opcode: "end" (0xb) 0x638-0x639 (1)
     |                                               |                |            [42]{}: code 0x639-0x646 (13)
0x630|                           0c                  |         .      |              size: 12 (valid) 0x639-0x63a (1)
     |                                               |                |              code{}: 0x63a-0x646 (12)
     |                                               |                |                t{}: 0x63a-0x63b (1)
0x630|                              00               |          .     |                  n: 0 (valid) 0x63a-0x63b (1)
     |                                               |                |                  x[0:0]: 0x63b-0x63b (0)
     |                                               |                |                e[0:6]: 0x63b-0x646 (11)
     |                                               |                |                  [0]{}: in 0x63b-0x63d (2)
0x630|                                 41            |           A    |                    opcode: "i32.const" (0x41) 0x63b-0x63c (1)
0x630|                                    00         |            .   |                    n: 0 (valid) 0x63c-0x63d (1)
     |                                               |                |                  [1]{}: in 0x63d-0x63f (2)
0x630|                                       41      |             A  |                    opcode: "i32.const" (0x41) 0x63d-0x63e (1)
0x630|                                          01   |              . |                    n: 1 (valid) 0x63e-0x63f (1)
     |                                               |                |                  [2]{}: in 0x63f-0x641 (2)
0x630|                                             41|               A|                    opcode: "i32.const" (0x41) 0x63f-0x640 (1)
0x640|02                                             |.               |                    n: 2 (valid) 0x640-0x641 (1)
     |                                               |                |                  [3]{}: in 0x641-0x642 (1)
0x640|   00                                          | .              |                    opcode: "unreachable" (0x0) 0x641-0x642 (1)
     |                                               |                |                  [4]{}: in 0x642-0x645 (3)
0x640|      11                                       |  .             |                    opcode: "call_indirect" (0x11) 0x642-0x643 (1)
0x640|         00                                    |   .            |                    y: 0 (valid) 0x643-0x644 (1)
0x640|            00                                 |    .           |                    x: 0 (valid) 0x644-0x645 (1)
     |                                               |                |                  [5]{}: in 0x645-0x646 (1)
0x640|               0b                              |     .          |                    opcode: "end" (0xb) 0x645-0x646 (1)
     |                                               |                |            [43]{}: code 0x646-0x64e (8)
0x640|                  07                           |      .         |              size: 7 (valid) 0x646-0x647 (1)
     |                                               |                |              code{}: 0x647-0x64e (7)
     |                                               |                |                t{}: 0x647-0x64a (3)
0x640|                     01                        |       .        |                  n: 1 (valid) 0x647-0x648 (1)
     |                                               |                |                  x[0:1]: 0x648-0x64a (2)
     |                                               |                |                    [0]{}: t 0x648-0x64a (2)
0x640|                        01                     |        .       |                      n: 1 (valid) 0x648-0x649 (1)
0x640|                           7d                  |         }      |                      t: "f32" (0x7d) 0x649-0x64a (1)
     |                                               |                |                e[0:3]: 0x64a-0x64e (4)
     |                                               |                |                  [0]{}: in 0x64a-0x64b (1)
0x640|                              00               |          .     |                    opcode: "unreachable" (0x0) 0x64a-0x64b (1)
     |                                               |                |                  [1]{}: in 0x64b-0x64d (2)
0x640|                                 21            |           !    |                    opcode: "local.set" (0x21) 0x64b-0x64c (1)
0x640|                                    00         |            .   |                    x: 0 (valid) 0x64c-0x64d (1)
     |                                               |                |                  [2]{}: in 0x64d-0x64e (1)
0x640|                                       0b      |             .  |                    opcode: "end" (0xb) 0x64d-0x64e (1)
     |                                               |                |            [44]{}: code 0x64e-0x656 (8)
0x640|                                          07   |              . |              size: 7 (valid) 0x64e-0x64f (1)
     |                                               |                |              code{}: 0x64f-0x656 (7)
     |                                               |                |                t{}: 0x64f-0x652 (3)
0x640|                                             01|               .|                  n: 1 (valid) 0x64f-0x650 (1)
     |                                               |                |                  x[0:1]: 0x650-0x652 (2)
     |                                               |                |                    [0]{}: t 0x650-0x652 (2)
0x650|01                                             |.               |                      n: 1 (valid) 0x650-0x651 (1)
0x650|   7d                                          | }              |                      t: "f32" (0x7d) 0x651-0x652 (1)
     |                                               |                |                e[0:3]: 0x652-0x656 (4)
     |                                               |                |                  [0]{}: in 0x652-0x653 (1)
0x650|      00                                       |  .             |                    opcode: "unreachable" (0x0) 0x652-0x653 (1)
     |                                               |                |                  [1]{}: in 0x653-0x655 (2)
0x650|         22                                    |   "            |                    opcode: "local.tee" (0x22) 0x653-0x654 (1)
0x650|            00                                 |    .           |                    x: 0 (valid) 0x654-0x655 (1)
     |                                               |                |                  [2]{}: in 0x655-0x656 (1)
0x650|               0b                              |     .          |                    opcode: "end" (0xb) 0x655-0x656 (1)
     |                                               |                |            [45]{}: code 0x656-0x65c (6)
0x650|                  05                           |      .         |              size: 5 (valid) 0x656-0x657 (1)
     |                                               |                |              code{}: 0x657-0x65c (5)
     |                                               |                |                t{}: 0x657-0x658 (1)
0x650|                     00                        |       .        |                  n: 0 (valid) 0x657-0x658 (1)
     |                                               |                |                  x[0:0]: 0x658-0x658 (0)
     |                                               |                |                e[0:3]: 0x658-0x65c (4)
     |                                               |                |                  [0]{}: in 0x658-0x659 (1)
0x650|                        00                     |        .       |                    opcode: "unreachable" (0x0) 0x658-0x659 (1)
     |                                               |                |                  [1]{}: in 0x659-0x65b (2)
0x650|                           24                  |         $      |                    opcode: "global.set" (0x24) 0x659-0x65a (1)
0x650|                              00               |          .     |                    x: 0 (valid) 0x65a-0x65b (1)
     |                                               |                |                  [2]{}: in 0x65b-0x65c (1)
0x650|                                 0b            |           .    |                    opcode: "end" (0xb) 0x65b-0x65c (1)
     |                                               |                |            [46]{}: code 0x65c-0x663 (7)
0x650|                                    06         |            .   |              size: 6 (valid) 0x65c-0x65d (1)
     |                                               |                |              code{}: 0x65d-0x663 (6)
     |                                               |                |                t{}: 0x65d-0x65e (1)
0x650|                                       00      |             .  |                  n: 0 (valid) 0x65d-0x65e (1)
     |                                               |                |                  x[0:0]: 0x65e-0x65e (0)
     |                                               |                |                e[0:3]: 0x65e-0x663 (5)
     |                                               |                |                  [0]{}: in 0x65e-0x65f (1)
0x650|                                          00   |              . |                    opcode: "unreachable" (0x0) 0x65e-0x65f (1)
     |                                               |                |                  [1]{}: in 0x65f-0x662 (3)
0x650|                                             2a|               *|                    opcode: "f32.load" (0x2a) 0x65f-0x660 (1)
     |                                               |                |                    m{}: 0x660-0x662 (2)
0x660|02                                             |.               |                      a: 2 (valid) 0x660-0x661 (1)
0x660|   00                                          | .              |                      o: 0 (valid) 0x661-0x662 (1)
     |                                               |                |                  [2]{}: in 0x662-0x663 (1)
0x660|      0b                                       |  .             |                    opcode: "end" (0xb) 0x662-0x663 (1)
     |                                               |                |            [47]{}: code 0x663-0x66a (7)
0x660|         06                                    |   .            |              size: 6 (valid) 0x663-0x664 (1)
     |                                               |                |              code{}: 0x664-0x66a (6)
     |                                               |                |                t{}: 0x664-0x665 (1)
0x660|            00                                 |    .           |                  n: 0 (valid) 0x664-0x665 (1)
     |                                               |                |                  x[0:0]: 0x665-0x665 (0)
     |                                               |                |                e[0:3]: 0x665-0x66a (5)
     |                                               |                |                  [0]{}: in 0x665-0x666 (1)
0x660|               00                              |     .          |                    opcode: "unreachable" (0x0) 0x665-0x666 (1)
     |                                               |                |                  [1]{}: in 0x666-0x669 (3)
0x660|                  30                           |      0         |                    opcode: "i64.load8_s" (0x30) 0x666-0x667 (1)
     |                                               |                |                    m{}: 0x667-0x669 (2)
0x660|                     00                        |       .        |                      a: 0 (valid) 0x667-0x668 (1)
0x660|                        00                     |        .       |                      o: 0 (valid) 0x668-0x669 (1)
     |                                               |                |                  [2]{}: in 0x669-0x66a (1)
0x660|                           0b                  |         .      |                    opcode: "end" (0xb) 0x669-0x66a (1)
     |                                               |                |            [48]{}: code 0x66a-0x67a (16)
0x660|                              0f               |          .     |              size: 15 (valid) 0x66a-0x66b (1)
     |                                               |                |              code{}: 0x66b-0x67a (15)
     |                                               |                |                t{}: 0x66b-0x66c (1)
0x660|                                 00            |           .    |                  n: 0 (valid) 0x66b-0x66c (1)
     |                                               |                |                  x[0:0]: 0x66c-0x66c (0)
     |                                               |                |                e[0:4]: 0x66c-0x67a (14)
     |                                               |                |                  [0]{}: in 0x66c-0x66d (1)
0x660|                                    00         |            .   |                    opcode: "unreachable" (0x0) 0x66c-0x66d (1)
     |                                               |                |                  [1]{}: in 0x66d-0x676 (9)
0x660|                                       44      |             D  |                    opcode: "f64.const" (0x44) 0x66d-0x66e (1)
0x660|                                          00 00|              ..|                    z: 7 0x66e-0x676 (8)
0x670|00 00 00 00 1c 40                              |.....@          |
     |                                               |                |                  [2]{}: in 0x676-0x679 (3)
0x670|                  39                           |      9         |                    opcode: "f64.store" (0x39) 0x676-0x677 (1)
     |                                               |                |                    m{}: 0x677-0x679 (2)
0x670|                     03                        |       .        |                      a: 3 (valid) 0x677-0x678 (1)
0x670|                        00                     |        .       |                      o: 0 (valid) 0x678-0x679 (1)
     |                                               |                |                  [3]{}: in 0x679-0x67a (1)
0x670|                           0b                  |         .      |                    opcode: "end" (0xb) 0x679-0x67a (1)
     |                                               |                |            [49]{}: code 0x67a-0x683 (9)
0x670|                              08               |          .     |              size: 8 (valid) 0x67a-0x67b (1)
     |                                               |                |              code{}: 0x67b-0x683 (8)
     |                                               |                |                t{}: 0x67b-0x67c (1)
0x670|                                 00            |           .    |                  n: 0 (valid) 0x67b-0x67c (1)
     |                                               |                |                  x[0:0]: 0x67c-0x67c (0)
     |                                               |                |                e[0:4]: 0x67c-0x683 (7)
     |                                               |                |                  [0]{}: in 0x67c-0x67e (2)
0x670|                                    41         |            A   |                    opcode: "i32.const" (0x41) 0x67c-0x67d (1)
0x670|                                       02      |             .  |                    n: 2 (valid) 0x67d-0x67e (1)
     |                                               |                |                  [1]{}: in 0x67e-0x67f (1)
0x670|                                          00   |              . |                    opcode: "unreachable" (0x0) 0x67e-0x67f (1)
     |                                               |                |                  [2]{}: in 0x67f-0x682 (3)
0x670|                                             37|               7|                    opcode: "i64.store" (0x37) 0x67f-0x680 (1)
     |                                               |                |                    m{}: 0x680-0x682 (2)
0x680|03                                             |.               |                      a: 3 (valid) 0x680-0x681 (1)
0x680|   00                                          | .              |                      o: 0 (valid) 0x681-0x682 (1)
     |                                               |                |                  [3]{}: in 0x682-0x683 (1)
0x680|      0b                                       |  .             |                    opcode: "end" (0xb) 0x682-0x683 (1)
     |                                               |                |            [50]{}: code 0x683-0x68c (9)
0x680|         08                                    |   .            |              size: 8 (valid) 0x683-0x684 (1)
     |                                               |                |              code{}: 0x684-0x68c (8)
     |                                               |                |                t{}: 0x684-0x685 (1)
0x680|            00                                 |    .           |                  n: 0 (valid) 0x684-0x685 (1)
     |                                               |                |                  x[0:0]: 0x685-0x685 (0)
     |                                               |                |                e[0:4]: 0x685-0x68c (7)
     |                                               |                |                  [0]{}: in 0x685-0x686 (1)
0x680|               00                              |     .          |                    opcode: "unreachable" (0x0) 0x685-0x686 (1)
     |                                               |                |                  [1]{}: in 0x686-0x688 (2)
0x680|                  41                           |      A         |                    opcode: "i32.const" (0x41) 0x686-0x687 (1)
0x680|                     07                        |       .        |                    n: 7 (valid) 0x687-0x688 (1)
     |                                               |                |                  [2]{}: in 0x688-0x68b (3)
0x680|                        3a                     |        :       |                    opcode: "i32.store8" (0x3a) 0x688-0x689 (1)
     |                                               |                |                    m{}: 0x689-0x68b (2)
0x680|                           00                  |         .      |                      a: 0 (valid) 0x689-0x68a (1)
0x680|                              00               |          .     |                      o: 0 (valid) 0x68a-0x68b (1)
     |                                               |                |                  [3]{}: in 0x68b-0x68c (1)
0x680|                                 0b            |           .    |                    opcode: "end" (0xb) 0x68b-0x68c (1)
     |                                               |                |            [51]{}: code 0x68c-0x695 (9)
0x680|                                    08         |            .   |              size: 8 (valid) 0x68c-0x68d (1)
     |                                               |                |              code{}: 0x68d-0x695 (8)
     |                                               |                |                t{}: 0x68d-0x68e (1)
0x680|                                       00      |             .  |                  n: 0 (valid) 0x68d-0x68e (1)
     |                                               |                |                  x[0:0]: 0x68e-0x68e (0)
     |                                               |                |                e[0:4]: 0x68e-0x695 (7)
     |                                               |                |                  [0]{}: in 0x68e-0x690 (2)
0x680|                                          41   |              A |                    opcode: "i32.const" (0x41) 0x68e-0x68f (1)
0x680|                                             02|               .|                    n: 2 (valid) 0x68f-0x690 (1)
     |                                               |                |                  [1]{}: in 0x690-0x691 (1)
0x690|00                                             |.               |                    opcode: "unreachable" (0x0) 0x690-0x691 (1)
     |                                               |                |                  [2]{}: in 0x691-0x694 (3)
0x690|   3d                                          | =              |                    opcode: "i64.store16" (0x3d) 0x691-0x692 (1)
     |                                               |                |                    m{}: 0x692-0x694 (2)
0x690|      01                                       |  .             |                      a: 1 (valid) 0x692-0x693 (1)
0x690|         00                                    |   .            |                      o: 0 (valid) 0x693-0x694 (1)
     |                                               |                |                  [3]{}: in 0x694-0x695 (1)
0x690|            0b                                 |    .           |                    opcode: "end" (0xb) 0x694-0x695 (1)
     |                                               |                |            [52]{}: code 0x695-0x69a (5)
0x690|               04                              |     .          |              size: 4 (valid) 0x695-0x696 (1)
     |                                               |                |              code{}: 0x696-0x69a (4)
     |                                               |                |                t{}: 0x696-0x697 (1)
0x690|                  00                           |      .         |                  n: 0 (valid) 0x696-0x697 (1)
     |                                               |                |                  x[0:0]: 0x697-0x697 (0)
     |                                               |                |                e[0:3]: 0x697-0x69a (3)
     |                                               |                |                  [0]{}: in 0x697-0x698 (1)
0x690|                     00                        |       .        |                    opcode: "unreachable" (0x0) 0x697-0x698 (1)
     |                                               |                |                  [1]{}: in 0x698-0x699 (1)
0x690|                        8c                     |        .       |                    opcode: "f32.neg" (0x8c) 0x698-0x699 (1)
     |                                               |                |                  [2]{}: in 0x699-0x69a (1)
0x690|                           0b                  |         .      |                    opcode: "end" (0xb) 0x699-0x69a (1)
     |                                               |                |            [53]{}: code 0x69a-0x6a1 (7)
0x690|                              06               |          .     |              size: 6 (valid) 0x69a-0x69b (1)
     |                                               |                |              code{}: 0x69b-0x6a1 (6)
     |                                               |                |                t{}: 0x69b-0x69c (1)
0x690|                                 00            |           .    |                  n: 0 (valid) 0x69b-0x69c (1)
     |                                               |                |                  x[0:0]: 0x69c-0x69c (0)
     |                                               |                |                e[0:4]: 0x69c-0x6a1 (5)
     |                                               |                |                  [0]{}: in 0x69c-0x69d (1)
0x690|                                    00         |            .   |                    opcode: "unreachable" (0x0) 0x69c-0x69d (1)
     |                                               |                |                  [1]{}: in 0x69d-0x69f (2)
0x690|                                       41      |             A  |                    opcode: "i32.const" (0x41) 0x69d-0x69e (1)
0x690|                                          0a   |              . |                    n: 10 (valid) 0x69e-0x69f (1)
     |                                               |                |                  [2]{}: in 0x69f-0x6a0 (1)
0x690|                                             6a|               j|                    opcode: "i32.add" (0x6a) 0x69f-0x6a0 (1)
     |                                               |                |                  [3]{}: in 0x6a0-0x6a1 (1)
0x6a0|0b                                             |.               |                    opcode: "end" (0xb) 0x6a0-0x6a1 (1)
     |                                               |                |            [54]{}: code 0x6a1-0x6a8 (7)
0x6a0|   06                                          | .              |              size: 6 (valid) 0x6a1-0x6a2 (1)
     |                                               |                |              code{}: 0x6a2-0x6a8 (6)
     |                                               |                |                t{}: 0x6a2-0x6a3 (1)
0x6a0|      00                                       |  .             |                  n: 0 (valid) 0x6a2-0x6a3 (1)
     |                                               |                |                  x[0:0]: 0x6a3-0x6a3 (0)
     |                                               |                |                e[0:4]: 0x6a3-0x6a8 (5)
     |                                               |                |                  [0]{}: in 0x6a3-0x6a5 (2)
0x6a0|         42                                    |   B            |                    opcode: "i64.const" (0x42) 0x6a3-0x6a4 (1)
0x6a0|            0a                                 |    .           |                    n: 10 0x6a4-0x6a5 (1)
     |                                               |                |                  [1]{}: in 0x6a5-0x6a6 (1)
0x6a0|               00                              |     .          |                    opcode: "unreachable" (0x0) 0x6a5-0x6a6 (1)
     |                                               |                |                  [2]{}: in 0x6a6-0x6a7 (1)
0x6a0|                  7d                           |      }         |                    opcode: "i64.sub" (0x7d) 0x6a6-0x6a7 (1)
     |                                               |                |                  [3]{}: in 0x6a7-0x6a8 (1)
0x6a0|                     0b                        |       .        |                    opcode: "end" (0xb) 0x6a7-0x6a8 (1)
     |                                               |                |            [55]{}: code 0x6a8-0x6ad (5)
0x6a0|                        04                     |        .       |              size: 4 (valid) 0x6a8-0x6a9 (1)
     |                                               |                |              code{}: 0x6a9-0x6ad (4)
     |                                               |                |                t{}: 0x6a9-0x6aa (1)
0x6a0|                           00                  |         .      |                  n: 0 (valid) 0x6a9-0x6aa (1)
     |                                               |                |                  x[0:0]: 0x6aa-0x6aa (0)
     |                                               |                |                e[0:3]: 0x6aa-0x6ad (3)
     |                                               |                |                  [0]{}: in 0x6aa-0x6ab (1)
0x6a0|                              00               |          .     |                    opcode: "unreachable" (0x0) 0x6aa-0x6ab (1)
     |                                               |                |                  [1]{}: in 0x6ab-0x6ac (1)
0x6a0|                                 45            |           E    |                    opcode: "32.eqz" (0x45) 0x6ab-0x6ac (1)
     |                                               |                |                  [2]{}: in 0x6ac-0x6ad (1)
0x6a0|                                    0b         |            .   |                    opcode: "end" (0xb) 0x6ac-0x6ad (1)
     |                                               |                |            [56]{}: code 0x6ad-0x6bb (14)
0x6a0|                                       0d      |             .  |              size: 13 (valid) 0x6ad-0x6ae (1)
     |                                               |                |              code{}: 0x6ae-0x6bb (13)
     |                                               |                |                t{}: 0x6ae-0x6af (1)
0x6a0|                                          00   |              . |                  n: 0 (valid) 0x6ae-0x6af (1)
     |                                               |                |                  x[0:0]: 0x6af-0x6af (0)
     |                                               |                |                e[0:4]: 0x6af-0x6bb (12)
     |                                               |                |                  [0]{}: in 0x6af-0x6b0 (1)
0x6a0|                                             00|               .|                    opcode: "unreachable" (0x0) 0x6af-0x6b0 (1)
     |                                               |                |                  [1]{}: in 0x6b0-0x6b9 (9)
0x6b0|44                                             |D               |                    opcode: "f64.const" (0x44) 0x6b0-0x6b1 (1)
0x6b0|   00 00 00 00 00 00 24 40                     | ......$@       |                    z: 10 0x6b1-0x6b9 (8)
     |                                               |                |                  [2]{}: in 0x6b9-0x6ba (1)
0x6b0|                           65                  |         e      |                    opcode: "f64.le" (0x65) 0x6b9-0x6ba (1)
     |                                               |                |                  [3]{}: in 0x6ba-0x6bb (1)
0x6b0|                              0b               |          .     |                    opcode: "end" (0xb) 0x6ba-0x6bb (1)
     |                                               |                |            [57]{}: code 0x6bb-0x6c5 (10)
0x6b0|                                 09            |           .    |              size: 9 (valid) 0x6bb-0x6bc (1)
     |                                               |                |              code{}: 0x6bc-0x6c5 (9)
     |                                               |                |                t{}: 0x6bc-0x6bd (1)
0x6b0|                                    00         |            .   |                  n: 0 (valid) 0x6bc-0x6bd (1)
     |                                               |                |                  x[0:0]: 0x6bd-0x6bd (0)
     |                                               |                |                e[0:4]: 0x6bd-0x6c5 (8)
     |                                               |                |                  [0]{}: in 0x6bd-0x6c2 (5)
0x6b0|                                       43      |             C  |                    opcode: "f32.const" (0x43) 0x6bd-0x6be (1)
0x6b0|                                          00 00|              ..|                    z: 10 0x6be-0x6c2 (4)
0x6c0|20 41                                          | A              |
     |                                               |                |                  [1]{}: in 0x6c2-0x6c3 (1)
0x6c0|      00                                       |  .             |                    opcode: "unreachable" (0x0) 0x6c2-0x6c3 (1)
     |                                               |                |                  [2]{}: in 0x6c3-0x6c4 (1)
0x6c0|         5c                                    |   \            |                    opcode: "f32.ne" (0x5c) 0x6c3-0x6c4 (1)
     |                                               |                |                  [3]{}: in 0x6c4-0x6c5 (1)
0x6c0|            0b                                 |    .           |                    opcode: "end" (0xb) 0x6c4-0x6c5 (1)
     |                                               |                |            [58]{}: code 0x6c5-0x6ca (5)
0x6c0|               04                              |     .          |              size: 4 (valid) 0x6c5-0x6c6 (1)
     |                                               |                |              code{}: 0x6c6-0x6ca (4)
     |                                               |                |                t{}: 0x6c6-0x6c7 (1)
0x6c0|                  00                           |      .         |                  n: 0 (valid) 0x6c6-0x6c7 (1)
     |                                               |                |                  x[0:0]: 0x6c7-0x6c7 (0)
     |                                               |                |                e[0:3]: 0x6c7-0x6ca (3)
     |                                               |                |                  [0]{}: in 0x6c7-0x6c8 (1)
0x6c0|                     00                        |       .        |                    opcode: "unreachable" (0x0) 0x6c7-0x6c8 (1)
     |                                               |                |                  [1]{}: in 0x6c8-0x6c9 (1)
0x6c0|                        a7                     |        .       |                    opcode: "i32.wrap_i64" (0xa7) 0x6c8-0x6c9 (1)
     |                                               |                |                  [2]{}: in 0x6c9-0x6ca (1)
0x6c0|                           0b                  |         .      |                    opcode: "end" (0xb) 0x6c9-0x6ca (1)
     |                                               |                |            [59]{}: code 0x6ca-0x6d0 (6)
0x6c0|                              05               |          .     |              size: 5 (valid) 0x6ca-0x6cb (1)
     |                                               |                |              code{}: 0x6cb-0x6d0 (5)
     |                                               |                |                t{}: 0x6cb-0x6cc (1)
0x6c0|                                 00            |           .    |                  n: 0 (valid) 0x6cb-0x6cc (1)
     |                                               |                |                  x[0:0]: 0x6cc-0x6cc (0)
     |                                               |                |                e[0:3]: 0x6cc-0x6d0 (4)
     |                                               |                |                  [0]{}: in 0x6cc-0x6cd (1)
0x6c0|                                    00         |            .   |                    opcode: "unreachable" (0x0) 0x6cc-0x6cd (1)
     |                                               |                |                  [1]{}: in 0x6cd-0x6cf (2)
0x6c0|                                       40      |             @  |                    opcode: "memory.grow" (0x40) 0x6cd-0x6ce (1)
0x6c0|                                          00   |              . |                    reserved: 0x0 (valid) 0x6ce-0x6cf (1)
     |                                               |                |                  [2]{}: in 0x6cf-0x6d0 (1)
0x6c0|                                             0b|               .|                    opcode: "end" (0xb) 0x6cf-0x6d0 (1)
