$ fq -d wasm dv unreachable-0.wasm
     |00 01 02 03 04 05 06 07 08 09 0a 0b 0c 0d 0e 0f|0123456789abcdef|.{}: unreachable-0.wasm (wasm) 0x0-0x6cf.7 (1744)
0x000|00 61 73 6d                                    |.asm            |  magic: raw bits (valid) 0x0-0x3.7 (4)
0x000|            01 00 00 00                        |    ....        |  version: 1 0x4-0x7.7 (4)
     |                                               |                |  sections[0:8]: 0x8-0x6cf.7 (1736)
     |                                               |                |    [0]{}: section 0x8-0x29.7 (34)
0x000|                        01                     |        .       |      id: "type section" (1) 0x8-0x8.7 (1)
0x000|                           20                  |                |      size: 32 0x9-0x9.7 (1)
     |                                               |                |      content{}: 0xa-0x29.7 (32)
     |                                               |                |        ft{}: 0xa-0x29.7 (32)
0x000|                              07               |          .     |          n: 7 0xa-0xa.7 (1)
     |                                               |                |          x[0:7]: 0xb-0x29.7 (31)
     |                                               |                |            [0]{}: ft 0xb-0x10.7 (6)
0x000|                                 60            |           `    |              tag: 0x60 (valid) 0xb-0xb.7 (1)
     |                                               |                |              rt1{}: 0xc-0xf.7 (4)
0x000|                                    03         |            .   |                n: 3 0xc-0xc.7 (1)
     |                                               |                |                x[0:3]: 0xd-0xf.7 (3)
0x000|                                       7f      |             .  |                  [0]: "i32" (0x7f) t 0xd-0xd.7 (1)
0x000|                                          7f   |              . |                  [1]: "i32" (0x7f) t 0xe-0xe.7 (1)
0x000|                                             7f|               .|                  [2]: "i32" (0x7f) t 0xf-0xf.7 (1)
     |                                               |                |              rt2{}: 0x10-0x10.7 (1)
0x010|00                                             |.               |                n: 0 0x10-0x10.7 (1)
     |                                               |                |                x[0:0]: 0x11-NA (0)
     |                                               |                |            [1]{}: ft 0x11-0x13.7 (3)
0x010|   60                                          | `              |              tag: 0x60 (valid) 0x11-0x11.7 (1)
     |                                               |                |              rt1{}: 0x12-0x12.7 (1)
0x010|      00                                       |  .             |                n: 0 0x12-0x12.7 (1)
     |                                               |                |                x[0:0]: 0x13-NA (0)
     |                                               |                |              rt2{}: 0x13-0x13.7 (1)
0x010|         00                                    |   .            |                n: 0 0x13-0x13.7 (1)
     |                                               |                |                x[0:0]: 0x14-NA (0)
     |                                               |                |            [2]{}: ft 0x14-0x17.7 (4)
0x010|            60                                 |    `           |              tag: 0x60 (valid) 0x14-0x14.7 (1)
     |                                               |                |              rt1{}: 0x15-0x15.7 (1)
0x010|               00                              |     .          |                n: 0 0x15-0x15.7 (1)
     |                                               |                |                x[0:0]: 0x16-NA (0)
     |                                               |                |              rt2{}: 0x16-0x17.7 (2)
0x010|                  01                           |      .         |                n: 1 0x16-0x16.7 (1)
     |                                               |                |                x[0:1]: 0x17-0x17.7 (1)
0x010|                     7f                        |       .        |                  [0]: "i32" (0x7f) t 0x17-0x17.7 (1)
     |                                               |                |            [3]{}: ft 0x18-0x1b.7 (4)
0x010|                        60                     |        `       |              tag: 0x60 (valid) 0x18-0x18.7 (1)
     |                                               |                |              rt1{}: 0x19-0x19.7 (1)
0x010|                           00                  |         .      |                n: 0 0x19-0x19.7 (1)
     |                                               |                |                x[0:0]: 0x1a-NA (0)
     |                                               |                |              rt2{}: 0x1a-0x1b.7 (2)
0x010|                              01               |          .     |                n: 1 0x1a-0x1a.7 (1)
     |                                               |                |                x[0:1]: 0x1b-0x1b.7 (1)
0x010|                                 7c            |           |    |                  [0]: "f64" (0x7c) t 0x1b-0x1b.7 (1)
     |                                               |                |            [4]{}: ft 0x1c-0x1f.7 (4)
0x010|                                    60         |            `   |              tag: 0x60 (valid) 0x1c-0x1c.7 (1)
     |                                               |                |              rt1{}: 0x1d-0x1d.7 (1)
0x010|                                       00      |             .  |                n: 0 0x1d-0x1d.7 (1)
     |                                               |                |                x[0:0]: 0x1e-NA (0)
     |                                               |                |              rt2{}: 0x1e-0x1f.7 (2)
0x010|                                          01   |              . |                n: 1 0x1e-0x1e.7 (1)
     |                                               |                |                x[0:1]: 0x1f-0x1f.7 (1)
0x010|                                             7e|               ~|                  [0]: "i64" (0x7e) t 0x1f-0x1f.7 (1)
     |                                               |                |            [5]{}: ft 0x20-0x25.7 (6)
0x020|60                                             |`               |              tag: 0x60 (valid) 0x20-0x20.7 (1)
     |                                               |                |              rt1{}: 0x21-0x23.7 (3)
0x020|   02                                          | .              |                n: 2 0x21-0x21.7 (1)
     |                                               |                |                x[0:2]: 0x22-0x23.7 (2)
0x020|      7f                                       |  .             |                  [0]: "i32" (0x7f) t 0x22-0x22.7 (1)
0x020|         7f                                    |   .            |                  [1]: "i32" (0x7f) t 0x23-0x23.7 (1)
     |                                               |                |              rt2{}: 0x24-0x25.7 (2)
0x020|            01                                 |    .           |                n: 1 0x24-0x24.7 (1)
     |                                               |                |                x[0:1]: 0x25-0x25.7 (1)
0x020|               7f                              |     .          |                  [0]: "i32" (0x7f) t 0x25-0x25.7 (1)
     |                                               |                |            [6]{}: ft 0x26-0x29.7 (4)
0x020|                  60                           |      `         |              tag: 0x60 (valid) 0x26-0x26.7 (1)
     |                                               |                |              rt1{}: 0x27-0x27.7 (1)
0x020|                     00                        |       .        |                n: 0 0x27-0x27.7 (1)
     |                                               |                |                x[0:0]: 0x28-NA (0)
     |                                               |                |              rt2{}: 0x28-0x29.7 (2)
0x020|                        01                     |        .       |                n: 1 0x28-0x28.7 (1)
     |                                               |                |                x[0:1]: 0x29-0x29.7 (1)
0x020|                           7d                  |         }      |                  [0]: "f32" (0x7d) t 0x29-0x29.7 (1)
     |                                               |                |    [1]{}: section 0x2a-0x68.7 (63)
0x020|                              03               |          .     |      id: "function section" (3) 0x2a-0x2a.7 (1)
0x020|                                 3d            |           =    |      size: 61 0x2b-0x2b.7 (1)
     |                                               |                |      content{}: 0x2c-0x68.7 (61)
     |                                               |                |        x{}: 0x2c-0x68.7 (61)
0x020|                                    3c         |            <   |          n: 60 0x2c-0x2c.7 (1)
     |                                               |                |          x[0:60]: 0x2d-0x68.7 (60)
0x020|                                       01      |             .  |            [0]: 1 x 0x2d-0x2d.7 (1)
0x020|                                          00   |              . |            [1]: 0 x 0x2e-0x2e.7 (1)
0x020|                                             02|               .|            [2]: 2 x 0x2f-0x2f.7 (1)
0x030|02                                             |.               |            [3]: 2 x 0x30-0x30.7 (1)
0x030|   03                                          | .              |            [4]: 3 x 0x31-0x31.7 (1)
0x030|      03                                       |  .             |            [5]: 3 x 0x32-0x32.7 (1)
0x030|         02                                    |   .            |            [6]: 2 x 0x33-0x33.7 (1)
0x030|            02                                 |    .           |            [7]: 2 x 0x34-0x34.7 (1)
0x030|               01                              |     .          |            [8]: 1 x 0x35-0x35.7 (1)
0x030|                  02                           |      .         |            [9]: 2 x 0x36-0x36.7 (1)
0x030|                     02                        |       .        |            [10]: 2 x 0x37-0x37.7 (1)
0x030|                        02                     |        .       |            [11]: 2 x 0x38-0x38.7 (1)
0x030|                           01                  |         .      |            [12]: 1 x 0x39-0x39.7 (1)
0x030|                              02               |          .     |            [13]: 2 x 0x3a-0x3a.7 (1)
0x030|                                 02            |           .    |            [14]: 2 x 0x3b-0x3b.7 (1)
0x030|                                    02         |            .   |            [15]: 2 x 0x3c-0x3c.7 (1)
0x030|                                       02      |             .  |            [16]: 2 x 0x3d-0x3d.7 (1)
0x030|                                          01   |              . |            [17]: 1 x 0x3e-0x3e.7 (1)
0x030|                                             02|               .|            [18]: 2 x 0x3f-0x3f.7 (1)
0x040|02                                             |.               |            [19]: 2 x 0x40-0x40.7 (1)
0x040|   01                                          | .              |            [20]: 1 x 0x41-0x41.7 (1)
0x040|      02                                       |  .             |            [21]: 2 x 0x42-0x42.7 (1)
0x040|         02                                    |   .            |            [22]: 2 x 0x43-0x43.7 (1)
0x040|            01                                 |    .           |            [23]: 1 x 0x44-0x44.7 (1)
0x040|               02                              |     .          |            [24]: 2 x 0x45-0x45.7 (1)
0x040|                  02                           |      .         |            [25]: 2 x 0x46-0x46.7 (1)
0x040|                     02                        |       .        |            [26]: 2 x 0x47-0x47.7 (1)
0x040|                        02                     |        .       |            [27]: 2 x 0x48-0x48.7 (1)
0x040|                           04                  |         .      |            [28]: 4 x 0x49-0x49.7 (1)
0x040|                              02               |          .     |            [29]: 2 x 0x4a-0x4a.7 (1)
0x040|                                 05            |           .    |            [30]: 5 x 0x4b-0x4b.7 (1)
0x040|                                    05         |            .   |            [31]: 5 x 0x4c-0x4c.7 (1)
0x040|                                       05      |             .  |            [32]: 5 x 0x4d-0x4d.7 (1)
0x040|                                          05   |              . |            [33]: 5 x 0x4e-0x4e.7 (1)
0x040|                                             05|               .|            [34]: 5 x 0x4f-0x4f.7 (1)
0x050|02                                             |.               |            [35]: 2 x 0x50-0x50.7 (1)
0x050|   01                                          | .              |            [36]: 1 x 0x51-0x51.7 (1)
0x050|      01                                       |  .             |            [37]: 1 x 0x52-0x52.7 (1)
0x050|         01                                    |   .            |            [38]: 1 x 0x53-0x53.7 (1)
0x050|            01                                 |    .           |            [39]: 1 x 0x54-0x54.7 (1)
0x050|               01                              |     .          |            [40]: 1 x 0x55-0x55.7 (1)
0x050|                  01                           |      .         |            [41]: 1 x 0x56-0x56.7 (1)
0x050|                     01                        |       .        |            [42]: 1 x 0x57-0x57.7 (1)
0x050|                        01                     |        .       |            [43]: 1 x 0x58-0x58.7 (1)
0x050|                           06                  |         .      |            [44]: 6 x 0x59-0x59.7 (1)
0x050|                              06               |          .     |            [45]: 6 x 0x5a-0x5a.7 (1)
0x050|                                 06            |           .    |            [46]: 6 x 0x5b-0x5b.7 (1)
0x050|                                    04         |            .   |            [47]: 4 x 0x5c-0x5c.7 (1)
0x050|                                       01      |             .  |            [48]: 1 x 0x5d-0x5d.7 (1)
0x050|                                          01   |              . |            [49]: 1 x 0x5e-0x5e.7 (1)
0x050|                                             01|               .|            [50]: 1 x 0x5f-0x5f.7 (1)
0x060|01                                             |.               |            [51]: 1 x 0x60-0x60.7 (1)
0x060|   06                                          | .              |            [52]: 6 x 0x61-0x61.7 (1)
0x060|      02                                       |  .             |            [53]: 2 x 0x62-0x62.7 (1)
0x060|         04                                    |   .            |            [54]: 4 x 0x63-0x63.7 (1)
0x060|            02                                 |    .           |            [55]: 2 x 0x64-0x64.7 (1)
0x060|               02                              |     .          |            [56]: 2 x 0x65-0x65.7 (1)
0x060|                  02                           |      .         |            [57]: 2 x 0x66-0x66.7 (1)
0x060|                     02                        |       .        |            [58]: 2 x 0x67-0x67.7 (1)
0x060|                        02                     |        .       |            [59]: 2 x 0x68-0x68.7 (1)
     |                                               |                |    [2]{}: section 0x69-0x6f.7 (7)
0x060|                           04                  |         .      |      id: "table section" (4) 0x69-0x69.7 (1)
0x060|                              05               |          .     |      size: 5 0x6a-0x6a.7 (1)
     |                                               |                |      content{}: 0x6b-0x6f.7 (5)
     |                                               |                |        tab{}: 0x6b-0x6f.7 (5)
0x060|                                 01            |           .    |          n: 1 0x6b-0x6b.7 (1)
     |                                               |                |          x[0:1]: 0x6c-0x6f.7 (4)
     |                                               |                |            [0]{}: tab 0x6c-0x6f.7 (4)
0x060|                                    70         |            p   |              et: "funcref" (112) 0x6c-0x6c.7 (1)
     |                                               |                |              lim{}: 0x6d-0x6f.7 (3)
0x060|                                       01      |             .  |                tag: 0x1 0x6d-0x6d.7 (1)
0x060|                                          01   |              . |                n: 1 0x6e-0x6e.7 (1)
0x060|                                             01|               .|                m: 1 0x6f-0x6f.7 (1)
     |                                               |                |    [3]{}: section 0x70-0x74.7 (5)
0x070|05                                             |.               |      id: "memory section" (5) 0x70-0x70.7 (1)
0x070|   03                                          | .              |      size: 3 0x71-0x71.7 (1)
     |                                               |                |      content{}: 0x72-0x74.7 (3)
     |                                               |                |        mem{}: 0x72-0x74.7 (3)
0x070|      01                                       |  .             |          n: 1 0x72-0x72.7 (1)
     |                                               |                |          x[0:1]: 0x73-0x74.7 (2)
     |                                               |                |            [0]{}: mem 0x73-0x74.7 (2)
     |                                               |                |              lim{}: 0x73-0x74.7 (2)
0x070|         00                                    |   .            |                tag: 0x0 0x73-0x73.7 (1)
0x070|            01                                 |    .           |                n: 1 0x74-0x74.7 (1)
     |                                               |                |    [4]{}: section 0x75-0x7f.7 (11)
0x070|               06                              |     .          |      id: "global section" (6) 0x75-0x75.7 (1)
0x070|                  09                           |      .         |      size: 9 0x76-0x76.7 (1)
     |                                               |                |      content{}: 0x77-0x7f.7 (9)
     |                                               |                |        glob{}: 0x77-0x7f.7 (9)
0x070|                     01                        |       .        |          n: 1 0x77-0x77.7 (1)
     |                                               |                |          x[0:1]: 0x78-0x7f.7 (8)
     |                                               |                |            [0]{}: glob 0x78-0x7f.7 (8)
     |                                               |                |              gt{}: 0x78-0x79.7 (2)
0x070|                        7d                     |        }       |                t: "f32" (0x7d) 0x78-0x78.7 (1)
0x070|                           01                  |         .      |                m: "var" (1) 0x79-0x79.7 (1)
     |                                               |                |              e[0:2]: 0x7a-0x7f.7 (6)
     |                                               |                |                [0]{}: in 0x7a-0x7e.7 (5)
0x070|                              43               |          C     |                  f32.const: 0x43 (valid) 0x7a-0x7a.7 (1)
0x070|                                 00 00 00 00   |           .... |                  z: 0 0x7b-0x7e.7 (4)
     |                                               |                |                [1]{}: in 0x7f-0x7f.7 (1)
0x070|                                             0b|               .|                  end: 0xb (valid) 0x7f-0x7f.7 (1)
     |                                               |                |    [5]{}: section 0x80-0x48e.7 (1039)
0x080|07                                             |.               |      id: "export section" (7) 0x80-0x80.7 (1)
0x080|   8c 08                                       | ..             |      size: 1036 0x81-0x82.7 (2)
     |                                               |                |      content{}: 0x83-0x48e.7 (1036)
     |                                               |                |        ex{}: 0x83-0x48e.7 (1036)
0x080|         3a                                    |   :            |          n: 58 0x83-0x83.7 (1)
     |                                               |                |          x[0:58]: 0x84-0x48e.7 (1035)
     |                                               |                |            [0]{}: ex 0x84-0x8e.7 (11)
     |                                               |                |              nm{}: 0x84-0x8c.7 (9)
0x080|            08                                 |    .           |                n: 8 0x84-0x84.7 (1)
0x080|               74 79 70 65 2d 69 33 32         |     type-i32   |                b: "type-i32" 0x85-0x8c.7 (8)
     |                                               |                |              d{}: 0x8d-0x8e.7 (2)
0x080|                                       00      |             .  |                tag: "funcidx" (0x0) 0x8d-0x8d.7 (1)
0x080|                                          02   |              . |                x: 2 0x8e-0x8e.7 (1)
     |                                               |                |            [1]{}: ex 0x8f-0x99.7 (11)
     |                                               |                |              nm{}: 0x8f-0x97.7 (9)
0x080|                                             08|               .|                n: 8 0x8f-0x8f.7 (1)
0x090|74 79 70 65 2d 69 36 34                        |type-i64        |                b: "type-i64" 0x90-0x97.7 (8)
     |                                               |                |              d{}: 0x98-0x99.7 (2)
0x090|                        00                     |        .       |                tag: "funcidx" (0x0) 0x98-0x98.7 (1)
0x090|                           03                  |         .      |                x: 3 0x99-0x99.7 (1)
     |                                               |                |            [2]{}: ex 0x9a-0xa4.7 (11)
     |                                               |                |              nm{}: 0x9a-0xa2.7 (9)
0x090|                              08               |          .     |                n: 8 0x9a-0x9a.7 (1)
0x090|                                 74 79 70 65 2d|           type-|                b: "type-f32" 0x9b-0xa2.7 (8)
0x0a0|66 33 32                                       |f32             |
     |                                               |                |              d{}: 0xa3-0xa4.7 (2)
0x0a0|         00                                    |   .            |                tag: "funcidx" (0x0) 0xa3-0xa3.7 (1)
0x0a0|            04                                 |    .           |                x: 4 0xa4-0xa4.7 (1)
     |                                               |                |            [3]{}: ex 0xa5-0xaf.7 (11)
     |                                               |                |              nm{}: 0xa5-0xad.7 (9)
0x0a0|               08                              |     .          |                n: 8 0xa5-0xa5.7 (1)
0x0a0|                  74 79 70 65 2d 66 36 34      |      type-f64  |                b: "type-f64" 0xa6-0xad.7 (8)
     |                                               |                |              d{}: 0xae-0xaf.7 (2)
0x0a0|                                          00   |              . |                tag: "funcidx" (0x0) 0xae-0xae.7 (1)
0x0a0|                                             05|               .|                x: 5 0xaf-0xaf.7 (1)
     |                                               |                |            [4]{}: ex 0xb0-0xbf.7 (16)
     |                                               |                |              nm{}: 0xb0-0xbd.7 (14)
0x0b0|0d                                             |.               |                n: 13 0xb0-0xb0.7 (1)
0x0b0|   61 73 2d 66 75 6e 63 2d 66 69 72 73 74      | as-func-first  |                b: "as-func-first" 0xb1-0xbd.7 (13)
     |                                               |                |              d{}: 0xbe-0xbf.7 (2)
0x0b0|                                          00   |              . |                tag: "funcidx" (0x0) 0xbe-0xbe.7 (1)
0x0b0|                                             06|               .|                x: 6 0xbf-0xbf.7 (1)
     |                                               |                |            [5]{}: ex 0xc0-0xcd.7 (14)
     |                                               |                |              nm{}: 0xc0-0xcb.7 (12)
0x0c0|0b                                             |.               |                n: 11 0xc0-0xc0.7 (1)
0x0c0|   61 73 2d 66 75 6e 63 2d 6d 69 64            | as-func-mid    |                b: "as-func-mid" 0xc1-0xcb.7 (11)
     |                                               |                |              d{}: 0xcc-0xcd.7 (2)
0x0c0|                                    00         |            .   |                tag: "funcidx" (0x0) 0xcc-0xcc.7 (1)
0x0c0|                                       07      |             .  |                x: 7 0xcd-0xcd.7 (1)
     |                                               |                |            [6]{}: ex 0xce-0xdc.7 (15)
     |                                               |                |              nm{}: 0xce-0xda.7 (13)
0x0c0|                                          0c   |              . |                n: 12 0xce-0xce.7 (1)
0x0c0|                                             61|               a|                b: "as-func-last" 0xcf-0xda.7 (12)
0x0d0|73 2d 66 75 6e 63 2d 6c 61 73 74               |s-func-last     |
     |                                               |                |              d{}: 0xdb-0xdc.7 (2)
0x0d0|                                 00            |           .    |                tag: "funcidx" (0x0) 0xdb-0xdb.7 (1)
0x0d0|                                    08         |            .   |                x: 8 0xdc-0xdc.7 (1)
     |                                               |                |            [7]{}: ex 0xdd-0xec.7 (16)
     |                                               |                |              nm{}: 0xdd-0xea.7 (14)
0x0d0|                                       0d      |             .  |                n: 13 0xdd-0xdd.7 (1)
0x0d0|                                          61 73|              as|                b: "as-func-value" 0xde-0xea.7 (13)
0x0e0|2d 66 75 6e 63 2d 76 61 6c 75 65               |-func-value     |
     |                                               |                |              d{}: 0xeb-0xec.7 (2)
0x0e0|                                 00            |           .    |                tag: "funcidx" (0x0) 0xeb-0xeb.7 (1)
0x0e0|                                    09         |            .   |                x: 9 0xec-0xec.7 (1)
     |                                               |                |            [8]{}: ex 0xed-0xfd.7 (17)
     |                                               |                |              nm{}: 0xed-0xfb.7 (15)
0x0e0|                                       0e      |             .  |                n: 14 0xed-0xed.7 (1)
0x0e0|                                          61 73|              as|                b: "as-block-first" 0xee-0xfb.7 (14)
0x0f0|2d 62 6c 6f 63 6b 2d 66 69 72 73 74            |-block-first    |
     |                                               |                |              d{}: 0xfc-0xfd.7 (2)
0x0f0|                                    00         |            .   |                tag: "funcidx" (0x0) 0xfc-0xfc.7 (1)
0x0f0|                                       0a      |             .  |                x: 10 0xfd-0xfd.7 (1)
     |                                               |                |            [9]{}: ex 0xfe-0x10c.7 (15)
     |                                               |                |              nm{}: 0xfe-0x10a.7 (13)
0x0f0|                                          0c   |              . |                n: 12 0xfe-0xfe.7 (1)
0x0f0|                                             61|               a|                b: "as-block-mid" 0xff-0x10a.7 (12)
0x100|73 2d 62 6c 6f 63 6b 2d 6d 69 64               |s-block-mid     |
     |                                               |                |              d{}: 0x10b-0x10c.7 (2)
0x100|                                 00            |           .    |                tag: "funcidx" (0x0) 0x10b-0x10b.7 (1)
0x100|                                    0b         |            .   |                x: 11 0x10c-0x10c.7 (1)
     |                                               |                |            [10]{}: ex 0x10d-0x11c.7 (16)
     |                                               |                |              nm{}: 0x10d-0x11a.7 (14)
0x100|                                       0d      |             .  |                n: 13 0x10d-0x10d.7 (1)
0x100|                                          61 73|              as|                b: "as-block-last" 0x10e-0x11a.7 (13)
0x110|2d 62 6c 6f 63 6b 2d 6c 61 73 74               |-block-last     |
     |                                               |                |              d{}: 0x11b-0x11c.7 (2)
0x110|                                 00            |           .    |                tag: "funcidx" (0x0) 0x11b-0x11b.7 (1)
0x110|                                    0c         |            .   |                x: 12 0x11c-0x11c.7 (1)
     |                                               |                |            [11]{}: ex 0x11d-0x12d.7 (17)
     |                                               |                |              nm{}: 0x11d-0x12b.7 (15)
0x110|                                       0e      |             .  |                n: 14 0x11d-0x11d.7 (1)
0x110|                                          61 73|              as|                b: "as-block-value" 0x11e-0x12b.7 (14)
0x120|2d 62 6c 6f 63 6b 2d 76 61 6c 75 65            |-block-value    |
     |                                               |                |              d{}: 0x12c-0x12d.7 (2)
0x120|                                    00         |            .   |                tag: "funcidx" (0x0) 0x12c-0x12c.7 (1)
0x120|                                       0d      |             .  |                x: 13 0x12d-0x12d.7 (1)
     |                                               |                |            [12]{}: ex 0x12e-0x13e.7 (17)
     |                                               |                |              nm{}: 0x12e-0x13c.7 (15)
0x120|                                          0e   |              . |                n: 14 0x12e-0x12e.7 (1)
0x120|                                             61|               a|                b: "as-block-broke" 0x12f-0x13c.7 (14)
0x130|73 2d 62 6c 6f 63 6b 2d 62 72 6f 6b 65         |s-block-broke   |
     |                                               |                |              d{}: 0x13d-0x13e.7 (2)
0x130|                                       00      |             .  |                tag: "funcidx" (0x0) 0x13d-0x13d.7 (1)
0x130|                                          0e   |              . |                x: 14 0x13e-0x13e.7 (1)
     |                                               |                |            [13]{}: ex 0x13f-0x14e.7 (16)
     |                                               |                |              nm{}: 0x13f-0x14c.7 (14)
0x130|                                             0d|               .|                n: 13 0x13f-0x13f.7 (1)
0x140|61 73 2d 6c 6f 6f 70 2d 66 69 72 73 74         |as-loop-first   |                b: "as-loop-first" 0x140-0x14c.7 (13)
     |                                               |                |              d{}: 0x14d-0x14e.7 (2)
0x140|                                       00      |             .  |                tag: "funcidx" (0x0) 0x14d-0x14d.7 (1)
0x140|                                          0f   |              . |                x: 15 0x14e-0x14e.7 (1)
     |                                               |                |            [14]{}: ex 0x14f-0x15c.7 (14)
     |                                               |                |              nm{}: 0x14f-0x15a.7 (12)
0x140|                                             0b|               .|                n: 11 0x14f-0x14f.7 (1)
0x150|61 73 2d 6c 6f 6f 70 2d 6d 69 64               |as-loop-mid     |                b: "as-loop-mid" 0x150-0x15a.7 (11)
     |                                               |                |              d{}: 0x15b-0x15c.7 (2)
0x150|                                 00            |           .    |                tag: "funcidx" (0x0) 0x15b-0x15b.7 (1)
0x150|                                    10         |            .   |                x: 16 0x15c-0x15c.7 (1)
     |                                               |                |            [15]{}: ex 0x15d-0x16b.7 (15)
     |                                               |                |              nm{}: 0x15d-0x169.7 (13)
0x150|                                       0c      |             .  |                n: 12 0x15d-0x15d.7 (1)
0x150|                                          61 73|              as|                b: "as-loop-last" 0x15e-0x169.7 (12)
0x160|2d 6c 6f 6f 70 2d 6c 61 73 74                  |-loop-last      |
     |                                               |                |              d{}: 0x16a-0x16b.7 (2)
0x160|                              00               |          .     |                tag: "funcidx" (0x0) 0x16a-0x16a.7 (1)
0x160|                                 11            |           .    |                x: 17 0x16b-0x16b.7 (1)
     |                                               |                |            [16]{}: ex 0x16c-0x17b.7 (16)
     |                                               |                |              nm{}: 0x16c-0x179.7 (14)
0x160|                                    0d         |            .   |                n: 13 0x16c-0x16c.7 (1)
0x160|                                       61 73 2d|             as-|                b: "as-loop-broke" 0x16d-0x179.7 (13)
0x170|6c 6f 6f 70 2d 62 72 6f 6b 65                  |loop-broke      |
     |                                               |                |              d{}: 0x17a-0x17b.7 (2)
0x170|                              00               |          .     |                tag: "funcidx" (0x0) 0x17a-0x17a.7 (1)
0x170|                                 12            |           .    |                x: 18 0x17b-0x17b.7 (1)
     |                                               |                |            [17]{}: ex 0x17c-0x189.7 (14)
     |                                               |                |              nm{}: 0x17c-0x187.7 (12)
0x170|                                    0b         |            .   |                n: 11 0x17c-0x17c.7 (1)
0x170|                                       61 73 2d|             as-|                b: "as-br-value" 0x17d-0x187.7 (11)
0x180|62 72 2d 76 61 6c 75 65                        |br-value        |
     |                                               |                |              d{}: 0x188-0x189.7 (2)
0x180|                        00                     |        .       |                tag: "funcidx" (0x0) 0x188-0x188.7 (1)
0x180|                           13                  |         .      |                x: 19 0x189-0x189.7 (1)
     |                                               |                |            [18]{}: ex 0x18a-0x199.7 (16)
     |                                               |                |              nm{}: 0x18a-0x197.7 (14)
0x180|                              0d               |          .     |                n: 13 0x18a-0x18a.7 (1)
0x180|                                 61 73 2d 62 72|           as-br|                b: "as-br_if-cond" 0x18b-0x197.7 (13)
0x190|5f 69 66 2d 63 6f 6e 64                        |_if-cond        |
     |                                               |                |              d{}: 0x198-0x199.7 (2)
0x190|                        00                     |        .       |                tag: "funcidx" (0x0) 0x198-0x198.7 (1)
0x190|                           14                  |         .      |                x: 20 0x199-0x199.7 (1)
     |                                               |                |            [19]{}: ex 0x19a-0x1aa.7 (17)
     |                                               |                |              nm{}: 0x19a-0x1a8.7 (15)
0x190|                              0e               |          .     |                n: 14 0x19a-0x19a.7 (1)
0x190|                                 61 73 2d 62 72|           as-br|                b: "as-br_if-value" 0x19b-0x1a8.7 (14)
0x1a0|5f 69 66 2d 76 61 6c 75 65                     |_if-value       |
     |                                               |                |              d{}: 0x1a9-0x1aa.7 (2)
0x1a0|                           00                  |         .      |                tag: "funcidx" (0x0) 0x1a9-0x1a9.7 (1)
0x1a0|                              15               |          .     |                x: 21 0x1aa-0x1aa.7 (1)
     |                                               |                |            [20]{}: ex 0x1ab-0x1c0.7 (22)
     |                                               |                |              nm{}: 0x1ab-0x1be.7 (20)
0x1a0|                                 13            |           .    |                n: 19 0x1ab-0x1ab.7 (1)
0x1a0|                                    61 73 2d 62|            as-b|                b: "as-br_if-value-cond" 0x1ac-0x1be.7 (19)
0x1b0|72 5f 69 66 2d 76 61 6c 75 65 2d 63 6f 6e 64   |r_if-value-cond |
     |                                               |                |              d{}: 0x1bf-0x1c0.7 (2)
0x1b0|                                             00|               .|                tag: "funcidx" (0x0) 0x1bf-0x1bf.7 (1)
0x1c0|16                                             |.               |                x: 22 0x1c0-0x1c0.7 (1)
     |                                               |                |            [21]{}: ex 0x1c1-0x1d4.7 (20)
     |                                               |                |              nm{}: 0x1c1-0x1d2.7 (18)
0x1c0|   11                                          | .              |                n: 17 0x1c1-0x1c1.7 (1)
0x1c0|      61 73 2d 62 72 5f 74 61 62 6c 65 2d 69 6e|  as-br_table-in|                b: "as-br_table-index" 0x1c2-0x1d2.7 (17)
0x1d0|64 65 78                                       |dex             |
     |                                               |                |              d{}: 0x1d3-0x1d4.7 (2)
0x1d0|         00                                    |   .            |                tag: "funcidx" (0x0) 0x1d3-0x1d3.7 (1)
0x1d0|            17                                 |    .           |                x: 23 0x1d4-0x1d4.7 (1)
     |                                               |                |            [22]{}: ex 0x1d5-0x1e8.7 (20)
     |                                               |                |              nm{}: 0x1d5-0x1e6.7 (18)
0x1d0|               11                              |     .          |                n: 17 0x1d5-0x1d5.7 (1)
0x1d0|                  61 73 2d 62 72 5f 74 61 62 6c|      as-br_tabl|                b: "as-br_table-value" 0x1d6-0x1e6.7 (17)
0x1e0|65 2d 76 61 6c 75 65                           |e-value         |
     |                                               |                |              d{}: 0x1e7-0x1e8.7 (2)
0x1e0|                     00                        |       .        |                tag: "funcidx" (0x0) 0x1e7-0x1e7.7 (1)
0x1e0|                        18                     |        .       |                x: 24 0x1e8-0x1e8.7 (1)
     |                                               |                |            [23]{}: ex 0x1e9-0x1fe.7 (22)
     |                                               |                |              nm{}: 0x1e9-0x1fc.7 (20)
0x1e0|                           13                  |         .      |                n: 19 0x1e9-0x1e9.7 (1)
0x1e0|                              61 73 2d 62 72 5f|          as-br_|                b: "as-br_table-value-2" 0x1ea-0x1fc.7 (19)
0x1f0|74 61 62 6c 65 2d 76 61 6c 75 65 2d 32         |table-value-2   |
     |                                               |                |              d{}: 0x1fd-0x1fe.7 (2)
0x1f0|                                       00      |             .  |                tag: "funcidx" (0x0) 0x1fd-0x1fd.7 (1)
0x1f0|                                          19   |              . |                x: 25 0x1fe-0x1fe.7 (1)
     |                                               |                |            [24]{}: ex 0x1ff-0x218.7 (26)
     |                                               |                |              nm{}: 0x1ff-0x216.7 (24)
0x1f0|                                             17|               .|                n: 23 0x1ff-0x1ff.7 (1)
0x200|61 73 2d 62 72 5f 74 61 62 6c 65 2d 76 61 6c 75|as-br_table-valu|                b: "as-br_table-value-index" 0x200-0x216.7 (23)
0x210|65 2d 69 6e 64 65 78                           |e-index         |
     |                                               |                |              d{}: 0x217-0x218.7 (2)
0x210|                     00                        |       .        |                tag: "funcidx" (0x0) 0x217-0x217.7 (1)
0x210|                        1a                     |        .       |                x: 26 0x218-0x218.7 (1)
     |                                               |                |            [25]{}: ex 0x219-0x236.7 (30)
     |                                               |                |              nm{}: 0x219-0x234.7 (28)
0x210|                           1b                  |         .      |                n: 27 0x219-0x219.7 (1)
0x210|                              61 73 2d 62 72 5f|          as-br_|                b: "as-br_table-value-and-index" 0x21a-0x234.7 (27)
0x220|74 61 62 6c 65 2d 76 61 6c 75 65 2d 61 6e 64 2d|table-value-and-|
0x230|69 6e 64 65 78                                 |index           |
     |                                               |                |              d{}: 0x235-0x236.7 (2)
0x230|               00                              |     .          |                tag: "funcidx" (0x0) 0x235-0x235.7 (1)
0x230|                  1b                           |      .         |                x: 27 0x236-0x236.7 (1)
     |                                               |                |            [26]{}: ex 0x237-0x248.7 (18)
     |                                               |                |              nm{}: 0x237-0x246.7 (16)
0x230|                     0f                        |       .        |                n: 15 0x237-0x237.7 (1)
0x230|                        61 73 2d 72 65 74 75 72|        as-retur|                b: "as-return-value" 0x238-0x246.7 (15)
0x240|6e 2d 76 61 6c 75 65                           |n-value         |
     |                                               |                |              d{}: 0x247-0x248.7 (2)
0x240|                     00                        |       .        |                tag: "funcidx" (0x0) 0x247-0x247.7 (1)
0x240|                        1c                     |        .       |                x: 28 0x248-0x248.7 (1)
     |                                               |                |            [27]{}: ex 0x249-0x255.7 (13)
     |                                               |                |              nm{}: 0x249-0x253.7 (11)
0x240|                           0a                  |         .      |                n: 10 0x249-0x249.7 (1)
0x240|                              61 73 2d 69 66 2d|          as-if-|                b: "as-if-cond" 0x24a-0x253.7 (10)
0x250|63 6f 6e 64                                    |cond            |
     |                                               |                |              d{}: 0x254-0x255.7 (2)
0x250|            00                                 |    .           |                tag: "funcidx" (0x0) 0x254-0x254.7 (1)
0x250|               1d                              |     .          |                x: 29 0x255-0x255.7 (1)
     |                                               |                |            [28]{}: ex 0x256-0x262.7 (13)
     |                                               |                |              nm{}: 0x256-0x260.7 (11)
0x250|                  0a                           |      .         |                n: 10 0x256-0x256.7 (1)
0x250|                     61 73 2d 69 66 2d 74 68 65|       as-if-the|                b: "as-if-then" 0x257-0x260.7 (10)
0x260|6e                                             |n               |
     |                                               |                |              d{}: 0x261-0x262.7 (2)
0x260|   00                                          | .              |                tag: "funcidx" (0x0) 0x261-0x261.7 (1)
0x260|      1e                                       |  .             |                x: 30 0x262-0x262.7 (1)
     |                                               |                |            [29]{}: ex 0x263-0x26f.7 (13)
     |                                               |                |              nm{}: 0x263-0x26d.7 (11)
0x260|         0a                                    |   .            |                n: 10 0x263-0x263.7 (1)
0x260|            61 73 2d 69 66 2d 65 6c 73 65      |    as-if-else  |                b: "as-if-else" 0x264-0x26d.7 (10)
     |                                               |                |              d{}: 0x26e-0x26f.7 (2)
0x260|                                          00   |              . |                tag: "funcidx" (0x0) 0x26e-0x26e.7 (1)
0x260|                                             1f|               .|                x: 31 0x26f-0x26f.7 (1)
     |                                               |                |            [30]{}: ex 0x270-0x284.7 (21)
     |                                               |                |              nm{}: 0x270-0x282.7 (19)
0x270|12                                             |.               |                n: 18 0x270-0x270.7 (1)
0x270|   61 73 2d 69 66 2d 74 68 65 6e 2d 6e 6f 2d 65| as-if-then-no-e|                b: "as-if-then-no-else" 0x271-0x282.7 (18)
0x280|6c 73 65                                       |lse             |
     |                                               |                |              d{}: 0x283-0x284.7 (2)
0x280|         00                                    |   .            |                tag: "funcidx" (0x0) 0x283-0x283.7 (1)
0x280|            20                                 |                |                x: 32 0x284-0x284.7 (1)
     |                                               |                |            [31]{}: ex 0x285-0x296.7 (18)
     |                                               |                |              nm{}: 0x285-0x294.7 (16)
0x280|               0f                              |     .          |                n: 15 0x285-0x285.7 (1)
0x280|                  61 73 2d 73 65 6c 65 63 74 2d|      as-select-|                b: "as-select-first" 0x286-0x294.7 (15)
0x290|66 69 72 73 74                                 |first           |
     |                                               |                |              d{}: 0x295-0x296.7 (2)
0x290|               00                              |     .          |                tag: "funcidx" (0x0) 0x295-0x295.7 (1)
0x290|                  21                           |      !         |                x: 33 0x296-0x296.7 (1)
     |                                               |                |            [32]{}: ex 0x297-0x2a9.7 (19)
     |                                               |                |              nm{}: 0x297-0x2a7.7 (17)
0x290|                     10                        |       .        |                n: 16 0x297-0x297.7 (1)
0x290|                        61 73 2d 73 65 6c 65 63|        as-selec|                b: "as-select-second" 0x298-0x2a7.7 (16)
0x2a0|74 2d 73 65 63 6f 6e 64                        |t-second        |
     |                                               |                |              d{}: 0x2a8-0x2a9.7 (2)
0x2a0|                        00                     |        .       |                tag: "funcidx" (0x0) 0x2a8-0x2a8.7 (1)
0x2a0|                           22                  |         "      |                x: 34 0x2a9-0x2a9.7 (1)
     |                                               |                |            [33]{}: ex 0x2aa-0x2ba.7 (17)
     |                                               |                |              nm{}: 0x2aa-0x2b8.7 (15)
0x2a0|                              0e               |          .     |                n: 14 0x2aa-0x2aa.7 (1)
0x2a0|                                 61 73 2d 73 65|           as-se|                b: "as-select-cond" 0x2ab-0x2b8.7 (14)
0x2b0|6c 65 63 74 2d 63 6f 6e 64                     |lect-cond       |
     |                                               |                |              d{}: 0x2b9-0x2ba.7 (2)
0x2b0|                           00                  |         .      |                tag: "funcidx" (0x0) 0x2b9-0x2b9.7 (1)
0x2b0|                              23               |          #     |                x: 35 0x2ba-0x2ba.7 (1)
     |                                               |                |            [34]{}: ex 0x2bb-0x2ca.7 (16)
     |                                               |                |              nm{}: 0x2bb-0x2c8.7 (14)
0x2b0|                                 0d            |           .    |                n: 13 0x2bb-0x2bb.7 (1)
0x2b0|                                    61 73 2d 63|            as-c|                b: "as-call-first" 0x2bc-0x2c8.7 (13)
0x2c0|61 6c 6c 2d 66 69 72 73 74                     |all-first       |
     |                                               |                |              d{}: 0x2c9-0x2ca.7 (2)
0x2c0|                           00                  |         .      |                tag: "funcidx" (0x0) 0x2c9-0x2c9.7 (1)
0x2c0|                              24               |          $     |                x: 36 0x2ca-0x2ca.7 (1)
     |                                               |                |            [35]{}: ex 0x2cb-0x2d8.7 (14)
     |                                               |                |              nm{}: 0x2cb-0x2d6.7 (12)
0x2c0|                                 0b            |           .    |                n: 11 0x2cb-0x2cb.7 (1)
0x2c0|                                    61 73 2d 63|            as-c|                b: "as-call-mid" 0x2cc-0x2d6.7 (11)
0x2d0|61 6c 6c 2d 6d 69 64                           |all-mid         |
     |                                               |                |              d{}: 0x2d7-0x2d8.7 (2)
0x2d0|                     00                        |       .        |                tag: "funcidx" (0x0) 0x2d7-0x2d7.7 (1)
0x2d0|                        25                     |        %       |                x: 37 0x2d8-0x2d8.7 (1)
     |                                               |                |            [36]{}: ex 0x2d9-0x2e7.7 (15)
     |                                               |                |              nm{}: 0x2d9-0x2e5.7 (13)
0x2d0|                           0c                  |         .      |                n: 12 0x2d9-0x2d9.7 (1)
0x2d0|                              61 73 2d 63 61 6c|          as-cal|                b: "as-call-last" 0x2da-0x2e5.7 (12)
0x2e0|6c 2d 6c 61 73 74                              |l-last          |
     |                                               |                |              d{}: 0x2e6-0x2e7.7 (2)
0x2e0|                  00                           |      .         |                tag: "funcidx" (0x0) 0x2e6-0x2e6.7 (1)
0x2e0|                     26                        |       &        |                x: 38 0x2e7-0x2e7.7 (1)
     |                                               |                |            [37]{}: ex 0x2e8-0x2ff.7 (24)
     |                                               |                |              nm{}: 0x2e8-0x2fd.7 (22)
0x2e0|                        15                     |        .       |                n: 21 0x2e8-0x2e8.7 (1)
0x2e0|                           61 73 2d 63 61 6c 6c|         as-call|                b: "as-call_indirect-func" 0x2e9-0x2fd.7 (21)
0x2f0|5f 69 6e 64 69 72 65 63 74 2d 66 75 6e 63      |_indirect-func  |
     |                                               |                |              d{}: 0x2fe-0x2ff.7 (2)
0x2f0|                                          00   |              . |                tag: "funcidx" (0x0) 0x2fe-0x2fe.7 (1)
0x2f0|                                             27|               '|                x: 39 0x2ff-0x2ff.7 (1)
     |                                               |                |            [38]{}: ex 0x300-0x318.7 (25)
     |                                               |                |              nm{}: 0x300-0x316.7 (23)
0x300|16                                             |.               |                n: 22 0x300-0x300.7 (1)
0x300|   61 73 2d 63 61 6c 6c 5f 69 6e 64 69 72 65 63| as-call_indirec|                b: "as-call_indirect-first" 0x301-0x316.7 (22)
0x310|74 2d 66 69 72 73 74                           |t-first         |
     |                                               |                |              d{}: 0x317-0x318.7 (2)
0x310|                     00                        |       .        |                tag: "funcidx" (0x0) 0x317-0x317.7 (1)
0x310|                        28                     |        (       |                x: 40 0x318-0x318.7 (1)
     |                                               |                |            [39]{}: ex 0x319-0x32f.7 (23)
     |                                               |                |              nm{}: 0x319-0x32d.7 (21)
0x310|                           14                  |         .      |                n: 20 0x319-0x319.7 (1)
0x310|                              61 73 2d 63 61 6c|          as-cal|                b: "as-call_indirect-mid" 0x31a-0x32d.7 (20)
0x320|6c 5f 69 6e 64 69 72 65 63 74 2d 6d 69 64      |l_indirect-mid  |
     |                                               |                |              d{}: 0x32e-0x32f.7 (2)
0x320|                                          00   |              . |                tag: "funcidx" (0x0) 0x32e-0x32e.7 (1)
0x320|                                             29|               )|                x: 41 0x32f-0x32f.7 (1)
     |                                               |                |            [40]{}: ex 0x330-0x347.7 (24)
     |                                               |                |              nm{}: 0x330-0x345.7 (22)
0x330|15                                             |.               |                n: 21 0x330-0x330.7 (1)
0x330|   61 73 2d 63 61 6c 6c 5f 69 6e 64 69 72 65 63| as-call_indirec|                b: "as-call_indirect-last" 0x331-0x345.7 (21)
0x340|74 2d 6c 61 73 74                              |t-last          |
     |                                               |                |              d{}: 0x346-0x347.7 (2)
0x340|                  00                           |      .         |                tag: "funcidx" (0x0) 0x346-0x346.7 (1)
0x340|                     2a                        |       *        |                x: 42 0x347-0x347.7 (1)
     |                                               |                |            [41]{}: ex 0x348-0x35c.7 (21)
     |                                               |                |              nm{}: 0x348-0x35a.7 (19)
0x340|                        12                     |        .       |                n: 18 0x348-0x348.7 (1)
0x340|                           61 73 2d 6c 6f 63 61|         as-loca|                b: "as-local.set-value" 0x349-0x35a.7 (18)
0x350|6c 2e 73 65 74 2d 76 61 6c 75 65               |l.set-value     |
     |                                               |                |              d{}: 0x35b-0x35c.7 (2)
0x350|                                 00            |           .    |                tag: "funcidx" (0x0) 0x35b-0x35b.7 (1)
0x350|                                    2b         |            +   |                x: 43 0x35c-0x35c.7 (1)
     |                                               |                |            [42]{}: ex 0x35d-0x371.7 (21)
     |                                               |                |              nm{}: 0x35d-0x36f.7 (19)
0x350|                                       12      |             .  |                n: 18 0x35d-0x35d.7 (1)
0x350|                                          61 73|              as|                b: "as-local.tee-value" 0x35e-0x36f.7 (18)
0x360|2d 6c 6f 63 61 6c 2e 74 65 65 2d 76 61 6c 75 65|-local.tee-value|
     |                                               |                |              d{}: 0x370-0x371.7 (2)
0x370|00                                             |.               |                tag: "funcidx" (0x0) 0x370-0x370.7 (1)
0x370|   2c                                          | ,              |                x: 44 0x371-0x371.7 (1)
     |                                               |                |            [43]{}: ex 0x372-0x387.7 (22)
     |                                               |                |              nm{}: 0x372-0x385.7 (20)
0x370|      13                                       |  .             |                n: 19 0x372-0x372.7 (1)
0x370|         61 73 2d 67 6c 6f 62 61 6c 2e 73 65 74|   as-global.set|                b: "as-global.set-value" 0x373-0x385.7 (19)
0x380|2d 76 61 6c 75 65                              |-value          |
     |                                               |                |              d{}: 0x386-0x387.7 (2)
0x380|                  00                           |      .         |                tag: "funcidx" (0x0) 0x386-0x386.7 (1)
0x380|                     2d                        |       -        |                x: 45 0x387-0x387.7 (1)
     |                                               |                |            [44]{}: ex 0x388-0x399.7 (18)
     |                                               |                |              nm{}: 0x388-0x397.7 (16)
0x380|                        0f                     |        .       |                n: 15 0x388-0x388.7 (1)
0x380|                           61 73 2d 6c 6f 61 64|         as-load|                b: "as-load-address" 0x389-0x397.7 (15)
0x390|2d 61 64 64 72 65 73 73                        |-address        |
     |                                               |                |              d{}: 0x398-0x399.7 (2)
0x390|                        00                     |        .       |                tag: "funcidx" (0x0) 0x398-0x398.7 (1)
0x390|                           2e                  |         .      |                x: 46 0x399-0x399.7 (1)
     |                                               |                |            [45]{}: ex 0x39a-0x3ac.7 (19)
     |                                               |                |              nm{}: 0x39a-0x3aa.7 (17)
0x390|                              10               |          .     |                n: 16 0x39a-0x39a.7 (1)
0x390|                                 61 73 2d 6c 6f|           as-lo|                b: "as-loadN-address" 0x39b-0x3aa.7 (16)
0x3a0|61 64 4e 2d 61 64 64 72 65 73 73               |adN-address     |
     |                                               |                |              d{}: 0x3ab-0x3ac.7 (2)
0x3a0|                                 00            |           .    |                tag: "funcidx" (0x0) 0x3ab-0x3ab.7 (1)
0x3a0|                                    2f         |            /   |                x: 47 0x3ac-0x3ac.7 (1)
     |                                               |                |            [46]{}: ex 0x3ad-0x3bf.7 (19)
     |                                               |                |              nm{}: 0x3ad-0x3bd.7 (17)
0x3a0|                                       10      |             .  |                n: 16 0x3ad-0x3ad.7 (1)
0x3a0|                                          61 73|              as|                b: "as-store-address" 0x3ae-0x3bd.7 (16)
0x3b0|2d 73 74 6f 72 65 2d 61 64 64 72 65 73 73      |-store-address  |
     |                                               |                |              d{}: 0x3be-0x3bf.7 (2)
0x3b0|                                          00   |              . |                tag: "funcidx" (0x0) 0x3be-0x3be.7 (1)
0x3b0|                                             30|               0|                x: 48 0x3bf-0x3bf.7 (1)
     |                                               |                |            [47]{}: ex 0x3c0-0x3d0.7 (17)
     |                                               |                |              nm{}: 0x3c0-0x3ce.7 (15)
0x3c0|0e                                             |.               |                n: 14 0x3c0-0x3c0.7 (1)
0x3c0|   61 73 2d 73 74 6f 72 65 2d 76 61 6c 75 65   | as-store-value |                b: "as-store-value" 0x3c1-0x3ce.7 (14)
     |                                               |                |              d{}: 0x3cf-0x3d0.7 (2)
0x3c0|                                             00|               .|                tag: "funcidx" (0x0) 0x3cf-0x3cf.7 (1)
0x3d0|31                                             |1               |                x: 49 0x3d0-0x3d0.7 (1)
     |                                               |                |            [48]{}: ex 0x3d1-0x3e4.7 (20)
     |                                               |                |              nm{}: 0x3d1-0x3e2.7 (18)
0x3d0|   11                                          | .              |                n: 17 0x3d1-0x3d1.7 (1)
0x3d0|      61 73 2d 73 74 6f 72 65 4e 2d 61 64 64 72|  as-storeN-addr|                b: "as-storeN-address" 0x3d2-0x3e2.7 (17)
0x3e0|65 73 73                                       |ess             |
     |                                               |                |              d{}: 0x3e3-0x3e4.7 (2)
0x3e0|         00                                    |   .            |                tag: "funcidx" (0x0) 0x3e3-0x3e3.7 (1)
0x3e0|            32                                 |    2           |                x: 50 0x3e4-0x3e4.7 (1)
     |                                               |                |            [49]{}: ex 0x3e5-0x3f6.7 (18)
     |                                               |                |              nm{}: 0x3e5-0x3f4.7 (16)
0x3e0|               0f                              |     .          |                n: 15 0x3e5-0x3e5.7 (1)
0x3e0|                  61 73 2d 73 74 6f 72 65 4e 2d|      as-storeN-|                b: "as-storeN-value" 0x3e6-0x3f4.7 (15)
0x3f0|76 61 6c 75 65                                 |value           |
     |                                               |                |              d{}: 0x3f5-0x3f6.7 (2)
0x3f0|               00                              |     .          |                tag: "funcidx" (0x0) 0x3f5-0x3f5.7 (1)
0x3f0|                  33                           |      3         |                x: 51 0x3f6-0x3f6.7 (1)
     |                                               |                |            [50]{}: ex 0x3f7-0x409.7 (19)
     |                                               |                |              nm{}: 0x3f7-0x407.7 (17)
0x3f0|                     10                        |       .        |                n: 16 0x3f7-0x3f7.7 (1)
0x3f0|                        61 73 2d 75 6e 61 72 79|        as-unary|                b: "as-unary-operand" 0x3f8-0x407.7 (16)
0x400|2d 6f 70 65 72 61 6e 64                        |-operand        |
     |                                               |                |              d{}: 0x408-0x409.7 (2)
0x400|                        00                     |        .       |                tag: "funcidx" (0x0) 0x408-0x408.7 (1)
0x400|                           34                  |         4      |                x: 52 0x409-0x409.7 (1)
     |                                               |                |            [51]{}: ex 0x40a-0x41a.7 (17)
     |                                               |                |              nm{}: 0x40a-0x418.7 (15)
0x400|                              0e               |          .     |                n: 14 0x40a-0x40a.7 (1)
0x400|                                 61 73 2d 62 69|           as-bi|                b: "as-binary-left" 0x40b-0x418.7 (14)
0x410|6e 61 72 79 2d 6c 65 66 74                     |nary-left       |
     |                                               |                |              d{}: 0x419-0x41a.7 (2)
0x410|                           00                  |         .      |                tag: "funcidx" (0x0) 0x419-0x419.7 (1)
0x410|                              35               |          5     |                x: 53 0x41a-0x41a.7 (1)
     |                                               |                |            [52]{}: ex 0x41b-0x42c.7 (18)
     |                                               |                |              nm{}: 0x41b-0x42a.7 (16)
0x410|                                 0f            |           .    |                n: 15 0x41b-0x41b.7 (1)
0x410|                                    61 73 2d 62|            as-b|                b: "as-binary-right" 0x41c-0x42a.7 (15)
0x420|69 6e 61 72 79 2d 72 69 67 68 74               |inary-right     |
     |                                               |                |              d{}: 0x42b-0x42c.7 (2)
0x420|                                 00            |           .    |                tag: "funcidx" (0x0) 0x42b-0x42b.7 (1)
0x420|                                    36         |            6   |                x: 54 0x42c-0x42c.7 (1)
     |                                               |                |            [53]{}: ex 0x42d-0x43e.7 (18)
     |                                               |                |              nm{}: 0x42d-0x43c.7 (16)
0x420|                                       0f      |             .  |                n: 15 0x42d-0x42d.7 (1)
0x420|                                          61 73|              as|                b: "as-test-operand" 0x42e-0x43c.7 (15)
0x430|2d 74 65 73 74 2d 6f 70 65 72 61 6e 64         |-test-operand   |
     |                                               |                |              d{}: 0x43d-0x43e.7 (2)
0x430|                                       00      |             .  |                tag: "funcidx" (0x0) 0x43d-0x43d.7 (1)
0x430|                                          37   |              7 |                x: 55 0x43e-0x43e.7 (1)
     |                                               |                |            [54]{}: ex 0x43f-0x450.7 (18)
     |                                               |                |              nm{}: 0x43f-0x44e.7 (16)
0x430|                                             0f|               .|                n: 15 0x43f-0x43f.7 (1)
0x440|61 73 2d 63 6f 6d 70 61 72 65 2d 6c 65 66 74   |as-compare-left |                b: "as-compare-left" 0x440-0x44e.7 (15)
     |                                               |                |              d{}: 0x44f-0x450.7 (2)
0x440|                                             00|               .|                tag: "funcidx" (0x0) 0x44f-0x44f.7 (1)
0x450|38                                             |8               |                x: 56 0x450-0x450.7 (1)
     |                                               |                |            [55]{}: ex 0x451-0x463.7 (19)
     |                                               |                |              nm{}: 0x451-0x461.7 (17)
0x450|   10                                          | .              |                n: 16 0x451-0x451.7 (1)
0x450|      61 73 2d 63 6f 6d 70 61 72 65 2d 72 69 67|  as-compare-rig|                b: "as-compare-right" 0x452-0x461.7 (16)
0x460|68 74                                          |ht              |
     |                                               |                |              d{}: 0x462-0x463.7 (2)
0x460|      00                                       |  .             |                tag: "funcidx" (0x0) 0x462-0x462.7 (1)
0x460|         39                                    |   9            |                x: 57 0x463-0x463.7 (1)
     |                                               |                |            [56]{}: ex 0x464-0x478.7 (21)
     |                                               |                |              nm{}: 0x464-0x476.7 (19)
0x460|            12                                 |    .           |                n: 18 0x464-0x464.7 (1)
0x460|               61 73 2d 63 6f 6e 76 65 72 74 2d|     as-convert-|                b: "as-convert-operand" 0x465-0x476.7 (18)
0x470|6f 70 65 72 61 6e 64                           |operand         |
     |                                               |                |              d{}: 0x477-0x478.7 (2)
0x470|                     00                        |       .        |                tag: "funcidx" (0x0) 0x477-0x477.7 (1)
0x470|                        3a                     |        :       |                x: 58 0x478-0x478.7 (1)
     |                                               |                |            [57]{}: ex 0x479-0x48e.7 (22)
     |                                               |                |              nm{}: 0x479-0x48c.7 (20)
0x470|                           13                  |         .      |                n: 19 0x479-0x479.7 (1)
0x470|                              61 73 2d 6d 65 6d|          as-mem|                b: "as-memory.grow-size" 0x47a-0x48c.7 (19)
0x480|6f 72 79 2e 67 72 6f 77 2d 73 69 7a 65         |ory.grow-size   |
     |                                               |                |              d{}: 0x48d-0x48e.7 (2)
0x480|                                       00      |             .  |                tag: "funcidx" (0x0) 0x48d-0x48d.7 (1)
0x480|                                          3b   |              ; |                x: 59 0x48e-0x48e.7 (1)
     |                                               |                |    [6]{}: section 0x48f-0x497.7 (9)
0x480|                                             09|               .|      id: "element section" (9) 0x48f-0x48f.7 (1)
0x490|07                                             |.               |      size: 7 0x490-0x490.7 (1)
     |                                               |                |      element{}: 0x491-0x497.7 (7)
     |                                               |                |        seg{}: 0x491-0x497.7 (7)
0x490|   01                                          | .              |          n: 1 0x491-0x491.7 (1)
     |                                               |                |          x[0:1]: 0x492-0x497.7 (6)
     |                                               |                |            [0]{}: seg 0x492-0x497.7 (6)
0x490|      00                                       |  .             |              tag: 0 0x492-0x492.7 (1)
     |                                               |                |              e[0:2]: 0x493-0x495.7 (3)
     |                                               |                |                [0]{}: in 0x493-0x494.7 (2)
0x490|         41                                    |   A            |                  i32.const: 0x41 (valid) 0x493-0x493.7 (1)
0x490|            00                                 |    .           |                  n: 0 0x494-0x494.7 (1)
     |                                               |                |                [1]{}: in 0x495-0x495.7 (1)
0x490|               0b                              |     .          |                  end: 0xb (valid) 0x495-0x495.7 (1)
     |                                               |                |              y{}: 0x496-0x497.7 (2)
0x490|                  01                           |      .         |                n: 1 0x496-0x496.7 (1)
     |                                               |                |                x[0:1]: 0x497-0x497.7 (1)
0x490|                     01                        |       .        |                  [0]: 1 y 0x497-0x497.7 (1)
     |                                               |                |    [7]{}: section 0x498-0x6cf.7 (568)
0x490|                        0a                     |        .       |      id: "code section" (10) 0x498-0x498.7 (1)
0x490|                           b5 04               |         ..     |      size: 565 0x499-0x49a.7 (2)
     |                                               |                |      content{}: 0x49b-0x6cf.7 (565)
     |                                               |                |        code{}: 0x49b-0x6cf.7 (565)
0x490|                                 3c            |           <    |          n: 60 0x49b-0x49b.7 (1)
     |                                               |                |          x[0:60]: 0x49c-0x6cf.7 (564)
     |                                               |                |            [0]{}: code 0x49c-0x49e.7 (3)
0x490|                                    02         |            .   |              size: 2 0x49c-0x49c.7 (1)
     |                                               |                |              code{}: 0x49d-0x49e.7 (2)
     |                                               |                |                t{}: 0x49d-0x49d.7 (1)
0x490|                                       00      |             .  |                  n: 0 0x49d-0x49d.7 (1)
     |                                               |                |                  x[0:0]: 0x49e-NA (0)
     |                                               |                |                e[0:1]: 0x49e-0x49e.7 (1)
     |                                               |                |                  [0]{}: in 0x49e-0x49e.7 (1)
0x490|                                          0b   |              . |                    end: 0xb (valid) 0x49e-0x49e.7 (1)
     |                                               |                |            [1]{}: code 0x49f-0x4a1.7 (3)
0x490|                                             02|               .|              size: 2 0x49f-0x49f.7 (1)
     |                                               |                |              code{}: 0x4a0-0x4a1.7 (2)
     |                                               |                |                t{}: 0x4a0-0x4a0.7 (1)
0x4a0|00                                             |.               |                  n: 0 0x4a0-0x4a0.7 (1)
     |                                               |                |                  x[0:0]: 0x4a1-NA (0)
     |                                               |                |                e[0:1]: 0x4a1-0x4a1.7 (1)
     |                                               |                |                  [0]{}: in 0x4a1-0x4a1.7 (1)
0x4a0|   0b                                          | .              |                    end: 0xb (valid) 0x4a1-0x4a1.7 (1)
     |                                               |                |            [2]{}: code 0x4a2-0x4a5.7 (4)
0x4a0|      03                                       |  .             |              size: 3 0x4a2-0x4a2.7 (1)
     |                                               |                |              code{}: 0x4a3-0x4a5.7 (3)
     |                                               |                |                t{}: 0x4a3-0x4a3.7 (1)
0x4a0|         00                                    |   .            |                  n: 0 0x4a3-0x4a3.7 (1)
     |                                               |                |                  x[0:0]: 0x4a4-NA (0)
     |                                               |                |                e[0:2]: 0x4a4-0x4a5.7 (2)
     |                                               |                |                  [0]{}: in 0x4a4-0x4a4.7 (1)
0x4a0|            00                                 |    .           |                    unreachable: 0x0 (valid) 0x4a4-0x4a4.7 (1)
     |                                               |                |                  [1]{}: in 0x4a5-0x4a5.7 (1)
0x4a0|               0b                              |     .          |                    end: 0xb (valid) 0x4a5-0x4a5.7 (1)
     |                                               |                |            [3]{}: code 0x4a6-0x4a9.7 (4)
0x4a0|                  03                           |      .         |              size: 3 0x4a6-0x4a6.7 (1)
     |                                               |                |              code{}: 0x4a7-0x4a9.7 (3)
     |                                               |                |                t{}: 0x4a7-0x4a7.7 (1)
0x4a0|                     00                        |       .        |                  n: 0 0x4a7-0x4a7.7 (1)
     |                                               |                |                  x[0:0]: 0x4a8-NA (0)
     |                                               |                |                e[0:2]: 0x4a8-0x4a9.7 (2)
     |                                               |                |                  [0]{}: in 0x4a8-0x4a8.7 (1)
0x4a0|                        00                     |        .       |                    unreachable: 0x0 (valid) 0x4a8-0x4a8.7 (1)
     |                                               |                |                  [1]{}: in 0x4a9-0x4a9.7 (1)
0x4a0|                           0b                  |         .      |                    end: 0xb (valid) 0x4a9-0x4a9.7 (1)
     |                                               |                |            [4]{}: code 0x4aa-0x4ad.7 (4)
0x4a0|                              03               |          .     |              size: 3 0x4aa-0x4aa.7 (1)
     |                                               |                |              code{}: 0x4ab-0x4ad.7 (3)
     |                                               |                |                t{}: 0x4ab-0x4ab.7 (1)
0x4a0|                                 00            |           .    |                  n: 0 0x4ab-0x4ab.7 (1)
     |                                               |                |                  x[0:0]: 0x4ac-NA (0)
     |                                               |                |                e[0:2]: 0x4ac-0x4ad.7 (2)
     |                                               |                |                  [0]{}: in 0x4ac-0x4ac.7 (1)
0x4a0|                                    00         |            .   |                    unreachable: 0x0 (valid) 0x4ac-0x4ac.7 (1)
     |                                               |                |                  [1]{}: in 0x4ad-0x4ad.7 (1)
0x4a0|                                       0b      |             .  |                    end: 0xb (valid) 0x4ad-0x4ad.7 (1)
     |                                               |                |            [5]{}: code 0x4ae-0x4b1.7 (4)
0x4a0|                                          03   |              . |              size: 3 0x4ae-0x4ae.7 (1)
     |                                               |                |              code{}: 0x4af-0x4b1.7 (3)
     |                                               |                |                t{}: 0x4af-0x4af.7 (1)
0x4a0|                                             00|               .|                  n: 0 0x4af-0x4af.7 (1)
     |                                               |                |                  x[0:0]: 0x4b0-NA (0)
     |                                               |                |                e[0:2]: 0x4b0-0x4b1.7 (2)
     |                                               |                |                  [0]{}: in 0x4b0-0x4b0.7 (1)
0x4b0|00                                             |.               |                    unreachable: 0x0 (valid) 0x4b0-0x4b0.7 (1)
     |                                               |                |                  [1]{}: in 0x4b1-0x4b1.7 (1)
0x4b0|   0b                                          | .              |                    end: 0xb (valid) 0x4b1-0x4b1.7 (1)
     |                                               |                |            [6]{}: code 0x4b2-0x4b7.7 (6)
0x4b0|      05                                       |  .             |              size: 5 0x4b2-0x4b2.7 (1)
     |                                               |                |              code{}: 0x4b3-0x4b7.7 (5)
     |                                               |                |                t{}: 0x4b3-0x4b3.7 (1)
0x4b0|         00                                    |   .            |                  n: 0 0x4b3-0x4b3.7 (1)
     |                                               |                |                  x[0:0]: 0x4b4-NA (0)
     |                                               |                |                e[0:3]: 0x4b4-0x4b7.7 (4)
     |                                               |                |                  [0]{}: in 0x4b4-0x4b4.7 (1)
0x4b0|            00                                 |    .           |                    unreachable: 0x0 (valid) 0x4b4-0x4b4.7 (1)
     |                                               |                |                  [1]{}: in 0x4b5-0x4b6.7 (2)
0x4b0|               41                              |     A          |                    i32.const: 0x41 (valid) 0x4b5-0x4b5.7 (1)
0x4b0|                  7f                           |      .         |                    n: -1 0x4b6-0x4b6.7 (1)
     |                                               |                |                  [2]{}: in 0x4b7-0x4b7.7 (1)
0x4b0|                     0b                        |       .        |                    end: 0xb (valid) 0x4b7-0x4b7.7 (1)
     |                                               |                |            [7]{}: code 0x4b8-0x4bf.7 (8)
0x4b0|                        07                     |        .       |              size: 7 0x4b8-0x4b8.7 (1)
     |                                               |                |              code{}: 0x4b9-0x4bf.7 (7)
     |                                               |                |                t{}: 0x4b9-0x4b9.7 (1)
0x4b0|                           00                  |         .      |                  n: 0 0x4b9-0x4b9.7 (1)
     |                                               |                |                  x[0:0]: 0x4ba-NA (0)
     |                                               |                |                e[0:4]: 0x4ba-0x4bf.7 (6)
     |                                               |                |                  [0]{}: in 0x4ba-0x4bb.7 (2)
0x4b0|                              10               |          .     |                    call: 0x10 (valid) 0x4ba-0x4ba.7 (1)
0x4b0|                                 00            |           .    |                    x: 0 0x4bb-0x4bb.7 (1)
     |                                               |                |                  [1]{}: in 0x4bc-0x4bc.7 (1)
0x4b0|                                    00         |            .   |                    unreachable: 0x0 (valid) 0x4bc-0x4bc.7 (1)
     |                                               |                |                  [2]{}: in 0x4bd-0x4be.7 (2)
0x4b0|                                       41      |             A  |                    i32.const: 0x41 (valid) 0x4bd-0x4bd.7 (1)
0x4b0|                                          7f   |              . |                    n: -1 0x4be-0x4be.7 (1)
     |                                               |                |                  [3]{}: in 0x4bf-0x4bf.7 (1)
0x4b0|                                             0b|               .|                    end: 0xb (valid) 0x4bf-0x4bf.7 (1)
     |                                               |                |            [8]{}: code 0x4c0-0x4c5.7 (6)
0x4c0|05                                             |.               |              size: 5 0x4c0-0x4c0.7 (1)
     |                                               |                |              code{}: 0x4c1-0x4c5.7 (5)
     |                                               |                |                t{}: 0x4c1-0x4c1.7 (1)
0x4c0|   00                                          | .              |                  n: 0 0x4c1-0x4c1.7 (1)
     |                                               |                |                  x[0:0]: 0x4c2-NA (0)
     |                                               |                |                e[0:3]: 0x4c2-0x4c5.7 (4)
     |                                               |                |                  [0]{}: in 0x4c2-0x4c3.7 (2)
0x4c0|      10                                       |  .             |                    call: 0x10 (valid) 0x4c2-0x4c2.7 (1)
0x4c0|         00                                    |   .            |                    x: 0 0x4c3-0x4c3.7 (1)
     |                                               |                |                  [1]{}: in 0x4c4-0x4c4.7 (1)
0x4c0|            00                                 |    .           |                    unreachable: 0x0 (valid) 0x4c4-0x4c4.7 (1)
     |                                               |                |                  [2]{}: in 0x4c5-0x4c5.7 (1)
0x4c0|               0b                              |     .          |                    end: 0xb (valid) 0x4c5-0x4c5.7 (1)
     |                                               |                |            [9]{}: code 0x4c6-0x4cb.7 (6)
0x4c0|                  05                           |      .         |              size: 5 0x4c6-0x4c6.7 (1)
     |                                               |                |              code{}: 0x4c7-0x4cb.7 (5)
     |                                               |                |                t{}: 0x4c7-0x4c7.7 (1)
0x4c0|                     00                        |       .        |                  n: 0 0x4c7-0x4c7.7 (1)
     |                                               |                |                  x[0:0]: 0x4c8-NA (0)
     |                                               |                |                e[0:3]: 0x4c8-0x4cb.7 (4)
     |                                               |                |                  [0]{}: in 0x4c8-0x4c9.7 (2)
0x4c0|                        10                     |        .       |                    call: 0x10 (valid) 0x4c8-0x4c8.7 (1)
0x4c0|                           00                  |         .      |                    x: 0 0x4c9-0x4c9.7 (1)
     |                                               |                |                  [1]{}: in 0x4ca-0x4ca.7 (1)
0x4c0|                              00               |          .     |                    unreachable: 0x0 (valid) 0x4ca-0x4ca.7 (1)
     |                                               |                |                  [2]{}: in 0x4cb-0x4cb.7 (1)
0x4c0|                                 0b            |           .    |                    end: 0xb (valid) 0x4cb-0x4cb.7 (1)
     |                                               |                |            [10]{}: code 0x4cc-0x4d4.7 (9)
0x4c0|                                    08         |            .   |              size: 8 0x4cc-0x4cc.7 (1)
     |                                               |                |              code{}: 0x4cd-0x4d4.7 (8)
     |                                               |                |                t{}: 0x4cd-0x4cd.7 (1)
0x4c0|                                       00      |             .  |                  n: 0 0x4cd-0x4cd.7 (1)
     |                                               |                |                  x[0:0]: 0x4ce-NA (0)
     |                                               |                |                e[0:2]: 0x4ce-0x4d4.7 (7)
     |                                               |                |                  [0]{}: in 0x4ce-0x4d3.7 (6)
0x4c0|                                          02   |              . |                    block: 0x2 (valid) 0x4ce-0x4ce.7 (1)
0x4c0|                                             7f|               .|                    bt: "i32" (127) 0x4cf-0x4cf.7 (1)
     |                                               |                |                    instructions[0:2]: 0x4d0-0x4d2.7 (3)
     |                                               |                |                      [0]{}: instr 0x4d0-0x4d0.7 (1)
0x4d0|00                                             |.               |                        unreachable: 0x0 (valid) 0x4d0-0x4d0.7 (1)
     |                                               |                |                      [1]{}: instr 0x4d1-0x4d2.7 (2)
0x4d0|   41                                          | A              |                        i32.const: 0x41 (valid) 0x4d1-0x4d1.7 (1)
0x4d0|      02                                       |  .             |                        n: 2 0x4d2-0x4d2.7 (1)
0x4d0|         0b                                    |   .            |                    end: 11 (valid) 0x4d3-0x4d3.7 (1)
     |                                               |                |                  [1]{}: in 0x4d4-0x4d4.7 (1)
0x4d0|            0b                                 |    .           |                    end: 0xb (valid) 0x4d4-0x4d4.7 (1)
     |                                               |                |            [11]{}: code 0x4d5-0x4df.7 (11)
0x4d0|               0a                              |     .          |              size: 10 0x4d5-0x4d5.7 (1)
     |                                               |                |              code{}: 0x4d6-0x4df.7 (10)
     |                                               |                |                t{}: 0x4d6-0x4d6.7 (1)
0x4d0|                  00                           |      .         |                  n: 0 0x4d6-0x4d6.7 (1)
     |                                               |                |                  x[0:0]: 0x4d7-NA (0)
     |                                               |                |                e[0:2]: 0x4d7-0x4df.7 (9)
     |                                               |                |                  [0]{}: in 0x4d7-0x4de.7 (8)
0x4d0|                     02                        |       .        |                    block: 0x2 (valid) 0x4d7-0x4d7.7 (1)
0x4d0|                        7f                     |        .       |                    bt: "i32" (127) 0x4d8-0x4d8.7 (1)
     |                                               |                |                    instructions[0:3]: 0x4d9-0x4dd.7 (5)
     |                                               |                |                      [0]{}: instr 0x4d9-0x4da.7 (2)
0x4d0|                           10                  |         .      |                        call: 0x10 (valid) 0x4d9-0x4d9.7 (1)
0x4d0|                              00               |          .     |                        x: 0 0x4da-0x4da.7 (1)
     |                                               |                |                      [1]{}: instr 0x4db-0x4db.7 (1)
0x4d0|                                 00            |           .    |                        unreachable: 0x0 (valid) 0x4db-0x4db.7 (1)
     |                                               |                |                      [2]{}: instr 0x4dc-0x4dd.7 (2)
0x4d0|                                    41         |            A   |                        i32.const: 0x41 (valid) 0x4dc-0x4dc.7 (1)
0x4d0|                                       02      |             .  |                        n: 2 0x4dd-0x4dd.7 (1)
0x4d0|                                          0b   |              . |                    end: 11 (valid) 0x4de-0x4de.7 (1)
     |                                               |                |                  [1]{}: in 0x4df-0x4df.7 (1)
0x4d0|                                             0b|               .|                    end: 0xb (valid) 0x4df-0x4df.7 (1)
     |                                               |                |            [12]{}: code 0x4e0-0x4e9.7 (10)
0x4e0|09                                             |.               |              size: 9 0x4e0-0x4e0.7 (1)
     |                                               |                |              code{}: 0x4e1-0x4e9.7 (9)
     |                                               |                |                t{}: 0x4e1-0x4e1.7 (1)
0x4e0|   00                                          | .              |                  n: 0 0x4e1-0x4e1.7 (1)
     |                                               |                |                  x[0:0]: 0x4e2-NA (0)
     |                                               |                |                e[0:2]: 0x4e2-0x4e9.7 (8)
     |                                               |                |                  [0]{}: in 0x4e2-0x4e8.7 (7)
0x4e0|      02                                       |  .             |                    block: 0x2 (valid) 0x4e2-0x4e2.7 (1)
0x4e0|         40                                    |   @            |                    bt: "ε" (64) 0x4e3-0x4e3.7 (1)
     |                                               |                |                    instructions[0:3]: 0x4e4-0x4e7.7 (4)
     |                                               |                |                      [0]{}: instr 0x4e4-0x4e4.7 (1)
0x4e0|            01                                 |    .           |                        nop: 0x1 (valid) 0x4e4-0x4e4.7 (1)
     |                                               |                |                      [1]{}: instr 0x4e5-0x4e6.7 (2)
0x4e0|               10                              |     .          |                        call: 0x10 (valid) 0x4e5-0x4e5.7 (1)
0x4e0|                  00                           |      .         |                        x: 0 0x4e6-0x4e6.7 (1)
     |                                               |                |                      [2]{}: instr 0x4e7-0x4e7.7 (1)
0x4e0|                     00                        |       .        |                        unreachable: 0x0 (valid) 0x4e7-0x4e7.7 (1)
0x4e0|                        0b                     |        .       |                    end: 11 (valid) 0x4e8-0x4e8.7 (1)
     |                                               |                |                  [1]{}: in 0x4e9-0x4e9.7 (1)
0x4e0|                           0b                  |         .      |                    end: 0xb (valid) 0x4e9-0x4e9.7 (1)
     |                                               |                |            [13]{}: code 0x4ea-0x4f3.7 (10)
0x4e0|                              09               |          .     |              size: 9 0x4ea-0x4ea.7 (1)
     |                                               |                |              code{}: 0x4eb-0x4f3.7 (9)
     |                                               |                |                t{}: 0x4eb-0x4eb.7 (1)
0x4e0|                                 00            |           .    |                  n: 0 0x4eb-0x4eb.7 (1)
     |                                               |                |                  x[0:0]: 0x4ec-NA (0)
     |                                               |                |                e[0:2]: 0x4ec-0x4f3.7 (8)
     |                                               |                |                  [0]{}: in 0x4ec-0x4f2.7 (7)
0x4e0|                                    02         |            .   |                    block: 0x2 (valid) 0x4ec-0x4ec.7 (1)
0x4e0|                                       7f      |             .  |                    bt: "i32" (127) 0x4ed-0x4ed.7 (1)
     |                                               |                |                    instructions[0:3]: 0x4ee-0x4f1.7 (4)
     |                                               |                |                      [0]{}: instr 0x4ee-0x4ee.7 (1)
0x4e0|                                          01   |              . |                        nop: 0x1 (valid) 0x4ee-0x4ee.7 (1)
     |                                               |                |                      [1]{}: instr 0x4ef-0x4f0.7 (2)
0x4e0|                                             10|               .|                        call: 0x10 (valid) 0x4ef-0x4ef.7 (1)
0x4f0|00                                             |.               |                        x: 0 0x4f0-0x4f0.7 (1)
     |                                               |                |                      [2]{}: instr 0x4f1-0x4f1.7 (1)
0x4f0|   00                                          | .              |                        unreachable: 0x0 (valid) 0x4f1-0x4f1.7 (1)
0x4f0|      0b                                       |  .             |                    end: 11 (valid) 0x4f2-0x4f2.7 (1)
     |                                               |                |                  [1]{}: in 0x4f3-0x4f3.7 (1)
0x4f0|         0b                                    |   .            |                    end: 0xb (valid) 0x4f3-0x4f3.7 (1)
     |                                               |                |            [14]{}: code 0x4f4-0x500.7 (13)
0x4f0|            0c                                 |    .           |              size: 12 0x4f4-0x4f4.7 (1)
     |                                               |                |              code{}: 0x4f5-0x500.7 (12)
     |                                               |                |                t{}: 0x4f5-0x4f5.7 (1)
0x4f0|               00                              |     .          |                  n: 0 0x4f5-0x4f5.7 (1)
     |                                               |                |                  x[0:0]: 0x4f6-NA (0)
     |                                               |                |                e[0:2]: 0x4f6-0x500.7 (11)
     |                                               |                |                  [0]{}: in 0x4f6-0x4ff.7 (10)
0x4f0|                  02                           |      .         |                    block: 0x2 (valid) 0x4f6-0x4f6.7 (1)
0x4f0|                     7f                        |       .        |                    bt: "i32" (127) 0x4f7-0x4f7.7 (1)
     |                                               |                |                    instructions[0:4]: 0x4f8-0x4fe.7 (7)
     |                                               |                |                      [0]{}: instr 0x4f8-0x4f9.7 (2)
0x4f0|                        10                     |        .       |                        call: 0x10 (valid) 0x4f8-0x4f8.7 (1)
0x4f0|                           00                  |         .      |                        x: 0 0x4f9-0x4f9.7 (1)
     |                                               |                |                      [1]{}: instr 0x4fa-0x4fb.7 (2)
0x4f0|                              41               |          A     |                        i32.const: 0x41 (valid) 0x4fa-0x4fa.7 (1)
0x4f0|                                 01            |           .    |                        n: 1 0x4fb-0x4fb.7 (1)
     |                                               |                |                      [2]{}: instr 0x4fc-0x4fd.7 (2)
0x4f0|                                    0c         |            .   |                        br: 0xc (valid) 0x4fc-0x4fc.7 (1)
0x4f0|                                       00      |             .  |                        l: 0 0x4fd-0x4fd.7 (1)
     |                                               |                |                      [3]{}: instr 0x4fe-0x4fe.7 (1)
0x4f0|                                          00   |              . |                        unreachable: 0x0 (valid) 0x4fe-0x4fe.7 (1)
0x4f0|                                             0b|               .|                    end: 11 (valid) 0x4ff-0x4ff.7 (1)
     |                                               |                |                  [1]{}: in 0x500-0x500.7 (1)
0x500|0b                                             |.               |                    end: 0xb (valid) 0x500-0x500.7 (1)
     |                                               |                |            [15]{}: code 0x501-0x509.7 (9)
0x500|   08                                          | .              |              size: 8 0x501-0x501.7 (1)
     |                                               |                |              code{}: 0x502-0x509.7 (8)
     |                                               |                |                t{}: 0x502-0x502.7 (1)
0x500|      00                                       |  .             |                  n: 0 0x502-0x502.7 (1)
     |                                               |                |                  x[0:0]: 0x503-NA (0)
     |                                               |                |                e[0:2]: 0x503-0x509.7 (7)
     |                                               |                |                  [0]{}: in 0x503-0x508.7 (6)
0x500|         03                                    |   .            |                    loop: 0x3 (valid) 0x503-0x503.7 (1)
0x500|            7f                                 |    .           |                    bt: "i32" (127) 0x504-0x504.7 (1)
     |                                               |                |                    instructions[0:2]: 0x505-0x507.7 (3)
     |                                               |                |                      [0]{}: instr 0x505-0x505.7 (1)
0x500|               00                              |     .          |                        unreachable: 0x0 (valid) 0x505-0x505.7 (1)
     |                                               |                |                      [1]{}: instr 0x506-0x507.7 (2)
0x500|                  41                           |      A         |                        i32.const: 0x41 (valid) 0x506-0x506.7 (1)
0x500|                     02                        |       .        |                        n: 2 0x507-0x507.7 (1)
0x500|                        0b                     |        .       |                    end: 11 (valid) 0x508-0x508.7 (1)
     |                                               |                |                  [1]{}: in 0x509-0x509.7 (1)
0x500|                           0b                  |         .      |                    end: 0xb (valid) 0x509-0x509.7 (1)
     |                                               |                |            [16]{}: code 0x50a-0x514.7 (11)
0x500|                              0a               |          .     |              size: 10 0x50a-0x50a.7 (1)
     |                                               |                |              code{}: 0x50b-0x514.7 (10)
     |                                               |                |                t{}: 0x50b-0x50b.7 (1)
0x500|                                 00            |           .    |                  n: 0 0x50b-0x50b.7 (1)
     |                                               |                |                  x[0:0]: 0x50c-NA (0)
     |                                               |                |                e[0:2]: 0x50c-0x514.7 (9)
     |                                               |                |                  [0]{}: in 0x50c-0x513.7 (8)
0x500|                                    03         |            .   |                    loop: 0x3 (valid) 0x50c-0x50c.7 (1)
0x500|                                       7f      |             .  |                    bt: "i32" (127) 0x50d-0x50d.7 (1)
     |                                               |                |                    instructions[0:3]: 0x50e-0x512.7 (5)
     |                                               |                |                      [0]{}: instr 0x50e-0x50f.7 (2)
0x500|                                          10   |              . |                        call: 0x10 (valid) 0x50e-0x50e.7 (1)
0x500|                                             00|               .|                        x: 0 0x50f-0x50f.7 (1)
     |                                               |                |                      [1]{}: instr 0x510-0x510.7 (1)
0x510|00                                             |.               |                        unreachable: 0x0 (valid) 0x510-0x510.7 (1)
     |                                               |                |                      [2]{}: instr 0x511-0x512.7 (2)
0x510|   41                                          | A              |                        i32.const: 0x41 (valid) 0x511-0x511.7 (1)
0x510|      02                                       |  .             |                        n: 2 0x512-0x512.7 (1)
0x510|         0b                                    |   .            |                    end: 11 (valid) 0x513-0x513.7 (1)
     |                                               |                |                  [1]{}: in 0x514-0x514.7 (1)
0x510|            0b                                 |    .           |                    end: 0xb (valid) 0x514-0x514.7 (1)
     |                                               |                |            [17]{}: code 0x515-0x51e.7 (10)
0x510|               09                              |     .          |              size: 9 0x515-0x515.7 (1)
     |                                               |                |              code{}: 0x516-0x51e.7 (9)
     |                                               |                |                t{}: 0x516-0x516.7 (1)
0x510|                  00                           |      .         |                  n: 0 0x516-0x516.7 (1)
     |                                               |                |                  x[0:0]: 0x517-NA (0)
     |                                               |                |                e[0:2]: 0x517-0x51e.7 (8)
     |                                               |                |                  [0]{}: in 0x517-0x51d.7 (7)
0x510|                     03                        |       .        |                    loop: 0x3 (valid) 0x517-0x517.7 (1)
0x510|                        40                     |        @       |                    bt: "ε" (64) 0x518-0x518.7 (1)
     |                                               |                |                    instructions[0:3]: 0x519-0x51c.7 (4)
     |                                               |                |                      [0]{}: instr 0x519-0x519.7 (1)
0x510|                           01                  |         .      |                        nop: 0x1 (valid) 0x519-0x519.7 (1)
     |                                               |                |                      [1]{}: instr 0x51a-0x51b.7 (2)
0x510|                              10               |          .     |                        call: 0x10 (valid) 0x51a-0x51a.7 (1)
0x510|                                 00            |           .    |                        x: 0 0x51b-0x51b.7 (1)
     |                                               |                |                      [2]{}: instr 0x51c-0x51c.7 (1)
0x510|                                    00         |            .   |                        unreachable: 0x0 (valid) 0x51c-0x51c.7 (1)
0x510|                                       0b      |             .  |                    end: 11 (valid) 0x51d-0x51d.7 (1)
     |                                               |                |                  [1]{}: in 0x51e-0x51e.7 (1)
0x510|                                          0b   |              . |                    end: 0xb (valid) 0x51e-0x51e.7 (1)
     |                                               |                |            [18]{}: code 0x51f-0x52e.7 (16)
0x510|                                             0f|               .|              size: 15 0x51f-0x51f.7 (1)
     |                                               |                |              code{}: 0x520-0x52e.7 (15)
     |                                               |                |                t{}: 0x520-0x520.7 (1)
0x520|00                                             |.               |                  n: 0 0x520-0x520.7 (1)
     |                                               |                |                  x[0:0]: 0x521-NA (0)
     |                                               |                |                e[0:2]: 0x521-0x52e.7 (14)
     |                                               |                |                  [0]{}: in 0x521-0x52d.7 (13)
0x520|   02                                          | .              |                    block: 0x2 (valid) 0x521-0x521.7 (1)
0x520|      7f                                       |  .             |                    bt: "i32" (127) 0x522-0x522.7 (1)
     |                                               |                |                    instructions[0:1]: 0x523-0x52c.7 (10)
     |                                               |                |                      [0]{}: instr 0x523-0x52c.7 (10)
0x520|         03                                    |   .            |                        loop: 0x3 (valid) 0x523-0x523.7 (1)
0x520|            7f                                 |    .           |                        bt: "i32" (127) 0x524-0x524.7 (1)
     |                                               |                |                        instructions[0:4]: 0x525-0x52b.7 (7)
     |                                               |                |                          [0]{}: instr 0x525-0x526.7 (2)
0x520|               10                              |     .          |                            call: 0x10 (valid) 0x525-0x525.7 (1)
0x520|                  00                           |      .         |                            x: 0 0x526-0x526.7 (1)
     |                                               |                |                          [1]{}: instr 0x527-0x528.7 (2)
0x520|                     41                        |       A        |                            i32.const: 0x41 (valid) 0x527-0x527.7 (1)
0x520|                        01                     |        .       |                            n: 1 0x528-0x528.7 (1)
     |                                               |                |                          [2]{}: instr 0x529-0x52a.7 (2)
0x520|                           0c                  |         .      |                            br: 0xc (valid) 0x529-0x529.7 (1)
0x520|                              01               |          .     |                            l: 1 0x52a-0x52a.7 (1)
     |                                               |                |                          [3]{}: instr 0x52b-0x52b.7 (1)
0x520|                                 00            |           .    |                            unreachable: 0x0 (valid) 0x52b-0x52b.7 (1)
0x520|                                    0b         |            .   |                        end: 11 (valid) 0x52c-0x52c.7 (1)
0x520|                                       0b      |             .  |                    end: 11 (valid) 0x52d-0x52d.7 (1)
     |                                               |                |                  [1]{}: in 0x52e-0x52e.7 (1)
0x520|                                          0b   |              . |                    end: 0xb (valid) 0x52e-0x52e.7 (1)
     |                                               |                |            [19]{}: code 0x52f-0x537.7 (9)
0x520|                                             08|               .|              size: 8 0x52f-0x52f.7 (1)
     |                                               |                |              code{}: 0x530-0x537.7 (8)
     |                                               |                |                t{}: 0x530-0x530.7 (1)
0x530|00                                             |.               |                  n: 0 0x530-0x530.7 (1)
     |                                               |                |                  x[0:0]: 0x531-NA (0)
     |                                               |                |                e[0:2]: 0x531-0x537.7 (7)
     |                                               |                |                  [0]{}: in 0x531-0x536.7 (6)
0x530|   02                                          | .              |                    block: 0x2 (valid) 0x531-0x531.7 (1)
0x530|      7f                                       |  .             |                    bt: "i32" (127) 0x532-0x532.7 (1)
     |                                               |                |                    instructions[0:2]: 0x533-0x535.7 (3)
     |                                               |                |                      [0]{}: instr 0x533-0x533.7 (1)
0x530|         00                                    |   .            |                        unreachable: 0x0 (valid) 0x533-0x533.7 (1)
     |                                               |                |                      [1]{}: instr 0x534-0x535.7 (2)
0x530|            0c                                 |    .           |                        br: 0xc (valid) 0x534-0x534.7 (1)
0x530|               00                              |     .          |                        l: 0 0x535-0x535.7 (1)
0x530|                  0b                           |      .         |                    end: 11 (valid) 0x536-0x536.7 (1)
     |                                               |                |                  [1]{}: in 0x537-0x537.7 (1)
0x530|                     0b                        |       .        |                    end: 0xb (valid) 0x537-0x537.7 (1)
     |                                               |                |            [20]{}: code 0x538-0x540.7 (9)
0x530|                        08                     |        .       |              size: 8 0x538-0x538.7 (1)
     |                                               |                |              code{}: 0x539-0x540.7 (8)
     |                                               |                |                t{}: 0x539-0x539.7 (1)
0x530|                           00                  |         .      |                  n: 0 0x539-0x539.7 (1)
     |                                               |                |                  x[0:0]: 0x53a-NA (0)
     |                                               |                |                e[0:2]: 0x53a-0x540.7 (7)
     |                                               |                |                  [0]{}: in 0x53a-0x53f.7 (6)
0x530|                              02               |          .     |                    block: 0x2 (valid) 0x53a-0x53a.7 (1)
0x530|                                 40            |           @    |                    bt: "ε" (64) 0x53b-0x53b.7 (1)
     |                                               |                |                    instructions[0:2]: 0x53c-0x53e.7 (3)
     |                                               |                |                      [0]{}: instr 0x53c-0x53c.7 (1)
0x530|                                    00         |            .   |                        unreachable: 0x0 (valid) 0x53c-0x53c.7 (1)
     |                                               |                |                      [1]{}: instr 0x53d-0x53e.7 (2)
0x530|                                       0d      |             .  |                        br_if: 0xd (valid) 0x53d-0x53d.7 (1)
0x530|                                          00   |              . |                        l: 0 0x53e-0x53e.7 (1)
0x530|                                             0b|               .|                    end: 11 (valid) 0x53f-0x53f.7 (1)
     |                                               |                |                  [1]{}: in 0x540-0x540.7 (1)
0x540|0b                                             |.               |                    end: 0xb (valid) 0x540-0x540.7 (1)
     |                                               |                |            [21]{}: code 0x541-0x54e.7 (14)
0x540|   0d                                          | .              |              size: 13 0x541-0x541.7 (1)
     |                                               |                |              code{}: 0x542-0x54e.7 (13)
     |                                               |                |                t{}: 0x542-0x542.7 (1)
0x540|      00                                       |  .             |                  n: 0 0x542-0x542.7 (1)
     |                                               |                |                  x[0:0]: 0x543-NA (0)
     |                                               |                |                e[0:2]: 0x543-0x54e.7 (12)
     |                                               |                |                  [0]{}: in 0x543-0x54d.7 (11)
0x540|         02                                    |   .            |                    block: 0x2 (valid) 0x543-0x543.7 (1)
0x540|            7f                                 |    .           |                    bt: "i32" (127) 0x544-0x544.7 (1)
     |                                               |                |                    instructions[0:5]: 0x545-0x54c.7 (8)
     |                                               |                |                      [0]{}: instr 0x545-0x545.7 (1)
0x540|               00                              |     .          |                        unreachable: 0x0 (valid) 0x545-0x545.7 (1)
     |                                               |                |                      [1]{}: instr 0x546-0x547.7 (2)
0x540|                  41                           |      A         |                        i32.const: 0x41 (valid) 0x546-0x546.7 (1)
0x540|                     01                        |       .        |                        n: 1 0x547-0x547.7 (1)
     |                                               |                |                      [2]{}: instr 0x548-0x549.7 (2)
0x540|                        0d                     |        .       |                        br_if: 0xd (valid) 0x548-0x548.7 (1)
0x540|                           00                  |         .      |                        l: 0 0x549-0x549.7 (1)
     |                                               |                |                      [3]{}: instr 0x54a-0x54a.7 (1)
0x540|                              1a               |          .     |                        drop: 0x1a (valid) 0x54a-0x54a.7 (1)
     |                                               |                |                      [4]{}: instr 0x54b-0x54c.7 (2)
0x540|                                 41            |           A    |                        i32.const: 0x41 (valid) 0x54b-0x54b.7 (1)
0x540|                                    07         |            .   |                        n: 7 0x54c-0x54c.7 (1)
0x540|                                       0b      |             .  |                    end: 11 (valid) 0x54d-0x54d.7 (1)
     |                                               |                |                  [1]{}: in 0x54e-0x54e.7 (1)
0x540|                                          0b   |              . |                    end: 0xb (valid) 0x54e-0x54e.7 (1)
     |                                               |                |            [22]{}: code 0x54f-0x55c.7 (14)
0x540|                                             0d|               .|              size: 13 0x54f-0x54f.7 (1)
     |                                               |                |              code{}: 0x550-0x55c.7 (13)
     |                                               |                |                t{}: 0x550-0x550.7 (1)
0x550|00                                             |.               |                  n: 0 0x550-0x550.7 (1)
     |                                               |                |                  x[0:0]: 0x551-NA (0)
     |                                               |                |                e[0:2]: 0x551-0x55c.7 (12)
     |                                               |                |                  [0]{}: in 0x551-0x55b.7 (11)
0x550|   02                                          | .              |                    block: 0x2 (valid) 0x551-0x551.7 (1)
0x550|      7f                                       |  .             |                    bt: "i32" (127) 0x552-0x552.7 (1)
     |                                               |                |                    instructions[0:5]: 0x553-0x55a.7 (8)
     |                                               |                |                      [0]{}: instr 0x553-0x554.7 (2)
0x550|         41                                    |   A            |                        i32.const: 0x41 (valid) 0x553-0x553.7 (1)
0x550|            06                                 |    .           |                        n: 6 0x554-0x554.7 (1)
     |                                               |                |                      [1]{}: instr 0x555-0x555.7 (1)
0x550|               00                              |     .          |                        unreachable: 0x0 (valid) 0x555-0x555.7 (1)
     |                                               |                |                      [2]{}: instr 0x556-0x557.7 (2)
0x550|                  0d                           |      .         |                        br_if: 0xd (valid) 0x556-0x556.7 (1)
0x550|                     00                        |       .        |                        l: 0 0x557-0x557.7 (1)
     |                                               |                |                      [3]{}: instr 0x558-0x558.7 (1)
0x550|                        1a                     |        .       |                        drop: 0x1a (valid) 0x558-0x558.7 (1)
     |                                               |                |                      [4]{}: instr 0x559-0x55a.7 (2)
0x550|                           41                  |         A      |                        i32.const: 0x41 (valid) 0x559-0x559.7 (1)
0x550|                              07               |          .     |                        n: 7 0x55a-0x55a.7 (1)
0x550|                                 0b            |           .    |                    end: 11 (valid) 0x55b-0x55b.7 (1)
     |                                               |                |                  [1]{}: in 0x55c-0x55c.7 (1)
0x550|                                    0b         |            .   |                    end: 0xb (valid) 0x55c-0x55c.7 (1)
     |                                               |                |            [23]{}: code 0x55d-0x568.7 (12)
0x550|                                       0b      |             .  |              size: 11 0x55d-0x55d.7 (1)
     |                                               |                |              code{}: 0x55e-0x568.7 (11)
     |                                               |                |                t{}: 0x55e-0x55e.7 (1)
0x550|                                          00   |              . |                  n: 0 0x55e-0x55e.7 (1)
     |                                               |                |                  x[0:0]: 0x55f-NA (0)
     |                                               |                |                e[0:2]: 0x55f-0x568.7 (10)
     |                                               |                |                  [0]{}: in 0x55f-0x567.7 (9)
0x550|                                             02|               .|                    block: 0x2 (valid) 0x55f-0x55f.7 (1)
0x560|40                                             |@               |                    bt: "ε" (64) 0x560-0x560.7 (1)
     |                                               |                |                    instructions[0:2]: 0x561-0x566.7 (6)
     |                                               |                |                      [0]{}: instr 0x561-0x561.7 (1)
0x560|   00                                          | .              |                        unreachable: 0x0 (valid) 0x561-0x561.7 (1)
     |                                               |                |                      [1]{}: instr 0x562-0x566.7 (5)
0x560|      0e                                       |  .             |                        br_table: 0xe (valid) 0x562-0x562.7 (1)
     |                                               |                |                        l{}: 0x563-0x565.7 (3)
0x560|         02                                    |   .            |                          n: 2 0x563-0x563.7 (1)
     |                                               |                |                          x[0:2]: 0x564-0x565.7 (2)
0x560|            00                                 |    .           |                            [0]: 0 l 0x564-0x564.7 (1)
0x560|               00                              |     .          |                            [1]: 0 l 0x565-0x565.7 (1)
0x560|                  00                           |      .         |                        lN: 0 0x566-0x566.7 (1)
0x560|                     0b                        |       .        |                    end: 11 (valid) 0x567-0x567.7 (1)
     |                                               |                |                  [1]{}: in 0x568-0x568.7 (1)
0x560|                        0b                     |        .       |                    end: 0xb (valid) 0x568-0x568.7 (1)
     |                                               |                |            [24]{}: code 0x569-0x578.7 (16)
0x560|                           0f                  |         .      |              size: 15 0x569-0x569.7 (1)
     |                                               |                |              code{}: 0x56a-0x578.7 (15)
     |                                               |                |                t{}: 0x56a-0x56a.7 (1)
0x560|                              00               |          .     |                  n: 0 0x56a-0x56a.7 (1)
     |                                               |                |                  x[0:0]: 0x56b-NA (0)
     |                                               |                |                e[0:2]: 0x56b-0x578.7 (14)
     |                                               |                |                  [0]{}: in 0x56b-0x577.7 (13)
0x560|                                 02            |           .    |                    block: 0x2 (valid) 0x56b-0x56b.7 (1)
0x560|                                    7f         |            .   |                    bt: "i32" (127) 0x56c-0x56c.7 (1)
     |                                               |                |                    instructions[0:4]: 0x56d-0x576.7 (10)
     |                                               |                |                      [0]{}: instr 0x56d-0x56d.7 (1)
0x560|                                       00      |             .  |                        unreachable: 0x0 (valid) 0x56d-0x56d.7 (1)
     |                                               |                |                      [1]{}: instr 0x56e-0x56f.7 (2)
0x560|                                          41   |              A |                        i32.const: 0x41 (valid) 0x56e-0x56e.7 (1)
0x560|                                             01|               .|                        n: 1 0x56f-0x56f.7 (1)
     |                                               |                |                      [2]{}: instr 0x570-0x574.7 (5)
0x570|0e                                             |.               |                        br_table: 0xe (valid) 0x570-0x570.7 (1)
     |                                               |                |                        l{}: 0x571-0x573.7 (3)
0x570|   02                                          | .              |                          n: 2 0x571-0x571.7 (1)
     |                                               |                |                          x[0:2]: 0x572-0x573.7 (2)
0x570|      00                                       |  .             |                            [0]: 0 l 0x572-0x572.7 (1)
0x570|         00                                    |   .            |                            [1]: 0 l 0x573-0x573.7 (1)
0x570|            00                                 |    .           |                        lN: 0 0x574-0x574.7 (1)
     |                                               |                |                      [3]{}: instr 0x575-0x576.7 (2)
0x570|               41                              |     A          |                        i32.const: 0x41 (valid) 0x575-0x575.7 (1)
0x570|                  07                           |      .         |                        n: 7 0x576-0x576.7 (1)
0x570|                     0b                        |       .        |                    end: 11 (valid) 0x577-0x577.7 (1)
     |                                               |                |                  [1]{}: in 0x578-0x578.7 (1)
0x570|                        0b                     |        .       |                    end: 0xb (valid) 0x578-0x578.7 (1)
     |                                               |                |            [25]{}: code 0x579-0x588.7 (16)
0x570|                           0f                  |         .      |              size: 15 0x579-0x579.7 (1)
     |                                               |                |              code{}: 0x57a-0x588.7 (15)
     |                                               |                |                t{}: 0x57a-0x57a.7 (1)
0x570|                              00               |          .     |                  n: 0 0x57a-0x57a.7 (1)
     |                                               |                |                  x[0:0]: 0x57b-NA (0)
     |                                               |                |                e[0:2]: 0x57b-0x588.7 (14)
     |                                               |                |                  [0]{}: in 0x57b-0x587.7 (13)
0x570|                                 02            |           .    |                    block: 0x2 (valid) 0x57b-0x57b.7 (1)
0x570|                                    7f         |            .   |                    bt: "i32" (127) 0x57c-0x57c.7 (1)
     |                                               |                |                    instructions[0:1]: 0x57d-0x586.7 (10)
     |                                               |                |                      [0]{}: instr 0x57d-0x586.7 (10)
0x570|                                       02      |             .  |                        block: 0x2 (valid) 0x57d-0x57d.7 (1)
0x570|                                          7f   |              . |                        bt: "i32" (127) 0x57e-0x57e.7 (1)
     |                                               |                |                        instructions[0:3]: 0x57f-0x585.7 (7)
     |                                               |                |                          [0]{}: instr 0x57f-0x57f.7 (1)
0x570|                                             00|               .|                            unreachable: 0x0 (valid) 0x57f-0x57f.7 (1)
     |                                               |                |                          [1]{}: instr 0x580-0x581.7 (2)
0x580|41                                             |A               |                            i32.const: 0x41 (valid) 0x580-0x580.7 (1)
0x580|   01                                          | .              |                            n: 1 0x581-0x581.7 (1)
     |                                               |                |                          [2]{}: instr 0x582-0x585.7 (4)
0x580|      0e                                       |  .             |                            br_table: 0xe (valid) 0x582-0x582.7 (1)
     |                                               |                |                            l{}: 0x583-0x584.7 (2)
0x580|         01                                    |   .            |                              n: 1 0x583-0x583.7 (1)
     |                                               |                |                              x[0:1]: 0x584-0x584.7 (1)
0x580|            00                                 |    .           |                                [0]: 0 l 0x584-0x584.7 (1)
0x580|               01                              |     .          |                            lN: 1 0x585-0x585.7 (1)
0x580|                  0b                           |      .         |                        end: 11 (valid) 0x586-0x586.7 (1)
0x580|                     0b                        |       .        |                    end: 11 (valid) 0x587-0x587.7 (1)
     |                                               |                |                  [1]{}: in 0x588-0x588.7 (1)
0x580|                        0b                     |        .       |                    end: 0xb (valid) 0x588-0x588.7 (1)
     |                                               |                |            [26]{}: code 0x589-0x597.7 (15)
0x580|                           0e                  |         .      |              size: 14 0x589-0x589.7 (1)
     |                                               |                |              code{}: 0x58a-0x597.7 (14)
     |                                               |                |                t{}: 0x58a-0x58a.7 (1)
0x580|                              00               |          .     |                  n: 0 0x58a-0x58a.7 (1)
     |                                               |                |                  x[0:0]: 0x58b-NA (0)
     |                                               |                |                e[0:2]: 0x58b-0x597.7 (13)
     |                                               |                |                  [0]{}: in 0x58b-0x596.7 (12)
0x580|                                 02            |           .    |                    block: 0x2 (valid) 0x58b-0x58b.7 (1)
0x580|                                    7f         |            .   |                    bt: "i32" (127) 0x58c-0x58c.7 (1)
     |                                               |                |                    instructions[0:4]: 0x58d-0x595.7 (9)
     |                                               |                |                      [0]{}: instr 0x58d-0x58e.7 (2)
0x580|                                       41      |             A  |                        i32.const: 0x41 (valid) 0x58d-0x58d.7 (1)
0x580|                                          06   |              . |                        n: 6 0x58e-0x58e.7 (1)
     |                                               |                |                      [1]{}: instr 0x58f-0x58f.7 (1)
0x580|                                             00|               .|                        unreachable: 0x0 (valid) 0x58f-0x58f.7 (1)
     |                                               |                |                      [2]{}: instr 0x590-0x593.7 (4)
0x590|0e                                             |.               |                        br_table: 0xe (valid) 0x590-0x590.7 (1)
     |                                               |                |                        l{}: 0x591-0x592.7 (2)
0x590|   01                                          | .              |                          n: 1 0x591-0x591.7 (1)
     |                                               |                |                          x[0:1]: 0x592-0x592.7 (1)
0x590|      00                                       |  .             |                            [0]: 0 l 0x592-0x592.7 (1)
0x590|         00                                    |   .            |                        lN: 0 0x593-0x593.7 (1)
     |                                               |                |                      [3]{}: instr 0x594-0x595.7 (2)
0x590|            41                                 |    A           |                        i32.const: 0x41 (valid) 0x594-0x594.7 (1)
0x590|               07                              |     .          |                        n: 7 0x595-0x595.7 (1)
0x590|                  0b                           |      .         |                    end: 11 (valid) 0x596-0x596.7 (1)
     |                                               |                |                  [1]{}: in 0x597-0x597.7 (1)
0x590|                     0b                        |       .        |                    end: 0xb (valid) 0x597-0x597.7 (1)
     |                                               |                |            [27]{}: code 0x598-0x5a4.7 (13)
0x590|                        0c                     |        .       |              size: 12 0x598-0x598.7 (1)
     |                                               |                |              code{}: 0x599-0x5a4.7 (12)
     |                                               |                |                t{}: 0x599-0x599.7 (1)
0x590|                           00                  |         .      |                  n: 0 0x599-0x599.7 (1)
     |                                               |                |                  x[0:0]: 0x59a-NA (0)
     |                                               |                |                e[0:2]: 0x59a-0x5a4.7 (11)
     |                                               |                |                  [0]{}: in 0x59a-0x5a3.7 (10)
0x590|                              02               |          .     |                    block: 0x2 (valid) 0x59a-0x59a.7 (1)
0x590|                                 7f            |           .    |                    bt: "i32" (127) 0x59b-0x59b.7 (1)
     |                                               |                |                    instructions[0:3]: 0x59c-0x5a2.7 (7)
     |                                               |                |                      [0]{}: instr 0x59c-0x59c.7 (1)
0x590|                                    00         |            .   |                        unreachable: 0x0 (valid) 0x59c-0x59c.7 (1)
     |                                               |                |                      [1]{}: instr 0x59d-0x5a0.7 (4)
0x590|                                       0e      |             .  |                        br_table: 0xe (valid) 0x59d-0x59d.7 (1)
     |                                               |                |                        l{}: 0x59e-0x59f.7 (2)
0x590|                                          01   |              . |                          n: 1 0x59e-0x59e.7 (1)
     |                                               |                |                          x[0:1]: 0x59f-0x59f.7 (1)
0x590|                                             00|               .|                            [0]: 0 l 0x59f-0x59f.7 (1)
0x5a0|00                                             |.               |                        lN: 0 0x5a0-0x5a0.7 (1)
     |                                               |                |                      [2]{}: instr 0x5a1-0x5a2.7 (2)
0x5a0|   41                                          | A              |                        i32.const: 0x41 (valid) 0x5a1-0x5a1.7 (1)
0x5a0|      08                                       |  .             |                        n: 8 0x5a2-0x5a2.7 (1)
0x5a0|         0b                                    |   .            |                    end: 11 (valid) 0x5a3-0x5a3.7 (1)
     |                                               |                |                  [1]{}: in 0x5a4-0x5a4.7 (1)
0x5a0|            0b                                 |    .           |                    end: 0xb (valid) 0x5a4-0x5a4.7 (1)
     |                                               |                |            [28]{}: code 0x5a5-0x5a9.7 (5)
0x5a0|               04                              |     .          |              size: 4 0x5a5-0x5a5.7 (1)
     |                                               |                |              code{}: 0x5a6-0x5a9.7 (4)
     |                                               |                |                t{}: 0x5a6-0x5a6.7 (1)
0x5a0|                  00                           |      .         |                  n: 0 0x5a6-0x5a6.7 (1)
     |                                               |                |                  x[0:0]: 0x5a7-NA (0)
     |                                               |                |                e[0:3]: 0x5a7-0x5a9.7 (3)
     |                                               |                |                  [0]{}: in 0x5a7-0x5a7.7 (1)
0x5a0|                     00                        |       .        |                    unreachable: 0x0 (valid) 0x5a7-0x5a7.7 (1)
     |                                               |                |                  [1]{}: in 0x5a8-0x5a8.7 (1)
0x5a0|                        0f                     |        .       |                    return: 0xf (valid) 0x5a8-0x5a8.7 (1)
     |                                               |                |                  [2]{}: in 0x5a9-0x5a9.7 (1)
0x5a0|                           0b                  |         .      |                    end: 0xb (valid) 0x5a9-0x5a9.7 (1)
     |                                               |                |            [29]{}: code 0x5aa-0x5b5.7 (12)
0x5a0|                              0b               |          .     |              size: 11 0x5aa-0x5aa.7 (1)
     |                                               |                |              code{}: 0x5ab-0x5b5.7 (11)
     |                                               |                |                t{}: 0x5ab-0x5ab.7 (1)
0x5a0|                                 00            |           .    |                  n: 0 0x5ab-0x5ab.7 (1)
     |                                               |                |                  x[0:0]: 0x5ac-NA (0)
     |                                               |                |                e[0:3]: 0x5ac-0x5b5.7 (10)
     |                                               |                |                  [0]{}: in 0x5ac-0x5ac.7 (1)
0x5a0|                                    00         |            .   |                    unreachable: 0x0 (valid) 0x5ac-0x5ac.7 (1)
     |                                               |                |                  [1]{}: in 0x5ad-0x5b4.7 (8)
0x5a0|                                       04      |             .  |                    if: 0x4 (valid) 0x5ad-0x5ad.7 (1)
0x5a0|                                          7f   |              . |                    bt: "i32" (127) 0x5ae-0x5ae.7 (1)
     |                                               |                |                    in1[0:1]: 0x5af-0x5b0.7 (2)
     |                                               |                |                      [0]{}: instr 0x5af-0x5b0.7 (2)
0x5a0|                                             41|               A|                        i32.const: 0x41 (valid) 0x5af-0x5af.7 (1)
0x5b0|00                                             |.               |                        n: 0 0x5b0-0x5b0.7 (1)
0x5b0|   05                                          | .              |                    else: 0x5 (valid) 0x5b1-0x5b1.7 (1)
     |                                               |                |                    in2[0:1]: 0x5b2-0x5b3.7 (2)
     |                                               |                |                      [0]{}: instr 0x5b2-0x5b3.7 (2)
0x5b0|      41                                       |  A             |                        i32.const: 0x41 (valid) 0x5b2-0x5b2.7 (1)
0x5b0|         01                                    |   .            |                        n: 1 0x5b3-0x5b3.7 (1)
0x5b0|            0b                                 |    .           |                    end: 11 (valid) 0x5b4-0x5b4.7 (1)
     |                                               |                |                  [2]{}: in 0x5b5-0x5b5.7 (1)
0x5b0|               0b                              |     .          |                    end: 0xb (valid) 0x5b5-0x5b5.7 (1)
     |                                               |                |            [30]{}: code 0x5b6-0x5c1.7 (12)
0x5b0|                  0b                           |      .         |              size: 11 0x5b6-0x5b6.7 (1)
     |                                               |                |              code{}: 0x5b7-0x5c1.7 (11)
     |                                               |                |                t{}: 0x5b7-0x5b7.7 (1)
0x5b0|                     00                        |       .        |                  n: 0 0x5b7-0x5b7.7 (1)
     |                                               |                |                  x[0:0]: 0x5b8-NA (0)
     |                                               |                |                e[0:3]: 0x5b8-0x5c1.7 (10)
     |                                               |                |                  [0]{}: in 0x5b8-0x5b9.7 (2)
0x5b0|                        20                     |                |                    local.get: 0x20 (valid) 0x5b8-0x5b8.7 (1)
0x5b0|                           00                  |         .      |                    x: 0 0x5b9-0x5b9.7 (1)
     |                                               |                |                  [1]{}: in 0x5ba-0x5c0.7 (7)
0x5b0|                              04               |          .     |                    if: 0x4 (valid) 0x5ba-0x5ba.7 (1)
0x5b0|                                 7f            |           .    |                    bt: "i32" (127) 0x5bb-0x5bb.7 (1)
     |                                               |                |                    in1[0:1]: 0x5bc-0x5bc.7 (1)
     |                                               |                |                      [0]{}: instr 0x5bc-0x5bc.7 (1)
0x5b0|                                    00         |            .   |                        unreachable: 0x0 (valid) 0x5bc-0x5bc.7 (1)
0x5b0|                                       05      |             .  |                    else: 0x5 (valid) 0x5bd-0x5bd.7 (1)
     |                                               |                |                    in2[0:1]: 0x5be-0x5bf.7 (2)
     |                                               |                |                      [0]{}: instr 0x5be-0x5bf.7 (2)
0x5b0|                                          20   |                |                        local.get: 0x20 (valid) 0x5be-0x5be.7 (1)
0x5b0|                                             01|               .|                        x: 1 0x5bf-0x5bf.7 (1)
0x5c0|0b                                             |.               |                    end: 11 (valid) 0x5c0-0x5c0.7 (1)
     |                                               |                |                  [2]{}: in 0x5c1-0x5c1.7 (1)
0x5c0|   0b                                          | .              |                    end: 0xb (valid) 0x5c1-0x5c1.7 (1)
     |                                               |                |            [31]{}: code 0x5c2-0x5cd.7 (12)
0x5c0|      0b                                       |  .             |              size: 11 0x5c2-0x5c2.7 (1)
     |                                               |                |              code{}: 0x5c3-0x5cd.7 (11)
     |                                               |                |                t{}: 0x5c3-0x5c3.7 (1)
0x5c0|         00                                    |   .            |                  n: 0 0x5c3-0x5c3.7 (1)
     |                                               |                |                  x[0:0]: 0x5c4-NA (0)
     |                                               |                |                e[0:3]: 0x5c4-0x5cd.7 (10)
     |                                               |                |                  [0]{}: in 0x5c4-0x5c5.7 (2)
0x5c0|            20                                 |                |                    local.get: 0x20 (valid) 0x5c4-0x5c4.7 (1)
0x5c0|               00                              |     .          |                    x: 0 0x5c5-0x5c5.7 (1)
     |                                               |                |                  [1]{}: in 0x5c6-0x5cc.7 (7)
0x5c0|                  04                           |      .         |                    if: 0x4 (valid) 0x5c6-0x5c6.7 (1)
0x5c0|                     7f                        |       .        |                    bt: "i32" (127) 0x5c7-0x5c7.7 (1)
     |                                               |                |                    in1[0:1]: 0x5c8-0x5c9.7 (2)
     |                                               |                |                      [0]{}: instr 0x5c8-0x5c9.7 (2)
0x5c0|                        20                     |                |                        local.get: 0x20 (valid) 0x5c8-0x5c8.7 (1)
0x5c0|                           01                  |         .      |                        x: 1 0x5c9-0x5c9.7 (1)
0x5c0|                              05               |          .     |                    else: 0x5 (valid) 0x5ca-0x5ca.7 (1)
     |                                               |                |                    in2[0:1]: 0x5cb-0x5cb.7 (1)
     |                                               |                |                      [0]{}: instr 0x5cb-0x5cb.7 (1)
0x5c0|                                 00            |           .    |                        unreachable: 0x0 (valid) 0x5cb-0x5cb.7 (1)
0x5c0|                                    0b         |            .   |                    end: 11 (valid) 0x5cc-0x5cc.7 (1)
     |                                               |                |                  [2]{}: in 0x5cd-0x5cd.7 (1)
0x5c0|                                       0b      |             .  |                    end: 0xb (valid) 0x5cd-0x5cd.7 (1)
     |                                               |                |            [32]{}: code 0x5ce-0x5d8.7 (11)
0x5c0|                                          0a   |              . |              size: 10 0x5ce-0x5ce.7 (1)
     |                                               |                |              code{}: 0x5cf-0x5d8.7 (10)
     |                                               |                |                t{}: 0x5cf-0x5cf.7 (1)
0x5c0|                                             00|               .|                  n: 0 0x5cf-0x5cf.7 (1)
     |                                               |                |                  x[0:0]: 0x5d0-NA (0)
     |                                               |                |                e[0:4]: 0x5d0-0x5d8.7 (9)
     |                                               |                |                  [0]{}: in 0x5d0-0x5d1.7 (2)
0x5d0|20                                             |                |                    local.get: 0x20 (valid) 0x5d0-0x5d0.7 (1)
0x5d0|   00                                          | .              |                    x: 0 0x5d1-0x5d1.7 (1)
     |                                               |                |                  [1]{}: in 0x5d2-0x5d5.7 (4)
0x5d0|      04                                       |  .             |                    if: 0x4 (valid) 0x5d2-0x5d2.7 (1)
0x5d0|         40                                    |   @            |                    bt: "ε" (64) 0x5d3-0x5d3.7 (1)
     |                                               |                |                    in1[0:1]: 0x5d4-0x5d4.7 (1)
     |                                               |                |                      [0]{}: instr 0x5d4-0x5d4.7 (1)
0x5d0|            00                                 |    .           |                        unreachable: 0x0 (valid) 0x5d4-0x5d4.7 (1)
0x5d0|               0b                              |     .          |                    end: 11 (valid) 0x5d5-0x5d5.7 (1)
     |                                               |                |                  [2]{}: in 0x5d6-0x5d7.7 (2)
0x5d0|                  20                           |                |                    local.get: 0x20 (valid) 0x5d6-0x5d6.7 (1)
0x5d0|                     01                        |       .        |                    x: 1 0x5d7-0x5d7.7 (1)
     |                                               |                |                  [3]{}: in 0x5d8-0x5d8.7 (1)
0x5d0|                        0b                     |        .       |                    end: 0xb (valid) 0x5d8-0x5d8.7 (1)
     |                                               |                |            [33]{}: code 0x5d9-0x5e1.7 (9)
0x5d0|                           08                  |         .      |              size: 8 0x5d9-0x5d9.7 (1)
     |                                               |                |              code{}: 0x5da-0x5e1.7 (8)
     |                                               |                |                t{}: 0x5da-0x5da.7 (1)
0x5d0|                              00               |          .     |                  n: 0 0x5da-0x5da.7 (1)
     |                                               |                |                  x[0:0]: 0x5db-NA (0)
     |                                               |                |                e[0:5]: 0x5db-0x5e1.7 (7)
     |                                               |                |                  [0]{}: in 0x5db-0x5db.7 (1)
0x5d0|                                 00            |           .    |                    unreachable: 0x0 (valid) 0x5db-0x5db.7 (1)
     |                                               |                |                  [1]{}: in 0x5dc-0x5dd.7 (2)
0x5d0|                                    20         |                |                    local.get: 0x20 (valid) 0x5dc-0x5dc.7 (1)
0x5d0|                                       00      |             .  |                    x: 0 0x5dd-0x5dd.7 (1)
     |                                               |                |                  [2]{}: in 0x5de-0x5df.7 (2)
0x5d0|                                          20   |                |                    local.get: 0x20 (valid) 0x5de-0x5de.7 (1)
0x5d0|                                             01|               .|                    x: 1 0x5df-0x5df.7 (1)
     |                                               |                |                  [3]{}: in 0x5e0-0x5e0.7 (1)
0x5e0|1b                                             |.               |                    select: 0x1b (valid) 0x5e0-0x5e0.7 (1)
     |                                               |                |                  [4]{}: in 0x5e1-0x5e1.7 (1)
0x5e0|   0b                                          | .              |                    end: 0xb (valid) 0x5e1-0x5e1.7 (1)
     |                                               |                |            [34]{}: code 0x5e2-0x5ea.7 (9)
0x5e0|      08                                       |  .             |              size: 8 0x5e2-0x5e2.7 (1)
     |                                               |                |              code{}: 0x5e3-0x5ea.7 (8)
     |                                               |                |                t{}: 0x5e3-0x5e3.7 (1)
0x5e0|         00                                    |   .            |                  n: 0 0x5e3-0x5e3.7 (1)
     |                                               |                |                  x[0:0]: 0x5e4-NA (0)
     |                                               |                |                e[0:5]: 0x5e4-0x5ea.7 (7)
     |                                               |                |                  [0]{}: in 0x5e4-0x5e5.7 (2)
0x5e0|            20                                 |                |                    local.get: 0x20 (valid) 0x5e4-0x5e4.7 (1)
0x5e0|               00                              |     .          |                    x: 0 0x5e5-0x5e5.7 (1)
     |                                               |                |                  [1]{}: in 0x5e6-0x5e6.7 (1)
0x5e0|                  00                           |      .         |                    unreachable: 0x0 (valid) 0x5e6-0x5e6.7 (1)
     |                                               |                |                  [2]{}: in 0x5e7-0x5e8.7 (2)
0x5e0|                     20                        |                |                    local.get: 0x20 (valid) 0x5e7-0x5e7.7 (1)
0x5e0|                        01                     |        .       |                    x: 1 0x5e8-0x5e8.7 (1)
     |                                               |                |                  [3]{}: in 0x5e9-0x5e9.7 (1)
0x5e0|                           1b                  |         .      |                    select: 0x1b (valid) 0x5e9-0x5e9.7 (1)
     |                                               |                |                  [4]{}: in 0x5ea-0x5ea.7 (1)
0x5e0|                              0b               |          .     |                    end: 0xb (valid) 0x5ea-0x5ea.7 (1)
     |                                               |                |            [35]{}: code 0x5eb-0x5f3.7 (9)
0x5e0|                                 08            |           .    |              size: 8 0x5eb-0x5eb.7 (1)
     |                                               |                |              code{}: 0x5ec-0x5f3.7 (8)
     |                                               |                |                t{}: 0x5ec-0x5ec.7 (1)
0x5e0|                                    00         |            .   |                  n: 0 0x5ec-0x5ec.7 (1)
     |                                               |                |                  x[0:0]: 0x5ed-NA (0)
     |                                               |                |                e[0:5]: 0x5ed-0x5f3.7 (7)
     |                                               |                |                  [0]{}: in 0x5ed-0x5ee.7 (2)
0x5e0|                                       41      |             A  |                    i32.const: 0x41 (valid) 0x5ed-0x5ed.7 (1)
0x5e0|                                          00   |              . |                    n: 0 0x5ee-0x5ee.7 (1)
     |                                               |                |                  [1]{}: in 0x5ef-0x5f0.7 (2)
0x5e0|                                             41|               A|                    i32.const: 0x41 (valid) 0x5ef-0x5ef.7 (1)
0x5f0|01                                             |.               |                    n: 1 0x5f0-0x5f0.7 (1)
     |                                               |                |                  [2]{}: in 0x5f1-0x5f1.7 (1)
0x5f0|   00                                          | .              |                    unreachable: 0x0 (valid) 0x5f1-0x5f1.7 (1)
     |                                               |                |                  [3]{}: in 0x5f2-0x5f2.7 (1)
0x5f0|      1b                                       |  .             |                    select: 0x1b (valid) 0x5f2-0x5f2.7 (1)
     |                                               |                |                  [4]{}: in 0x5f3-0x5f3.7 (1)
0x5f0|         0b                                    |   .            |                    end: 0xb (valid) 0x5f3-0x5f3.7 (1)
     |                                               |                |            [36]{}: code 0x5f4-0x5fd.7 (10)
0x5f0|            09                                 |    .           |              size: 9 0x5f4-0x5f4.7 (1)
     |                                               |                |              code{}: 0x5f5-0x5fd.7 (9)
     |                                               |                |                t{}: 0x5f5-0x5f5.7 (1)
0x5f0|               00                              |     .          |                  n: 0 0x5f5-0x5f5.7 (1)
     |                                               |                |                  x[0:0]: 0x5f6-NA (0)
     |                                               |                |                e[0:5]: 0x5f6-0x5fd.7 (8)
     |                                               |                |                  [0]{}: in 0x5f6-0x5f6.7 (1)
0x5f0|                  00                           |      .         |                    unreachable: 0x0 (valid) 0x5f6-0x5f6.7 (1)
     |                                               |                |                  [1]{}: in 0x5f7-0x5f8.7 (2)
0x5f0|                     41                        |       A        |                    i32.const: 0x41 (valid) 0x5f7-0x5f7.7 (1)
0x5f0|                        02                     |        .       |                    n: 2 0x5f8-0x5f8.7 (1)
     |                                               |                |                  [2]{}: in 0x5f9-0x5fa.7 (2)
0x5f0|                           41                  |         A      |                    i32.const: 0x41 (valid) 0x5f9-0x5f9.7 (1)
0x5f0|                              03               |          .     |                    n: 3 0x5fa-0x5fa.7 (1)
     |                                               |                |                  [3]{}: in 0x5fb-0x5fc.7 (2)
0x5f0|                                 10            |           .    |                    call: 0x10 (valid) 0x5fb-0x5fb.7 (1)
0x5f0|                                    01         |            .   |                    x: 1 0x5fc-0x5fc.7 (1)
     |                                               |                |                  [4]{}: in 0x5fd-0x5fd.7 (1)
0x5f0|                                       0b      |             .  |                    end: 0xb (valid) 0x5fd-0x5fd.7 (1)
     |                                               |                |            [37]{}: code 0x5fe-0x607.7 (10)
0x5f0|                                          09   |              . |              size: 9 0x5fe-0x5fe.7 (1)
     |                                               |                |              code{}: 0x5ff-0x607.7 (9)
     |                                               |                |                t{}: 0x5ff-0x5ff.7 (1)
0x5f0|                                             00|               .|                  n: 0 0x5ff-0x5ff.7 (1)
     |                                               |                |                  x[0:0]: 0x600-NA (0)
     |                                               |                |                e[0:5]: 0x600-0x607.7 (8)
     |                                               |                |                  [0]{}: in 0x600-0x601.7 (2)
0x600|41                                             |A               |                    i32.const: 0x41 (valid) 0x600-0x600.7 (1)
0x600|   01                                          | .              |                    n: 1 0x601-0x601.7 (1)
     |                                               |                |                  [1]{}: in 0x602-0x602.7 (1)
0x600|      00                                       |  .             |                    unreachable: 0x0 (valid) 0x602-0x602.7 (1)
     |                                               |                |                  [2]{}: in 0x603-0x604.7 (2)
0x600|         41                                    |   A            |                    i32.const: 0x41 (valid) 0x603-0x603.7 (1)
0x600|            03                                 |    .           |                    n: 3 0x604-0x604.7 (1)
     |                                               |                |                  [3]{}: in 0x605-0x606.7 (2)
0x600|               10                              |     .          |                    call: 0x10 (valid) 0x605-0x605.7 (1)
0x600|                  01                           |      .         |                    x: 1 0x606-0x606.7 (1)
     |                                               |                |                  [4]{}: in 0x607-0x607.7 (1)
0x600|                     0b                        |       .        |                    end: 0xb (valid) 0x607-0x607.7 (1)
     |                                               |                |            [38]{}: code 0x608-0x611.7 (10)
0x600|                        09                     |        .       |              size: 9 0x608-0x608.7 (1)
     |                                               |                |              code{}: 0x609-0x611.7 (9)
     |                                               |                |                t{}: 0x609-0x609.7 (1)
0x600|                           00                  |         .      |                  n: 0 0x609-0x609.7 (1)
     |                                               |                |                  x[0:0]: 0x60a-NA (0)
     |                                               |                |                e[0:5]: 0x60a-0x611.7 (8)
     |                                               |                |                  [0]{}: in 0x60a-0x60b.7 (2)
0x600|                              41               |          A     |                    i32.const: 0x41 (valid) 0x60a-0x60a.7 (1)
0x600|                                 01            |           .    |                    n: 1 0x60b-0x60b.7 (1)
     |                                               |                |                  [1]{}: in 0x60c-0x60d.7 (2)
0x600|                                    41         |            A   |                    i32.const: 0x41 (valid) 0x60c-0x60c.7 (1)
0x600|                                       02      |             .  |                    n: 2 0x60d-0x60d.7 (1)
     |                                               |                |                  [2]{}: in 0x60e-0x60e.7 (1)
0x600|                                          00   |              . |                    unreachable: 0x0 (valid) 0x60e-0x60e.7 (1)
     |                                               |                |                  [3]{}: in 0x60f-0x610.7 (2)
0x600|                                             10|               .|                    call: 0x10 (valid) 0x60f-0x60f.7 (1)
0x610|01                                             |.               |                    x: 1 0x610-0x610.7 (1)
     |                                               |                |                  [4]{}: in 0x611-0x611.7 (1)
0x610|   0b                                          | .              |                    end: 0xb (valid) 0x611-0x611.7 (1)
     |                                               |                |            [39]{}: code 0x612-0x61e.7 (13)
0x610|      0c                                       |  .             |              size: 12 0x612-0x612.7 (1)
     |                                               |                |              code{}: 0x613-0x61e.7 (12)
     |                                               |                |                t{}: 0x613-0x613.7 (1)
0x610|         00                                    |   .            |                  n: 0 0x613-0x613.7 (1)
     |                                               |                |                  x[0:0]: 0x614-NA (0)
     |                                               |                |                e[0:6]: 0x614-0x61e.7 (11)
     |                                               |                |                  [0]{}: in 0x614-0x614.7 (1)
0x610|            00                                 |    .           |                    unreachable: 0x0 (valid) 0x614-0x614.7 (1)
     |                                               |                |                  [1]{}: in 0x615-0x616.7 (2)
0x610|               41                              |     A          |                    i32.const: 0x41 (valid) 0x615-0x615.7 (1)
0x610|                  01                           |      .         |                    n: 1 0x616-0x616.7 (1)
     |                                               |                |                  [2]{}: in 0x617-0x618.7 (2)
0x610|                     41                        |       A        |                    i32.const: 0x41 (valid) 0x617-0x617.7 (1)
0x610|                        02                     |        .       |                    n: 2 0x618-0x618.7 (1)
     |                                               |                |                  [3]{}: in 0x619-0x61a.7 (2)
0x610|                           41                  |         A      |                    i32.const: 0x41 (valid) 0x619-0x619.7 (1)
0x610|                              03               |          .     |                    n: 3 0x61a-0x61a.7 (1)
     |                                               |                |                  [4]{}: in 0x61b-0x61d.7 (3)
0x610|                                 11            |           .    |                    call: 0x11 (valid) 0x61b-0x61b.7 (1)
0x610|                                    00         |            .   |                    y: 0 0x61c-0x61c.7 (1)
0x610|                                       00      |             .  |                    x: 0 0x61d-0x61d.7 (1)
     |                                               |                |                  [5]{}: in 0x61e-0x61e.7 (1)
0x610|                                          0b   |              . |                    end: 0xb (valid) 0x61e-0x61e.7 (1)
     |                                               |                |            [40]{}: code 0x61f-0x62b.7 (13)
0x610|                                             0c|               .|              size: 12 0x61f-0x61f.7 (1)
     |                                               |                |              code{}: 0x620-0x62b.7 (12)
     |                                               |                |                t{}: 0x620-0x620.7 (1)
0x620|00                                             |.               |                  n: 0 0x620-0x620.7 (1)
     |                                               |                |                  x[0:0]: 0x621-NA (0)
     |                                               |                |                e[0:6]: 0x621-0x62b.7 (11)
     |                                               |                |                  [0]{}: in 0x621-0x622.7 (2)
0x620|   41                                          | A              |                    i32.const: 0x41 (valid) 0x621-0x621.7 (1)
0x620|      00                                       |  .             |                    n: 0 0x622-0x622.7 (1)
     |                                               |                |                  [1]{}: in 0x623-0x623.7 (1)
0x620|         00                                    |   .            |                    unreachable: 0x0 (valid) 0x623-0x623.7 (1)
     |                                               |                |                  [2]{}: in 0x624-0x625.7 (2)
0x620|            41                                 |    A           |                    i32.const: 0x41 (valid) 0x624-0x624.7 (1)
0x620|               02                              |     .          |                    n: 2 0x625-0x625.7 (1)
     |                                               |                |                  [3]{}: in 0x626-0x627.7 (2)
0x620|                  41                           |      A         |                    i32.const: 0x41 (valid) 0x626-0x626.7 (1)
0x620|                     03                        |       .        |                    n: 3 0x627-0x627.7 (1)
     |                                               |                |                  [4]{}: in 0x628-0x62a.7 (3)
0x620|                        11                     |        .       |                    call: 0x11 (valid) 0x628-0x628.7 (1)
0x620|                           00                  |         .      |                    y: 0 0x629-0x629.7 (1)
0x620|                              00               |          .     |                    x: 0 0x62a-0x62a.7 (1)
     |                                               |                |                  [5]{}: in 0x62b-0x62b.7 (1)
0x620|                                 0b            |           .    |                    end: 0xb (valid) 0x62b-0x62b.7 (1)
     |                                               |                |            [41]{}: code 0x62c-0x638.7 (13)
0x620|                                    0c         |            .   |              size: 12 0x62c-0x62c.7 (1)
     |                                               |                |              code{}: 0x62d-0x638.7 (12)
     |                                               |                |                t{}: 0x62d-0x62d.7 (1)
0x620|                                       00      |             .  |                  n: 0 0x62d-0x62d.7 (1)
     |                                               |                |                  x[0:0]: 0x62e-NA (0)
     |                                               |                |                e[0:6]: 0x62e-0x638.7 (11)
     |                                               |                |                  [0]{}: in 0x62e-0x62f.7 (2)
0x620|                                          41   |              A |                    i32.const: 0x41 (valid) 0x62e-0x62e.7 (1)
0x620|                                             00|               .|                    n: 0 0x62f-0x62f.7 (1)
     |                                               |                |                  [1]{}: in 0x630-0x631.7 (2)
0x630|41                                             |A               |                    i32.const: 0x41 (valid) 0x630-0x630.7 (1)
0x630|   01                                          | .              |                    n: 1 0x631-0x631.7 (1)
     |                                               |                |                  [2]{}: in 0x632-0x632.7 (1)
0x630|      00                                       |  .             |                    unreachable: 0x0 (valid) 0x632-0x632.7 (1)
     |                                               |                |                  [3]{}: in 0x633-0x634.7 (2)
0x630|         41                                    |   A            |                    i32.const: 0x41 (valid) 0x633-0x633.7 (1)
0x630|            03                                 |    .           |                    n: 3 0x634-0x634.7 (1)
     |                                               |                |                  [4]{}: in 0x635-0x637.7 (3)
0x630|               11                              |     .          |                    call: 0x11 (valid) 0x635-0x635.7 (1)
0x630|                  00                           |      .         |                    y: 0 0x636-0x636.7 (1)
0x630|                     00                        |       .        |                    x: 0 0x637-0x637.7 (1)
     |                                               |                |                  [5]{}: in 0x638-0x638.7 (1)
0x630|                        0b                     |        .       |                    end: 0xb (valid) 0x638-0x638.7 (1)
     |                                               |                |            [42]{}: code 0x639-0x645.7 (13)
0x630|                           0c                  |         .      |              size: 12 0x639-0x639.7 (1)
     |                                               |                |              code{}: 0x63a-0x645.7 (12)
     |                                               |                |                t{}: 0x63a-0x63a.7 (1)
0x630|                              00               |          .     |                  n: 0 0x63a-0x63a.7 (1)
     |                                               |                |                  x[0:0]: 0x63b-NA (0)
     |                                               |                |                e[0:6]: 0x63b-0x645.7 (11)
     |                                               |                |                  [0]{}: in 0x63b-0x63c.7 (2)
0x630|                                 41            |           A    |                    i32.const: 0x41 (valid) 0x63b-0x63b.7 (1)
0x630|                                    00         |            .   |                    n: 0 0x63c-0x63c.7 (1)
     |                                               |                |                  [1]{}: in 0x63d-0x63e.7 (2)
0x630|                                       41      |             A  |                    i32.const: 0x41 (valid) 0x63d-0x63d.7 (1)
0x630|                                          01   |              . |                    n: 1 0x63e-0x63e.7 (1)
     |                                               |                |                  [2]{}: in 0x63f-0x640.7 (2)
0x630|                                             41|               A|                    i32.const: 0x41 (valid) 0x63f-0x63f.7 (1)
0x640|02                                             |.               |                    n: 2 0x640-0x640.7 (1)
     |                                               |                |                  [3]{}: in 0x641-0x641.7 (1)
0x640|   00                                          | .              |                    unreachable: 0x0 (valid) 0x641-0x641.7 (1)
     |                                               |                |                  [4]{}: in 0x642-0x644.7 (3)
0x640|      11                                       |  .             |                    call: 0x11 (valid) 0x642-0x642.7 (1)
0x640|         00                                    |   .            |                    y: 0 0x643-0x643.7 (1)
0x640|            00                                 |    .           |                    x: 0 0x644-0x644.7 (1)
     |                                               |                |                  [5]{}: in 0x645-0x645.7 (1)
0x640|               0b                              |     .          |                    end: 0xb (valid) 0x645-0x645.7 (1)
     |                                               |                |            [43]{}: code 0x646-0x64d.7 (8)
0x640|                  07                           |      .         |              size: 7 0x646-0x646.7 (1)
     |                                               |                |              code{}: 0x647-0x64d.7 (7)
     |                                               |                |                t{}: 0x647-0x649.7 (3)
0x640|                     01                        |       .        |                  n: 1 0x647-0x647.7 (1)
     |                                               |                |                  x[0:1]: 0x648-0x649.7 (2)
     |                                               |                |                    [0]{}: t 0x648-0x649.7 (2)
0x640|                        01                     |        .       |                      n: 1 0x648-0x648.7 (1)
0x640|                           7d                  |         }      |                      t: "f32" (0x7d) 0x649-0x649.7 (1)
     |                                               |                |                e[0:3]: 0x64a-0x64d.7 (4)
     |                                               |                |                  [0]{}: in 0x64a-0x64a.7 (1)
0x640|                              00               |          .     |                    unreachable: 0x0 (valid) 0x64a-0x64a.7 (1)
     |                                               |                |                  [1]{}: in 0x64b-0x64c.7 (2)
0x640|                                 21            |           !    |                    local.set: 0x21 (valid) 0x64b-0x64b.7 (1)
0x640|                                    00         |            .   |                    x: 0 0x64c-0x64c.7 (1)
     |                                               |                |                  [2]{}: in 0x64d-0x64d.7 (1)
0x640|                                       0b      |             .  |                    end: 0xb (valid) 0x64d-0x64d.7 (1)
     |                                               |                |            [44]{}: code 0x64e-0x655.7 (8)
0x640|                                          07   |              . |              size: 7 0x64e-0x64e.7 (1)
     |                                               |                |              code{}: 0x64f-0x655.7 (7)
     |                                               |                |                t{}: 0x64f-0x651.7 (3)
0x640|                                             01|               .|                  n: 1 0x64f-0x64f.7 (1)
     |                                               |                |                  x[0:1]: 0x650-0x651.7 (2)
     |                                               |                |                    [0]{}: t 0x650-0x651.7 (2)
0x650|01                                             |.               |                      n: 1 0x650-0x650.7 (1)
0x650|   7d                                          | }              |                      t: "f32" (0x7d) 0x651-0x651.7 (1)
     |                                               |                |                e[0:3]: 0x652-0x655.7 (4)
     |                                               |                |                  [0]{}: in 0x652-0x652.7 (1)
0x650|      00                                       |  .             |                    unreachable: 0x0 (valid) 0x652-0x652.7 (1)
     |                                               |                |                  [1]{}: in 0x653-0x654.7 (2)
0x650|         22                                    |   "            |                    local.tee: 0x22 (valid) 0x653-0x653.7 (1)
0x650|            00                                 |    .           |                    x: 0 0x654-0x654.7 (1)
     |                                               |                |                  [2]{}: in 0x655-0x655.7 (1)
0x650|               0b                              |     .          |                    end: 0xb (valid) 0x655-0x655.7 (1)
     |                                               |                |            [45]{}: code 0x656-0x65b.7 (6)
0x650|                  05                           |      .         |              size: 5 0x656-0x656.7 (1)
     |                                               |                |              code{}: 0x657-0x65b.7 (5)
     |                                               |                |                t{}: 0x657-0x657.7 (1)
0x650|                     00                        |       .        |                  n: 0 0x657-0x657.7 (1)
     |                                               |                |                  x[0:0]: 0x658-NA (0)
     |                                               |                |                e[0:3]: 0x658-0x65b.7 (4)
     |                                               |                |                  [0]{}: in 0x658-0x658.7 (1)
0x650|                        00                     |        .       |                    unreachable: 0x0 (valid) 0x658-0x658.7 (1)
     |                                               |                |                  [1]{}: in 0x659-0x65a.7 (2)
0x650|                           24                  |         $      |                    global.set: 0x24 (valid) 0x659-0x659.7 (1)
0x650|                              00               |          .     |                    x: 0 0x65a-0x65a.7 (1)
     |                                               |                |                  [2]{}: in 0x65b-0x65b.7 (1)
0x650|                                 0b            |           .    |                    end: 0xb (valid) 0x65b-0x65b.7 (1)
     |                                               |                |            [46]{}: code 0x65c-0x662.7 (7)
0x650|                                    06         |            .   |              size: 6 0x65c-0x65c.7 (1)
     |                                               |                |              code{}: 0x65d-0x662.7 (6)
     |                                               |                |                t{}: 0x65d-0x65d.7 (1)
0x650|                                       00      |             .  |                  n: 0 0x65d-0x65d.7 (1)
     |                                               |                |                  x[0:0]: 0x65e-NA (0)
     |                                               |                |                e[0:3]: 0x65e-0x662.7 (5)
     |                                               |                |                  [0]{}: in 0x65e-0x65e.7 (1)
0x650|                                          00   |              . |                    unreachable: 0x0 (valid) 0x65e-0x65e.7 (1)
     |                                               |                |                  [1]{}: in 0x65f-0x661.7 (3)
0x650|                                             2a|               *|                    f32.load: 0x2a (valid) 0x65f-0x65f.7 (1)
     |                                               |                |                    m{}: 0x660-0x661.7 (2)
0x660|02                                             |.               |                      a: 2 0x660-0x660.7 (1)
0x660|   00                                          | .              |                      o: 0 0x661-0x661.7 (1)
     |                                               |                |                  [2]{}: in 0x662-0x662.7 (1)
0x660|      0b                                       |  .             |                    end: 0xb (valid) 0x662-0x662.7 (1)
     |                                               |                |            [47]{}: code 0x663-0x669.7 (7)
0x660|         06                                    |   .            |              size: 6 0x663-0x663.7 (1)
     |                                               |                |              code{}: 0x664-0x669.7 (6)
     |                                               |                |                t{}: 0x664-0x664.7 (1)
0x660|            00                                 |    .           |                  n: 0 0x664-0x664.7 (1)
     |                                               |                |                  x[0:0]: 0x665-NA (0)
     |                                               |                |                e[0:3]: 0x665-0x669.7 (5)
     |                                               |                |                  [0]{}: in 0x665-0x665.7 (1)
0x660|               00                              |     .          |                    unreachable: 0x0 (valid) 0x665-0x665.7 (1)
     |                                               |                |                  [1]{}: in 0x666-0x668.7 (3)
0x660|                  30                           |      0         |                    i64.load8_s: 0x30 (valid) 0x666-0x666.7 (1)
     |                                               |                |                    m{}: 0x667-0x668.7 (2)
0x660|                     00                        |       .        |                      a: 0 0x667-0x667.7 (1)
0x660|                        00                     |        .       |                      o: 0 0x668-0x668.7 (1)
     |                                               |                |                  [2]{}: in 0x669-0x669.7 (1)
0x660|                           0b                  |         .      |                    end: 0xb (valid) 0x669-0x669.7 (1)
     |                                               |                |            [48]{}: code 0x66a-0x679.7 (16)
0x660|                              0f               |          .     |              size: 15 0x66a-0x66a.7 (1)
     |                                               |                |              code{}: 0x66b-0x679.7 (15)
     |                                               |                |                t{}: 0x66b-0x66b.7 (1)
0x660|                                 00            |           .    |                  n: 0 0x66b-0x66b.7 (1)
     |                                               |                |                  x[0:0]: 0x66c-NA (0)
     |                                               |                |                e[0:4]: 0x66c-0x679.7 (14)
     |                                               |                |                  [0]{}: in 0x66c-0x66c.7 (1)
0x660|                                    00         |            .   |                    unreachable: 0x0 (valid) 0x66c-0x66c.7 (1)
     |                                               |                |                  [1]{}: in 0x66d-0x675.7 (9)
0x660|                                       44      |             D  |                    f64.const: 0x44 (valid) 0x66d-0x66d.7 (1)
0x660|                                          00 00|              ..|                    z: 7 0x66e-0x675.7 (8)
0x670|00 00 00 00 1c 40                              |.....@          |
     |                                               |                |                  [2]{}: in 0x676-0x678.7 (3)
0x670|                  39                           |      9         |                    f64.store: 0x39 (valid) 0x676-0x676.7 (1)
     |                                               |                |                    m{}: 0x677-0x678.7 (2)
0x670|                     03                        |       .        |                      a: 3 0x677-0x677.7 (1)
0x670|                        00                     |        .       |                      o: 0 0x678-0x678.7 (1)
     |                                               |                |                  [3]{}: in 0x679-0x679.7 (1)
0x670|                           0b                  |         .      |                    end: 0xb (valid) 0x679-0x679.7 (1)
     |                                               |                |            [49]{}: code 0x67a-0x682.7 (9)
0x670|                              08               |          .     |              size: 8 0x67a-0x67a.7 (1)
     |                                               |                |              code{}: 0x67b-0x682.7 (8)
     |                                               |                |                t{}: 0x67b-0x67b.7 (1)
0x670|                                 00            |           .    |                  n: 0 0x67b-0x67b.7 (1)
     |                                               |                |                  x[0:0]: 0x67c-NA (0)
     |                                               |                |                e[0:4]: 0x67c-0x682.7 (7)
     |                                               |                |                  [0]{}: in 0x67c-0x67d.7 (2)
0x670|                                    41         |            A   |                    i32.const: 0x41 (valid) 0x67c-0x67c.7 (1)
0x670|                                       02      |             .  |                    n: 2 0x67d-0x67d.7 (1)
     |                                               |                |                  [1]{}: in 0x67e-0x67e.7 (1)
0x670|                                          00   |              . |                    unreachable: 0x0 (valid) 0x67e-0x67e.7 (1)
     |                                               |                |                  [2]{}: in 0x67f-0x681.7 (3)
0x670|                                             37|               7|                    i64.store: 0x37 (valid) 0x67f-0x67f.7 (1)
     |                                               |                |                    m{}: 0x680-0x681.7 (2)
0x680|03                                             |.               |                      a: 3 0x680-0x680.7 (1)
0x680|   00                                          | .              |                      o: 0 0x681-0x681.7 (1)
     |                                               |                |                  [3]{}: in 0x682-0x682.7 (1)
0x680|      0b                                       |  .             |                    end: 0xb (valid) 0x682-0x682.7 (1)
     |                                               |                |            [50]{}: code 0x683-0x68b.7 (9)
0x680|         08                                    |   .            |              size: 8 0x683-0x683.7 (1)
     |                                               |                |              code{}: 0x684-0x68b.7 (8)
     |                                               |                |                t{}: 0x684-0x684.7 (1)
0x680|            00                                 |    .           |                  n: 0 0x684-0x684.7 (1)
     |                                               |                |                  x[0:0]: 0x685-NA (0)
     |                                               |                |                e[0:4]: 0x685-0x68b.7 (7)
     |                                               |                |                  [0]{}: in 0x685-0x685.7 (1)
0x680|               00                              |     .          |                    unreachable: 0x0 (valid) 0x685-0x685.7 (1)
     |                                               |                |                  [1]{}: in 0x686-0x687.7 (2)
0x680|                  41                           |      A         |                    i32.const: 0x41 (valid) 0x686-0x686.7 (1)
0x680|                     07                        |       .        |                    n: 7 0x687-0x687.7 (1)
     |                                               |                |                  [2]{}: in 0x688-0x68a.7 (3)
0x680|                        3a                     |        :       |                    i32.store8: 0x3a (valid) 0x688-0x688.7 (1)
     |                                               |                |                    m{}: 0x689-0x68a.7 (2)
0x680|                           00                  |         .      |                      a: 0 0x689-0x689.7 (1)
0x680|                              00               |          .     |                      o: 0 0x68a-0x68a.7 (1)
     |                                               |                |                  [3]{}: in 0x68b-0x68b.7 (1)
0x680|                                 0b            |           .    |                    end: 0xb (valid) 0x68b-0x68b.7 (1)
     |                                               |                |            [51]{}: code 0x68c-0x694.7 (9)
0x680|                                    08         |            .   |              size: 8 0x68c-0x68c.7 (1)
     |                                               |                |              code{}: 0x68d-0x694.7 (8)
     |                                               |                |                t{}: 0x68d-0x68d.7 (1)
0x680|                                       00      |             .  |                  n: 0 0x68d-0x68d.7 (1)
     |                                               |                |                  x[0:0]: 0x68e-NA (0)
     |                                               |                |                e[0:4]: 0x68e-0x694.7 (7)
     |                                               |                |                  [0]{}: in 0x68e-0x68f.7 (2)
0x680|                                          41   |              A |                    i32.const: 0x41 (valid) 0x68e-0x68e.7 (1)
0x680|                                             02|               .|                    n: 2 0x68f-0x68f.7 (1)
     |                                               |                |                  [1]{}: in 0x690-0x690.7 (1)
0x690|00                                             |.               |                    unreachable: 0x0 (valid) 0x690-0x690.7 (1)
     |                                               |                |                  [2]{}: in 0x691-0x693.7 (3)
0x690|   3d                                          | =              |                    i64.store16: 0x3d (valid) 0x691-0x691.7 (1)
     |                                               |                |                    m{}: 0x692-0x693.7 (2)
0x690|      01                                       |  .             |                      a: 1 0x692-0x692.7 (1)
0x690|         00                                    |   .            |                      o: 0 0x693-0x693.7 (1)
     |                                               |                |                  [3]{}: in 0x694-0x694.7 (1)
0x690|            0b                                 |    .           |                    end: 0xb (valid) 0x694-0x694.7 (1)
     |                                               |                |            [52]{}: code 0x695-0x699.7 (5)
0x690|               04                              |     .          |              size: 4 0x695-0x695.7 (1)
     |                                               |                |              code{}: 0x696-0x699.7 (4)
     |                                               |                |                t{}: 0x696-0x696.7 (1)
0x690|                  00                           |      .         |                  n: 0 0x696-0x696.7 (1)
     |                                               |                |                  x[0:0]: 0x697-NA (0)
     |                                               |                |                e[0:3]: 0x697-0x699.7 (3)
     |                                               |                |                  [0]{}: in 0x697-0x697.7 (1)
0x690|                     00                        |       .        |                    unreachable: 0x0 (valid) 0x697-0x697.7 (1)
     |                                               |                |                  [1]{}: in 0x698-0x698.7 (1)
0x690|                        8c                     |        .       |                    f32.neg: 0x8c (valid) 0x698-0x698.7 (1)
     |                                               |                |                  [2]{}: in 0x699-0x699.7 (1)
0x690|                           0b                  |         .      |                    end: 0xb (valid) 0x699-0x699.7 (1)
     |                                               |                |            [53]{}: code 0x69a-0x6a0.7 (7)
0x690|                              06               |          .     |              size: 6 0x69a-0x69a.7 (1)
     |                                               |                |              code{}: 0x69b-0x6a0.7 (6)
     |                                               |                |                t{}: 0x69b-0x69b.7 (1)
0x690|                                 00            |           .    |                  n: 0 0x69b-0x69b.7 (1)
     |                                               |                |                  x[0:0]: 0x69c-NA (0)
     |                                               |                |                e[0:4]: 0x69c-0x6a0.7 (5)
     |                                               |                |                  [0]{}: in 0x69c-0x69c.7 (1)
0x690|                                    00         |            .   |                    unreachable: 0x0 (valid) 0x69c-0x69c.7 (1)
     |                                               |                |                  [1]{}: in 0x69d-0x69e.7 (2)
0x690|                                       41      |             A  |                    i32.const: 0x41 (valid) 0x69d-0x69d.7 (1)
0x690|                                          0a   |              . |                    n: 10 0x69e-0x69e.7 (1)
     |                                               |                |                  [2]{}: in 0x69f-0x69f.7 (1)
0x690|                                             6a|               j|                    i32.add: 0x6a (valid) 0x69f-0x69f.7 (1)
     |                                               |                |                  [3]{}: in 0x6a0-0x6a0.7 (1)
0x6a0|0b                                             |.               |                    end: 0xb (valid) 0x6a0-0x6a0.7 (1)
     |                                               |                |            [54]{}: code 0x6a1-0x6a7.7 (7)
0x6a0|   06                                          | .              |              size: 6 0x6a1-0x6a1.7 (1)
     |                                               |                |              code{}: 0x6a2-0x6a7.7 (6)
     |                                               |                |                t{}: 0x6a2-0x6a2.7 (1)
0x6a0|      00                                       |  .             |                  n: 0 0x6a2-0x6a2.7 (1)
     |                                               |                |                  x[0:0]: 0x6a3-NA (0)
     |                                               |                |                e[0:4]: 0x6a3-0x6a7.7 (5)
     |                                               |                |                  [0]{}: in 0x6a3-0x6a4.7 (2)
0x6a0|         42                                    |   B            |                    i64.const: 0x42 (valid) 0x6a3-0x6a3.7 (1)
0x6a0|            0a                                 |    .           |                    n: 10 0x6a4-0x6a4.7 (1)
     |                                               |                |                  [1]{}: in 0x6a5-0x6a5.7 (1)
0x6a0|               00                              |     .          |                    unreachable: 0x0 (valid) 0x6a5-0x6a5.7 (1)
     |                                               |                |                  [2]{}: in 0x6a6-0x6a6.7 (1)
0x6a0|                  7d                           |      }         |                    i64.sub: 0x7d (valid) 0x6a6-0x6a6.7 (1)
     |                                               |                |                  [3]{}: in 0x6a7-0x6a7.7 (1)
0x6a0|                     0b                        |       .        |                    end: 0xb (valid) 0x6a7-0x6a7.7 (1)
     |                                               |                |            [55]{}: code 0x6a8-0x6ac.7 (5)
0x6a0|                        04                     |        .       |              size: 4 0x6a8-0x6a8.7 (1)
     |                                               |                |              code{}: 0x6a9-0x6ac.7 (4)
     |                                               |                |                t{}: 0x6a9-0x6a9.7 (1)
0x6a0|                           00                  |         .      |                  n: 0 0x6a9-0x6a9.7 (1)
     |                                               |                |                  x[0:0]: 0x6aa-NA (0)
     |                                               |                |                e[0:3]: 0x6aa-0x6ac.7 (3)
     |                                               |                |                  [0]{}: in 0x6aa-0x6aa.7 (1)
0x6a0|                              00               |          .     |                    unreachable: 0x0 (valid) 0x6aa-0x6aa.7 (1)
     |                                               |                |                  [1]{}: in 0x6ab-0x6ab.7 (1)
0x6a0|                                 45            |           E    |                    i32.eqz: 0x45 (valid) 0x6ab-0x6ab.7 (1)
     |                                               |                |                  [2]{}: in 0x6ac-0x6ac.7 (1)
0x6a0|                                    0b         |            .   |                    end: 0xb (valid) 0x6ac-0x6ac.7 (1)
     |                                               |                |            [56]{}: code 0x6ad-0x6ba.7 (14)
0x6a0|                                       0d      |             .  |              size: 13 0x6ad-0x6ad.7 (1)
     |                                               |                |              code{}: 0x6ae-0x6ba.7 (13)
     |                                               |                |                t{}: 0x6ae-0x6ae.7 (1)
0x6a0|                                          00   |              . |                  n: 0 0x6ae-0x6ae.7 (1)
     |                                               |                |                  x[0:0]: 0x6af-NA (0)
     |                                               |                |                e[0:4]: 0x6af-0x6ba.7 (12)
     |                                               |                |                  [0]{}: in 0x6af-0x6af.7 (1)
0x6a0|                                             00|               .|                    unreachable: 0x0 (valid) 0x6af-0x6af.7 (1)
     |                                               |                |                  [1]{}: in 0x6b0-0x6b8.7 (9)
0x6b0|44                                             |D               |                    f64.const: 0x44 (valid) 0x6b0-0x6b0.7 (1)
0x6b0|   00 00 00 00 00 00 24 40                     | ......$@       |                    z: 10 0x6b1-0x6b8.7 (8)
     |                                               |                |                  [2]{}: in 0x6b9-0x6b9.7 (1)
0x6b0|                           65                  |         e      |                    f64.le: 0x65 (valid) 0x6b9-0x6b9.7 (1)
     |                                               |                |                  [3]{}: in 0x6ba-0x6ba.7 (1)
0x6b0|                              0b               |          .     |                    end: 0xb (valid) 0x6ba-0x6ba.7 (1)
     |                                               |                |            [57]{}: code 0x6bb-0x6c4.7 (10)
0x6b0|                                 09            |           .    |              size: 9 0x6bb-0x6bb.7 (1)
     |                                               |                |              code{}: 0x6bc-0x6c4.7 (9)
     |                                               |                |                t{}: 0x6bc-0x6bc.7 (1)
0x6b0|                                    00         |            .   |                  n: 0 0x6bc-0x6bc.7 (1)
     |                                               |                |                  x[0:0]: 0x6bd-NA (0)
     |                                               |                |                e[0:4]: 0x6bd-0x6c4.7 (8)
     |                                               |                |                  [0]{}: in 0x6bd-0x6c1.7 (5)
0x6b0|                                       43      |             C  |                    f32.const: 0x43 (valid) 0x6bd-0x6bd.7 (1)
0x6b0|                                          00 00|              ..|                    z: 10 0x6be-0x6c1.7 (4)
0x6c0|20 41                                          | A              |
     |                                               |                |                  [1]{}: in 0x6c2-0x6c2.7 (1)
0x6c0|      00                                       |  .             |                    unreachable: 0x0 (valid) 0x6c2-0x6c2.7 (1)
     |                                               |                |                  [2]{}: in 0x6c3-0x6c3.7 (1)
0x6c0|         5c                                    |   \            |                    f32.ne: 0x5c (valid) 0x6c3-0x6c3.7 (1)
     |                                               |                |                  [3]{}: in 0x6c4-0x6c4.7 (1)
0x6c0|            0b                                 |    .           |                    end: 0xb (valid) 0x6c4-0x6c4.7 (1)
     |                                               |                |            [58]{}: code 0x6c5-0x6c9.7 (5)
0x6c0|               04                              |     .          |              size: 4 0x6c5-0x6c5.7 (1)
     |                                               |                |              code{}: 0x6c6-0x6c9.7 (4)
     |                                               |                |                t{}: 0x6c6-0x6c6.7 (1)
0x6c0|                  00                           |      .         |                  n: 0 0x6c6-0x6c6.7 (1)
     |                                               |                |                  x[0:0]: 0x6c7-NA (0)
     |                                               |                |                e[0:3]: 0x6c7-0x6c9.7 (3)
     |                                               |                |                  [0]{}: in 0x6c7-0x6c7.7 (1)
0x6c0|                     00                        |       .        |                    unreachable: 0x0 (valid) 0x6c7-0x6c7.7 (1)
     |                                               |                |                  [1]{}: in 0x6c8-0x6c8.7 (1)
0x6c0|                        a7                     |        .       |                    i32.wrap_i64: 0xa7 (valid) 0x6c8-0x6c8.7 (1)
     |                                               |                |                  [2]{}: in 0x6c9-0x6c9.7 (1)
0x6c0|                           0b                  |         .      |                    end: 0xb (valid) 0x6c9-0x6c9.7 (1)
     |                                               |                |            [59]{}: code 0x6ca-0x6cf.7 (6)
0x6c0|                              05               |          .     |              size: 5 0x6ca-0x6ca.7 (1)
     |                                               |                |              code{}: 0x6cb-0x6cf.7 (5)
     |                                               |                |                t{}: 0x6cb-0x6cb.7 (1)
0x6c0|                                 00            |           .    |                  n: 0 0x6cb-0x6cb.7 (1)
     |                                               |                |                  x[0:0]: 0x6cc-NA (0)
     |                                               |                |                e[0:3]: 0x6cc-0x6cf.7 (4)
     |                                               |                |                  [0]{}: in 0x6cc-0x6cc.7 (1)
0x6c0|                                    00         |            .   |                    unreachable: 0x0 (valid) 0x6cc-0x6cc.7 (1)
     |                                               |                |                  [1]{}: in 0x6cd-0x6ce.7 (2)
0x6c0|                                       40      |             @  |                    memory.grow: 0x40 (valid) 0x6cd-0x6cd.7 (1)
0x6c0|                                          00   |              . |                    reserved: 0x0 (valid) 0x6ce-0x6ce.7 (1)
     |                                               |                |                  [2]{}: in 0x6cf-0x6cf.7 (1)
0x6c0|                                             0b|               .|                    end: 0xb (valid) 0x6cf-0x6cf.7 (1)
