$ fq -d wasm dv unreached-valid-0.wasm
     |00 01 02 03 04 05 06 07 08 09 0a 0b 0c 0d 0e 0f|0123456789abcdef|.{}: unreached-valid-0.wasm (wasm) 0x0-0x113 (275)
0x000|00 61 73 6d                                    |.asm            |  magic: raw bits (valid) 0x0-0x4 (4)
0x000|            01 00 00 00                        |    ....        |  version: 1 0x4-0x8 (4)
     |                                               |                |  sections[0:4]: 0x8-0x113 (267)
     |                                               |                |    [0]{}: section 0x8-0x1b (19)
0x000|                        01                     |        .       |      id: "type_section" (1) 0x8-0x9 (1)
0x000|                           11                  |         .      |      size: 17 (valid) 0x9-0xa (1)
     |                                               |                |      content{}: 0xa-0x1b (17)
     |                                               |                |        ft{}: 0xa-0x1b (17)
0x000|                              04               |          .     |          n: 4 (valid) 0xa-0xb (1)
     |                                               |                |          x[0:4]: 0xb-0x1b (16)
     |                                               |                |            [0]{}: ft 0xb-0x10 (5)
0x000|                                 60            |           `    |              tag: 0x60 (valid) 0xb-0xc (1)
     |                                               |                |              rt1{}: 0xc-0xe (2)
0x000|                                    01         |            .   |                n: 1 (valid) 0xc-0xd (1)
     |                                               |                |                x[0:1]: 0xd-0xe (1)
0x000|                                       7f      |             .  |                  [0]: "i32" (0x7f) t 0xd-0xe (1)
     |                                               |                |              rt2{}: 0xe-0x10 (2)
0x000|                                          01   |              . |                n: 1 (valid) 0xe-0xf (1)
     |                                               |                |                x[0:1]: 0xf-0x10 (1)
0x000|                                             7f|               .|                  [0]: "i32" (0x7f) t 0xf-0x10 (1)
     |                                               |                |            [1]{}: ft 0x10-0x13 (3)
0x010|60                                             |`               |              tag: 0x60 (valid) 0x10-0x11 (1)
     |                                               |                |              rt1{}: 0x11-0x12 (1)
0x010|   00                                          | .              |                n: 0 (valid) 0x11-0x12 (1)
     |                                               |                |                x[0:0]: 0x12-0x12 (0)
     |                                               |                |              rt2{}: 0x12-0x13 (1)
0x010|      00                                       |  .             |                n: 0 (valid) 0x12-0x13 (1)
     |                                               |                |                x[0:0]: 0x13-0x13 (0)
     |                                               |                |            [2]{}: ft 0x13-0x17 (4)
0x010|         60                                    |   `            |              tag: 0x60 (valid) 0x13-0x14 (1)
     |                                               |                |              rt1{}: 0x14-0x15 (1)
0x010|            00                                 |    .           |                n: 0 (valid) 0x14-0x15 (1)
     |                                               |                |                x[0:0]: 0x15-0x15 (0)
     |                                               |                |              rt2{}: 0x15-0x17 (2)
0x010|               01                              |     .          |                n: 1 (valid) 0x15-0x16 (1)
     |                                               |                |                x[0:1]: 0x16-0x17 (1)
0x010|                  7f                           |      .         |                  [0]: "i32" (0x7f) t 0x16-0x17 (1)
     |                                               |                |            [3]{}: ft 0x17-0x1b (4)
0x010|                     60                        |       `        |              tag: 0x60 (valid) 0x17-0x18 (1)
     |                                               |                |              rt1{}: 0x18-0x19 (1)
0x010|                        00                     |        .       |                n: 0 (valid) 0x18-0x19 (1)
     |                                               |                |                x[0:0]: 0x19-0x19 (0)
     |                                               |                |              rt2{}: 0x19-0x1b (2)
0x010|                           01                  |         .      |                n: 1 (valid) 0x19-0x1a (1)
     |                                               |                |                x[0:1]: 0x1a-0x1b (1)
0x010|                              7e               |          ~     |                  [0]: "i64" (0x7e) t 0x1a-0x1b (1)
     |                                               |                |    [1]{}: section 0x1b-0x25 (10)
0x010|                                 03            |           .    |      id: "function_section" (3) 0x1b-0x1c (1)
0x010|                                    08         |            .   |      size: 8 (valid) 0x1c-0x1d (1)
     |                                               |                |      content{}: 0x1d-0x25 (8)
     |                                               |                |        x{}: 0x1d-0x25 (8)
0x010|                                       07      |             .  |          n: 7 (valid) 0x1d-0x1e (1)
     |                                               |                |          x[0:7]: 0x1e-0x25 (7)
0x010|                                          00   |              . |            [0]: 0 x (valid) 0x1e-0x1f (1)
0x010|                                             00|               .|            [1]: 0 x (valid) 0x1f-0x20 (1)
0x020|01                                             |.               |            [2]: 1 x (valid) 0x20-0x21 (1)
0x020|   02                                          | .              |            [3]: 2 x (valid) 0x21-0x22 (1)
0x020|      03                                       |  .             |            [4]: 3 x (valid) 0x22-0x23 (1)
0x020|         01                                    |   .            |            [5]: 1 x (valid) 0x23-0x24 (1)
0x020|            01                                 |    .           |            [6]: 1 x (valid) 0x24-0x25 (1)
     |                                               |                |    [2]{}: section 0x25-0xbf (154)
0x020|               07                              |     .          |      id: "export_section" (7) 0x25-0x26 (1)
0x020|                  97 01                        |      ..        |      size: 151 (valid) 0x26-0x28 (2)
     |                                               |                |      content{}: 0x28-0xbf (151)
     |                                               |                |        ex{}: 0x28-0xbf (151)
0x020|                        07                     |        .       |          n: 7 (valid) 0x28-0x29 (1)
     |                                               |                |          x[0:7]: 0x29-0xbf (150)
     |                                               |                |            [0]{}: ex 0x29-0x3c (19)
     |                                               |                |              nm{}: 0x29-0x3a (17)
0x020|                           10                  |         .      |                n: 16 (valid) 0x29-0x2a (1)
0x020|                              73 65 6c 65 63 74|          select|                b: "select-trap-left" 0x2a-0x3a (16)
0x030|2d 74 72 61 70 2d 6c 65 66 74                  |-trap-left      |
     |                                               |                |              d{}: 0x3a-0x3c (2)
0x030|                              00               |          .     |                tag: "funcidx" (0x0) 0x3a-0x3b (1)
0x030|                                 00            |           .    |                x: 0 (valid) 0x3b-0x3c (1)
     |                                               |                |            [1]{}: ex 0x3c-0x50 (20)
     |                                               |                |              nm{}: 0x3c-0x4e (18)
0x030|                                    11         |            .   |                n: 17 (valid) 0x3c-0x3d (1)
0x030|                                       73 65 6c|             sel|                b: "select-trap-right" 0x3d-0x4e (17)
0x040|65 63 74 2d 74 72 61 70 2d 72 69 67 68 74      |ect-trap-right  |
     |                                               |                |              d{}: 0x4e-0x50 (2)
0x040|                                          00   |              . |                tag: "funcidx" (0x0) 0x4e-0x4f (1)
0x040|                                             01|               .|                x: 1 (valid) 0x4f-0x50 (1)
     |                                               |                |            [2]{}: ex 0x50-0x63 (19)
     |                                               |                |              nm{}: 0x50-0x61 (17)
0x050|10                                             |.               |                n: 16 (valid) 0x50-0x51 (1)
0x050|   73 65 6c 65 63 74 2d 75 6e 72 65 61 63 68 65| select-unreache|                b: "select-unreached" 0x51-0x61 (16)
0x060|64                                             |d               |
     |                                               |                |              d{}: 0x61-0x63 (2)
0x060|   00                                          | .              |                tag: "funcidx" (0x0) 0x61-0x62 (1)
0x060|      02                                       |  .             |                x: 2 (valid) 0x62-0x63 (1)
     |                                               |                |            [3]{}: ex 0x63-0x7f (28)
     |                                               |                |              nm{}: 0x63-0x7d (26)
0x060|         19                                    |   .            |                n: 25 (valid) 0x63-0x64 (1)
0x060|            73 65 6c 65 63 74 5f 75 6e 72 65 61|    select_unrea|                b: "select_unreached_result_1" 0x64-0x7d (25)
0x070|63 68 65 64 5f 72 65 73 75 6c 74 5f 31         |ched_result_1   |
     |                                               |                |              d{}: 0x7d-0x7f (2)
0x070|                                       00      |             .  |                tag: "funcidx" (0x0) 0x7d-0x7e (1)
0x070|                                          03   |              . |                x: 3 (valid) 0x7e-0x7f (1)
     |                                               |                |            [4]{}: ex 0x7f-0x9b (28)
     |                                               |                |              nm{}: 0x7f-0x99 (26)
0x070|                                             19|               .|                n: 25 (valid) 0x7f-0x80 (1)
0x080|73 65 6c 65 63 74 5f 75 6e 72 65 61 63 68 65 64|select_unreached|                b: "select_unreached_result_2" 0x80-0x99 (25)
0x090|5f 72 65 73 75 6c 74 5f 32                     |_result_2       |
     |                                               |                |              d{}: 0x99-0x9b (2)
0x090|                           00                  |         .      |                tag: "funcidx" (0x0) 0x99-0x9a (1)
0x090|                              04               |          .     |                x: 4 (valid) 0x9a-0x9b (1)
     |                                               |                |            [5]{}: ex 0x9b-0xad (18)
     |                                               |                |              nm{}: 0x9b-0xab (16)
0x090|                                 0f            |           .    |                n: 15 (valid) 0x9b-0x9c (1)
0x090|                                    75 6e 72 65|            unre|                b: "unreachable-num" 0x9c-0xab (15)
0x0a0|61 63 68 61 62 6c 65 2d 6e 75 6d               |achable-num     |
     |                                               |                |              d{}: 0xab-0xad (2)
0x0a0|                                 00            |           .    |                tag: "funcidx" (0x0) 0xab-0xac (1)
0x0a0|                                    05         |            .   |                x: 5 (valid) 0xac-0xad (1)
     |                                               |                |            [6]{}: ex 0xad-0xbf (18)
     |                                               |                |              nm{}: 0xad-0xbd (16)
0x0a0|                                       0f      |             .  |                n: 15 (valid) 0xad-0xae (1)
0x0a0|                                          75 6e|              un|                b: "unreachable-ref" 0xae-0xbd (15)
0x0b0|72 65 61 63 68 61 62 6c 65 2d 72 65 66         |reachable-ref   |
     |                                               |                |              d{}: 0xbd-0xbf (2)
0x0b0|                                       00      |             .  |                tag: "funcidx" (0x0) 0xbd-0xbe (1)
0x0b0|                                          06   |              . |                x: 6 (valid) 0xbe-0xbf (1)
     |                                               |                |    [3]{}: section 0xbf-0x113 (84)
0x0b0|                                             0a|               .|      id: "code_section" (10) 0xbf-0xc0 (1)
0x0c0|52                                             |R               |      size: 82 (valid) 0xc0-0xc1 (1)
     |                                               |                |      content{}: 0xc1-0x113 (82)
     |                                               |                |        code{}: 0xc1-0x113 (82)
0x0c0|   07                                          | .              |          n: 7 (valid) 0xc1-0xc2 (1)
     |                                               |                |          x[0:7]: 0xc2-0x113 (81)
     |                                               |                |            [0]{}: code 0xc2-0xcb (9)
0x0c0|      08                                       |  .             |              size: 8 (valid) 0xc2-0xc3 (1)
     |                                               |                |              code{}: 0xc3-0xcb (8)
     |                                               |                |                t{}: 0xc3-0xc4 (1)
0x0c0|         00                                    |   .            |                  n: 0 (valid) 0xc3-0xc4 (1)
     |                                               |                |                  x[0:0]: 0xc4-0xc4 (0)
     |                                               |                |                e[0:5]: 0xc4-0xcb (7)
     |                                               |                |                  [0]{}: in 0xc4-0xc5 (1)
0x0c0|            00                                 |    .           |                    opcode: "unreachable" (0x0) 0xc4-0xc5 (1)
     |                                               |                |                  [1]{}: in 0xc5-0xc7 (2)
0x0c0|               41                              |     A          |                    opcode: "i32.const" (0x41) 0xc5-0xc6 (1)
0x0c0|                  00                           |      .         |                    n: 0 (valid) 0xc6-0xc7 (1)
     |                                               |                |                  [2]{}: in 0xc7-0xc9 (2)
0x0c0|                     20                        |                |                    opcode: "local.get" (0x20) 0xc7-0xc8 (1)
0x0c0|                        00                     |        .       |                    x: 0 (valid) 0xc8-0xc9 (1)
     |                                               |                |                  [3]{}: in 0xc9-0xca (1)
0x0c0|                           1b                  |         .      |                    opcode: "select" (0x1b) 0xc9-0xca (1)
     |                                               |                |                  [4]{}: in 0xca-0xcb (1)
0x0c0|                              0b               |          .     |                    opcode: "end" (0xb) 0xca-0xcb (1)
     |                                               |                |            [1]{}: code 0xcb-0xd4 (9)
0x0c0|                                 08            |           .    |              size: 8 (valid) 0xcb-0xcc (1)
     |                                               |                |              code{}: 0xcc-0xd4 (8)
     |                                               |                |                t{}: 0xcc-0xcd (1)
0x0c0|                                    00         |            .   |                  n: 0 (valid) 0xcc-0xcd (1)
     |                                               |                |                  x[0:0]: 0xcd-0xcd (0)
     |                                               |                |                e[0:5]: 0xcd-0xd4 (7)
     |                                               |                |                  [0]{}: in 0xcd-0xcf (2)
0x0c0|                                       41      |             A  |                    opcode: "i32.const" (0x41) 0xcd-0xce (1)
0x0c0|                                          00   |              . |                    n: 0 (valid) 0xce-0xcf (1)
     |                                               |                |                  [1]{}: in 0xcf-0xd0 (1)
0x0c0|                                             00|               .|                    opcode: "unreachable" (0x0) 0xcf-0xd0 (1)
     |                                               |                |                  [2]{}: in 0xd0-0xd2 (2)
0x0d0|20                                             |                |                    opcode: "local.get" (0x20) 0xd0-0xd1 (1)
0x0d0|   00                                          | .              |                    x: 0 (valid) 0xd1-0xd2 (1)
     |                                               |                |                  [3]{}: in 0xd2-0xd3 (1)
0x0d0|      1b                                       |  .             |                    opcode: "select" (0x1b) 0xd2-0xd3 (1)
     |                                               |                |                  [4]{}: in 0xd3-0xd4 (1)
0x0d0|         0b                                    |   .            |                    opcode: "end" (0xb) 0xd3-0xd4 (1)
     |                                               |                |            [2]{}: code 0xd4-0xf5 (33)
0x0d0|            20                                 |                |              size: 32 (valid) 0xd4-0xd5 (1)
     |                                               |                |              code{}: 0xd5-0xf5 (32)
     |                                               |                |                t{}: 0xd5-0xd6 (1)
0x0d0|               00                              |     .          |                  n: 0 (valid) 0xd5-0xd6 (1)
     |                                               |                |                  x[0:0]: 0xd6-0xd6 (0)
     |                                               |                |                e[0:20]: 0xd6-0xf5 (31)
     |                                               |                |                  [0]{}: in 0xd6-0xd7 (1)
0x0d0|                  00                           |      .         |                    opcode: "unreachable" (0x0) 0xd6-0xd7 (1)
     |                                               |                |                  [1]{}: in 0xd7-0xd8 (1)
0x0d0|                     1b                        |       .        |                    opcode: "select" (0x1b) 0xd7-0xd8 (1)
     |                                               |                |                  [2]{}: in 0xd8-0xd9 (1)
0x0d0|                        00                     |        .       |                    opcode: "unreachable" (0x0) 0xd8-0xd9 (1)
     |                                               |                |                  [3]{}: in 0xd9-0xdb (2)
0x0d0|                           41                  |         A      |                    opcode: "i32.const" (0x41) 0xd9-0xda (1)
0x0d0|                              00               |          .     |                    n: 0 (valid) 0xda-0xdb (1)
     |                                               |                |                  [4]{}: in 0xdb-0xdc (1)
0x0d0|                                 1b            |           .    |                    opcode: "select" (0x1b) 0xdb-0xdc (1)
     |                                               |                |                  [5]{}: in 0xdc-0xdd (1)
0x0d0|                                    00         |            .   |                    opcode: "unreachable" (0x0) 0xdc-0xdd (1)
     |                                               |                |                  [6]{}: in 0xdd-0xdf (2)
0x0d0|                                       41      |             A  |                    opcode: "i32.const" (0x41) 0xdd-0xde (1)
0x0d0|                                          00   |              . |                    n: 0 (valid) 0xde-0xdf (1)
     |                                               |                |                  [7]{}: in 0xdf-0xe1 (2)
0x0d0|                                             41|               A|                    opcode: "i32.const" (0x41) 0xdf-0xe0 (1)
0x0e0|00                                             |.               |                    n: 0 (valid) 0xe0-0xe1 (1)
     |                                               |                |                  [8]{}: in 0xe1-0xe2 (1)
0x0e0|   1b                                          | .              |                    opcode: "select" (0x1b) 0xe1-0xe2 (1)
     |                                               |                |                  [9]{}: in 0xe2-0xe3 (1)
0x0e0|      00                                       |  .             |                    opcode: "unreachable" (0x0) 0xe2-0xe3 (1)
     |                                               |                |                  [10]{}: in 0xe3-0xe5 (2)
0x0e0|         41                                    |   A            |                    opcode: "i32.const" (0x41) 0xe3-0xe4 (1)
0x0e0|            00                                 |    .           |                    n: 0 (valid) 0xe4-0xe5 (1)
     |                                               |                |                  [11]{}: in 0xe5-0xe7 (2)
0x0e0|               41                              |     A          |                    opcode: "i32.const" (0x41) 0xe5-0xe6 (1)
0x0e0|                  00                           |      .         |                    n: 0 (valid) 0xe6-0xe7 (1)
     |                                               |                |                  [12]{}: in 0xe7-0xe9 (2)
0x0e0|                     41                        |       A        |                    opcode: "i32.const" (0x41) 0xe7-0xe8 (1)
0x0e0|                        00                     |        .       |                    n: 0 (valid) 0xe8-0xe9 (1)
     |                                               |                |                  [13]{}: in 0xe9-0xea (1)
0x0e0|                           1b                  |         .      |                    opcode: "select" (0x1b) 0xe9-0xea (1)
     |                                               |                |                  [14]{}: in 0xea-0xeb (1)
0x0e0|                              00               |          .     |                    opcode: "unreachable" (0x0) 0xea-0xeb (1)
     |                                               |                |                  [15]{}: in 0xeb-0xf0 (5)
0x0e0|                                 43            |           C    |                    opcode: "f32.const" (0x43) 0xeb-0xec (1)
0x0e0|                                    00 00 00 00|            ....|                    z: 0 0xec-0xf0 (4)
     |                                               |                |                  [16]{}: in 0xf0-0xf2 (2)
0x0f0|41                                             |A               |                    opcode: "i32.const" (0x41) 0xf0-0xf1 (1)
0x0f0|   00                                          | .              |                    n: 0 (valid) 0xf1-0xf2 (1)
     |                                               |                |                  [17]{}: in 0xf2-0xf3 (1)
0x0f0|      1b                                       |  .             |                    opcode: "select" (0x1b) 0xf2-0xf3 (1)
     |                                               |                |                  [18]{}: in 0xf3-0xf4 (1)
0x0f0|         00                                    |   .            |                    opcode: "unreachable" (0x0) 0xf3-0xf4 (1)
     |                                               |                |                  [19]{}: in 0xf4-0xf5 (1)
0x0f0|            0b                                 |    .           |                    opcode: "end" (0xb) 0xf4-0xf5 (1)
     |                                               |                |            [3]{}: code 0xf5-0xfb (6)
0x0f0|               05                              |     .          |              size: 5 (valid) 0xf5-0xf6 (1)
     |                                               |                |              code{}: 0xf6-0xfb (5)
     |                                               |                |                t{}: 0xf6-0xf7 (1)
0x0f0|                  00                           |      .         |                  n: 0 (valid) 0xf6-0xf7 (1)
     |                                               |                |                  x[0:0]: 0xf7-0xf7 (0)
     |                                               |                |                e[0:4]: 0xf7-0xfb (4)
     |                                               |                |                  [0]{}: in 0xf7-0xf8 (1)
0x0f0|                     00                        |       .        |                    opcode: "unreachable" (0x0) 0xf7-0xf8 (1)
     |                                               |                |                  [1]{}: in 0xf8-0xf9 (1)
0x0f0|                        1b                     |        .       |                    opcode: "select" (0x1b) 0xf8-0xf9 (1)
     |                                               |                |                  [2]{}: in 0xf9-0xfa (1)
0x0f0|                           6a                  |         j      |                    opcode: "i32.add" (0x6a) 0xf9-0xfa (1)
     |                                               |                |                  [3]{}: in 0xfa-0xfb (1)
0x0f0|                              0b               |          .     |                    opcode: "end" (0xb) 0xfa-0xfb (1)
     |                                               |                |            [4]{}: code 0xfb-0x105 (10)
0x0f0|                                 09            |           .    |              size: 9 (valid) 0xfb-0xfc (1)
     |                                               |                |              code{}: 0xfc-0x105 (9)
     |                                               |                |                t{}: 0xfc-0xfd (1)
0x0f0|                                    00         |            .   |                  n: 0 (valid) 0xfc-0xfd (1)
     |                                               |                |                  x[0:0]: 0xfd-0xfd (0)
     |                                               |                |                e[0:6]: 0xfd-0x105 (8)
     |                                               |                |                  [0]{}: in 0xfd-0xfe (1)
0x0f0|                                       00      |             .  |                    opcode: "unreachable" (0x0) 0xfd-0xfe (1)
     |                                               |                |                  [1]{}: in 0xfe-0x100 (2)
0x0f0|                                          42   |              B |                    opcode: "i64.const" (0x42) 0xfe-0xff (1)
0x0f0|                                             00|               .|                    n: 0 0xff-0x100 (1)
     |                                               |                |                  [2]{}: in 0x100-0x102 (2)
0x100|41                                             |A               |                    opcode: "i32.const" (0x41) 0x100-0x101 (1)
0x100|   00                                          | .              |                    n: 0 (valid) 0x101-0x102 (1)
     |                                               |                |                  [3]{}: in 0x102-0x103 (1)
0x100|      1b                                       |  .             |                    opcode: "select" (0x1b) 0x102-0x103 (1)
     |                                               |                |                  [4]{}: in 0x103-0x104 (1)
0x100|         7c                                    |   |            |                    opcode: "i64.add" (0x7c) 0x103-0x104 (1)
     |                                               |                |                  [5]{}: in 0x104-0x105 (1)
0x100|            0b                                 |    .           |                    opcode: "end" (0xb) 0x104-0x105 (1)
     |                                               |                |            [5]{}: code 0x105-0x10c (7)
0x100|               06                              |     .          |              size: 6 (valid) 0x105-0x106 (1)
     |                                               |                |              code{}: 0x106-0x10c (6)
     |                                               |                |                t{}: 0x106-0x107 (1)
0x100|                  00                           |      .         |                  n: 0 (valid) 0x106-0x107 (1)
     |                                               |                |                  x[0:0]: 0x107-0x107 (0)
     |                                               |                |                e[0:5]: 0x107-0x10c (5)
     |                                               |                |                  [0]{}: in 0x107-0x108 (1)
0x100|                     00                        |       .        |                    opcode: "unreachable" (0x0) 0x107-0x108 (1)
     |                                               |                |                  [1]{}: in 0x108-0x109 (1)
0x100|                        1b                     |        .       |                    opcode: "select" (0x1b) 0x108-0x109 (1)
     |                                               |                |                  [2]{}: in 0x109-0x10a (1)
0x100|                           45                  |         E      |                    opcode: "32.eqz" (0x45) 0x109-0x10a (1)
     |                                               |                |                  [3]{}: in 0x10a-0x10b (1)
0x100|                              1a               |          .     |                    opcode: "drop" (0x1a) 0x10a-0x10b (1)
     |                                               |                |                  [4]{}: in 0x10b-0x10c (1)
0x100|                                 0b            |           .    |                    opcode: "end" (0xb) 0x10b-0x10c (1)
     |                                               |                |            [6]{}: code 0x10c-0x113 (7)
0x100|                                    06         |            .   |              size: 6 (valid) 0x10c-0x10d (1)
     |                                               |                |              code{}: 0x10d-0x113 (6)
     |                                               |                |                t{}: 0x10d-0x10e (1)
0x100|                                       00      |             .  |                  n: 0 (valid) 0x10d-0x10e (1)
     |                                               |                |                  x[0:0]: 0x10e-0x10e (0)
     |                                               |                |                e[0:5]: 0x10e-0x113 (5)
     |                                               |                |                  [0]{}: in 0x10e-0x10f (1)
0x100|                                          00   |              . |                    opcode: "unreachable" (0x0) 0x10e-0x10f (1)
     |                                               |                |                  [1]{}: in 0x10f-0x110 (1)
0x100|                                             1b|               .|                    opcode: "select" (0x1b) 0x10f-0x110 (1)
     |                                               |                |                  [2]{}: in 0x110-0x111 (1)
0x110|d1                                             |.               |                    opcode: "ref.is_null" (0xd1) 0x110-0x111 (1)
     |                                               |                |                  [3]{}: in 0x111-0x112 (1)
0x110|   1a                                          | .              |                    opcode: "drop" (0x1a) 0x111-0x112 (1)
     |                                               |                |                  [4]{}: in 0x112-0x113 (1)
0x110|      0b|                                      |  .|            |                    opcode: "end" (0xb) 0x112-0x113 (1)
