$ fq -d wasm dv unwind-0.wasm
     |00 01 02 03 04 05 06 07 08 09 0a 0b 0c 0d 0e 0f|0123456789abcdef|.{}: unwind-0.wasm (wasm) 0x0-0x89c (2204)
0x000|00 61 73 6d                                    |.asm            |  magic: raw bits (valid) 0x0-0x4 (4)
0x000|            01 00 00 00                        |    ....        |  version: 1 0x4-0x8 (4)
     |                                               |                |  sections[0:4]: 0x8-0x89c (2196)
     |                                               |                |    [0]{}: section 0x8-0x12 (10)
0x000|                        01                     |        .       |      id: "type_section" (1) 0x8-0x9 (1)
0x000|                           08                  |         .      |      size: 8 (valid) 0x9-0xa (1)
     |                                               |                |      content{}: 0xa-0x12 (8)
     |                                               |                |        ft{}: 0xa-0x12 (8)
0x000|                              02               |          .     |          n: 2 (valid) 0xa-0xb (1)
     |                                               |                |          x[0:2]: 0xb-0x12 (7)
     |                                               |                |            [0]{}: ft 0xb-0xe (3)
0x000|                                 60            |           `    |              tag: 0x60 (valid) 0xb-0xc (1)
     |                                               |                |              rt1{}: 0xc-0xd (1)
0x000|                                    00         |            .   |                n: 0 (valid) 0xc-0xd (1)
     |                                               |                |                x[0:0]: 0xd-0xd (0)
     |                                               |                |              rt2{}: 0xd-0xe (1)
0x000|                                       00      |             .  |                n: 0 (valid) 0xd-0xe (1)
     |                                               |                |                x[0:0]: 0xe-0xe (0)
     |                                               |                |            [1]{}: ft 0xe-0x12 (4)
0x000|                                          60   |              ` |              tag: 0x60 (valid) 0xe-0xf (1)
     |                                               |                |              rt1{}: 0xf-0x10 (1)
0x000|                                             00|               .|                n: 0 (valid) 0xf-0x10 (1)
     |                                               |                |                x[0:0]: 0x10-0x10 (0)
     |                                               |                |              rt2{}: 0x10-0x12 (2)
0x010|01                                             |.               |                n: 1 (valid) 0x10-0x11 (1)
     |                                               |                |                x[0:1]: 0x11-0x12 (1)
0x010|   7f                                          | .              |                  [0]: "i32" (0x7f) t 0x11-0x12 (1)
     |                                               |                |    [1]{}: section 0x12-0x46 (52)
0x010|      03                                       |  .             |      id: "function_section" (3) 0x12-0x13 (1)
0x010|         32                                    |   2            |      size: 50 (valid) 0x13-0x14 (1)
     |                                               |                |      content{}: 0x14-0x46 (50)
     |                                               |                |        x{}: 0x14-0x46 (50)
0x010|            31                                 |    1           |          n: 49 (valid) 0x14-0x15 (1)
     |                                               |                |          x[0:49]: 0x15-0x46 (49)
0x010|               00                              |     .          |            [0]: 0 x (valid) 0x15-0x16 (1)
0x010|                  00                           |      .         |            [1]: 0 x (valid) 0x16-0x17 (1)
0x010|                     01                        |       .        |            [2]: 1 x (valid) 0x17-0x18 (1)
0x010|                        00                     |        .       |            [3]: 0 x (valid) 0x18-0x19 (1)
0x010|                           01                  |         .      |            [4]: 1 x (valid) 0x19-0x1a (1)
0x010|                              00               |          .     |            [5]: 0 x (valid) 0x1a-0x1b (1)
0x010|                                 01            |           .    |            [6]: 1 x (valid) 0x1b-0x1c (1)
0x010|                                    01         |            .   |            [7]: 1 x (valid) 0x1c-0x1d (1)
0x010|                                       00      |             .  |            [8]: 0 x (valid) 0x1d-0x1e (1)
0x010|                                          01   |              . |            [9]: 1 x (valid) 0x1e-0x1f (1)
0x010|                                             01|               .|            [10]: 1 x (valid) 0x1f-0x20 (1)
0x020|01                                             |.               |            [11]: 1 x (valid) 0x20-0x21 (1)
0x020|   01                                          | .              |            [12]: 1 x (valid) 0x21-0x22 (1)
0x020|      01                                       |  .             |            [13]: 1 x (valid) 0x22-0x23 (1)
0x020|         01                                    |   .            |            [14]: 1 x (valid) 0x23-0x24 (1)
0x020|            01                                 |    .           |            [15]: 1 x (valid) 0x24-0x25 (1)
0x020|               01                              |     .          |            [16]: 1 x (valid) 0x25-0x26 (1)
0x020|                  01                           |      .         |            [17]: 1 x (valid) 0x26-0x27 (1)
0x020|                     01                        |       .        |            [18]: 1 x (valid) 0x27-0x28 (1)
0x020|                        01                     |        .       |            [19]: 1 x (valid) 0x28-0x29 (1)
0x020|                           01                  |         .      |            [20]: 1 x (valid) 0x29-0x2a (1)
0x020|                              01               |          .     |            [21]: 1 x (valid) 0x2a-0x2b (1)
0x020|                                 01            |           .    |            [22]: 1 x (valid) 0x2b-0x2c (1)
0x020|                                    01         |            .   |            [23]: 1 x (valid) 0x2c-0x2d (1)
0x020|                                       01      |             .  |            [24]: 1 x (valid) 0x2d-0x2e (1)
0x020|                                          01   |              . |            [25]: 1 x (valid) 0x2e-0x2f (1)
0x020|                                             01|               .|            [26]: 1 x (valid) 0x2f-0x30 (1)
0x030|01                                             |.               |            [27]: 1 x (valid) 0x30-0x31 (1)
0x030|   01                                          | .              |            [28]: 1 x (valid) 0x31-0x32 (1)
0x030|      01                                       |  .             |            [29]: 1 x (valid) 0x32-0x33 (1)
0x030|         01                                    |   .            |            [30]: 1 x (valid) 0x33-0x34 (1)
0x030|            01                                 |    .           |            [31]: 1 x (valid) 0x34-0x35 (1)
0x030|               01                              |     .          |            [32]: 1 x (valid) 0x35-0x36 (1)
0x030|                  01                           |      .         |            [33]: 1 x (valid) 0x36-0x37 (1)
0x030|                     01                        |       .        |            [34]: 1 x (valid) 0x37-0x38 (1)
0x030|                        01                     |        .       |            [35]: 1 x (valid) 0x38-0x39 (1)
0x030|                           01                  |         .      |            [36]: 1 x (valid) 0x39-0x3a (1)
0x030|                              01               |          .     |            [37]: 1 x (valid) 0x3a-0x3b (1)
0x030|                                 01            |           .    |            [38]: 1 x (valid) 0x3b-0x3c (1)
0x030|                                    01         |            .   |            [39]: 1 x (valid) 0x3c-0x3d (1)
0x030|                                       01      |             .  |            [40]: 1 x (valid) 0x3d-0x3e (1)
0x030|                                          01   |              . |            [41]: 1 x (valid) 0x3e-0x3f (1)
0x030|                                             01|               .|            [42]: 1 x (valid) 0x3f-0x40 (1)
0x040|01                                             |.               |            [43]: 1 x (valid) 0x40-0x41 (1)
0x040|   01                                          | .              |            [44]: 1 x (valid) 0x41-0x42 (1)
0x040|      01                                       |  .             |            [45]: 1 x (valid) 0x42-0x43 (1)
0x040|         01                                    |   .            |            [46]: 1 x (valid) 0x43-0x44 (1)
0x040|            01                                 |    .           |            [47]: 1 x (valid) 0x44-0x45 (1)
0x040|               01                              |     .          |            [48]: 1 x (valid) 0x45-0x46 (1)
     |                                               |                |    [2]{}: section 0x46-0x55d (1303)
0x040|                  07                           |      .         |      id: "export_section" (7) 0x46-0x47 (1)
0x040|                     94 0a                     |       ..       |      size: 1300 (valid) 0x47-0x49 (2)
     |                                               |                |      content{}: 0x49-0x55d (1300)
     |                                               |                |        ex{}: 0x49-0x55d (1300)
0x040|                           31                  |         1      |          n: 49 (valid) 0x49-0x4a (1)
     |                                               |                |          x[0:49]: 0x4a-0x55d (1299)
     |                                               |                |            [0]{}: ex 0x4a-0x67 (29)
     |                                               |                |              nm{}: 0x4a-0x65 (27)
0x040|                              1a               |          .     |                n: 26 (valid) 0x4a-0x4b (1)
0x040|                                 66 75 6e 63 2d|           func-|                b: "func-unwind-by-unreachable" 0x4b-0x65 (26)
0x050|75 6e 77 69 6e 64 2d 62 79 2d 75 6e 72 65 61 63|unwind-by-unreac|
0x060|68 61 62 6c 65                                 |hable           |
     |                                               |                |              d{}: 0x65-0x67 (2)
0x060|               00                              |     .          |                tag: "funcidx" (0x0) 0x65-0x66 (1)
0x060|                  00                           |      .         |                x: 0 (valid) 0x66-0x67 (1)
     |                                               |                |            [1]{}: ex 0x67-0x7b (20)
     |                                               |                |              nm{}: 0x67-0x79 (18)
0x060|                     11                        |       .        |                n: 17 (valid) 0x67-0x68 (1)
0x060|                        66 75 6e 63 2d 75 6e 77|        func-unw|                b: "func-unwind-by-br" 0x68-0x79 (17)
0x070|69 6e 64 2d 62 79 2d 62 72                     |ind-by-br       |
     |                                               |                |              d{}: 0x79-0x7b (2)
0x070|                           00                  |         .      |                tag: "funcidx" (0x0) 0x79-0x7a (1)
0x070|                              01               |          .     |                x: 1 (valid) 0x7a-0x7b (1)
     |                                               |                |            [2]{}: ex 0x7b-0x95 (26)
     |                                               |                |              nm{}: 0x7b-0x93 (24)
0x070|                                 17            |           .    |                n: 23 (valid) 0x7b-0x7c (1)
0x070|                                    66 75 6e 63|            func|                b: "func-unwind-by-br-value" 0x7c-0x93 (23)
0x080|2d 75 6e 77 69 6e 64 2d 62 79 2d 62 72 2d 76 61|-unwind-by-br-va|
0x090|6c 75 65                                       |lue             |
     |                                               |                |              d{}: 0x93-0x95 (2)
0x090|         00                                    |   .            |                tag: "funcidx" (0x0) 0x93-0x94 (1)
0x090|            02                                 |    .           |                x: 2 (valid) 0x94-0x95 (1)
     |                                               |                |            [3]{}: ex 0x95-0xac (23)
     |                                               |                |              nm{}: 0x95-0xaa (21)
0x090|               14                              |     .          |                n: 20 (valid) 0x95-0x96 (1)
0x090|                  66 75 6e 63 2d 75 6e 77 69 6e|      func-unwin|                b: "func-unwind-by-br_if" 0x96-0xaa (20)
0x0a0|64 2d 62 79 2d 62 72 5f 69 66                  |d-by-br_if      |
     |                                               |                |              d{}: 0xaa-0xac (2)
0x0a0|                              00               |          .     |                tag: "funcidx" (0x0) 0xaa-0xab (1)
0x0a0|                                 03            |           .    |                x: 3 (valid) 0xab-0xac (1)
     |                                               |                |            [4]{}: ex 0xac-0xc9 (29)
     |                                               |                |              nm{}: 0xac-0xc7 (27)
0x0a0|                                    1a         |            .   |                n: 26 (valid) 0xac-0xad (1)
0x0a0|                                       66 75 6e|             fun|                b: "func-unwind-by-br_if-value" 0xad-0xc7 (26)
0x0b0|63 2d 75 6e 77 69 6e 64 2d 62 79 2d 62 72 5f 69|c-unwind-by-br_i|
0x0c0|66 2d 76 61 6c 75 65                           |f-value         |
     |                                               |                |              d{}: 0xc7-0xc9 (2)
0x0c0|                     00                        |       .        |                tag: "funcidx" (0x0) 0xc7-0xc8 (1)
0x0c0|                        04                     |        .       |                x: 4 (valid) 0xc8-0xc9 (1)
     |                                               |                |            [5]{}: ex 0xc9-0xe3 (26)
     |                                               |                |              nm{}: 0xc9-0xe1 (24)
0x0c0|                           17                  |         .      |                n: 23 (valid) 0xc9-0xca (1)
0x0c0|                              66 75 6e 63 2d 75|          func-u|                b: "func-unwind-by-br_table" 0xca-0xe1 (23)
0x0d0|6e 77 69 6e 64 2d 62 79 2d 62 72 5f 74 61 62 6c|nwind-by-br_tabl|
0x0e0|65                                             |e               |
     |                                               |                |              d{}: 0xe1-0xe3 (2)
0x0e0|   00                                          | .              |                tag: "funcidx" (0x0) 0xe1-0xe2 (1)
0x0e0|      05                                       |  .             |                x: 5 (valid) 0xe2-0xe3 (1)
     |                                               |                |            [6]{}: ex 0xe3-0x103 (32)
     |                                               |                |              nm{}: 0xe3-0x101 (30)
0x0e0|         1d                                    |   .            |                n: 29 (valid) 0xe3-0xe4 (1)
0x0e0|            66 75 6e 63 2d 75 6e 77 69 6e 64 2d|    func-unwind-|                b: "func-unwind-by-br_table-value" 0xe4-0x101 (29)
0x0f0|62 79 2d 62 72 5f 74 61 62 6c 65 2d 76 61 6c 75|by-br_table-valu|
0x100|65                                             |e               |
     |                                               |                |              d{}: 0x101-0x103 (2)
0x100|   00                                          | .              |                tag: "funcidx" (0x0) 0x101-0x102 (1)
0x100|      06                                       |  .             |                x: 6 (valid) 0x102-0x103 (1)
     |                                               |                |            [7]{}: ex 0x103-0x11b (24)
     |                                               |                |              nm{}: 0x103-0x119 (22)
0x100|         15                                    |   .            |                n: 21 (valid) 0x103-0x104 (1)
0x100|            66 75 6e 63 2d 75 6e 77 69 6e 64 2d|    func-unwind-|                b: "func-unwind-by-return" 0x104-0x119 (21)
0x110|62 79 2d 72 65 74 75 72 6e                     |by-return       |
     |                                               |                |              d{}: 0x119-0x11b (2)
0x110|                           00                  |         .      |                tag: "funcidx" (0x0) 0x119-0x11a (1)
0x110|                              07               |          .     |                x: 7 (valid) 0x11a-0x11b (1)
     |                                               |                |            [8]{}: ex 0x11b-0x139 (30)
     |                                               |                |              nm{}: 0x11b-0x137 (28)
0x110|                                 1b            |           .    |                n: 27 (valid) 0x11b-0x11c (1)
0x110|                                    62 6c 6f 63|            bloc|                b: "block-unwind-by-unreachable" 0x11c-0x137 (27)
0x120|6b 2d 75 6e 77 69 6e 64 2d 62 79 2d 75 6e 72 65|k-unwind-by-unre|
0x130|61 63 68 61 62 6c 65                           |achable         |
     |                                               |                |              d{}: 0x137-0x139 (2)
0x130|                     00                        |       .        |                tag: "funcidx" (0x0) 0x137-0x138 (1)
0x130|                        08                     |        .       |                x: 8 (valid) 0x138-0x139 (1)
     |                                               |                |            [9]{}: ex 0x139-0x14e (21)
     |                                               |                |              nm{}: 0x139-0x14c (19)
0x130|                           12                  |         .      |                n: 18 (valid) 0x139-0x13a (1)
0x130|                              62 6c 6f 63 6b 2d|          block-|                b: "block-unwind-by-br" 0x13a-0x14c (18)
0x140|75 6e 77 69 6e 64 2d 62 79 2d 62 72            |unwind-by-br    |
     |                                               |                |              d{}: 0x14c-0x14e (2)
0x140|                                    00         |            .   |                tag: "funcidx" (0x0) 0x14c-0x14d (1)
0x140|                                       09      |             .  |                x: 9 (valid) 0x14d-0x14e (1)
     |                                               |                |            [10]{}: ex 0x14e-0x169 (27)
     |                                               |                |              nm{}: 0x14e-0x167 (25)
0x140|                                          18   |              . |                n: 24 (valid) 0x14e-0x14f (1)
0x140|                                             62|               b|                b: "block-unwind-by-br-value" 0x14f-0x167 (24)
0x150|6c 6f 63 6b 2d 75 6e 77 69 6e 64 2d 62 79 2d 62|lock-unwind-by-b|
0x160|72 2d 76 61 6c 75 65                           |r-value         |
     |                                               |                |              d{}: 0x167-0x169 (2)
0x160|                     00                        |       .        |                tag: "funcidx" (0x0) 0x167-0x168 (1)
0x160|                        0a                     |        .       |                x: 10 (valid) 0x168-0x169 (1)
     |                                               |                |            [11]{}: ex 0x169-0x181 (24)
     |                                               |                |              nm{}: 0x169-0x17f (22)
0x160|                           15                  |         .      |                n: 21 (valid) 0x169-0x16a (1)
0x160|                              62 6c 6f 63 6b 2d|          block-|                b: "block-unwind-by-br_if" 0x16a-0x17f (21)
0x170|75 6e 77 69 6e 64 2d 62 79 2d 62 72 5f 69 66   |unwind-by-br_if |
     |                                               |                |              d{}: 0x17f-0x181 (2)
0x170|                                             00|               .|                tag: "funcidx" (0x0) 0x17f-0x180 (1)
0x180|0b                                             |.               |                x: 11 (valid) 0x180-0x181 (1)
     |                                               |                |            [12]{}: ex 0x181-0x19f (30)
     |                                               |                |              nm{}: 0x181-0x19d (28)
0x180|   1b                                          | .              |                n: 27 (valid) 0x181-0x182 (1)
0x180|      62 6c 6f 63 6b 2d 75 6e 77 69 6e 64 2d 62|  block-unwind-b|                b: "block-unwind-by-br_if-value" 0x182-0x19d (27)
0x190|79 2d 62 72 5f 69 66 2d 76 61 6c 75 65         |y-br_if-value   |
     |                                               |                |              d{}: 0x19d-0x19f (2)
0x190|                                       00      |             .  |                tag: "funcidx" (0x0) 0x19d-0x19e (1)
0x190|                                          0c   |              . |                x: 12 (valid) 0x19e-0x19f (1)
     |                                               |                |            [13]{}: ex 0x19f-0x1ba (27)
     |                                               |                |              nm{}: 0x19f-0x1b8 (25)
0x190|                                             18|               .|                n: 24 (valid) 0x19f-0x1a0 (1)
0x1a0|62 6c 6f 63 6b 2d 75 6e 77 69 6e 64 2d 62 79 2d|block-unwind-by-|                b: "block-unwind-by-br_table" 0x1a0-0x1b8 (24)
0x1b0|62 72 5f 74 61 62 6c 65                        |br_table        |
     |                                               |                |              d{}: 0x1b8-0x1ba (2)
0x1b0|                        00                     |        .       |                tag: "funcidx" (0x0) 0x1b8-0x1b9 (1)
0x1b0|                           0d                  |         .      |                x: 13 (valid) 0x1b9-0x1ba (1)
     |                                               |                |            [14]{}: ex 0x1ba-0x1db (33)
     |                                               |                |              nm{}: 0x1ba-0x1d9 (31)
0x1b0|                              1e               |          .     |                n: 30 (valid) 0x1ba-0x1bb (1)
0x1b0|                                 62 6c 6f 63 6b|           block|                b: "block-unwind-by-br_table-value" 0x1bb-0x1d9 (30)
0x1c0|2d 75 6e 77 69 6e 64 2d 62 79 2d 62 72 5f 74 61|-unwind-by-br_ta|
0x1d0|62 6c 65 2d 76 61 6c 75 65                     |ble-value       |
     |                                               |                |              d{}: 0x1d9-0x1db (2)
0x1d0|                           00                  |         .      |                tag: "funcidx" (0x0) 0x1d9-0x1da (1)
0x1d0|                              0e               |          .     |                x: 14 (valid) 0x1da-0x1db (1)
     |                                               |                |            [15]{}: ex 0x1db-0x1f4 (25)
     |                                               |                |              nm{}: 0x1db-0x1f2 (23)
0x1d0|                                 16            |           .    |                n: 22 (valid) 0x1db-0x1dc (1)
0x1d0|                                    62 6c 6f 63|            bloc|                b: "block-unwind-by-return" 0x1dc-0x1f2 (22)
0x1e0|6b 2d 75 6e 77 69 6e 64 2d 62 79 2d 72 65 74 75|k-unwind-by-retu|
0x1f0|72 6e                                          |rn              |
     |                                               |                |              d{}: 0x1f2-0x1f4 (2)
0x1f0|      00                                       |  .             |                tag: "funcidx" (0x0) 0x1f2-0x1f3 (1)
0x1f0|         0f                                    |   .            |                x: 15 (valid) 0x1f3-0x1f4 (1)
     |                                               |                |            [16]{}: ex 0x1f4-0x219 (37)
     |                                               |                |              nm{}: 0x1f4-0x217 (35)
0x1f0|            22                                 |    "           |                n: 34 (valid) 0x1f4-0x1f5 (1)
0x1f0|               62 6c 6f 63 6b 2d 6e 65 73 74 65|     block-neste|                b: "block-nested-unwind-by-unreachable" 0x1f5-0x217 (34)
0x200|64 2d 75 6e 77 69 6e 64 2d 62 79 2d 75 6e 72 65|d-unwind-by-unre|
0x210|61 63 68 61 62 6c 65                           |achable         |
     |                                               |                |              d{}: 0x217-0x219 (2)
0x210|                     00                        |       .        |                tag: "funcidx" (0x0) 0x217-0x218 (1)
0x210|                        10                     |        .       |                x: 16 (valid) 0x218-0x219 (1)
     |                                               |                |            [17]{}: ex 0x219-0x235 (28)
     |                                               |                |              nm{}: 0x219-0x233 (26)
0x210|                           19                  |         .      |                n: 25 (valid) 0x219-0x21a (1)
0x210|                              62 6c 6f 63 6b 2d|          block-|                b: "block-nested-unwind-by-br" 0x21a-0x233 (25)
0x220|6e 65 73 74 65 64 2d 75 6e 77 69 6e 64 2d 62 79|nested-unwind-by|
0x230|2d 62 72                                       |-br             |
     |                                               |                |              d{}: 0x233-0x235 (2)
0x230|         00                                    |   .            |                tag: "funcidx" (0x0) 0x233-0x234 (1)
0x230|            11                                 |    .           |                x: 17 (valid) 0x234-0x235 (1)
     |                                               |                |            [18]{}: ex 0x235-0x257 (34)
     |                                               |                |              nm{}: 0x235-0x255 (32)
0x230|               1f                              |     .          |                n: 31 (valid) 0x235-0x236 (1)
0x230|                  62 6c 6f 63 6b 2d 6e 65 73 74|      block-nest|                b: "block-nested-unwind-by-br-value" 0x236-0x255 (31)
0x240|65 64 2d 75 6e 77 69 6e 64 2d 62 79 2d 62 72 2d|ed-unwind-by-br-|
0x250|76 61 6c 75 65                                 |value           |
     |                                               |                |              d{}: 0x255-0x257 (2)
0x250|               00                              |     .          |                tag: "funcidx" (0x0) 0x255-0x256 (1)
0x250|                  12                           |      .         |                x: 18 (valid) 0x256-0x257 (1)
     |                                               |                |            [19]{}: ex 0x257-0x276 (31)
     |                                               |                |              nm{}: 0x257-0x274 (29)
0x250|                     1c                        |       .        |                n: 28 (valid) 0x257-0x258 (1)
0x250|                        62 6c 6f 63 6b 2d 6e 65|        block-ne|                b: "block-nested-unwind-by-br_if" 0x258-0x274 (28)
0x260|73 74 65 64 2d 75 6e 77 69 6e 64 2d 62 79 2d 62|sted-unwind-by-b|
0x270|72 5f 69 66                                    |r_if            |
     |                                               |                |              d{}: 0x274-0x276 (2)
0x270|            00                                 |    .           |                tag: "funcidx" (0x0) 0x274-0x275 (1)
0x270|               13                              |     .          |                x: 19 (valid) 0x275-0x276 (1)
     |                                               |                |            [20]{}: ex 0x276-0x29b (37)
     |                                               |                |              nm{}: 0x276-0x299 (35)
0x270|                  22                           |      "         |                n: 34 (valid) 0x276-0x277 (1)
0x270|                     62 6c 6f 63 6b 2d 6e 65 73|       block-nes|                b: "block-nested-unwind-by-br_if-value" 0x277-0x299 (34)
0x280|74 65 64 2d 75 6e 77 69 6e 64 2d 62 79 2d 62 72|ted-unwind-by-br|
0x290|5f 69 66 2d 76 61 6c 75 65                     |_if-value       |
     |                                               |                |              d{}: 0x299-0x29b (2)
0x290|                           00                  |         .      |                tag: "funcidx" (0x0) 0x299-0x29a (1)
0x290|                              14               |          .     |                x: 20 (valid) 0x29a-0x29b (1)
     |                                               |                |            [21]{}: ex 0x29b-0x2bd (34)
     |                                               |                |              nm{}: 0x29b-0x2bb (32)
0x290|                                 1f            |           .    |                n: 31 (valid) 0x29b-0x29c (1)
0x290|                                    62 6c 6f 63|            bloc|                b: "block-nested-unwind-by-br_table" 0x29c-0x2bb (31)
0x2a0|6b 2d 6e 65 73 74 65 64 2d 75 6e 77 69 6e 64 2d|k-nested-unwind-|
0x2b0|62 79 2d 62 72 5f 74 61 62 6c 65               |by-br_table     |
     |                                               |                |              d{}: 0x2bb-0x2bd (2)
0x2b0|                                 00            |           .    |                tag: "funcidx" (0x0) 0x2bb-0x2bc (1)
0x2b0|                                    15         |            .   |                x: 21 (valid) 0x2bc-0x2bd (1)
     |                                               |                |            [22]{}: ex 0x2bd-0x2e5 (40)
     |                                               |                |              nm{}: 0x2bd-0x2e3 (38)
0x2b0|                                       25      |             %  |                n: 37 (valid) 0x2bd-0x2be (1)
0x2b0|                                          62 6c|              bl|                b: "block-nested-unwind-by-br_table-value" 0x2be-0x2e3 (37)
0x2c0|6f 63 6b 2d 6e 65 73 74 65 64 2d 75 6e 77 69 6e|ock-nested-unwin|
*    |until 0x2e2.7 (37)                             |                |
     |                                               |                |              d{}: 0x2e3-0x2e5 (2)
0x2e0|         00                                    |   .            |                tag: "funcidx" (0x0) 0x2e3-0x2e4 (1)
0x2e0|            16                                 |    .           |                x: 22 (valid) 0x2e4-0x2e5 (1)
     |                                               |                |            [23]{}: ex 0x2e5-0x305 (32)
     |                                               |                |              nm{}: 0x2e5-0x303 (30)
0x2e0|               1d                              |     .          |                n: 29 (valid) 0x2e5-0x2e6 (1)
0x2e0|                  62 6c 6f 63 6b 2d 6e 65 73 74|      block-nest|                b: "block-nested-unwind-by-return" 0x2e6-0x303 (29)
0x2f0|65 64 2d 75 6e 77 69 6e 64 2d 62 79 2d 72 65 74|ed-unwind-by-ret|
0x300|75 72 6e                                       |urn             |
     |                                               |                |              d{}: 0x303-0x305 (2)
0x300|         00                                    |   .            |                tag: "funcidx" (0x0) 0x303-0x304 (1)
0x300|            17                                 |    .           |                x: 23 (valid) 0x304-0x305 (1)
     |                                               |                |            [24]{}: ex 0x305-0x31f (26)
     |                                               |                |              nm{}: 0x305-0x31d (24)
0x300|               17                              |     .          |                n: 23 (valid) 0x305-0x306 (1)
0x300|                  75 6e 61 72 79 2d 61 66 74 65|      unary-afte|                b: "unary-after-unreachable" 0x306-0x31d (23)
0x310|72 2d 75 6e 72 65 61 63 68 61 62 6c 65         |r-unreachable   |
     |                                               |                |              d{}: 0x31d-0x31f (2)
0x310|                                       00      |             .  |                tag: "funcidx" (0x0) 0x31d-0x31e (1)
0x310|                                          18   |              . |                x: 24 (valid) 0x31e-0x31f (1)
     |                                               |                |            [25]{}: ex 0x31f-0x330 (17)
     |                                               |                |              nm{}: 0x31f-0x32e (15)
0x310|                                             0e|               .|                n: 14 (valid) 0x31f-0x320 (1)
0x320|75 6e 61 72 79 2d 61 66 74 65 72 2d 62 72      |unary-after-br  |                b: "unary-after-br" 0x320-0x32e (14)
     |                                               |                |              d{}: 0x32e-0x330 (2)
0x320|                                          00   |              . |                tag: "funcidx" (0x0) 0x32e-0x32f (1)
0x320|                                             19|               .|                x: 25 (valid) 0x32f-0x330 (1)
     |                                               |                |            [26]{}: ex 0x330-0x344 (20)
     |                                               |                |              nm{}: 0x330-0x342 (18)
0x330|11                                             |.               |                n: 17 (valid) 0x330-0x331 (1)
0x330|   75 6e 61 72 79 2d 61 66 74 65 72 2d 62 72 5f| unary-after-br_|                b: "unary-after-br_if" 0x331-0x342 (17)
0x340|69 66                                          |if              |
     |                                               |                |              d{}: 0x342-0x344 (2)
0x340|      00                                       |  .             |                tag: "funcidx" (0x0) 0x342-0x343 (1)
0x340|         1a                                    |   .            |                x: 26 (valid) 0x343-0x344 (1)
     |                                               |                |            [27]{}: ex 0x344-0x35b (23)
     |                                               |                |              nm{}: 0x344-0x359 (21)
0x340|            14                                 |    .           |                n: 20 (valid) 0x344-0x345 (1)
0x340|               75 6e 61 72 79 2d 61 66 74 65 72|     unary-after|                b: "unary-after-br_table" 0x345-0x359 (20)
0x350|2d 62 72 5f 74 61 62 6c 65                     |-br_table       |
     |                                               |                |              d{}: 0x359-0x35b (2)
0x350|                           00                  |         .      |                tag: "funcidx" (0x0) 0x359-0x35a (1)
0x350|                              1b               |          .     |                x: 27 (valid) 0x35a-0x35b (1)
     |                                               |                |            [28]{}: ex 0x35b-0x370 (21)
     |                                               |                |              nm{}: 0x35b-0x36e (19)
0x350|                                 12            |           .    |                n: 18 (valid) 0x35b-0x35c (1)
0x350|                                    75 6e 61 72|            unar|                b: "unary-after-return" 0x35c-0x36e (18)
0x360|79 2d 61 66 74 65 72 2d 72 65 74 75 72 6e      |y-after-return  |
     |                                               |                |              d{}: 0x36e-0x370 (2)
0x360|                                          00   |              . |                tag: "funcidx" (0x0) 0x36e-0x36f (1)
0x360|                                             1c|               .|                x: 28 (valid) 0x36f-0x370 (1)
     |                                               |                |            [29]{}: ex 0x370-0x38b (27)
     |                                               |                |              nm{}: 0x370-0x389 (25)
0x370|18                                             |.               |                n: 24 (valid) 0x370-0x371 (1)
0x370|   62 69 6e 61 72 79 2d 61 66 74 65 72 2d 75 6e| binary-after-un|                b: "binary-after-unreachable" 0x371-0x389 (24)
0x380|72 65 61 63 68 61 62 6c 65                     |reachable       |
     |                                               |                |              d{}: 0x389-0x38b (2)
0x380|                           00                  |         .      |                tag: "funcidx" (0x0) 0x389-0x38a (1)
0x380|                              1d               |          .     |                x: 29 (valid) 0x38a-0x38b (1)
     |                                               |                |            [30]{}: ex 0x38b-0x39d (18)
     |                                               |                |              nm{}: 0x38b-0x39b (16)
0x380|                                 0f            |           .    |                n: 15 (valid) 0x38b-0x38c (1)
0x380|                                    62 69 6e 61|            bina|                b: "binary-after-br" 0x38c-0x39b (15)
0x390|72 79 2d 61 66 74 65 72 2d 62 72               |ry-after-br     |
     |                                               |                |              d{}: 0x39b-0x39d (2)
0x390|                                 00            |           .    |                tag: "funcidx" (0x0) 0x39b-0x39c (1)
0x390|                                    1e         |            .   |                x: 30 (valid) 0x39c-0x39d (1)
     |                                               |                |            [31]{}: ex 0x39d-0x3b2 (21)
     |                                               |                |              nm{}: 0x39d-0x3b0 (19)
0x390|                                       12      |             .  |                n: 18 (valid) 0x39d-0x39e (1)
0x390|                                          62 69|              bi|                b: "binary-after-br_if" 0x39e-0x3b0 (18)
0x3a0|6e 61 72 79 2d 61 66 74 65 72 2d 62 72 5f 69 66|nary-after-br_if|
     |                                               |                |              d{}: 0x3b0-0x3b2 (2)
0x3b0|00                                             |.               |                tag: "funcidx" (0x0) 0x3b0-0x3b1 (1)
0x3b0|   1f                                          | .              |                x: 31 (valid) 0x3b1-0x3b2 (1)
     |                                               |                |            [32]{}: ex 0x3b2-0x3ca (24)
     |                                               |                |              nm{}: 0x3b2-0x3c8 (22)
0x3b0|      15                                       |  .             |                n: 21 (valid) 0x3b2-0x3b3 (1)
0x3b0|         62 69 6e 61 72 79 2d 61 66 74 65 72 2d|   binary-after-|                b: "binary-after-br_table" 0x3b3-0x3c8 (21)
0x3c0|62 72 5f 74 61 62 6c 65                        |br_table        |
     |                                               |                |              d{}: 0x3c8-0x3ca (2)
0x3c0|                        00                     |        .       |                tag: "funcidx" (0x0) 0x3c8-0x3c9 (1)
0x3c0|                           20                  |                |                x: 32 (valid) 0x3c9-0x3ca (1)
     |                                               |                |            [33]{}: ex 0x3ca-0x3e0 (22)
     |                                               |                |              nm{}: 0x3ca-0x3de (20)
0x3c0|                              13               |          .     |                n: 19 (valid) 0x3ca-0x3cb (1)
0x3c0|                                 62 69 6e 61 72|           binar|                b: "binary-after-return" 0x3cb-0x3de (19)
0x3d0|79 2d 61 66 74 65 72 2d 72 65 74 75 72 6e      |y-after-return  |
     |                                               |                |              d{}: 0x3de-0x3e0 (2)
0x3d0|                                          00   |              . |                tag: "funcidx" (0x0) 0x3de-0x3df (1)
0x3d0|                                             21|               !|                x: 33 (valid) 0x3df-0x3e0 (1)
     |                                               |                |            [34]{}: ex 0x3e0-0x3fb (27)
     |                                               |                |              nm{}: 0x3e0-0x3f9 (25)
0x3e0|18                                             |.               |                n: 24 (valid) 0x3e0-0x3e1 (1)
0x3e0|   73 65 6c 65 63 74 2d 61 66 74 65 72 2d 75 6e| select-after-un|                b: "select-after-unreachable" 0x3e1-0x3f9 (24)
0x3f0|72 65 61 63 68 61 62 6c 65                     |reachable       |
     |                                               |                |              d{}: 0x3f9-0x3fb (2)
0x3f0|                           00                  |         .      |                tag: "funcidx" (0x0) 0x3f9-0x3fa (1)
0x3f0|                              22               |          "     |                x: 34 (valid) 0x3fa-0x3fb (1)
     |                                               |                |            [35]{}: ex 0x3fb-0x40d (18)
     |                                               |                |              nm{}: 0x3fb-0x40b (16)
0x3f0|                                 0f            |           .    |                n: 15 (valid) 0x3fb-0x3fc (1)
0x3f0|                                    73 65 6c 65|            sele|                b: "select-after-br" 0x3fc-0x40b (15)
0x400|63 74 2d 61 66 74 65 72 2d 62 72               |ct-after-br     |
     |                                               |                |              d{}: 0x40b-0x40d (2)
0x400|                                 00            |           .    |                tag: "funcidx" (0x0) 0x40b-0x40c (1)
0x400|                                    23         |            #   |                x: 35 (valid) 0x40c-0x40d (1)
     |                                               |                |            [36]{}: ex 0x40d-0x422 (21)
     |                                               |                |              nm{}: 0x40d-0x420 (19)
0x400|                                       12      |             .  |                n: 18 (valid) 0x40d-0x40e (1)
0x400|                                          73 65|              se|                b: "select-after-br_if" 0x40e-0x420 (18)
0x410|6c 65 63 74 2d 61 66 74 65 72 2d 62 72 5f 69 66|lect-after-br_if|
     |                                               |                |              d{}: 0x420-0x422 (2)
0x420|00                                             |.               |                tag: "funcidx" (0x0) 0x420-0x421 (1)
0x420|   24                                          | $              |                x: 36 (valid) 0x421-0x422 (1)
     |                                               |                |            [37]{}: ex 0x422-0x43a (24)
     |                                               |                |              nm{}: 0x422-0x438 (22)
0x420|      15                                       |  .             |                n: 21 (valid) 0x422-0x423 (1)
0x420|         73 65 6c 65 63 74 2d 61 66 74 65 72 2d|   select-after-|                b: "select-after-br_table" 0x423-0x438 (21)
0x430|62 72 5f 74 61 62 6c 65                        |br_table        |
     |                                               |                |              d{}: 0x438-0x43a (2)
0x430|                        00                     |        .       |                tag: "funcidx" (0x0) 0x438-0x439 (1)
0x430|                           25                  |         %      |                x: 37 (valid) 0x439-0x43a (1)
     |                                               |                |            [38]{}: ex 0x43a-0x450 (22)
     |                                               |                |              nm{}: 0x43a-0x44e (20)
0x430|                              13               |          .     |                n: 19 (valid) 0x43a-0x43b (1)
0x430|                                 73 65 6c 65 63|           selec|                b: "select-after-return" 0x43b-0x44e (19)
0x440|74 2d 61 66 74 65 72 2d 72 65 74 75 72 6e      |t-after-return  |
     |                                               |                |              d{}: 0x44e-0x450 (2)
0x440|                                          00   |              . |                tag: "funcidx" (0x0) 0x44e-0x44f (1)
0x440|                                             26|               &|                x: 38 (valid) 0x44f-0x450 (1)
     |                                               |                |            [39]{}: ex 0x450-0x470 (32)
     |                                               |                |              nm{}: 0x450-0x46e (30)
0x450|1d                                             |.               |                n: 29 (valid) 0x450-0x451 (1)
0x450|   62 6c 6f 63 6b 2d 76 61 6c 75 65 2d 61 66 74| block-value-aft|                b: "block-value-after-unreachable" 0x451-0x46e (29)
0x460|65 72 2d 75 6e 72 65 61 63 68 61 62 6c 65      |er-unreachable  |
     |                                               |                |              d{}: 0x46e-0x470 (2)
0x460|                                          00   |              . |                tag: "funcidx" (0x0) 0x46e-0x46f (1)
0x460|                                             27|               '|                x: 39 (valid) 0x46f-0x470 (1)
     |                                               |                |            [40]{}: ex 0x470-0x487 (23)
     |                                               |                |              nm{}: 0x470-0x485 (21)
0x470|14                                             |.               |                n: 20 (valid) 0x470-0x471 (1)
0x470|   62 6c 6f 63 6b 2d 76 61 6c 75 65 2d 61 66 74| block-value-aft|                b: "block-value-after-br" 0x471-0x485 (20)
0x480|65 72 2d 62 72                                 |er-br           |
     |                                               |                |              d{}: 0x485-0x487 (2)
0x480|               00                              |     .          |                tag: "funcidx" (0x0) 0x485-0x486 (1)
0x480|                  28                           |      (         |                x: 40 (valid) 0x486-0x487 (1)
     |                                               |                |            [41]{}: ex 0x487-0x4a1 (26)
     |                                               |                |              nm{}: 0x487-0x49f (24)
0x480|                     17                        |       .        |                n: 23 (valid) 0x487-0x488 (1)
0x480|                        62 6c 6f 63 6b 2d 76 61|        block-va|                b: "block-value-after-br_if" 0x488-0x49f (23)
0x490|6c 75 65 2d 61 66 74 65 72 2d 62 72 5f 69 66   |lue-after-br_if |
     |                                               |                |              d{}: 0x49f-0x4a1 (2)
0x490|                                             00|               .|                tag: "funcidx" (0x0) 0x49f-0x4a0 (1)
0x4a0|29                                             |)               |                x: 41 (valid) 0x4a0-0x4a1 (1)
     |                                               |                |            [42]{}: ex 0x4a1-0x4be (29)
     |                                               |                |              nm{}: 0x4a1-0x4bc (27)
0x4a0|   1a                                          | .              |                n: 26 (valid) 0x4a1-0x4a2 (1)
0x4a0|      62 6c 6f 63 6b 2d 76 61 6c 75 65 2d 61 66|  block-value-af|                b: "block-value-after-br_table" 0x4a2-0x4bc (26)
0x4b0|74 65 72 2d 62 72 5f 74 61 62 6c 65            |ter-br_table    |
     |                                               |                |              d{}: 0x4bc-0x4be (2)
0x4b0|                                    00         |            .   |                tag: "funcidx" (0x0) 0x4bc-0x4bd (1)
0x4b0|                                       2a      |             *  |                x: 42 (valid) 0x4bd-0x4be (1)
     |                                               |                |            [43]{}: ex 0x4be-0x4d9 (27)
     |                                               |                |              nm{}: 0x4be-0x4d7 (25)
0x4b0|                                          18   |              . |                n: 24 (valid) 0x4be-0x4bf (1)
0x4b0|                                             62|               b|                b: "block-value-after-return" 0x4bf-0x4d7 (24)
0x4c0|6c 6f 63 6b 2d 76 61 6c 75 65 2d 61 66 74 65 72|lock-value-after|
0x4d0|2d 72 65 74 75 72 6e                           |-return         |
     |                                               |                |              d{}: 0x4d7-0x4d9 (2)
0x4d0|                     00                        |       .        |                tag: "funcidx" (0x0) 0x4d7-0x4d8 (1)
0x4d0|                        2b                     |        +       |                x: 43 (valid) 0x4d8-0x4d9 (1)
     |                                               |                |            [44]{}: ex 0x4d9-0x4f8 (31)
     |                                               |                |              nm{}: 0x4d9-0x4f6 (29)
0x4d0|                           1c                  |         .      |                n: 28 (valid) 0x4d9-0x4da (1)
0x4d0|                              6c 6f 6f 70 2d 76|          loop-v|                b: "loop-value-after-unreachable" 0x4da-0x4f6 (28)
0x4e0|61 6c 75 65 2d 61 66 74 65 72 2d 75 6e 72 65 61|alue-after-unrea|
0x4f0|63 68 61 62 6c 65                              |chable          |
     |                                               |                |              d{}: 0x4f6-0x4f8 (2)
0x4f0|                  00                           |      .         |                tag: "funcidx" (0x0) 0x4f6-0x4f7 (1)
0x4f0|                     2c                        |       ,        |                x: 44 (valid) 0x4f7-0x4f8 (1)
     |                                               |                |            [45]{}: ex 0x4f8-0x50e (22)
     |                                               |                |              nm{}: 0x4f8-0x50c (20)
0x4f0|                        13                     |        .       |                n: 19 (valid) 0x4f8-0x4f9 (1)
0x4f0|                           6c 6f 6f 70 2d 76 61|         loop-va|                b: "loop-value-after-br" 0x4f9-0x50c (19)
0x500|6c 75 65 2d 61 66 74 65 72 2d 62 72            |lue-after-br    |
     |                                               |                |              d{}: 0x50c-0x50e (2)
0x500|                                    00         |            .   |                tag: "funcidx" (0x0) 0x50c-0x50d (1)
0x500|                                       2d      |             -  |                x: 45 (valid) 0x50d-0x50e (1)
     |                                               |                |            [46]{}: ex 0x50e-0x527 (25)
     |                                               |                |              nm{}: 0x50e-0x525 (23)
0x500|                                          16   |              . |                n: 22 (valid) 0x50e-0x50f (1)
0x500|                                             6c|               l|                b: "loop-value-after-br_if" 0x50f-0x525 (22)
0x510|6f 6f 70 2d 76 61 6c 75 65 2d 61 66 74 65 72 2d|oop-value-after-|
0x520|62 72 5f 69 66                                 |br_if           |
     |                                               |                |              d{}: 0x525-0x527 (2)
0x520|               00                              |     .          |                tag: "funcidx" (0x0) 0x525-0x526 (1)
0x520|                  2e                           |      .         |                x: 46 (valid) 0x526-0x527 (1)
     |                                               |                |            [47]{}: ex 0x527-0x543 (28)
     |                                               |                |              nm{}: 0x527-0x541 (26)
0x520|                     19                        |       .        |                n: 25 (valid) 0x527-0x528 (1)
0x520|                        6c 6f 6f 70 2d 76 61 6c|        loop-val|                b: "loop-value-after-br_table" 0x528-0x541 (25)
0x530|75 65 2d 61 66 74 65 72 2d 62 72 5f 74 61 62 6c|ue-after-br_tabl|
0x540|65                                             |e               |
     |                                               |                |              d{}: 0x541-0x543 (2)
0x540|   00                                          | .              |                tag: "funcidx" (0x0) 0x541-0x542 (1)
0x540|      2f                                       |  /             |                x: 47 (valid) 0x542-0x543 (1)
     |                                               |                |            [48]{}: ex 0x543-0x55d (26)
     |                                               |                |              nm{}: 0x543-0x55b (24)
0x540|         17                                    |   .            |                n: 23 (valid) 0x543-0x544 (1)
0x540|            6c 6f 6f 70 2d 76 61 6c 75 65 2d 61|    loop-value-a|                b: "loop-value-after-return" 0x544-0x55b (23)
0x550|66 74 65 72 2d 72 65 74 75 72 6e               |fter-return     |
     |                                               |                |              d{}: 0x55b-0x55d (2)
0x550|                                 00            |           .    |                tag: "funcidx" (0x0) 0x55b-0x55c (1)
0x550|                                    30         |            0   |                x: 48 (valid) 0x55c-0x55d (1)
     |                                               |                |    [3]{}: section 0x55d-0x89c (831)
0x550|                                       0a      |             .  |      id: "code_section" (10) 0x55d-0x55e (1)
0x550|                                          bc 06|              ..|      size: 828 (valid) 0x55e-0x560 (2)
     |                                               |                |      content{}: 0x560-0x89c (828)
     |                                               |                |        code{}: 0x560-0x89c (828)
0x560|31                                             |1               |          n: 49 (valid) 0x560-0x561 (1)
     |                                               |                |          x[0:49]: 0x561-0x89c (827)
     |                                               |                |            [0]{}: code 0x561-0x569 (8)
0x560|   07                                          | .              |              size: 7 (valid) 0x561-0x562 (1)
     |                                               |                |              code{}: 0x562-0x569 (7)
     |                                               |                |                t{}: 0x562-0x563 (1)
0x560|      00                                       |  .             |                  n: 0 (valid) 0x562-0x563 (1)
     |                                               |                |                  x[0:0]: 0x563-0x563 (0)
     |                                               |                |                e[0:4]: 0x563-0x569 (6)
     |                                               |                |                  [0]{}: in 0x563-0x565 (2)
0x560|         41                                    |   A            |                    opcode: "i32.const" (0x41) 0x563-0x564 (1)
0x560|            03                                 |    .           |                    n: 3 (valid) 0x564-0x565 (1)
     |                                               |                |                  [1]{}: in 0x565-0x567 (2)
0x560|               42                              |     B          |                    opcode: "i64.const" (0x42) 0x565-0x566 (1)
0x560|                  01                           |      .         |                    n: 1 0x566-0x567 (1)
     |                                               |                |                  [2]{}: in 0x567-0x568 (1)
0x560|                     00                        |       .        |                    opcode: "unreachable" (0x0) 0x567-0x568 (1)
     |                                               |                |                  [3]{}: in 0x568-0x569 (1)
0x560|                        0b                     |        .       |                    opcode: "end" (0xb) 0x568-0x569 (1)
     |                                               |                |            [1]{}: code 0x569-0x572 (9)
0x560|                           08                  |         .      |              size: 8 (valid) 0x569-0x56a (1)
     |                                               |                |              code{}: 0x56a-0x572 (8)
     |                                               |                |                t{}: 0x56a-0x56b (1)
0x560|                              00               |          .     |                  n: 0 (valid) 0x56a-0x56b (1)
     |                                               |                |                  x[0:0]: 0x56b-0x56b (0)
     |                                               |                |                e[0:4]: 0x56b-0x572 (7)
     |                                               |                |                  [0]{}: in 0x56b-0x56d (2)
0x560|                                 41            |           A    |                    opcode: "i32.const" (0x41) 0x56b-0x56c (1)
0x560|                                    03         |            .   |                    n: 3 (valid) 0x56c-0x56d (1)
     |                                               |                |                  [1]{}: in 0x56d-0x56f (2)
0x560|                                       42      |             B  |                    opcode: "i64.const" (0x42) 0x56d-0x56e (1)
0x560|                                          01   |              . |                    n: 1 0x56e-0x56f (1)
     |                                               |                |                  [2]{}: in 0x56f-0x571 (2)
0x560|                                             0c|               .|                    opcode: "br" (0xc) 0x56f-0x570 (1)
0x570|00                                             |.               |                    l: 0 (valid) 0x570-0x571 (1)
     |                                               |                |                  [3]{}: in 0x571-0x572 (1)
0x570|   0b                                          | .              |                    opcode: "end" (0xb) 0x571-0x572 (1)
     |                                               |                |            [2]{}: code 0x572-0x57d (11)
0x570|      0a                                       |  .             |              size: 10 (valid) 0x572-0x573 (1)
     |                                               |                |              code{}: 0x573-0x57d (10)
     |                                               |                |                t{}: 0x573-0x574 (1)
0x570|         00                                    |   .            |                  n: 0 (valid) 0x573-0x574 (1)
     |                                               |                |                  x[0:0]: 0x574-0x574 (0)
     |                                               |                |                e[0:5]: 0x574-0x57d (9)
     |                                               |                |                  [0]{}: in 0x574-0x576 (2)
0x570|            41                                 |    A           |                    opcode: "i32.const" (0x41) 0x574-0x575 (1)
0x570|               03                              |     .          |                    n: 3 (valid) 0x575-0x576 (1)
     |                                               |                |                  [1]{}: in 0x576-0x578 (2)
0x570|                  42                           |      B         |                    opcode: "i64.const" (0x42) 0x576-0x577 (1)
0x570|                     01                        |       .        |                    n: 1 0x577-0x578 (1)
     |                                               |                |                  [2]{}: in 0x578-0x57a (2)
0x570|                        41                     |        A       |                    opcode: "i32.const" (0x41) 0x578-0x579 (1)
0x570|                           09                  |         .      |                    n: 9 (valid) 0x579-0x57a (1)
     |                                               |                |                  [3]{}: in 0x57a-0x57c (2)
0x570|                              0c               |          .     |                    opcode: "br" (0xc) 0x57a-0x57b (1)
0x570|                                 00            |           .    |                    l: 0 (valid) 0x57b-0x57c (1)
     |                                               |                |                  [4]{}: in 0x57c-0x57d (1)
0x570|                                    0b         |            .   |                    opcode: "end" (0xb) 0x57c-0x57d (1)
     |                                               |                |            [3]{}: code 0x57d-0x58a (13)
0x570|                                       0c      |             .  |              size: 12 (valid) 0x57d-0x57e (1)
     |                                               |                |              code{}: 0x57e-0x58a (12)
     |                                               |                |                t{}: 0x57e-0x57f (1)
0x570|                                          00   |              . |                  n: 0 (valid) 0x57e-0x57f (1)
     |                                               |                |                  x[0:0]: 0x57f-0x57f (0)
     |                                               |                |                e[0:7]: 0x57f-0x58a (11)
     |                                               |                |                  [0]{}: in 0x57f-0x581 (2)
0x570|                                             41|               A|                    opcode: "i32.const" (0x41) 0x57f-0x580 (1)
0x580|03                                             |.               |                    n: 3 (valid) 0x580-0x581 (1)
     |                                               |                |                  [1]{}: in 0x581-0x583 (2)
0x580|   42                                          | B              |                    opcode: "i64.const" (0x42) 0x581-0x582 (1)
0x580|      01                                       |  .             |                    n: 1 0x582-0x583 (1)
     |                                               |                |                  [2]{}: in 0x583-0x585 (2)
0x580|         41                                    |   A            |                    opcode: "i32.const" (0x41) 0x583-0x584 (1)
0x580|            01                                 |    .           |                    n: 1 (valid) 0x584-0x585 (1)
     |                                               |                |                  [3]{}: in 0x585-0x587 (2)
0x580|               0d                              |     .          |                    opcode: "br_if" (0xd) 0x585-0x586 (1)
0x580|                  00                           |      .         |                    l: 0 (valid) 0x586-0x587 (1)
     |                                               |                |                  [4]{}: in 0x587-0x588 (1)
0x580|                     1a                        |       .        |                    opcode: "drop" (0x1a) 0x587-0x588 (1)
     |                                               |                |                  [5]{}: in 0x588-0x589 (1)
0x580|                        1a                     |        .       |                    opcode: "drop" (0x1a) 0x588-0x589 (1)
     |                                               |                |                  [6]{}: in 0x589-0x58a (1)
0x580|                           0b                  |         .      |                    opcode: "end" (0xb) 0x589-0x58a (1)
     |                                               |                |            [4]{}: code 0x58a-0x599 (15)
0x580|                              0e               |          .     |              size: 14 (valid) 0x58a-0x58b (1)
     |                                               |                |              code{}: 0x58b-0x599 (14)
     |                                               |                |                t{}: 0x58b-0x58c (1)
0x580|                                 00            |           .    |                  n: 0 (valid) 0x58b-0x58c (1)
     |                                               |                |                  x[0:0]: 0x58c-0x58c (0)
     |                                               |                |                e[0:8]: 0x58c-0x599 (13)
     |                                               |                |                  [0]{}: in 0x58c-0x58e (2)
0x580|                                    41         |            A   |                    opcode: "i32.const" (0x41) 0x58c-0x58d (1)
0x580|                                       03      |             .  |                    n: 3 (valid) 0x58d-0x58e (1)
     |                                               |                |                  [1]{}: in 0x58e-0x590 (2)
0x580|                                          42   |              B |                    opcode: "i64.const" (0x42) 0x58e-0x58f (1)
0x580|                                             01|               .|                    n: 1 0x58f-0x590 (1)
     |                                               |                |                  [2]{}: in 0x590-0x592 (2)
0x590|41                                             |A               |                    opcode: "i32.const" (0x41) 0x590-0x591 (1)
0x590|   09                                          | .              |                    n: 9 (valid) 0x591-0x592 (1)
     |                                               |                |                  [3]{}: in 0x592-0x594 (2)
0x590|      41                                       |  A             |                    opcode: "i32.const" (0x41) 0x592-0x593 (1)
0x590|         01                                    |   .            |                    n: 1 (valid) 0x593-0x594 (1)
     |                                               |                |                  [4]{}: in 0x594-0x596 (2)
0x590|            0d                                 |    .           |                    opcode: "br_if" (0xd) 0x594-0x595 (1)
0x590|               00                              |     .          |                    l: 0 (valid) 0x595-0x596 (1)
     |                                               |                |                  [5]{}: in 0x596-0x597 (1)
0x590|                  1a                           |      .         |                    opcode: "drop" (0x1a) 0x596-0x597 (1)
     |                                               |                |                  [6]{}: in 0x597-0x598 (1)
0x590|                     1a                        |       .        |                    opcode: "drop" (0x1a) 0x597-0x598 (1)
     |                                               |                |                  [7]{}: in 0x598-0x599 (1)
0x590|                        0b                     |        .       |                    opcode: "end" (0xb) 0x598-0x599 (1)
     |                                               |                |            [5]{}: code 0x599-0x5a5 (12)
0x590|                           0b                  |         .      |              size: 11 (valid) 0x599-0x59a (1)
     |                                               |                |              code{}: 0x59a-0x5a5 (11)
     |                                               |                |                t{}: 0x59a-0x59b (1)
0x590|                              00               |          .     |                  n: 0 (valid) 0x59a-0x59b (1)
     |                                               |                |                  x[0:0]: 0x59b-0x59b (0)
     |                                               |                |                e[0:5]: 0x59b-0x5a5 (10)
     |                                               |                |                  [0]{}: in 0x59b-0x59d (2)
0x590|                                 41            |           A    |                    opcode: "i32.const" (0x41) 0x59b-0x59c (1)
0x590|                                    03         |            .   |                    n: 3 (valid) 0x59c-0x59d (1)
     |                                               |                |                  [1]{}: in 0x59d-0x59f (2)
0x590|                                       42      |             B  |                    opcode: "i64.const" (0x42) 0x59d-0x59e (1)
0x590|                                          01   |              . |                    n: 1 0x59e-0x59f (1)
     |                                               |                |                  [2]{}: in 0x59f-0x5a1 (2)
0x590|                                             41|               A|                    opcode: "i32.const" (0x41) 0x59f-0x5a0 (1)
0x5a0|00                                             |.               |                    n: 0 (valid) 0x5a0-0x5a1 (1)
     |                                               |                |                  [3]{}: in 0x5a1-0x5a4 (3)
0x5a0|   0e                                          | .              |                    opcode: "br_table" (0xe) 0x5a1-0x5a2 (1)
     |                                               |                |                    l{}: 0x5a2-0x5a3 (1)
0x5a0|      00                                       |  .             |                      n: 0 (valid) 0x5a2-0x5a3 (1)
     |                                               |                |                      x[0:0]: 0x5a3-0x5a3 (0)
0x5a0|         00                                    |   .            |                    lN: 0 (valid) 0x5a3-0x5a4 (1)
     |                                               |                |                  [4]{}: in 0x5a4-0x5a5 (1)
0x5a0|            0b                                 |    .           |                    opcode: "end" (0xb) 0x5a4-0x5a5 (1)
     |                                               |                |            [6]{}: code 0x5a5-0x5b3 (14)
0x5a0|               0d                              |     .          |              size: 13 (valid) 0x5a5-0x5a6 (1)
     |                                               |                |              code{}: 0x5a6-0x5b3 (13)
     |                                               |                |                t{}: 0x5a6-0x5a7 (1)
0x5a0|                  00                           |      .         |                  n: 0 (valid) 0x5a6-0x5a7 (1)
     |                                               |                |                  x[0:0]: 0x5a7-0x5a7 (0)
     |                                               |                |                e[0:6]: 0x5a7-0x5b3 (12)
     |                                               |                |                  [0]{}: in 0x5a7-0x5a9 (2)
0x5a0|                     41                        |       A        |                    opcode: "i32.const" (0x41) 0x5a7-0x5a8 (1)
0x5a0|                        03                     |        .       |                    n: 3 (valid) 0x5a8-0x5a9 (1)
     |                                               |                |                  [1]{}: in 0x5a9-0x5ab (2)
0x5a0|                           42                  |         B      |                    opcode: "i64.const" (0x42) 0x5a9-0x5aa (1)
0x5a0|                              01               |          .     |                    n: 1 0x5aa-0x5ab (1)
     |                                               |                |                  [2]{}: in 0x5ab-0x5ad (2)
0x5a0|                                 41            |           A    |                    opcode: "i32.const" (0x41) 0x5ab-0x5ac (1)
0x5a0|                                    09         |            .   |                    n: 9 (valid) 0x5ac-0x5ad (1)
     |                                               |                |                  [3]{}: in 0x5ad-0x5af (2)
0x5a0|                                       41      |             A  |                    opcode: "i32.const" (0x41) 0x5ad-0x5ae (1)
0x5a0|                                          00   |              . |                    n: 0 (valid) 0x5ae-0x5af (1)
     |                                               |                |                  [4]{}: in 0x5af-0x5b2 (3)
0x5a0|                                             0e|               .|                    opcode: "br_table" (0xe) 0x5af-0x5b0 (1)
     |                                               |                |                    l{}: 0x5b0-0x5b1 (1)
0x5b0|00                                             |.               |                      n: 0 (valid) 0x5b0-0x5b1 (1)
     |                                               |                |                      x[0:0]: 0x5b1-0x5b1 (0)
0x5b0|   00                                          | .              |                    lN: 0 (valid) 0x5b1-0x5b2 (1)
     |                                               |                |                  [5]{}: in 0x5b2-0x5b3 (1)
0x5b0|      0b                                       |  .             |                    opcode: "end" (0xb) 0x5b2-0x5b3 (1)
     |                                               |                |            [7]{}: code 0x5b3-0x5bd (10)
0x5b0|         09                                    |   .            |              size: 9 (valid) 0x5b3-0x5b4 (1)
     |                                               |                |              code{}: 0x5b4-0x5bd (9)
     |                                               |                |                t{}: 0x5b4-0x5b5 (1)
0x5b0|            00                                 |    .           |                  n: 0 (valid) 0x5b4-0x5b5 (1)
     |                                               |                |                  x[0:0]: 0x5b5-0x5b5 (0)
     |                                               |                |                e[0:5]: 0x5b5-0x5bd (8)
     |                                               |                |                  [0]{}: in 0x5b5-0x5b7 (2)
0x5b0|               41                              |     A          |                    opcode: "i32.const" (0x41) 0x5b5-0x5b6 (1)
0x5b0|                  03                           |      .         |                    n: 3 (valid) 0x5b6-0x5b7 (1)
     |                                               |                |                  [1]{}: in 0x5b7-0x5b9 (2)
0x5b0|                     42                        |       B        |                    opcode: "i64.const" (0x42) 0x5b7-0x5b8 (1)
0x5b0|                        01                     |        .       |                    n: 1 0x5b8-0x5b9 (1)
     |                                               |                |                  [2]{}: in 0x5b9-0x5bb (2)
0x5b0|                           41                  |         A      |                    opcode: "i32.const" (0x41) 0x5b9-0x5ba (1)
0x5b0|                              09               |          .     |                    n: 9 (valid) 0x5ba-0x5bb (1)
     |                                               |                |                  [3]{}: in 0x5bb-0x5bc (1)
0x5b0|                                 0f            |           .    |                    opcode: "return" (0xf) 0x5bb-0x5bc (1)
     |                                               |                |                  [4]{}: in 0x5bc-0x5bd (1)
0x5b0|                                    0b         |            .   |                    opcode: "end" (0xb) 0x5bc-0x5bd (1)
     |                                               |                |            [8]{}: code 0x5bd-0x5c8 (11)
0x5b0|                                       0a      |             .  |              size: 10 (valid) 0x5bd-0x5be (1)
     |                                               |                |              code{}: 0x5be-0x5c8 (10)
     |                                               |                |                t{}: 0x5be-0x5bf (1)
0x5b0|                                          00   |              . |                  n: 0 (valid) 0x5be-0x5bf (1)
     |                                               |                |                  x[0:0]: 0x5bf-0x5bf (0)
     |                                               |                |                e[0:2]: 0x5bf-0x5c8 (9)
     |                                               |                |                  [0]{}: in 0x5bf-0x5c7 (8)
0x5b0|                                             02|               .|                    opcode: "block" (0x2) 0x5bf-0x5c0 (1)
0x5c0|40                                             |@               |                    bt: "ε" (64) 0x5c0-0x5c1 (1)
     |                                               |                |                    instructions[0:3]: 0x5c1-0x5c6 (5)
     |                                               |                |                      [0]{}: instr 0x5c1-0x5c3 (2)
0x5c0|   41                                          | A              |                        opcode: "i32.const" (0x41) 0x5c1-0x5c2 (1)
0x5c0|      03                                       |  .             |                        n: 3 (valid) 0x5c2-0x5c3 (1)
     |                                               |                |                      [1]{}: instr 0x5c3-0x5c5 (2)
0x5c0|         42                                    |   B            |                        opcode: "i64.const" (0x42) 0x5c3-0x5c4 (1)
0x5c0|            01                                 |    .           |                        n: 1 0x5c4-0x5c5 (1)
     |                                               |                |                      [2]{}: instr 0x5c5-0x5c6 (1)
0x5c0|               00                              |     .          |                        opcode: "unreachable" (0x0) 0x5c5-0x5c6 (1)
0x5c0|                  0b                           |      .         |                    end: 0xb (valid) 0x5c6-0x5c7 (1)
     |                                               |                |                  [1]{}: in 0x5c7-0x5c8 (1)
0x5c0|                     0b                        |       .        |                    opcode: "end" (0xb) 0x5c7-0x5c8 (1)
     |                                               |                |            [9]{}: code 0x5c8-0x5d6 (14)
0x5c0|                        0d                     |        .       |              size: 13 (valid) 0x5c8-0x5c9 (1)
     |                                               |                |              code{}: 0x5c9-0x5d6 (13)
     |                                               |                |                t{}: 0x5c9-0x5ca (1)
0x5c0|                           00                  |         .      |                  n: 0 (valid) 0x5c9-0x5ca (1)
     |                                               |                |                  x[0:0]: 0x5ca-0x5ca (0)
     |                                               |                |                e[0:3]: 0x5ca-0x5d6 (12)
     |                                               |                |                  [0]{}: in 0x5ca-0x5d3 (9)
0x5c0|                              02               |          .     |                    opcode: "block" (0x2) 0x5ca-0x5cb (1)
0x5c0|                                 40            |           @    |                    bt: "ε" (64) 0x5cb-0x5cc (1)
     |                                               |                |                    instructions[0:3]: 0x5cc-0x5d2 (6)
     |                                               |                |                      [0]{}: instr 0x5cc-0x5ce (2)
0x5c0|                                    41         |            A   |                        opcode: "i32.const" (0x41) 0x5cc-0x5cd (1)
0x5c0|                                       03      |             .  |                        n: 3 (valid) 0x5cd-0x5ce (1)
     |                                               |                |                      [1]{}: instr 0x5ce-0x5d0 (2)
0x5c0|                                          42   |              B |                        opcode: "i64.const" (0x42) 0x5ce-0x5cf (1)
0x5c0|                                             01|               .|                        n: 1 0x5cf-0x5d0 (1)
     |                                               |                |                      [2]{}: instr 0x5d0-0x5d2 (2)
0x5d0|0c                                             |.               |                        opcode: "br" (0xc) 0x5d0-0x5d1 (1)
0x5d0|   00                                          | .              |                        l: 0 (valid) 0x5d1-0x5d2 (1)
0x5d0|      0b                                       |  .             |                    end: 0xb (valid) 0x5d2-0x5d3 (1)
     |                                               |                |                  [1]{}: in 0x5d3-0x5d5 (2)
0x5d0|         41                                    |   A            |                    opcode: "i32.const" (0x41) 0x5d3-0x5d4 (1)
0x5d0|            09                                 |    .           |                    n: 9 (valid) 0x5d4-0x5d5 (1)
     |                                               |                |                  [2]{}: in 0x5d5-0x5d6 (1)
0x5d0|               0b                              |     .          |                    opcode: "end" (0xb) 0x5d5-0x5d6 (1)
     |                                               |                |            [10]{}: code 0x5d6-0x5e4 (14)
0x5d0|                  0d                           |      .         |              size: 13 (valid) 0x5d6-0x5d7 (1)
     |                                               |                |              code{}: 0x5d7-0x5e4 (13)
     |                                               |                |                t{}: 0x5d7-0x5d8 (1)
0x5d0|                     00                        |       .        |                  n: 0 (valid) 0x5d7-0x5d8 (1)
     |                                               |                |                  x[0:0]: 0x5d8-0x5d8 (0)
     |                                               |                |                e[0:2]: 0x5d8-0x5e4 (12)
     |                                               |                |                  [0]{}: in 0x5d8-0x5e3 (11)
0x5d0|                        02                     |        .       |                    opcode: "block" (0x2) 0x5d8-0x5d9 (1)
0x5d0|                           7f                  |         .      |                    bt: "i32" (127) 0x5d9-0x5da (1)
     |                                               |                |                    instructions[0:4]: 0x5da-0x5e2 (8)
     |                                               |                |                      [0]{}: instr 0x5da-0x5dc (2)
0x5d0|                              41               |          A     |                        opcode: "i32.const" (0x41) 0x5da-0x5db (1)
0x5d0|                                 03            |           .    |                        n: 3 (valid) 0x5db-0x5dc (1)
     |                                               |                |                      [1]{}: instr 0x5dc-0x5de (2)
0x5d0|                                    42         |            B   |                        opcode: "i64.const" (0x42) 0x5dc-0x5dd (1)
0x5d0|                                       01      |             .  |                        n: 1 0x5dd-0x5de (1)
     |                                               |                |                      [2]{}: instr 0x5de-0x5e0 (2)
0x5d0|                                          41   |              A |                        opcode: "i32.const" (0x41) 0x5de-0x5df (1)
0x5d0|                                             09|               .|                        n: 9 (valid) 0x5df-0x5e0 (1)
     |                                               |                |                      [3]{}: instr 0x5e0-0x5e2 (2)
0x5e0|0c                                             |.               |                        opcode: "br" (0xc) 0x5e0-0x5e1 (1)
0x5e0|   00                                          | .              |                        l: 0 (valid) 0x5e1-0x5e2 (1)
0x5e0|      0b                                       |  .             |                    end: 0xb (valid) 0x5e2-0x5e3 (1)
     |                                               |                |                  [1]{}: in 0x5e3-0x5e4 (1)
0x5e0|         0b                                    |   .            |                    opcode: "end" (0xb) 0x5e3-0x5e4 (1)
     |                                               |                |            [11]{}: code 0x5e4-0x5f6 (18)
0x5e0|            11                                 |    .           |              size: 17 (valid) 0x5e4-0x5e5 (1)
     |                                               |                |              code{}: 0x5e5-0x5f6 (17)
     |                                               |                |                t{}: 0x5e5-0x5e6 (1)
0x5e0|               00                              |     .          |                  n: 0 (valid) 0x5e5-0x5e6 (1)
     |                                               |                |                  x[0:0]: 0x5e6-0x5e6 (0)
     |                                               |                |                e[0:3]: 0x5e6-0x5f6 (16)
     |                                               |                |                  [0]{}: in 0x5e6-0x5f3 (13)
0x5e0|                  02                           |      .         |                    opcode: "block" (0x2) 0x5e6-0x5e7 (1)
0x5e0|                     40                        |       @        |                    bt: "ε" (64) 0x5e7-0x5e8 (1)
     |                                               |                |                    instructions[0:6]: 0x5e8-0x5f2 (10)
     |                                               |                |                      [0]{}: instr 0x5e8-0x5ea (2)
0x5e0|                        41                     |        A       |                        opcode: "i32.const" (0x41) 0x5e8-0x5e9 (1)
0x5e0|                           03                  |         .      |                        n: 3 (valid) 0x5e9-0x5ea (1)
     |                                               |                |                      [1]{}: instr 0x5ea-0x5ec (2)
0x5e0|                              42               |          B     |                        opcode: "i64.const" (0x42) 0x5ea-0x5eb (1)
0x5e0|                                 01            |           .    |                        n: 1 0x5eb-0x5ec (1)
     |                                               |                |                      [2]{}: instr 0x5ec-0x5ee (2)
0x5e0|                                    41         |            A   |                        opcode: "i32.const" (0x41) 0x5ec-0x5ed (1)
0x5e0|                                       01      |             .  |                        n: 1 (valid) 0x5ed-0x5ee (1)
     |                                               |                |                      [3]{}: instr 0x5ee-0x5f0 (2)
0x5e0|                                          0d   |              . |                        opcode: "br_if" (0xd) 0x5ee-0x5ef (1)
0x5e0|                                             00|               .|                        l: 0 (valid) 0x5ef-0x5f0 (1)
     |                                               |                |                      [4]{}: instr 0x5f0-0x5f1 (1)
0x5f0|1a                                             |.               |                        opcode: "drop" (0x1a) 0x5f0-0x5f1 (1)
     |                                               |                |                      [5]{}: instr 0x5f1-0x5f2 (1)
0x5f0|   1a                                          | .              |                        opcode: "drop" (0x1a) 0x5f1-0x5f2 (1)
0x5f0|      0b                                       |  .             |                    end: 0xb (valid) 0x5f2-0x5f3 (1)
     |                                               |                |                  [1]{}: in 0x5f3-0x5f5 (2)
0x5f0|         41                                    |   A            |                    opcode: "i32.const" (0x41) 0x5f3-0x5f4 (1)
0x5f0|            09                                 |    .           |                    n: 9 (valid) 0x5f4-0x5f5 (1)
     |                                               |                |                  [2]{}: in 0x5f5-0x5f6 (1)
0x5f0|               0b                              |     .          |                    opcode: "end" (0xb) 0x5f5-0x5f6 (1)
     |                                               |                |            [12]{}: code 0x5f6-0x608 (18)
0x5f0|                  11                           |      .         |              size: 17 (valid) 0x5f6-0x5f7 (1)
     |                                               |                |              code{}: 0x5f7-0x608 (17)
     |                                               |                |                t{}: 0x5f7-0x5f8 (1)
0x5f0|                     00                        |       .        |                  n: 0 (valid) 0x5f7-0x5f8 (1)
     |                                               |                |                  x[0:0]: 0x5f8-0x5f8 (0)
     |                                               |                |                e[0:2]: 0x5f8-0x608 (16)
     |                                               |                |                  [0]{}: in 0x5f8-0x607 (15)
0x5f0|                        02                     |        .       |                    opcode: "block" (0x2) 0x5f8-0x5f9 (1)
0x5f0|                           7f                  |         .      |                    bt: "i32" (127) 0x5f9-0x5fa (1)
     |                                               |                |                    instructions[0:7]: 0x5fa-0x606 (12)
     |                                               |                |                      [0]{}: instr 0x5fa-0x5fc (2)
0x5f0|                              41               |          A     |                        opcode: "i32.const" (0x41) 0x5fa-0x5fb (1)
0x5f0|                                 03            |           .    |                        n: 3 (valid) 0x5fb-0x5fc (1)
     |                                               |                |                      [1]{}: instr 0x5fc-0x5fe (2)
0x5f0|                                    42         |            B   |                        opcode: "i64.const" (0x42) 0x5fc-0x5fd (1)
0x5f0|                                       01      |             .  |                        n: 1 0x5fd-0x5fe (1)
     |                                               |                |                      [2]{}: instr 0x5fe-0x600 (2)
0x5f0|                                          41   |              A |                        opcode: "i32.const" (0x41) 0x5fe-0x5ff (1)
0x5f0|                                             09|               .|                        n: 9 (valid) 0x5ff-0x600 (1)
     |                                               |                |                      [3]{}: instr 0x600-0x602 (2)
0x600|41                                             |A               |                        opcode: "i32.const" (0x41) 0x600-0x601 (1)
0x600|   01                                          | .              |                        n: 1 (valid) 0x601-0x602 (1)
     |                                               |                |                      [4]{}: instr 0x602-0x604 (2)
0x600|      0d                                       |  .             |                        opcode: "br_if" (0xd) 0x602-0x603 (1)
0x600|         00                                    |   .            |                        l: 0 (valid) 0x603-0x604 (1)
     |                                               |                |                      [5]{}: instr 0x604-0x605 (1)
0x600|            1a                                 |    .           |                        opcode: "drop" (0x1a) 0x604-0x605 (1)
     |                                               |                |                      [6]{}: instr 0x605-0x606 (1)
0x600|               1a                              |     .          |                        opcode: "drop" (0x1a) 0x605-0x606 (1)
0x600|                  0b                           |      .         |                    end: 0xb (valid) 0x606-0x607 (1)
     |                                               |                |                  [1]{}: in 0x607-0x608 (1)
0x600|                     0b                        |       .        |                    opcode: "end" (0xb) 0x607-0x608 (1)
     |                                               |                |            [13]{}: code 0x608-0x619 (17)
0x600|                        10                     |        .       |              size: 16 (valid) 0x608-0x609 (1)
     |                                               |                |              code{}: 0x609-0x619 (16)
     |                                               |                |                t{}: 0x609-0x60a (1)
0x600|                           00                  |         .      |                  n: 0 (valid) 0x609-0x60a (1)
     |                                               |                |                  x[0:0]: 0x60a-0x60a (0)
     |                                               |                |                e[0:3]: 0x60a-0x619 (15)
     |                                               |                |                  [0]{}: in 0x60a-0x616 (12)
0x600|                              02               |          .     |                    opcode: "block" (0x2) 0x60a-0x60b (1)
0x600|                                 40            |           @    |                    bt: "ε" (64) 0x60b-0x60c (1)
     |                                               |                |                    instructions[0:4]: 0x60c-0x615 (9)
     |                                               |                |                      [0]{}: instr 0x60c-0x60e (2)
0x600|                                    41         |            A   |                        opcode: "i32.const" (0x41) 0x60c-0x60d (1)
0x600|                                       03      |             .  |                        n: 3 (valid) 0x60d-0x60e (1)
     |                                               |                |                      [1]{}: instr 0x60e-0x610 (2)
0x600|                                          42   |              B |                        opcode: "i64.const" (0x42) 0x60e-0x60f (1)
0x600|                                             01|               .|                        n: 1 0x60f-0x610 (1)
     |                                               |                |                      [2]{}: instr 0x610-0x612 (2)
0x610|41                                             |A               |                        opcode: "i32.const" (0x41) 0x610-0x611 (1)
0x610|   00                                          | .              |                        n: 0 (valid) 0x611-0x612 (1)
     |                                               |                |                      [3]{}: instr 0x612-0x615 (3)
0x610|      0e                                       |  .             |                        opcode: "br_table" (0xe) 0x612-0x613 (1)
     |                                               |                |                        l{}: 0x613-0x614 (1)
0x610|         00                                    |   .            |                          n: 0 (valid) 0x613-0x614 (1)
     |                                               |                |                          x[0:0]: 0x614-0x614 (0)
0x610|            00                                 |    .           |                        lN: 0 (valid) 0x614-0x615 (1)
0x610|               0b                              |     .          |                    end: 0xb (valid) 0x615-0x616 (1)
     |                                               |                |                  [1]{}: in 0x616-0x618 (2)
0x610|                  41                           |      A         |                    opcode: "i32.const" (0x41) 0x616-0x617 (1)
0x610|                     09                        |       .        |                    n: 9 (valid) 0x617-0x618 (1)
     |                                               |                |                  [2]{}: in 0x618-0x619 (1)
0x610|                        0b                     |        .       |                    opcode: "end" (0xb) 0x618-0x619 (1)
     |                                               |                |            [14]{}: code 0x619-0x62a (17)
0x610|                           10                  |         .      |              size: 16 (valid) 0x619-0x61a (1)
     |                                               |                |              code{}: 0x61a-0x62a (16)
     |                                               |                |                t{}: 0x61a-0x61b (1)
0x610|                              00               |          .     |                  n: 0 (valid) 0x61a-0x61b (1)
     |                                               |                |                  x[0:0]: 0x61b-0x61b (0)
     |                                               |                |                e[0:2]: 0x61b-0x62a (15)
     |                                               |                |                  [0]{}: in 0x61b-0x629 (14)
0x610|                                 02            |           .    |                    opcode: "block" (0x2) 0x61b-0x61c (1)
0x610|                                    7f         |            .   |                    bt: "i32" (127) 0x61c-0x61d (1)
     |                                               |                |                    instructions[0:5]: 0x61d-0x628 (11)
     |                                               |                |                      [0]{}: instr 0x61d-0x61f (2)
0x610|                                       41      |             A  |                        opcode: "i32.const" (0x41) 0x61d-0x61e (1)
0x610|                                          03   |              . |                        n: 3 (valid) 0x61e-0x61f (1)
     |                                               |                |                      [1]{}: instr 0x61f-0x621 (2)
0x610|                                             42|               B|                        opcode: "i64.const" (0x42) 0x61f-0x620 (1)
0x620|01                                             |.               |                        n: 1 0x620-0x621 (1)
     |                                               |                |                      [2]{}: instr 0x621-0x623 (2)
0x620|   41                                          | A              |                        opcode: "i32.const" (0x41) 0x621-0x622 (1)
0x620|      09                                       |  .             |                        n: 9 (valid) 0x622-0x623 (1)
     |                                               |                |                      [3]{}: instr 0x623-0x625 (2)
0x620|         41                                    |   A            |                        opcode: "i32.const" (0x41) 0x623-0x624 (1)
0x620|            00                                 |    .           |                        n: 0 (valid) 0x624-0x625 (1)
     |                                               |                |                      [4]{}: instr 0x625-0x628 (3)
0x620|               0e                              |     .          |                        opcode: "br_table" (0xe) 0x625-0x626 (1)
     |                                               |                |                        l{}: 0x626-0x627 (1)
0x620|                  00                           |      .         |                          n: 0 (valid) 0x626-0x627 (1)
     |                                               |                |                          x[0:0]: 0x627-0x627 (0)
0x620|                     00                        |       .        |                        lN: 0 (valid) 0x627-0x628 (1)
0x620|                        0b                     |        .       |                    end: 0xb (valid) 0x628-0x629 (1)
     |                                               |                |                  [1]{}: in 0x629-0x62a (1)
0x620|                           0b                  |         .      |                    opcode: "end" (0xb) 0x629-0x62a (1)
     |                                               |                |            [15]{}: code 0x62a-0x637 (13)
0x620|                              0c               |          .     |              size: 12 (valid) 0x62a-0x62b (1)
     |                                               |                |              code{}: 0x62b-0x637 (12)
     |                                               |                |                t{}: 0x62b-0x62c (1)
0x620|                                 00            |           .    |                  n: 0 (valid) 0x62b-0x62c (1)
     |                                               |                |                  x[0:0]: 0x62c-0x62c (0)
     |                                               |                |                e[0:2]: 0x62c-0x637 (11)
     |                                               |                |                  [0]{}: in 0x62c-0x636 (10)
0x620|                                    02         |            .   |                    opcode: "block" (0x2) 0x62c-0x62d (1)
0x620|                                       7f      |             .  |                    bt: "i32" (127) 0x62d-0x62e (1)
     |                                               |                |                    instructions[0:4]: 0x62e-0x635 (7)
     |                                               |                |                      [0]{}: instr 0x62e-0x630 (2)
0x620|                                          41   |              A |                        opcode: "i32.const" (0x41) 0x62e-0x62f (1)
0x620|                                             03|               .|                        n: 3 (valid) 0x62f-0x630 (1)
     |                                               |                |                      [1]{}: instr 0x630-0x632 (2)
0x630|42                                             |B               |                        opcode: "i64.const" (0x42) 0x630-0x631 (1)
0x630|   01                                          | .              |                        n: 1 0x631-0x632 (1)
     |                                               |                |                      [2]{}: instr 0x632-0x634 (2)
0x630|      41                                       |  A             |                        opcode: "i32.const" (0x41) 0x632-0x633 (1)
0x630|         09                                    |   .            |                        n: 9 (valid) 0x633-0x634 (1)
     |                                               |                |                      [3]{}: instr 0x634-0x635 (1)
0x630|            0f                                 |    .           |                        opcode: "return" (0xf) 0x634-0x635 (1)
0x630|               0b                              |     .          |                    end: 0xb (valid) 0x635-0x636 (1)
     |                                               |                |                  [1]{}: in 0x636-0x637 (1)
0x630|                  0b                           |      .         |                    opcode: "end" (0xb) 0x636-0x637 (1)
     |                                               |                |            [16]{}: code 0x637-0x645 (14)
0x630|                     0d                        |       .        |              size: 13 (valid) 0x637-0x638 (1)
     |                                               |                |              code{}: 0x638-0x645 (13)
     |                                               |                |                t{}: 0x638-0x639 (1)
0x630|                        00                     |        .       |                  n: 0 (valid) 0x638-0x639 (1)
     |                                               |                |                  x[0:0]: 0x639-0x639 (0)
     |                                               |                |                e[0:2]: 0x639-0x645 (12)
     |                                               |                |                  [0]{}: in 0x639-0x644 (11)
0x630|                           02                  |         .      |                    opcode: "block" (0x2) 0x639-0x63a (1)
0x630|                              7f               |          .     |                    bt: "i32" (127) 0x63a-0x63b (1)
     |                                               |                |                    instructions[0:2]: 0x63b-0x643 (8)
     |                                               |                |                      [0]{}: instr 0x63b-0x63d (2)
0x630|                                 41            |           A    |                        opcode: "i32.const" (0x41) 0x63b-0x63c (1)
0x630|                                    03         |            .   |                        n: 3 (valid) 0x63c-0x63d (1)
     |                                               |                |                      [1]{}: instr 0x63d-0x643 (6)
0x630|                                       02      |             .  |                        opcode: "block" (0x2) 0x63d-0x63e (1)
0x630|                                          40   |              @ |                        bt: "ε" (64) 0x63e-0x63f (1)
     |                                               |                |                        instructions[0:2]: 0x63f-0x642 (3)
     |                                               |                |                          [0]{}: instr 0x63f-0x641 (2)
0x630|                                             42|               B|                            opcode: "i64.const" (0x42) 0x63f-0x640 (1)
0x640|01                                             |.               |                            n: 1 0x640-0x641 (1)
     |                                               |                |                          [1]{}: instr 0x641-0x642 (1)
0x640|   00                                          | .              |                            opcode: "unreachable" (0x0) 0x641-0x642 (1)
0x640|      0b                                       |  .             |                        end: 0xb (valid) 0x642-0x643 (1)
0x640|         0b                                    |   .            |                    end: 0xb (valid) 0x643-0x644 (1)
     |                                               |                |                  [1]{}: in 0x644-0x645 (1)
0x640|            0b                                 |    .           |                    opcode: "end" (0xb) 0x644-0x645 (1)
     |                                               |                |            [17]{}: code 0x645-0x657 (18)
0x640|               11                              |     .          |              size: 17 (valid) 0x645-0x646 (1)
     |                                               |                |              code{}: 0x646-0x657 (17)
     |                                               |                |                t{}: 0x646-0x647 (1)
0x640|                  00                           |      .         |                  n: 0 (valid) 0x646-0x647 (1)
     |                                               |                |                  x[0:0]: 0x647-0x647 (0)
     |                                               |                |                e[0:3]: 0x647-0x657 (16)
     |                                               |                |                  [0]{}: in 0x647-0x654 (13)
0x640|                     02                        |       .        |                    opcode: "block" (0x2) 0x647-0x648 (1)
0x640|                        40                     |        @       |                    bt: "ε" (64) 0x648-0x649 (1)
     |                                               |                |                    instructions[0:3]: 0x649-0x653 (10)
     |                                               |                |                      [0]{}: instr 0x649-0x64b (2)
0x640|                           41                  |         A      |                        opcode: "i32.const" (0x41) 0x649-0x64a (1)
0x640|                              03               |          .     |                        n: 3 (valid) 0x64a-0x64b (1)
     |                                               |                |                      [1]{}: instr 0x64b-0x652 (7)
0x640|                                 02            |           .    |                        opcode: "block" (0x2) 0x64b-0x64c (1)
0x640|                                    40         |            @   |                        bt: "ε" (64) 0x64c-0x64d (1)
     |                                               |                |                        instructions[0:2]: 0x64d-0x651 (4)
     |                                               |                |                          [0]{}: instr 0x64d-0x64f (2)
0x640|                                       42      |             B  |                            opcode: "i64.const" (0x42) 0x64d-0x64e (1)
0x640|                                          01   |              . |                            n: 1 0x64e-0x64f (1)
     |                                               |                |                          [1]{}: instr 0x64f-0x651 (2)
0x640|                                             0c|               .|                            opcode: "br" (0xc) 0x64f-0x650 (1)
0x650|01                                             |.               |                            l: 1 (valid) 0x650-0x651 (1)
0x650|   0b                                          | .              |                        end: 0xb (valid) 0x651-0x652 (1)
     |                                               |                |                      [2]{}: instr 0x652-0x653 (1)
0x650|      1a                                       |  .             |                        opcode: "drop" (0x1a) 0x652-0x653 (1)
0x650|         0b                                    |   .            |                    end: 0xb (valid) 0x653-0x654 (1)
     |                                               |                |                  [1]{}: in 0x654-0x656 (2)
0x650|            41                                 |    A           |                    opcode: "i32.const" (0x41) 0x654-0x655 (1)
0x650|               09                              |     .          |                    n: 9 (valid) 0x655-0x656 (1)
     |                                               |                |                  [2]{}: in 0x656-0x657 (1)
0x650|                  0b                           |      .         |                    opcode: "end" (0xb) 0x656-0x657 (1)
     |                                               |                |            [18]{}: code 0x657-0x668 (17)
0x650|                     10                        |       .        |              size: 16 (valid) 0x657-0x658 (1)
     |                                               |                |              code{}: 0x658-0x668 (16)
     |                                               |                |                t{}: 0x658-0x659 (1)
0x650|                        00                     |        .       |                  n: 0 (valid) 0x658-0x659 (1)
     |                                               |                |                  x[0:0]: 0x659-0x659 (0)
     |                                               |                |                e[0:2]: 0x659-0x668 (15)
     |                                               |                |                  [0]{}: in 0x659-0x667 (14)
0x650|                           02                  |         .      |                    opcode: "block" (0x2) 0x659-0x65a (1)
0x650|                              7f               |          .     |                    bt: "i32" (127) 0x65a-0x65b (1)
     |                                               |                |                    instructions[0:2]: 0x65b-0x666 (11)
     |                                               |                |                      [0]{}: instr 0x65b-0x65d (2)
0x650|                                 41            |           A    |                        opcode: "i32.const" (0x41) 0x65b-0x65c (1)
0x650|                                    03         |            .   |                        n: 3 (valid) 0x65c-0x65d (1)
     |                                               |                |                      [1]{}: instr 0x65d-0x666 (9)
0x650|                                       02      |             .  |                        opcode: "block" (0x2) 0x65d-0x65e (1)
0x650|                                          40   |              @ |                        bt: "ε" (64) 0x65e-0x65f (1)
     |                                               |                |                        instructions[0:3]: 0x65f-0x665 (6)
     |                                               |                |                          [0]{}: instr 0x65f-0x661 (2)
0x650|                                             42|               B|                            opcode: "i64.const" (0x42) 0x65f-0x660 (1)
0x660|01                                             |.               |                            n: 1 0x660-0x661 (1)
     |                                               |                |                          [1]{}: instr 0x661-0x663 (2)
0x660|   41                                          | A              |                            opcode: "i32.const" (0x41) 0x661-0x662 (1)
0x660|      09                                       |  .             |                            n: 9 (valid) 0x662-0x663 (1)
     |                                               |                |                          [2]{}: instr 0x663-0x665 (2)
0x660|         0c                                    |   .            |                            opcode: "br" (0xc) 0x663-0x664 (1)
0x660|            01                                 |    .           |                            l: 1 (valid) 0x664-0x665 (1)
0x660|               0b                              |     .          |                        end: 0xb (valid) 0x665-0x666 (1)
0x660|                  0b                           |      .         |                    end: 0xb (valid) 0x666-0x667 (1)
     |                                               |                |                  [1]{}: in 0x667-0x668 (1)
0x660|                     0b                        |       .        |                    opcode: "end" (0xb) 0x667-0x668 (1)
     |                                               |                |            [19]{}: code 0x668-0x67d (21)
0x660|                        14                     |        .       |              size: 20 (valid) 0x668-0x669 (1)
     |                                               |                |              code{}: 0x669-0x67d (20)
     |                                               |                |                t{}: 0x669-0x66a (1)
0x660|                           00                  |         .      |                  n: 0 (valid) 0x669-0x66a (1)
     |                                               |                |                  x[0:0]: 0x66a-0x66a (0)
     |                                               |                |                e[0:3]: 0x66a-0x67d (19)
     |                                               |                |                  [0]{}: in 0x66a-0x67a (16)
0x660|                              02               |          .     |                    opcode: "block" (0x2) 0x66a-0x66b (1)
0x660|                                 40            |           @    |                    bt: "ε" (64) 0x66b-0x66c (1)
     |                                               |                |                    instructions[0:3]: 0x66c-0x679 (13)
     |                                               |                |                      [0]{}: instr 0x66c-0x66e (2)
0x660|                                    41         |            A   |                        opcode: "i32.const" (0x41) 0x66c-0x66d (1)
0x660|                                       03      |             .  |                        n: 3 (valid) 0x66d-0x66e (1)
     |                                               |                |                      [1]{}: instr 0x66e-0x678 (10)
0x660|                                          02   |              . |                        opcode: "block" (0x2) 0x66e-0x66f (1)
0x660|                                             40|               @|                        bt: "ε" (64) 0x66f-0x670 (1)
     |                                               |                |                        instructions[0:4]: 0x670-0x677 (7)
     |                                               |                |                          [0]{}: instr 0x670-0x672 (2)
0x670|42                                             |B               |                            opcode: "i64.const" (0x42) 0x670-0x671 (1)
0x670|   01                                          | .              |                            n: 1 0x671-0x672 (1)
     |                                               |                |                          [1]{}: instr 0x672-0x674 (2)
0x670|      41                                       |  A             |                            opcode: "i32.const" (0x41) 0x672-0x673 (1)
0x670|         01                                    |   .            |                            n: 1 (valid) 0x673-0x674 (1)
     |                                               |                |                          [2]{}: instr 0x674-0x676 (2)
0x670|            0d                                 |    .           |                            opcode: "br_if" (0xd) 0x674-0x675 (1)
0x670|               01                              |     .          |                            l: 1 (valid) 0x675-0x676 (1)
     |                                               |                |                          [3]{}: instr 0x676-0x677 (1)
0x670|                  1a                           |      .         |                            opcode: "drop" (0x1a) 0x676-0x677 (1)
0x670|                     0b                        |       .        |                        end: 0xb (valid) 0x677-0x678 (1)
     |                                               |                |                      [2]{}: instr 0x678-0x679 (1)
0x670|                        1a                     |        .       |                        opcode: "drop" (0x1a) 0x678-0x679 (1)
0x670|                           0b                  |         .      |                    end: 0xb (valid) 0x679-0x67a (1)
     |                                               |                |                  [1]{}: in 0x67a-0x67c (2)
0x670|                              41               |          A     |                    opcode: "i32.const" (0x41) 0x67a-0x67b (1)
0x670|                                 09            |           .    |                    n: 9 (valid) 0x67b-0x67c (1)
     |                                               |                |                  [2]{}: in 0x67c-0x67d (1)
0x670|                                    0b         |            .   |                    opcode: "end" (0xb) 0x67c-0x67d (1)
     |                                               |                |            [20]{}: code 0x67d-0x692 (21)
0x670|                                       14      |             .  |              size: 20 (valid) 0x67d-0x67e (1)
     |                                               |                |              code{}: 0x67e-0x692 (20)
     |                                               |                |                t{}: 0x67e-0x67f (1)
0x670|                                          00   |              . |                  n: 0 (valid) 0x67e-0x67f (1)
     |                                               |                |                  x[0:0]: 0x67f-0x67f (0)
     |                                               |                |                e[0:2]: 0x67f-0x692 (19)
     |                                               |                |                  [0]{}: in 0x67f-0x691 (18)
0x670|                                             02|               .|                    opcode: "block" (0x2) 0x67f-0x680 (1)
0x680|7f                                             |.               |                    bt: "i32" (127) 0x680-0x681 (1)
     |                                               |                |                    instructions[0:2]: 0x681-0x690 (15)
     |                                               |                |                      [0]{}: instr 0x681-0x683 (2)
0x680|   41                                          | A              |                        opcode: "i32.const" (0x41) 0x681-0x682 (1)
0x680|      03                                       |  .             |                        n: 3 (valid) 0x682-0x683 (1)
     |                                               |                |                      [1]{}: instr 0x683-0x690 (13)
0x680|         02                                    |   .            |                        opcode: "block" (0x2) 0x683-0x684 (1)
0x680|            40                                 |    @           |                        bt: "ε" (64) 0x684-0x685 (1)
     |                                               |                |                        instructions[0:6]: 0x685-0x68f (10)
     |                                               |                |                          [0]{}: instr 0x685-0x687 (2)
0x680|               42                              |     B          |                            opcode: "i64.const" (0x42) 0x685-0x686 (1)
0x680|                  01                           |      .         |                            n: 1 0x686-0x687 (1)
     |                                               |                |                          [1]{}: instr 0x687-0x689 (2)
0x680|                     41                        |       A        |                            opcode: "i32.const" (0x41) 0x687-0x688 (1)
0x680|                        09                     |        .       |                            n: 9 (valid) 0x688-0x689 (1)
     |                                               |                |                          [2]{}: instr 0x689-0x68b (2)
0x680|                           41                  |         A      |                            opcode: "i32.const" (0x41) 0x689-0x68a (1)
0x680|                              01               |          .     |                            n: 1 (valid) 0x68a-0x68b (1)
     |                                               |                |                          [3]{}: instr 0x68b-0x68d (2)
0x680|                                 0d            |           .    |                            opcode: "br_if" (0xd) 0x68b-0x68c (1)
0x680|                                    01         |            .   |                            l: 1 (valid) 0x68c-0x68d (1)
     |                                               |                |                          [4]{}: instr 0x68d-0x68e (1)
0x680|                                       1a      |             .  |                            opcode: "drop" (0x1a) 0x68d-0x68e (1)
     |                                               |                |                          [5]{}: instr 0x68e-0x68f (1)
0x680|                                          1a   |              . |                            opcode: "drop" (0x1a) 0x68e-0x68f (1)
0x680|                                             0b|               .|                        end: 0xb (valid) 0x68f-0x690 (1)
0x690|0b                                             |.               |                    end: 0xb (valid) 0x690-0x691 (1)
     |                                               |                |                  [1]{}: in 0x691-0x692 (1)
0x690|   0b                                          | .              |                    opcode: "end" (0xb) 0x691-0x692 (1)
     |                                               |                |            [21]{}: code 0x692-0x6a7 (21)
0x690|      14                                       |  .             |              size: 20 (valid) 0x692-0x693 (1)
     |                                               |                |              code{}: 0x693-0x6a7 (20)
     |                                               |                |                t{}: 0x693-0x694 (1)
0x690|         00                                    |   .            |                  n: 0 (valid) 0x693-0x694 (1)
     |                                               |                |                  x[0:0]: 0x694-0x694 (0)
     |                                               |                |                e[0:3]: 0x694-0x6a7 (19)
     |                                               |                |                  [0]{}: in 0x694-0x6a4 (16)
0x690|            02                                 |    .           |                    opcode: "block" (0x2) 0x694-0x695 (1)
0x690|               40                              |     @          |                    bt: "ε" (64) 0x695-0x696 (1)
     |                                               |                |                    instructions[0:3]: 0x696-0x6a3 (13)
     |                                               |                |                      [0]{}: instr 0x696-0x698 (2)
0x690|                  41                           |      A         |                        opcode: "i32.const" (0x41) 0x696-0x697 (1)
0x690|                     03                        |       .        |                        n: 3 (valid) 0x697-0x698 (1)
     |                                               |                |                      [1]{}: instr 0x698-0x6a2 (10)
0x690|                        02                     |        .       |                        opcode: "block" (0x2) 0x698-0x699 (1)
0x690|                           40                  |         @      |                        bt: "ε" (64) 0x699-0x69a (1)
     |                                               |                |                        instructions[0:3]: 0x69a-0x6a1 (7)
     |                                               |                |                          [0]{}: instr 0x69a-0x69c (2)
0x690|                              42               |          B     |                            opcode: "i64.const" (0x42) 0x69a-0x69b (1)
0x690|                                 01            |           .    |                            n: 1 0x69b-0x69c (1)
     |                                               |                |                          [1]{}: instr 0x69c-0x69e (2)
0x690|                                    41         |            A   |                            opcode: "i32.const" (0x41) 0x69c-0x69d (1)
0x690|                                       01      |             .  |                            n: 1 (valid) 0x69d-0x69e (1)
     |                                               |                |                          [2]{}: instr 0x69e-0x6a1 (3)
0x690|                                          0e   |              . |                            opcode: "br_table" (0xe) 0x69e-0x69f (1)
     |                                               |                |                            l{}: 0x69f-0x6a0 (1)
0x690|                                             00|               .|                              n: 0 (valid) 0x69f-0x6a0 (1)
     |                                               |                |                              x[0:0]: 0x6a0-0x6a0 (0)
0x6a0|01                                             |.               |                            lN: 1 (valid) 0x6a0-0x6a1 (1)
0x6a0|   0b                                          | .              |                        end: 0xb (valid) 0x6a1-0x6a2 (1)
     |                                               |                |                      [2]{}: instr 0x6a2-0x6a3 (1)
0x6a0|      1a                                       |  .             |                        opcode: "drop" (0x1a) 0x6a2-0x6a3 (1)
0x6a0|         0b                                    |   .            |                    end: 0xb (valid) 0x6a3-0x6a4 (1)
     |                                               |                |                  [1]{}: in 0x6a4-0x6a6 (2)
0x6a0|            41                                 |    A           |                    opcode: "i32.const" (0x41) 0x6a4-0x6a5 (1)
0x6a0|               09                              |     .          |                    n: 9 (valid) 0x6a5-0x6a6 (1)
     |                                               |                |                  [2]{}: in 0x6a6-0x6a7 (1)
0x6a0|                  0b                           |      .         |                    opcode: "end" (0xb) 0x6a6-0x6a7 (1)
     |                                               |                |            [22]{}: code 0x6a7-0x6bb (20)
0x6a0|                     13                        |       .        |              size: 19 (valid) 0x6a7-0x6a8 (1)
     |                                               |                |              code{}: 0x6a8-0x6bb (19)
     |                                               |                |                t{}: 0x6a8-0x6a9 (1)
0x6a0|                        00                     |        .       |                  n: 0 (valid) 0x6a8-0x6a9 (1)
     |                                               |                |                  x[0:0]: 0x6a9-0x6a9 (0)
     |                                               |                |                e[0:2]: 0x6a9-0x6bb (18)
     |                                               |                |                  [0]{}: in 0x6a9-0x6ba (17)
0x6a0|                           02                  |         .      |                    opcode: "block" (0x2) 0x6a9-0x6aa (1)
0x6a0|                              7f               |          .     |                    bt: "i32" (127) 0x6aa-0x6ab (1)
     |                                               |                |                    instructions[0:2]: 0x6ab-0x6b9 (14)
     |                                               |                |                      [0]{}: instr 0x6ab-0x6ad (2)
0x6a0|                                 41            |           A    |                        opcode: "i32.const" (0x41) 0x6ab-0x6ac (1)
0x6a0|                                    03         |            .   |                        n: 3 (valid) 0x6ac-0x6ad (1)
     |                                               |                |                      [1]{}: instr 0x6ad-0x6b9 (12)
0x6a0|                                       02      |             .  |                        opcode: "block" (0x2) 0x6ad-0x6ae (1)
0x6a0|                                          40   |              @ |                        bt: "ε" (64) 0x6ae-0x6af (1)
     |                                               |                |                        instructions[0:4]: 0x6af-0x6b8 (9)
     |                                               |                |                          [0]{}: instr 0x6af-0x6b1 (2)
0x6a0|                                             42|               B|                            opcode: "i64.const" (0x42) 0x6af-0x6b0 (1)
0x6b0|01                                             |.               |                            n: 1 0x6b0-0x6b1 (1)
     |                                               |                |                          [1]{}: instr 0x6b1-0x6b3 (2)
0x6b0|   41                                          | A              |                            opcode: "i32.const" (0x41) 0x6b1-0x6b2 (1)
0x6b0|      09                                       |  .             |                            n: 9 (valid) 0x6b2-0x6b3 (1)
     |                                               |                |                          [2]{}: instr 0x6b3-0x6b5 (2)
0x6b0|         41                                    |   A            |                            opcode: "i32.const" (0x41) 0x6b3-0x6b4 (1)
0x6b0|            01                                 |    .           |                            n: 1 (valid) 0x6b4-0x6b5 (1)
     |                                               |                |                          [3]{}: instr 0x6b5-0x6b8 (3)
0x6b0|               0e                              |     .          |                            opcode: "br_table" (0xe) 0x6b5-0x6b6 (1)
     |                                               |                |                            l{}: 0x6b6-0x6b7 (1)
0x6b0|                  00                           |      .         |                              n: 0 (valid) 0x6b6-0x6b7 (1)
     |                                               |                |                              x[0:0]: 0x6b7-0x6b7 (0)
0x6b0|                     01                        |       .        |                            lN: 1 (valid) 0x6b7-0x6b8 (1)
0x6b0|                        0b                     |        .       |                        end: 0xb (valid) 0x6b8-0x6b9 (1)
0x6b0|                           0b                  |         .      |                    end: 0xb (valid) 0x6b9-0x6ba (1)
     |                                               |                |                  [1]{}: in 0x6ba-0x6bb (1)
0x6b0|                              0b               |          .     |                    opcode: "end" (0xb) 0x6ba-0x6bb (1)
     |                                               |                |            [23]{}: code 0x6bb-0x6cb (16)
0x6b0|                                 0f            |           .    |              size: 15 (valid) 0x6bb-0x6bc (1)
     |                                               |                |              code{}: 0x6bc-0x6cb (15)
     |                                               |                |                t{}: 0x6bc-0x6bd (1)
0x6b0|                                    00         |            .   |                  n: 0 (valid) 0x6bc-0x6bd (1)
     |                                               |                |                  x[0:0]: 0x6bd-0x6bd (0)
     |                                               |                |                e[0:2]: 0x6bd-0x6cb (14)
     |                                               |                |                  [0]{}: in 0x6bd-0x6ca (13)
0x6b0|                                       02      |             .  |                    opcode: "block" (0x2) 0x6bd-0x6be (1)
0x6b0|                                          7f   |              . |                    bt: "i32" (127) 0x6be-0x6bf (1)
     |                                               |                |                    instructions[0:2]: 0x6bf-0x6c9 (10)
     |                                               |                |                      [0]{}: instr 0x6bf-0x6c1 (2)
0x6b0|                                             41|               A|                        opcode: "i32.const" (0x41) 0x6bf-0x6c0 (1)
0x6c0|03                                             |.               |                        n: 3 (valid) 0x6c0-0x6c1 (1)
     |                                               |                |                      [1]{}: instr 0x6c1-0x6c9 (8)
0x6c0|   02                                          | .              |                        opcode: "block" (0x2) 0x6c1-0x6c2 (1)
0x6c0|      40                                       |  @             |                        bt: "ε" (64) 0x6c2-0x6c3 (1)
     |                                               |                |                        instructions[0:3]: 0x6c3-0x6c8 (5)
     |                                               |                |                          [0]{}: instr 0x6c3-0x6c5 (2)
0x6c0|         42                                    |   B            |                            opcode: "i64.const" (0x42) 0x6c3-0x6c4 (1)
0x6c0|            01                                 |    .           |                            n: 1 0x6c4-0x6c5 (1)
     |                                               |                |                          [1]{}: instr 0x6c5-0x6c7 (2)
0x6c0|               41                              |     A          |                            opcode: "i32.const" (0x41) 0x6c5-0x6c6 (1)
0x6c0|                  09                           |      .         |                            n: 9 (valid) 0x6c6-0x6c7 (1)
     |                                               |                |                          [2]{}: instr 0x6c7-0x6c8 (1)
0x6c0|                     0f                        |       .        |                            opcode: "return" (0xf) 0x6c7-0x6c8 (1)
0x6c0|                        0b                     |        .       |                        end: 0xb (valid) 0x6c8-0x6c9 (1)
0x6c0|                           0b                  |         .      |                    end: 0xb (valid) 0x6c9-0x6ca (1)
     |                                               |                |                  [1]{}: in 0x6ca-0x6cb (1)
0x6c0|                              0b               |          .     |                    opcode: "end" (0xb) 0x6ca-0x6cb (1)
     |                                               |                |            [24]{}: code 0x6cb-0x6d5 (10)
0x6c0|                                 09            |           .    |              size: 9 (valid) 0x6cb-0x6cc (1)
     |                                               |                |              code{}: 0x6cc-0x6d5 (9)
     |                                               |                |                t{}: 0x6cc-0x6cd (1)
0x6c0|                                    00         |            .   |                  n: 0 (valid) 0x6cc-0x6cd (1)
     |                                               |                |                  x[0:0]: 0x6cd-0x6cd (0)
     |                                               |                |                e[0:4]: 0x6cd-0x6d5 (8)
     |                                               |                |                  [0]{}: in 0x6cd-0x6d2 (5)
0x6c0|                                       43      |             C  |                    opcode: "f32.const" (0x43) 0x6cd-0x6ce (1)
0x6c0|                                          00 00|              ..|                    z: 0 0x6ce-0x6d2 (4)
0x6d0|00 00                                          |..              |
     |                                               |                |                  [1]{}: in 0x6d2-0x6d3 (1)
0x6d0|      00                                       |  .             |                    opcode: "unreachable" (0x0) 0x6d2-0x6d3 (1)
     |                                               |                |                  [2]{}: in 0x6d3-0x6d4 (1)
0x6d0|         50                                    |   P            |                    opcode: "i64.eqz" (0x50) 0x6d3-0x6d4 (1)
     |                                               |                |                  [3]{}: in 0x6d4-0x6d5 (1)
0x6d0|            0b                                 |    .           |                    opcode: "end" (0xb) 0x6d4-0x6d5 (1)
     |                                               |                |            [25]{}: code 0x6d5-0x6e5 (16)
0x6d0|               0f                              |     .          |              size: 15 (valid) 0x6d5-0x6d6 (1)
     |                                               |                |              code{}: 0x6d6-0x6e5 (15)
     |                                               |                |                t{}: 0x6d6-0x6d7 (1)
0x6d0|                  00                           |      .         |                  n: 0 (valid) 0x6d6-0x6d7 (1)
     |                                               |                |                  x[0:0]: 0x6d7-0x6d7 (0)
     |                                               |                |                e[0:2]: 0x6d7-0x6e5 (14)
     |                                               |                |                  [0]{}: in 0x6d7-0x6e4 (13)
0x6d0|                     02                        |       .        |                    opcode: "block" (0x2) 0x6d7-0x6d8 (1)
0x6d0|                        7f                     |        .       |                    bt: "i32" (127) 0x6d8-0x6d9 (1)
     |                                               |                |                    instructions[0:4]: 0x6d9-0x6e3 (10)
     |                                               |                |                      [0]{}: instr 0x6d9-0x6de (5)
0x6d0|                           43                  |         C      |                        opcode: "f32.const" (0x43) 0x6d9-0x6da (1)
0x6d0|                              00 00 00 00      |          ....  |                        z: 0 0x6da-0x6de (4)
     |                                               |                |                      [1]{}: instr 0x6de-0x6e0 (2)
0x6d0|                                          41   |              A |                        opcode: "i32.const" (0x41) 0x6de-0x6df (1)
0x6d0|                                             09|               .|                        n: 9 (valid) 0x6df-0x6e0 (1)
     |                                               |                |                      [2]{}: instr 0x6e0-0x6e2 (2)
0x6e0|0c                                             |.               |                        opcode: "br" (0xc) 0x6e0-0x6e1 (1)
0x6e0|   00                                          | .              |                        l: 0 (valid) 0x6e1-0x6e2 (1)
     |                                               |                |                      [3]{}: instr 0x6e2-0x6e3 (1)
0x6e0|      50                                       |  P             |                        opcode: "i64.eqz" (0x50) 0x6e2-0x6e3 (1)
0x6e0|         0b                                    |   .            |                    end: 0xb (valid) 0x6e3-0x6e4 (1)
     |                                               |                |                  [1]{}: in 0x6e4-0x6e5 (1)
0x6e0|            0b                                 |    .           |                    opcode: "end" (0xb) 0x6e4-0x6e5 (1)
     |                                               |                |            [26]{}: code 0x6e5-0x6f5 (16)
0x6e0|               0f                              |     .          |              size: 15 (valid) 0x6e5-0x6e6 (1)
     |                                               |                |              code{}: 0x6e6-0x6f5 (15)
     |                                               |                |                t{}: 0x6e6-0x6e7 (1)
0x6e0|                  00                           |      .         |                  n: 0 (valid) 0x6e6-0x6e7 (1)
     |                                               |                |                  x[0:0]: 0x6e7-0x6e7 (0)
     |                                               |                |                e[0:2]: 0x6e7-0x6f5 (14)
     |                                               |                |                  [0]{}: in 0x6e7-0x6f4 (13)
0x6e0|                     02                        |       .        |                    opcode: "block" (0x2) 0x6e7-0x6e8 (1)
0x6e0|                        7f                     |        .       |                    bt: "i32" (127) 0x6e8-0x6e9 (1)
     |                                               |                |                    instructions[0:6]: 0x6e9-0x6f3 (10)
     |                                               |                |                      [0]{}: instr 0x6e9-0x6eb (2)
0x6e0|                           42                  |         B      |                        opcode: "i64.const" (0x42) 0x6e9-0x6ea (1)
0x6e0|                              00               |          .     |                        n: 0 0x6ea-0x6eb (1)
     |                                               |                |                      [1]{}: instr 0x6eb-0x6ed (2)
0x6e0|                                 41            |           A    |                        opcode: "i32.const" (0x41) 0x6eb-0x6ec (1)
0x6e0|                                    09         |            .   |                        n: 9 (valid) 0x6ec-0x6ed (1)
     |                                               |                |                      [2]{}: instr 0x6ed-0x6ef (2)
0x6e0|                                       41      |             A  |                        opcode: "i32.const" (0x41) 0x6ed-0x6ee (1)
0x6e0|                                          01   |              . |                        n: 1 (valid) 0x6ee-0x6ef (1)
     |                                               |                |                      [3]{}: instr 0x6ef-0x6f1 (2)
0x6e0|                                             0d|               .|                        opcode: "br_if" (0xd) 0x6ef-0x6f0 (1)
0x6f0|00                                             |.               |                        l: 0 (valid) 0x6f0-0x6f1 (1)
     |                                               |                |                      [4]{}: instr 0x6f1-0x6f2 (1)
0x6f0|   1a                                          | .              |                        opcode: "drop" (0x1a) 0x6f1-0x6f2 (1)
     |                                               |                |                      [5]{}: instr 0x6f2-0x6f3 (1)
0x6f0|      50                                       |  P             |                        opcode: "i64.eqz" (0x50) 0x6f2-0x6f3 (1)
0x6f0|         0b                                    |   .            |                    end: 0xb (valid) 0x6f3-0x6f4 (1)
     |                                               |                |                  [1]{}: in 0x6f4-0x6f5 (1)
0x6f0|            0b                                 |    .           |                    opcode: "end" (0xb) 0x6f4-0x6f5 (1)
     |                                               |                |            [27]{}: code 0x6f5-0x709 (20)
0x6f0|               13                              |     .          |              size: 19 (valid) 0x6f5-0x6f6 (1)
     |                                               |                |              code{}: 0x6f6-0x709 (19)
     |                                               |                |                t{}: 0x6f6-0x6f7 (1)
0x6f0|                  00                           |      .         |                  n: 0 (valid) 0x6f6-0x6f7 (1)
     |                                               |                |                  x[0:0]: 0x6f7-0x6f7 (0)
     |                                               |                |                e[0:2]: 0x6f7-0x709 (18)
     |                                               |                |                  [0]{}: in 0x6f7-0x708 (17)
0x6f0|                     02                        |       .        |                    opcode: "block" (0x2) 0x6f7-0x6f8 (1)
0x6f0|                        7f                     |        .       |                    bt: "i32" (127) 0x6f8-0x6f9 (1)
     |                                               |                |                    instructions[0:5]: 0x6f9-0x707 (14)
     |                                               |                |                      [0]{}: instr 0x6f9-0x6fe (5)
0x6f0|                           43                  |         C      |                        opcode: "f32.const" (0x43) 0x6f9-0x6fa (1)
0x6f0|                              00 00 00 00      |          ....  |                        z: 0 0x6fa-0x6fe (4)
     |                                               |                |                      [1]{}: instr 0x6fe-0x700 (2)
0x6f0|                                          41   |              A |                        opcode: "i32.const" (0x41) 0x6fe-0x6ff (1)
0x6f0|                                             09|               .|                        n: 9 (valid) 0x6ff-0x700 (1)
     |                                               |                |                      [2]{}: instr 0x700-0x702 (2)
0x700|41                                             |A               |                        opcode: "i32.const" (0x41) 0x700-0x701 (1)
0x700|   00                                          | .              |                        n: 0 (valid) 0x701-0x702 (1)
     |                                               |                |                      [3]{}: instr 0x702-0x706 (4)
0x700|      0e                                       |  .             |                        opcode: "br_table" (0xe) 0x702-0x703 (1)
     |                                               |                |                        l{}: 0x703-0x705 (2)
0x700|         01                                    |   .            |                          n: 1 (valid) 0x703-0x704 (1)
     |                                               |                |                          x[0:1]: 0x704-0x705 (1)
0x700|            00                                 |    .           |                            [0]: 0 l (valid) 0x704-0x705 (1)
0x700|               00                              |     .          |                        lN: 0 (valid) 0x705-0x706 (1)
     |                                               |                |                      [4]{}: instr 0x706-0x707 (1)
0x700|                  50                           |      P         |                        opcode: "i64.eqz" (0x50) 0x706-0x707 (1)
0x700|                     0b                        |       .        |                    end: 0xb (valid) 0x707-0x708 (1)
     |                                               |                |                  [1]{}: in 0x708-0x709 (1)
0x700|                        0b                     |        .       |                    opcode: "end" (0xb) 0x708-0x709 (1)
     |                                               |                |            [28]{}: code 0x709-0x715 (12)
0x700|                           0b                  |         .      |              size: 11 (valid) 0x709-0x70a (1)
     |                                               |                |              code{}: 0x70a-0x715 (11)
     |                                               |                |                t{}: 0x70a-0x70b (1)
0x700|                              00               |          .     |                  n: 0 (valid) 0x70a-0x70b (1)
     |                                               |                |                  x[0:0]: 0x70b-0x70b (0)
     |                                               |                |                e[0:5]: 0x70b-0x715 (10)
     |                                               |                |                  [0]{}: in 0x70b-0x710 (5)
0x700|                                 43            |           C    |                    opcode: "f32.const" (0x43) 0x70b-0x70c (1)
0x700|                                    00 00 00 00|            ....|                    z: 0 0x70c-0x710 (4)
     |                                               |                |                  [1]{}: in 0x710-0x712 (2)
0x710|41                                             |A               |                    opcode: "i32.const" (0x41) 0x710-0x711 (1)
0x710|   09                                          | .              |                    n: 9 (valid) 0x711-0x712 (1)
     |                                               |                |                  [2]{}: in 0x712-0x713 (1)
0x710|      0f                                       |  .             |                    opcode: "return" (0xf) 0x712-0x713 (1)
     |                                               |                |                  [3]{}: in 0x713-0x714 (1)
0x710|         50                                    |   P            |                    opcode: "i64.eqz" (0x50) 0x713-0x714 (1)
     |                                               |                |                  [4]{}: in 0x714-0x715 (1)
0x710|            0b                                 |    .           |                    opcode: "end" (0xb) 0x714-0x715 (1)
     |                                               |                |            [29]{}: code 0x715-0x728 (19)
0x710|               12                              |     .          |              size: 18 (valid) 0x715-0x716 (1)
     |                                               |                |              code{}: 0x716-0x728 (18)
     |                                               |                |                t{}: 0x716-0x717 (1)
0x710|                  00                           |      .         |                  n: 0 (valid) 0x716-0x717 (1)
     |                                               |                |                  x[0:0]: 0x717-0x717 (0)
     |                                               |                |                e[0:5]: 0x717-0x728 (17)
     |                                               |                |                  [0]{}: in 0x717-0x71c (5)
0x710|                     43                        |       C        |                    opcode: "f32.const" (0x43) 0x717-0x718 (1)
0x710|                        00 00 00 00            |        ....    |                    z: 0 0x718-0x71c (4)
     |                                               |                |                  [1]{}: in 0x71c-0x725 (9)
0x710|                                    44         |            D   |                    opcode: "f64.const" (0x44) 0x71c-0x71d (1)
0x710|                                       00 00 00|             ...|                    z: 1 0x71d-0x725 (8)
0x720|00 00 00 f0 3f                                 |....?           |
     |                                               |                |                  [2]{}: in 0x725-0x726 (1)
0x720|               00                              |     .          |                    opcode: "unreachable" (0x0) 0x725-0x726 (1)
     |                                               |                |                  [3]{}: in 0x726-0x727 (1)
0x720|                  51                           |      Q         |                    opcode: "i64.eq" (0x51) 0x726-0x727 (1)
     |                                               |                |                  [4]{}: in 0x727-0x728 (1)
0x720|                     0b                        |       .        |                    opcode: "end" (0xb) 0x727-0x728 (1)
     |                                               |                |            [30]{}: code 0x728-0x741 (25)
0x720|                        18                     |        .       |              size: 24 (valid) 0x728-0x729 (1)
     |                                               |                |              code{}: 0x729-0x741 (24)
     |                                               |                |                t{}: 0x729-0x72a (1)
0x720|                           00                  |         .      |                  n: 0 (valid) 0x729-0x72a (1)
     |                                               |                |                  x[0:0]: 0x72a-0x72a (0)
     |                                               |                |                e[0:2]: 0x72a-0x741 (23)
     |                                               |                |                  [0]{}: in 0x72a-0x740 (22)
0x720|                              02               |          .     |                    opcode: "block" (0x2) 0x72a-0x72b (1)
0x720|                                 7f            |           .    |                    bt: "i32" (127) 0x72b-0x72c (1)
     |                                               |                |                    instructions[0:5]: 0x72c-0x73f (19)
     |                                               |                |                      [0]{}: instr 0x72c-0x731 (5)
0x720|                                    43         |            C   |                        opcode: "f32.const" (0x43) 0x72c-0x72d (1)
0x720|                                       00 00 00|             ...|                        z: 0 0x72d-0x731 (4)
0x730|00                                             |.               |
     |                                               |                |                      [1]{}: instr 0x731-0x73a (9)
0x730|   44                                          | D              |                        opcode: "f64.const" (0x44) 0x731-0x732 (1)
0x730|      00 00 00 00 00 00 f0 3f                  |  .......?      |                        z: 1 0x732-0x73a (8)
     |                                               |                |                      [2]{}: instr 0x73a-0x73c (2)
0x730|                              41               |          A     |                        opcode: "i32.const" (0x41) 0x73a-0x73b (1)
0x730|                                 09            |           .    |                        n: 9 (valid) 0x73b-0x73c (1)
     |                                               |                |                      [3]{}: instr 0x73c-0x73e (2)
0x730|                                    0c         |            .   |                        opcode: "br" (0xc) 0x73c-0x73d (1)
0x730|                                       00      |             .  |                        l: 0 (valid) 0x73d-0x73e (1)
     |                                               |                |                      [4]{}: instr 0x73e-0x73f (1)
0x730|                                          51   |              Q |                        opcode: "i64.eq" (0x51) 0x73e-0x73f (1)
0x730|                                             0b|               .|                    end: 0xb (valid) 0x73f-0x740 (1)
     |                                               |                |                  [1]{}: in 0x740-0x741 (1)
0x740|0b                                             |.               |                    opcode: "end" (0xb) 0x740-0x741 (1)
     |                                               |                |            [31]{}: code 0x741-0x753 (18)
0x740|   11                                          | .              |              size: 17 (valid) 0x741-0x742 (1)
     |                                               |                |              code{}: 0x742-0x753 (17)
     |                                               |                |                t{}: 0x742-0x743 (1)
0x740|      00                                       |  .             |                  n: 0 (valid) 0x742-0x743 (1)
     |                                               |                |                  x[0:0]: 0x743-0x743 (0)
     |                                               |                |                e[0:2]: 0x743-0x753 (16)
     |                                               |                |                  [0]{}: in 0x743-0x752 (15)
0x740|         02                                    |   .            |                    opcode: "block" (0x2) 0x743-0x744 (1)
0x740|            7f                                 |    .           |                    bt: "i32" (127) 0x744-0x745 (1)
     |                                               |                |                    instructions[0:7]: 0x745-0x751 (12)
     |                                               |                |                      [0]{}: instr 0x745-0x747 (2)
0x740|               42                              |     B          |                        opcode: "i64.const" (0x42) 0x745-0x746 (1)
0x740|                  00                           |      .         |                        n: 0 0x746-0x747 (1)
     |                                               |                |                      [1]{}: instr 0x747-0x749 (2)
0x740|                     42                        |       B        |                        opcode: "i64.const" (0x42) 0x747-0x748 (1)
0x740|                        01                     |        .       |                        n: 1 0x748-0x749 (1)
     |                                               |                |                      [2]{}: instr 0x749-0x74b (2)
0x740|                           41                  |         A      |                        opcode: "i32.const" (0x41) 0x749-0x74a (1)
0x740|                              09               |          .     |                        n: 9 (valid) 0x74a-0x74b (1)
     |                                               |                |                      [3]{}: instr 0x74b-0x74d (2)
0x740|                                 41            |           A    |                        opcode: "i32.const" (0x41) 0x74b-0x74c (1)
0x740|                                    01         |            .   |                        n: 1 (valid) 0x74c-0x74d (1)
     |                                               |                |                      [4]{}: instr 0x74d-0x74f (2)
0x740|                                       0d      |             .  |                        opcode: "br_if" (0xd) 0x74d-0x74e (1)
0x740|                                          00   |              . |                        l: 0 (valid) 0x74e-0x74f (1)
     |                                               |                |                      [5]{}: instr 0x74f-0x750 (1)
0x740|                                             1a|               .|                        opcode: "drop" (0x1a) 0x74f-0x750 (1)
     |                                               |                |                      [6]{}: instr 0x750-0x751 (1)
0x750|51                                             |Q               |                        opcode: "i64.eq" (0x51) 0x750-0x751 (1)
0x750|   0b                                          | .              |                    end: 0xb (valid) 0x751-0x752 (1)
     |                                               |                |                  [1]{}: in 0x752-0x753 (1)
0x750|      0b                                       |  .             |                    opcode: "end" (0xb) 0x752-0x753 (1)
     |                                               |                |            [32]{}: code 0x753-0x76f (28)
0x750|         1b                                    |   .            |              size: 27 (valid) 0x753-0x754 (1)
     |                                               |                |              code{}: 0x754-0x76f (27)
     |                                               |                |                t{}: 0x754-0x755 (1)
0x750|            00                                 |    .           |                  n: 0 (valid) 0x754-0x755 (1)
     |                                               |                |                  x[0:0]: 0x755-0x755 (0)
     |                                               |                |                e[0:2]: 0x755-0x76f (26)
     |                                               |                |                  [0]{}: in 0x755-0x76e (25)
0x750|               02                              |     .          |                    opcode: "block" (0x2) 0x755-0x756 (1)
0x750|                  7f                           |      .         |                    bt: "i32" (127) 0x756-0x757 (1)
     |                                               |                |                    instructions[0:6]: 0x757-0x76d (22)
     |                                               |                |                      [0]{}: instr 0x757-0x75c (5)
0x750|                     43                        |       C        |                        opcode: "f32.const" (0x43) 0x757-0x758 (1)
0x750|                        00 00 00 00            |        ....    |                        z: 0 0x758-0x75c (4)
     |                                               |                |                      [1]{}: instr 0x75c-0x765 (9)
0x750|                                    44         |            D   |                        opcode: "f64.const" (0x44) 0x75c-0x75d (1)
0x750|                                       00 00 00|             ...|                        z: 1 0x75d-0x765 (8)
0x760|00 00 00 f0 3f                                 |....?           |
     |                                               |                |                      [2]{}: instr 0x765-0x767 (2)
0x760|               41                              |     A          |                        opcode: "i32.const" (0x41) 0x765-0x766 (1)
0x760|                  09                           |      .         |                        n: 9 (valid) 0x766-0x767 (1)
     |                                               |                |                      [3]{}: instr 0x767-0x769 (2)
0x760|                     41                        |       A        |                        opcode: "i32.const" (0x41) 0x767-0x768 (1)
0x760|                        00                     |        .       |                        n: 0 (valid) 0x768-0x769 (1)
     |                                               |                |                      [4]{}: instr 0x769-0x76c (3)
0x760|                           0e                  |         .      |                        opcode: "br_table" (0xe) 0x769-0x76a (1)
     |                                               |                |                        l{}: 0x76a-0x76b (1)
0x760|                              00               |          .     |                          n: 0 (valid) 0x76a-0x76b (1)
     |                                               |                |                          x[0:0]: 0x76b-0x76b (0)
0x760|                                 00            |           .    |                        lN: 0 (valid) 0x76b-0x76c (1)
     |                                               |                |                      [5]{}: instr 0x76c-0x76d (1)
0x760|                                    51         |            Q   |                        opcode: "i64.eq" (0x51) 0x76c-0x76d (1)
0x760|                                       0b      |             .  |                    end: 0xb (valid) 0x76d-0x76e (1)
     |                                               |                |                  [1]{}: in 0x76e-0x76f (1)
0x760|                                          0b   |              . |                    opcode: "end" (0xb) 0x76e-0x76f (1)
     |                                               |                |            [33]{}: code 0x76f-0x784 (21)
0x760|                                             14|               .|              size: 20 (valid) 0x76f-0x770 (1)
     |                                               |                |              code{}: 0x770-0x784 (20)
     |                                               |                |                t{}: 0x770-0x771 (1)
0x770|00                                             |.               |                  n: 0 (valid) 0x770-0x771 (1)
     |                                               |                |                  x[0:0]: 0x771-0x771 (0)
     |                                               |                |                e[0:6]: 0x771-0x784 (19)
     |                                               |                |                  [0]{}: in 0x771-0x776 (5)
0x770|   43                                          | C              |                    opcode: "f32.const" (0x43) 0x771-0x772 (1)
0x770|      00 00 00 00                              |  ....          |                    z: 0 0x772-0x776 (4)
     |                                               |                |                  [1]{}: in 0x776-0x77f (9)
0x770|                  44                           |      D         |                    opcode: "f64.const" (0x44) 0x776-0x777 (1)
0x770|                     00 00 00 00 00 00 f0 3f   |       .......? |                    z: 1 0x777-0x77f (8)
     |                                               |                |                  [2]{}: in 0x77f-0x781 (2)
0x770|                                             41|               A|                    opcode: "i32.const" (0x41) 0x77f-0x780 (1)
0x780|09                                             |.               |                    n: 9 (valid) 0x780-0x781 (1)
     |                                               |                |                  [3]{}: in 0x781-0x782 (1)
0x780|   0f                                          | .              |                    opcode: "return" (0xf) 0x781-0x782 (1)
     |                                               |                |                  [4]{}: in 0x782-0x783 (1)
0x780|      51                                       |  Q             |                    opcode: "i64.eq" (0x51) 0x782-0x783 (1)
     |                                               |                |                  [5]{}: in 0x783-0x784 (1)
0x780|         0b                                    |   .            |                    opcode: "end" (0xb) 0x783-0x784 (1)
     |                                               |                |            [34]{}: code 0x784-0x799 (21)
0x780|            14                                 |    .           |              size: 20 (valid) 0x784-0x785 (1)
     |                                               |                |              code{}: 0x785-0x799 (20)
     |                                               |                |                t{}: 0x785-0x786 (1)
0x780|               00                              |     .          |                  n: 0 (valid) 0x785-0x786 (1)
     |                                               |                |                  x[0:0]: 0x786-0x786 (0)
     |                                               |                |                e[0:6]: 0x786-0x799 (19)
     |                                               |                |                  [0]{}: in 0x786-0x78b (5)
0x780|                  43                           |      C         |                    opcode: "f32.const" (0x43) 0x786-0x787 (1)
0x780|                     00 00 00 00               |       ....     |                    z: 0 0x787-0x78b (4)
     |                                               |                |                  [1]{}: in 0x78b-0x794 (9)
0x780|                                 44            |           D    |                    opcode: "f64.const" (0x44) 0x78b-0x78c (1)
0x780|                                    00 00 00 00|            ....|                    z: 1 0x78c-0x794 (8)
0x790|00 00 f0 3f                                    |...?            |
     |                                               |                |                  [2]{}: in 0x794-0x796 (2)
0x790|            42                                 |    B           |                    opcode: "i64.const" (0x42) 0x794-0x795 (1)
0x790|               00                              |     .          |                    n: 0 0x795-0x796 (1)
     |                                               |                |                  [3]{}: in 0x796-0x797 (1)
0x790|                  00                           |      .         |                    opcode: "unreachable" (0x0) 0x796-0x797 (1)
     |                                               |                |                  [4]{}: in 0x797-0x798 (1)
0x790|                     1b                        |       .        |                    opcode: "select" (0x1b) 0x797-0x798 (1)
     |                                               |                |                  [5]{}: in 0x798-0x799 (1)
0x790|                        0b                     |        .       |                    opcode: "end" (0xb) 0x798-0x799 (1)
     |                                               |                |            [35]{}: code 0x799-0x7b4 (27)
0x790|                           1a                  |         .      |              size: 26 (valid) 0x799-0x79a (1)
     |                                               |                |              code{}: 0x79a-0x7b4 (26)
     |                                               |                |                t{}: 0x79a-0x79b (1)
0x790|                              00               |          .     |                  n: 0 (valid) 0x79a-0x79b (1)
     |                                               |                |                  x[0:0]: 0x79b-0x79b (0)
     |                                               |                |                e[0:2]: 0x79b-0x7b4 (25)
     |                                               |                |                  [0]{}: in 0x79b-0x7b3 (24)
0x790|                                 02            |           .    |                    opcode: "block" (0x2) 0x79b-0x79c (1)
0x790|                                    7f         |            .   |                    bt: "i32" (127) 0x79c-0x79d (1)
     |                                               |                |                    instructions[0:6]: 0x79d-0x7b2 (21)
     |                                               |                |                      [0]{}: instr 0x79d-0x7a2 (5)
0x790|                                       43      |             C  |                        opcode: "f32.const" (0x43) 0x79d-0x79e (1)
0x790|                                          00 00|              ..|                        z: 0 0x79e-0x7a2 (4)
0x7a0|00 00                                          |..              |
     |                                               |                |                      [1]{}: instr 0x7a2-0x7ab (9)
0x7a0|      44                                       |  D             |                        opcode: "f64.const" (0x44) 0x7a2-0x7a3 (1)
0x7a0|         00 00 00 00 00 00 f0 3f               |   .......?     |                        z: 1 0x7a3-0x7ab (8)
     |                                               |                |                      [2]{}: instr 0x7ab-0x7ad (2)
0x7a0|                                 42            |           B    |                        opcode: "i64.const" (0x42) 0x7ab-0x7ac (1)
0x7a0|                                    00         |            .   |                        n: 0 0x7ac-0x7ad (1)
     |                                               |                |                      [3]{}: instr 0x7ad-0x7af (2)
0x7a0|                                       41      |             A  |                        opcode: "i32.const" (0x41) 0x7ad-0x7ae (1)
0x7a0|                                          09   |              . |                        n: 9 (valid) 0x7ae-0x7af (1)
     |                                               |                |                      [4]{}: instr 0x7af-0x7b1 (2)
0x7a0|                                             0c|               .|                        opcode: "br" (0xc) 0x7af-0x7b0 (1)
0x7b0|00                                             |.               |                        l: 0 (valid) 0x7b0-0x7b1 (1)
     |                                               |                |                      [5]{}: instr 0x7b1-0x7b2 (1)
0x7b0|   1b                                          | .              |                        opcode: "select" (0x1b) 0x7b1-0x7b2 (1)
0x7b0|      0b                                       |  .             |                    end: 0xb (valid) 0x7b2-0x7b3 (1)
     |                                               |                |                  [1]{}: in 0x7b3-0x7b4 (1)
0x7b0|         0b                                    |   .            |                    opcode: "end" (0xb) 0x7b3-0x7b4 (1)
     |                                               |                |            [36]{}: code 0x7b4-0x7c8 (20)
0x7b0|            13                                 |    .           |              size: 19 (valid) 0x7b4-0x7b5 (1)
     |                                               |                |              code{}: 0x7b5-0x7c8 (19)
     |                                               |                |                t{}: 0x7b5-0x7b6 (1)
0x7b0|               00                              |     .          |                  n: 0 (valid) 0x7b5-0x7b6 (1)
     |                                               |                |                  x[0:0]: 0x7b6-0x7b6 (0)
     |                                               |                |                e[0:2]: 0x7b6-0x7c8 (18)
     |                                               |                |                  [0]{}: in 0x7b6-0x7c7 (17)
0x7b0|                  02                           |      .         |                    opcode: "block" (0x2) 0x7b6-0x7b7 (1)
0x7b0|                     7f                        |       .        |                    bt: "i32" (127) 0x7b7-0x7b8 (1)
     |                                               |                |                    instructions[0:8]: 0x7b8-0x7c6 (14)
     |                                               |                |                      [0]{}: instr 0x7b8-0x7ba (2)
0x7b0|                        41                     |        A       |                        opcode: "i32.const" (0x41) 0x7b8-0x7b9 (1)
0x7b0|                           00                  |         .      |                        n: 0 (valid) 0x7b9-0x7ba (1)
     |                                               |                |                      [1]{}: instr 0x7ba-0x7bc (2)
0x7b0|                              41               |          A     |                        opcode: "i32.const" (0x41) 0x7ba-0x7bb (1)
0x7b0|                                 01            |           .    |                        n: 1 (valid) 0x7bb-0x7bc (1)
     |                                               |                |                      [2]{}: instr 0x7bc-0x7be (2)
0x7b0|                                    41         |            A   |                        opcode: "i32.const" (0x41) 0x7bc-0x7bd (1)
0x7b0|                                       00      |             .  |                        n: 0 (valid) 0x7bd-0x7be (1)
     |                                               |                |                      [3]{}: instr 0x7be-0x7c0 (2)
0x7b0|                                          41   |              A |                        opcode: "i32.const" (0x41) 0x7be-0x7bf (1)
0x7b0|                                             09|               .|                        n: 9 (valid) 0x7bf-0x7c0 (1)
     |                                               |                |                      [4]{}: instr 0x7c0-0x7c2 (2)
0x7c0|41                                             |A               |                        opcode: "i32.const" (0x41) 0x7c0-0x7c1 (1)
0x7c0|   01                                          | .              |                        n: 1 (valid) 0x7c1-0x7c2 (1)
     |                                               |                |                      [5]{}: instr 0x7c2-0x7c4 (2)
0x7c0|      0d                                       |  .             |                        opcode: "br_if" (0xd) 0x7c2-0x7c3 (1)
0x7c0|         00                                    |   .            |                        l: 0 (valid) 0x7c3-0x7c4 (1)
     |                                               |                |                      [6]{}: instr 0x7c4-0x7c5 (1)
0x7c0|            1a                                 |    .           |                        opcode: "drop" (0x1a) 0x7c4-0x7c5 (1)
     |                                               |                |                      [7]{}: instr 0x7c5-0x7c6 (1)
0x7c0|               1b                              |     .          |                        opcode: "select" (0x1b) 0x7c5-0x7c6 (1)
0x7c0|                  0b                           |      .         |                    end: 0xb (valid) 0x7c6-0x7c7 (1)
     |                                               |                |                  [1]{}: in 0x7c7-0x7c8 (1)
0x7c0|                     0b                        |       .        |                    opcode: "end" (0xb) 0x7c7-0x7c8 (1)
     |                                               |                |            [37]{}: code 0x7c8-0x7e6 (30)
0x7c0|                        1d                     |        .       |              size: 29 (valid) 0x7c8-0x7c9 (1)
     |                                               |                |              code{}: 0x7c9-0x7e6 (29)
     |                                               |                |                t{}: 0x7c9-0x7ca (1)
0x7c0|                           00                  |         .      |                  n: 0 (valid) 0x7c9-0x7ca (1)
     |                                               |                |                  x[0:0]: 0x7ca-0x7ca (0)
     |                                               |                |                e[0:2]: 0x7ca-0x7e6 (28)
     |                                               |                |                  [0]{}: in 0x7ca-0x7e5 (27)
0x7c0|                              02               |          .     |                    opcode: "block" (0x2) 0x7ca-0x7cb (1)
0x7c0|                                 7f            |           .    |                    bt: "i32" (127) 0x7cb-0x7cc (1)
     |                                               |                |                    instructions[0:7]: 0x7cc-0x7e4 (24)
     |                                               |                |                      [0]{}: instr 0x7cc-0x7d1 (5)
0x7c0|                                    43         |            C   |                        opcode: "f32.const" (0x43) 0x7cc-0x7cd (1)
0x7c0|                                       00 00 00|             ...|                        z: 0 0x7cd-0x7d1 (4)
0x7d0|00                                             |.               |
     |                                               |                |                      [1]{}: instr 0x7d1-0x7da (9)
0x7d0|   44                                          | D              |                        opcode: "f64.const" (0x44) 0x7d1-0x7d2 (1)
0x7d0|      00 00 00 00 00 00 f0 3f                  |  .......?      |                        z: 1 0x7d2-0x7da (8)
     |                                               |                |                      [2]{}: instr 0x7da-0x7dc (2)
0x7d0|                              42               |          B     |                        opcode: "i64.const" (0x42) 0x7da-0x7db (1)
0x7d0|                                 00            |           .    |                        n: 0 0x7db-0x7dc (1)
     |                                               |                |                      [3]{}: instr 0x7dc-0x7de (2)
0x7d0|                                    41         |            A   |                        opcode: "i32.const" (0x41) 0x7dc-0x7dd (1)
0x7d0|                                       09      |             .  |                        n: 9 (valid) 0x7dd-0x7de (1)
     |                                               |                |                      [4]{}: instr 0x7de-0x7e0 (2)
0x7d0|                                          41   |              A |                        opcode: "i32.const" (0x41) 0x7de-0x7df (1)
0x7d0|                                             00|               .|                        n: 0 (valid) 0x7df-0x7e0 (1)
     |                                               |                |                      [5]{}: instr 0x7e0-0x7e3 (3)
0x7e0|0e                                             |.               |                        opcode: "br_table" (0xe) 0x7e0-0x7e1 (1)
     |                                               |                |                        l{}: 0x7e1-0x7e2 (1)
0x7e0|   00                                          | .              |                          n: 0 (valid) 0x7e1-0x7e2 (1)
     |                                               |                |                          x[0:0]: 0x7e2-0x7e2 (0)
0x7e0|      00                                       |  .             |                        lN: 0 (valid) 0x7e2-0x7e3 (1)
     |                                               |                |                      [6]{}: instr 0x7e3-0x7e4 (1)
0x7e0|         1b                                    |   .            |                        opcode: "select" (0x1b) 0x7e3-0x7e4 (1)
0x7e0|            0b                                 |    .           |                    end: 0xb (valid) 0x7e4-0x7e5 (1)
     |                                               |                |                  [1]{}: in 0x7e5-0x7e6 (1)
0x7e0|               0b                              |     .          |                    opcode: "end" (0xb) 0x7e5-0x7e6 (1)
     |                                               |                |            [38]{}: code 0x7e6-0x7fd (23)
0x7e0|                  16                           |      .         |              size: 22 (valid) 0x7e6-0x7e7 (1)
     |                                               |                |              code{}: 0x7e7-0x7fd (22)
     |                                               |                |                t{}: 0x7e7-0x7e8 (1)
0x7e0|                     00                        |       .        |                  n: 0 (valid) 0x7e7-0x7e8 (1)
     |                                               |                |                  x[0:0]: 0x7e8-0x7e8 (0)
     |                                               |                |                e[0:7]: 0x7e8-0x7fd (21)
     |                                               |                |                  [0]{}: in 0x7e8-0x7ed (5)
0x7e0|                        43                     |        C       |                    opcode: "f32.const" (0x43) 0x7e8-0x7e9 (1)
0x7e0|                           00 00 00 00         |         ....   |                    z: 0 0x7e9-0x7ed (4)
     |                                               |                |                  [1]{}: in 0x7ed-0x7f6 (9)
0x7e0|                                       44      |             D  |                    opcode: "f64.const" (0x44) 0x7ed-0x7ee (1)
0x7e0|                                          00 00|              ..|                    z: 1 0x7ee-0x7f6 (8)
0x7f0|00 00 00 00 f0 3f                              |.....?          |
     |                                               |                |                  [2]{}: in 0x7f6-0x7f8 (2)
0x7f0|                  42                           |      B         |                    opcode: "i64.const" (0x42) 0x7f6-0x7f7 (1)
0x7f0|                     01                        |       .        |                    n: 1 0x7f7-0x7f8 (1)
     |                                               |                |                  [3]{}: in 0x7f8-0x7fa (2)
0x7f0|                        41                     |        A       |                    opcode: "i32.const" (0x41) 0x7f8-0x7f9 (1)
0x7f0|                           09                  |         .      |                    n: 9 (valid) 0x7f9-0x7fa (1)
     |                                               |                |                  [4]{}: in 0x7fa-0x7fb (1)
0x7f0|                              0f               |          .     |                    opcode: "return" (0xf) 0x7fa-0x7fb (1)
     |                                               |                |                  [5]{}: in 0x7fb-0x7fc (1)
0x7f0|                                 1b            |           .    |                    opcode: "select" (0x1b) 0x7fb-0x7fc (1)
     |                                               |                |                  [6]{}: in 0x7fc-0x7fd (1)
0x7f0|                                    0b         |            .   |                    opcode: "end" (0xb) 0x7fc-0x7fd (1)
     |                                               |                |            [39]{}: code 0x7fd-0x809 (12)
0x7f0|                                       0b      |             .  |              size: 11 (valid) 0x7fd-0x7fe (1)
     |                                               |                |              code{}: 0x7fe-0x809 (11)
     |                                               |                |                t{}: 0x7fe-0x7ff (1)
0x7f0|                                          00   |              . |                  n: 0 (valid) 0x7fe-0x7ff (1)
     |                                               |                |                  x[0:0]: 0x7ff-0x7ff (0)
     |                                               |                |                e[0:2]: 0x7ff-0x809 (10)
     |                                               |                |                  [0]{}: in 0x7ff-0x808 (9)
0x7f0|                                             02|               .|                    opcode: "block" (0x2) 0x7ff-0x800 (1)
0x800|7f                                             |.               |                    bt: "i32" (127) 0x800-0x801 (1)
     |                                               |                |                    instructions[0:2]: 0x801-0x807 (6)
     |                                               |                |                      [0]{}: instr 0x801-0x806 (5)
0x800|   43                                          | C              |                        opcode: "f32.const" (0x43) 0x801-0x802 (1)
0x800|      00 00 00 00                              |  ....          |                        z: 0 0x802-0x806 (4)
     |                                               |                |                      [1]{}: instr 0x806-0x807 (1)
0x800|                  00                           |      .         |                        opcode: "unreachable" (0x0) 0x806-0x807 (1)
0x800|                     0b                        |       .        |                    end: 0xb (valid) 0x807-0x808 (1)
     |                                               |                |                  [1]{}: in 0x808-0x809 (1)
0x800|                        0b                     |        .       |                    opcode: "end" (0xb) 0x808-0x809 (1)
     |                                               |                |            [40]{}: code 0x809-0x818 (15)
0x800|                           0e                  |         .      |              size: 14 (valid) 0x809-0x80a (1)
     |                                               |                |              code{}: 0x80a-0x818 (14)
     |                                               |                |                t{}: 0x80a-0x80b (1)
0x800|                              00               |          .     |                  n: 0 (valid) 0x80a-0x80b (1)
     |                                               |                |                  x[0:0]: 0x80b-0x80b (0)
     |                                               |                |                e[0:2]: 0x80b-0x818 (13)
     |                                               |                |                  [0]{}: in 0x80b-0x817 (12)
0x800|                                 02            |           .    |                    opcode: "block" (0x2) 0x80b-0x80c (1)
0x800|                                    7f         |            .   |                    bt: "i32" (127) 0x80c-0x80d (1)
     |                                               |                |                    instructions[0:3]: 0x80d-0x816 (9)
     |                                               |                |                      [0]{}: instr 0x80d-0x812 (5)
0x800|                                       43      |             C  |                        opcode: "f32.const" (0x43) 0x80d-0x80e (1)
0x800|                                          00 00|              ..|                        z: 0 0x80e-0x812 (4)
0x810|00 00                                          |..              |
     |                                               |                |                      [1]{}: instr 0x812-0x814 (2)
0x810|      41                                       |  A             |                        opcode: "i32.const" (0x41) 0x812-0x813 (1)
0x810|         09                                    |   .            |                        n: 9 (valid) 0x813-0x814 (1)
     |                                               |                |                      [2]{}: instr 0x814-0x816 (2)
0x810|            0c                                 |    .           |                        opcode: "br" (0xc) 0x814-0x815 (1)
0x810|               00                              |     .          |                        l: 0 (valid) 0x815-0x816 (1)
0x810|                  0b                           |      .         |                    end: 0xb (valid) 0x816-0x817 (1)
     |                                               |                |                  [1]{}: in 0x817-0x818 (1)
0x810|                     0b                        |       .        |                    opcode: "end" (0xb) 0x817-0x818 (1)
     |                                               |                |            [41]{}: code 0x818-0x827 (15)
0x810|                        0e                     |        .       |              size: 14 (valid) 0x818-0x819 (1)
     |                                               |                |              code{}: 0x819-0x827 (14)
     |                                               |                |                t{}: 0x819-0x81a (1)
0x810|                           00                  |         .      |                  n: 0 (valid) 0x819-0x81a (1)
     |                                               |                |                  x[0:0]: 0x81a-0x81a (0)
     |                                               |                |                e[0:2]: 0x81a-0x827 (13)
     |                                               |                |                  [0]{}: in 0x81a-0x826 (12)
0x810|                              02               |          .     |                    opcode: "block" (0x2) 0x81a-0x81b (1)
0x810|                                 7f            |           .    |                    bt: "i32" (127) 0x81b-0x81c (1)
     |                                               |                |                    instructions[0:5]: 0x81c-0x825 (9)
     |                                               |                |                      [0]{}: instr 0x81c-0x81e (2)
0x810|                                    41         |            A   |                        opcode: "i32.const" (0x41) 0x81c-0x81d (1)
0x810|                                       00      |             .  |                        n: 0 (valid) 0x81d-0x81e (1)
     |                                               |                |                      [1]{}: instr 0x81e-0x820 (2)
0x810|                                          41   |              A |                        opcode: "i32.const" (0x41) 0x81e-0x81f (1)
0x810|                                             09|               .|                        n: 9 (valid) 0x81f-0x820 (1)
     |                                               |                |                      [2]{}: instr 0x820-0x822 (2)
0x820|41                                             |A               |                        opcode: "i32.const" (0x41) 0x820-0x821 (1)
0x820|   01                                          | .              |                        n: 1 (valid) 0x821-0x822 (1)
     |                                               |                |                      [3]{}: instr 0x822-0x824 (2)
0x820|      0d                                       |  .             |                        opcode: "br_if" (0xd) 0x822-0x823 (1)
0x820|         00                                    |   .            |                        l: 0 (valid) 0x823-0x824 (1)
     |                                               |                |                      [4]{}: instr 0x824-0x825 (1)
0x820|            1a                                 |    .           |                        opcode: "drop" (0x1a) 0x824-0x825 (1)
0x820|               0b                              |     .          |                    end: 0xb (valid) 0x825-0x826 (1)
     |                                               |                |                  [1]{}: in 0x826-0x827 (1)
0x820|                  0b                           |      .         |                    opcode: "end" (0xb) 0x826-0x827 (1)
     |                                               |                |            [42]{}: code 0x827-0x83a (19)
0x820|                     12                        |       .        |              size: 18 (valid) 0x827-0x828 (1)
     |                                               |                |              code{}: 0x828-0x83a (18)
     |                                               |                |                t{}: 0x828-0x829 (1)
0x820|                        00                     |        .       |                  n: 0 (valid) 0x828-0x829 (1)
     |                                               |                |                  x[0:0]: 0x829-0x829 (0)
     |                                               |                |                e[0:2]: 0x829-0x83a (17)
     |                                               |                |                  [0]{}: in 0x829-0x839 (16)
0x820|                           02                  |         .      |                    opcode: "block" (0x2) 0x829-0x82a (1)
0x820|                              7f               |          .     |                    bt: "i32" (127) 0x82a-0x82b (1)
     |                                               |                |                    instructions[0:4]: 0x82b-0x838 (13)
     |                                               |                |                      [0]{}: instr 0x82b-0x830 (5)
0x820|                                 43            |           C    |                        opcode: "f32.const" (0x43) 0x82b-0x82c (1)
0x820|                                    00 00 00 00|            ....|                        z: 0 0x82c-0x830 (4)
     |                                               |                |                      [1]{}: instr 0x830-0x832 (2)
0x830|41                                             |A               |                        opcode: "i32.const" (0x41) 0x830-0x831 (1)
0x830|   09                                          | .              |                        n: 9 (valid) 0x831-0x832 (1)
     |                                               |                |                      [2]{}: instr 0x832-0x834 (2)
0x830|      41                                       |  A             |                        opcode: "i32.const" (0x41) 0x832-0x833 (1)
0x830|         00                                    |   .            |                        n: 0 (valid) 0x833-0x834 (1)
     |                                               |                |                      [3]{}: instr 0x834-0x838 (4)
0x830|            0e                                 |    .           |                        opcode: "br_table" (0xe) 0x834-0x835 (1)
     |                                               |                |                        l{}: 0x835-0x837 (2)
0x830|               01                              |     .          |                          n: 1 (valid) 0x835-0x836 (1)
     |                                               |                |                          x[0:1]: 0x836-0x837 (1)
0x830|                  00                           |      .         |                            [0]: 0 l (valid) 0x836-0x837 (1)
0x830|                     00                        |       .        |                        lN: 0 (valid) 0x837-0x838 (1)
0x830|                        0b                     |        .       |                    end: 0xb (valid) 0x838-0x839 (1)
     |                                               |                |                  [1]{}: in 0x839-0x83a (1)
0x830|                           0b                  |         .      |                    opcode: "end" (0xb) 0x839-0x83a (1)
     |                                               |                |            [43]{}: code 0x83a-0x848 (14)
0x830|                              0d               |          .     |              size: 13 (valid) 0x83a-0x83b (1)
     |                                               |                |              code{}: 0x83b-0x848 (13)
     |                                               |                |                t{}: 0x83b-0x83c (1)
0x830|                                 00            |           .    |                  n: 0 (valid) 0x83b-0x83c (1)
     |                                               |                |                  x[0:0]: 0x83c-0x83c (0)
     |                                               |                |                e[0:2]: 0x83c-0x848 (12)
     |                                               |                |                  [0]{}: in 0x83c-0x847 (11)
0x830|                                    02         |            .   |                    opcode: "block" (0x2) 0x83c-0x83d (1)
0x830|                                       7f      |             .  |                    bt: "i32" (127) 0x83d-0x83e (1)
     |                                               |                |                    instructions[0:3]: 0x83e-0x846 (8)
     |                                               |                |                      [0]{}: instr 0x83e-0x843 (5)
0x830|                                          43   |              C |                        opcode: "f32.const" (0x43) 0x83e-0x83f (1)
0x830|                                             00|               .|                        z: 0 0x83f-0x843 (4)
0x840|00 00 00                                       |...             |
     |                                               |                |                      [1]{}: instr 0x843-0x845 (2)
0x840|         41                                    |   A            |                        opcode: "i32.const" (0x41) 0x843-0x844 (1)
0x840|            09                                 |    .           |                        n: 9 (valid) 0x844-0x845 (1)
     |                                               |                |                      [2]{}: instr 0x845-0x846 (1)
0x840|               0f                              |     .          |                        opcode: "return" (0xf) 0x845-0x846 (1)
0x840|                  0b                           |      .         |                    end: 0xb (valid) 0x846-0x847 (1)
     |                                               |                |                  [1]{}: in 0x847-0x848 (1)
0x840|                     0b                        |       .        |                    opcode: "end" (0xb) 0x847-0x848 (1)
     |                                               |                |            [44]{}: code 0x848-0x854 (12)
0x840|                        0b                     |        .       |              size: 11 (valid) 0x848-0x849 (1)
     |                                               |                |              code{}: 0x849-0x854 (11)
     |                                               |                |                t{}: 0x849-0x84a (1)
0x840|                           00                  |         .      |                  n: 0 (valid) 0x849-0x84a (1)
     |                                               |                |                  x[0:0]: 0x84a-0x84a (0)
     |                                               |                |                e[0:2]: 0x84a-0x854 (10)
     |                                               |                |                  [0]{}: in 0x84a-0x853 (9)
0x840|                              03               |          .     |                    opcode: "loop" (0x3) 0x84a-0x84b (1)
0x840|                                 7f            |           .    |                    bt: "i32" (127) 0x84b-0x84c (1)
     |                                               |                |                    instructions[0:2]: 0x84c-0x852 (6)
     |                                               |                |                      [0]{}: instr 0x84c-0x851 (5)
0x840|                                    43         |            C   |                        opcode: "f32.const" (0x43) 0x84c-0x84d (1)
0x840|                                       00 00 00|             ...|                        z: 0 0x84d-0x851 (4)
0x850|00                                             |.               |
     |                                               |                |                      [1]{}: instr 0x851-0x852 (1)
0x850|   00                                          | .              |                        opcode: "unreachable" (0x0) 0x851-0x852 (1)
0x850|      0b                                       |  .             |                    end: 0xb (valid) 0x852-0x853 (1)
     |                                               |                |                  [1]{}: in 0x853-0x854 (1)
0x850|         0b                                    |   .            |                    opcode: "end" (0xb) 0x853-0x854 (1)
     |                                               |                |            [45]{}: code 0x854-0x866 (18)
0x850|            11                                 |    .           |              size: 17 (valid) 0x854-0x855 (1)
     |                                               |                |              code{}: 0x855-0x866 (17)
     |                                               |                |                t{}: 0x855-0x856 (1)
0x850|               00                              |     .          |                  n: 0 (valid) 0x855-0x856 (1)
     |                                               |                |                  x[0:0]: 0x856-0x856 (0)
     |                                               |                |                e[0:2]: 0x856-0x866 (16)
     |                                               |                |                  [0]{}: in 0x856-0x865 (15)
0x850|                  02                           |      .         |                    opcode: "block" (0x2) 0x856-0x857 (1)
0x850|                     7f                        |       .        |                    bt: "i32" (127) 0x857-0x858 (1)
     |                                               |                |                    instructions[0:1]: 0x858-0x864 (12)
     |                                               |                |                      [0]{}: instr 0x858-0x864 (12)
0x850|                        03                     |        .       |                        opcode: "loop" (0x3) 0x858-0x859 (1)
0x850|                           7f                  |         .      |                        bt: "i32" (127) 0x859-0x85a (1)
     |                                               |                |                        instructions[0:3]: 0x85a-0x863 (9)
     |                                               |                |                          [0]{}: instr 0x85a-0x85f (5)
0x850|                              43               |          C     |                            opcode: "f32.const" (0x43) 0x85a-0x85b (1)
0x850|                                 00 00 00 00   |           .... |                            z: 0 0x85b-0x85f (4)
     |                                               |                |                          [1]{}: instr 0x85f-0x861 (2)
0x850|                                             41|               A|                            opcode: "i32.const" (0x41) 0x85f-0x860 (1)
0x860|09                                             |.               |                            n: 9 (valid) 0x860-0x861 (1)
     |                                               |                |                          [2]{}: instr 0x861-0x863 (2)
0x860|   0c                                          | .              |                            opcode: "br" (0xc) 0x861-0x862 (1)
0x860|      01                                       |  .             |                            l: 1 (valid) 0x862-0x863 (1)
0x860|         0b                                    |   .            |                        end: 0xb (valid) 0x863-0x864 (1)
0x860|            0b                                 |    .           |                    end: 0xb (valid) 0x864-0x865 (1)
     |                                               |                |                  [1]{}: in 0x865-0x866 (1)
0x860|               0b                              |     .          |                    opcode: "end" (0xb) 0x865-0x866 (1)
     |                                               |                |            [46]{}: code 0x866-0x878 (18)
0x860|                  11                           |      .         |              size: 17 (valid) 0x866-0x867 (1)
     |                                               |                |              code{}: 0x867-0x878 (17)
     |                                               |                |                t{}: 0x867-0x868 (1)
0x860|                     00                        |       .        |                  n: 0 (valid) 0x867-0x868 (1)
     |                                               |                |                  x[0:0]: 0x868-0x868 (0)
     |                                               |                |                e[0:2]: 0x868-0x878 (16)
     |                                               |                |                  [0]{}: in 0x868-0x877 (15)
0x860|                        02                     |        .       |                    opcode: "block" (0x2) 0x868-0x869 (1)
0x860|                           7f                  |         .      |                    bt: "i32" (127) 0x869-0x86a (1)
     |                                               |                |                    instructions[0:1]: 0x86a-0x876 (12)
     |                                               |                |                      [0]{}: instr 0x86a-0x876 (12)
0x860|                              03               |          .     |                        opcode: "loop" (0x3) 0x86a-0x86b (1)
0x860|                                 7f            |           .    |                        bt: "i32" (127) 0x86b-0x86c (1)
     |                                               |                |                        instructions[0:5]: 0x86c-0x875 (9)
     |                                               |                |                          [0]{}: instr 0x86c-0x86e (2)
0x860|                                    41         |            A   |                            opcode: "i32.const" (0x41) 0x86c-0x86d (1)
0x860|                                       00      |             .  |                            n: 0 (valid) 0x86d-0x86e (1)
     |                                               |                |                          [1]{}: instr 0x86e-0x870 (2)
0x860|                                          41   |              A |                            opcode: "i32.const" (0x41) 0x86e-0x86f (1)
0x860|                                             09|               .|                            n: 9 (valid) 0x86f-0x870 (1)
     |                                               |                |                          [2]{}: instr 0x870-0x872 (2)
0x870|41                                             |A               |                            opcode: "i32.const" (0x41) 0x870-0x871 (1)
0x870|   01                                          | .              |                            n: 1 (valid) 0x871-0x872 (1)
     |                                               |                |                          [3]{}: instr 0x872-0x874 (2)
0x870|      0d                                       |  .             |                            opcode: "br_if" (0xd) 0x872-0x873 (1)
0x870|         01                                    |   .            |                            l: 1 (valid) 0x873-0x874 (1)
     |                                               |                |                          [4]{}: instr 0x874-0x875 (1)
0x870|            1a                                 |    .           |                            opcode: "drop" (0x1a) 0x874-0x875 (1)
0x870|               0b                              |     .          |                        end: 0xb (valid) 0x875-0x876 (1)
0x870|                  0b                           |      .         |                    end: 0xb (valid) 0x876-0x877 (1)
     |                                               |                |                  [1]{}: in 0x877-0x878 (1)
0x870|                     0b                        |       .        |                    opcode: "end" (0xb) 0x877-0x878 (1)
     |                                               |                |            [47]{}: code 0x878-0x88e (22)
0x870|                        15                     |        .       |              size: 21 (valid) 0x878-0x879 (1)
     |                                               |                |              code{}: 0x879-0x88e (21)
     |                                               |                |                t{}: 0x879-0x87a (1)
0x870|                           00                  |         .      |                  n: 0 (valid) 0x879-0x87a (1)
     |                                               |                |                  x[0:0]: 0x87a-0x87a (0)
     |                                               |                |                e[0:2]: 0x87a-0x88e (20)
     |                                               |                |                  [0]{}: in 0x87a-0x88d (19)
0x870|                              02               |          .     |                    opcode: "block" (0x2) 0x87a-0x87b (1)
0x870|                                 7f            |           .    |                    bt: "i32" (127) 0x87b-0x87c (1)
     |                                               |                |                    instructions[0:1]: 0x87c-0x88c (16)
     |                                               |                |                      [0]{}: instr 0x87c-0x88c (16)
0x870|                                    03         |            .   |                        opcode: "loop" (0x3) 0x87c-0x87d (1)
0x870|                                       7f      |             .  |                        bt: "i32" (127) 0x87d-0x87e (1)
     |                                               |                |                        instructions[0:4]: 0x87e-0x88b (13)
     |                                               |                |                          [0]{}: instr 0x87e-0x883 (5)
0x870|                                          43   |              C |                            opcode: "f32.const" (0x43) 0x87e-0x87f (1)
0x870|                                             00|               .|                            z: 0 0x87f-0x883 (4)
0x880|00 00 00                                       |...             |
     |                                               |                |                          [1]{}: instr 0x883-0x885 (2)
0x880|         41                                    |   A            |                            opcode: "i32.const" (0x41) 0x883-0x884 (1)
0x880|            09                                 |    .           |                            n: 9 (valid) 0x884-0x885 (1)
     |                                               |                |                          [2]{}: instr 0x885-0x887 (2)
0x880|               41                              |     A          |                            opcode: "i32.const" (0x41) 0x885-0x886 (1)
0x880|                  00                           |      .         |                            n: 0 (valid) 0x886-0x887 (1)
     |                                               |                |                          [3]{}: instr 0x887-0x88b (4)
0x880|                     0e                        |       .        |                            opcode: "br_table" (0xe) 0x887-0x888 (1)
     |                                               |                |                            l{}: 0x888-0x88a (2)
0x880|                        01                     |        .       |                              n: 1 (valid) 0x888-0x889 (1)
     |                                               |                |                              x[0:1]: 0x889-0x88a (1)
0x880|                           01                  |         .      |                                [0]: 1 l (valid) 0x889-0x88a (1)
0x880|                              01               |          .     |                            lN: 1 (valid) 0x88a-0x88b (1)
0x880|                                 0b            |           .    |                        end: 0xb (valid) 0x88b-0x88c (1)
0x880|                                    0b         |            .   |                    end: 0xb (valid) 0x88c-0x88d (1)
     |                                               |                |                  [1]{}: in 0x88d-0x88e (1)
0x880|                                       0b      |             .  |                    opcode: "end" (0xb) 0x88d-0x88e (1)
     |                                               |                |            [48]{}: code 0x88e-0x89c (14)
0x880|                                          0d   |              . |              size: 13 (valid) 0x88e-0x88f (1)
     |                                               |                |              code{}: 0x88f-0x89c (13)
     |                                               |                |                t{}: 0x88f-0x890 (1)
0x880|                                             00|               .|                  n: 0 (valid) 0x88f-0x890 (1)
     |                                               |                |                  x[0:0]: 0x890-0x890 (0)
     |                                               |                |                e[0:2]: 0x890-0x89c (12)
     |                                               |                |                  [0]{}: in 0x890-0x89b (11)
0x890|03                                             |.               |                    opcode: "loop" (0x3) 0x890-0x891 (1)
0x890|   7f                                          | .              |                    bt: "i32" (127) 0x891-0x892 (1)
     |                                               |                |                    instructions[0:3]: 0x892-0x89a (8)
     |                                               |                |                      [0]{}: instr 0x892-0x897 (5)
0x890|      43                                       |  C             |                        opcode: "f32.const" (0x43) 0x892-0x893 (1)
0x890|         00 00 00 00                           |   ....         |                        z: 0 0x893-0x897 (4)
     |                                               |                |                      [1]{}: instr 0x897-0x899 (2)
0x890|                     41                        |       A        |                        opcode: "i32.const" (0x41) 0x897-0x898 (1)
0x890|                        09                     |        .       |                        n: 9 (valid) 0x898-0x899 (1)
     |                                               |                |                      [2]{}: instr 0x899-0x89a (1)
0x890|                           0f                  |         .      |                        opcode: "return" (0xf) 0x899-0x89a (1)
0x890|                              0b               |          .     |                    end: 0xb (valid) 0x89a-0x89b (1)
     |                                               |                |                  [1]{}: in 0x89b-0x89c (1)
0x890|                                 0b|           |           .|   |                    opcode: "end" (0xb) 0x89b-0x89c (1)
