$ fq -d wasm dv unwind-0.wasm
     |00 01 02 03 04 05 06 07 08 09 0a 0b 0c 0d 0e 0f|0123456789abcdef|.{}: unwind-0.wasm (wasm) 0x0-0x89b.7 (2204)
0x000|00 61 73 6d                                    |.asm            |  magic: raw bits (valid) 0x0-0x3.7 (4)
0x000|            01 00 00 00                        |    ....        |  version: 1 0x4-0x7.7 (4)
     |                                               |                |  sections[0:4]: 0x8-0x89b.7 (2196)
     |                                               |                |    [0]{}: section 0x8-0x11.7 (10)
0x000|                        01                     |        .       |      id: "type section" (1) 0x8-0x8.7 (1)
0x000|                           08                  |         .      |      size: 8 0x9-0x9.7 (1)
     |                                               |                |      content{}: 0xa-0x11.7 (8)
     |                                               |                |        ft{}: 0xa-0x11.7 (8)
0x000|                              02               |          .     |          n: 2 0xa-0xa.7 (1)
     |                                               |                |          x[0:2]: 0xb-0x11.7 (7)
     |                                               |                |            [0]{}: ft 0xb-0xd.7 (3)
0x000|                                 60            |           `    |              tag: 0x60 (valid) 0xb-0xb.7 (1)
     |                                               |                |              rt1{}: 0xc-0xc.7 (1)
0x000|                                    00         |            .   |                n: 0 0xc-0xc.7 (1)
     |                                               |                |                x[0:0]: 0xd-NA (0)
     |                                               |                |              rt2{}: 0xd-0xd.7 (1)
0x000|                                       00      |             .  |                n: 0 0xd-0xd.7 (1)
     |                                               |                |                x[0:0]: 0xe-NA (0)
     |                                               |                |            [1]{}: ft 0xe-0x11.7 (4)
0x000|                                          60   |              ` |              tag: 0x60 (valid) 0xe-0xe.7 (1)
     |                                               |                |              rt1{}: 0xf-0xf.7 (1)
0x000|                                             00|               .|                n: 0 0xf-0xf.7 (1)
     |                                               |                |                x[0:0]: 0x10-NA (0)
     |                                               |                |              rt2{}: 0x10-0x11.7 (2)
0x010|01                                             |.               |                n: 1 0x10-0x10.7 (1)
     |                                               |                |                x[0:1]: 0x11-0x11.7 (1)
0x010|   7f                                          | .              |                  [0]: "i32" (0x7f) t 0x11-0x11.7 (1)
     |                                               |                |    [1]{}: section 0x12-0x45.7 (52)
0x010|      03                                       |  .             |      id: "function section" (3) 0x12-0x12.7 (1)
0x010|         32                                    |   2            |      size: 50 0x13-0x13.7 (1)
     |                                               |                |      content{}: 0x14-0x45.7 (50)
     |                                               |                |        x{}: 0x14-0x45.7 (50)
0x010|            31                                 |    1           |          n: 49 0x14-0x14.7 (1)
     |                                               |                |          x[0:49]: 0x15-0x45.7 (49)
0x010|               00                              |     .          |            [0]: 0 x 0x15-0x15.7 (1)
0x010|                  00                           |      .         |            [1]: 0 x 0x16-0x16.7 (1)
0x010|                     01                        |       .        |            [2]: 1 x 0x17-0x17.7 (1)
0x010|                        00                     |        .       |            [3]: 0 x 0x18-0x18.7 (1)
0x010|                           01                  |         .      |            [4]: 1 x 0x19-0x19.7 (1)
0x010|                              00               |          .     |            [5]: 0 x 0x1a-0x1a.7 (1)
0x010|                                 01            |           .    |            [6]: 1 x 0x1b-0x1b.7 (1)
0x010|                                    01         |            .   |            [7]: 1 x 0x1c-0x1c.7 (1)
0x010|                                       00      |             .  |            [8]: 0 x 0x1d-0x1d.7 (1)
0x010|                                          01   |              . |            [9]: 1 x 0x1e-0x1e.7 (1)
0x010|                                             01|               .|            [10]: 1 x 0x1f-0x1f.7 (1)
0x020|01                                             |.               |            [11]: 1 x 0x20-0x20.7 (1)
0x020|   01                                          | .              |            [12]: 1 x 0x21-0x21.7 (1)
0x020|      01                                       |  .             |            [13]: 1 x 0x22-0x22.7 (1)
0x020|         01                                    |   .            |            [14]: 1 x 0x23-0x23.7 (1)
0x020|            01                                 |    .           |            [15]: 1 x 0x24-0x24.7 (1)
0x020|               01                              |     .          |            [16]: 1 x 0x25-0x25.7 (1)
0x020|                  01                           |      .         |            [17]: 1 x 0x26-0x26.7 (1)
0x020|                     01                        |       .        |            [18]: 1 x 0x27-0x27.7 (1)
0x020|                        01                     |        .       |            [19]: 1 x 0x28-0x28.7 (1)
0x020|                           01                  |         .      |            [20]: 1 x 0x29-0x29.7 (1)
0x020|                              01               |          .     |            [21]: 1 x 0x2a-0x2a.7 (1)
0x020|                                 01            |           .    |            [22]: 1 x 0x2b-0x2b.7 (1)
0x020|                                    01         |            .   |            [23]: 1 x 0x2c-0x2c.7 (1)
0x020|                                       01      |             .  |            [24]: 1 x 0x2d-0x2d.7 (1)
0x020|                                          01   |              . |            [25]: 1 x 0x2e-0x2e.7 (1)
0x020|                                             01|               .|            [26]: 1 x 0x2f-0x2f.7 (1)
0x030|01                                             |.               |            [27]: 1 x 0x30-0x30.7 (1)
0x030|   01                                          | .              |            [28]: 1 x 0x31-0x31.7 (1)
0x030|      01                                       |  .             |            [29]: 1 x 0x32-0x32.7 (1)
0x030|         01                                    |   .            |            [30]: 1 x 0x33-0x33.7 (1)
0x030|            01                                 |    .           |            [31]: 1 x 0x34-0x34.7 (1)
0x030|               01                              |     .          |            [32]: 1 x 0x35-0x35.7 (1)
0x030|                  01                           |      .         |            [33]: 1 x 0x36-0x36.7 (1)
0x030|                     01                        |       .        |            [34]: 1 x 0x37-0x37.7 (1)
0x030|                        01                     |        .       |            [35]: 1 x 0x38-0x38.7 (1)
0x030|                           01                  |         .      |            [36]: 1 x 0x39-0x39.7 (1)
0x030|                              01               |          .     |            [37]: 1 x 0x3a-0x3a.7 (1)
0x030|                                 01            |           .    |            [38]: 1 x 0x3b-0x3b.7 (1)
0x030|                                    01         |            .   |            [39]: 1 x 0x3c-0x3c.7 (1)
0x030|                                       01      |             .  |            [40]: 1 x 0x3d-0x3d.7 (1)
0x030|                                          01   |              . |            [41]: 1 x 0x3e-0x3e.7 (1)
0x030|                                             01|               .|            [42]: 1 x 0x3f-0x3f.7 (1)
0x040|01                                             |.               |            [43]: 1 x 0x40-0x40.7 (1)
0x040|   01                                          | .              |            [44]: 1 x 0x41-0x41.7 (1)
0x040|      01                                       |  .             |            [45]: 1 x 0x42-0x42.7 (1)
0x040|         01                                    |   .            |            [46]: 1 x 0x43-0x43.7 (1)
0x040|            01                                 |    .           |            [47]: 1 x 0x44-0x44.7 (1)
0x040|               01                              |     .          |            [48]: 1 x 0x45-0x45.7 (1)
     |                                               |                |    [2]{}: section 0x46-0x55c.7 (1303)
0x040|                  07                           |      .         |      id: "export section" (7) 0x46-0x46.7 (1)
0x040|                     94 0a                     |       ..       |      size: 1300 0x47-0x48.7 (2)
     |                                               |                |      content{}: 0x49-0x55c.7 (1300)
     |                                               |                |        ex{}: 0x49-0x55c.7 (1300)
0x040|                           31                  |         1      |          n: 49 0x49-0x49.7 (1)
     |                                               |                |          x[0:49]: 0x4a-0x55c.7 (1299)
     |                                               |                |            [0]{}: ex 0x4a-0x66.7 (29)
     |                                               |                |              nm{}: 0x4a-0x64.7 (27)
0x040|                              1a               |          .     |                n: 26 0x4a-0x4a.7 (1)
0x040|                                 66 75 6e 63 2d|           func-|                b: "func-unwind-by-unreachable" 0x4b-0x64.7 (26)
0x050|75 6e 77 69 6e 64 2d 62 79 2d 75 6e 72 65 61 63|unwind-by-unreac|
0x060|68 61 62 6c 65                                 |hable           |
     |                                               |                |              d{}: 0x65-0x66.7 (2)
0x060|               00                              |     .          |                tag: "funcidx" (0x0) 0x65-0x65.7 (1)
0x060|                  00                           |      .         |                x: 0 0x66-0x66.7 (1)
     |                                               |                |            [1]{}: ex 0x67-0x7a.7 (20)
     |                                               |                |              nm{}: 0x67-0x78.7 (18)
0x060|                     11                        |       .        |                n: 17 0x67-0x67.7 (1)
0x060|                        66 75 6e 63 2d 75 6e 77|        func-unw|                b: "func-unwind-by-br" 0x68-0x78.7 (17)
0x070|69 6e 64 2d 62 79 2d 62 72                     |ind-by-br       |
     |                                               |                |              d{}: 0x79-0x7a.7 (2)
0x070|                           00                  |         .      |                tag: "funcidx" (0x0) 0x79-0x79.7 (1)
0x070|                              01               |          .     |                x: 1 0x7a-0x7a.7 (1)
     |                                               |                |            [2]{}: ex 0x7b-0x94.7 (26)
     |                                               |                |              nm{}: 0x7b-0x92.7 (24)
0x070|                                 17            |           .    |                n: 23 0x7b-0x7b.7 (1)
0x070|                                    66 75 6e 63|            func|                b: "func-unwind-by-br-value" 0x7c-0x92.7 (23)
0x080|2d 75 6e 77 69 6e 64 2d 62 79 2d 62 72 2d 76 61|-unwind-by-br-va|
0x090|6c 75 65                                       |lue             |
     |                                               |                |              d{}: 0x93-0x94.7 (2)
0x090|         00                                    |   .            |                tag: "funcidx" (0x0) 0x93-0x93.7 (1)
0x090|            02                                 |    .           |                x: 2 0x94-0x94.7 (1)
     |                                               |                |            [3]{}: ex 0x95-0xab.7 (23)
     |                                               |                |              nm{}: 0x95-0xa9.7 (21)
0x090|               14                              |     .          |                n: 20 0x95-0x95.7 (1)
0x090|                  66 75 6e 63 2d 75 6e 77 69 6e|      func-unwin|                b: "func-unwind-by-br_if" 0x96-0xa9.7 (20)
0x0a0|64 2d 62 79 2d 62 72 5f 69 66                  |d-by-br_if      |
     |                                               |                |              d{}: 0xaa-0xab.7 (2)
0x0a0|                              00               |          .     |                tag: "funcidx" (0x0) 0xaa-0xaa.7 (1)
0x0a0|                                 03            |           .    |                x: 3 0xab-0xab.7 (1)
     |                                               |                |            [4]{}: ex 0xac-0xc8.7 (29)
     |                                               |                |              nm{}: 0xac-0xc6.7 (27)
0x0a0|                                    1a         |            .   |                n: 26 0xac-0xac.7 (1)
0x0a0|                                       66 75 6e|             fun|                b: "func-unwind-by-br_if-value" 0xad-0xc6.7 (26)
0x0b0|63 2d 75 6e 77 69 6e 64 2d 62 79 2d 62 72 5f 69|c-unwind-by-br_i|
0x0c0|66 2d 76 61 6c 75 65                           |f-value         |
     |                                               |                |              d{}: 0xc7-0xc8.7 (2)
0x0c0|                     00                        |       .        |                tag: "funcidx" (0x0) 0xc7-0xc7.7 (1)
0x0c0|                        04                     |        .       |                x: 4 0xc8-0xc8.7 (1)
     |                                               |                |            [5]{}: ex 0xc9-0xe2.7 (26)
     |                                               |                |              nm{}: 0xc9-0xe0.7 (24)
0x0c0|                           17                  |         .      |                n: 23 0xc9-0xc9.7 (1)
0x0c0|                              66 75 6e 63 2d 75|          func-u|                b: "func-unwind-by-br_table" 0xca-0xe0.7 (23)
0x0d0|6e 77 69 6e 64 2d 62 79 2d 62 72 5f 74 61 62 6c|nwind-by-br_tabl|
0x0e0|65                                             |e               |
     |                                               |                |              d{}: 0xe1-0xe2.7 (2)
0x0e0|   00                                          | .              |                tag: "funcidx" (0x0) 0xe1-0xe1.7 (1)
0x0e0|      05                                       |  .             |                x: 5 0xe2-0xe2.7 (1)
     |                                               |                |            [6]{}: ex 0xe3-0x102.7 (32)
     |                                               |                |              nm{}: 0xe3-0x100.7 (30)
0x0e0|         1d                                    |   .            |                n: 29 0xe3-0xe3.7 (1)
0x0e0|            66 75 6e 63 2d 75 6e 77 69 6e 64 2d|    func-unwind-|                b: "func-unwind-by-br_table-value" 0xe4-0x100.7 (29)
0x0f0|62 79 2d 62 72 5f 74 61 62 6c 65 2d 76 61 6c 75|by-br_table-valu|
0x100|65                                             |e               |
     |                                               |                |              d{}: 0x101-0x102.7 (2)
0x100|   00                                          | .              |                tag: "funcidx" (0x0) 0x101-0x101.7 (1)
0x100|      06                                       |  .             |                x: 6 0x102-0x102.7 (1)
     |                                               |                |            [7]{}: ex 0x103-0x11a.7 (24)
     |                                               |                |              nm{}: 0x103-0x118.7 (22)
0x100|         15                                    |   .            |                n: 21 0x103-0x103.7 (1)
0x100|            66 75 6e 63 2d 75 6e 77 69 6e 64 2d|    func-unwind-|                b: "func-unwind-by-return" 0x104-0x118.7 (21)
0x110|62 79 2d 72 65 74 75 72 6e                     |by-return       |
     |                                               |                |              d{}: 0x119-0x11a.7 (2)
0x110|                           00                  |         .      |                tag: "funcidx" (0x0) 0x119-0x119.7 (1)
0x110|                              07               |          .     |                x: 7 0x11a-0x11a.7 (1)
     |                                               |                |            [8]{}: ex 0x11b-0x138.7 (30)
     |                                               |                |              nm{}: 0x11b-0x136.7 (28)
0x110|                                 1b            |           .    |                n: 27 0x11b-0x11b.7 (1)
0x110|                                    62 6c 6f 63|            bloc|                b: "block-unwind-by-unreachable" 0x11c-0x136.7 (27)
0x120|6b 2d 75 6e 77 69 6e 64 2d 62 79 2d 75 6e 72 65|k-unwind-by-unre|
0x130|61 63 68 61 62 6c 65                           |achable         |
     |                                               |                |              d{}: 0x137-0x138.7 (2)
0x130|                     00                        |       .        |                tag: "funcidx" (0x0) 0x137-0x137.7 (1)
0x130|                        08                     |        .       |                x: 8 0x138-0x138.7 (1)
     |                                               |                |            [9]{}: ex 0x139-0x14d.7 (21)
     |                                               |                |              nm{}: 0x139-0x14b.7 (19)
0x130|                           12                  |         .      |                n: 18 0x139-0x139.7 (1)
0x130|                              62 6c 6f 63 6b 2d|          block-|                b: "block-unwind-by-br" 0x13a-0x14b.7 (18)
0x140|75 6e 77 69 6e 64 2d 62 79 2d 62 72            |unwind-by-br    |
     |                                               |                |              d{}: 0x14c-0x14d.7 (2)
0x140|                                    00         |            .   |                tag: "funcidx" (0x0) 0x14c-0x14c.7 (1)
0x140|                                       09      |             .  |                x: 9 0x14d-0x14d.7 (1)
     |                                               |                |            [10]{}: ex 0x14e-0x168.7 (27)
     |                                               |                |              nm{}: 0x14e-0x166.7 (25)
0x140|                                          18   |              . |                n: 24 0x14e-0x14e.7 (1)
0x140|                                             62|               b|                b: "block-unwind-by-br-value" 0x14f-0x166.7 (24)
0x150|6c 6f 63 6b 2d 75 6e 77 69 6e 64 2d 62 79 2d 62|lock-unwind-by-b|
0x160|72 2d 76 61 6c 75 65                           |r-value         |
     |                                               |                |              d{}: 0x167-0x168.7 (2)
0x160|                     00                        |       .        |                tag: "funcidx" (0x0) 0x167-0x167.7 (1)
0x160|                        0a                     |        .       |                x: 10 0x168-0x168.7 (1)
     |                                               |                |            [11]{}: ex 0x169-0x180.7 (24)
     |                                               |                |              nm{}: 0x169-0x17e.7 (22)
0x160|                           15                  |         .      |                n: 21 0x169-0x169.7 (1)
0x160|                              62 6c 6f 63 6b 2d|          block-|                b: "block-unwind-by-br_if" 0x16a-0x17e.7 (21)
0x170|75 6e 77 69 6e 64 2d 62 79 2d 62 72 5f 69 66   |unwind-by-br_if |
     |                                               |                |              d{}: 0x17f-0x180.7 (2)
0x170|                                             00|               .|                tag: "funcidx" (0x0) 0x17f-0x17f.7 (1)
0x180|0b                                             |.               |                x: 11 0x180-0x180.7 (1)
     |                                               |                |            [12]{}: ex 0x181-0x19e.7 (30)
     |                                               |                |              nm{}: 0x181-0x19c.7 (28)
0x180|   1b                                          | .              |                n: 27 0x181-0x181.7 (1)
0x180|      62 6c 6f 63 6b 2d 75 6e 77 69 6e 64 2d 62|  block-unwind-b|                b: "block-unwind-by-br_if-value" 0x182-0x19c.7 (27)
0x190|79 2d 62 72 5f 69 66 2d 76 61 6c 75 65         |y-br_if-value   |
     |                                               |                |              d{}: 0x19d-0x19e.7 (2)
0x190|                                       00      |             .  |                tag: "funcidx" (0x0) 0x19d-0x19d.7 (1)
0x190|                                          0c   |              . |                x: 12 0x19e-0x19e.7 (1)
     |                                               |                |            [13]{}: ex 0x19f-0x1b9.7 (27)
     |                                               |                |              nm{}: 0x19f-0x1b7.7 (25)
0x190|                                             18|               .|                n: 24 0x19f-0x19f.7 (1)
0x1a0|62 6c 6f 63 6b 2d 75 6e 77 69 6e 64 2d 62 79 2d|block-unwind-by-|                b: "block-unwind-by-br_table" 0x1a0-0x1b7.7 (24)
0x1b0|62 72 5f 74 61 62 6c 65                        |br_table        |
     |                                               |                |              d{}: 0x1b8-0x1b9.7 (2)
0x1b0|                        00                     |        .       |                tag: "funcidx" (0x0) 0x1b8-0x1b8.7 (1)
0x1b0|                           0d                  |         .      |                x: 13 0x1b9-0x1b9.7 (1)
     |                                               |                |            [14]{}: ex 0x1ba-0x1da.7 (33)
     |                                               |                |              nm{}: 0x1ba-0x1d8.7 (31)
0x1b0|                              1e               |          .     |                n: 30 0x1ba-0x1ba.7 (1)
0x1b0|                                 62 6c 6f 63 6b|           block|                b: "block-unwind-by-br_table-value" 0x1bb-0x1d8.7 (30)
0x1c0|2d 75 6e 77 69 6e 64 2d 62 79 2d 62 72 5f 74 61|-unwind-by-br_ta|
0x1d0|62 6c 65 2d 76 61 6c 75 65                     |ble-value       |
     |                                               |                |              d{}: 0x1d9-0x1da.7 (2)
0x1d0|                           00                  |         .      |                tag: "funcidx" (0x0) 0x1d9-0x1d9.7 (1)
0x1d0|                              0e               |          .     |                x: 14 0x1da-0x1da.7 (1)
     |                                               |                |            [15]{}: ex 0x1db-0x1f3.7 (25)
     |                                               |                |              nm{}: 0x1db-0x1f1.7 (23)
0x1d0|                                 16            |           .    |                n: 22 0x1db-0x1db.7 (1)
0x1d0|                                    62 6c 6f 63|            bloc|                b: "block-unwind-by-return" 0x1dc-0x1f1.7 (22)
0x1e0|6b 2d 75 6e 77 69 6e 64 2d 62 79 2d 72 65 74 75|k-unwind-by-retu|
0x1f0|72 6e                                          |rn              |
     |                                               |                |              d{}: 0x1f2-0x1f3.7 (2)
0x1f0|      00                                       |  .             |                tag: "funcidx" (0x0) 0x1f2-0x1f2.7 (1)
0x1f0|         0f                                    |   .            |                x: 15 0x1f3-0x1f3.7 (1)
     |                                               |                |            [16]{}: ex 0x1f4-0x218.7 (37)
     |                                               |                |              nm{}: 0x1f4-0x216.7 (35)
0x1f0|            22                                 |    "           |                n: 34 0x1f4-0x1f4.7 (1)
0x1f0|               62 6c 6f 63 6b 2d 6e 65 73 74 65|     block-neste|                b: "block-nested-unwind-by-unreachable" 0x1f5-0x216.7 (34)
0x200|64 2d 75 6e 77 69 6e 64 2d 62 79 2d 75 6e 72 65|d-unwind-by-unre|
0x210|61 63 68 61 62 6c 65                           |achable         |
     |                                               |                |              d{}: 0x217-0x218.7 (2)
0x210|                     00                        |       .        |                tag: "funcidx" (0x0) 0x217-0x217.7 (1)
0x210|                        10                     |        .       |                x: 16 0x218-0x218.7 (1)
     |                                               |                |            [17]{}: ex 0x219-0x234.7 (28)
     |                                               |                |              nm{}: 0x219-0x232.7 (26)
0x210|                           19                  |         .      |                n: 25 0x219-0x219.7 (1)
0x210|                              62 6c 6f 63 6b 2d|          block-|                b: "block-nested-unwind-by-br" 0x21a-0x232.7 (25)
0x220|6e 65 73 74 65 64 2d 75 6e 77 69 6e 64 2d 62 79|nested-unwind-by|
0x230|2d 62 72                                       |-br             |
     |                                               |                |              d{}: 0x233-0x234.7 (2)
0x230|         00                                    |   .            |                tag: "funcidx" (0x0) 0x233-0x233.7 (1)
0x230|            11                                 |    .           |                x: 17 0x234-0x234.7 (1)
     |                                               |                |            [18]{}: ex 0x235-0x256.7 (34)
     |                                               |                |              nm{}: 0x235-0x254.7 (32)
0x230|               1f                              |     .          |                n: 31 0x235-0x235.7 (1)
0x230|                  62 6c 6f 63 6b 2d 6e 65 73 74|      block-nest|                b: "block-nested-unwind-by-br-value" 0x236-0x254.7 (31)
0x240|65 64 2d 75 6e 77 69 6e 64 2d 62 79 2d 62 72 2d|ed-unwind-by-br-|
0x250|76 61 6c 75 65                                 |value           |
     |                                               |                |              d{}: 0x255-0x256.7 (2)
0x250|               00                              |     .          |                tag: "funcidx" (0x0) 0x255-0x255.7 (1)
0x250|                  12                           |      .         |                x: 18 0x256-0x256.7 (1)
     |                                               |                |            [19]{}: ex 0x257-0x275.7 (31)
     |                                               |                |              nm{}: 0x257-0x273.7 (29)
0x250|                     1c                        |       .        |                n: 28 0x257-0x257.7 (1)
0x250|                        62 6c 6f 63 6b 2d 6e 65|        block-ne|                b: "block-nested-unwind-by-br_if" 0x258-0x273.7 (28)
0x260|73 74 65 64 2d 75 6e 77 69 6e 64 2d 62 79 2d 62|sted-unwind-by-b|
0x270|72 5f 69 66                                    |r_if            |
     |                                               |                |              d{}: 0x274-0x275.7 (2)
0x270|            00                                 |    .           |                tag: "funcidx" (0x0) 0x274-0x274.7 (1)
0x270|               13                              |     .          |                x: 19 0x275-0x275.7 (1)
     |                                               |                |            [20]{}: ex 0x276-0x29a.7 (37)
     |                                               |                |              nm{}: 0x276-0x298.7 (35)
0x270|                  22                           |      "         |                n: 34 0x276-0x276.7 (1)
0x270|                     62 6c 6f 63 6b 2d 6e 65 73|       block-nes|                b: "block-nested-unwind-by-br_if-value" 0x277-0x298.7 (34)
0x280|74 65 64 2d 75 6e 77 69 6e 64 2d 62 79 2d 62 72|ted-unwind-by-br|
0x290|5f 69 66 2d 76 61 6c 75 65                     |_if-value       |
     |                                               |                |              d{}: 0x299-0x29a.7 (2)
0x290|                           00                  |         .      |                tag: "funcidx" (0x0) 0x299-0x299.7 (1)
0x290|                              14               |          .     |                x: 20 0x29a-0x29a.7 (1)
     |                                               |                |            [21]{}: ex 0x29b-0x2bc.7 (34)
     |                                               |                |              nm{}: 0x29b-0x2ba.7 (32)
0x290|                                 1f            |           .    |                n: 31 0x29b-0x29b.7 (1)
0x290|                                    62 6c 6f 63|            bloc|                b: "block-nested-unwind-by-br_table" 0x29c-0x2ba.7 (31)
0x2a0|6b 2d 6e 65 73 74 65 64 2d 75 6e 77 69 6e 64 2d|k-nested-unwind-|
0x2b0|62 79 2d 62 72 5f 74 61 62 6c 65               |by-br_table     |
     |                                               |                |              d{}: 0x2bb-0x2bc.7 (2)
0x2b0|                                 00            |           .    |                tag: "funcidx" (0x0) 0x2bb-0x2bb.7 (1)
0x2b0|                                    15         |            .   |                x: 21 0x2bc-0x2bc.7 (1)
     |                                               |                |            [22]{}: ex 0x2bd-0x2e4.7 (40)
     |                                               |                |              nm{}: 0x2bd-0x2e2.7 (38)
0x2b0|                                       25      |             %  |                n: 37 0x2bd-0x2bd.7 (1)
0x2b0|                                          62 6c|              bl|                b: "block-nested-unwind-by-br_table-value" 0x2be-0x2e2.7 (37)
0x2c0|6f 63 6b 2d 6e 65 73 74 65 64 2d 75 6e 77 69 6e|ock-nested-unwin|
*    |until 0x2e2.7 (37)                             |                |
     |                                               |                |              d{}: 0x2e3-0x2e4.7 (2)
0x2e0|         00                                    |   .            |                tag: "funcidx" (0x0) 0x2e3-0x2e3.7 (1)
0x2e0|            16                                 |    .           |                x: 22 0x2e4-0x2e4.7 (1)
     |                                               |                |            [23]{}: ex 0x2e5-0x304.7 (32)
     |                                               |                |              nm{}: 0x2e5-0x302.7 (30)
0x2e0|               1d                              |     .          |                n: 29 0x2e5-0x2e5.7 (1)
0x2e0|                  62 6c 6f 63 6b 2d 6e 65 73 74|      block-nest|                b: "block-nested-unwind-by-return" 0x2e6-0x302.7 (29)
0x2f0|65 64 2d 75 6e 77 69 6e 64 2d 62 79 2d 72 65 74|ed-unwind-by-ret|
0x300|75 72 6e                                       |urn             |
     |                                               |                |              d{}: 0x303-0x304.7 (2)
0x300|         00                                    |   .            |                tag: "funcidx" (0x0) 0x303-0x303.7 (1)
0x300|            17                                 |    .           |                x: 23 0x304-0x304.7 (1)
     |                                               |                |            [24]{}: ex 0x305-0x31e.7 (26)
     |                                               |                |              nm{}: 0x305-0x31c.7 (24)
0x300|               17                              |     .          |                n: 23 0x305-0x305.7 (1)
0x300|                  75 6e 61 72 79 2d 61 66 74 65|      unary-afte|                b: "unary-after-unreachable" 0x306-0x31c.7 (23)
0x310|72 2d 75 6e 72 65 61 63 68 61 62 6c 65         |r-unreachable   |
     |                                               |                |              d{}: 0x31d-0x31e.7 (2)
0x310|                                       00      |             .  |                tag: "funcidx" (0x0) 0x31d-0x31d.7 (1)
0x310|                                          18   |              . |                x: 24 0x31e-0x31e.7 (1)
     |                                               |                |            [25]{}: ex 0x31f-0x32f.7 (17)
     |                                               |                |              nm{}: 0x31f-0x32d.7 (15)
0x310|                                             0e|               .|                n: 14 0x31f-0x31f.7 (1)
0x320|75 6e 61 72 79 2d 61 66 74 65 72 2d 62 72      |unary-after-br  |                b: "unary-after-br" 0x320-0x32d.7 (14)
     |                                               |                |              d{}: 0x32e-0x32f.7 (2)
0x320|                                          00   |              . |                tag: "funcidx" (0x0) 0x32e-0x32e.7 (1)
0x320|                                             19|               .|                x: 25 0x32f-0x32f.7 (1)
     |                                               |                |            [26]{}: ex 0x330-0x343.7 (20)
     |                                               |                |              nm{}: 0x330-0x341.7 (18)
0x330|11                                             |.               |                n: 17 0x330-0x330.7 (1)
0x330|   75 6e 61 72 79 2d 61 66 74 65 72 2d 62 72 5f| unary-after-br_|                b: "unary-after-br_if" 0x331-0x341.7 (17)
0x340|69 66                                          |if              |
     |                                               |                |              d{}: 0x342-0x343.7 (2)
0x340|      00                                       |  .             |                tag: "funcidx" (0x0) 0x342-0x342.7 (1)
0x340|         1a                                    |   .            |                x: 26 0x343-0x343.7 (1)
     |                                               |                |            [27]{}: ex 0x344-0x35a.7 (23)
     |                                               |                |              nm{}: 0x344-0x358.7 (21)
0x340|            14                                 |    .           |                n: 20 0x344-0x344.7 (1)
0x340|               75 6e 61 72 79 2d 61 66 74 65 72|     unary-after|                b: "unary-after-br_table" 0x345-0x358.7 (20)
0x350|2d 62 72 5f 74 61 62 6c 65                     |-br_table       |
     |                                               |                |              d{}: 0x359-0x35a.7 (2)
0x350|                           00                  |         .      |                tag: "funcidx" (0x0) 0x359-0x359.7 (1)
0x350|                              1b               |          .     |                x: 27 0x35a-0x35a.7 (1)
     |                                               |                |            [28]{}: ex 0x35b-0x36f.7 (21)
     |                                               |                |              nm{}: 0x35b-0x36d.7 (19)
0x350|                                 12            |           .    |                n: 18 0x35b-0x35b.7 (1)
0x350|                                    75 6e 61 72|            unar|                b: "unary-after-return" 0x35c-0x36d.7 (18)
0x360|79 2d 61 66 74 65 72 2d 72 65 74 75 72 6e      |y-after-return  |
     |                                               |                |              d{}: 0x36e-0x36f.7 (2)
0x360|                                          00   |              . |                tag: "funcidx" (0x0) 0x36e-0x36e.7 (1)
0x360|                                             1c|               .|                x: 28 0x36f-0x36f.7 (1)
     |                                               |                |            [29]{}: ex 0x370-0x38a.7 (27)
     |                                               |                |              nm{}: 0x370-0x388.7 (25)
0x370|18                                             |.               |                n: 24 0x370-0x370.7 (1)
0x370|   62 69 6e 61 72 79 2d 61 66 74 65 72 2d 75 6e| binary-after-un|                b: "binary-after-unreachable" 0x371-0x388.7 (24)
0x380|72 65 61 63 68 61 62 6c 65                     |reachable       |
     |                                               |                |              d{}: 0x389-0x38a.7 (2)
0x380|                           00                  |         .      |                tag: "funcidx" (0x0) 0x389-0x389.7 (1)
0x380|                              1d               |          .     |                x: 29 0x38a-0x38a.7 (1)
     |                                               |                |            [30]{}: ex 0x38b-0x39c.7 (18)
     |                                               |                |              nm{}: 0x38b-0x39a.7 (16)
0x380|                                 0f            |           .    |                n: 15 0x38b-0x38b.7 (1)
0x380|                                    62 69 6e 61|            bina|                b: "binary-after-br" 0x38c-0x39a.7 (15)
0x390|72 79 2d 61 66 74 65 72 2d 62 72               |ry-after-br     |
     |                                               |                |              d{}: 0x39b-0x39c.7 (2)
0x390|                                 00            |           .    |                tag: "funcidx" (0x0) 0x39b-0x39b.7 (1)
0x390|                                    1e         |            .   |                x: 30 0x39c-0x39c.7 (1)
     |                                               |                |            [31]{}: ex 0x39d-0x3b1.7 (21)
     |                                               |                |              nm{}: 0x39d-0x3af.7 (19)
0x390|                                       12      |             .  |                n: 18 0x39d-0x39d.7 (1)
0x390|                                          62 69|              bi|                b: "binary-after-br_if" 0x39e-0x3af.7 (18)
0x3a0|6e 61 72 79 2d 61 66 74 65 72 2d 62 72 5f 69 66|nary-after-br_if|
     |                                               |                |              d{}: 0x3b0-0x3b1.7 (2)
0x3b0|00                                             |.               |                tag: "funcidx" (0x0) 0x3b0-0x3b0.7 (1)
0x3b0|   1f                                          | .              |                x: 31 0x3b1-0x3b1.7 (1)
     |                                               |                |            [32]{}: ex 0x3b2-0x3c9.7 (24)
     |                                               |                |              nm{}: 0x3b2-0x3c7.7 (22)
0x3b0|      15                                       |  .             |                n: 21 0x3b2-0x3b2.7 (1)
0x3b0|         62 69 6e 61 72 79 2d 61 66 74 65 72 2d|   binary-after-|                b: "binary-after-br_table" 0x3b3-0x3c7.7 (21)
0x3c0|62 72 5f 74 61 62 6c 65                        |br_table        |
     |                                               |                |              d{}: 0x3c8-0x3c9.7 (2)
0x3c0|                        00                     |        .       |                tag: "funcidx" (0x0) 0x3c8-0x3c8.7 (1)
0x3c0|                           20                  |                |                x: 32 0x3c9-0x3c9.7 (1)
     |                                               |                |            [33]{}: ex 0x3ca-0x3df.7 (22)
     |                                               |                |              nm{}: 0x3ca-0x3dd.7 (20)
0x3c0|                              13               |          .     |                n: 19 0x3ca-0x3ca.7 (1)
0x3c0|                                 62 69 6e 61 72|           binar|                b: "binary-after-return" 0x3cb-0x3dd.7 (19)
0x3d0|79 2d 61 66 74 65 72 2d 72 65 74 75 72 6e      |y-after-return  |
     |                                               |                |              d{}: 0x3de-0x3df.7 (2)
0x3d0|                                          00   |              . |                tag: "funcidx" (0x0) 0x3de-0x3de.7 (1)
0x3d0|                                             21|               !|                x: 33 0x3df-0x3df.7 (1)
     |                                               |                |            [34]{}: ex 0x3e0-0x3fa.7 (27)
     |                                               |                |              nm{}: 0x3e0-0x3f8.7 (25)
0x3e0|18                                             |.               |                n: 24 0x3e0-0x3e0.7 (1)
0x3e0|   73 65 6c 65 63 74 2d 61 66 74 65 72 2d 75 6e| select-after-un|                b: "select-after-unreachable" 0x3e1-0x3f8.7 (24)
0x3f0|72 65 61 63 68 61 62 6c 65                     |reachable       |
     |                                               |                |              d{}: 0x3f9-0x3fa.7 (2)
0x3f0|                           00                  |         .      |                tag: "funcidx" (0x0) 0x3f9-0x3f9.7 (1)
0x3f0|                              22               |          "     |                x: 34 0x3fa-0x3fa.7 (1)
     |                                               |                |            [35]{}: ex 0x3fb-0x40c.7 (18)
     |                                               |                |              nm{}: 0x3fb-0x40a.7 (16)
0x3f0|                                 0f            |           .    |                n: 15 0x3fb-0x3fb.7 (1)
0x3f0|                                    73 65 6c 65|            sele|                b: "select-after-br" 0x3fc-0x40a.7 (15)
0x400|63 74 2d 61 66 74 65 72 2d 62 72               |ct-after-br     |
     |                                               |                |              d{}: 0x40b-0x40c.7 (2)
0x400|                                 00            |           .    |                tag: "funcidx" (0x0) 0x40b-0x40b.7 (1)
0x400|                                    23         |            #   |                x: 35 0x40c-0x40c.7 (1)
     |                                               |                |            [36]{}: ex 0x40d-0x421.7 (21)
     |                                               |                |              nm{}: 0x40d-0x41f.7 (19)
0x400|                                       12      |             .  |                n: 18 0x40d-0x40d.7 (1)
0x400|                                          73 65|              se|                b: "select-after-br_if" 0x40e-0x41f.7 (18)
0x410|6c 65 63 74 2d 61 66 74 65 72 2d 62 72 5f 69 66|lect-after-br_if|
     |                                               |                |              d{}: 0x420-0x421.7 (2)
0x420|00                                             |.               |                tag: "funcidx" (0x0) 0x420-0x420.7 (1)
0x420|   24                                          | $              |                x: 36 0x421-0x421.7 (1)
     |                                               |                |            [37]{}: ex 0x422-0x439.7 (24)
     |                                               |                |              nm{}: 0x422-0x437.7 (22)
0x420|      15                                       |  .             |                n: 21 0x422-0x422.7 (1)
0x420|         73 65 6c 65 63 74 2d 61 66 74 65 72 2d|   select-after-|                b: "select-after-br_table" 0x423-0x437.7 (21)
0x430|62 72 5f 74 61 62 6c 65                        |br_table        |
     |                                               |                |              d{}: 0x438-0x439.7 (2)
0x430|                        00                     |        .       |                tag: "funcidx" (0x0) 0x438-0x438.7 (1)
0x430|                           25                  |         %      |                x: 37 0x439-0x439.7 (1)
     |                                               |                |            [38]{}: ex 0x43a-0x44f.7 (22)
     |                                               |                |              nm{}: 0x43a-0x44d.7 (20)
0x430|                              13               |          .     |                n: 19 0x43a-0x43a.7 (1)
0x430|                                 73 65 6c 65 63|           selec|                b: "select-after-return" 0x43b-0x44d.7 (19)
0x440|74 2d 61 66 74 65 72 2d 72 65 74 75 72 6e      |t-after-return  |
     |                                               |                |              d{}: 0x44e-0x44f.7 (2)
0x440|                                          00   |              . |                tag: "funcidx" (0x0) 0x44e-0x44e.7 (1)
0x440|                                             26|               &|                x: 38 0x44f-0x44f.7 (1)
     |                                               |                |            [39]{}: ex 0x450-0x46f.7 (32)
     |                                               |                |              nm{}: 0x450-0x46d.7 (30)
0x450|1d                                             |.               |                n: 29 0x450-0x450.7 (1)
0x450|   62 6c 6f 63 6b 2d 76 61 6c 75 65 2d 61 66 74| block-value-aft|                b: "block-value-after-unreachable" 0x451-0x46d.7 (29)
0x460|65 72 2d 75 6e 72 65 61 63 68 61 62 6c 65      |er-unreachable  |
     |                                               |                |              d{}: 0x46e-0x46f.7 (2)
0x460|                                          00   |              . |                tag: "funcidx" (0x0) 0x46e-0x46e.7 (1)
0x460|                                             27|               '|                x: 39 0x46f-0x46f.7 (1)
     |                                               |                |            [40]{}: ex 0x470-0x486.7 (23)
     |                                               |                |              nm{}: 0x470-0x484.7 (21)
0x470|14                                             |.               |                n: 20 0x470-0x470.7 (1)
0x470|   62 6c 6f 63 6b 2d 76 61 6c 75 65 2d 61 66 74| block-value-aft|                b: "block-value-after-br" 0x471-0x484.7 (20)
0x480|65 72 2d 62 72                                 |er-br           |
     |                                               |                |              d{}: 0x485-0x486.7 (2)
0x480|               00                              |     .          |                tag: "funcidx" (0x0) 0x485-0x485.7 (1)
0x480|                  28                           |      (         |                x: 40 0x486-0x486.7 (1)
     |                                               |                |            [41]{}: ex 0x487-0x4a0.7 (26)
     |                                               |                |              nm{}: 0x487-0x49e.7 (24)
0x480|                     17                        |       .        |                n: 23 0x487-0x487.7 (1)
0x480|                        62 6c 6f 63 6b 2d 76 61|        block-va|                b: "block-value-after-br_if" 0x488-0x49e.7 (23)
0x490|6c 75 65 2d 61 66 74 65 72 2d 62 72 5f 69 66   |lue-after-br_if |
     |                                               |                |              d{}: 0x49f-0x4a0.7 (2)
0x490|                                             00|               .|                tag: "funcidx" (0x0) 0x49f-0x49f.7 (1)
0x4a0|29                                             |)               |                x: 41 0x4a0-0x4a0.7 (1)
     |                                               |                |            [42]{}: ex 0x4a1-0x4bd.7 (29)
     |                                               |                |              nm{}: 0x4a1-0x4bb.7 (27)
0x4a0|   1a                                          | .              |                n: 26 0x4a1-0x4a1.7 (1)
0x4a0|      62 6c 6f 63 6b 2d 76 61 6c 75 65 2d 61 66|  block-value-af|                b: "block-value-after-br_table" 0x4a2-0x4bb.7 (26)
0x4b0|74 65 72 2d 62 72 5f 74 61 62 6c 65            |ter-br_table    |
     |                                               |                |              d{}: 0x4bc-0x4bd.7 (2)
0x4b0|                                    00         |            .   |                tag: "funcidx" (0x0) 0x4bc-0x4bc.7 (1)
0x4b0|                                       2a      |             *  |                x: 42 0x4bd-0x4bd.7 (1)
     |                                               |                |            [43]{}: ex 0x4be-0x4d8.7 (27)
     |                                               |                |              nm{}: 0x4be-0x4d6.7 (25)
0x4b0|                                          18   |              . |                n: 24 0x4be-0x4be.7 (1)
0x4b0|                                             62|               b|                b: "block-value-after-return" 0x4bf-0x4d6.7 (24)
0x4c0|6c 6f 63 6b 2d 76 61 6c 75 65 2d 61 66 74 65 72|lock-value-after|
0x4d0|2d 72 65 74 75 72 6e                           |-return         |
     |                                               |                |              d{}: 0x4d7-0x4d8.7 (2)
0x4d0|                     00                        |       .        |                tag: "funcidx" (0x0) 0x4d7-0x4d7.7 (1)
0x4d0|                        2b                     |        +       |                x: 43 0x4d8-0x4d8.7 (1)
     |                                               |                |            [44]{}: ex 0x4d9-0x4f7.7 (31)
     |                                               |                |              nm{}: 0x4d9-0x4f5.7 (29)
0x4d0|                           1c                  |         .      |                n: 28 0x4d9-0x4d9.7 (1)
0x4d0|                              6c 6f 6f 70 2d 76|          loop-v|                b: "loop-value-after-unreachable" 0x4da-0x4f5.7 (28)
0x4e0|61 6c 75 65 2d 61 66 74 65 72 2d 75 6e 72 65 61|alue-after-unrea|
0x4f0|63 68 61 62 6c 65                              |chable          |
     |                                               |                |              d{}: 0x4f6-0x4f7.7 (2)
0x4f0|                  00                           |      .         |                tag: "funcidx" (0x0) 0x4f6-0x4f6.7 (1)
0x4f0|                     2c                        |       ,        |                x: 44 0x4f7-0x4f7.7 (1)
     |                                               |                |            [45]{}: ex 0x4f8-0x50d.7 (22)
     |                                               |                |              nm{}: 0x4f8-0x50b.7 (20)
0x4f0|                        13                     |        .       |                n: 19 0x4f8-0x4f8.7 (1)
0x4f0|                           6c 6f 6f 70 2d 76 61|         loop-va|                b: "loop-value-after-br" 0x4f9-0x50b.7 (19)
0x500|6c 75 65 2d 61 66 74 65 72 2d 62 72            |lue-after-br    |
     |                                               |                |              d{}: 0x50c-0x50d.7 (2)
0x500|                                    00         |            .   |                tag: "funcidx" (0x0) 0x50c-0x50c.7 (1)
0x500|                                       2d      |             -  |                x: 45 0x50d-0x50d.7 (1)
     |                                               |                |            [46]{}: ex 0x50e-0x526.7 (25)
     |                                               |                |              nm{}: 0x50e-0x524.7 (23)
0x500|                                          16   |              . |                n: 22 0x50e-0x50e.7 (1)
0x500|                                             6c|               l|                b: "loop-value-after-br_if" 0x50f-0x524.7 (22)
0x510|6f 6f 70 2d 76 61 6c 75 65 2d 61 66 74 65 72 2d|oop-value-after-|
0x520|62 72 5f 69 66                                 |br_if           |
     |                                               |                |              d{}: 0x525-0x526.7 (2)
0x520|               00                              |     .          |                tag: "funcidx" (0x0) 0x525-0x525.7 (1)
0x520|                  2e                           |      .         |                x: 46 0x526-0x526.7 (1)
     |                                               |                |            [47]{}: ex 0x527-0x542.7 (28)
     |                                               |                |              nm{}: 0x527-0x540.7 (26)
0x520|                     19                        |       .        |                n: 25 0x527-0x527.7 (1)
0x520|                        6c 6f 6f 70 2d 76 61 6c|        loop-val|                b: "loop-value-after-br_table" 0x528-0x540.7 (25)
0x530|75 65 2d 61 66 74 65 72 2d 62 72 5f 74 61 62 6c|ue-after-br_tabl|
0x540|65                                             |e               |
     |                                               |                |              d{}: 0x541-0x542.7 (2)
0x540|   00                                          | .              |                tag: "funcidx" (0x0) 0x541-0x541.7 (1)
0x540|      2f                                       |  /             |                x: 47 0x542-0x542.7 (1)
     |                                               |                |            [48]{}: ex 0x543-0x55c.7 (26)
     |                                               |                |              nm{}: 0x543-0x55a.7 (24)
0x540|         17                                    |   .            |                n: 23 0x543-0x543.7 (1)
0x540|            6c 6f 6f 70 2d 76 61 6c 75 65 2d 61|    loop-value-a|                b: "loop-value-after-return" 0x544-0x55a.7 (23)
0x550|66 74 65 72 2d 72 65 74 75 72 6e               |fter-return     |
     |                                               |                |              d{}: 0x55b-0x55c.7 (2)
0x550|                                 00            |           .    |                tag: "funcidx" (0x0) 0x55b-0x55b.7 (1)
0x550|                                    30         |            0   |                x: 48 0x55c-0x55c.7 (1)
     |                                               |                |    [3]{}: section 0x55d-0x89b.7 (831)
0x550|                                       0a      |             .  |      id: "code section" (10) 0x55d-0x55d.7 (1)
0x550|                                          bc 06|              ..|      size: 828 0x55e-0x55f.7 (2)
     |                                               |                |      content{}: 0x560-0x89b.7 (828)
     |                                               |                |        code{}: 0x560-0x89b.7 (828)
0x560|31                                             |1               |          n: 49 0x560-0x560.7 (1)
     |                                               |                |          x[0:49]: 0x561-0x89b.7 (827)
     |                                               |                |            [0]{}: code 0x561-0x568.7 (8)
0x560|   07                                          | .              |              size: 7 0x561-0x561.7 (1)
     |                                               |                |              code{}: 0x562-0x568.7 (7)
     |                                               |                |                t{}: 0x562-0x562.7 (1)
0x560|      00                                       |  .             |                  n: 0 0x562-0x562.7 (1)
     |                                               |                |                  x[0:0]: 0x563-NA (0)
     |                                               |                |                e[0:4]: 0x563-0x568.7 (6)
     |                                               |                |                  [0]{}: in 0x563-0x564.7 (2)
0x560|         41                                    |   A            |                    i32.const: 0x41 (valid) 0x563-0x563.7 (1)
0x560|            03                                 |    .           |                    n: 3 0x564-0x564.7 (1)
     |                                               |                |                  [1]{}: in 0x565-0x566.7 (2)
0x560|               42                              |     B          |                    i64.const: 0x42 (valid) 0x565-0x565.7 (1)
0x560|                  01                           |      .         |                    n: 1 0x566-0x566.7 (1)
     |                                               |                |                  [2]{}: in 0x567-0x567.7 (1)
0x560|                     00                        |       .        |                    unreachable: 0x0 (valid) 0x567-0x567.7 (1)
     |                                               |                |                  [3]{}: in 0x568-0x568.7 (1)
0x560|                        0b                     |        .       |                    end: 0xb (valid) 0x568-0x568.7 (1)
     |                                               |                |            [1]{}: code 0x569-0x571.7 (9)
0x560|                           08                  |         .      |              size: 8 0x569-0x569.7 (1)
     |                                               |                |              code{}: 0x56a-0x571.7 (8)
     |                                               |                |                t{}: 0x56a-0x56a.7 (1)
0x560|                              00               |          .     |                  n: 0 0x56a-0x56a.7 (1)
     |                                               |                |                  x[0:0]: 0x56b-NA (0)
     |                                               |                |                e[0:4]: 0x56b-0x571.7 (7)
     |                                               |                |                  [0]{}: in 0x56b-0x56c.7 (2)
0x560|                                 41            |           A    |                    i32.const: 0x41 (valid) 0x56b-0x56b.7 (1)
0x560|                                    03         |            .   |                    n: 3 0x56c-0x56c.7 (1)
     |                                               |                |                  [1]{}: in 0x56d-0x56e.7 (2)
0x560|                                       42      |             B  |                    i64.const: 0x42 (valid) 0x56d-0x56d.7 (1)
0x560|                                          01   |              . |                    n: 1 0x56e-0x56e.7 (1)
     |                                               |                |                  [2]{}: in 0x56f-0x570.7 (2)
0x560|                                             0c|               .|                    br: 0xc (valid) 0x56f-0x56f.7 (1)
0x570|00                                             |.               |                    l: 0 0x570-0x570.7 (1)
     |                                               |                |                  [3]{}: in 0x571-0x571.7 (1)
0x570|   0b                                          | .              |                    end: 0xb (valid) 0x571-0x571.7 (1)
     |                                               |                |            [2]{}: code 0x572-0x57c.7 (11)
0x570|      0a                                       |  .             |              size: 10 0x572-0x572.7 (1)
     |                                               |                |              code{}: 0x573-0x57c.7 (10)
     |                                               |                |                t{}: 0x573-0x573.7 (1)
0x570|         00                                    |   .            |                  n: 0 0x573-0x573.7 (1)
     |                                               |                |                  x[0:0]: 0x574-NA (0)
     |                                               |                |                e[0:5]: 0x574-0x57c.7 (9)
     |                                               |                |                  [0]{}: in 0x574-0x575.7 (2)
0x570|            41                                 |    A           |                    i32.const: 0x41 (valid) 0x574-0x574.7 (1)
0x570|               03                              |     .          |                    n: 3 0x575-0x575.7 (1)
     |                                               |                |                  [1]{}: in 0x576-0x577.7 (2)
0x570|                  42                           |      B         |                    i64.const: 0x42 (valid) 0x576-0x576.7 (1)
0x570|                     01                        |       .        |                    n: 1 0x577-0x577.7 (1)
     |                                               |                |                  [2]{}: in 0x578-0x579.7 (2)
0x570|                        41                     |        A       |                    i32.const: 0x41 (valid) 0x578-0x578.7 (1)
0x570|                           09                  |         .      |                    n: 9 0x579-0x579.7 (1)
     |                                               |                |                  [3]{}: in 0x57a-0x57b.7 (2)
0x570|                              0c               |          .     |                    br: 0xc (valid) 0x57a-0x57a.7 (1)
0x570|                                 00            |           .    |                    l: 0 0x57b-0x57b.7 (1)
     |                                               |                |                  [4]{}: in 0x57c-0x57c.7 (1)
0x570|                                    0b         |            .   |                    end: 0xb (valid) 0x57c-0x57c.7 (1)
     |                                               |                |            [3]{}: code 0x57d-0x589.7 (13)
0x570|                                       0c      |             .  |              size: 12 0x57d-0x57d.7 (1)
     |                                               |                |              code{}: 0x57e-0x589.7 (12)
     |                                               |                |                t{}: 0x57e-0x57e.7 (1)
0x570|                                          00   |              . |                  n: 0 0x57e-0x57e.7 (1)
     |                                               |                |                  x[0:0]: 0x57f-NA (0)
     |                                               |                |                e[0:7]: 0x57f-0x589.7 (11)
     |                                               |                |                  [0]{}: in 0x57f-0x580.7 (2)
0x570|                                             41|               A|                    i32.const: 0x41 (valid) 0x57f-0x57f.7 (1)
0x580|03                                             |.               |                    n: 3 0x580-0x580.7 (1)
     |                                               |                |                  [1]{}: in 0x581-0x582.7 (2)
0x580|   42                                          | B              |                    i64.const: 0x42 (valid) 0x581-0x581.7 (1)
0x580|      01                                       |  .             |                    n: 1 0x582-0x582.7 (1)
     |                                               |                |                  [2]{}: in 0x583-0x584.7 (2)
0x580|         41                                    |   A            |                    i32.const: 0x41 (valid) 0x583-0x583.7 (1)
0x580|            01                                 |    .           |                    n: 1 0x584-0x584.7 (1)
     |                                               |                |                  [3]{}: in 0x585-0x586.7 (2)
0x580|               0d                              |     .          |                    br_if: 0xd (valid) 0x585-0x585.7 (1)
0x580|                  00                           |      .         |                    l: 0 0x586-0x586.7 (1)
     |                                               |                |                  [4]{}: in 0x587-0x587.7 (1)
0x580|                     1a                        |       .        |                    drop: 0x1a (valid) 0x587-0x587.7 (1)
     |                                               |                |                  [5]{}: in 0x588-0x588.7 (1)
0x580|                        1a                     |        .       |                    drop: 0x1a (valid) 0x588-0x588.7 (1)
     |                                               |                |                  [6]{}: in 0x589-0x589.7 (1)
0x580|                           0b                  |         .      |                    end: 0xb (valid) 0x589-0x589.7 (1)
     |                                               |                |            [4]{}: code 0x58a-0x598.7 (15)
0x580|                              0e               |          .     |              size: 14 0x58a-0x58a.7 (1)
     |                                               |                |              code{}: 0x58b-0x598.7 (14)
     |                                               |                |                t{}: 0x58b-0x58b.7 (1)
0x580|                                 00            |           .    |                  n: 0 0x58b-0x58b.7 (1)
     |                                               |                |                  x[0:0]: 0x58c-NA (0)
     |                                               |                |                e[0:8]: 0x58c-0x598.7 (13)
     |                                               |                |                  [0]{}: in 0x58c-0x58d.7 (2)
0x580|                                    41         |            A   |                    i32.const: 0x41 (valid) 0x58c-0x58c.7 (1)
0x580|                                       03      |             .  |                    n: 3 0x58d-0x58d.7 (1)
     |                                               |                |                  [1]{}: in 0x58e-0x58f.7 (2)
0x580|                                          42   |              B |                    i64.const: 0x42 (valid) 0x58e-0x58e.7 (1)
0x580|                                             01|               .|                    n: 1 0x58f-0x58f.7 (1)
     |                                               |                |                  [2]{}: in 0x590-0x591.7 (2)
0x590|41                                             |A               |                    i32.const: 0x41 (valid) 0x590-0x590.7 (1)
0x590|   09                                          | .              |                    n: 9 0x591-0x591.7 (1)
     |                                               |                |                  [3]{}: in 0x592-0x593.7 (2)
0x590|      41                                       |  A             |                    i32.const: 0x41 (valid) 0x592-0x592.7 (1)
0x590|         01                                    |   .            |                    n: 1 0x593-0x593.7 (1)
     |                                               |                |                  [4]{}: in 0x594-0x595.7 (2)
0x590|            0d                                 |    .           |                    br_if: 0xd (valid) 0x594-0x594.7 (1)
0x590|               00                              |     .          |                    l: 0 0x595-0x595.7 (1)
     |                                               |                |                  [5]{}: in 0x596-0x596.7 (1)
0x590|                  1a                           |      .         |                    drop: 0x1a (valid) 0x596-0x596.7 (1)
     |                                               |                |                  [6]{}: in 0x597-0x597.7 (1)
0x590|                     1a                        |       .        |                    drop: 0x1a (valid) 0x597-0x597.7 (1)
     |                                               |                |                  [7]{}: in 0x598-0x598.7 (1)
0x590|                        0b                     |        .       |                    end: 0xb (valid) 0x598-0x598.7 (1)
     |                                               |                |            [5]{}: code 0x599-0x5a4.7 (12)
0x590|                           0b                  |         .      |              size: 11 0x599-0x599.7 (1)
     |                                               |                |              code{}: 0x59a-0x5a4.7 (11)
     |                                               |                |                t{}: 0x59a-0x59a.7 (1)
0x590|                              00               |          .     |                  n: 0 0x59a-0x59a.7 (1)
     |                                               |                |                  x[0:0]: 0x59b-NA (0)
     |                                               |                |                e[0:5]: 0x59b-0x5a4.7 (10)
     |                                               |                |                  [0]{}: in 0x59b-0x59c.7 (2)
0x590|                                 41            |           A    |                    i32.const: 0x41 (valid) 0x59b-0x59b.7 (1)
0x590|                                    03         |            .   |                    n: 3 0x59c-0x59c.7 (1)
     |                                               |                |                  [1]{}: in 0x59d-0x59e.7 (2)
0x590|                                       42      |             B  |                    i64.const: 0x42 (valid) 0x59d-0x59d.7 (1)
0x590|                                          01   |              . |                    n: 1 0x59e-0x59e.7 (1)
     |                                               |                |                  [2]{}: in 0x59f-0x5a0.7 (2)
0x590|                                             41|               A|                    i32.const: 0x41 (valid) 0x59f-0x59f.7 (1)
0x5a0|00                                             |.               |                    n: 0 0x5a0-0x5a0.7 (1)
     |                                               |                |                  [3]{}: in 0x5a1-0x5a3.7 (3)
0x5a0|   0e                                          | .              |                    br_table: 0xe (valid) 0x5a1-0x5a1.7 (1)
     |                                               |                |                    l{}: 0x5a2-0x5a2.7 (1)
0x5a0|      00                                       |  .             |                      n: 0 0x5a2-0x5a2.7 (1)
     |                                               |                |                      x[0:0]: 0x5a3-NA (0)
0x5a0|         00                                    |   .            |                    lN: 0 0x5a3-0x5a3.7 (1)
     |                                               |                |                  [4]{}: in 0x5a4-0x5a4.7 (1)
0x5a0|            0b                                 |    .           |                    end: 0xb (valid) 0x5a4-0x5a4.7 (1)
     |                                               |                |            [6]{}: code 0x5a5-0x5b2.7 (14)
0x5a0|               0d                              |     .          |              size: 13 0x5a5-0x5a5.7 (1)
     |                                               |                |              code{}: 0x5a6-0x5b2.7 (13)
     |                                               |                |                t{}: 0x5a6-0x5a6.7 (1)
0x5a0|                  00                           |      .         |                  n: 0 0x5a6-0x5a6.7 (1)
     |                                               |                |                  x[0:0]: 0x5a7-NA (0)
     |                                               |                |                e[0:6]: 0x5a7-0x5b2.7 (12)
     |                                               |                |                  [0]{}: in 0x5a7-0x5a8.7 (2)
0x5a0|                     41                        |       A        |                    i32.const: 0x41 (valid) 0x5a7-0x5a7.7 (1)
0x5a0|                        03                     |        .       |                    n: 3 0x5a8-0x5a8.7 (1)
     |                                               |                |                  [1]{}: in 0x5a9-0x5aa.7 (2)
0x5a0|                           42                  |         B      |                    i64.const: 0x42 (valid) 0x5a9-0x5a9.7 (1)
0x5a0|                              01               |          .     |                    n: 1 0x5aa-0x5aa.7 (1)
     |                                               |                |                  [2]{}: in 0x5ab-0x5ac.7 (2)
0x5a0|                                 41            |           A    |                    i32.const: 0x41 (valid) 0x5ab-0x5ab.7 (1)
0x5a0|                                    09         |            .   |                    n: 9 0x5ac-0x5ac.7 (1)
     |                                               |                |                  [3]{}: in 0x5ad-0x5ae.7 (2)
0x5a0|                                       41      |             A  |                    i32.const: 0x41 (valid) 0x5ad-0x5ad.7 (1)
0x5a0|                                          00   |              . |                    n: 0 0x5ae-0x5ae.7 (1)
     |                                               |                |                  [4]{}: in 0x5af-0x5b1.7 (3)
0x5a0|                                             0e|               .|                    br_table: 0xe (valid) 0x5af-0x5af.7 (1)
     |                                               |                |                    l{}: 0x5b0-0x5b0.7 (1)
0x5b0|00                                             |.               |                      n: 0 0x5b0-0x5b0.7 (1)
     |                                               |                |                      x[0:0]: 0x5b1-NA (0)
0x5b0|   00                                          | .              |                    lN: 0 0x5b1-0x5b1.7 (1)
     |                                               |                |                  [5]{}: in 0x5b2-0x5b2.7 (1)
0x5b0|      0b                                       |  .             |                    end: 0xb (valid) 0x5b2-0x5b2.7 (1)
     |                                               |                |            [7]{}: code 0x5b3-0x5bc.7 (10)
0x5b0|         09                                    |   .            |              size: 9 0x5b3-0x5b3.7 (1)
     |                                               |                |              code{}: 0x5b4-0x5bc.7 (9)
     |                                               |                |                t{}: 0x5b4-0x5b4.7 (1)
0x5b0|            00                                 |    .           |                  n: 0 0x5b4-0x5b4.7 (1)
     |                                               |                |                  x[0:0]: 0x5b5-NA (0)
     |                                               |                |                e[0:5]: 0x5b5-0x5bc.7 (8)
     |                                               |                |                  [0]{}: in 0x5b5-0x5b6.7 (2)
0x5b0|               41                              |     A          |                    i32.const: 0x41 (valid) 0x5b5-0x5b5.7 (1)
0x5b0|                  03                           |      .         |                    n: 3 0x5b6-0x5b6.7 (1)
     |                                               |                |                  [1]{}: in 0x5b7-0x5b8.7 (2)
0x5b0|                     42                        |       B        |                    i64.const: 0x42 (valid) 0x5b7-0x5b7.7 (1)
0x5b0|                        01                     |        .       |                    n: 1 0x5b8-0x5b8.7 (1)
     |                                               |                |                  [2]{}: in 0x5b9-0x5ba.7 (2)
0x5b0|                           41                  |         A      |                    i32.const: 0x41 (valid) 0x5b9-0x5b9.7 (1)
0x5b0|                              09               |          .     |                    n: 9 0x5ba-0x5ba.7 (1)
     |                                               |                |                  [3]{}: in 0x5bb-0x5bb.7 (1)
0x5b0|                                 0f            |           .    |                    return: 0xf (valid) 0x5bb-0x5bb.7 (1)
     |                                               |                |                  [4]{}: in 0x5bc-0x5bc.7 (1)
0x5b0|                                    0b         |            .   |                    end: 0xb (valid) 0x5bc-0x5bc.7 (1)
     |                                               |                |            [8]{}: code 0x5bd-0x5c7.7 (11)
0x5b0|                                       0a      |             .  |              size: 10 0x5bd-0x5bd.7 (1)
     |                                               |                |              code{}: 0x5be-0x5c7.7 (10)
     |                                               |                |                t{}: 0x5be-0x5be.7 (1)
0x5b0|                                          00   |              . |                  n: 0 0x5be-0x5be.7 (1)
     |                                               |                |                  x[0:0]: 0x5bf-NA (0)
     |                                               |                |                e[0:2]: 0x5bf-0x5c7.7 (9)
     |                                               |                |                  [0]{}: in 0x5bf-0x5c6.7 (8)
0x5b0|                                             02|               .|                    block: 0x2 (valid) 0x5bf-0x5bf.7 (1)
0x5c0|40                                             |@               |                    bt: "ε" (64) 0x5c0-0x5c0.7 (1)
     |                                               |                |                    instructions[0:3]: 0x5c1-0x5c5.7 (5)
     |                                               |                |                      [0]{}: instr 0x5c1-0x5c2.7 (2)
0x5c0|   41                                          | A              |                        i32.const: 0x41 (valid) 0x5c1-0x5c1.7 (1)
0x5c0|      03                                       |  .             |                        n: 3 0x5c2-0x5c2.7 (1)
     |                                               |                |                      [1]{}: instr 0x5c3-0x5c4.7 (2)
0x5c0|         42                                    |   B            |                        i64.const: 0x42 (valid) 0x5c3-0x5c3.7 (1)
0x5c0|            01                                 |    .           |                        n: 1 0x5c4-0x5c4.7 (1)
     |                                               |                |                      [2]{}: instr 0x5c5-0x5c5.7 (1)
0x5c0|               00                              |     .          |                        unreachable: 0x0 (valid) 0x5c5-0x5c5.7 (1)
0x5c0|                  0b                           |      .         |                    end: 11 (valid) 0x5c6-0x5c6.7 (1)
     |                                               |                |                  [1]{}: in 0x5c7-0x5c7.7 (1)
0x5c0|                     0b                        |       .        |                    end: 0xb (valid) 0x5c7-0x5c7.7 (1)
     |                                               |                |            [9]{}: code 0x5c8-0x5d5.7 (14)
0x5c0|                        0d                     |        .       |              size: 13 0x5c8-0x5c8.7 (1)
     |                                               |                |              code{}: 0x5c9-0x5d5.7 (13)
     |                                               |                |                t{}: 0x5c9-0x5c9.7 (1)
0x5c0|                           00                  |         .      |                  n: 0 0x5c9-0x5c9.7 (1)
     |                                               |                |                  x[0:0]: 0x5ca-NA (0)
     |                                               |                |                e[0:3]: 0x5ca-0x5d5.7 (12)
     |                                               |                |                  [0]{}: in 0x5ca-0x5d2.7 (9)
0x5c0|                              02               |          .     |                    block: 0x2 (valid) 0x5ca-0x5ca.7 (1)
0x5c0|                                 40            |           @    |                    bt: "ε" (64) 0x5cb-0x5cb.7 (1)
     |                                               |                |                    instructions[0:3]: 0x5cc-0x5d1.7 (6)
     |                                               |                |                      [0]{}: instr 0x5cc-0x5cd.7 (2)
0x5c0|                                    41         |            A   |                        i32.const: 0x41 (valid) 0x5cc-0x5cc.7 (1)
0x5c0|                                       03      |             .  |                        n: 3 0x5cd-0x5cd.7 (1)
     |                                               |                |                      [1]{}: instr 0x5ce-0x5cf.7 (2)
0x5c0|                                          42   |              B |                        i64.const: 0x42 (valid) 0x5ce-0x5ce.7 (1)
0x5c0|                                             01|               .|                        n: 1 0x5cf-0x5cf.7 (1)
     |                                               |                |                      [2]{}: instr 0x5d0-0x5d1.7 (2)
0x5d0|0c                                             |.               |                        br: 0xc (valid) 0x5d0-0x5d0.7 (1)
0x5d0|   00                                          | .              |                        l: 0 0x5d1-0x5d1.7 (1)
0x5d0|      0b                                       |  .             |                    end: 11 (valid) 0x5d2-0x5d2.7 (1)
     |                                               |                |                  [1]{}: in 0x5d3-0x5d4.7 (2)
0x5d0|         41                                    |   A            |                    i32.const: 0x41 (valid) 0x5d3-0x5d3.7 (1)
0x5d0|            09                                 |    .           |                    n: 9 0x5d4-0x5d4.7 (1)
     |                                               |                |                  [2]{}: in 0x5d5-0x5d5.7 (1)
0x5d0|               0b                              |     .          |                    end: 0xb (valid) 0x5d5-0x5d5.7 (1)
     |                                               |                |            [10]{}: code 0x5d6-0x5e3.7 (14)
0x5d0|                  0d                           |      .         |              size: 13 0x5d6-0x5d6.7 (1)
     |                                               |                |              code{}: 0x5d7-0x5e3.7 (13)
     |                                               |                |                t{}: 0x5d7-0x5d7.7 (1)
0x5d0|                     00                        |       .        |                  n: 0 0x5d7-0x5d7.7 (1)
     |                                               |                |                  x[0:0]: 0x5d8-NA (0)
     |                                               |                |                e[0:2]: 0x5d8-0x5e3.7 (12)
     |                                               |                |                  [0]{}: in 0x5d8-0x5e2.7 (11)
0x5d0|                        02                     |        .       |                    block: 0x2 (valid) 0x5d8-0x5d8.7 (1)
0x5d0|                           7f                  |         .      |                    bt: "i32" (127) 0x5d9-0x5d9.7 (1)
     |                                               |                |                    instructions[0:4]: 0x5da-0x5e1.7 (8)
     |                                               |                |                      [0]{}: instr 0x5da-0x5db.7 (2)
0x5d0|                              41               |          A     |                        i32.const: 0x41 (valid) 0x5da-0x5da.7 (1)
0x5d0|                                 03            |           .    |                        n: 3 0x5db-0x5db.7 (1)
     |                                               |                |                      [1]{}: instr 0x5dc-0x5dd.7 (2)
0x5d0|                                    42         |            B   |                        i64.const: 0x42 (valid) 0x5dc-0x5dc.7 (1)
0x5d0|                                       01      |             .  |                        n: 1 0x5dd-0x5dd.7 (1)
     |                                               |                |                      [2]{}: instr 0x5de-0x5df.7 (2)
0x5d0|                                          41   |              A |                        i32.const: 0x41 (valid) 0x5de-0x5de.7 (1)
0x5d0|                                             09|               .|                        n: 9 0x5df-0x5df.7 (1)
     |                                               |                |                      [3]{}: instr 0x5e0-0x5e1.7 (2)
0x5e0|0c                                             |.               |                        br: 0xc (valid) 0x5e0-0x5e0.7 (1)
0x5e0|   00                                          | .              |                        l: 0 0x5e1-0x5e1.7 (1)
0x5e0|      0b                                       |  .             |                    end: 11 (valid) 0x5e2-0x5e2.7 (1)
     |                                               |                |                  [1]{}: in 0x5e3-0x5e3.7 (1)
0x5e0|         0b                                    |   .            |                    end: 0xb (valid) 0x5e3-0x5e3.7 (1)
     |                                               |                |            [11]{}: code 0x5e4-0x5f5.7 (18)
0x5e0|            11                                 |    .           |              size: 17 0x5e4-0x5e4.7 (1)
     |                                               |                |              code{}: 0x5e5-0x5f5.7 (17)
     |                                               |                |                t{}: 0x5e5-0x5e5.7 (1)
0x5e0|               00                              |     .          |                  n: 0 0x5e5-0x5e5.7 (1)
     |                                               |                |                  x[0:0]: 0x5e6-NA (0)
     |                                               |                |                e[0:3]: 0x5e6-0x5f5.7 (16)
     |                                               |                |                  [0]{}: in 0x5e6-0x5f2.7 (13)
0x5e0|                  02                           |      .         |                    block: 0x2 (valid) 0x5e6-0x5e6.7 (1)
0x5e0|                     40                        |       @        |                    bt: "ε" (64) 0x5e7-0x5e7.7 (1)
     |                                               |                |                    instructions[0:6]: 0x5e8-0x5f1.7 (10)
     |                                               |                |                      [0]{}: instr 0x5e8-0x5e9.7 (2)
0x5e0|                        41                     |        A       |                        i32.const: 0x41 (valid) 0x5e8-0x5e8.7 (1)
0x5e0|                           03                  |         .      |                        n: 3 0x5e9-0x5e9.7 (1)
     |                                               |                |                      [1]{}: instr 0x5ea-0x5eb.7 (2)
0x5e0|                              42               |          B     |                        i64.const: 0x42 (valid) 0x5ea-0x5ea.7 (1)
0x5e0|                                 01            |           .    |                        n: 1 0x5eb-0x5eb.7 (1)
     |                                               |                |                      [2]{}: instr 0x5ec-0x5ed.7 (2)
0x5e0|                                    41         |            A   |                        i32.const: 0x41 (valid) 0x5ec-0x5ec.7 (1)
0x5e0|                                       01      |             .  |                        n: 1 0x5ed-0x5ed.7 (1)
     |                                               |                |                      [3]{}: instr 0x5ee-0x5ef.7 (2)
0x5e0|                                          0d   |              . |                        br_if: 0xd (valid) 0x5ee-0x5ee.7 (1)
0x5e0|                                             00|               .|                        l: 0 0x5ef-0x5ef.7 (1)
     |                                               |                |                      [4]{}: instr 0x5f0-0x5f0.7 (1)
0x5f0|1a                                             |.               |                        drop: 0x1a (valid) 0x5f0-0x5f0.7 (1)
     |                                               |                |                      [5]{}: instr 0x5f1-0x5f1.7 (1)
0x5f0|   1a                                          | .              |                        drop: 0x1a (valid) 0x5f1-0x5f1.7 (1)
0x5f0|      0b                                       |  .             |                    end: 11 (valid) 0x5f2-0x5f2.7 (1)
     |                                               |                |                  [1]{}: in 0x5f3-0x5f4.7 (2)
0x5f0|         41                                    |   A            |                    i32.const: 0x41 (valid) 0x5f3-0x5f3.7 (1)
0x5f0|            09                                 |    .           |                    n: 9 0x5f4-0x5f4.7 (1)
     |                                               |                |                  [2]{}: in 0x5f5-0x5f5.7 (1)
0x5f0|               0b                              |     .          |                    end: 0xb (valid) 0x5f5-0x5f5.7 (1)
     |                                               |                |            [12]{}: code 0x5f6-0x607.7 (18)
0x5f0|                  11                           |      .         |              size: 17 0x5f6-0x5f6.7 (1)
     |                                               |                |              code{}: 0x5f7-0x607.7 (17)
     |                                               |                |                t{}: 0x5f7-0x5f7.7 (1)
0x5f0|                     00                        |       .        |                  n: 0 0x5f7-0x5f7.7 (1)
     |                                               |                |                  x[0:0]: 0x5f8-NA (0)
     |                                               |                |                e[0:2]: 0x5f8-0x607.7 (16)
     |                                               |                |                  [0]{}: in 0x5f8-0x606.7 (15)
0x5f0|                        02                     |        .       |                    block: 0x2 (valid) 0x5f8-0x5f8.7 (1)
0x5f0|                           7f                  |         .      |                    bt: "i32" (127) 0x5f9-0x5f9.7 (1)
     |                                               |                |                    instructions[0:7]: 0x5fa-0x605.7 (12)
     |                                               |                |                      [0]{}: instr 0x5fa-0x5fb.7 (2)
0x5f0|                              41               |          A     |                        i32.const: 0x41 (valid) 0x5fa-0x5fa.7 (1)
0x5f0|                                 03            |           .    |                        n: 3 0x5fb-0x5fb.7 (1)
     |                                               |                |                      [1]{}: instr 0x5fc-0x5fd.7 (2)
0x5f0|                                    42         |            B   |                        i64.const: 0x42 (valid) 0x5fc-0x5fc.7 (1)
0x5f0|                                       01      |             .  |                        n: 1 0x5fd-0x5fd.7 (1)
     |                                               |                |                      [2]{}: instr 0x5fe-0x5ff.7 (2)
0x5f0|                                          41   |              A |                        i32.const: 0x41 (valid) 0x5fe-0x5fe.7 (1)
0x5f0|                                             09|               .|                        n: 9 0x5ff-0x5ff.7 (1)
     |                                               |                |                      [3]{}: instr 0x600-0x601.7 (2)
0x600|41                                             |A               |                        i32.const: 0x41 (valid) 0x600-0x600.7 (1)
0x600|   01                                          | .              |                        n: 1 0x601-0x601.7 (1)
     |                                               |                |                      [4]{}: instr 0x602-0x603.7 (2)
0x600|      0d                                       |  .             |                        br_if: 0xd (valid) 0x602-0x602.7 (1)
0x600|         00                                    |   .            |                        l: 0 0x603-0x603.7 (1)
     |                                               |                |                      [5]{}: instr 0x604-0x604.7 (1)
0x600|            1a                                 |    .           |                        drop: 0x1a (valid) 0x604-0x604.7 (1)
     |                                               |                |                      [6]{}: instr 0x605-0x605.7 (1)
0x600|               1a                              |     .          |                        drop: 0x1a (valid) 0x605-0x605.7 (1)
0x600|                  0b                           |      .         |                    end: 11 (valid) 0x606-0x606.7 (1)
     |                                               |                |                  [1]{}: in 0x607-0x607.7 (1)
0x600|                     0b                        |       .        |                    end: 0xb (valid) 0x607-0x607.7 (1)
     |                                               |                |            [13]{}: code 0x608-0x618.7 (17)
0x600|                        10                     |        .       |              size: 16 0x608-0x608.7 (1)
     |                                               |                |              code{}: 0x609-0x618.7 (16)
     |                                               |                |                t{}: 0x609-0x609.7 (1)
0x600|                           00                  |         .      |                  n: 0 0x609-0x609.7 (1)
     |                                               |                |                  x[0:0]: 0x60a-NA (0)
     |                                               |                |                e[0:3]: 0x60a-0x618.7 (15)
     |                                               |                |                  [0]{}: in 0x60a-0x615.7 (12)
0x600|                              02               |          .     |                    block: 0x2 (valid) 0x60a-0x60a.7 (1)
0x600|                                 40            |           @    |                    bt: "ε" (64) 0x60b-0x60b.7 (1)
     |                                               |                |                    instructions[0:4]: 0x60c-0x614.7 (9)
     |                                               |                |                      [0]{}: instr 0x60c-0x60d.7 (2)
0x600|                                    41         |            A   |                        i32.const: 0x41 (valid) 0x60c-0x60c.7 (1)
0x600|                                       03      |             .  |                        n: 3 0x60d-0x60d.7 (1)
     |                                               |                |                      [1]{}: instr 0x60e-0x60f.7 (2)
0x600|                                          42   |              B |                        i64.const: 0x42 (valid) 0x60e-0x60e.7 (1)
0x600|                                             01|               .|                        n: 1 0x60f-0x60f.7 (1)
     |                                               |                |                      [2]{}: instr 0x610-0x611.7 (2)
0x610|41                                             |A               |                        i32.const: 0x41 (valid) 0x610-0x610.7 (1)
0x610|   00                                          | .              |                        n: 0 0x611-0x611.7 (1)
     |                                               |                |                      [3]{}: instr 0x612-0x614.7 (3)
0x610|      0e                                       |  .             |                        br_table: 0xe (valid) 0x612-0x612.7 (1)
     |                                               |                |                        l{}: 0x613-0x613.7 (1)
0x610|         00                                    |   .            |                          n: 0 0x613-0x613.7 (1)
     |                                               |                |                          x[0:0]: 0x614-NA (0)
0x610|            00                                 |    .           |                        lN: 0 0x614-0x614.7 (1)
0x610|               0b                              |     .          |                    end: 11 (valid) 0x615-0x615.7 (1)
     |                                               |                |                  [1]{}: in 0x616-0x617.7 (2)
0x610|                  41                           |      A         |                    i32.const: 0x41 (valid) 0x616-0x616.7 (1)
0x610|                     09                        |       .        |                    n: 9 0x617-0x617.7 (1)
     |                                               |                |                  [2]{}: in 0x618-0x618.7 (1)
0x610|                        0b                     |        .       |                    end: 0xb (valid) 0x618-0x618.7 (1)
     |                                               |                |            [14]{}: code 0x619-0x629.7 (17)
0x610|                           10                  |         .      |              size: 16 0x619-0x619.7 (1)
     |                                               |                |              code{}: 0x61a-0x629.7 (16)
     |                                               |                |                t{}: 0x61a-0x61a.7 (1)
0x610|                              00               |          .     |                  n: 0 0x61a-0x61a.7 (1)
     |                                               |                |                  x[0:0]: 0x61b-NA (0)
     |                                               |                |                e[0:2]: 0x61b-0x629.7 (15)
     |                                               |                |                  [0]{}: in 0x61b-0x628.7 (14)
0x610|                                 02            |           .    |                    block: 0x2 (valid) 0x61b-0x61b.7 (1)
0x610|                                    7f         |            .   |                    bt: "i32" (127) 0x61c-0x61c.7 (1)
     |                                               |                |                    instructions[0:5]: 0x61d-0x627.7 (11)
     |                                               |                |                      [0]{}: instr 0x61d-0x61e.7 (2)
0x610|                                       41      |             A  |                        i32.const: 0x41 (valid) 0x61d-0x61d.7 (1)
0x610|                                          03   |              . |                        n: 3 0x61e-0x61e.7 (1)
     |                                               |                |                      [1]{}: instr 0x61f-0x620.7 (2)
0x610|                                             42|               B|                        i64.const: 0x42 (valid) 0x61f-0x61f.7 (1)
0x620|01                                             |.               |                        n: 1 0x620-0x620.7 (1)
     |                                               |                |                      [2]{}: instr 0x621-0x622.7 (2)
0x620|   41                                          | A              |                        i32.const: 0x41 (valid) 0x621-0x621.7 (1)
0x620|      09                                       |  .             |                        n: 9 0x622-0x622.7 (1)
     |                                               |                |                      [3]{}: instr 0x623-0x624.7 (2)
0x620|         41                                    |   A            |                        i32.const: 0x41 (valid) 0x623-0x623.7 (1)
0x620|            00                                 |    .           |                        n: 0 0x624-0x624.7 (1)
     |                                               |                |                      [4]{}: instr 0x625-0x627.7 (3)
0x620|               0e                              |     .          |                        br_table: 0xe (valid) 0x625-0x625.7 (1)
     |                                               |                |                        l{}: 0x626-0x626.7 (1)
0x620|                  00                           |      .         |                          n: 0 0x626-0x626.7 (1)
     |                                               |                |                          x[0:0]: 0x627-NA (0)
0x620|                     00                        |       .        |                        lN: 0 0x627-0x627.7 (1)
0x620|                        0b                     |        .       |                    end: 11 (valid) 0x628-0x628.7 (1)
     |                                               |                |                  [1]{}: in 0x629-0x629.7 (1)
0x620|                           0b                  |         .      |                    end: 0xb (valid) 0x629-0x629.7 (1)
     |                                               |                |            [15]{}: code 0x62a-0x636.7 (13)
0x620|                              0c               |          .     |              size: 12 0x62a-0x62a.7 (1)
     |                                               |                |              code{}: 0x62b-0x636.7 (12)
     |                                               |                |                t{}: 0x62b-0x62b.7 (1)
0x620|                                 00            |           .    |                  n: 0 0x62b-0x62b.7 (1)
     |                                               |                |                  x[0:0]: 0x62c-NA (0)
     |                                               |                |                e[0:2]: 0x62c-0x636.7 (11)
     |                                               |                |                  [0]{}: in 0x62c-0x635.7 (10)
0x620|                                    02         |            .   |                    block: 0x2 (valid) 0x62c-0x62c.7 (1)
0x620|                                       7f      |             .  |                    bt: "i32" (127) 0x62d-0x62d.7 (1)
     |                                               |                |                    instructions[0:4]: 0x62e-0x634.7 (7)
     |                                               |                |                      [0]{}: instr 0x62e-0x62f.7 (2)
0x620|                                          41   |              A |                        i32.const: 0x41 (valid) 0x62e-0x62e.7 (1)
0x620|                                             03|               .|                        n: 3 0x62f-0x62f.7 (1)
     |                                               |                |                      [1]{}: instr 0x630-0x631.7 (2)
0x630|42                                             |B               |                        i64.const: 0x42 (valid) 0x630-0x630.7 (1)
0x630|   01                                          | .              |                        n: 1 0x631-0x631.7 (1)
     |                                               |                |                      [2]{}: instr 0x632-0x633.7 (2)
0x630|      41                                       |  A             |                        i32.const: 0x41 (valid) 0x632-0x632.7 (1)
0x630|         09                                    |   .            |                        n: 9 0x633-0x633.7 (1)
     |                                               |                |                      [3]{}: instr 0x634-0x634.7 (1)
0x630|            0f                                 |    .           |                        return: 0xf (valid) 0x634-0x634.7 (1)
0x630|               0b                              |     .          |                    end: 11 (valid) 0x635-0x635.7 (1)
     |                                               |                |                  [1]{}: in 0x636-0x636.7 (1)
0x630|                  0b                           |      .         |                    end: 0xb (valid) 0x636-0x636.7 (1)
     |                                               |                |            [16]{}: code 0x637-0x644.7 (14)
0x630|                     0d                        |       .        |              size: 13 0x637-0x637.7 (1)
     |                                               |                |              code{}: 0x638-0x644.7 (13)
     |                                               |                |                t{}: 0x638-0x638.7 (1)
0x630|                        00                     |        .       |                  n: 0 0x638-0x638.7 (1)
     |                                               |                |                  x[0:0]: 0x639-NA (0)
     |                                               |                |                e[0:2]: 0x639-0x644.7 (12)
     |                                               |                |                  [0]{}: in 0x639-0x643.7 (11)
0x630|                           02                  |         .      |                    block: 0x2 (valid) 0x639-0x639.7 (1)
0x630|                              7f               |          .     |                    bt: "i32" (127) 0x63a-0x63a.7 (1)
     |                                               |                |                    instructions[0:2]: 0x63b-0x642.7 (8)
     |                                               |                |                      [0]{}: instr 0x63b-0x63c.7 (2)
0x630|                                 41            |           A    |                        i32.const: 0x41 (valid) 0x63b-0x63b.7 (1)
0x630|                                    03         |            .   |                        n: 3 0x63c-0x63c.7 (1)
     |                                               |                |                      [1]{}: instr 0x63d-0x642.7 (6)
0x630|                                       02      |             .  |                        block: 0x2 (valid) 0x63d-0x63d.7 (1)
0x630|                                          40   |              @ |                        bt: "ε" (64) 0x63e-0x63e.7 (1)
     |                                               |                |                        instructions[0:2]: 0x63f-0x641.7 (3)
     |                                               |                |                          [0]{}: instr 0x63f-0x640.7 (2)
0x630|                                             42|               B|                            i64.const: 0x42 (valid) 0x63f-0x63f.7 (1)
0x640|01                                             |.               |                            n: 1 0x640-0x640.7 (1)
     |                                               |                |                          [1]{}: instr 0x641-0x641.7 (1)
0x640|   00                                          | .              |                            unreachable: 0x0 (valid) 0x641-0x641.7 (1)
0x640|      0b                                       |  .             |                        end: 11 (valid) 0x642-0x642.7 (1)
0x640|         0b                                    |   .            |                    end: 11 (valid) 0x643-0x643.7 (1)
     |                                               |                |                  [1]{}: in 0x644-0x644.7 (1)
0x640|            0b                                 |    .           |                    end: 0xb (valid) 0x644-0x644.7 (1)
     |                                               |                |            [17]{}: code 0x645-0x656.7 (18)
0x640|               11                              |     .          |              size: 17 0x645-0x645.7 (1)
     |                                               |                |              code{}: 0x646-0x656.7 (17)
     |                                               |                |                t{}: 0x646-0x646.7 (1)
0x640|                  00                           |      .         |                  n: 0 0x646-0x646.7 (1)
     |                                               |                |                  x[0:0]: 0x647-NA (0)
     |                                               |                |                e[0:3]: 0x647-0x656.7 (16)
     |                                               |                |                  [0]{}: in 0x647-0x653.7 (13)
0x640|                     02                        |       .        |                    block: 0x2 (valid) 0x647-0x647.7 (1)
0x640|                        40                     |        @       |                    bt: "ε" (64) 0x648-0x648.7 (1)
     |                                               |                |                    instructions[0:3]: 0x649-0x652.7 (10)
     |                                               |                |                      [0]{}: instr 0x649-0x64a.7 (2)
0x640|                           41                  |         A      |                        i32.const: 0x41 (valid) 0x649-0x649.7 (1)
0x640|                              03               |          .     |                        n: 3 0x64a-0x64a.7 (1)
     |                                               |                |                      [1]{}: instr 0x64b-0x651.7 (7)
0x640|                                 02            |           .    |                        block: 0x2 (valid) 0x64b-0x64b.7 (1)
0x640|                                    40         |            @   |                        bt: "ε" (64) 0x64c-0x64c.7 (1)
     |                                               |                |                        instructions[0:2]: 0x64d-0x650.7 (4)
     |                                               |                |                          [0]{}: instr 0x64d-0x64e.7 (2)
0x640|                                       42      |             B  |                            i64.const: 0x42 (valid) 0x64d-0x64d.7 (1)
0x640|                                          01   |              . |                            n: 1 0x64e-0x64e.7 (1)
     |                                               |                |                          [1]{}: instr 0x64f-0x650.7 (2)
0x640|                                             0c|               .|                            br: 0xc (valid) 0x64f-0x64f.7 (1)
0x650|01                                             |.               |                            l: 1 0x650-0x650.7 (1)
0x650|   0b                                          | .              |                        end: 11 (valid) 0x651-0x651.7 (1)
     |                                               |                |                      [2]{}: instr 0x652-0x652.7 (1)
0x650|      1a                                       |  .             |                        drop: 0x1a (valid) 0x652-0x652.7 (1)
0x650|         0b                                    |   .            |                    end: 11 (valid) 0x653-0x653.7 (1)
     |                                               |                |                  [1]{}: in 0x654-0x655.7 (2)
0x650|            41                                 |    A           |                    i32.const: 0x41 (valid) 0x654-0x654.7 (1)
0x650|               09                              |     .          |                    n: 9 0x655-0x655.7 (1)
     |                                               |                |                  [2]{}: in 0x656-0x656.7 (1)
0x650|                  0b                           |      .         |                    end: 0xb (valid) 0x656-0x656.7 (1)
     |                                               |                |            [18]{}: code 0x657-0x667.7 (17)
0x650|                     10                        |       .        |              size: 16 0x657-0x657.7 (1)
     |                                               |                |              code{}: 0x658-0x667.7 (16)
     |                                               |                |                t{}: 0x658-0x658.7 (1)
0x650|                        00                     |        .       |                  n: 0 0x658-0x658.7 (1)
     |                                               |                |                  x[0:0]: 0x659-NA (0)
     |                                               |                |                e[0:2]: 0x659-0x667.7 (15)
     |                                               |                |                  [0]{}: in 0x659-0x666.7 (14)
0x650|                           02                  |         .      |                    block: 0x2 (valid) 0x659-0x659.7 (1)
0x650|                              7f               |          .     |                    bt: "i32" (127) 0x65a-0x65a.7 (1)
     |                                               |                |                    instructions[0:2]: 0x65b-0x665.7 (11)
     |                                               |                |                      [0]{}: instr 0x65b-0x65c.7 (2)
0x650|                                 41            |           A    |                        i32.const: 0x41 (valid) 0x65b-0x65b.7 (1)
0x650|                                    03         |            .   |                        n: 3 0x65c-0x65c.7 (1)
     |                                               |                |                      [1]{}: instr 0x65d-0x665.7 (9)
0x650|                                       02      |             .  |                        block: 0x2 (valid) 0x65d-0x65d.7 (1)
0x650|                                          40   |              @ |                        bt: "ε" (64) 0x65e-0x65e.7 (1)
     |                                               |                |                        instructions[0:3]: 0x65f-0x664.7 (6)
     |                                               |                |                          [0]{}: instr 0x65f-0x660.7 (2)
0x650|                                             42|               B|                            i64.const: 0x42 (valid) 0x65f-0x65f.7 (1)
0x660|01                                             |.               |                            n: 1 0x660-0x660.7 (1)
     |                                               |                |                          [1]{}: instr 0x661-0x662.7 (2)
0x660|   41                                          | A              |                            i32.const: 0x41 (valid) 0x661-0x661.7 (1)
0x660|      09                                       |  .             |                            n: 9 0x662-0x662.7 (1)
     |                                               |                |                          [2]{}: instr 0x663-0x664.7 (2)
0x660|         0c                                    |   .            |                            br: 0xc (valid) 0x663-0x663.7 (1)
0x660|            01                                 |    .           |                            l: 1 0x664-0x664.7 (1)
0x660|               0b                              |     .          |                        end: 11 (valid) 0x665-0x665.7 (1)
0x660|                  0b                           |      .         |                    end: 11 (valid) 0x666-0x666.7 (1)
     |                                               |                |                  [1]{}: in 0x667-0x667.7 (1)
0x660|                     0b                        |       .        |                    end: 0xb (valid) 0x667-0x667.7 (1)
     |                                               |                |            [19]{}: code 0x668-0x67c.7 (21)
0x660|                        14                     |        .       |              size: 20 0x668-0x668.7 (1)
     |                                               |                |              code{}: 0x669-0x67c.7 (20)
     |                                               |                |                t{}: 0x669-0x669.7 (1)
0x660|                           00                  |         .      |                  n: 0 0x669-0x669.7 (1)
     |                                               |                |                  x[0:0]: 0x66a-NA (0)
     |                                               |                |                e[0:3]: 0x66a-0x67c.7 (19)
     |                                               |                |                  [0]{}: in 0x66a-0x679.7 (16)
0x660|                              02               |          .     |                    block: 0x2 (valid) 0x66a-0x66a.7 (1)
0x660|                                 40            |           @    |                    bt: "ε" (64) 0x66b-0x66b.7 (1)
     |                                               |                |                    instructions[0:3]: 0x66c-0x678.7 (13)
     |                                               |                |                      [0]{}: instr 0x66c-0x66d.7 (2)
0x660|                                    41         |            A   |                        i32.const: 0x41 (valid) 0x66c-0x66c.7 (1)
0x660|                                       03      |             .  |                        n: 3 0x66d-0x66d.7 (1)
     |                                               |                |                      [1]{}: instr 0x66e-0x677.7 (10)
0x660|                                          02   |              . |                        block: 0x2 (valid) 0x66e-0x66e.7 (1)
0x660|                                             40|               @|                        bt: "ε" (64) 0x66f-0x66f.7 (1)
     |                                               |                |                        instructions[0:4]: 0x670-0x676.7 (7)
     |                                               |                |                          [0]{}: instr 0x670-0x671.7 (2)
0x670|42                                             |B               |                            i64.const: 0x42 (valid) 0x670-0x670.7 (1)
0x670|   01                                          | .              |                            n: 1 0x671-0x671.7 (1)
     |                                               |                |                          [1]{}: instr 0x672-0x673.7 (2)
0x670|      41                                       |  A             |                            i32.const: 0x41 (valid) 0x672-0x672.7 (1)
0x670|         01                                    |   .            |                            n: 1 0x673-0x673.7 (1)
     |                                               |                |                          [2]{}: instr 0x674-0x675.7 (2)
0x670|            0d                                 |    .           |                            br_if: 0xd (valid) 0x674-0x674.7 (1)
0x670|               01                              |     .          |                            l: 1 0x675-0x675.7 (1)
     |                                               |                |                          [3]{}: instr 0x676-0x676.7 (1)
0x670|                  1a                           |      .         |                            drop: 0x1a (valid) 0x676-0x676.7 (1)
0x670|                     0b                        |       .        |                        end: 11 (valid) 0x677-0x677.7 (1)
     |                                               |                |                      [2]{}: instr 0x678-0x678.7 (1)
0x670|                        1a                     |        .       |                        drop: 0x1a (valid) 0x678-0x678.7 (1)
0x670|                           0b                  |         .      |                    end: 11 (valid) 0x679-0x679.7 (1)
     |                                               |                |                  [1]{}: in 0x67a-0x67b.7 (2)
0x670|                              41               |          A     |                    i32.const: 0x41 (valid) 0x67a-0x67a.7 (1)
0x670|                                 09            |           .    |                    n: 9 0x67b-0x67b.7 (1)
     |                                               |                |                  [2]{}: in 0x67c-0x67c.7 (1)
0x670|                                    0b         |            .   |                    end: 0xb (valid) 0x67c-0x67c.7 (1)
     |                                               |                |            [20]{}: code 0x67d-0x691.7 (21)
0x670|                                       14      |             .  |              size: 20 0x67d-0x67d.7 (1)
     |                                               |                |              code{}: 0x67e-0x691.7 (20)
     |                                               |                |                t{}: 0x67e-0x67e.7 (1)
0x670|                                          00   |              . |                  n: 0 0x67e-0x67e.7 (1)
     |                                               |                |                  x[0:0]: 0x67f-NA (0)
     |                                               |                |                e[0:2]: 0x67f-0x691.7 (19)
     |                                               |                |                  [0]{}: in 0x67f-0x690.7 (18)
0x670|                                             02|               .|                    block: 0x2 (valid) 0x67f-0x67f.7 (1)
0x680|7f                                             |.               |                    bt: "i32" (127) 0x680-0x680.7 (1)
     |                                               |                |                    instructions[0:2]: 0x681-0x68f.7 (15)
     |                                               |                |                      [0]{}: instr 0x681-0x682.7 (2)
0x680|   41                                          | A              |                        i32.const: 0x41 (valid) 0x681-0x681.7 (1)
0x680|      03                                       |  .             |                        n: 3 0x682-0x682.7 (1)
     |                                               |                |                      [1]{}: instr 0x683-0x68f.7 (13)
0x680|         02                                    |   .            |                        block: 0x2 (valid) 0x683-0x683.7 (1)
0x680|            40                                 |    @           |                        bt: "ε" (64) 0x684-0x684.7 (1)
     |                                               |                |                        instructions[0:6]: 0x685-0x68e.7 (10)
     |                                               |                |                          [0]{}: instr 0x685-0x686.7 (2)
0x680|               42                              |     B          |                            i64.const: 0x42 (valid) 0x685-0x685.7 (1)
0x680|                  01                           |      .         |                            n: 1 0x686-0x686.7 (1)
     |                                               |                |                          [1]{}: instr 0x687-0x688.7 (2)
0x680|                     41                        |       A        |                            i32.const: 0x41 (valid) 0x687-0x687.7 (1)
0x680|                        09                     |        .       |                            n: 9 0x688-0x688.7 (1)
     |                                               |                |                          [2]{}: instr 0x689-0x68a.7 (2)
0x680|                           41                  |         A      |                            i32.const: 0x41 (valid) 0x689-0x689.7 (1)
0x680|                              01               |          .     |                            n: 1 0x68a-0x68a.7 (1)
     |                                               |                |                          [3]{}: instr 0x68b-0x68c.7 (2)
0x680|                                 0d            |           .    |                            br_if: 0xd (valid) 0x68b-0x68b.7 (1)
0x680|                                    01         |            .   |                            l: 1 0x68c-0x68c.7 (1)
     |                                               |                |                          [4]{}: instr 0x68d-0x68d.7 (1)
0x680|                                       1a      |             .  |                            drop: 0x1a (valid) 0x68d-0x68d.7 (1)
     |                                               |                |                          [5]{}: instr 0x68e-0x68e.7 (1)
0x680|                                          1a   |              . |                            drop: 0x1a (valid) 0x68e-0x68e.7 (1)
0x680|                                             0b|               .|                        end: 11 (valid) 0x68f-0x68f.7 (1)
0x690|0b                                             |.               |                    end: 11 (valid) 0x690-0x690.7 (1)
     |                                               |                |                  [1]{}: in 0x691-0x691.7 (1)
0x690|   0b                                          | .              |                    end: 0xb (valid) 0x691-0x691.7 (1)
     |                                               |                |            [21]{}: code 0x692-0x6a6.7 (21)
0x690|      14                                       |  .             |              size: 20 0x692-0x692.7 (1)
     |                                               |                |              code{}: 0x693-0x6a6.7 (20)
     |                                               |                |                t{}: 0x693-0x693.7 (1)
0x690|         00                                    |   .            |                  n: 0 0x693-0x693.7 (1)
     |                                               |                |                  x[0:0]: 0x694-NA (0)
     |                                               |                |                e[0:3]: 0x694-0x6a6.7 (19)
     |                                               |                |                  [0]{}: in 0x694-0x6a3.7 (16)
0x690|            02                                 |    .           |                    block: 0x2 (valid) 0x694-0x694.7 (1)
0x690|               40                              |     @          |                    bt: "ε" (64) 0x695-0x695.7 (1)
     |                                               |                |                    instructions[0:3]: 0x696-0x6a2.7 (13)
     |                                               |                |                      [0]{}: instr 0x696-0x697.7 (2)
0x690|                  41                           |      A         |                        i32.const: 0x41 (valid) 0x696-0x696.7 (1)
0x690|                     03                        |       .        |                        n: 3 0x697-0x697.7 (1)
     |                                               |                |                      [1]{}: instr 0x698-0x6a1.7 (10)
0x690|                        02                     |        .       |                        block: 0x2 (valid) 0x698-0x698.7 (1)
0x690|                           40                  |         @      |                        bt: "ε" (64) 0x699-0x699.7 (1)
     |                                               |                |                        instructions[0:3]: 0x69a-0x6a0.7 (7)
     |                                               |                |                          [0]{}: instr 0x69a-0x69b.7 (2)
0x690|                              42               |          B     |                            i64.const: 0x42 (valid) 0x69a-0x69a.7 (1)
0x690|                                 01            |           .    |                            n: 1 0x69b-0x69b.7 (1)
     |                                               |                |                          [1]{}: instr 0x69c-0x69d.7 (2)
0x690|                                    41         |            A   |                            i32.const: 0x41 (valid) 0x69c-0x69c.7 (1)
0x690|                                       01      |             .  |                            n: 1 0x69d-0x69d.7 (1)
     |                                               |                |                          [2]{}: instr 0x69e-0x6a0.7 (3)
0x690|                                          0e   |              . |                            br_table: 0xe (valid) 0x69e-0x69e.7 (1)
     |                                               |                |                            l{}: 0x69f-0x69f.7 (1)
0x690|                                             00|               .|                              n: 0 0x69f-0x69f.7 (1)
     |                                               |                |                              x[0:0]: 0x6a0-NA (0)
0x6a0|01                                             |.               |                            lN: 1 0x6a0-0x6a0.7 (1)
0x6a0|   0b                                          | .              |                        end: 11 (valid) 0x6a1-0x6a1.7 (1)
     |                                               |                |                      [2]{}: instr 0x6a2-0x6a2.7 (1)
0x6a0|      1a                                       |  .             |                        drop: 0x1a (valid) 0x6a2-0x6a2.7 (1)
0x6a0|         0b                                    |   .            |                    end: 11 (valid) 0x6a3-0x6a3.7 (1)
     |                                               |                |                  [1]{}: in 0x6a4-0x6a5.7 (2)
0x6a0|            41                                 |    A           |                    i32.const: 0x41 (valid) 0x6a4-0x6a4.7 (1)
0x6a0|               09                              |     .          |                    n: 9 0x6a5-0x6a5.7 (1)
     |                                               |                |                  [2]{}: in 0x6a6-0x6a6.7 (1)
0x6a0|                  0b                           |      .         |                    end: 0xb (valid) 0x6a6-0x6a6.7 (1)
     |                                               |                |            [22]{}: code 0x6a7-0x6ba.7 (20)
0x6a0|                     13                        |       .        |              size: 19 0x6a7-0x6a7.7 (1)
     |                                               |                |              code{}: 0x6a8-0x6ba.7 (19)
     |                                               |                |                t{}: 0x6a8-0x6a8.7 (1)
0x6a0|                        00                     |        .       |                  n: 0 0x6a8-0x6a8.7 (1)
     |                                               |                |                  x[0:0]: 0x6a9-NA (0)
     |                                               |                |                e[0:2]: 0x6a9-0x6ba.7 (18)
     |                                               |                |                  [0]{}: in 0x6a9-0x6b9.7 (17)
0x6a0|                           02                  |         .      |                    block: 0x2 (valid) 0x6a9-0x6a9.7 (1)
0x6a0|                              7f               |          .     |                    bt: "i32" (127) 0x6aa-0x6aa.7 (1)
     |                                               |                |                    instructions[0:2]: 0x6ab-0x6b8.7 (14)
     |                                               |                |                      [0]{}: instr 0x6ab-0x6ac.7 (2)
0x6a0|                                 41            |           A    |                        i32.const: 0x41 (valid) 0x6ab-0x6ab.7 (1)
0x6a0|                                    03         |            .   |                        n: 3 0x6ac-0x6ac.7 (1)
     |                                               |                |                      [1]{}: instr 0x6ad-0x6b8.7 (12)
0x6a0|                                       02      |             .  |                        block: 0x2 (valid) 0x6ad-0x6ad.7 (1)
0x6a0|                                          40   |              @ |                        bt: "ε" (64) 0x6ae-0x6ae.7 (1)
     |                                               |                |                        instructions[0:4]: 0x6af-0x6b7.7 (9)
     |                                               |                |                          [0]{}: instr 0x6af-0x6b0.7 (2)
0x6a0|                                             42|               B|                            i64.const: 0x42 (valid) 0x6af-0x6af.7 (1)
0x6b0|01                                             |.               |                            n: 1 0x6b0-0x6b0.7 (1)
     |                                               |                |                          [1]{}: instr 0x6b1-0x6b2.7 (2)
0x6b0|   41                                          | A              |                            i32.const: 0x41 (valid) 0x6b1-0x6b1.7 (1)
0x6b0|      09                                       |  .             |                            n: 9 0x6b2-0x6b2.7 (1)
     |                                               |                |                          [2]{}: instr 0x6b3-0x6b4.7 (2)
0x6b0|         41                                    |   A            |                            i32.const: 0x41 (valid) 0x6b3-0x6b3.7 (1)
0x6b0|            01                                 |    .           |                            n: 1 0x6b4-0x6b4.7 (1)
     |                                               |                |                          [3]{}: instr 0x6b5-0x6b7.7 (3)
0x6b0|               0e                              |     .          |                            br_table: 0xe (valid) 0x6b5-0x6b5.7 (1)
     |                                               |                |                            l{}: 0x6b6-0x6b6.7 (1)
0x6b0|                  00                           |      .         |                              n: 0 0x6b6-0x6b6.7 (1)
     |                                               |                |                              x[0:0]: 0x6b7-NA (0)
0x6b0|                     01                        |       .        |                            lN: 1 0x6b7-0x6b7.7 (1)
0x6b0|                        0b                     |        .       |                        end: 11 (valid) 0x6b8-0x6b8.7 (1)
0x6b0|                           0b                  |         .      |                    end: 11 (valid) 0x6b9-0x6b9.7 (1)
     |                                               |                |                  [1]{}: in 0x6ba-0x6ba.7 (1)
0x6b0|                              0b               |          .     |                    end: 0xb (valid) 0x6ba-0x6ba.7 (1)
     |                                               |                |            [23]{}: code 0x6bb-0x6ca.7 (16)
0x6b0|                                 0f            |           .    |              size: 15 0x6bb-0x6bb.7 (1)
     |                                               |                |              code{}: 0x6bc-0x6ca.7 (15)
     |                                               |                |                t{}: 0x6bc-0x6bc.7 (1)
0x6b0|                                    00         |            .   |                  n: 0 0x6bc-0x6bc.7 (1)
     |                                               |                |                  x[0:0]: 0x6bd-NA (0)
     |                                               |                |                e[0:2]: 0x6bd-0x6ca.7 (14)
     |                                               |                |                  [0]{}: in 0x6bd-0x6c9.7 (13)
0x6b0|                                       02      |             .  |                    block: 0x2 (valid) 0x6bd-0x6bd.7 (1)
0x6b0|                                          7f   |              . |                    bt: "i32" (127) 0x6be-0x6be.7 (1)
     |                                               |                |                    instructions[0:2]: 0x6bf-0x6c8.7 (10)
     |                                               |                |                      [0]{}: instr 0x6bf-0x6c0.7 (2)
0x6b0|                                             41|               A|                        i32.const: 0x41 (valid) 0x6bf-0x6bf.7 (1)
0x6c0|03                                             |.               |                        n: 3 0x6c0-0x6c0.7 (1)
     |                                               |                |                      [1]{}: instr 0x6c1-0x6c8.7 (8)
0x6c0|   02                                          | .              |                        block: 0x2 (valid) 0x6c1-0x6c1.7 (1)
0x6c0|      40                                       |  @             |                        bt: "ε" (64) 0x6c2-0x6c2.7 (1)
     |                                               |                |                        instructions[0:3]: 0x6c3-0x6c7.7 (5)
     |                                               |                |                          [0]{}: instr 0x6c3-0x6c4.7 (2)
0x6c0|         42                                    |   B            |                            i64.const: 0x42 (valid) 0x6c3-0x6c3.7 (1)
0x6c0|            01                                 |    .           |                            n: 1 0x6c4-0x6c4.7 (1)
     |                                               |                |                          [1]{}: instr 0x6c5-0x6c6.7 (2)
0x6c0|               41                              |     A          |                            i32.const: 0x41 (valid) 0x6c5-0x6c5.7 (1)
0x6c0|                  09                           |      .         |                            n: 9 0x6c6-0x6c6.7 (1)
     |                                               |                |                          [2]{}: instr 0x6c7-0x6c7.7 (1)
0x6c0|                     0f                        |       .        |                            return: 0xf (valid) 0x6c7-0x6c7.7 (1)
0x6c0|                        0b                     |        .       |                        end: 11 (valid) 0x6c8-0x6c8.7 (1)
0x6c0|                           0b                  |         .      |                    end: 11 (valid) 0x6c9-0x6c9.7 (1)
     |                                               |                |                  [1]{}: in 0x6ca-0x6ca.7 (1)
0x6c0|                              0b               |          .     |                    end: 0xb (valid) 0x6ca-0x6ca.7 (1)
     |                                               |                |            [24]{}: code 0x6cb-0x6d4.7 (10)
0x6c0|                                 09            |           .    |              size: 9 0x6cb-0x6cb.7 (1)
     |                                               |                |              code{}: 0x6cc-0x6d4.7 (9)
     |                                               |                |                t{}: 0x6cc-0x6cc.7 (1)
0x6c0|                                    00         |            .   |                  n: 0 0x6cc-0x6cc.7 (1)
     |                                               |                |                  x[0:0]: 0x6cd-NA (0)
     |                                               |                |                e[0:4]: 0x6cd-0x6d4.7 (8)
     |                                               |                |                  [0]{}: in 0x6cd-0x6d1.7 (5)
0x6c0|                                       43      |             C  |                    f32.const: 0x43 (valid) 0x6cd-0x6cd.7 (1)
0x6c0|                                          00 00|              ..|                    z: 0 0x6ce-0x6d1.7 (4)
0x6d0|00 00                                          |..              |
     |                                               |                |                  [1]{}: in 0x6d2-0x6d2.7 (1)
0x6d0|      00                                       |  .             |                    unreachable: 0x0 (valid) 0x6d2-0x6d2.7 (1)
     |                                               |                |                  [2]{}: in 0x6d3-0x6d3.7 (1)
0x6d0|         50                                    |   P            |                    i64.eqz: 0x50 (valid) 0x6d3-0x6d3.7 (1)
     |                                               |                |                  [3]{}: in 0x6d4-0x6d4.7 (1)
0x6d0|            0b                                 |    .           |                    end: 0xb (valid) 0x6d4-0x6d4.7 (1)
     |                                               |                |            [25]{}: code 0x6d5-0x6e4.7 (16)
0x6d0|               0f                              |     .          |              size: 15 0x6d5-0x6d5.7 (1)
     |                                               |                |              code{}: 0x6d6-0x6e4.7 (15)
     |                                               |                |                t{}: 0x6d6-0x6d6.7 (1)
0x6d0|                  00                           |      .         |                  n: 0 0x6d6-0x6d6.7 (1)
     |                                               |                |                  x[0:0]: 0x6d7-NA (0)
     |                                               |                |                e[0:2]: 0x6d7-0x6e4.7 (14)
     |                                               |                |                  [0]{}: in 0x6d7-0x6e3.7 (13)
0x6d0|                     02                        |       .        |                    block: 0x2 (valid) 0x6d7-0x6d7.7 (1)
0x6d0|                        7f                     |        .       |                    bt: "i32" (127) 0x6d8-0x6d8.7 (1)
     |                                               |                |                    instructions[0:4]: 0x6d9-0x6e2.7 (10)
     |                                               |                |                      [0]{}: instr 0x6d9-0x6dd.7 (5)
0x6d0|                           43                  |         C      |                        f32.const: 0x43 (valid) 0x6d9-0x6d9.7 (1)
0x6d0|                              00 00 00 00      |          ....  |                        z: 0 0x6da-0x6dd.7 (4)
     |                                               |                |                      [1]{}: instr 0x6de-0x6df.7 (2)
0x6d0|                                          41   |              A |                        i32.const: 0x41 (valid) 0x6de-0x6de.7 (1)
0x6d0|                                             09|               .|                        n: 9 0x6df-0x6df.7 (1)
     |                                               |                |                      [2]{}: instr 0x6e0-0x6e1.7 (2)
0x6e0|0c                                             |.               |                        br: 0xc (valid) 0x6e0-0x6e0.7 (1)
0x6e0|   00                                          | .              |                        l: 0 0x6e1-0x6e1.7 (1)
     |                                               |                |                      [3]{}: instr 0x6e2-0x6e2.7 (1)
0x6e0|      50                                       |  P             |                        i64.eqz: 0x50 (valid) 0x6e2-0x6e2.7 (1)
0x6e0|         0b                                    |   .            |                    end: 11 (valid) 0x6e3-0x6e3.7 (1)
     |                                               |                |                  [1]{}: in 0x6e4-0x6e4.7 (1)
0x6e0|            0b                                 |    .           |                    end: 0xb (valid) 0x6e4-0x6e4.7 (1)
     |                                               |                |            [26]{}: code 0x6e5-0x6f4.7 (16)
0x6e0|               0f                              |     .          |              size: 15 0x6e5-0x6e5.7 (1)
     |                                               |                |              code{}: 0x6e6-0x6f4.7 (15)
     |                                               |                |                t{}: 0x6e6-0x6e6.7 (1)
0x6e0|                  00                           |      .         |                  n: 0 0x6e6-0x6e6.7 (1)
     |                                               |                |                  x[0:0]: 0x6e7-NA (0)
     |                                               |                |                e[0:2]: 0x6e7-0x6f4.7 (14)
     |                                               |                |                  [0]{}: in 0x6e7-0x6f3.7 (13)
0x6e0|                     02                        |       .        |                    block: 0x2 (valid) 0x6e7-0x6e7.7 (1)
0x6e0|                        7f                     |        .       |                    bt: "i32" (127) 0x6e8-0x6e8.7 (1)
     |                                               |                |                    instructions[0:6]: 0x6e9-0x6f2.7 (10)
     |                                               |                |                      [0]{}: instr 0x6e9-0x6ea.7 (2)
0x6e0|                           42                  |         B      |                        i64.const: 0x42 (valid) 0x6e9-0x6e9.7 (1)
0x6e0|                              00               |          .     |                        n: 0 0x6ea-0x6ea.7 (1)
     |                                               |                |                      [1]{}: instr 0x6eb-0x6ec.7 (2)
0x6e0|                                 41            |           A    |                        i32.const: 0x41 (valid) 0x6eb-0x6eb.7 (1)
0x6e0|                                    09         |            .   |                        n: 9 0x6ec-0x6ec.7 (1)
     |                                               |                |                      [2]{}: instr 0x6ed-0x6ee.7 (2)
0x6e0|                                       41      |             A  |                        i32.const: 0x41 (valid) 0x6ed-0x6ed.7 (1)
0x6e0|                                          01   |              . |                        n: 1 0x6ee-0x6ee.7 (1)
     |                                               |                |                      [3]{}: instr 0x6ef-0x6f0.7 (2)
0x6e0|                                             0d|               .|                        br_if: 0xd (valid) 0x6ef-0x6ef.7 (1)
0x6f0|00                                             |.               |                        l: 0 0x6f0-0x6f0.7 (1)
     |                                               |                |                      [4]{}: instr 0x6f1-0x6f1.7 (1)
0x6f0|   1a                                          | .              |                        drop: 0x1a (valid) 0x6f1-0x6f1.7 (1)
     |                                               |                |                      [5]{}: instr 0x6f2-0x6f2.7 (1)
0x6f0|      50                                       |  P             |                        i64.eqz: 0x50 (valid) 0x6f2-0x6f2.7 (1)
0x6f0|         0b                                    |   .            |                    end: 11 (valid) 0x6f3-0x6f3.7 (1)
     |                                               |                |                  [1]{}: in 0x6f4-0x6f4.7 (1)
0x6f0|            0b                                 |    .           |                    end: 0xb (valid) 0x6f4-0x6f4.7 (1)
     |                                               |                |            [27]{}: code 0x6f5-0x708.7 (20)
0x6f0|               13                              |     .          |              size: 19 0x6f5-0x6f5.7 (1)
     |                                               |                |              code{}: 0x6f6-0x708.7 (19)
     |                                               |                |                t{}: 0x6f6-0x6f6.7 (1)
0x6f0|                  00                           |      .         |                  n: 0 0x6f6-0x6f6.7 (1)
     |                                               |                |                  x[0:0]: 0x6f7-NA (0)
     |                                               |                |                e[0:2]: 0x6f7-0x708.7 (18)
     |                                               |                |                  [0]{}: in 0x6f7-0x707.7 (17)
0x6f0|                     02                        |       .        |                    block: 0x2 (valid) 0x6f7-0x6f7.7 (1)
0x6f0|                        7f                     |        .       |                    bt: "i32" (127) 0x6f8-0x6f8.7 (1)
     |                                               |                |                    instructions[0:5]: 0x6f9-0x706.7 (14)
     |                                               |                |                      [0]{}: instr 0x6f9-0x6fd.7 (5)
0x6f0|                           43                  |         C      |                        f32.const: 0x43 (valid) 0x6f9-0x6f9.7 (1)
0x6f0|                              00 00 00 00      |          ....  |                        z: 0 0x6fa-0x6fd.7 (4)
     |                                               |                |                      [1]{}: instr 0x6fe-0x6ff.7 (2)
0x6f0|                                          41   |              A |                        i32.const: 0x41 (valid) 0x6fe-0x6fe.7 (1)
0x6f0|                                             09|               .|                        n: 9 0x6ff-0x6ff.7 (1)
     |                                               |                |                      [2]{}: instr 0x700-0x701.7 (2)
0x700|41                                             |A               |                        i32.const: 0x41 (valid) 0x700-0x700.7 (1)
0x700|   00                                          | .              |                        n: 0 0x701-0x701.7 (1)
     |                                               |                |                      [3]{}: instr 0x702-0x705.7 (4)
0x700|      0e                                       |  .             |                        br_table: 0xe (valid) 0x702-0x702.7 (1)
     |                                               |                |                        l{}: 0x703-0x704.7 (2)
0x700|         01                                    |   .            |                          n: 1 0x703-0x703.7 (1)
     |                                               |                |                          x[0:1]: 0x704-0x704.7 (1)
0x700|            00                                 |    .           |                            [0]: 0 l 0x704-0x704.7 (1)
0x700|               00                              |     .          |                        lN: 0 0x705-0x705.7 (1)
     |                                               |                |                      [4]{}: instr 0x706-0x706.7 (1)
0x700|                  50                           |      P         |                        i64.eqz: 0x50 (valid) 0x706-0x706.7 (1)
0x700|                     0b                        |       .        |                    end: 11 (valid) 0x707-0x707.7 (1)
     |                                               |                |                  [1]{}: in 0x708-0x708.7 (1)
0x700|                        0b                     |        .       |                    end: 0xb (valid) 0x708-0x708.7 (1)
     |                                               |                |            [28]{}: code 0x709-0x714.7 (12)
0x700|                           0b                  |         .      |              size: 11 0x709-0x709.7 (1)
     |                                               |                |              code{}: 0x70a-0x714.7 (11)
     |                                               |                |                t{}: 0x70a-0x70a.7 (1)
0x700|                              00               |          .     |                  n: 0 0x70a-0x70a.7 (1)
     |                                               |                |                  x[0:0]: 0x70b-NA (0)
     |                                               |                |                e[0:5]: 0x70b-0x714.7 (10)
     |                                               |                |                  [0]{}: in 0x70b-0x70f.7 (5)
0x700|                                 43            |           C    |                    f32.const: 0x43 (valid) 0x70b-0x70b.7 (1)
0x700|                                    00 00 00 00|            ....|                    z: 0 0x70c-0x70f.7 (4)
     |                                               |                |                  [1]{}: in 0x710-0x711.7 (2)
0x710|41                                             |A               |                    i32.const: 0x41 (valid) 0x710-0x710.7 (1)
0x710|   09                                          | .              |                    n: 9 0x711-0x711.7 (1)
     |                                               |                |                  [2]{}: in 0x712-0x712.7 (1)
0x710|      0f                                       |  .             |                    return: 0xf (valid) 0x712-0x712.7 (1)
     |                                               |                |                  [3]{}: in 0x713-0x713.7 (1)
0x710|         50                                    |   P            |                    i64.eqz: 0x50 (valid) 0x713-0x713.7 (1)
     |                                               |                |                  [4]{}: in 0x714-0x714.7 (1)
0x710|            0b                                 |    .           |                    end: 0xb (valid) 0x714-0x714.7 (1)
     |                                               |                |            [29]{}: code 0x715-0x727.7 (19)
0x710|               12                              |     .          |              size: 18 0x715-0x715.7 (1)
     |                                               |                |              code{}: 0x716-0x727.7 (18)
     |                                               |                |                t{}: 0x716-0x716.7 (1)
0x710|                  00                           |      .         |                  n: 0 0x716-0x716.7 (1)
     |                                               |                |                  x[0:0]: 0x717-NA (0)
     |                                               |                |                e[0:5]: 0x717-0x727.7 (17)
     |                                               |                |                  [0]{}: in 0x717-0x71b.7 (5)
0x710|                     43                        |       C        |                    f32.const: 0x43 (valid) 0x717-0x717.7 (1)
0x710|                        00 00 00 00            |        ....    |                    z: 0 0x718-0x71b.7 (4)
     |                                               |                |                  [1]{}: in 0x71c-0x724.7 (9)
0x710|                                    44         |            D   |                    f64.const: 0x44 (valid) 0x71c-0x71c.7 (1)
0x710|                                       00 00 00|             ...|                    z: 1 0x71d-0x724.7 (8)
0x720|00 00 00 f0 3f                                 |....?           |
     |                                               |                |                  [2]{}: in 0x725-0x725.7 (1)
0x720|               00                              |     .          |                    unreachable: 0x0 (valid) 0x725-0x725.7 (1)
     |                                               |                |                  [3]{}: in 0x726-0x726.7 (1)
0x720|                  51                           |      Q         |                    i64.eq: 0x51 (valid) 0x726-0x726.7 (1)
     |                                               |                |                  [4]{}: in 0x727-0x727.7 (1)
0x720|                     0b                        |       .        |                    end: 0xb (valid) 0x727-0x727.7 (1)
     |                                               |                |            [30]{}: code 0x728-0x740.7 (25)
0x720|                        18                     |        .       |              size: 24 0x728-0x728.7 (1)
     |                                               |                |              code{}: 0x729-0x740.7 (24)
     |                                               |                |                t{}: 0x729-0x729.7 (1)
0x720|                           00                  |         .      |                  n: 0 0x729-0x729.7 (1)
     |                                               |                |                  x[0:0]: 0x72a-NA (0)
     |                                               |                |                e[0:2]: 0x72a-0x740.7 (23)
     |                                               |                |                  [0]{}: in 0x72a-0x73f.7 (22)
0x720|                              02               |          .     |                    block: 0x2 (valid) 0x72a-0x72a.7 (1)
0x720|                                 7f            |           .    |                    bt: "i32" (127) 0x72b-0x72b.7 (1)
     |                                               |                |                    instructions[0:5]: 0x72c-0x73e.7 (19)
     |                                               |                |                      [0]{}: instr 0x72c-0x730.7 (5)
0x720|                                    43         |            C   |                        f32.const: 0x43 (valid) 0x72c-0x72c.7 (1)
0x720|                                       00 00 00|             ...|                        z: 0 0x72d-0x730.7 (4)
0x730|00                                             |.               |
     |                                               |                |                      [1]{}: instr 0x731-0x739.7 (9)
0x730|   44                                          | D              |                        f64.const: 0x44 (valid) 0x731-0x731.7 (1)
0x730|      00 00 00 00 00 00 f0 3f                  |  .......?      |                        z: 1 0x732-0x739.7 (8)
     |                                               |                |                      [2]{}: instr 0x73a-0x73b.7 (2)
0x730|                              41               |          A     |                        i32.const: 0x41 (valid) 0x73a-0x73a.7 (1)
0x730|                                 09            |           .    |                        n: 9 0x73b-0x73b.7 (1)
     |                                               |                |                      [3]{}: instr 0x73c-0x73d.7 (2)
0x730|                                    0c         |            .   |                        br: 0xc (valid) 0x73c-0x73c.7 (1)
0x730|                                       00      |             .  |                        l: 0 0x73d-0x73d.7 (1)
     |                                               |                |                      [4]{}: instr 0x73e-0x73e.7 (1)
0x730|                                          51   |              Q |                        i64.eq: 0x51 (valid) 0x73e-0x73e.7 (1)
0x730|                                             0b|               .|                    end: 11 (valid) 0x73f-0x73f.7 (1)
     |                                               |                |                  [1]{}: in 0x740-0x740.7 (1)
0x740|0b                                             |.               |                    end: 0xb (valid) 0x740-0x740.7 (1)
     |                                               |                |            [31]{}: code 0x741-0x752.7 (18)
0x740|   11                                          | .              |              size: 17 0x741-0x741.7 (1)
     |                                               |                |              code{}: 0x742-0x752.7 (17)
     |                                               |                |                t{}: 0x742-0x742.7 (1)
0x740|      00                                       |  .             |                  n: 0 0x742-0x742.7 (1)
     |                                               |                |                  x[0:0]: 0x743-NA (0)
     |                                               |                |                e[0:2]: 0x743-0x752.7 (16)
     |                                               |                |                  [0]{}: in 0x743-0x751.7 (15)
0x740|         02                                    |   .            |                    block: 0x2 (valid) 0x743-0x743.7 (1)
0x740|            7f                                 |    .           |                    bt: "i32" (127) 0x744-0x744.7 (1)
     |                                               |                |                    instructions[0:7]: 0x745-0x750.7 (12)
     |                                               |                |                      [0]{}: instr 0x745-0x746.7 (2)
0x740|               42                              |     B          |                        i64.const: 0x42 (valid) 0x745-0x745.7 (1)
0x740|                  00                           |      .         |                        n: 0 0x746-0x746.7 (1)
     |                                               |                |                      [1]{}: instr 0x747-0x748.7 (2)
0x740|                     42                        |       B        |                        i64.const: 0x42 (valid) 0x747-0x747.7 (1)
0x740|                        01                     |        .       |                        n: 1 0x748-0x748.7 (1)
     |                                               |                |                      [2]{}: instr 0x749-0x74a.7 (2)
0x740|                           41                  |         A      |                        i32.const: 0x41 (valid) 0x749-0x749.7 (1)
0x740|                              09               |          .     |                        n: 9 0x74a-0x74a.7 (1)
     |                                               |                |                      [3]{}: instr 0x74b-0x74c.7 (2)
0x740|                                 41            |           A    |                        i32.const: 0x41 (valid) 0x74b-0x74b.7 (1)
0x740|                                    01         |            .   |                        n: 1 0x74c-0x74c.7 (1)
     |                                               |                |                      [4]{}: instr 0x74d-0x74e.7 (2)
0x740|                                       0d      |             .  |                        br_if: 0xd (valid) 0x74d-0x74d.7 (1)
0x740|                                          00   |              . |                        l: 0 0x74e-0x74e.7 (1)
     |                                               |                |                      [5]{}: instr 0x74f-0x74f.7 (1)
0x740|                                             1a|               .|                        drop: 0x1a (valid) 0x74f-0x74f.7 (1)
     |                                               |                |                      [6]{}: instr 0x750-0x750.7 (1)
0x750|51                                             |Q               |                        i64.eq: 0x51 (valid) 0x750-0x750.7 (1)
0x750|   0b                                          | .              |                    end: 11 (valid) 0x751-0x751.7 (1)
     |                                               |                |                  [1]{}: in 0x752-0x752.7 (1)
0x750|      0b                                       |  .             |                    end: 0xb (valid) 0x752-0x752.7 (1)
     |                                               |                |            [32]{}: code 0x753-0x76e.7 (28)
0x750|         1b                                    |   .            |              size: 27 0x753-0x753.7 (1)
     |                                               |                |              code{}: 0x754-0x76e.7 (27)
     |                                               |                |                t{}: 0x754-0x754.7 (1)
0x750|            00                                 |    .           |                  n: 0 0x754-0x754.7 (1)
     |                                               |                |                  x[0:0]: 0x755-NA (0)
     |                                               |                |                e[0:2]: 0x755-0x76e.7 (26)
     |                                               |                |                  [0]{}: in 0x755-0x76d.7 (25)
0x750|               02                              |     .          |                    block: 0x2 (valid) 0x755-0x755.7 (1)
0x750|                  7f                           |      .         |                    bt: "i32" (127) 0x756-0x756.7 (1)
     |                                               |                |                    instructions[0:6]: 0x757-0x76c.7 (22)
     |                                               |                |                      [0]{}: instr 0x757-0x75b.7 (5)
0x750|                     43                        |       C        |                        f32.const: 0x43 (valid) 0x757-0x757.7 (1)
0x750|                        00 00 00 00            |        ....    |                        z: 0 0x758-0x75b.7 (4)
     |                                               |                |                      [1]{}: instr 0x75c-0x764.7 (9)
0x750|                                    44         |            D   |                        f64.const: 0x44 (valid) 0x75c-0x75c.7 (1)
0x750|                                       00 00 00|             ...|                        z: 1 0x75d-0x764.7 (8)
0x760|00 00 00 f0 3f                                 |....?           |
     |                                               |                |                      [2]{}: instr 0x765-0x766.7 (2)
0x760|               41                              |     A          |                        i32.const: 0x41 (valid) 0x765-0x765.7 (1)
0x760|                  09                           |      .         |                        n: 9 0x766-0x766.7 (1)
     |                                               |                |                      [3]{}: instr 0x767-0x768.7 (2)
0x760|                     41                        |       A        |                        i32.const: 0x41 (valid) 0x767-0x767.7 (1)
0x760|                        00                     |        .       |                        n: 0 0x768-0x768.7 (1)
     |                                               |                |                      [4]{}: instr 0x769-0x76b.7 (3)
0x760|                           0e                  |         .      |                        br_table: 0xe (valid) 0x769-0x769.7 (1)
     |                                               |                |                        l{}: 0x76a-0x76a.7 (1)
0x760|                              00               |          .     |                          n: 0 0x76a-0x76a.7 (1)
     |                                               |                |                          x[0:0]: 0x76b-NA (0)
0x760|                                 00            |           .    |                        lN: 0 0x76b-0x76b.7 (1)
     |                                               |                |                      [5]{}: instr 0x76c-0x76c.7 (1)
0x760|                                    51         |            Q   |                        i64.eq: 0x51 (valid) 0x76c-0x76c.7 (1)
0x760|                                       0b      |             .  |                    end: 11 (valid) 0x76d-0x76d.7 (1)
     |                                               |                |                  [1]{}: in 0x76e-0x76e.7 (1)
0x760|                                          0b   |              . |                    end: 0xb (valid) 0x76e-0x76e.7 (1)
     |                                               |                |            [33]{}: code 0x76f-0x783.7 (21)
0x760|                                             14|               .|              size: 20 0x76f-0x76f.7 (1)
     |                                               |                |              code{}: 0x770-0x783.7 (20)
     |                                               |                |                t{}: 0x770-0x770.7 (1)
0x770|00                                             |.               |                  n: 0 0x770-0x770.7 (1)
     |                                               |                |                  x[0:0]: 0x771-NA (0)
     |                                               |                |                e[0:6]: 0x771-0x783.7 (19)
     |                                               |                |                  [0]{}: in 0x771-0x775.7 (5)
0x770|   43                                          | C              |                    f32.const: 0x43 (valid) 0x771-0x771.7 (1)
0x770|      00 00 00 00                              |  ....          |                    z: 0 0x772-0x775.7 (4)
     |                                               |                |                  [1]{}: in 0x776-0x77e.7 (9)
0x770|                  44                           |      D         |                    f64.const: 0x44 (valid) 0x776-0x776.7 (1)
0x770|                     00 00 00 00 00 00 f0 3f   |       .......? |                    z: 1 0x777-0x77e.7 (8)
     |                                               |                |                  [2]{}: in 0x77f-0x780.7 (2)
0x770|                                             41|               A|                    i32.const: 0x41 (valid) 0x77f-0x77f.7 (1)
0x780|09                                             |.               |                    n: 9 0x780-0x780.7 (1)
     |                                               |                |                  [3]{}: in 0x781-0x781.7 (1)
0x780|   0f                                          | .              |                    return: 0xf (valid) 0x781-0x781.7 (1)
     |                                               |                |                  [4]{}: in 0x782-0x782.7 (1)
0x780|      51                                       |  Q             |                    i64.eq: 0x51 (valid) 0x782-0x782.7 (1)
     |                                               |                |                  [5]{}: in 0x783-0x783.7 (1)
0x780|         0b                                    |   .            |                    end: 0xb (valid) 0x783-0x783.7 (1)
     |                                               |                |            [34]{}: code 0x784-0x798.7 (21)
0x780|            14                                 |    .           |              size: 20 0x784-0x784.7 (1)
     |                                               |                |              code{}: 0x785-0x798.7 (20)
     |                                               |                |                t{}: 0x785-0x785.7 (1)
0x780|               00                              |     .          |                  n: 0 0x785-0x785.7 (1)
     |                                               |                |                  x[0:0]: 0x786-NA (0)
     |                                               |                |                e[0:6]: 0x786-0x798.7 (19)
     |                                               |                |                  [0]{}: in 0x786-0x78a.7 (5)
0x780|                  43                           |      C         |                    f32.const: 0x43 (valid) 0x786-0x786.7 (1)
0x780|                     00 00 00 00               |       ....     |                    z: 0 0x787-0x78a.7 (4)
     |                                               |                |                  [1]{}: in 0x78b-0x793.7 (9)
0x780|                                 44            |           D    |                    f64.const: 0x44 (valid) 0x78b-0x78b.7 (1)
0x780|                                    00 00 00 00|            ....|                    z: 1 0x78c-0x793.7 (8)
0x790|00 00 f0 3f                                    |...?            |
     |                                               |                |                  [2]{}: in 0x794-0x795.7 (2)
0x790|            42                                 |    B           |                    i64.const: 0x42 (valid) 0x794-0x794.7 (1)
0x790|               00                              |     .          |                    n: 0 0x795-0x795.7 (1)
     |                                               |                |                  [3]{}: in 0x796-0x796.7 (1)
0x790|                  00                           |      .         |                    unreachable: 0x0 (valid) 0x796-0x796.7 (1)
     |                                               |                |                  [4]{}: in 0x797-0x797.7 (1)
0x790|                     1b                        |       .        |                    select: 0x1b (valid) 0x797-0x797.7 (1)
     |                                               |                |                  [5]{}: in 0x798-0x798.7 (1)
0x790|                        0b                     |        .       |                    end: 0xb (valid) 0x798-0x798.7 (1)
     |                                               |                |            [35]{}: code 0x799-0x7b3.7 (27)
0x790|                           1a                  |         .      |              size: 26 0x799-0x799.7 (1)
     |                                               |                |              code{}: 0x79a-0x7b3.7 (26)
     |                                               |                |                t{}: 0x79a-0x79a.7 (1)
0x790|                              00               |          .     |                  n: 0 0x79a-0x79a.7 (1)
     |                                               |                |                  x[0:0]: 0x79b-NA (0)
     |                                               |                |                e[0:2]: 0x79b-0x7b3.7 (25)
     |                                               |                |                  [0]{}: in 0x79b-0x7b2.7 (24)
0x790|                                 02            |           .    |                    block: 0x2 (valid) 0x79b-0x79b.7 (1)
0x790|                                    7f         |            .   |                    bt: "i32" (127) 0x79c-0x79c.7 (1)
     |                                               |                |                    instructions[0:6]: 0x79d-0x7b1.7 (21)
     |                                               |                |                      [0]{}: instr 0x79d-0x7a1.7 (5)
0x790|                                       43      |             C  |                        f32.const: 0x43 (valid) 0x79d-0x79d.7 (1)
0x790|                                          00 00|              ..|                        z: 0 0x79e-0x7a1.7 (4)
0x7a0|00 00                                          |..              |
     |                                               |                |                      [1]{}: instr 0x7a2-0x7aa.7 (9)
0x7a0|      44                                       |  D             |                        f64.const: 0x44 (valid) 0x7a2-0x7a2.7 (1)
0x7a0|         00 00 00 00 00 00 f0 3f               |   .......?     |                        z: 1 0x7a3-0x7aa.7 (8)
     |                                               |                |                      [2]{}: instr 0x7ab-0x7ac.7 (2)
0x7a0|                                 42            |           B    |                        i64.const: 0x42 (valid) 0x7ab-0x7ab.7 (1)
0x7a0|                                    00         |            .   |                        n: 0 0x7ac-0x7ac.7 (1)
     |                                               |                |                      [3]{}: instr 0x7ad-0x7ae.7 (2)
0x7a0|                                       41      |             A  |                        i32.const: 0x41 (valid) 0x7ad-0x7ad.7 (1)
0x7a0|                                          09   |              . |                        n: 9 0x7ae-0x7ae.7 (1)
     |                                               |                |                      [4]{}: instr 0x7af-0x7b0.7 (2)
0x7a0|                                             0c|               .|                        br: 0xc (valid) 0x7af-0x7af.7 (1)
0x7b0|00                                             |.               |                        l: 0 0x7b0-0x7b0.7 (1)
     |                                               |                |                      [5]{}: instr 0x7b1-0x7b1.7 (1)
0x7b0|   1b                                          | .              |                        select: 0x1b (valid) 0x7b1-0x7b1.7 (1)
0x7b0|      0b                                       |  .             |                    end: 11 (valid) 0x7b2-0x7b2.7 (1)
     |                                               |                |                  [1]{}: in 0x7b3-0x7b3.7 (1)
0x7b0|         0b                                    |   .            |                    end: 0xb (valid) 0x7b3-0x7b3.7 (1)
     |                                               |                |            [36]{}: code 0x7b4-0x7c7.7 (20)
0x7b0|            13                                 |    .           |              size: 19 0x7b4-0x7b4.7 (1)
     |                                               |                |              code{}: 0x7b5-0x7c7.7 (19)
     |                                               |                |                t{}: 0x7b5-0x7b5.7 (1)
0x7b0|               00                              |     .          |                  n: 0 0x7b5-0x7b5.7 (1)
     |                                               |                |                  x[0:0]: 0x7b6-NA (0)
     |                                               |                |                e[0:2]: 0x7b6-0x7c7.7 (18)
     |                                               |                |                  [0]{}: in 0x7b6-0x7c6.7 (17)
0x7b0|                  02                           |      .         |                    block: 0x2 (valid) 0x7b6-0x7b6.7 (1)
0x7b0|                     7f                        |       .        |                    bt: "i32" (127) 0x7b7-0x7b7.7 (1)
     |                                               |                |                    instructions[0:8]: 0x7b8-0x7c5.7 (14)
     |                                               |                |                      [0]{}: instr 0x7b8-0x7b9.7 (2)
0x7b0|                        41                     |        A       |                        i32.const: 0x41 (valid) 0x7b8-0x7b8.7 (1)
0x7b0|                           00                  |         .      |                        n: 0 0x7b9-0x7b9.7 (1)
     |                                               |                |                      [1]{}: instr 0x7ba-0x7bb.7 (2)
0x7b0|                              41               |          A     |                        i32.const: 0x41 (valid) 0x7ba-0x7ba.7 (1)
0x7b0|                                 01            |           .    |                        n: 1 0x7bb-0x7bb.7 (1)
     |                                               |                |                      [2]{}: instr 0x7bc-0x7bd.7 (2)
0x7b0|                                    41         |            A   |                        i32.const: 0x41 (valid) 0x7bc-0x7bc.7 (1)
0x7b0|                                       00      |             .  |                        n: 0 0x7bd-0x7bd.7 (1)
     |                                               |                |                      [3]{}: instr 0x7be-0x7bf.7 (2)
0x7b0|                                          41   |              A |                        i32.const: 0x41 (valid) 0x7be-0x7be.7 (1)
0x7b0|                                             09|               .|                        n: 9 0x7bf-0x7bf.7 (1)
     |                                               |                |                      [4]{}: instr 0x7c0-0x7c1.7 (2)
0x7c0|41                                             |A               |                        i32.const: 0x41 (valid) 0x7c0-0x7c0.7 (1)
0x7c0|   01                                          | .              |                        n: 1 0x7c1-0x7c1.7 (1)
     |                                               |                |                      [5]{}: instr 0x7c2-0x7c3.7 (2)
0x7c0|      0d                                       |  .             |                        br_if: 0xd (valid) 0x7c2-0x7c2.7 (1)
0x7c0|         00                                    |   .            |                        l: 0 0x7c3-0x7c3.7 (1)
     |                                               |                |                      [6]{}: instr 0x7c4-0x7c4.7 (1)
0x7c0|            1a                                 |    .           |                        drop: 0x1a (valid) 0x7c4-0x7c4.7 (1)
     |                                               |                |                      [7]{}: instr 0x7c5-0x7c5.7 (1)
0x7c0|               1b                              |     .          |                        select: 0x1b (valid) 0x7c5-0x7c5.7 (1)
0x7c0|                  0b                           |      .         |                    end: 11 (valid) 0x7c6-0x7c6.7 (1)
     |                                               |                |                  [1]{}: in 0x7c7-0x7c7.7 (1)
0x7c0|                     0b                        |       .        |                    end: 0xb (valid) 0x7c7-0x7c7.7 (1)
     |                                               |                |            [37]{}: code 0x7c8-0x7e5.7 (30)
0x7c0|                        1d                     |        .       |              size: 29 0x7c8-0x7c8.7 (1)
     |                                               |                |              code{}: 0x7c9-0x7e5.7 (29)
     |                                               |                |                t{}: 0x7c9-0x7c9.7 (1)
0x7c0|                           00                  |         .      |                  n: 0 0x7c9-0x7c9.7 (1)
     |                                               |                |                  x[0:0]: 0x7ca-NA (0)
     |                                               |                |                e[0:2]: 0x7ca-0x7e5.7 (28)
     |                                               |                |                  [0]{}: in 0x7ca-0x7e4.7 (27)
0x7c0|                              02               |          .     |                    block: 0x2 (valid) 0x7ca-0x7ca.7 (1)
0x7c0|                                 7f            |           .    |                    bt: "i32" (127) 0x7cb-0x7cb.7 (1)
     |                                               |                |                    instructions[0:7]: 0x7cc-0x7e3.7 (24)
     |                                               |                |                      [0]{}: instr 0x7cc-0x7d0.7 (5)
0x7c0|                                    43         |            C   |                        f32.const: 0x43 (valid) 0x7cc-0x7cc.7 (1)
0x7c0|                                       00 00 00|             ...|                        z: 0 0x7cd-0x7d0.7 (4)
0x7d0|00                                             |.               |
     |                                               |                |                      [1]{}: instr 0x7d1-0x7d9.7 (9)
0x7d0|   44                                          | D              |                        f64.const: 0x44 (valid) 0x7d1-0x7d1.7 (1)
0x7d0|      00 00 00 00 00 00 f0 3f                  |  .......?      |                        z: 1 0x7d2-0x7d9.7 (8)
     |                                               |                |                      [2]{}: instr 0x7da-0x7db.7 (2)
0x7d0|                              42               |          B     |                        i64.const: 0x42 (valid) 0x7da-0x7da.7 (1)
0x7d0|                                 00            |           .    |                        n: 0 0x7db-0x7db.7 (1)
     |                                               |                |                      [3]{}: instr 0x7dc-0x7dd.7 (2)
0x7d0|                                    41         |            A   |                        i32.const: 0x41 (valid) 0x7dc-0x7dc.7 (1)
0x7d0|                                       09      |             .  |                        n: 9 0x7dd-0x7dd.7 (1)
     |                                               |                |                      [4]{}: instr 0x7de-0x7df.7 (2)
0x7d0|                                          41   |              A |                        i32.const: 0x41 (valid) 0x7de-0x7de.7 (1)
0x7d0|                                             00|               .|                        n: 0 0x7df-0x7df.7 (1)
     |                                               |                |                      [5]{}: instr 0x7e0-0x7e2.7 (3)
0x7e0|0e                                             |.               |                        br_table: 0xe (valid) 0x7e0-0x7e0.7 (1)
     |                                               |                |                        l{}: 0x7e1-0x7e1.7 (1)
0x7e0|   00                                          | .              |                          n: 0 0x7e1-0x7e1.7 (1)
     |                                               |                |                          x[0:0]: 0x7e2-NA (0)
0x7e0|      00                                       |  .             |                        lN: 0 0x7e2-0x7e2.7 (1)
     |                                               |                |                      [6]{}: instr 0x7e3-0x7e3.7 (1)
0x7e0|         1b                                    |   .            |                        select: 0x1b (valid) 0x7e3-0x7e3.7 (1)
0x7e0|            0b                                 |    .           |                    end: 11 (valid) 0x7e4-0x7e4.7 (1)
     |                                               |                |                  [1]{}: in 0x7e5-0x7e5.7 (1)
0x7e0|               0b                              |     .          |                    end: 0xb (valid) 0x7e5-0x7e5.7 (1)
     |                                               |                |            [38]{}: code 0x7e6-0x7fc.7 (23)
0x7e0|                  16                           |      .         |              size: 22 0x7e6-0x7e6.7 (1)
     |                                               |                |              code{}: 0x7e7-0x7fc.7 (22)
     |                                               |                |                t{}: 0x7e7-0x7e7.7 (1)
0x7e0|                     00                        |       .        |                  n: 0 0x7e7-0x7e7.7 (1)
     |                                               |                |                  x[0:0]: 0x7e8-NA (0)
     |                                               |                |                e[0:7]: 0x7e8-0x7fc.7 (21)
     |                                               |                |                  [0]{}: in 0x7e8-0x7ec.7 (5)
0x7e0|                        43                     |        C       |                    f32.const: 0x43 (valid) 0x7e8-0x7e8.7 (1)
0x7e0|                           00 00 00 00         |         ....   |                    z: 0 0x7e9-0x7ec.7 (4)
     |                                               |                |                  [1]{}: in 0x7ed-0x7f5.7 (9)
0x7e0|                                       44      |             D  |                    f64.const: 0x44 (valid) 0x7ed-0x7ed.7 (1)
0x7e0|                                          00 00|              ..|                    z: 1 0x7ee-0x7f5.7 (8)
0x7f0|00 00 00 00 f0 3f                              |.....?          |
     |                                               |                |                  [2]{}: in 0x7f6-0x7f7.7 (2)
0x7f0|                  42                           |      B         |                    i64.const: 0x42 (valid) 0x7f6-0x7f6.7 (1)
0x7f0|                     01                        |       .        |                    n: 1 0x7f7-0x7f7.7 (1)
     |                                               |                |                  [3]{}: in 0x7f8-0x7f9.7 (2)
0x7f0|                        41                     |        A       |                    i32.const: 0x41 (valid) 0x7f8-0x7f8.7 (1)
0x7f0|                           09                  |         .      |                    n: 9 0x7f9-0x7f9.7 (1)
     |                                               |                |                  [4]{}: in 0x7fa-0x7fa.7 (1)
0x7f0|                              0f               |          .     |                    return: 0xf (valid) 0x7fa-0x7fa.7 (1)
     |                                               |                |                  [5]{}: in 0x7fb-0x7fb.7 (1)
0x7f0|                                 1b            |           .    |                    select: 0x1b (valid) 0x7fb-0x7fb.7 (1)
     |                                               |                |                  [6]{}: in 0x7fc-0x7fc.7 (1)
0x7f0|                                    0b         |            .   |                    end: 0xb (valid) 0x7fc-0x7fc.7 (1)
     |                                               |                |            [39]{}: code 0x7fd-0x808.7 (12)
0x7f0|                                       0b      |             .  |              size: 11 0x7fd-0x7fd.7 (1)
     |                                               |                |              code{}: 0x7fe-0x808.7 (11)
     |                                               |                |                t{}: 0x7fe-0x7fe.7 (1)
0x7f0|                                          00   |              . |                  n: 0 0x7fe-0x7fe.7 (1)
     |                                               |                |                  x[0:0]: 0x7ff-NA (0)
     |                                               |                |                e[0:2]: 0x7ff-0x808.7 (10)
     |                                               |                |                  [0]{}: in 0x7ff-0x807.7 (9)
0x7f0|                                             02|               .|                    block: 0x2 (valid) 0x7ff-0x7ff.7 (1)
0x800|7f                                             |.               |                    bt: "i32" (127) 0x800-0x800.7 (1)
     |                                               |                |                    instructions[0:2]: 0x801-0x806.7 (6)
     |                                               |                |                      [0]{}: instr 0x801-0x805.7 (5)
0x800|   43                                          | C              |                        f32.const: 0x43 (valid) 0x801-0x801.7 (1)
0x800|      00 00 00 00                              |  ....          |                        z: 0 0x802-0x805.7 (4)
     |                                               |                |                      [1]{}: instr 0x806-0x806.7 (1)
0x800|                  00                           |      .         |                        unreachable: 0x0 (valid) 0x806-0x806.7 (1)
0x800|                     0b                        |       .        |                    end: 11 (valid) 0x807-0x807.7 (1)
     |                                               |                |                  [1]{}: in 0x808-0x808.7 (1)
0x800|                        0b                     |        .       |                    end: 0xb (valid) 0x808-0x808.7 (1)
     |                                               |                |            [40]{}: code 0x809-0x817.7 (15)
0x800|                           0e                  |         .      |              size: 14 0x809-0x809.7 (1)
     |                                               |                |              code{}: 0x80a-0x817.7 (14)
     |                                               |                |                t{}: 0x80a-0x80a.7 (1)
0x800|                              00               |          .     |                  n: 0 0x80a-0x80a.7 (1)
     |                                               |                |                  x[0:0]: 0x80b-NA (0)
     |                                               |                |                e[0:2]: 0x80b-0x817.7 (13)
     |                                               |                |                  [0]{}: in 0x80b-0x816.7 (12)
0x800|                                 02            |           .    |                    block: 0x2 (valid) 0x80b-0x80b.7 (1)
0x800|                                    7f         |            .   |                    bt: "i32" (127) 0x80c-0x80c.7 (1)
     |                                               |                |                    instructions[0:3]: 0x80d-0x815.7 (9)
     |                                               |                |                      [0]{}: instr 0x80d-0x811.7 (5)
0x800|                                       43      |             C  |                        f32.const: 0x43 (valid) 0x80d-0x80d.7 (1)
0x800|                                          00 00|              ..|                        z: 0 0x80e-0x811.7 (4)
0x810|00 00                                          |..              |
     |                                               |                |                      [1]{}: instr 0x812-0x813.7 (2)
0x810|      41                                       |  A             |                        i32.const: 0x41 (valid) 0x812-0x812.7 (1)
0x810|         09                                    |   .            |                        n: 9 0x813-0x813.7 (1)
     |                                               |                |                      [2]{}: instr 0x814-0x815.7 (2)
0x810|            0c                                 |    .           |                        br: 0xc (valid) 0x814-0x814.7 (1)
0x810|               00                              |     .          |                        l: 0 0x815-0x815.7 (1)
0x810|                  0b                           |      .         |                    end: 11 (valid) 0x816-0x816.7 (1)
     |                                               |                |                  [1]{}: in 0x817-0x817.7 (1)
0x810|                     0b                        |       .        |                    end: 0xb (valid) 0x817-0x817.7 (1)
     |                                               |                |            [41]{}: code 0x818-0x826.7 (15)
0x810|                        0e                     |        .       |              size: 14 0x818-0x818.7 (1)
     |                                               |                |              code{}: 0x819-0x826.7 (14)
     |                                               |                |                t{}: 0x819-0x819.7 (1)
0x810|                           00                  |         .      |                  n: 0 0x819-0x819.7 (1)
     |                                               |                |                  x[0:0]: 0x81a-NA (0)
     |                                               |                |                e[0:2]: 0x81a-0x826.7 (13)
     |                                               |                |                  [0]{}: in 0x81a-0x825.7 (12)
0x810|                              02               |          .     |                    block: 0x2 (valid) 0x81a-0x81a.7 (1)
0x810|                                 7f            |           .    |                    bt: "i32" (127) 0x81b-0x81b.7 (1)
     |                                               |                |                    instructions[0:5]: 0x81c-0x824.7 (9)
     |                                               |                |                      [0]{}: instr 0x81c-0x81d.7 (2)
0x810|                                    41         |            A   |                        i32.const: 0x41 (valid) 0x81c-0x81c.7 (1)
0x810|                                       00      |             .  |                        n: 0 0x81d-0x81d.7 (1)
     |                                               |                |                      [1]{}: instr 0x81e-0x81f.7 (2)
0x810|                                          41   |              A |                        i32.const: 0x41 (valid) 0x81e-0x81e.7 (1)
0x810|                                             09|               .|                        n: 9 0x81f-0x81f.7 (1)
     |                                               |                |                      [2]{}: instr 0x820-0x821.7 (2)
0x820|41                                             |A               |                        i32.const: 0x41 (valid) 0x820-0x820.7 (1)
0x820|   01                                          | .              |                        n: 1 0x821-0x821.7 (1)
     |                                               |                |                      [3]{}: instr 0x822-0x823.7 (2)
0x820|      0d                                       |  .             |                        br_if: 0xd (valid) 0x822-0x822.7 (1)
0x820|         00                                    |   .            |                        l: 0 0x823-0x823.7 (1)
     |                                               |                |                      [4]{}: instr 0x824-0x824.7 (1)
0x820|            1a                                 |    .           |                        drop: 0x1a (valid) 0x824-0x824.7 (1)
0x820|               0b                              |     .          |                    end: 11 (valid) 0x825-0x825.7 (1)
     |                                               |                |                  [1]{}: in 0x826-0x826.7 (1)
0x820|                  0b                           |      .         |                    end: 0xb (valid) 0x826-0x826.7 (1)
     |                                               |                |            [42]{}: code 0x827-0x839.7 (19)
0x820|                     12                        |       .        |              size: 18 0x827-0x827.7 (1)
     |                                               |                |              code{}: 0x828-0x839.7 (18)
     |                                               |                |                t{}: 0x828-0x828.7 (1)
0x820|                        00                     |        .       |                  n: 0 0x828-0x828.7 (1)
     |                                               |                |                  x[0:0]: 0x829-NA (0)
     |                                               |                |                e[0:2]: 0x829-0x839.7 (17)
     |                                               |                |                  [0]{}: in 0x829-0x838.7 (16)
0x820|                           02                  |         .      |                    block: 0x2 (valid) 0x829-0x829.7 (1)
0x820|                              7f               |          .     |                    bt: "i32" (127) 0x82a-0x82a.7 (1)
     |                                               |                |                    instructions[0:4]: 0x82b-0x837.7 (13)
     |                                               |                |                      [0]{}: instr 0x82b-0x82f.7 (5)
0x820|                                 43            |           C    |                        f32.const: 0x43 (valid) 0x82b-0x82b.7 (1)
0x820|                                    00 00 00 00|            ....|                        z: 0 0x82c-0x82f.7 (4)
     |                                               |                |                      [1]{}: instr 0x830-0x831.7 (2)
0x830|41                                             |A               |                        i32.const: 0x41 (valid) 0x830-0x830.7 (1)
0x830|   09                                          | .              |                        n: 9 0x831-0x831.7 (1)
     |                                               |                |                      [2]{}: instr 0x832-0x833.7 (2)
0x830|      41                                       |  A             |                        i32.const: 0x41 (valid) 0x832-0x832.7 (1)
0x830|         00                                    |   .            |                        n: 0 0x833-0x833.7 (1)
     |                                               |                |                      [3]{}: instr 0x834-0x837.7 (4)
0x830|            0e                                 |    .           |                        br_table: 0xe (valid) 0x834-0x834.7 (1)
     |                                               |                |                        l{}: 0x835-0x836.7 (2)
0x830|               01                              |     .          |                          n: 1 0x835-0x835.7 (1)
     |                                               |                |                          x[0:1]: 0x836-0x836.7 (1)
0x830|                  00                           |      .         |                            [0]: 0 l 0x836-0x836.7 (1)
0x830|                     00                        |       .        |                        lN: 0 0x837-0x837.7 (1)
0x830|                        0b                     |        .       |                    end: 11 (valid) 0x838-0x838.7 (1)
     |                                               |                |                  [1]{}: in 0x839-0x839.7 (1)
0x830|                           0b                  |         .      |                    end: 0xb (valid) 0x839-0x839.7 (1)
     |                                               |                |            [43]{}: code 0x83a-0x847.7 (14)
0x830|                              0d               |          .     |              size: 13 0x83a-0x83a.7 (1)
     |                                               |                |              code{}: 0x83b-0x847.7 (13)
     |                                               |                |                t{}: 0x83b-0x83b.7 (1)
0x830|                                 00            |           .    |                  n: 0 0x83b-0x83b.7 (1)
     |                                               |                |                  x[0:0]: 0x83c-NA (0)
     |                                               |                |                e[0:2]: 0x83c-0x847.7 (12)
     |                                               |                |                  [0]{}: in 0x83c-0x846.7 (11)
0x830|                                    02         |            .   |                    block: 0x2 (valid) 0x83c-0x83c.7 (1)
0x830|                                       7f      |             .  |                    bt: "i32" (127) 0x83d-0x83d.7 (1)
     |                                               |                |                    instructions[0:3]: 0x83e-0x845.7 (8)
     |                                               |                |                      [0]{}: instr 0x83e-0x842.7 (5)
0x830|                                          43   |              C |                        f32.const: 0x43 (valid) 0x83e-0x83e.7 (1)
0x830|                                             00|               .|                        z: 0 0x83f-0x842.7 (4)
0x840|00 00 00                                       |...             |
     |                                               |                |                      [1]{}: instr 0x843-0x844.7 (2)
0x840|         41                                    |   A            |                        i32.const: 0x41 (valid) 0x843-0x843.7 (1)
0x840|            09                                 |    .           |                        n: 9 0x844-0x844.7 (1)
     |                                               |                |                      [2]{}: instr 0x845-0x845.7 (1)
0x840|               0f                              |     .          |                        return: 0xf (valid) 0x845-0x845.7 (1)
0x840|                  0b                           |      .         |                    end: 11 (valid) 0x846-0x846.7 (1)
     |                                               |                |                  [1]{}: in 0x847-0x847.7 (1)
0x840|                     0b                        |       .        |                    end: 0xb (valid) 0x847-0x847.7 (1)
     |                                               |                |            [44]{}: code 0x848-0x853.7 (12)
0x840|                        0b                     |        .       |              size: 11 0x848-0x848.7 (1)
     |                                               |                |              code{}: 0x849-0x853.7 (11)
     |                                               |                |                t{}: 0x849-0x849.7 (1)
0x840|                           00                  |         .      |                  n: 0 0x849-0x849.7 (1)
     |                                               |                |                  x[0:0]: 0x84a-NA (0)
     |                                               |                |                e[0:2]: 0x84a-0x853.7 (10)
     |                                               |                |                  [0]{}: in 0x84a-0x852.7 (9)
0x840|                              03               |          .     |                    loop: 0x3 (valid) 0x84a-0x84a.7 (1)
0x840|                                 7f            |           .    |                    bt: "i32" (127) 0x84b-0x84b.7 (1)
     |                                               |                |                    instructions[0:2]: 0x84c-0x851.7 (6)
     |                                               |                |                      [0]{}: instr 0x84c-0x850.7 (5)
0x840|                                    43         |            C   |                        f32.const: 0x43 (valid) 0x84c-0x84c.7 (1)
0x840|                                       00 00 00|             ...|                        z: 0 0x84d-0x850.7 (4)
0x850|00                                             |.               |
     |                                               |                |                      [1]{}: instr 0x851-0x851.7 (1)
0x850|   00                                          | .              |                        unreachable: 0x0 (valid) 0x851-0x851.7 (1)
0x850|      0b                                       |  .             |                    end: 11 (valid) 0x852-0x852.7 (1)
     |                                               |                |                  [1]{}: in 0x853-0x853.7 (1)
0x850|         0b                                    |   .            |                    end: 0xb (valid) 0x853-0x853.7 (1)
     |                                               |                |            [45]{}: code 0x854-0x865.7 (18)
0x850|            11                                 |    .           |              size: 17 0x854-0x854.7 (1)
     |                                               |                |              code{}: 0x855-0x865.7 (17)
     |                                               |                |                t{}: 0x855-0x855.7 (1)
0x850|               00                              |     .          |                  n: 0 0x855-0x855.7 (1)
     |                                               |                |                  x[0:0]: 0x856-NA (0)
     |                                               |                |                e[0:2]: 0x856-0x865.7 (16)
     |                                               |                |                  [0]{}: in 0x856-0x864.7 (15)
0x850|                  02                           |      .         |                    block: 0x2 (valid) 0x856-0x856.7 (1)
0x850|                     7f                        |       .        |                    bt: "i32" (127) 0x857-0x857.7 (1)
     |                                               |                |                    instructions[0:1]: 0x858-0x863.7 (12)
     |                                               |                |                      [0]{}: instr 0x858-0x863.7 (12)
0x850|                        03                     |        .       |                        loop: 0x3 (valid) 0x858-0x858.7 (1)
0x850|                           7f                  |         .      |                        bt: "i32" (127) 0x859-0x859.7 (1)
     |                                               |                |                        instructions[0:3]: 0x85a-0x862.7 (9)
     |                                               |                |                          [0]{}: instr 0x85a-0x85e.7 (5)
0x850|                              43               |          C     |                            f32.const: 0x43 (valid) 0x85a-0x85a.7 (1)
0x850|                                 00 00 00 00   |           .... |                            z: 0 0x85b-0x85e.7 (4)
     |                                               |                |                          [1]{}: instr 0x85f-0x860.7 (2)
0x850|                                             41|               A|                            i32.const: 0x41 (valid) 0x85f-0x85f.7 (1)
0x860|09                                             |.               |                            n: 9 0x860-0x860.7 (1)
     |                                               |                |                          [2]{}: instr 0x861-0x862.7 (2)
0x860|   0c                                          | .              |                            br: 0xc (valid) 0x861-0x861.7 (1)
0x860|      01                                       |  .             |                            l: 1 0x862-0x862.7 (1)
0x860|         0b                                    |   .            |                        end: 11 (valid) 0x863-0x863.7 (1)
0x860|            0b                                 |    .           |                    end: 11 (valid) 0x864-0x864.7 (1)
     |                                               |                |                  [1]{}: in 0x865-0x865.7 (1)
0x860|               0b                              |     .          |                    end: 0xb (valid) 0x865-0x865.7 (1)
     |                                               |                |            [46]{}: code 0x866-0x877.7 (18)
0x860|                  11                           |      .         |              size: 17 0x866-0x866.7 (1)
     |                                               |                |              code{}: 0x867-0x877.7 (17)
     |                                               |                |                t{}: 0x867-0x867.7 (1)
0x860|                     00                        |       .        |                  n: 0 0x867-0x867.7 (1)
     |                                               |                |                  x[0:0]: 0x868-NA (0)
     |                                               |                |                e[0:2]: 0x868-0x877.7 (16)
     |                                               |                |                  [0]{}: in 0x868-0x876.7 (15)
0x860|                        02                     |        .       |                    block: 0x2 (valid) 0x868-0x868.7 (1)
0x860|                           7f                  |         .      |                    bt: "i32" (127) 0x869-0x869.7 (1)
     |                                               |                |                    instructions[0:1]: 0x86a-0x875.7 (12)
     |                                               |                |                      [0]{}: instr 0x86a-0x875.7 (12)
0x860|                              03               |          .     |                        loop: 0x3 (valid) 0x86a-0x86a.7 (1)
0x860|                                 7f            |           .    |                        bt: "i32" (127) 0x86b-0x86b.7 (1)
     |                                               |                |                        instructions[0:5]: 0x86c-0x874.7 (9)
     |                                               |                |                          [0]{}: instr 0x86c-0x86d.7 (2)
0x860|                                    41         |            A   |                            i32.const: 0x41 (valid) 0x86c-0x86c.7 (1)
0x860|                                       00      |             .  |                            n: 0 0x86d-0x86d.7 (1)
     |                                               |                |                          [1]{}: instr 0x86e-0x86f.7 (2)
0x860|                                          41   |              A |                            i32.const: 0x41 (valid) 0x86e-0x86e.7 (1)
0x860|                                             09|               .|                            n: 9 0x86f-0x86f.7 (1)
     |                                               |                |                          [2]{}: instr 0x870-0x871.7 (2)
0x870|41                                             |A               |                            i32.const: 0x41 (valid) 0x870-0x870.7 (1)
0x870|   01                                          | .              |                            n: 1 0x871-0x871.7 (1)
     |                                               |                |                          [3]{}: instr 0x872-0x873.7 (2)
0x870|      0d                                       |  .             |                            br_if: 0xd (valid) 0x872-0x872.7 (1)
0x870|         01                                    |   .            |                            l: 1 0x873-0x873.7 (1)
     |                                               |                |                          [4]{}: instr 0x874-0x874.7 (1)
0x870|            1a                                 |    .           |                            drop: 0x1a (valid) 0x874-0x874.7 (1)
0x870|               0b                              |     .          |                        end: 11 (valid) 0x875-0x875.7 (1)
0x870|                  0b                           |      .         |                    end: 11 (valid) 0x876-0x876.7 (1)
     |                                               |                |                  [1]{}: in 0x877-0x877.7 (1)
0x870|                     0b                        |       .        |                    end: 0xb (valid) 0x877-0x877.7 (1)
     |                                               |                |            [47]{}: code 0x878-0x88d.7 (22)
0x870|                        15                     |        .       |              size: 21 0x878-0x878.7 (1)
     |                                               |                |              code{}: 0x879-0x88d.7 (21)
     |                                               |                |                t{}: 0x879-0x879.7 (1)
0x870|                           00                  |         .      |                  n: 0 0x879-0x879.7 (1)
     |                                               |                |                  x[0:0]: 0x87a-NA (0)
     |                                               |                |                e[0:2]: 0x87a-0x88d.7 (20)
     |                                               |                |                  [0]{}: in 0x87a-0x88c.7 (19)
0x870|                              02               |          .     |                    block: 0x2 (valid) 0x87a-0x87a.7 (1)
0x870|                                 7f            |           .    |                    bt: "i32" (127) 0x87b-0x87b.7 (1)
     |                                               |                |                    instructions[0:1]: 0x87c-0x88b.7 (16)
     |                                               |                |                      [0]{}: instr 0x87c-0x88b.7 (16)
0x870|                                    03         |            .   |                        loop: 0x3 (valid) 0x87c-0x87c.7 (1)
0x870|                                       7f      |             .  |                        bt: "i32" (127) 0x87d-0x87d.7 (1)
     |                                               |                |                        instructions[0:4]: 0x87e-0x88a.7 (13)
     |                                               |                |                          [0]{}: instr 0x87e-0x882.7 (5)
0x870|                                          43   |              C |                            f32.const: 0x43 (valid) 0x87e-0x87e.7 (1)
0x870|                                             00|               .|                            z: 0 0x87f-0x882.7 (4)
0x880|00 00 00                                       |...             |
     |                                               |                |                          [1]{}: instr 0x883-0x884.7 (2)
0x880|         41                                    |   A            |                            i32.const: 0x41 (valid) 0x883-0x883.7 (1)
0x880|            09                                 |    .           |                            n: 9 0x884-0x884.7 (1)
     |                                               |                |                          [2]{}: instr 0x885-0x886.7 (2)
0x880|               41                              |     A          |                            i32.const: 0x41 (valid) 0x885-0x885.7 (1)
0x880|                  00                           |      .         |                            n: 0 0x886-0x886.7 (1)
     |                                               |                |                          [3]{}: instr 0x887-0x88a.7 (4)
0x880|                     0e                        |       .        |                            br_table: 0xe (valid) 0x887-0x887.7 (1)
     |                                               |                |                            l{}: 0x888-0x889.7 (2)
0x880|                        01                     |        .       |                              n: 1 0x888-0x888.7 (1)
     |                                               |                |                              x[0:1]: 0x889-0x889.7 (1)
0x880|                           01                  |         .      |                                [0]: 1 l 0x889-0x889.7 (1)
0x880|                              01               |          .     |                            lN: 1 0x88a-0x88a.7 (1)
0x880|                                 0b            |           .    |                        end: 11 (valid) 0x88b-0x88b.7 (1)
0x880|                                    0b         |            .   |                    end: 11 (valid) 0x88c-0x88c.7 (1)
     |                                               |                |                  [1]{}: in 0x88d-0x88d.7 (1)
0x880|                                       0b      |             .  |                    end: 0xb (valid) 0x88d-0x88d.7 (1)
     |                                               |                |            [48]{}: code 0x88e-0x89b.7 (14)
0x880|                                          0d   |              . |              size: 13 0x88e-0x88e.7 (1)
     |                                               |                |              code{}: 0x88f-0x89b.7 (13)
     |                                               |                |                t{}: 0x88f-0x88f.7 (1)
0x880|                                             00|               .|                  n: 0 0x88f-0x88f.7 (1)
     |                                               |                |                  x[0:0]: 0x890-NA (0)
     |                                               |                |                e[0:2]: 0x890-0x89b.7 (12)
     |                                               |                |                  [0]{}: in 0x890-0x89a.7 (11)
0x890|03                                             |.               |                    loop: 0x3 (valid) 0x890-0x890.7 (1)
0x890|   7f                                          | .              |                    bt: "i32" (127) 0x891-0x891.7 (1)
     |                                               |                |                    instructions[0:3]: 0x892-0x899.7 (8)
     |                                               |                |                      [0]{}: instr 0x892-0x896.7 (5)
0x890|      43                                       |  C             |                        f32.const: 0x43 (valid) 0x892-0x892.7 (1)
0x890|         00 00 00 00                           |   ....         |                        z: 0 0x893-0x896.7 (4)
     |                                               |                |                      [1]{}: instr 0x897-0x898.7 (2)
0x890|                     41                        |       A        |                        i32.const: 0x41 (valid) 0x897-0x897.7 (1)
0x890|                        09                     |        .       |                        n: 9 0x898-0x898.7 (1)
     |                                               |                |                      [2]{}: instr 0x899-0x899.7 (1)
0x890|                           0f                  |         .      |                        return: 0xf (valid) 0x899-0x899.7 (1)
0x890|                              0b               |          .     |                    end: 11 (valid) 0x89a-0x89a.7 (1)
     |                                               |                |                  [1]{}: in 0x89b-0x89b.7 (1)
0x890|                                 0b|           |           .|   |                    end: 0xb (valid) 0x89b-0x89b.7 (1)
