$ fq -o keylog=@all.keylog ".tcp_connections[0] | dv" TLS_DHE_DSS_WITH_SEED_CBC_SHA.pcap
       |00 01 02 03 04 05 06 07 08 09 0a 0b 0c 0d 0e 0f|0123456789abcdef|.tcp_connections[0]{}: tcp_connection 0xeae-0xeae (0)
       |                                               |                |  client{}: 0xeae-0xeae (0)
       |                                               |                |    ip: "127.0.0.1"
       |                                               |                |    port: 56749
       |                                               |                |    has_start: true
       |                                               |                |    has_end: false
       |                                               |                |    skipped_bytes: 0
       |00 01 02 03 04 05 06 07 08 09 0a 0b 0c 0d 0e 0f|0123456789abcdef|    stream{}: (tls) 0x0-0x176 (374)
       |                                               |                |      records[0:6]: 0x0-0x176 (374)
       |                                               |                |        [0]{}: record 0x0-0x66 (102)
  0x000|16                                             |.               |          type: "handshake" (22) (valid) 0x0-0x1 (1)
  0x000|   03 01                                       | ..             |          version: "tls1.0" (0x301) (valid) 0x1-0x3 (2)
  0x000|         00 61                                 |   .a           |          length: 97 0x3-0x5 (2)
       |                                               |                |          message{}: 0x5-0x66 (97)
  0x000|               01                              |     .          |            type: "client_hello" (1) 0x5-0x6 (1)
  0x000|                  00 00 5d                     |      ..]       |            length: 93 0x6-0x9 (3)
  0x000|                           03 03               |         ..     |            version: "tls1.2" (0x303) 0x9-0xb (2)
       |                                               |                |            random{}: 0xb-0x2b (32)
  0x000|                                 52 36 2c 11   |           R6,. |              gmt_unix_time: 1379281937 (2013-09-15T21:52:17Z) 0xb-0xf (4)
  0x000|                                             bc|               .|              random_bytes: raw bits 0xf-0x2b (28)
  0x001|7a c8 e3 03 96 d3 9b 15 19 d1 c7 d3 68 a3 1b 2f|z...........h../|
  0x002|ec 54 28 c0 63 dd aa 30 4e 7d 58               |.T(.c..0N}X     |
  0x002|                                 00            |           .    |            session_id_length: 0 0x2b-0x2c (1)
       |                                               |                |            session_id: raw bits 0x2c-0x2c (0)
  0x002|                                    00 04      |            ..  |            cipher_suits_length: 4 0x2c-0x2e (2)
       |                                               |                |            cipher_suits[0:2]: 0x2e-0x32 (4)
  0x002|                                          00 99|              ..|              [0]: "TLS_DHE_DSS_WITH_SEED_CBC_SHA" (0x99) cipher_suit 0x2e-0x30 (2)
  0x003|00 ff                                          |..              |              [1]: "TLS_EMPTY_RENEGOTIATION_INFO_SCSV" (0xff) cipher_suit 0x30-0x32 (2)
  0x003|      02                                       |  .             |            compression_methods_length: 2 0x32-0x33 (1)
       |                                               |                |            compression_methods[0:2]: 0x33-0x35 (2)
  0x003|         01                                    |   .            |              [0]: "deflate" (0x1) compression_method 0x33-0x34 (1)
  0x003|            00                                 |    .           |              [1]: "null" (0x0) compression_method 0x34-0x35 (1)
  0x003|               00 2f                           |     ./         |            extensions_length: 47 0x35-0x37 (2)
       |                                               |                |            extensions[0:3]: 0x37-0x66 (47)
       |                                               |                |              [0]{}: extension 0x37-0x3b (4)
  0x003|                     00 23                     |       .#       |                type: "session_ticket" (35) 0x37-0x39 (2)
  0x003|                           00 00               |         ..     |                length: 0 0x39-0x3b (2)
       |                                               |                |              [1]{}: extension 0x3b-0x61 (38)
  0x003|                                 00 0d         |           ..   |                type: "signature_algorithms" (13) 0x3b-0x3d (2)
  0x003|                                       00 22   |             ." |                length: 34 0x3d-0x3f (2)
  0x003|                                             00|               .|                signature_algorithms_length: 32 0x3f-0x41 (2)
  0x004|20                                             |                |
       |                                               |                |                signature_algorithms[0:16]: 0x41-0x61 (32)
       |                                               |                |                  [0]{}: signature_algorithm 0x41-0x43 (2)
  0x004|   06                                          | .              |                    hash: "sha512" (6) 0x41-0x42 (1)
  0x004|      01                                       |  .             |                    signature: "rsa" (1) 0x42-0x43 (1)
       |                                               |                |                  [1]{}: signature_algorithm 0x43-0x45 (2)
  0x004|         06                                    |   .            |                    hash: "sha512" (6) 0x43-0x44 (1)
  0x004|            02                                 |    .           |                    signature: "dsa" (2) 0x44-0x45 (1)
       |                                               |                |                  [2]{}: signature_algorithm 0x45-0x47 (2)
  0x004|               06                              |     .          |                    hash: "sha512" (6) 0x45-0x46 (1)
  0x004|                  03                           |      .         |                    signature: "ecdsa" (3) 0x46-0x47 (1)
       |                                               |                |                  [3]{}: signature_algorithm 0x47-0x49 (2)
  0x004|                     05                        |       .        |                    hash: "sha384" (5) 0x47-0x48 (1)
  0x004|                        01                     |        .       |                    signature: "rsa" (1) 0x48-0x49 (1)
       |                                               |                |                  [4]{}: signature_algorithm 0x49-0x4b (2)
  0x004|                           05                  |         .      |                    hash: "sha384" (5) 0x49-0x4a (1)
  0x004|                              02               |          .     |                    signature: "dsa" (2) 0x4a-0x4b (1)
       |                                               |                |                  [5]{}: signature_algorithm 0x4b-0x4d (2)
  0x004|                                 05            |           .    |                    hash: "sha384" (5) 0x4b-0x4c (1)
  0x004|                                    03         |            .   |                    signature: "ecdsa" (3) 0x4c-0x4d (1)
       |                                               |                |                  [6]{}: signature_algorithm 0x4d-0x4f (2)
  0x004|                                       04      |             .  |                    hash: "sha256" (4) 0x4d-0x4e (1)
  0x004|                                          01   |              . |                    signature: "rsa" (1) 0x4e-0x4f (1)
       |                                               |                |                  [7]{}: signature_algorithm 0x4f-0x51 (2)
  0x004|                                             04|               .|                    hash: "sha256" (4) 0x4f-0x50 (1)
  0x005|02                                             |.               |                    signature: "dsa" (2) 0x50-0x51 (1)
       |                                               |                |                  [8]{}: signature_algorithm 0x51-0x53 (2)
  0x005|   04                                          | .              |                    hash: "sha256" (4) 0x51-0x52 (1)
  0x005|      03                                       |  .             |                    signature: "ecdsa" (3) 0x52-0x53 (1)
       |                                               |                |                  [9]{}: signature_algorithm 0x53-0x55 (2)
  0x005|         03                                    |   .            |                    hash: "sha224" (3) 0x53-0x54 (1)
  0x005|            01                                 |    .           |                    signature: "rsa" (1) 0x54-0x55 (1)
       |                                               |                |                  [10]{}: signature_algorithm 0x55-0x57 (2)
  0x005|               03                              |     .          |                    hash: "sha224" (3) 0x55-0x56 (1)
  0x005|                  02                           |      .         |                    signature: "dsa" (2) 0x56-0x57 (1)
       |                                               |                |                  [11]{}: signature_algorithm 0x57-0x59 (2)
  0x005|                     03                        |       .        |                    hash: "sha224" (3) 0x57-0x58 (1)
  0x005|                        03                     |        .       |                    signature: "ecdsa" (3) 0x58-0x59 (1)
       |                                               |                |                  [12]{}: signature_algorithm 0x59-0x5b (2)
  0x005|                           02                  |         .      |                    hash: "sha1" (2) 0x59-0x5a (1)
  0x005|                              01               |          .     |                    signature: "rsa" (1) 0x5a-0x5b (1)
       |                                               |                |                  [13]{}: signature_algorithm 0x5b-0x5d (2)
  0x005|                                 02            |           .    |                    hash: "sha1" (2) 0x5b-0x5c (1)
  0x005|                                    02         |            .   |                    signature: "dsa" (2) 0x5c-0x5d (1)
       |                                               |                |                  [14]{}: signature_algorithm 0x5d-0x5f (2)
  0x005|                                       02      |             .  |                    hash: "sha1" (2) 0x5d-0x5e (1)
  0x005|                                          03   |              . |                    signature: "ecdsa" (3) 0x5e-0x5f (1)
       |                                               |                |                  [15]{}: signature_algorithm 0x5f-0x61 (2)
  0x005|                                             01|               .|                    hash: "md5" (1) 0x5f-0x60 (1)
  0x006|01                                             |.               |                    signature: "rsa" (1) 0x60-0x61 (1)
       |                                               |                |              [2]{}: extension 0x61-0x66 (5)
  0x006|   00 0f                                       | ..             |                type: "heartbeat" (15) 0x61-0x63 (2)
  0x006|         00 01                                 |   ..           |                length: 1 0x63-0x65 (2)
  0x006|               01                              |     .          |                data: raw bits 0x65-0x66 (1)
       |                                               |                |        [1]{}: record 0x66-0xb1 (75)
  0x006|                  16                           |      .         |          type: "handshake" (22) (valid) 0x66-0x67 (1)
  0x006|                     03 03                     |       ..       |          version: "tls1.2" (0x303) (valid) 0x67-0x69 (2)
  0x006|                           00 46               |         .F     |          length: 70 0x69-0x6b (2)
       |                                               |                |          message{}: 0x6b-0xb1 (70)
  0x006|                                 10            |           .    |            type: "client_key_exchange" (16) 0x6b-0x6c (1)
  0x006|                                    00 00 42   |            ..B |            length: 66 0x6c-0x6f (3)
       |                                               |                |            public{}: 0x6f-0x6f (0)
  0x006|                                             00|               .|              length: 64 0x6f-0x71 (2)
  0x007|40                                             |@               |
  0x007|   a5 70 c4 70 9b ce cc 7e e8 b2 72 5e 60 eb 36| .p.p...~..r^`.6|              data: raw bits 0x71-0xb1 (64)
  0x008|31 15 54 7b 8e e8 26 73 b9 26 51 06 fe 2c e9 59|1.T{..&s.&Q..,.Y|
  *    |until 0xb0.7 (64)                              |                |
       |                                               |                |        [2]{}: record 0xb1-0xb7 (6)
  0x00b|   14                                          | .              |          type: "change_cipher_spec" (20) (valid) 0xb1-0xb2 (1)
  0x00b|      03 03                                    |  ..            |          version: "tls1.2" (0x303) (valid) 0xb2-0xb4 (2)
  0x00b|            00 01                              |    ..          |          length: 1 0xb4-0xb6 (2)
       |                                               |                |          message{}: 0xb6-0xb7 (1)
  0x00b|                  01                           |      .         |            type: 1 0xb6-0xb7 (1)
       |                                               |                |        [3]{}: record 0xb7-0xfc (69)
  0x00b|                     16                        |       .        |          type: "handshake" (22) (valid) 0xb7-0xb8 (1)
  0x00b|                        03 03                  |        ..      |          version: "tls1.2" (0x303) (valid) 0xb8-0xba (2)
  0x00b|                              00 40            |          .@    |          length: 64 0xba-0xbc (2)
  0x00b|                                    16 64 67 74|            .dgt|          encrypted_data: raw bits 0xbc-0xfc (64)
  0x00c|d6 18 cd 73 78 81 af 6f 59 4a 6d cc 08 b1 88 75|...sx..oYJm....u|
  *    |until 0xfb.7 (64)                              |                |
       |                                               |                |        [4]{}: record 0xfc-0x141 (69)
  0x00f|                                    17         |            .   |          type: "application_data" (23) (valid) 0xfc-0xfd (1)
  0x00f|                                       03 03   |             .. |          version: "tls1.2" (0x303) (valid) 0xfd-0xff (2)
  0x00f|                                             00|               .|          length: 64 0xff-0x101 (2)
  0x010|40                                             |@               |
  0x010|   3f 4a e3 c0 f8 e5 a4 23 04 52 ad 9d c6 ea 50| ?J.....#.R....P|          encrypted_data: raw bits 0x101-0x141 (64)
  0x011|1a 77 18 c9 32 53 f1 17 cb a6 f7 9e d9 dd 9a 8f|.w..2S..........|
  *    |until 0x140.7 (64)                             |                |
       |                                               |                |        [5]{}: record 0x141-0x176 (53)
  0x014|   15                                          | .              |          type: "alert" (21) (valid) 0x141-0x142 (1)
  0x014|      03 03                                    |  ..            |          version: "tls1.2" (0x303) (valid) 0x142-0x144 (2)
  0x014|            00 30                              |    .0          |          length: 48 0x144-0x146 (2)
  0x014|                  a5 5a 1c db 9f 6d a9 ac 93 8f|      .Z...m....|          encrypted_data: raw bits 0x146-0x176 (48)
  0x015|c4 20 72 3e 10 2c 06 a3 b5 ce 6c 49 e8 33 22 f6|. r>.,....lI.3".|
  *    |until 0x175.7 (end) (48)                       |                |
       |                                               |                |  server{}: 0xeae-0xeae (0)
       |                                               |                |    ip: "127.0.0.1"
       |                                               |                |    port: 4433
       |                                               |                |    has_start: true
       |                                               |                |    has_end: true
       |                                               |                |    skipped_bytes: 0
       |00 01 02 03 04 05 06 07 08 09 0a 0b 0c 0d 0e 0f|0123456789abcdef|    stream{}: (tls) 0x0-0x920 (2336)
       |                                               |                |      records[0:8]: 0x0-0x920 (2336)
       |                                               |                |        [0]{}: record 0x0-0x3f (63)
  0x000|16                                             |.               |          type: "handshake" (22) (valid) 0x0-0x1 (1)
  0x000|   03 03                                       | ..             |          version: "tls1.2" (0x303) (valid) 0x1-0x3 (2)
  0x000|         00 3a                                 |   .:           |          length: 58 0x3-0x5 (2)
       |                                               |                |          message{}: 0x5-0x3f (58)
  0x000|               02                              |     .          |            type: "server_hello" (2) 0x5-0x6 (1)
  0x000|                  00 00 36                     |      ..6       |            length: 54 0x6-0x9 (3)
  0x000|                           03 03               |         ..     |            version: "tls1.2" (0x303) 0x9-0xb (2)
       |                                               |                |            random{}: 0xb-0x2b (32)
  0x000|                                 52 36 2c 11   |           R6,. |              gmt_unix_time: 1379281937 (2013-09-15T21:52:17Z) 0xb-0xf (4)
  0x000|                                             b0|               .|              random_bytes: raw bits 0xf-0x2b (28)
  0x001|c9 7a 93 cd c9 0c 33 11 00 39 93 c7 77 ac 30 f2|.z....3..9..w.0.|
  0x002|38 cb dd f0 58 51 1a e8 c4 87 88               |8...XQ.....     |
  0x002|                                 00            |           .    |            session_id_length: 0 0x2b-0x2c (1)
       |                                               |                |            session_id: raw bits 0x2c-0x2c (0)
  0x002|                                    00 99      |            ..  |            cipher_suit: "TLS_DHE_DSS_WITH_SEED_CBC_SHA" (0x99) 0x2c-0x2e (2)
  0x002|                                          01   |              . |            compression_method: "deflate" (0x1) 0x2e-0x2f (1)
  0x002|                                             00|               .|            extensions_length: 14 0x2f-0x31 (2)
  0x003|0e                                             |.               |
       |                                               |                |            extensions[0:3]: 0x31-0x3f (14)
       |                                               |                |              [0]{}: extension 0x31-0x36 (5)
  0x003|   ff 01                                       | ..             |                type: "renegotiation_info" (65281) 0x31-0x33 (2)
  0x003|         00 01                                 |   ..           |                length: 1 0x33-0x35 (2)
  0x003|               00                              |     .          |                data: raw bits 0x35-0x36 (1)
       |                                               |                |              [1]{}: extension 0x36-0x3a (4)
  0x003|                  00 23                        |      .#        |                type: "session_ticket" (35) 0x36-0x38 (2)
  0x003|                        00 00                  |        ..      |                length: 0 0x38-0x3a (2)
       |                                               |                |              [2]{}: extension 0x3a-0x3f (5)
  0x003|                              00 0f            |          ..    |                type: "heartbeat" (15) 0x3a-0x3c (2)
  0x003|                                    00 01      |            ..  |                length: 1 0x3c-0x3e (2)
  0x003|                                          01   |              . |                data: raw bits 0x3e-0x3f (1)
       |                                               |                |        [1]{}: record 0x3f-0x2c4 (645)
  0x003|                                             16|               .|          type: "handshake" (22) (valid) 0x3f-0x40 (1)
  0x004|03 03                                          |..              |          version: "tls1.2" (0x303) (valid) 0x40-0x42 (2)
  0x004|      02 80                                    |  ..            |          length: 640 0x42-0x44 (2)
       |                                               |                |          message{}: 0x44-0x2c4 (640)
  0x004|            0b                                 |    .           |            type: "certificate" (11) 0x44-0x45 (1)
  0x004|               00 02 7c                        |     ..|        |            length: 636 0x45-0x48 (3)
  0x004|                        00 02 79               |        ..y     |            certificates_length: 633 0x48-0x4b (3)
       |                                               |                |            certificates[0:1]: 0x4b-0x2c4 (633)
       |                                               |                |              [0]{}: certificate 0x4b-0x2c4 (633)
  0x004|                                 00 02 76      |           ..v  |                length: 630 0x4b-0x4e (3)
       |00 01 02 03 04 05 06 07 08 09 0a 0b 0c 0d 0e 0f|0123456789abcdef|                data{}: (asn1_ber) 0x4e-0x2c4 (630)
  0x004|                                          30   |              0 |                  class: "universal" (0) 0x4e-0x4e.2 (0.2)
  0x004|                                          30   |              0 |                  form: "constructed" (1) 0x4e.2-0x4e.3 (0.1)
  0x004|                                          30   |              0 |                  tag: "sequence" (0x10) 0x4e.3-0x4f (0.5)
  0x004|                                             82|               .|                  length: 626 0x4f-0x52 (3)
  0x005|02 72                                          |.r              |
       |                                               |                |                  constructed[0:3]: 0x52-0x2c4 (626)
       |                                               |                |                    [0]{}: object 0x52-0x288 (566)
  0x005|      30                                       |  0             |                      class: "universal" (0) 0x52-0x52.2 (0.2)
  0x005|      30                                       |  0             |                      form: "constructed" (1) 0x52.2-0x52.3 (0.1)
  0x005|      30                                       |  0             |                      tag: "sequence" (0x10) 0x52.3-0x53 (0.5)
  0x005|         82 02 32                              |   ..2          |                      length: 562 0x53-0x56 (3)
       |                                               |                |                      constructed[0:6]: 0x56-0x288 (562)
       |                                               |                |                        [0]{}: object 0x56-0x61 (11)
  0x005|                  02                           |      .         |                          class: "universal" (0) 0x56-0x56.2 (0.2)
  0x005|                  02                           |      .         |                          form: "primitive" (0) 0x56.2-0x56.3 (0.1)
  0x005|                  02                           |      .         |                          tag: "integer" (0x2) 0x56.3-0x57 (0.5)
  0x005|                     09                        |       .        |                          length: 9 0x57-0x58 (1)
  0x005|                        00 c6 85 8b d3 08 d4 32|        .......2|                          value: 14304993529914733277 0x58-0x61 (9)
  0x006|dd                                             |.               |
       |                                               |                |                        [1]{}: object 0x61-0x6c (11)
  0x006|   30                                          | 0              |                          class: "universal" (0) 0x61-0x61.2 (0.2)
  0x006|   30                                          | 0              |                          form: "constructed" (1) 0x61.2-0x61.3 (0.1)
  0x006|   30                                          | 0              |                          tag: "sequence" (0x10) 0x61.3-0x62 (0.5)
  0x006|      09                                       |  .             |                          length: 9 0x62-0x63 (1)
       |                                               |                |                          constructed[0:1]: 0x63-0x6c (9)
       |                                               |                |                            [0]{}: object 0x63-0x6c (9)
  0x006|         06                                    |   .            |                              class: "universal" (0) 0x63-0x63.2 (0.2)
  0x006|         06                                    |   .            |                              form: "primitive" (0) 0x63.2-0x63.3 (0.1)
  0x006|         06                                    |   .            |                              tag: "object_identifier" (0x6) 0x63.3-0x64 (0.5)
  0x006|            07                                 |    .           |                              length: 7 0x64-0x65 (1)
       |                                               |                |                              value[0:6]: 0x65-0x6c (7)
  0x006|               2a                              |     *          |                                [0]: 1 oid 0x65-0x66 (1)
  0x006|               2a                              |     *          |                                [1]: 2 oid 0x65-0x66 (1)
  0x006|                  86 48                        |      .H        |                                [2]: 840 oid 0x66-0x68 (2)
  0x006|                        ce 38                  |        .8      |                                [3]: 10040 oid 0x68-0x6a (2)
  0x006|                              04               |          .     |                                [4]: 4 oid 0x6a-0x6b (1)
  0x006|                                 03            |           .    |                                [5]: 3 oid 0x6b-0x6c (1)
       |                                               |                |                        [2]{}: object 0x6c-0x8d (33)
  0x006|                                    30         |            0   |                          class: "universal" (0) 0x6c-0x6c.2 (0.2)
  0x006|                                    30         |            0   |                          form: "constructed" (1) 0x6c.2-0x6c.3 (0.1)
  0x006|                                    30         |            0   |                          tag: "sequence" (0x10) 0x6c.3-0x6d (0.5)
  0x006|                                       1f      |             .  |                          length: 31 0x6d-0x6e (1)
       |                                               |                |                          constructed[0:1]: 0x6e-0x8d (31)
       |                                               |                |                            [0]{}: object 0x6e-0x8d (31)
  0x006|                                          31   |              1 |                              class: "universal" (0) 0x6e-0x6e.2 (0.2)
  0x006|                                          31   |              1 |                              form: "constructed" (1) 0x6e.2-0x6e.3 (0.1)
  0x006|                                          31   |              1 |                              tag: "set" (0x11) 0x6e.3-0x6f (0.5)
  0x006|                                             1d|               .|                              length: 29 0x6f-0x70 (1)
       |                                               |                |                              constructed[0:1]: 0x70-0x8d (29)
       |                                               |                |                                [0]{}: object 0x70-0x8d (29)
  0x007|30                                             |0               |                                  class: "universal" (0) 0x70-0x70.2 (0.2)
  0x007|30                                             |0               |                                  form: "constructed" (1) 0x70.2-0x70.3 (0.1)
  0x007|30                                             |0               |                                  tag: "sequence" (0x10) 0x70.3-0x71 (0.5)
  0x007|   1b                                          | .              |                                  length: 27 0x71-0x72 (1)
       |                                               |                |                                  constructed[0:2]: 0x72-0x8d (27)
       |                                               |                |                                    [0]{}: object 0x72-0x77 (5)
  0x007|      06                                       |  .             |                                      class: "universal" (0) 0x72-0x72.2 (0.2)
  0x007|      06                                       |  .             |                                      form: "primitive" (0) 0x72.2-0x72.3 (0.1)
  0x007|      06                                       |  .             |                                      tag: "object_identifier" (0x6) 0x72.3-0x73 (0.5)
  0x007|         03                                    |   .            |                                      length: 3 0x73-0x74 (1)
       |                                               |                |                                      value[0:4]: 0x74-0x77 (3)
  0x007|            55                                 |    U           |                                        [0]: 2 oid 0x74-0x75 (1)
  0x007|            55                                 |    U           |                                        [1]: 5 oid 0x74-0x75 (1)
  0x007|               04                              |     .          |                                        [2]: 4 oid 0x75-0x76 (1)
  0x007|                  03                           |      .         |                                        [3]: 3 oid 0x76-0x77 (1)
       |                                               |                |                                    [1]{}: object 0x77-0x8d (22)
  0x007|                     0c                        |       .        |                                      class: "universal" (0) 0x77-0x77.2 (0.2)
  0x007|                     0c                        |       .        |                                      form: "primitive" (0) 0x77.2-0x77.3 (0.1)
  0x007|                     0c                        |       .        |                                      tag: "utf8_string" (0xc) 0x77.3-0x78 (0.5)
  0x007|                        14                     |        .       |                                      length: 20 0x78-0x79 (1)
  0x007|                           54 65 73 74 20 43 65|         Test Ce|                                      value: "Test Certificate DSS" 0x79-0x8d (20)
  0x008|72 74 69 66 69 63 61 74 65 20 44 53 53         |rtificate DSS   |
       |                                               |                |                        [3]{}: object 0x8d-0xad (32)
  0x008|                                       30      |             0  |                          class: "universal" (0) 0x8d-0x8d.2 (0.2)
  0x008|                                       30      |             0  |                          form: "constructed" (1) 0x8d.2-0x8d.3 (0.1)
  0x008|                                       30      |             0  |                          tag: "sequence" (0x10) 0x8d.3-0x8e (0.5)
  0x008|                                          1e   |              . |                          length: 30 0x8e-0x8f (1)
       |                                               |                |                          constructed[0:2]: 0x8f-0xad (30)
       |                                               |                |                            [0]{}: object 0x8f-0x9e (15)
  0x008|                                             17|               .|                              class: "universal" (0) 0x8f-0x8f.2 (0.2)
  0x008|                                             17|               .|                              form: "primitive" (0) 0x8f.2-0x8f.3 (0.1)
  0x008|                                             17|               .|                              tag: "utc_time" (0x17) 0x8f.3-0x90 (0.5)
  0x009|0d                                             |.               |                              length: 13 0x90-0x91 (1)
  0x009|   31 33 30 39 31 35 32 31 35 31 31 30 5a      | 130915215110Z  |                              value: "130915215110Z" 0x91-0x9e (13)
       |                                               |                |                            [1]{}: object 0x9e-0xad (15)
  0x009|                                          17   |              . |                              class: "universal" (0) 0x9e-0x9e.2 (0.2)
  0x009|                                          17   |              . |                              form: "primitive" (0) 0x9e.2-0x9e.3 (0.1)
  0x009|                                          17   |              . |                              tag: "utc_time" (0x17) 0x9e.3-0x9f (0.5)
  0x009|                                             0d|               .|                              length: 13 0x9f-0xa0 (1)
  0x00a|32 33 30 39 31 33 32 31 35 31 31 30 5a         |230913215110Z   |                              value: "230913215110Z" 0xa0-0xad (13)
       |                                               |                |                        [4]{}: object 0xad-0xce (33)
  0x00a|                                       30      |             0  |                          class: "universal" (0) 0xad-0xad.2 (0.2)
  0x00a|                                       30      |             0  |                          form: "constructed" (1) 0xad.2-0xad.3 (0.1)
  0x00a|                                       30      |             0  |                          tag: "sequence" (0x10) 0xad.3-0xae (0.5)
  0x00a|                                          1f   |              . |                          length: 31 0xae-0xaf (1)
       |                                               |                |                          constructed[0:1]: 0xaf-0xce (31)
       |                                               |                |                            [0]{}: object 0xaf-0xce (31)
  0x00a|                                             31|               1|                              class: "universal" (0) 0xaf-0xaf.2 (0.2)
  0x00a|                                             31|               1|                              form: "constructed" (1) 0xaf.2-0xaf.3 (0.1)
  0x00a|                                             31|               1|                              tag: "set" (0x11) 0xaf.3-0xb0 (0.5)
  0x00b|1d                                             |.               |                              length: 29 0xb0-0xb1 (1)
       |                                               |                |                              constructed[0:1]: 0xb1-0xce (29)
       |                                               |                |                                [0]{}: object 0xb1-0xce (29)
  0x00b|   30                                          | 0              |                                  class: "universal" (0) 0xb1-0xb1.2 (0.2)
  0x00b|   30                                          | 0              |                                  form: "constructed" (1) 0xb1.2-0xb1.3 (0.1)
  0x00b|   30                                          | 0              |                                  tag: "sequence" (0x10) 0xb1.3-0xb2 (0.5)
  0x00b|      1b                                       |  .             |                                  length: 27 0xb2-0xb3 (1)
       |                                               |                |                                  constructed[0:2]: 0xb3-0xce (27)
       |                                               |                |                                    [0]{}: object 0xb3-0xb8 (5)
  0x00b|         06                                    |   .            |                                      class: "universal" (0) 0xb3-0xb3.2 (0.2)
  0x00b|         06                                    |   .            |                                      form: "primitive" (0) 0xb3.2-0xb3.3 (0.1)
  0x00b|         06                                    |   .            |                                      tag: "object_identifier" (0x6) 0xb3.3-0xb4 (0.5)
  0x00b|            03                                 |    .           |                                      length: 3 0xb4-0xb5 (1)
       |                                               |                |                                      value[0:4]: 0xb5-0xb8 (3)
  0x00b|               55                              |     U          |                                        [0]: 2 oid 0xb5-0xb6 (1)
  0x00b|               55                              |     U          |                                        [1]: 5 oid 0xb5-0xb6 (1)
  0x00b|                  04                           |      .         |                                        [2]: 4 oid 0xb6-0xb7 (1)
  0x00b|                     03                        |       .        |                                        [3]: 3 oid 0xb7-0xb8 (1)
       |                                               |                |                                    [1]{}: object 0xb8-0xce (22)
  0x00b|                        0c                     |        .       |                                      class: "universal" (0) 0xb8-0xb8.2 (0.2)
  0x00b|                        0c                     |        .       |                                      form: "primitive" (0) 0xb8.2-0xb8.3 (0.1)
  0x00b|                        0c                     |        .       |                                      tag: "utf8_string" (0xc) 0xb8.3-0xb9 (0.5)
  0x00b|                           14                  |         .      |                                      length: 20 0xb9-0xba (1)
  0x00b|                              54 65 73 74 20 43|          Test C|                                      value: "Test Certificate DSS" 0xba-0xce (20)
  0x00c|65 72 74 69 66 69 63 61 74 65 20 44 53 53      |ertificate DSS  |
       |                                               |                |                        [5]{}: object 0xce-0x288 (442)
  0x00c|                                          30   |              0 |                          class: "universal" (0) 0xce-0xce.2 (0.2)
  0x00c|                                          30   |              0 |                          form: "constructed" (1) 0xce.2-0xce.3 (0.1)
  0x00c|                                          30   |              0 |                          tag: "sequence" (0x10) 0xce.3-0xcf (0.5)
  0x00c|                                             82|               .|                          length: 438 0xcf-0xd2 (3)
  0x00d|01 b6                                          |..              |
       |                                               |                |                          constructed[0:2]: 0xd2-0x288 (438)
       |                                               |                |                            [0]{}: object 0xd2-0x201 (303)
  0x00d|      30                                       |  0             |                              class: "universal" (0) 0xd2-0xd2.2 (0.2)
  0x00d|      30                                       |  0             |                              form: "constructed" (1) 0xd2.2-0xd2.3 (0.1)
  0x00d|      30                                       |  0             |                              tag: "sequence" (0x10) 0xd2.3-0xd3 (0.5)
  0x00d|         82 01 2b                              |   ..+          |                              length: 299 0xd3-0xd6 (3)
       |                                               |                |                              constructed[0:2]: 0xd6-0x201 (299)
       |                                               |                |                                [0]{}: object 0xd6-0xdf (9)
  0x00d|                  06                           |      .         |                                  class: "universal" (0) 0xd6-0xd6.2 (0.2)
  0x00d|                  06                           |      .         |                                  form: "primitive" (0) 0xd6.2-0xd6.3 (0.1)
  0x00d|                  06                           |      .         |                                  tag: "object_identifier" (0x6) 0xd6.3-0xd7 (0.5)
  0x00d|                     07                        |       .        |                                  length: 7 0xd7-0xd8 (1)
       |                                               |                |                                  value[0:6]: 0xd8-0xdf (7)
  0x00d|                        2a                     |        *       |                                    [0]: 1 oid 0xd8-0xd9 (1)
  0x00d|                        2a                     |        *       |                                    [1]: 2 oid 0xd8-0xd9 (1)
  0x00d|                           86 48               |         .H     |                                    [2]: 840 oid 0xd9-0xdb (2)
  0x00d|                                 ce 38         |           .8   |                                    [3]: 10040 oid 0xdb-0xdd (2)
  0x00d|                                       04      |             .  |                                    [4]: 4 oid 0xdd-0xde (1)
  0x00d|                                          01   |              . |                                    [5]: 1 oid 0xde-0xdf (1)
       |                                               |                |                                [1]{}: object 0xdf-0x201 (290)
  0x00d|                                             30|               0|                                  class: "universal" (0) 0xdf-0xdf.2 (0.2)
  0x00d|                                             30|               0|                                  form: "constructed" (1) 0xdf.2-0xdf.3 (0.1)
  0x00d|                                             30|               0|                                  tag: "sequence" (0x10) 0xdf.3-0xe0 (0.5)
  0x00e|82 01 1e                                       |...             |                                  length: 286 0xe0-0xe3 (3)
       |                                               |                |                                  constructed[0:3]: 0xe3-0x201 (286)
       |                                               |                |                                    [0]{}: object 0xe3-0x167 (132)
  0x00e|         02                                    |   .            |                                      class: "universal" (0) 0xe3-0xe3.2 (0.2)
  0x00e|         02                                    |   .            |                                      form: "primitive" (0) 0xe3.2-0xe3.3 (0.1)
  0x00e|         02                                    |   .            |                                      tag: "integer" (0x2) 0xe3.3-0xe4 (0.5)
  0x00e|            81 81                              |    ..          |                                      length: 129 0xe4-0xe6 (2)
  0x00e|                  00 c2 f7 7e e9 70 e7 89 12 0a|      ...~.p....|                                      value: 136910329070488299378327259524927038161733379470505356730121232091090086514834553845968989920849620435345775777167290535699239055131308141952489888965222417689471480719820943713033298825729988988452440118426146804292912092805770067484684608296506113124192386094297682201884209532959834970982669442066672091881 0xe6-0x167 (129)
  0x00f|a5 78 26 24 fc cd 49 7e c2 d3 9f 22 8d 27 e6 ca|.x&$..I~...".'..|
  *    |until 0x166.7 (129)                            |                |
       |                                               |                |                                    [1]{}: object 0x167-0x17e (23)
  0x016|                     02                        |       .        |                                      class: "universal" (0) 0x167-0x167.2 (0.2)
  0x016|                     02                        |       .        |                                      form: "primitive" (0) 0x167.2-0x167.3 (0.1)
  0x016|                     02                        |       .        |                                      tag: "integer" (0x2) 0x167.3-0x168 (0.5)
  0x016|                        15                     |        .       |                                      length: 21 0x168-0x169 (1)
  0x016|                           00 98 58 f2 62 6b b6|         ..X.bk.|                                      value: 869750177406735357517327538899360394175585208387 0x169-0x17e (21)
  0x017|3c 03 14 47 dd 8e 68 4a 3d 1c fe 4c 48 43      |<..G..hJ=..LHC  |
       |                                               |                |                                    [2]{}: object 0x17e-0x201 (131)
  0x017|                                          02   |              . |                                      class: "universal" (0) 0x17e-0x17e.2 (0.2)
  0x017|                                          02   |              . |                                      form: "primitive" (0) 0x17e.2-0x17e.3 (0.1)
  0x017|                                          02   |              . |                                      tag: "integer" (0x2) 0x17e.3-0x17f (0.5)
  0x017|                                             81|               .|                                      length: 128 0x17f-0x181 (2)
  0x018|80                                             |.               |
  0x018|   3f 02 ab 4e 43 f4 41 32 34 ad cd 98 49 8f c2| ?..NC.A24...I..|                                      value: 44247426170402622087425518647469060177168515448383480108707357314914924071046359553790624375303209327971525248666708548293595274064224162982232337674914654715681152890905955591957342867846032291315547979242473713074351452275228730099918471850426035459597093784807208832673341150587615416898207576073482022832 0x181-0x201 (128)
  0x019|91 c9 3e 91 3b e8 6d 99 17 fc e1 51 de d5 b6 fa|..>.;.m....Q....|
  *    |until 0x200.7 (128)                            |                |
       |                                               |                |                            [1]{}: object 0x201-0x288 (135)
  0x020|   03                                          | .              |                              class: "universal" (0) 0x201-0x201.2 (0.2)
  0x020|   03                                          | .              |                              form: "primitive" (0) 0x201.2-0x201.3 (0.1)
  0x020|   03                                          | .              |                              tag: "bit_string" (0x3) 0x201.3-0x202 (0.5)
  0x020|      81 84                                    |  ..            |                              length: 132 0x202-0x204 (2)
  0x020|            00                                 |    .           |                              unused_bits_count: 0 0x204-0x205 (1)
  0x020|               02 81 80 7f 19 87 d0 34 72 de 66|     .......4r.f|                              value: raw bits 0x205-0x288 (131)
  0x021|cd 51 0f 99 aa da fb 56 89 94 64 4d 94 47 a1 b6|.Q.....V..dM.G..|
  *    |until 0x287.7 (131)                            |                |
       |                                               |                |                    [1]{}: object 0x288-0x293 (11)
  0x028|                        30                     |        0       |                      class: "universal" (0) 0x288-0x288.2 (0.2)
  0x028|                        30                     |        0       |                      form: "constructed" (1) 0x288.2-0x288.3 (0.1)
  0x028|                        30                     |        0       |                      tag: "sequence" (0x10) 0x288.3-0x289 (0.5)
  0x028|                           09                  |         .      |                      length: 9 0x289-0x28a (1)
       |                                               |                |                      constructed[0:1]: 0x28a-0x293 (9)
       |                                               |                |                        [0]{}: object 0x28a-0x293 (9)
  0x028|                              06               |          .     |                          class: "universal" (0) 0x28a-0x28a.2 (0.2)
  0x028|                              06               |          .     |                          form: "primitive" (0) 0x28a.2-0x28a.3 (0.1)
  0x028|                              06               |          .     |                          tag: "object_identifier" (0x6) 0x28a.3-0x28b (0.5)
  0x028|                                 07            |           .    |                          length: 7 0x28b-0x28c (1)
       |                                               |                |                          value[0:6]: 0x28c-0x293 (7)
  0x028|                                    2a         |            *   |                            [0]: 1 oid 0x28c-0x28d (1)
  0x028|                                    2a         |            *   |                            [1]: 2 oid 0x28c-0x28d (1)
  0x028|                                       86 48   |             .H |                            [2]: 840 oid 0x28d-0x28f (2)
  0x028|                                             ce|               .|                            [3]: 10040 oid 0x28f-0x291 (2)
  0x029|38                                             |8               |
  0x029|   04                                          | .              |                            [4]: 4 oid 0x291-0x292 (1)
  0x029|      03                                       |  .             |                            [5]: 3 oid 0x292-0x293 (1)
       |                                               |                |                    [2]{}: object 0x293-0x2c4 (49)
  0x029|         03                                    |   .            |                      class: "universal" (0) 0x293-0x293.2 (0.2)
  0x029|         03                                    |   .            |                      form: "primitive" (0) 0x293.2-0x293.3 (0.1)
  0x029|         03                                    |   .            |                      tag: "bit_string" (0x3) 0x293.3-0x294 (0.5)
  0x029|            2f                                 |    /           |                      length: 47 0x294-0x295 (1)
  0x029|               00                              |     .          |                      unused_bits_count: 0 0x295-0x296 (1)
  0x029|                  30 2c 02 14 52 31 f8 06 82 70|      0,..R1...p|                      value: raw bits 0x296-0x2c4 (46)
  0x02a|cd 8e ed dd be 72 ec 66 5d 79 45 c1 49 7f 02 14|.....r.f]yE.I...|
  *    |until 0x2c3.7 (46)                             |                |
       |                                               |                |        [2]{}: record 0x2c4-0x388 (196)
  0x02c|            16                                 |    .           |          type: "handshake" (22) (valid) 0x2c4-0x2c5 (1)
  0x02c|               03 03                           |     ..         |          version: "tls1.2" (0x303) (valid) 0x2c5-0x2c7 (2)
  0x02c|                     00 bf                     |       ..       |          length: 191 0x2c7-0x2c9 (2)
       |                                               |                |          message{}: 0x2c9-0x388 (191)
  0x02c|                           0c                  |         .      |            type: "server_key_exchange" (12) 0x2c9-0x2ca (1)
  0x02c|                              00 00 bb         |          ...   |            length: 187 0x2ca-0x2cd (3)
  0x02c|                                       00 40 da|             .@.|            data: raw bits 0x2cd-0x388 (187)
  0x02d|58 3c 16 d9 85 22 89 d0 e4 af 75 6f 4c ca 92 dd|X<..."....uoL...|
  *    |until 0x387.7 (187)                            |                |
       |                                               |                |        [3]{}: record 0x388-0x391 (9)
  0x038|                        16                     |        .       |          type: "handshake" (22) (valid) 0x388-0x389 (1)
  0x038|                           03 03               |         ..     |          version: "tls1.2" (0x303) (valid) 0x389-0x38b (2)
  0x038|                                 00 04         |           ..   |          length: 4 0x38b-0x38d (2)
       |                                               |                |          message{}: 0x38d-0x391 (4)
  0x038|                                       0e      |             .  |            type: "server_hello_done" (14) 0x38d-0x38e (1)
  0x038|                                          00 00|              ..|            length: 0 0x38e-0x391 (3)
  0x039|00                                             |.               |
       |                                               |                |            data: raw bits 0x391-0x391 (0)
       |                                               |                |        [4]{}: record 0x391-0x440 (175)
  0x039|   16                                          | .              |          type: "handshake" (22) (valid) 0x391-0x392 (1)
  0x039|      03 03                                    |  ..            |          version: "tls1.2" (0x303) (valid) 0x392-0x394 (2)
  0x039|            00 aa                              |    ..          |          length: 170 0x394-0x396 (2)
       |                                               |                |          message{}: 0x396-0x440 (170)
  0x039|                  04                           |      .         |            type: "new_session_ticket" (4) 0x396-0x397 (1)
  0x039|                     00 00 a6                  |       ...      |            length: 166 0x397-0x39a (3)
  0x039|                              00 00 01 2c      |          ...,  |            lifetime_hint: 300 0x39a-0x39e (4)
  0x039|                                          00 a0|              ..|            ticket_length: 160 0x39e-0x3a0 (2)
  0x03a|22 07 b4 d8 97 c7 0f f3 0f f1 4b c1 4b d0 cb 8e|".........K.K...|            ticket: raw bits 0x3a0-0x440 (160)
  *    |until 0x43f.7 (160)                            |                |
       |                                               |                |        [5]{}: record 0x440-0x446 (6)
  0x044|14                                             |.               |          type: "change_cipher_spec" (20) (valid) 0x440-0x441 (1)
  0x044|   03 03                                       | ..             |          version: "tls1.2" (0x303) (valid) 0x441-0x443 (2)
  0x044|         00 01                                 |   ..           |          length: 1 0x443-0x445 (2)
       |                                               |                |          message{}: 0x445-0x446 (1)
  0x044|               01                              |     .          |            type: 1 0x445-0x446 (1)
       |                                               |                |        [6]{}: record 0x446-0x48b (69)
  0x044|                  16                           |      .         |          type: "handshake" (22) (valid) 0x446-0x447 (1)
  0x044|                     03 03                     |       ..       |          version: "tls1.2" (0x303) (valid) 0x447-0x449 (2)
  0x044|                           00 40               |         .@     |          length: 64 0x449-0x44b (2)
  0x044|                                 d2 b9 8c 04 00|           .....|          encrypted_data: raw bits 0x44b-0x48b (64)
  0x045|30 19 4c 86 bb 3a 6f ad be fd 04 54 24 49 88 1d|0.L..:o....T$I..|
  *    |until 0x48a.7 (64)                             |                |
       |                                               |                |        [7]{}: record 0x48b-0x920 (1173)
  0x048|                                 17            |           .    |          type: "application_data" (23) (valid) 0x48b-0x48c (1)
  0x048|                                    03 03      |            ..  |          version: "tls1.2" (0x303) (valid) 0x48c-0x48e (2)
  0x048|                                          04 90|              ..|          length: 1168 0x48e-0x490 (2)
  0x049|c5 94 61 94 58 b2 1c 06 08 07 99 5f fc ca 4f 91|..a.X......_..O.|          encrypted_data: raw bits 0x490-0x920 (1168)
  *    |until 0x91f.7 (end) (1168)                     |                |
