$ fq -o keylog=@all.keylog ".tcp_connections[0] | dv" TLS_RSA_EXPORT_WITH_RC2_CBC_40_MD5.pcap
        |00 01 02 03 04 05 06 07 08 09 0a 0b 0c 0d 0e 0f|0123456789abcdef|.tcp_connections[0]{}: tcp_connection 0x19c7-0x19c7 (0)
        |                                               |                |  client{}: 0x19c7-0x19c7 (0)
        |                                               |                |    ip: "127.0.0.1"
        |                                               |                |    port: 39035
        |                                               |                |    has_start: true
        |                                               |                |    has_end: false
        |                                               |                |    skipped_bytes: 0
        |00 01 02 03 04 05 06 07 08 09 0a 0b 0c 0d 0e 0f|0123456789abcdef|    stream{}: (tls) 0x0-0x114 (276)
        |                                               |                |      ssl_v2{}: 0x0-0x34 (52)
  0x0000|80 32                                          |.2              |        length: 50 0x0-0x2 (2)
  0x0000|      01                                       |  .             |        type: 1 0x2-0x3 (1)
  0x0000|         03 03                                 |   ..           |        tls_version: 771 0x3-0x5 (2)
  0x0000|               00 09                           |     ..         |        cipher_spec_length: 9 0x5-0x7 (2)
  0x0000|                     00 00                     |       ..       |        session_id_length: 0 0x7-0x9 (2)
  0x0000|                           00 20               |         .      |        challenge_length: 32 0x9-0xb (2)
        |                                               |                |        cipher_specs[0:3]: 0xb-0x14 (9)
  0x0000|                                 00 00 06      |           ...  |          [0]: "TLS_RSA_EXPORT_WITH_RC2_CBC_40_MD5" (0x6) cipher_spec 0xb-0xe (3)
  0x0000|                                          04 00|              ..|          [1]: "SSL_CK_RC2_128_CBC_EXPORT40_WITH_MD5" (0x40080) cipher_spec 0xe-0x11 (3)
  0x0001|80                                             |.               |
  0x0001|   00 00 ff                                    | ...            |          [2]: "TLS_EMPTY_RENEGOTIATION_INFO_SCSV" (0xff) cipher_spec 0x11-0x14 (3)
        |                                               |                |        session_id: raw bits 0x14-0x14 (0)
  0x0001|            6e 90 15 fd a1 2c 6f ae 63 ef 1d df|    n....,o.c...|        challenge: raw bits 0x14-0x34 (32)
  0x0002|06 be 63 aa 65 ed 23 34 9f 74 e7 03 76 4e 51 00|..c.e.#4.t..vNQ.|
  0x0003|28 2d 33 82                                    |(-3.            |
        |                                               |                |      records[0:5]: 0x34-0x114 (224)
        |                                               |                |        [0]{}: record 0x34-0x7f (75)
  0x0003|            16                                 |    .           |          type: "handshake" (22) (valid) 0x34-0x35 (1)
  0x0003|               03 03                           |     ..         |          version: "tls1.2" (0x303) (valid) 0x35-0x37 (2)
  0x0003|                     00 46                     |       .F       |          length: 70 0x37-0x39 (2)
        |                                               |                |          message{}: 0x39-0x7f (70)
  0x0003|                           10                  |         .      |            type: "client_key_exchange" (16) 0x39-0x3a (1)
  0x0003|                              00 00 42         |          ..B   |            length: 66 0x3a-0x3d (3)
  0x0003|                                       00 40 28|             .@(|            data: raw bits 0x3d-0x7f (66)
  0x0004|e4 91 18 25 c0 f4 b0 44 0e 9c a1 7e 14 63 62 84|...%...D...~.cb.|
  *     |until 0x7e.7 (66)                              |                |
        |                                               |                |        [1]{}: record 0x7f-0x85 (6)
  0x0007|                                             14|               .|          type: "change_cipher_spec" (20) (valid) 0x7f-0x80 (1)
  0x0008|03 03                                          |..              |          version: "tls1.2" (0x303) (valid) 0x80-0x82 (2)
  0x0008|      00 01                                    |  ..            |          length: 1 0x82-0x84 (2)
        |                                               |                |          message{}: 0x84-0x85 (1)
  0x0008|            01                                 |    .           |            type: 1 0x84-0x85 (1)
        |                                               |                |        [2]{}: record 0x85-0xba (53)
  0x0008|               16                              |     .          |          type: "handshake" (22) (valid) 0x85-0x86 (1)
  0x0008|                  03 03                        |      ..        |          version: "tls1.2" (0x303) (valid) 0x86-0x88 (2)
  0x0008|                        00 30                  |        .0      |          length: 48 0x88-0x8a (2)
  0x0008|                              09 07 e4 46 12 33|          ...F.3|          encrypted_data: raw bits 0x8a-0xba (48)
  0x0009|b4 26 94 1c ea 47 57 35 d5 2a f2 ff e4 b4 86 b9|.&...GW5.*......|
  *     |until 0xb9.7 (48)                              |                |
        |                                               |                |        [3]{}: record 0xba-0xef (53)
  0x000b|                              17               |          .     |          type: "application_data" (23) (valid) 0xba-0xbb (1)
  0x000b|                                 03 03         |           ..   |          version: "tls1.2" (0x303) (valid) 0xbb-0xbd (2)
  0x000b|                                       00 30   |             .0 |          length: 48 0xbd-0xbf (2)
  0x000b|                                             95|               .|          encrypted_data: raw bits 0xbf-0xef (48)
  0x000c|8e 96 e3 fa 0b 6d c9 c9 e2 48 13 04 da 7f 33 d5|.....m...H....3.|
  *     |until 0xee.7 (48)                              |                |
        |                                               |                |        [4]{}: record 0xef-0x114 (37)
  0x000e|                                             15|               .|          type: "alert" (21) (valid) 0xef-0xf0 (1)
  0x000f|03 03                                          |..              |          version: "tls1.2" (0x303) (valid) 0xf0-0xf2 (2)
  0x000f|      00 20                                    |  .             |          length: 32 0xf2-0xf4 (2)
  0x000f|            93 48 56 bf 59 e7 19 33 a8 c8 fc 31|    .HV.Y..3...1|          encrypted_data: raw bits 0xf4-0x114 (32)
  0x0010|ad aa 10 5e ea a3 77 83 18 56 97 05 25 4b fa cb|...^..w..V..%K..|
  0x0011|fc 69 17 6d|                                   |.i.m|           |
        |                                               |                |  server{}: 0x19c7-0x19c7 (0)
        |                                               |                |    ip: "127.0.0.1"
        |                                               |                |    port: 4430
        |                                               |                |    has_start: true
        |                                               |                |    has_end: true
        |                                               |                |    skipped_bytes: 0
        |00 01 02 03 04 05 06 07 08 09 0a 0b 0c 0d 0e 0f|0123456789abcdef|    stream{}: (tls) 0x0-0x149b (5275)
        |                                               |                |      records[0:7]: 0x0-0x149b (5275)
        |                                               |                |        [0]{}: record 0x0-0x56 (86)
  0x0000|16                                             |.               |          type: "handshake" (22) (valid) 0x0-0x1 (1)
  0x0000|   03 03                                       | ..             |          version: "tls1.2" (0x303) (valid) 0x1-0x3 (2)
  0x0000|         00 51                                 |   .Q           |          length: 81 0x3-0x5 (2)
        |                                               |                |          message{}: 0x5-0x56 (81)
  0x0000|               02                              |     .          |            type: "server_hello" (2) 0x5-0x6 (1)
  0x0000|                  00 00 4d                     |      ..M       |            length: 77 0x6-0x9 (3)
  0x0000|                           03 03               |         ..     |            version: "tls1.2" (0x303) 0x9-0xb (2)
        |                                               |                |            random{}: 0xb-0x2b (32)
  0x0000|                                 52 36 2c 11   |           R6,. |              gmt_unix_time: 1379281937 (2013-09-15T21:52:17Z) 0xb-0xf (4)
  0x0000|                                             65|               e|              random_bytes: raw bits 0xf-0x2b (28)
  0x0001|9d b7 0f fa 87 7f 2e c7 99 84 bf b3 8a 70 2a e9|.............p*.|
  0x0002|47 73 41 06 0f 8c af 35 99 bf 88               |GsA....5...     |
  0x0002|                                 20            |                |            session_id_length: 32 0x2b-0x2c (1)
  0x0002|                                    f9 e1 bd 1d|            ....|            session_id: raw bits 0x2c-0x4c (32)
  0x0003|f5 2b 8d eb e3 ba 91 c1 8a f4 ab be 9c e3 7a 90|.+............z.|
  0x0004|07 58 9f 19 82 53 09 ba a9 94 74 17            |.X...S....t.    |
  0x0004|                                    00 06      |            ..  |            cipher_suit: "TLS_RSA_EXPORT_WITH_RC2_CBC_40_MD5" (0x6) 0x4c-0x4e (2)
  0x0004|                                          00   |              . |            compression_method: "null" (0x0) 0x4e-0x4f (1)
  0x0004|                                             00|               .|            extensions_length: 5 0x4f-0x51 (2)
  0x0005|05                                             |.               |
        |                                               |                |            extensions[0:1]: 0x51-0x56 (5)
        |                                               |                |              [0]{}: extension 0x51-0x56 (5)
  0x0005|   ff 01                                       | ..             |                type: "renegotiation_info" (65281) 0x51-0x53 (2)
  0x0005|         00 01                                 |   ..           |                length: 1 0x53-0x55 (2)
  0x0005|               00                              |     .          |                data: raw bits 0x55-0x56 (1)
        |                                               |                |        [1]{}: record 0x56-0x21e (456)
  0x0005|                  16                           |      .         |          type: "handshake" (22) (valid) 0x56-0x57 (1)
  0x0005|                     03 03                     |       ..       |          version: "tls1.2" (0x303) (valid) 0x57-0x59 (2)
  0x0005|                           01 c3               |         ..     |          length: 451 0x59-0x5b (2)
        |                                               |                |          message{}: 0x5b-0x21e (451)
  0x0005|                                 0b            |           .    |            type: "certificate" (11) 0x5b-0x5c (1)
  0x0005|                                    00 01 bf   |            ... |            length: 447 0x5c-0x5f (3)
  0x0005|                                             00|               .|            certificates_length: 444 0x5f-0x62 (3)
  0x0006|01 bc                                          |..              |
        |                                               |                |            certificates[0:1]: 0x62-0x21e (444)
        |                                               |                |              [0]{}: certificate 0x62-0x21e (444)
  0x0006|      00 01 b9                                 |  ...           |                length: 441 0x62-0x65 (3)
        |00 01 02 03 04 05 06 07 08 09 0a 0b 0c 0d 0e 0f|0123456789abcdef|                data{}: (asn1_ber) 0x65-0x21e (441)
  0x0006|               30                              |     0          |                  class: "universal" (0) 0x65-0x65.2 (0.2)
  0x0006|               30                              |     0          |                  form: "constructed" (1) 0x65.2-0x65.3 (0.1)
  0x0006|               30                              |     0          |                  tag: "sequence" (0x10) 0x65.3-0x66 (0.5)
  0x0006|                  82 01 b5                     |      ...       |                  length: 437 0x66-0x69 (3)
        |                                               |                |                  constructed[0:3]: 0x69-0x21e (437)
        |                                               |                |                    [0]{}: object 0x69-0x18b (290)
  0x0006|                           30                  |         0      |                      class: "universal" (0) 0x69-0x69.2 (0.2)
  0x0006|                           30                  |         0      |                      form: "constructed" (1) 0x69.2-0x69.3 (0.1)
  0x0006|                           30                  |         0      |                      tag: "sequence" (0x10) 0x69.3-0x6a (0.5)
  0x0006|                              82 01 1e         |          ...   |                      length: 286 0x6a-0x6d (3)
        |                                               |                |                      constructed[0:6]: 0x6d-0x18b (286)
        |                                               |                |                        [0]{}: object 0x6d-0x78 (11)
  0x0006|                                       02      |             .  |                          class: "universal" (0) 0x6d-0x6d.2 (0.2)
  0x0006|                                       02      |             .  |                          form: "primitive" (0) 0x6d.2-0x6d.3 (0.1)
  0x0006|                                       02      |             .  |                          tag: "integer" (0x2) 0x6d.3-0x6e (0.5)
  0x0006|                                          09   |              . |                          length: 9 0x6e-0x6f (1)
  0x0006|                                             00|               .|                          value: 17629111853558544324 0x6f-0x78 (9)
  0x0007|f4 a7 2f d3 e8 fc 37 c4                        |../...7.        |
        |                                               |                |                        [1]{}: object 0x78-0x87 (15)
  0x0007|                        30                     |        0       |                          class: "universal" (0) 0x78-0x78.2 (0.2)
  0x0007|                        30                     |        0       |                          form: "constructed" (1) 0x78.2-0x78.3 (0.1)
  0x0007|                        30                     |        0       |                          tag: "sequence" (0x10) 0x78.3-0x79 (0.5)
  0x0007|                           0d                  |         .      |                          length: 13 0x79-0x7a (1)
        |                                               |                |                          constructed[0:2]: 0x7a-0x87 (13)
        |                                               |                |                            [0]{}: object 0x7a-0x85 (11)
  0x0007|                              06               |          .     |                              class: "universal" (0) 0x7a-0x7a.2 (0.2)
  0x0007|                              06               |          .     |                              form: "primitive" (0) 0x7a.2-0x7a.3 (0.1)
  0x0007|                              06               |          .     |                              tag: "object_identifier" (0x6) 0x7a.3-0x7b (0.5)
  0x0007|                                 09            |           .    |                              length: 9 0x7b-0x7c (1)
        |                                               |                |                              value[0:7]: 0x7c-0x85 (9)
  0x0007|                                    2a         |            *   |                                [0]: 1 oid 0x7c-0x7d (1)
  0x0007|                                    2a         |            *   |                                [1]: 2 oid 0x7c-0x7d (1)
  0x0007|                                       86 48   |             .H |                                [2]: 840 oid 0x7d-0x7f (2)
  0x0007|                                             86|               .|                                [3]: 113549 oid 0x7f-0x82 (3)
  0x0008|f7 0d                                          |..              |
  0x0008|      01                                       |  .             |                                [4]: 1 oid 0x82-0x83 (1)
  0x0008|         01                                    |   .            |                                [5]: 1 oid 0x83-0x84 (1)
  0x0008|            05                                 |    .           |                                [6]: 5 oid 0x84-0x85 (1)
        |                                               |                |                            [1]{}: object 0x85-0x87 (2)
  0x0008|               05                              |     .          |                              class: "universal" (0) 0x85-0x85.2 (0.2)
  0x0008|               05                              |     .          |                              form: "primitive" (0) 0x85.2-0x85.3 (0.1)
  0x0008|               05                              |     .          |                              tag: "null" (0x5) 0x85.3-0x86 (0.5)
  0x0008|                  00                           |      .         |                              length: "indefinite" (0) 0x86-0x87 (1)
        |                                               |                |                              value: null
        |                                               |                |                        [2]{}: object 0x87-0xa8 (33)
  0x0008|                     30                        |       0        |                          class: "universal" (0) 0x87-0x87.2 (0.2)
  0x0008|                     30                        |       0        |                          form: "constructed" (1) 0x87.2-0x87.3 (0.1)
  0x0008|                     30                        |       0        |                          tag: "sequence" (0x10) 0x87.3-0x88 (0.5)
  0x0008|                        1f                     |        .       |                          length: 31 0x88-0x89 (1)
        |                                               |                |                          constructed[0:1]: 0x89-0xa8 (31)
        |                                               |                |                            [0]{}: object 0x89-0xa8 (31)
  0x0008|                           31                  |         1      |                              class: "universal" (0) 0x89-0x89.2 (0.2)
  0x0008|                           31                  |         1      |                              form: "constructed" (1) 0x89.2-0x89.3 (0.1)
  0x0008|                           31                  |         1      |                              tag: "set" (0x11) 0x89.3-0x8a (0.5)
  0x0008|                              1d               |          .     |                              length: 29 0x8a-0x8b (1)
        |                                               |                |                              constructed[0:1]: 0x8b-0xa8 (29)
        |                                               |                |                                [0]{}: object 0x8b-0xa8 (29)
  0x0008|                                 30            |           0    |                                  class: "universal" (0) 0x8b-0x8b.2 (0.2)
  0x0008|                                 30            |           0    |                                  form: "constructed" (1) 0x8b.2-0x8b.3 (0.1)
  0x0008|                                 30            |           0    |                                  tag: "sequence" (0x10) 0x8b.3-0x8c (0.5)
  0x0008|                                    1b         |            .   |                                  length: 27 0x8c-0x8d (1)
        |                                               |                |                                  constructed[0:2]: 0x8d-0xa8 (27)
        |                                               |                |                                    [0]{}: object 0x8d-0x92 (5)
  0x0008|                                       06      |             .  |                                      class: "universal" (0) 0x8d-0x8d.2 (0.2)
  0x0008|                                       06      |             .  |                                      form: "primitive" (0) 0x8d.2-0x8d.3 (0.1)
  0x0008|                                       06      |             .  |                                      tag: "object_identifier" (0x6) 0x8d.3-0x8e (0.5)
  0x0008|                                          03   |              . |                                      length: 3 0x8e-0x8f (1)
        |                                               |                |                                      value[0:4]: 0x8f-0x92 (3)
  0x0008|                                             55|               U|                                        [0]: 2 oid 0x8f-0x90 (1)
  0x0008|                                             55|               U|                                        [1]: 5 oid 0x8f-0x90 (1)
  0x0009|04                                             |.               |                                        [2]: 4 oid 0x90-0x91 (1)
  0x0009|   03                                          | .              |                                        [3]: 3 oid 0x91-0x92 (1)
        |                                               |                |                                    [1]{}: object 0x92-0xa8 (22)
  0x0009|      0c                                       |  .             |                                      class: "universal" (0) 0x92-0x92.2 (0.2)
  0x0009|      0c                                       |  .             |                                      form: "primitive" (0) 0x92.2-0x92.3 (0.1)
  0x0009|      0c                                       |  .             |                                      tag: "utf8_string" (0xc) 0x92.3-0x93 (0.5)
  0x0009|         14                                    |   .            |                                      length: 20 0x93-0x94 (1)
  0x0009|            54 65 73 74 20 43 65 72 74 69 66 69|    Test Certifi|                                      value: "Test Certificate RSA" 0x94-0xa8 (20)
  0x000a|63 61 74 65 20 52 53 41                        |cate RSA        |
        |                                               |                |                        [3]{}: object 0xa8-0xc8 (32)
  0x000a|                        30                     |        0       |                          class: "universal" (0) 0xa8-0xa8.2 (0.2)
  0x000a|                        30                     |        0       |                          form: "constructed" (1) 0xa8.2-0xa8.3 (0.1)
  0x000a|                        30                     |        0       |                          tag: "sequence" (0x10) 0xa8.3-0xa9 (0.5)
  0x000a|                           1e                  |         .      |                          length: 30 0xa9-0xaa (1)
        |                                               |                |                          constructed[0:2]: 0xaa-0xc8 (30)
        |                                               |                |                            [0]{}: object 0xaa-0xb9 (15)
  0x000a|                              17               |          .     |                              class: "universal" (0) 0xaa-0xaa.2 (0.2)
  0x000a|                              17               |          .     |                              form: "primitive" (0) 0xaa.2-0xaa.3 (0.1)
  0x000a|                              17               |          .     |                              tag: "utc_time" (0x17) 0xaa.3-0xab (0.5)
  0x000a|                                 0d            |           .    |                              length: 13 0xab-0xac (1)
  0x000a|                                    31 33 30 39|            1309|                              value: "130915215110Z" 0xac-0xb9 (13)
  0x000b|31 35 32 31 35 31 31 30 5a                     |15215110Z       |
        |                                               |                |                            [1]{}: object 0xb9-0xc8 (15)
  0x000b|                           17                  |         .      |                              class: "universal" (0) 0xb9-0xb9.2 (0.2)
  0x000b|                           17                  |         .      |                              form: "primitive" (0) 0xb9.2-0xb9.3 (0.1)
  0x000b|                           17                  |         .      |                              tag: "utc_time" (0x17) 0xb9.3-0xba (0.5)
  0x000b|                              0d               |          .     |                              length: 13 0xba-0xbb (1)
  0x000b|                                 32 33 30 39 31|           23091|                              value: "230913215110Z" 0xbb-0xc8 (13)
  0x000c|33 32 31 35 31 31 30 5a                        |3215110Z        |
        |                                               |                |                        [4]{}: object 0xc8-0xe9 (33)
  0x000c|                        30                     |        0       |                          class: "universal" (0) 0xc8-0xc8.2 (0.2)
  0x000c|                        30                     |        0       |                          form: "constructed" (1) 0xc8.2-0xc8.3 (0.1)
  0x000c|                        30                     |        0       |                          tag: "sequence" (0x10) 0xc8.3-0xc9 (0.5)
  0x000c|                           1f                  |         .      |                          length: 31 0xc9-0xca (1)
        |                                               |                |                          constructed[0:1]: 0xca-0xe9 (31)
        |                                               |                |                            [0]{}: object 0xca-0xe9 (31)
  0x000c|                              31               |          1     |                              class: "universal" (0) 0xca-0xca.2 (0.2)
  0x000c|                              31               |          1     |                              form: "constructed" (1) 0xca.2-0xca.3 (0.1)
  0x000c|                              31               |          1     |                              tag: "set" (0x11) 0xca.3-0xcb (0.5)
  0x000c|                                 1d            |           .    |                              length: 29 0xcb-0xcc (1)
        |                                               |                |                              constructed[0:1]: 0xcc-0xe9 (29)
        |                                               |                |                                [0]{}: object 0xcc-0xe9 (29)
  0x000c|                                    30         |            0   |                                  class: "universal" (0) 0xcc-0xcc.2 (0.2)
  0x000c|                                    30         |            0   |                                  form: "constructed" (1) 0xcc.2-0xcc.3 (0.1)
  0x000c|                                    30         |            0   |                                  tag: "sequence" (0x10) 0xcc.3-0xcd (0.5)
  0x000c|                                       1b      |             .  |                                  length: 27 0xcd-0xce (1)
        |                                               |                |                                  constructed[0:2]: 0xce-0xe9 (27)
        |                                               |                |                                    [0]{}: object 0xce-0xd3 (5)
  0x000c|                                          06   |              . |                                      class: "universal" (0) 0xce-0xce.2 (0.2)
  0x000c|                                          06   |              . |                                      form: "primitive" (0) 0xce.2-0xce.3 (0.1)
  0x000c|                                          06   |              . |                                      tag: "object_identifier" (0x6) 0xce.3-0xcf (0.5)
  0x000c|                                             03|               .|                                      length: 3 0xcf-0xd0 (1)
        |                                               |                |                                      value[0:4]: 0xd0-0xd3 (3)
  0x000d|55                                             |U               |                                        [0]: 2 oid 0xd0-0xd1 (1)
  0x000d|55                                             |U               |                                        [1]: 5 oid 0xd0-0xd1 (1)
  0x000d|   04                                          | .              |                                        [2]: 4 oid 0xd1-0xd2 (1)
  0x000d|      03                                       |  .             |                                        [3]: 3 oid 0xd2-0xd3 (1)
        |                                               |                |                                    [1]{}: object 0xd3-0xe9 (22)
  0x000d|         0c                                    |   .            |                                      class: "universal" (0) 0xd3-0xd3.2 (0.2)
  0x000d|         0c                                    |   .            |                                      form: "primitive" (0) 0xd3.2-0xd3.3 (0.1)
  0x000d|         0c                                    |   .            |                                      tag: "utf8_string" (0xc) 0xd3.3-0xd4 (0.5)
  0x000d|            14                                 |    .           |                                      length: 20 0xd4-0xd5 (1)
  0x000d|               54 65 73 74 20 43 65 72 74 69 66|     Test Certif|                                      value: "Test Certificate RSA" 0xd5-0xe9 (20)
  0x000e|69 63 61 74 65 20 52 53 41                     |icate RSA       |
        |                                               |                |                        [5]{}: object 0xe9-0x18b (162)
  0x000e|                           30                  |         0      |                          class: "universal" (0) 0xe9-0xe9.2 (0.2)
  0x000e|                           30                  |         0      |                          form: "constructed" (1) 0xe9.2-0xe9.3 (0.1)
  0x000e|                           30                  |         0      |                          tag: "sequence" (0x10) 0xe9.3-0xea (0.5)
  0x000e|                              81 9f            |          ..    |                          length: 159 0xea-0xec (2)
        |                                               |                |                          constructed[0:2]: 0xec-0x18b (159)
        |                                               |                |                            [0]{}: object 0xec-0xfb (15)
  0x000e|                                    30         |            0   |                              class: "universal" (0) 0xec-0xec.2 (0.2)
  0x000e|                                    30         |            0   |                              form: "constructed" (1) 0xec.2-0xec.3 (0.1)
  0x000e|                                    30         |            0   |                              tag: "sequence" (0x10) 0xec.3-0xed (0.5)
  0x000e|                                       0d      |             .  |                              length: 13 0xed-0xee (1)
        |                                               |                |                              constructed[0:2]: 0xee-0xfb (13)
        |                                               |                |                                [0]{}: object 0xee-0xf9 (11)
  0x000e|                                          06   |              . |                                  class: "universal" (0) 0xee-0xee.2 (0.2)
  0x000e|                                          06   |              . |                                  form: "primitive" (0) 0xee.2-0xee.3 (0.1)
  0x000e|                                          06   |              . |                                  tag: "object_identifier" (0x6) 0xee.3-0xef (0.5)
  0x000e|                                             09|               .|                                  length: 9 0xef-0xf0 (1)
        |                                               |                |                                  value[0:7]: 0xf0-0xf9 (9)
  0x000f|2a                                             |*               |                                    [0]: 1 oid 0xf0-0xf1 (1)
  0x000f|2a                                             |*               |                                    [1]: 2 oid 0xf0-0xf1 (1)
  0x000f|   86 48                                       | .H             |                                    [2]: 840 oid 0xf1-0xf3 (2)
  0x000f|         86 f7 0d                              |   ...          |                                    [3]: 113549 oid 0xf3-0xf6 (3)
  0x000f|                  01                           |      .         |                                    [4]: 1 oid 0xf6-0xf7 (1)
  0x000f|                     01                        |       .        |                                    [5]: 1 oid 0xf7-0xf8 (1)
  0x000f|                        01                     |        .       |                                    [6]: 1 oid 0xf8-0xf9 (1)
        |                                               |                |                                [1]{}: object 0xf9-0xfb (2)
  0x000f|                           05                  |         .      |                                  class: "universal" (0) 0xf9-0xf9.2 (0.2)
  0x000f|                           05                  |         .      |                                  form: "primitive" (0) 0xf9.2-0xf9.3 (0.1)
  0x000f|                           05                  |         .      |                                  tag: "null" (0x5) 0xf9.3-0xfa (0.5)
  0x000f|                              00               |          .     |                                  length: "indefinite" (0) 0xfa-0xfb (1)
        |                                               |                |                                  value: null
        |                                               |                |                            [1]{}: object 0xfb-0x18b (144)
  0x000f|                                 03            |           .    |                              class: "universal" (0) 0xfb-0xfb.2 (0.2)
  0x000f|                                 03            |           .    |                              form: "primitive" (0) 0xfb.2-0xfb.3 (0.1)
  0x000f|                                 03            |           .    |                              tag: "bit_string" (0x3) 0xfb.3-0xfc (0.5)
  0x000f|                                    81 8d      |            ..  |                              length: 141 0xfc-0xfe (2)
  0x000f|                                          00   |              . |                              unused_bits_count: 0 0xfe-0xff (1)
  0x000f|                                             30|               0|                              value: raw bits 0xff-0x18b (140)
  0x0010|81 89 02 81 81 00 ac 35 2a 93 7f c5 4f 18 98 b2|.......5*...O...|
  *     |until 0x18a.7 (140)                            |                |
        |                                               |                |                    [1]{}: object 0x18b-0x19a (15)
  0x0018|                                 30            |           0    |                      class: "universal" (0) 0x18b-0x18b.2 (0.2)
  0x0018|                                 30            |           0    |                      form: "constructed" (1) 0x18b.2-0x18b.3 (0.1)
  0x0018|                                 30            |           0    |                      tag: "sequence" (0x10) 0x18b.3-0x18c (0.5)
  0x0018|                                    0d         |            .   |                      length: 13 0x18c-0x18d (1)
        |                                               |                |                      constructed[0:2]: 0x18d-0x19a (13)
        |                                               |                |                        [0]{}: object 0x18d-0x198 (11)
  0x0018|                                       06      |             .  |                          class: "universal" (0) 0x18d-0x18d.2 (0.2)
  0x0018|                                       06      |             .  |                          form: "primitive" (0) 0x18d.2-0x18d.3 (0.1)
  0x0018|                                       06      |             .  |                          tag: "object_identifier" (0x6) 0x18d.3-0x18e (0.5)
  0x0018|                                          09   |              . |                          length: 9 0x18e-0x18f (1)
        |                                               |                |                          value[0:7]: 0x18f-0x198 (9)
  0x0018|                                             2a|               *|                            [0]: 1 oid 0x18f-0x190 (1)
  0x0018|                                             2a|               *|                            [1]: 2 oid 0x18f-0x190 (1)
  0x0019|86 48                                          |.H              |                            [2]: 840 oid 0x190-0x192 (2)
  0x0019|      86 f7 0d                                 |  ...           |                            [3]: 113549 oid 0x192-0x195 (3)
  0x0019|               01                              |     .          |                            [4]: 1 oid 0x195-0x196 (1)
  0x0019|                  01                           |      .         |                            [5]: 1 oid 0x196-0x197 (1)
  0x0019|                     05                        |       .        |                            [6]: 5 oid 0x197-0x198 (1)
        |                                               |                |                        [1]{}: object 0x198-0x19a (2)
  0x0019|                        05                     |        .       |                          class: "universal" (0) 0x198-0x198.2 (0.2)
  0x0019|                        05                     |        .       |                          form: "primitive" (0) 0x198.2-0x198.3 (0.1)
  0x0019|                        05                     |        .       |                          tag: "null" (0x5) 0x198.3-0x199 (0.5)
  0x0019|                           00                  |         .      |                          length: "indefinite" (0) 0x199-0x19a (1)
        |                                               |                |                          value: null
        |                                               |                |                    [2]{}: object 0x19a-0x21e (132)
  0x0019|                              03               |          .     |                      class: "universal" (0) 0x19a-0x19a.2 (0.2)
  0x0019|                              03               |          .     |                      form: "primitive" (0) 0x19a.2-0x19a.3 (0.1)
  0x0019|                              03               |          .     |                      tag: "bit_string" (0x3) 0x19a.3-0x19b (0.5)
  0x0019|                                 81 81         |           ..   |                      length: 129 0x19b-0x19d (2)
  0x0019|                                       00      |             .  |                      unused_bits_count: 0 0x19d-0x19e (1)
  0x0019|                                          67 43|              gC|                      value: raw bits 0x19e-0x21e (128)
  0x001a|4c a8 a4 3e eb 1b 32 28 70 8b db eb fe f1 b3 70|L..>..2(p......p|
  *     |until 0x21d.7 (128)                            |                |
        |                                               |                |        [2]{}: record 0x21e-0x2f2 (212)
  0x0021|                                          16   |              . |          type: "handshake" (22) (valid) 0x21e-0x21f (1)
  0x0021|                                             03|               .|          version: "tls1.2" (0x303) (valid) 0x21f-0x221 (2)
  0x0022|03                                             |.               |
  0x0022|   00 cf                                       | ..             |          length: 207 0x221-0x223 (2)
        |                                               |                |          message{}: 0x223-0x2f2 (207)
  0x0022|         0c                                    |   .            |            type: "server_key_exchange" (12) 0x223-0x224 (1)
  0x0022|            00 00 cb                           |    ...         |            length: 203 0x224-0x227 (3)
  0x0022|                     00 40 a8 c5 cb 9a aa 6c e5|       .@.....l.|            data: raw bits 0x227-0x2f2 (203)
  0x0023|e9 04 7e e6 01 84 a4 81 7c ed 86 da 37 9f 6d bf|..~.....|...7.m.|
  *     |until 0x2f1.7 (203)                            |                |
        |                                               |                |        [3]{}: record 0x2f2-0x2fb (9)
  0x002f|      16                                       |  .             |          type: "handshake" (22) (valid) 0x2f2-0x2f3 (1)
  0x002f|         03 03                                 |   ..           |          version: "tls1.2" (0x303) (valid) 0x2f3-0x2f5 (2)
  0x002f|               00 04                           |     ..         |          length: 4 0x2f5-0x2f7 (2)
        |                                               |                |          message{}: 0x2f7-0x2fb (4)
  0x002f|                     0e                        |       .        |            type: "server_hello_done" (14) 0x2f7-0x2f8 (1)
  0x002f|                        00 00 00               |        ...     |            length: 0 0x2f8-0x2fb (3)
        |                                               |                |            data: raw bits 0x2fb-0x2fb (0)
        |                                               |                |        [4]{}: record 0x2fb-0x301 (6)
  0x002f|                                 14            |           .    |          type: "change_cipher_spec" (20) (valid) 0x2fb-0x2fc (1)
  0x002f|                                    03 03      |            ..  |          version: "tls1.2" (0x303) (valid) 0x2fc-0x2fe (2)
  0x002f|                                          00 01|              ..|          length: 1 0x2fe-0x300 (2)
        |                                               |                |          message{}: 0x300-0x301 (1)
  0x0030|01                                             |.               |            type: 1 0x300-0x301 (1)
        |                                               |                |        [5]{}: record 0x301-0x336 (53)
  0x0030|   16                                          | .              |          type: "handshake" (22) (valid) 0x301-0x302 (1)
  0x0030|      03 03                                    |  ..            |          version: "tls1.2" (0x303) (valid) 0x302-0x304 (2)
  0x0030|            00 30                              |    .0          |          length: 48 0x304-0x306 (2)
  0x0030|                  98 bf 33 0f a6 e9 88 93 82 18|      ..3.......|          encrypted_data: raw bits 0x306-0x336 (48)
  0x0031|a3 0f 86 fb e8 b1 f7 40 c9 cb 5c 2a 52 77 71 45|.......@..\*RwqE|
  *     |until 0x335.7 (48)                             |                |
        |                                               |                |        [6]{}: record 0x336-0x149b (4453)
  0x0033|                  17                           |      .         |          type: "application_data" (23) (valid) 0x336-0x337 (1)
  0x0033|                     03 03                     |       ..       |          version: "tls1.2" (0x303) (valid) 0x337-0x339 (2)
  0x0033|                           11 60               |         .`     |          length: 4448 0x339-0x33b (2)
  0x0033|                                 57 39 fe 98 68|           W9..h|          encrypted_data: raw bits 0x33b-0x149b (4448)
  0x0034|19 68 1b 9e af 6b b8 8e d2 a5 52 ea 15 cf ad 1d|.h...k....R.....|
  *     |until 0x149a.7 (end) (4448)                    |                |
