$ fq -o keylog=@all.keylog ".tcp_connections[0] | dv" TLS_ECDHE_RSA_WITH_3DES_EDE_CBC_SHA.pcap
          |00 01 02 03 04 05 06 07 08 09 0a 0b 0c 0d 0e 0f|0123456789abcdef|.tcp_connections[0]{}: tcp_connection 0xe1f-0xe1f (0)
          |                                               |                |  client{}: 0xe1f-0xe1f (0)
          |                                               |                |    ip: "127.0.0.1"
          |                                               |                |    port: 38988
          |                                               |                |    has_start: true
          |                                               |                |    has_end: false
          |                                               |                |    skipped_bytes: 0
          |00 01 02 03 04 05 06 07 08 09 0a 0b 0c 0d 0e 0f|0123456789abcdef|    stream{}: (tls) 0x0-0x19e (414)
          |                                               |                |      records[0:6]: 0x0-0x19e (414)
          |                                               |                |        [0]{}: record 0x0-0xa6 (166)
  0x000000|16                                             |.               |          type: "handshake" (22) (valid) 0x0-0x1 (1)
  0x000000|   03 01                                       | ..             |          version: "tls1.0" (0x301) (valid) 0x1-0x3 (2)
  0x000000|         00 a1                                 |   ..           |          length: 161 0x3-0x5 (2)
          |                                               |                |          message{}: 0x5-0xa6 (161)
  0x000000|               01                              |     .          |            type: "client_hello" (1) 0x5-0x6 (1)
  0x000000|                  00 00 9d                     |      ...       |            length: 157 0x6-0x9 (3)
  0x000000|                           03 03               |         ..     |            version: "tls1.2" (0x303) 0x9-0xb (2)
          |                                               |                |            random{}: 0xb-0x2b (32)
  0x000000|                                 52 36 2c 11   |           R6,. |              gmt_unix_time: 1379281937 (2013-09-15T21:52:17Z) 0xb-0xf (4)
  0x000000|                                             c3|               .|              random_bytes: raw bits 0xf-0x2b (28)
  0x000001|6a 0c 24 59 17 0e c5 0e c7 83 37 8f 88 12 5b 20|j.$Y......7...[ |
  0x000002|3a e3 c7 33 3e 6a 0e 62 44 05 3c               |:..3>j.bD.<     |
  0x000002|                                 00            |           .    |            session_id_length: 0 0x2b-0x2c (1)
          |                                               |                |            session_id: raw bits 0x2c-0x2c (0)
  0x000002|                                    00 04      |            ..  |            cipher_suits_length: 4 0x2c-0x2e (2)
          |                                               |                |            cipher_suits[0:2]: 0x2e-0x32 (4)
  0x000002|                                          c0 12|              ..|              [0]: "TLS_ECDHE_RSA_WITH_3DES_EDE_CBC_SHA" (0xc012) cipher_suit 0x2e-0x30 (2)
  0x000003|00 ff                                          |..              |              [1]: "TLS_EMPTY_RENEGOTIATION_INFO_SCSV" (0xff) cipher_suit 0x30-0x32 (2)
  0x000003|      02                                       |  .             |            compression_methods_length: 2 0x32-0x33 (1)
          |                                               |                |            compression_methods[0:2]: 0x33-0x35 (2)
  0x000003|         01                                    |   .            |              [0]: "deflate" (0x1) compression_method 0x33-0x34 (1)
  0x000003|            00                                 |    .           |              [1]: "null" (0x0) compression_method 0x34-0x35 (1)
  0x000003|               00 6f                           |     .o         |            extensions_length: 111 0x35-0x37 (2)
          |                                               |                |            extensions[0:5]: 0x37-0xa6 (111)
          |                                               |                |              [0]{}: extension 0x37-0x3f (8)
  0x000003|                     00 0b                     |       ..       |                type: "ec_point_formats" (11) 0x37-0x39 (2)
  0x000003|                           00 04               |         ..     |                length: 4 0x39-0x3b (2)
  0x000003|                                 03            |           .    |                ex_points_formats_length: 3 0x3b-0x3c (1)
          |                                               |                |                ex_points_formats[0:3]: 0x3c-0x3f (3)
  0x000003|                                    00         |            .   |                  [0]: 0x0 ex_points_format 0x3c-0x3d (1)
  0x000003|                                       01      |             .  |                  [1]: 0x1 ex_points_format 0x3d-0x3e (1)
  0x000003|                                          02   |              . |                  [2]: 0x2 ex_points_format 0x3e-0x3f (1)
          |                                               |                |              [1]{}: extension 0x3f-0x77 (56)
  0x000003|                                             00|               .|                type: "supported_groups" (10) 0x3f-0x41 (2)
  0x000004|0a                                             |.               |
  0x000004|   00 34                                       | .4             |                length: 52 0x41-0x43 (2)
  0x000004|         00 32                                 |   .2           |                supported_groups_length: 50 0x43-0x45 (2)
          |                                               |                |                supported_groups[0:25]: 0x45-0x77 (50)
  0x000004|               00 0e                           |     ..         |                  [0]: 0xe supported_group 0x45-0x47 (2)
  0x000004|                     00 0d                     |       ..       |                  [1]: 0xd supported_group 0x47-0x49 (2)
  0x000004|                           00 19               |         ..     |                  [2]: 0x19 supported_group 0x49-0x4b (2)
  0x000004|                                 00 0b         |           ..   |                  [3]: 0xb supported_group 0x4b-0x4d (2)
  0x000004|                                       00 0c   |             .. |                  [4]: 0xc supported_group 0x4d-0x4f (2)
  0x000004|                                             00|               .|                  [5]: 0x18 supported_group 0x4f-0x51 (2)
  0x000005|18                                             |.               |
  0x000005|   00 09                                       | ..             |                  [6]: 0x9 supported_group 0x51-0x53 (2)
  0x000005|         00 0a                                 |   ..           |                  [7]: 0xa supported_group 0x53-0x55 (2)
  0x000005|               00 16                           |     ..         |                  [8]: 0x16 supported_group 0x55-0x57 (2)
  0x000005|                     00 17                     |       ..       |                  [9]: 0x17 supported_group 0x57-0x59 (2)
  0x000005|                           00 08               |         ..     |                  [10]: 0x8 supported_group 0x59-0x5b (2)
  0x000005|                                 00 06         |           ..   |                  [11]: 0x6 supported_group 0x5b-0x5d (2)
  0x000005|                                       00 07   |             .. |                  [12]: 0x7 supported_group 0x5d-0x5f (2)
  0x000005|                                             00|               .|                  [13]: 0x14 supported_group 0x5f-0x61 (2)
  0x000006|14                                             |.               |
  0x000006|   00 15                                       | ..             |                  [14]: 0x15 supported_group 0x61-0x63 (2)
  0x000006|         00 04                                 |   ..           |                  [15]: 0x4 supported_group 0x63-0x65 (2)
  0x000006|               00 05                           |     ..         |                  [16]: 0x5 supported_group 0x65-0x67 (2)
  0x000006|                     00 12                     |       ..       |                  [17]: 0x12 supported_group 0x67-0x69 (2)
  0x000006|                           00 13               |         ..     |                  [18]: 0x13 supported_group 0x69-0x6b (2)
  0x000006|                                 00 01         |           ..   |                  [19]: 0x1 supported_group 0x6b-0x6d (2)
  0x000006|                                       00 02   |             .. |                  [20]: 0x2 supported_group 0x6d-0x6f (2)
  0x000006|                                             00|               .|                  [21]: 0x3 supported_group 0x6f-0x71 (2)
  0x000007|03                                             |.               |
  0x000007|   00 0f                                       | ..             |                  [22]: 0xf supported_group 0x71-0x73 (2)
  0x000007|         00 10                                 |   ..           |                  [23]: 0x10 supported_group 0x73-0x75 (2)
  0x000007|               00 11                           |     ..         |                  [24]: 0x11 supported_group 0x75-0x77 (2)
          |                                               |                |              [2]{}: extension 0x77-0x7b (4)
  0x000007|                     00 23                     |       .#       |                type: "session_ticket" (35) 0x77-0x79 (2)
  0x000007|                           00 00               |         ..     |                length: 0 0x79-0x7b (2)
          |                                               |                |              [3]{}: extension 0x7b-0xa1 (38)
  0x000007|                                 00 0d         |           ..   |                type: "signature_algorithms" (13) 0x7b-0x7d (2)
  0x000007|                                       00 22   |             ." |                length: 34 0x7d-0x7f (2)
  0x000007|                                             00|               .|                signature_algorithms_length: 32 0x7f-0x81 (2)
  0x000008|20                                             |                |
          |                                               |                |                signature_algorithms[0:16]: 0x81-0xa1 (32)
          |                                               |                |                  [0]{}: signature_algorithm 0x81-0x83 (2)
  0x000008|   06                                          | .              |                    hash: "sha512" (6) 0x81-0x82 (1)
  0x000008|      01                                       |  .             |                    signature: "rsa" (1) 0x82-0x83 (1)
          |                                               |                |                  [1]{}: signature_algorithm 0x83-0x85 (2)
  0x000008|         06                                    |   .            |                    hash: "sha512" (6) 0x83-0x84 (1)
  0x000008|            02                                 |    .           |                    signature: "dsa" (2) 0x84-0x85 (1)
          |                                               |                |                  [2]{}: signature_algorithm 0x85-0x87 (2)
  0x000008|               06                              |     .          |                    hash: "sha512" (6) 0x85-0x86 (1)
  0x000008|                  03                           |      .         |                    signature: "ecdsa" (3) 0x86-0x87 (1)
          |                                               |                |                  [3]{}: signature_algorithm 0x87-0x89 (2)
  0x000008|                     05                        |       .        |                    hash: "sha384" (5) 0x87-0x88 (1)
  0x000008|                        01                     |        .       |                    signature: "rsa" (1) 0x88-0x89 (1)
          |                                               |                |                  [4]{}: signature_algorithm 0x89-0x8b (2)
  0x000008|                           05                  |         .      |                    hash: "sha384" (5) 0x89-0x8a (1)
  0x000008|                              02               |          .     |                    signature: "dsa" (2) 0x8a-0x8b (1)
          |                                               |                |                  [5]{}: signature_algorithm 0x8b-0x8d (2)
  0x000008|                                 05            |           .    |                    hash: "sha384" (5) 0x8b-0x8c (1)
  0x000008|                                    03         |            .   |                    signature: "ecdsa" (3) 0x8c-0x8d (1)
          |                                               |                |                  [6]{}: signature_algorithm 0x8d-0x8f (2)
  0x000008|                                       04      |             .  |                    hash: "sha256" (4) 0x8d-0x8e (1)
  0x000008|                                          01   |              . |                    signature: "rsa" (1) 0x8e-0x8f (1)
          |                                               |                |                  [7]{}: signature_algorithm 0x8f-0x91 (2)
  0x000008|                                             04|               .|                    hash: "sha256" (4) 0x8f-0x90 (1)
  0x000009|02                                             |.               |                    signature: "dsa" (2) 0x90-0x91 (1)
          |                                               |                |                  [8]{}: signature_algorithm 0x91-0x93 (2)
  0x000009|   04                                          | .              |                    hash: "sha256" (4) 0x91-0x92 (1)
  0x000009|      03                                       |  .             |                    signature: "ecdsa" (3) 0x92-0x93 (1)
          |                                               |                |                  [9]{}: signature_algorithm 0x93-0x95 (2)
  0x000009|         03                                    |   .            |                    hash: "sha224" (3) 0x93-0x94 (1)
  0x000009|            01                                 |    .           |                    signature: "rsa" (1) 0x94-0x95 (1)
          |                                               |                |                  [10]{}: signature_algorithm 0x95-0x97 (2)
  0x000009|               03                              |     .          |                    hash: "sha224" (3) 0x95-0x96 (1)
  0x000009|                  02                           |      .         |                    signature: "dsa" (2) 0x96-0x97 (1)
          |                                               |                |                  [11]{}: signature_algorithm 0x97-0x99 (2)
  0x000009|                     03                        |       .        |                    hash: "sha224" (3) 0x97-0x98 (1)
  0x000009|                        03                     |        .       |                    signature: "ecdsa" (3) 0x98-0x99 (1)
          |                                               |                |                  [12]{}: signature_algorithm 0x99-0x9b (2)
  0x000009|                           02                  |         .      |                    hash: "sha1" (2) 0x99-0x9a (1)
  0x000009|                              01               |          .     |                    signature: "rsa" (1) 0x9a-0x9b (1)
          |                                               |                |                  [13]{}: signature_algorithm 0x9b-0x9d (2)
  0x000009|                                 02            |           .    |                    hash: "sha1" (2) 0x9b-0x9c (1)
  0x000009|                                    02         |            .   |                    signature: "dsa" (2) 0x9c-0x9d (1)
          |                                               |                |                  [14]{}: signature_algorithm 0x9d-0x9f (2)
  0x000009|                                       02      |             .  |                    hash: "sha1" (2) 0x9d-0x9e (1)
  0x000009|                                          03   |              . |                    signature: "ecdsa" (3) 0x9e-0x9f (1)
          |                                               |                |                  [15]{}: signature_algorithm 0x9f-0xa1 (2)
  0x000009|                                             01|               .|                    hash: "md5" (1) 0x9f-0xa0 (1)
  0x00000a|01                                             |.               |                    signature: "rsa" (1) 0xa0-0xa1 (1)
          |                                               |                |              [4]{}: extension 0xa1-0xa6 (5)
  0x00000a|   00 0f                                       | ..             |                type: "heartbeat" (15) 0xa1-0xa3 (2)
  0x00000a|         00 01                                 |   ..           |                length: 1 0xa3-0xa5 (2)
  0x00000a|               01                              |     .          |                data: raw bits 0xa5-0xa6 (1)
          |                                               |                |        [1]{}: record 0xa6-0xf1 (75)
  0x00000a|                  16                           |      .         |          type: "handshake" (22) (valid) 0xa6-0xa7 (1)
  0x00000a|                     03 03                     |       ..       |          version: "tls1.2" (0x303) (valid) 0xa7-0xa9 (2)
  0x00000a|                           00 46               |         .F     |          length: 70 0xa9-0xab (2)
          |                                               |                |          message{}: 0xab-0xf1 (70)
  0x00000a|                                 10            |           .    |            type: "client_key_exchange" (16) 0xab-0xac (1)
  0x00000a|                                    00 00 42   |            ..B |            length: 66 0xac-0xaf (3)
          |                                               |                |            public{}: 0xaf-0xaf (0)
  0x00000a|                                             41|               A|              length: 65 0xaf-0xb0 (1)
  0x00000b|04 fc 60 49 0b 27 b5 aa 9f 94 d9 79 01 2e 27 f1|..`I.'.....y..'.|              data: raw bits 0xb0-0xf1 (65)
  *       |until 0xf0.7 (65)                              |                |
          |                                               |                |        [2]{}: record 0xf1-0xf7 (6)
  0x00000f|   14                                          | .              |          type: "change_cipher_spec" (20) (valid) 0xf1-0xf2 (1)
  0x00000f|      03 03                                    |  ..            |          version: "tls1.2" (0x303) (valid) 0xf2-0xf4 (2)
  0x00000f|            00 01                              |    ..          |          length: 1 0xf4-0xf6 (2)
          |                                               |                |          message{}: 0xf6-0xf7 (1)
  0x00000f|                  01                           |      .         |            type: 1 0xf6-0xf7 (1)
          |                                               |                |        [3]{}: record 0xf7-0x134 (61)
  0x00000f|                     16                        |       .        |          type: "handshake" (22) (valid) 0xf7-0xf8 (1)
  0x00000f|                        03 03                  |        ..      |          version: "tls1.2" (0x303) (valid) 0xf8-0xfa (2)
  0x00000f|                              00 38            |          .8    |          length: 56 0xfa-0xfc (2)
  0x00000f|                                    12 ba cc 4a|            ...J|          encrypted_data: raw bits 0xfc-0x134 (56)
  0x000010|ca b3 ab d2 51 68 57 1a 2a 47 13 f3 ab 67 ba 3a|....QhW.*G...g.:|
  *       |until 0x133.7 (56)                             |                |
          |00 01 02 03 04 05 06 07 08 09 0a 0b 0c 0d 0e 0f|0123456789abcdef|          message{}: 0x0-0x10 (16)
    0x0000|14                                             |.               |            type: "finished" (20) 0x0-0x1 (1)
    0x0000|   00 00 0c                                    | ...            |            length: 12 0x1-0x4 (3)
    0x0000|            c3 08 23 4f f3 8a 7b 6a e9 8e e3 8c|    ..#O..{j....|            verify_data: raw bits 0x4-0x10 (12)
          |                                               |                |        [4]{}: record 0x134-0x171 (61)
  0x000013|            17                                 |    .           |          type: "application_data" (23) (valid) 0x134-0x135 (1)
  0x000013|               03 03                           |     ..         |          version: "tls1.2" (0x303) (valid) 0x135-0x137 (2)
  0x000013|                     00 38                     |       .8       |          length: 56 0x137-0x139 (2)
  0x000013|                           dc a3 05 d1 36 8f 16|         ....6..|          encrypted_data: raw bits 0x139-0x171 (56)
  0x000014|25 ba 61 e8 aa 9c 81 11 44 4e f3 71 1d ff 3f cb|%.a.....DN.q..?.|
  *       |until 0x170.7 (56)                             |                |
          |00 01 02 03 04 05 06 07 08 09 0a 0b 0c 0d 0e 0f|0123456789abcdef|
    0x0000|47 45 54 20 2f 20 48 54 54 50 2f 31 2e 30 0d 0a|GET / HTTP/1.0..|          message: raw bits 0x0-0x12 (18)
    0x0000|0d 0a|                                         |..|             |
          |                                               |                |        [5]{}: record 0x171-0x19e (45)
  0x000017|   15                                          | .              |          type: "alert" (21) (valid) 0x171-0x172 (1)
  0x000017|      03 03                                    |  ..            |          version: "tls1.2" (0x303) (valid) 0x172-0x174 (2)
  0x000017|            00 28                              |    .(          |          length: 40 0x174-0x176 (2)
  0x000017|                  15 12 06 de a9 32 e6 53 c7 81|      .....2.S..|          encrypted_data: raw bits 0x176-0x19e (40)
  0x000018|dd ad d3 62 7c 13 ec 54 4f 99 d9 20 d1 26 4b fd|...b|..TO.. .&K.|
  0x000019|4d 1f ff 89 9b b9 65 6b 25 03 5f 25 ed 59|     |M.....ek%._%.Y| |
          |00 01 02 03 04 05 06 07 08 09 0a 0b 0c 0d 0e 0f|0123456789abcdef|          message{}: 0x0-0x2 (2)
    0x0000|01                                             |.               |            level: "warning" (1) 0x0-0x1 (1)
    0x0000|   00|                                         | .|             |            description: "close_notify" (0) 0x1-0x2 (1)
          |00 01 02 03 04 05 06 07 08 09 0a 0b 0c 0d 0e 0f|0123456789abcdef|
    0x0000|47 45 54 20 2f 20 48 54 54 50 2f 31 2e 30 0d 0a|GET / HTTP/1.0..|      stream: raw bits 0x0-0x12 (18)
    0x0000|0d 0a|                                         |..|             |
          |                                               |                |  server{}: 0xe1f-0xe1f (0)
          |                                               |                |    ip: "127.0.0.1"
          |                                               |                |    port: 4430
          |                                               |                |    has_start: true
          |                                               |                |    has_end: true
          |                                               |                |    skipped_bytes: 0
          |00 01 02 03 04 05 06 07 08 09 0a 0b 0c 0d 0e 0f|0123456789abcdef|    stream{}: (tls) 0x0-0x869 (2153)
          |                                               |                |      records[0:8]: 0x0-0x869 (2153)
          |                                               |                |        [0]{}: record 0x0-0x47 (71)
  0x000000|16                                             |.               |          type: "handshake" (22) (valid) 0x0-0x1 (1)
  0x000000|   03 03                                       | ..             |          version: "tls1.2" (0x303) (valid) 0x1-0x3 (2)
  0x000000|         00 42                                 |   .B           |          length: 66 0x3-0x5 (2)
          |                                               |                |          message{}: 0x5-0x47 (66)
  0x000000|               02                              |     .          |            type: "server_hello" (2) 0x5-0x6 (1)
  0x000000|                  00 00 3e                     |      ..>       |            length: 62 0x6-0x9 (3)
  0x000000|                           03 03               |         ..     |            version: "tls1.2" (0x303) 0x9-0xb (2)
          |                                               |                |            random{}: 0xb-0x2b (32)
  0x000000|                                 52 36 2c 11   |           R6,. |              gmt_unix_time: 1379281937 (2013-09-15T21:52:17Z) 0xb-0xf (4)
  0x000000|                                             c5|               .|              random_bytes: raw bits 0xf-0x2b (28)
  0x000001|d9 82 c1 53 94 f4 bb 6e 83 ff b5 1c aa d5 aa cd|...S...n........|
  0x000002|4a 69 ba ee 31 ed ff b2 df 89 90               |Ji..1......     |
  0x000002|                                 00            |           .    |            session_id_length: 0 0x2b-0x2c (1)
          |                                               |                |            session_id: raw bits 0x2c-0x2c (0)
  0x000002|                                    c0 12      |            ..  |            cipher_suit: "TLS_ECDHE_RSA_WITH_3DES_EDE_CBC_SHA" (0xc012) 0x2c-0x2e (2)
  0x000002|                                          01   |              . |            compression_method: "deflate" (0x1) 0x2e-0x2f (1)
  0x000002|                                             00|               .|            extensions_length: 22 0x2f-0x31 (2)
  0x000003|16                                             |.               |
          |                                               |                |            extensions[0:4]: 0x31-0x47 (22)
          |                                               |                |              [0]{}: extension 0x31-0x36 (5)
  0x000003|   ff 01                                       | ..             |                type: "renegotiation_info" (65281) 0x31-0x33 (2)
  0x000003|         00 01                                 |   ..           |                length: 1 0x33-0x35 (2)
  0x000003|               00                              |     .          |                data: raw bits 0x35-0x36 (1)
          |                                               |                |              [1]{}: extension 0x36-0x3e (8)
  0x000003|                  00 0b                        |      ..        |                type: "ec_point_formats" (11) 0x36-0x38 (2)
  0x000003|                        00 04                  |        ..      |                length: 4 0x38-0x3a (2)
  0x000003|                              03               |          .     |                ex_points_formats_length: 3 0x3a-0x3b (1)
          |                                               |                |                ex_points_formats[0:3]: 0x3b-0x3e (3)
  0x000003|                                 00            |           .    |                  [0]: 0x0 ex_points_format 0x3b-0x3c (1)
  0x000003|                                    01         |            .   |                  [1]: 0x1 ex_points_format 0x3c-0x3d (1)
  0x000003|                                       02      |             .  |                  [2]: 0x2 ex_points_format 0x3d-0x3e (1)
          |                                               |                |              [2]{}: extension 0x3e-0x42 (4)
  0x000003|                                          00 23|              .#|                type: "session_ticket" (35) 0x3e-0x40 (2)
  0x000004|00 00                                          |..              |                length: 0 0x40-0x42 (2)
          |                                               |                |              [3]{}: extension 0x42-0x47 (5)
  0x000004|      00 0f                                    |  ..            |                type: "heartbeat" (15) 0x42-0x44 (2)
  0x000004|            00 01                              |    ..          |                length: 1 0x44-0x46 (2)
  0x000004|                  01                           |      .         |                data: raw bits 0x46-0x47 (1)
          |                                               |                |        [1]{}: record 0x47-0x20f (456)
  0x000004|                     16                        |       .        |          type: "handshake" (22) (valid) 0x47-0x48 (1)
  0x000004|                        03 03                  |        ..      |          version: "tls1.2" (0x303) (valid) 0x48-0x4a (2)
  0x000004|                              01 c3            |          ..    |          length: 451 0x4a-0x4c (2)
          |                                               |                |          message{}: 0x4c-0x20f (451)
  0x000004|                                    0b         |            .   |            type: "certificate" (11) 0x4c-0x4d (1)
  0x000004|                                       00 01 bf|             ...|            length: 447 0x4d-0x50 (3)
  0x000005|00 01 bc                                       |...             |            certificates_length: 444 0x50-0x53 (3)
          |                                               |                |            certificates[0:1]: 0x53-0x20f (444)
          |                                               |                |              [0]{}: certificate 0x53-0x20f (444)
  0x000005|         00 01 b9                              |   ...          |                length: 441 0x53-0x56 (3)
          |00 01 02 03 04 05 06 07 08 09 0a 0b 0c 0d 0e 0f|0123456789abcdef|                data{}: (asn1_ber) 0x56-0x20f (441)
  0x000005|                  30                           |      0         |                  class: "universal" (0) 0x56-0x56.2 (0.2)
  0x000005|                  30                           |      0         |                  form: "constructed" (1) 0x56.2-0x56.3 (0.1)
  0x000005|                  30                           |      0         |                  tag: "sequence" (0x10) 0x56.3-0x57 (0.5)
  0x000005|                     82 01 b5                  |       ...      |                  length: 437 0x57-0x5a (3)
          |                                               |                |                  constructed[0:3]: 0x5a-0x20f (437)
          |                                               |                |                    [0]{}: object 0x5a-0x17c (290)
  0x000005|                              30               |          0     |                      class: "universal" (0) 0x5a-0x5a.2 (0.2)
  0x000005|                              30               |          0     |                      form: "constructed" (1) 0x5a.2-0x5a.3 (0.1)
  0x000005|                              30               |          0     |                      tag: "sequence" (0x10) 0x5a.3-0x5b (0.5)
  0x000005|                                 82 01 1e      |           ...  |                      length: 286 0x5b-0x5e (3)
          |                                               |                |                      constructed[0:6]: 0x5e-0x17c (286)
          |                                               |                |                        [0]{}: object 0x5e-0x69 (11)
  0x000005|                                          02   |              . |                          class: "universal" (0) 0x5e-0x5e.2 (0.2)
  0x000005|                                          02   |              . |                          form: "primitive" (0) 0x5e.2-0x5e.3 (0.1)
  0x000005|                                          02   |              . |                          tag: "integer" (0x2) 0x5e.3-0x5f (0.5)
  0x000005|                                             09|               .|                          length: 9 0x5f-0x60 (1)
  0x000006|00 f4 a7 2f d3 e8 fc 37 c4                     |.../...7.       |                          value: 17629111853558544324 0x60-0x69 (9)
          |                                               |                |                        [1]{}: object 0x69-0x78 (15)
  0x000006|                           30                  |         0      |                          class: "universal" (0) 0x69-0x69.2 (0.2)
  0x000006|                           30                  |         0      |                          form: "constructed" (1) 0x69.2-0x69.3 (0.1)
  0x000006|                           30                  |         0      |                          tag: "sequence" (0x10) 0x69.3-0x6a (0.5)
  0x000006|                              0d               |          .     |                          length: 13 0x6a-0x6b (1)
          |                                               |                |                          constructed[0:2]: 0x6b-0x78 (13)
          |                                               |                |                            [0]{}: object 0x6b-0x76 (11)
  0x000006|                                 06            |           .    |                              class: "universal" (0) 0x6b-0x6b.2 (0.2)
  0x000006|                                 06            |           .    |                              form: "primitive" (0) 0x6b.2-0x6b.3 (0.1)
  0x000006|                                 06            |           .    |                              tag: "object_identifier" (0x6) 0x6b.3-0x6c (0.5)
  0x000006|                                    09         |            .   |                              length: 9 0x6c-0x6d (1)
          |                                               |                |                              value[0:7]: 0x6d-0x76 (9)
  0x000006|                                       2a      |             *  |                                [0]: 1 oid 0x6d-0x6e (1)
  0x000006|                                       2a      |             *  |                                [1]: 2 oid 0x6d-0x6e (1)
  0x000006|                                          86 48|              .H|                                [2]: 840 oid 0x6e-0x70 (2)
  0x000007|86 f7 0d                                       |...             |                                [3]: 113549 oid 0x70-0x73 (3)
  0x000007|         01                                    |   .            |                                [4]: 1 oid 0x73-0x74 (1)
  0x000007|            01                                 |    .           |                                [5]: 1 oid 0x74-0x75 (1)
  0x000007|               05                              |     .          |                                [6]: 5 oid 0x75-0x76 (1)
          |                                               |                |                            [1]{}: object 0x76-0x78 (2)
  0x000007|                  05                           |      .         |                              class: "universal" (0) 0x76-0x76.2 (0.2)
  0x000007|                  05                           |      .         |                              form: "primitive" (0) 0x76.2-0x76.3 (0.1)
  0x000007|                  05                           |      .         |                              tag: "null" (0x5) 0x76.3-0x77 (0.5)
  0x000007|                     00                        |       .        |                              length: "indefinite" (0) 0x77-0x78 (1)
          |                                               |                |                              value: null
          |                                               |                |                        [2]{}: object 0x78-0x99 (33)
  0x000007|                        30                     |        0       |                          class: "universal" (0) 0x78-0x78.2 (0.2)
  0x000007|                        30                     |        0       |                          form: "constructed" (1) 0x78.2-0x78.3 (0.1)
  0x000007|                        30                     |        0       |                          tag: "sequence" (0x10) 0x78.3-0x79 (0.5)
  0x000007|                           1f                  |         .      |                          length: 31 0x79-0x7a (1)
          |                                               |                |                          constructed[0:1]: 0x7a-0x99 (31)
          |                                               |                |                            [0]{}: object 0x7a-0x99 (31)
  0x000007|                              31               |          1     |                              class: "universal" (0) 0x7a-0x7a.2 (0.2)
  0x000007|                              31               |          1     |                              form: "constructed" (1) 0x7a.2-0x7a.3 (0.1)
  0x000007|                              31               |          1     |                              tag: "set" (0x11) 0x7a.3-0x7b (0.5)
  0x000007|                                 1d            |           .    |                              length: 29 0x7b-0x7c (1)
          |                                               |                |                              constructed[0:1]: 0x7c-0x99 (29)
          |                                               |                |                                [0]{}: object 0x7c-0x99 (29)
  0x000007|                                    30         |            0   |                                  class: "universal" (0) 0x7c-0x7c.2 (0.2)
  0x000007|                                    30         |            0   |                                  form: "constructed" (1) 0x7c.2-0x7c.3 (0.1)
  0x000007|                                    30         |            0   |                                  tag: "sequence" (0x10) 0x7c.3-0x7d (0.5)
  0x000007|                                       1b      |             .  |                                  length: 27 0x7d-0x7e (1)
          |                                               |                |                                  constructed[0:2]: 0x7e-0x99 (27)
          |                                               |                |                                    [0]{}: object 0x7e-0x83 (5)
  0x000007|                                          06   |              . |                                      class: "universal" (0) 0x7e-0x7e.2 (0.2)
  0x000007|                                          06   |              . |                                      form: "primitive" (0) 0x7e.2-0x7e.3 (0.1)
  0x000007|                                          06   |              . |                                      tag: "object_identifier" (0x6) 0x7e.3-0x7f (0.5)
  0x000007|                                             03|               .|                                      length: 3 0x7f-0x80 (1)
          |                                               |                |                                      value[0:4]: 0x80-0x83 (3)
  0x000008|55                                             |U               |                                        [0]: 2 oid 0x80-0x81 (1)
  0x000008|55                                             |U               |                                        [1]: 5 oid 0x80-0x81 (1)
  0x000008|   04                                          | .              |                                        [2]: 4 oid 0x81-0x82 (1)
  0x000008|      03                                       |  .             |                                        [3]: 3 oid 0x82-0x83 (1)
          |                                               |                |                                    [1]{}: object 0x83-0x99 (22)
  0x000008|         0c                                    |   .            |                                      class: "universal" (0) 0x83-0x83.2 (0.2)
  0x000008|         0c                                    |   .            |                                      form: "primitive" (0) 0x83.2-0x83.3 (0.1)
  0x000008|         0c                                    |   .            |                                      tag: "utf8_string" (0xc) 0x83.3-0x84 (0.5)
  0x000008|            14                                 |    .           |                                      length: 20 0x84-0x85 (1)
  0x000008|               54 65 73 74 20 43 65 72 74 69 66|     Test Certif|                                      value: "Test Certificate RSA" 0x85-0x99 (20)
  0x000009|69 63 61 74 65 20 52 53 41                     |icate RSA       |
          |                                               |                |                        [3]{}: object 0x99-0xb9 (32)
  0x000009|                           30                  |         0      |                          class: "universal" (0) 0x99-0x99.2 (0.2)
  0x000009|                           30                  |         0      |                          form: "constructed" (1) 0x99.2-0x99.3 (0.1)
  0x000009|                           30                  |         0      |                          tag: "sequence" (0x10) 0x99.3-0x9a (0.5)
  0x000009|                              1e               |          .     |                          length: 30 0x9a-0x9b (1)
          |                                               |                |                          constructed[0:2]: 0x9b-0xb9 (30)
          |                                               |                |                            [0]{}: object 0x9b-0xaa (15)
  0x000009|                                 17            |           .    |                              class: "universal" (0) 0x9b-0x9b.2 (0.2)
  0x000009|                                 17            |           .    |                              form: "primitive" (0) 0x9b.2-0x9b.3 (0.1)
  0x000009|                                 17            |           .    |                              tag: "utc_time" (0x17) 0x9b.3-0x9c (0.5)
  0x000009|                                    0d         |            .   |                              length: 13 0x9c-0x9d (1)
  0x000009|                                       31 33 30|             130|                              value: "130915215110Z" 0x9d-0xaa (13)
  0x00000a|39 31 35 32 31 35 31 31 30 5a                  |915215110Z      |
          |                                               |                |                            [1]{}: object 0xaa-0xb9 (15)
  0x00000a|                              17               |          .     |                              class: "universal" (0) 0xaa-0xaa.2 (0.2)
  0x00000a|                              17               |          .     |                              form: "primitive" (0) 0xaa.2-0xaa.3 (0.1)
  0x00000a|                              17               |          .     |                              tag: "utc_time" (0x17) 0xaa.3-0xab (0.5)
  0x00000a|                                 0d            |           .    |                              length: 13 0xab-0xac (1)
  0x00000a|                                    32 33 30 39|            2309|                              value: "230913215110Z" 0xac-0xb9 (13)
  0x00000b|31 33 32 31 35 31 31 30 5a                     |13215110Z       |
          |                                               |                |                        [4]{}: object 0xb9-0xda (33)
  0x00000b|                           30                  |         0      |                          class: "universal" (0) 0xb9-0xb9.2 (0.2)
  0x00000b|                           30                  |         0      |                          form: "constructed" (1) 0xb9.2-0xb9.3 (0.1)
  0x00000b|                           30                  |         0      |                          tag: "sequence" (0x10) 0xb9.3-0xba (0.5)
  0x00000b|                              1f               |          .     |                          length: 31 0xba-0xbb (1)
          |                                               |                |                          constructed[0:1]: 0xbb-0xda (31)
          |                                               |                |                            [0]{}: object 0xbb-0xda (31)
  0x00000b|                                 31            |           1    |                              class: "universal" (0) 0xbb-0xbb.2 (0.2)
  0x00000b|                                 31            |           1    |                              form: "constructed" (1) 0xbb.2-0xbb.3 (0.1)
  0x00000b|                                 31            |           1    |                              tag: "set" (0x11) 0xbb.3-0xbc (0.5)
  0x00000b|                                    1d         |            .   |                              length: 29 0xbc-0xbd (1)
          |                                               |                |                              constructed[0:1]: 0xbd-0xda (29)
          |                                               |                |                                [0]{}: object 0xbd-0xda (29)
  0x00000b|                                       30      |             0  |                                  class: "universal" (0) 0xbd-0xbd.2 (0.2)
  0x00000b|                                       30      |             0  |                                  form: "constructed" (1) 0xbd.2-0xbd.3 (0.1)
  0x00000b|                                       30      |             0  |                                  tag: "sequence" (0x10) 0xbd.3-0xbe (0.5)
  0x00000b|                                          1b   |              . |                                  length: 27 0xbe-0xbf (1)
          |                                               |                |                                  constructed[0:2]: 0xbf-0xda (27)
          |                                               |                |                                    [0]{}: object 0xbf-0xc4 (5)
  0x00000b|                                             06|               .|                                      class: "universal" (0) 0xbf-0xbf.2 (0.2)
  0x00000b|                                             06|               .|                                      form: "primitive" (0) 0xbf.2-0xbf.3 (0.1)
  0x00000b|                                             06|               .|                                      tag: "object_identifier" (0x6) 0xbf.3-0xc0 (0.5)
  0x00000c|03                                             |.               |                                      length: 3 0xc0-0xc1 (1)
          |                                               |                |                                      value[0:4]: 0xc1-0xc4 (3)
  0x00000c|   55                                          | U              |                                        [0]: 2 oid 0xc1-0xc2 (1)
  0x00000c|   55                                          | U              |                                        [1]: 5 oid 0xc1-0xc2 (1)
  0x00000c|      04                                       |  .             |                                        [2]: 4 oid 0xc2-0xc3 (1)
  0x00000c|         03                                    |   .            |                                        [3]: 3 oid 0xc3-0xc4 (1)
          |                                               |                |                                    [1]{}: object 0xc4-0xda (22)
  0x00000c|            0c                                 |    .           |                                      class: "universal" (0) 0xc4-0xc4.2 (0.2)
  0x00000c|            0c                                 |    .           |                                      form: "primitive" (0) 0xc4.2-0xc4.3 (0.1)
  0x00000c|            0c                                 |    .           |                                      tag: "utf8_string" (0xc) 0xc4.3-0xc5 (0.5)
  0x00000c|               14                              |     .          |                                      length: 20 0xc5-0xc6 (1)
  0x00000c|                  54 65 73 74 20 43 65 72 74 69|      Test Certi|                                      value: "Test Certificate RSA" 0xc6-0xda (20)
  0x00000d|66 69 63 61 74 65 20 52 53 41                  |ficate RSA      |
          |                                               |                |                        [5]{}: object 0xda-0x17c (162)
  0x00000d|                              30               |          0     |                          class: "universal" (0) 0xda-0xda.2 (0.2)
  0x00000d|                              30               |          0     |                          form: "constructed" (1) 0xda.2-0xda.3 (0.1)
  0x00000d|                              30               |          0     |                          tag: "sequence" (0x10) 0xda.3-0xdb (0.5)
  0x00000d|                                 81 9f         |           ..   |                          length: 159 0xdb-0xdd (2)
          |                                               |                |                          constructed[0:2]: 0xdd-0x17c (159)
          |                                               |                |                            [0]{}: object 0xdd-0xec (15)
  0x00000d|                                       30      |             0  |                              class: "universal" (0) 0xdd-0xdd.2 (0.2)
  0x00000d|                                       30      |             0  |                              form: "constructed" (1) 0xdd.2-0xdd.3 (0.1)
  0x00000d|                                       30      |             0  |                              tag: "sequence" (0x10) 0xdd.3-0xde (0.5)
  0x00000d|                                          0d   |              . |                              length: 13 0xde-0xdf (1)
          |                                               |                |                              constructed[0:2]: 0xdf-0xec (13)
          |                                               |                |                                [0]{}: object 0xdf-0xea (11)
  0x00000d|                                             06|               .|                                  class: "universal" (0) 0xdf-0xdf.2 (0.2)
  0x00000d|                                             06|               .|                                  form: "primitive" (0) 0xdf.2-0xdf.3 (0.1)
  0x00000d|                                             06|               .|                                  tag: "object_identifier" (0x6) 0xdf.3-0xe0 (0.5)
  0x00000e|09                                             |.               |                                  length: 9 0xe0-0xe1 (1)
          |                                               |                |                                  value[0:7]: 0xe1-0xea (9)
  0x00000e|   2a                                          | *              |                                    [0]: 1 oid 0xe1-0xe2 (1)
  0x00000e|   2a                                          | *              |                                    [1]: 2 oid 0xe1-0xe2 (1)
  0x00000e|      86 48                                    |  .H            |                                    [2]: 840 oid 0xe2-0xe4 (2)
  0x00000e|            86 f7 0d                           |    ...         |                                    [3]: 113549 oid 0xe4-0xe7 (3)
  0x00000e|                     01                        |       .        |                                    [4]: 1 oid 0xe7-0xe8 (1)
  0x00000e|                        01                     |        .       |                                    [5]: 1 oid 0xe8-0xe9 (1)
  0x00000e|                           01                  |         .      |                                    [6]: 1 oid 0xe9-0xea (1)
          |                                               |                |                                [1]{}: object 0xea-0xec (2)
  0x00000e|                              05               |          .     |                                  class: "universal" (0) 0xea-0xea.2 (0.2)
  0x00000e|                              05               |          .     |                                  form: "primitive" (0) 0xea.2-0xea.3 (0.1)
  0x00000e|                              05               |          .     |                                  tag: "null" (0x5) 0xea.3-0xeb (0.5)
  0x00000e|                                 00            |           .    |                                  length: "indefinite" (0) 0xeb-0xec (1)
          |                                               |                |                                  value: null
          |                                               |                |                            [1]{}: object 0xec-0x17c (144)
  0x00000e|                                    03         |            .   |                              class: "universal" (0) 0xec-0xec.2 (0.2)
  0x00000e|                                    03         |            .   |                              form: "primitive" (0) 0xec.2-0xec.3 (0.1)
  0x00000e|                                    03         |            .   |                              tag: "bit_string" (0x3) 0xec.3-0xed (0.5)
  0x00000e|                                       81 8d   |             .. |                              length: 141 0xed-0xef (2)
  0x00000e|                                             00|               .|                              unused_bits_count: 0 0xef-0xf0 (1)
  0x00000f|30 81 89 02 81 81 00 ac 35 2a 93 7f c5 4f 18 98|0.......5*...O..|                              value: raw bits 0xf0-0x17c (140)
  *       |until 0x17b.7 (140)                            |                |
          |                                               |                |                    [1]{}: object 0x17c-0x18b (15)
  0x000017|                                    30         |            0   |                      class: "universal" (0) 0x17c-0x17c.2 (0.2)
  0x000017|                                    30         |            0   |                      form: "constructed" (1) 0x17c.2-0x17c.3 (0.1)
  0x000017|                                    30         |            0   |                      tag: "sequence" (0x10) 0x17c.3-0x17d (0.5)
  0x000017|                                       0d      |             .  |                      length: 13 0x17d-0x17e (1)
          |                                               |                |                      constructed[0:2]: 0x17e-0x18b (13)
          |                                               |                |                        [0]{}: object 0x17e-0x189 (11)
  0x000017|                                          06   |              . |                          class: "universal" (0) 0x17e-0x17e.2 (0.2)
  0x000017|                                          06   |              . |                          form: "primitive" (0) 0x17e.2-0x17e.3 (0.1)
  0x000017|                                          06   |              . |                          tag: "object_identifier" (0x6) 0x17e.3-0x17f (0.5)
  0x000017|                                             09|               .|                          length: 9 0x17f-0x180 (1)
          |                                               |                |                          value[0:7]: 0x180-0x189 (9)
  0x000018|2a                                             |*               |                            [0]: 1 oid 0x180-0x181 (1)
  0x000018|2a                                             |*               |                            [1]: 2 oid 0x180-0x181 (1)
  0x000018|   86 48                                       | .H             |                            [2]: 840 oid 0x181-0x183 (2)
  0x000018|         86 f7 0d                              |   ...          |                            [3]: 113549 oid 0x183-0x186 (3)
  0x000018|                  01                           |      .         |                            [4]: 1 oid 0x186-0x187 (1)
  0x000018|                     01                        |       .        |                            [5]: 1 oid 0x187-0x188 (1)
  0x000018|                        05                     |        .       |                            [6]: 5 oid 0x188-0x189 (1)
          |                                               |                |                        [1]{}: object 0x189-0x18b (2)
  0x000018|                           05                  |         .      |                          class: "universal" (0) 0x189-0x189.2 (0.2)
  0x000018|                           05                  |         .      |                          form: "primitive" (0) 0x189.2-0x189.3 (0.1)
  0x000018|                           05                  |         .      |                          tag: "null" (0x5) 0x189.3-0x18a (0.5)
  0x000018|                              00               |          .     |                          length: "indefinite" (0) 0x18a-0x18b (1)
          |                                               |                |                          value: null
          |                                               |                |                    [2]{}: object 0x18b-0x20f (132)
  0x000018|                                 03            |           .    |                      class: "universal" (0) 0x18b-0x18b.2 (0.2)
  0x000018|                                 03            |           .    |                      form: "primitive" (0) 0x18b.2-0x18b.3 (0.1)
  0x000018|                                 03            |           .    |                      tag: "bit_string" (0x3) 0x18b.3-0x18c (0.5)
  0x000018|                                    81 81      |            ..  |                      length: 129 0x18c-0x18e (2)
  0x000018|                                          00   |              . |                      unused_bits_count: 0 0x18e-0x18f (1)
  0x000018|                                             67|               g|                      value: raw bits 0x18f-0x20f (128)
  0x000019|43 4c a8 a4 3e eb 1b 32 28 70 8b db eb fe f1 b3|CL..>..2(p......|
  *       |until 0x20e.7 (128)                            |                |
          |                                               |                |        [2]{}: record 0x20f-0x2e1 (210)
  0x000020|                                             16|               .|          type: "handshake" (22) (valid) 0x20f-0x210 (1)
  0x000021|03 03                                          |..              |          version: "tls1.2" (0x303) (valid) 0x210-0x212 (2)
  0x000021|      00 cd                                    |  ..            |          length: 205 0x212-0x214 (2)
          |                                               |                |          message{}: 0x214-0x2e1 (205)
  0x000021|            0c                                 |    .           |            type: "server_key_exchange" (12) 0x214-0x215 (1)
  0x000021|               00 00 c9                        |     ...        |            length: 201 0x215-0x218 (3)
          |                                               |                |            curve_params{}: 0x218-0x218 (0)
  0x000021|                        03                     |        .       |              curve_type: 3 0x218-0x219 (1)
  0x000021|                           00 17               |         ..     |              named_curve: 23 0x219-0x21b (2)
          |                                               |                |            public{}: 0x21b-0x21b (0)
  0x000021|                                 41            |           A    |              length: 65 0x21b-0x21c (1)
  0x000021|                                    04 97 e0 a1|            ....|              data: raw bits 0x21c-0x25d (65)
  0x000022|4e d7 18 a0 e8 17 bf e1 a0 c1 ad 25 65 fd 35 94|N..........%e.5.|
  *       |until 0x25c.7 (65)                             |                |
          |                                               |                |            signature_algorithm{}: 0x25d-0x25d (0)
  0x000025|                                       06      |             .  |              hash: "sha512" (6) 0x25d-0x25e (1)
  0x000025|                                          01   |              . |              signature: "rsa" (1) 0x25e-0x25f (1)
  0x000025|                                             00|               .|              length: 128 0x25f-0x261 (2)
  0x000026|80                                             |.               |
  0x000026|   89 93 8b ae fd 84 b6 1c 95 f8 6d 7e 6b 1d 23| ..........m~k.#|              data: raw bits 0x261-0x2e1 (128)
  0x000027|22 dc 50 47 cf 38 5d a6 e0 42 ea 15 ff 30 2f 52|".PG.8]..B...0/R|
  *       |until 0x2e0.7 (128)                            |                |
          |                                               |                |        [3]{}: record 0x2e1-0x2ea (9)
  0x00002e|   16                                          | .              |          type: "handshake" (22) (valid) 0x2e1-0x2e2 (1)
  0x00002e|      03 03                                    |  ..            |          version: "tls1.2" (0x303) (valid) 0x2e2-0x2e4 (2)
  0x00002e|            00 04                              |    ..          |          length: 4 0x2e4-0x2e6 (2)
          |                                               |                |          message{}: 0x2e6-0x2ea (4)
  0x00002e|                  0e                           |      .         |            type: "server_hello_done" (14) 0x2e6-0x2e7 (1)
  0x00002e|                     00 00 00                  |       ...      |            length: 0 0x2e7-0x2ea (3)
          |                                               |                |            data: raw bits 0x2ea-0x2ea (0)
          |                                               |                |        [4]{}: record 0x2ea-0x399 (175)
  0x00002e|                              16               |          .     |          type: "handshake" (22) (valid) 0x2ea-0x2eb (1)
  0x00002e|                                 03 03         |           ..   |          version: "tls1.2" (0x303) (valid) 0x2eb-0x2ed (2)
  0x00002e|                                       00 aa   |             .. |          length: 170 0x2ed-0x2ef (2)
          |                                               |                |          message{}: 0x2ef-0x399 (170)
  0x00002e|                                             04|               .|            type: "new_session_ticket" (4) 0x2ef-0x2f0 (1)
  0x00002f|00 00 a6                                       |...             |            length: 166 0x2f0-0x2f3 (3)
  0x00002f|         00 00 01 2c                           |   ...,         |            lifetime_hint: 300 0x2f3-0x2f7 (4)
  0x00002f|                     00 a0                     |       ..       |            ticket_length: 160 0x2f7-0x2f9 (2)
  0x00002f|                           c0 b4 67 52 a5 ca da|         ..gR...|            ticket: raw bits 0x2f9-0x399 (160)
  0x000030|99 7a 28 d7 eb e7 a1 7e 31 0d 29 7f 94 e8 66 50|.z(....~1.)...fP|
  *       |until 0x398.7 (160)                            |                |
          |                                               |                |        [5]{}: record 0x399-0x39f (6)
  0x000039|                           14                  |         .      |          type: "change_cipher_spec" (20) (valid) 0x399-0x39a (1)
  0x000039|                              03 03            |          ..    |          version: "tls1.2" (0x303) (valid) 0x39a-0x39c (2)
  0x000039|                                    00 01      |            ..  |          length: 1 0x39c-0x39e (2)
          |                                               |                |          message{}: 0x39e-0x39f (1)
  0x000039|                                          01   |              . |            type: 1 0x39e-0x39f (1)
          |                                               |                |        [6]{}: record 0x39f-0x3dc (61)
  0x000039|                                             16|               .|          type: "handshake" (22) (valid) 0x39f-0x3a0 (1)
  0x00003a|03 03                                          |..              |          version: "tls1.2" (0x303) (valid) 0x3a0-0x3a2 (2)
  0x00003a|      00 38                                    |  .8            |          length: 56 0x3a2-0x3a4 (2)
  0x00003a|            04 c8 4f 39 dd 9a 97 90 0b 5b 9c 2a|    ..O9.....[.*|          encrypted_data: raw bits 0x3a4-0x3dc (56)
  0x00003b|c5 47 1a 24 1c 54 79 0f 77 6f e8 11 43 2f 8e de|.G.$.Ty.wo..C/..|
  *       |until 0x3db.7 (56)                             |                |
          |00 01 02 03 04 05 06 07 08 09 0a 0b 0c 0d 0e 0f|0123456789abcdef|          message{}: 0x0-0x10 (16)
    0x0000|14                                             |.               |            type: "finished" (20) 0x0-0x1 (1)
    0x0000|   00 00 0c                                    | ...            |            length: 12 0x1-0x4 (3)
    0x0000|            37 79 61 4a 11 01 7f 63 89 5a 1e 3b|    7yaJ...c.Z.;|            verify_data: raw bits 0x4-0x10 (12)
          |                                               |                |        [7]{}: record 0x3dc-0x869 (1165)
  0x00003d|                                    17         |            .   |          type: "application_data" (23) (valid) 0x3dc-0x3dd (1)
  0x00003d|                                       03 03   |             .. |          version: "tls1.2" (0x303) (valid) 0x3dd-0x3df (2)
  0x00003d|                                             04|               .|          length: 1160 0x3df-0x3e1 (2)
  0x00003e|88                                             |.               |
  0x00003e|   70 81 24 17 cb 2a 19 18 04 6b 89 13 ae 1f e8| p.$..*...k.....|          encrypted_data: raw bits 0x3e1-0x869 (1160)
  0x00003f|8f b4 be 91 0a 7c 9e 6e 2f 1d f1 eb e9 3a 78 dd|.....|.n/....:x.|
  *       |until 0x868.7 (end) (1160)                     |                |
          |00 01 02 03 04 05 06 07 08 09 0a 0b 0c 0d 0e 0f|0123456789abcdef|
    0x0000|48 54 54 50 2f 31 2e 30 20 32 30 30 20 6f 6b 0d|HTTP/1.0 200 ok.|          message: raw bits 0x0-0x113c (4412)
    *     |until 0x113b.7 (end) (4412)                    |                |
          |00 01 02 03 04 05 06 07 08 09 0a 0b 0c 0d 0e 0f|0123456789abcdef|
    0x0000|48 54 54 50 2f 31 2e 30 20 32 30 30 20 6f 6b 0d|HTTP/1.0 200 ok.|      stream: raw bits 0x0-0x113c (4412)
    *     |until 0x113b.7 (end) (4412)                    |                |
