$ fq -o keylog=@all.keylog ".tcp_connections[0] | dv" TLS_DHE_RSA_WITH_CAMELLIA_128_CBC_SHA.pcap
       |00 01 02 03 04 05 06 07 08 09 0a 0b 0c 0d 0e 0f|0123456789abcdef|.tcp_connections[0]{}: tcp_connection 0xe41-NA (0)
       |                                               |                |  client{}: 0xe41-NA (0)
       |                                               |                |    ip: "127.0.0.1"
       |                                               |                |    port: 39009
       |                                               |                |    has_start: true
       |                                               |                |    has_end: false
       |                                               |                |    skipped_bytes: 0
       |00 01 02 03 04 05 06 07 08 09 0a 0b 0c 0d 0e 0f|0123456789abcdef|    stream{}: (tls) 0x0-0x175.7 (374)
       |                                               |                |      records[0:6]: 0x0-0x175.7 (374)
       |                                               |                |        [0]{}: record 0x0-0x65.7 (102)
  0x000|16                                             |.               |          type: "handshake" (22) (valid) 0x0-0x0.7 (1)
  0x000|   03 01                                       | ..             |          version: "tls1.0" (0x301) (valid) 0x1-0x2.7 (2)
  0x000|         00 61                                 |   .a           |          length: 97 0x3-0x4.7 (2)
       |                                               |                |          message{}: 0x5-0x65.7 (97)
  0x000|               01                              |     .          |            type: "client_hello" (1) 0x5-0x5.7 (1)
  0x000|                  00 00 5d                     |      ..]       |            length: 93 0x6-0x8.7 (3)
  0x000|                           03 03               |         ..     |            version: "tls1.2" (0x303) 0x9-0xa.7 (2)
       |                                               |                |            random{}: 0xb-0x2a.7 (32)
  0x000|                                 52 36 2c 11   |           R6,. |              gmt_unix_time: 1379281937 (2013-09-15T21:52:17Z) 0xb-0xe.7 (4)
  0x000|                                             42|               B|              random_bytes: raw bits 0xf-0x2a.7 (28)
  0x001|a6 d3 1f 25 0f f0 eb e4 49 1f bb cc 36 ca 46 87|...%....I...6.F.|
  0x002|94 f3 57 58 cb a7 d1 70 8e a6 16               |..WX...p...     |
  0x002|                                 00            |           .    |            session_id_length: 0 0x2b-0x2b.7 (1)
       |                                               |                |            session_id: raw bits 0x2c-NA (0)
  0x002|                                    00 04      |            ..  |            cipher_suits_length: 4 0x2c-0x2d.7 (2)
       |                                               |                |            cipher_suits[0:2]: 0x2e-0x31.7 (4)
  0x002|                                          00 45|              .E|              [0]: "TLS_DHE_RSA_WITH_CAMELLIA_128_CBC_SHA" (0x45) cipher_suit 0x2e-0x2f.7 (2)
  0x003|00 ff                                          |..              |              [1]: "TLS_EMPTY_RENEGOTIATION_INFO_SCSV" (0xff) cipher_suit 0x30-0x31.7 (2)
  0x003|      02                                       |  .             |            compression_methods_length: 2 0x32-0x32.7 (1)
       |                                               |                |            compression_methods[0:2]: 0x33-0x34.7 (2)
  0x003|         01                                    |   .            |              [0]: "deflate" (0x1) compression_method 0x33-0x33.7 (1)
  0x003|            00                                 |    .           |              [1]: "null" (0x0) compression_method 0x34-0x34.7 (1)
  0x003|               00 2f                           |     ./         |            extensions_length: 47 0x35-0x36.7 (2)
       |                                               |                |            extensions[0:3]: 0x37-0x65.7 (47)
       |                                               |                |              [0]{}: extension 0x37-0x3a.7 (4)
  0x003|                     00 23                     |       .#       |                type: "session_ticket" (35) 0x37-0x38.7 (2)
  0x003|                           00 00               |         ..     |                length: 0 0x39-0x3a.7 (2)
       |                                               |                |              [1]{}: extension 0x3b-0x60.7 (38)
  0x003|                                 00 0d         |           ..   |                type: "signature_algorithms" (13) 0x3b-0x3c.7 (2)
  0x003|                                       00 22   |             ." |                length: 34 0x3d-0x3e.7 (2)
  0x003|                                             00|               .|                signature_algorithm_length: 32 0x3f-0x40.7 (2)
  0x004|20                                             |                |
       |                                               |                |                signature_algorithms[0:16]: 0x41-0x60.7 (32)
       |                                               |                |                  [0]{}: signature_algorithm 0x41-0x42.7 (2)
  0x004|   06                                          | .              |                    hash: "sha512" (6) 0x41-0x41.7 (1)
  0x004|      01                                       |  .             |                    signature: "rsa" (1) 0x42-0x42.7 (1)
       |                                               |                |                  [1]{}: signature_algorithm 0x43-0x44.7 (2)
  0x004|         06                                    |   .            |                    hash: "sha512" (6) 0x43-0x43.7 (1)
  0x004|            02                                 |    .           |                    signature: "dsa" (2) 0x44-0x44.7 (1)
       |                                               |                |                  [2]{}: signature_algorithm 0x45-0x46.7 (2)
  0x004|               06                              |     .          |                    hash: "sha512" (6) 0x45-0x45.7 (1)
  0x004|                  03                           |      .         |                    signature: "ecdsa" (3) 0x46-0x46.7 (1)
       |                                               |                |                  [3]{}: signature_algorithm 0x47-0x48.7 (2)
  0x004|                     05                        |       .        |                    hash: "sha384" (5) 0x47-0x47.7 (1)
  0x004|                        01                     |        .       |                    signature: "rsa" (1) 0x48-0x48.7 (1)
       |                                               |                |                  [4]{}: signature_algorithm 0x49-0x4a.7 (2)
  0x004|                           05                  |         .      |                    hash: "sha384" (5) 0x49-0x49.7 (1)
  0x004|                              02               |          .     |                    signature: "dsa" (2) 0x4a-0x4a.7 (1)
       |                                               |                |                  [5]{}: signature_algorithm 0x4b-0x4c.7 (2)
  0x004|                                 05            |           .    |                    hash: "sha384" (5) 0x4b-0x4b.7 (1)
  0x004|                                    03         |            .   |                    signature: "ecdsa" (3) 0x4c-0x4c.7 (1)
       |                                               |                |                  [6]{}: signature_algorithm 0x4d-0x4e.7 (2)
  0x004|                                       04      |             .  |                    hash: "sha256" (4) 0x4d-0x4d.7 (1)
  0x004|                                          01   |              . |                    signature: "rsa" (1) 0x4e-0x4e.7 (1)
       |                                               |                |                  [7]{}: signature_algorithm 0x4f-0x50.7 (2)
  0x004|                                             04|               .|                    hash: "sha256" (4) 0x4f-0x4f.7 (1)
  0x005|02                                             |.               |                    signature: "dsa" (2) 0x50-0x50.7 (1)
       |                                               |                |                  [8]{}: signature_algorithm 0x51-0x52.7 (2)
  0x005|   04                                          | .              |                    hash: "sha256" (4) 0x51-0x51.7 (1)
  0x005|      03                                       |  .             |                    signature: "ecdsa" (3) 0x52-0x52.7 (1)
       |                                               |                |                  [9]{}: signature_algorithm 0x53-0x54.7 (2)
  0x005|         03                                    |   .            |                    hash: "sha224" (3) 0x53-0x53.7 (1)
  0x005|            01                                 |    .           |                    signature: "rsa" (1) 0x54-0x54.7 (1)
       |                                               |                |                  [10]{}: signature_algorithm 0x55-0x56.7 (2)
  0x005|               03                              |     .          |                    hash: "sha224" (3) 0x55-0x55.7 (1)
  0x005|                  02                           |      .         |                    signature: "dsa" (2) 0x56-0x56.7 (1)
       |                                               |                |                  [11]{}: signature_algorithm 0x57-0x58.7 (2)
  0x005|                     03                        |       .        |                    hash: "sha224" (3) 0x57-0x57.7 (1)
  0x005|                        03                     |        .       |                    signature: "ecdsa" (3) 0x58-0x58.7 (1)
       |                                               |                |                  [12]{}: signature_algorithm 0x59-0x5a.7 (2)
  0x005|                           02                  |         .      |                    hash: "sha1" (2) 0x59-0x59.7 (1)
  0x005|                              01               |          .     |                    signature: "rsa" (1) 0x5a-0x5a.7 (1)
       |                                               |                |                  [13]{}: signature_algorithm 0x5b-0x5c.7 (2)
  0x005|                                 02            |           .    |                    hash: "sha1" (2) 0x5b-0x5b.7 (1)
  0x005|                                    02         |            .   |                    signature: "dsa" (2) 0x5c-0x5c.7 (1)
       |                                               |                |                  [14]{}: signature_algorithm 0x5d-0x5e.7 (2)
  0x005|                                       02      |             .  |                    hash: "sha1" (2) 0x5d-0x5d.7 (1)
  0x005|                                          03   |              . |                    signature: "ecdsa" (3) 0x5e-0x5e.7 (1)
       |                                               |                |                  [15]{}: signature_algorithm 0x5f-0x60.7 (2)
  0x005|                                             01|               .|                    hash: "md5" (1) 0x5f-0x5f.7 (1)
  0x006|01                                             |.               |                    signature: "rsa" (1) 0x60-0x60.7 (1)
       |                                               |                |              [2]{}: extension 0x61-0x65.7 (5)
  0x006|   00 0f                                       | ..             |                type: "heartbeat" (15) 0x61-0x62.7 (2)
  0x006|         00 01                                 |   ..           |                length: 1 0x63-0x64.7 (2)
  0x006|               01                              |     .          |                data: raw bits 0x65-0x65.7 (1)
       |                                               |                |        [1]{}: record 0x66-0xb0.7 (75)
  0x006|                  16                           |      .         |          type: "handshake" (22) (valid) 0x66-0x66.7 (1)
  0x006|                     03 03                     |       ..       |          version: "tls1.2" (0x303) (valid) 0x67-0x68.7 (2)
  0x006|                           00 46               |         .F     |          length: 70 0x69-0x6a.7 (2)
       |                                               |                |          message{}: 0x6b-0xb0.7 (70)
  0x006|                                 10            |           .    |            type: "client_key_exchange" (16) 0x6b-0x6b.7 (1)
  0x006|                                    00 00 42   |            ..B |            length: 66 0x6c-0x6e.7 (3)
       |                                               |                |            public{}: 0x6f-NA (0)
  0x006|                                             00|               .|              length: 64 0x6f-0x70.7 (2)
  0x007|40                                             |@               |
  0x007|   78 cf 14 5e a5 97 a7 28 c5 2d ab d3 82 b4 86| x..^...(.-.....|              data: raw bits 0x71-0xb0.7 (64)
  0x008|0d 1c 4f 9f 14 18 b2 6b 51 aa a5 d5 38 dd 4a 89|..O....kQ...8.J.|
  *    |until 0xb0.7 (64)                              |                |
       |                                               |                |        [2]{}: record 0xb1-0xb6.7 (6)
  0x00b|   14                                          | .              |          type: "change_cipher_spec" (20) (valid) 0xb1-0xb1.7 (1)
  0x00b|      03 03                                    |  ..            |          version: "tls1.2" (0x303) (valid) 0xb2-0xb3.7 (2)
  0x00b|            00 01                              |    ..          |          length: 1 0xb4-0xb5.7 (2)
       |                                               |                |          message{}: 0xb6-0xb6.7 (1)
  0x00b|                  01                           |      .         |            type: 1 0xb6-0xb6.7 (1)
       |                                               |                |        [3]{}: record 0xb7-0xfb.7 (69)
  0x00b|                     16                        |       .        |          type: "handshake" (22) (valid) 0xb7-0xb7.7 (1)
  0x00b|                        03 03                  |        ..      |          version: "tls1.2" (0x303) (valid) 0xb8-0xb9.7 (2)
  0x00b|                              00 40            |          .@    |          length: 64 0xba-0xbb.7 (2)
  0x00b|                                    86 b5 52 fa|            ..R.|          encrypted_data: raw bits 0xbc-0xfb.7 (64)
  0x00c|2c f1 ac c7 7a 95 e7 6f 39 8e 53 07 44 c7 7b e6|,...z..o9.S.D.{.|
  *    |until 0xfb.7 (64)                              |                |
       |                                               |                |        [4]{}: record 0xfc-0x140.7 (69)
  0x00f|                                    17         |            .   |          type: "application_data" (23) (valid) 0xfc-0xfc.7 (1)
  0x00f|                                       03 03   |             .. |          version: "tls1.2" (0x303) (valid) 0xfd-0xfe.7 (2)
  0x00f|                                             00|               .|          length: 64 0xff-0x100.7 (2)
  0x010|40                                             |@               |
  0x010|   77 3c 83 82 fc 5c a0 06 c6 ed 94 a0 c8 4f c9| w<...\.......O.|          encrypted_data: raw bits 0x101-0x140.7 (64)
  0x011|63 52 dc 71 bc 5e b5 cc 21 7e 4f c5 35 68 95 c8|cR.q.^..!~O.5h..|
  *    |until 0x140.7 (64)                             |                |
       |                                               |                |        [5]{}: record 0x141-0x175.7 (53)
  0x014|   15                                          | .              |          type: "alert" (21) (valid) 0x141-0x141.7 (1)
  0x014|      03 03                                    |  ..            |          version: "tls1.2" (0x303) (valid) 0x142-0x143.7 (2)
  0x014|            00 30                              |    .0          |          length: 48 0x144-0x145.7 (2)
  0x014|                  bb 18 8d 5e 5a 69 19 be 38 a4|      ...^Zi..8.|          encrypted_data: raw bits 0x146-0x175.7 (48)
  0x015|db 14 fd ec 9c 4e 0e 7d f6 0d 4f 19 2f f9 02 1a|.....N.}..O./...|
  *    |until 0x175.7 (end) (48)                       |                |
       |                                               |                |  server{}: 0xe41-NA (0)
       |                                               |                |    ip: "127.0.0.1"
       |                                               |                |    port: 4430
       |                                               |                |    has_start: true
       |                                               |                |    has_end: true
       |                                               |                |    skipped_bytes: 0
       |00 01 02 03 04 05 06 07 08 09 0a 0b 0c 0d 0e 0f|0123456789abcdef|    stream{}: (tls) 0x0-0x8b2.7 (2227)
       |                                               |                |      records[0:8]: 0x0-0x8b2.7 (2227)
       |                                               |                |        [0]{}: record 0x0-0x3e.7 (63)
  0x000|16                                             |.               |          type: "handshake" (22) (valid) 0x0-0x0.7 (1)
  0x000|   03 03                                       | ..             |          version: "tls1.2" (0x303) (valid) 0x1-0x2.7 (2)
  0x000|         00 3a                                 |   .:           |          length: 58 0x3-0x4.7 (2)
       |                                               |                |          message{}: 0x5-0x3e.7 (58)
  0x000|               02                              |     .          |            type: "server_hello" (2) 0x5-0x5.7 (1)
  0x000|                  00 00 36                     |      ..6       |            length: 54 0x6-0x8.7 (3)
  0x000|                           03 03               |         ..     |            version: "tls1.2" (0x303) 0x9-0xa.7 (2)
       |                                               |                |            random{}: 0xb-0x2a.7 (32)
  0x000|                                 52 36 2c 11   |           R6,. |              gmt_unix_time: 1379281937 (2013-09-15T21:52:17Z) 0xb-0xe.7 (4)
  0x000|                                             9d|               .|              random_bytes: raw bits 0xf-0x2a.7 (28)
  0x001|3e 05 5c 14 3e fc b4 4f cf ba 69 56 85 04 44 65|>.\.>..O..iV..De|
  0x002|c0 70 5a 6b 71 a8 6c 75 7b 84 2a               |.pZkq.lu{.*     |
  0x002|                                 00            |           .    |            session_id_length: 0 0x2b-0x2b.7 (1)
       |                                               |                |            session_id: raw bits 0x2c-NA (0)
  0x002|                                    00 45      |            .E  |            cipher_suit: "TLS_DHE_RSA_WITH_CAMELLIA_128_CBC_SHA" (0x45) 0x2c-0x2d.7 (2)
  0x002|                                          01   |              . |            compression_method: "deflate" (0x1) 0x2e-0x2e.7 (1)
  0x002|                                             00|               .|            extensions_length: 14 0x2f-0x30.7 (2)
  0x003|0e                                             |.               |
       |                                               |                |            extensions[0:3]: 0x31-0x3e.7 (14)
       |                                               |                |              [0]{}: extension 0x31-0x35.7 (5)
  0x003|   ff 01                                       | ..             |                type: "renegotiation_info" (65281) 0x31-0x32.7 (2)
  0x003|         00 01                                 |   ..           |                length: 1 0x33-0x34.7 (2)
  0x003|               00                              |     .          |                data: raw bits 0x35-0x35.7 (1)
       |                                               |                |              [1]{}: extension 0x36-0x39.7 (4)
  0x003|                  00 23                        |      .#        |                type: "session_ticket" (35) 0x36-0x37.7 (2)
  0x003|                        00 00                  |        ..      |                length: 0 0x38-0x39.7 (2)
       |                                               |                |              [2]{}: extension 0x3a-0x3e.7 (5)
  0x003|                              00 0f            |          ..    |                type: "heartbeat" (15) 0x3a-0x3b.7 (2)
  0x003|                                    00 01      |            ..  |                length: 1 0x3c-0x3d.7 (2)
  0x003|                                          01   |              . |                data: raw bits 0x3e-0x3e.7 (1)
       |                                               |                |        [1]{}: record 0x3f-0x206.7 (456)
  0x003|                                             16|               .|          type: "handshake" (22) (valid) 0x3f-0x3f.7 (1)
  0x004|03 03                                          |..              |          version: "tls1.2" (0x303) (valid) 0x40-0x41.7 (2)
  0x004|      01 c3                                    |  ..            |          length: 451 0x42-0x43.7 (2)
       |                                               |                |          message{}: 0x44-0x206.7 (451)
  0x004|            0b                                 |    .           |            type: "certificate" (11) 0x44-0x44.7 (1)
  0x004|               00 01 bf                        |     ...        |            length: 447 0x45-0x47.7 (3)
  0x004|                        00 01 bc               |        ...     |            certificates_length: 444 0x48-0x4a.7 (3)
       |                                               |                |            certificates[0:1]: 0x4b-0x206.7 (444)
       |                                               |                |              [0]{}: certificate 0x4b-0x206.7 (444)
  0x004|                                 00 01 b9      |           ...  |                length: 441 0x4b-0x4d.7 (3)
       |00 01 02 03 04 05 06 07 08 09 0a 0b 0c 0d 0e 0f|0123456789abcdef|                data{}: (asn1_ber) 0x4e-0x206.7 (441)
  0x004|                                          30   |              0 |                  class: "universal" (0) 0x4e-0x4e.1 (0.2)
  0x004|                                          30   |              0 |                  form: "constructed" (1) 0x4e.2-0x4e.2 (0.1)
  0x004|                                          30   |              0 |                  tag: "sequence" (0x10) 0x4e.3-0x4e.7 (0.5)
  0x004|                                             82|               .|                  length: 437 0x4f-0x51.7 (3)
  0x005|01 b5                                          |..              |
       |                                               |                |                  constructed[0:3]: 0x52-0x206.7 (437)
       |                                               |                |                    [0]{}: object 0x52-0x173.7 (290)
  0x005|      30                                       |  0             |                      class: "universal" (0) 0x52-0x52.1 (0.2)
  0x005|      30                                       |  0             |                      form: "constructed" (1) 0x52.2-0x52.2 (0.1)
  0x005|      30                                       |  0             |                      tag: "sequence" (0x10) 0x52.3-0x52.7 (0.5)
  0x005|         82 01 1e                              |   ...          |                      length: 286 0x53-0x55.7 (3)
       |                                               |                |                      constructed[0:6]: 0x56-0x173.7 (286)
       |                                               |                |                        [0]{}: object 0x56-0x60.7 (11)
  0x005|                  02                           |      .         |                          class: "universal" (0) 0x56-0x56.1 (0.2)
  0x005|                  02                           |      .         |                          form: "primitive" (0) 0x56.2-0x56.2 (0.1)
  0x005|                  02                           |      .         |                          tag: "integer" (0x2) 0x56.3-0x56.7 (0.5)
  0x005|                     09                        |       .        |                          length: 9 0x57-0x57.7 (1)
  0x005|                        00 f4 a7 2f d3 e8 fc 37|        .../...7|                          value: 17629111853558544324 0x58-0x60.7 (9)
  0x006|c4                                             |.               |
       |                                               |                |                        [1]{}: object 0x61-0x6f.7 (15)
  0x006|   30                                          | 0              |                          class: "universal" (0) 0x61-0x61.1 (0.2)
  0x006|   30                                          | 0              |                          form: "constructed" (1) 0x61.2-0x61.2 (0.1)
  0x006|   30                                          | 0              |                          tag: "sequence" (0x10) 0x61.3-0x61.7 (0.5)
  0x006|      0d                                       |  .             |                          length: 13 0x62-0x62.7 (1)
       |                                               |                |                          constructed[0:2]: 0x63-0x6f.7 (13)
       |                                               |                |                            [0]{}: object 0x63-0x6d.7 (11)
  0x006|         06                                    |   .            |                              class: "universal" (0) 0x63-0x63.1 (0.2)
  0x006|         06                                    |   .            |                              form: "primitive" (0) 0x63.2-0x63.2 (0.1)
  0x006|         06                                    |   .            |                              tag: "object_identifier" (0x6) 0x63.3-0x63.7 (0.5)
  0x006|            09                                 |    .           |                              length: 9 0x64-0x64.7 (1)
       |                                               |                |                              value[0:7]: 0x65-0x6d.7 (9)
  0x006|               2a                              |     *          |                                [0]: 1 oid 0x65-0x65.7 (1)
  0x006|               2a                              |     *          |                                [1]: 2 oid 0x65-0x65.7 (1)
  0x006|                  86 48                        |      .H        |                                [2]: 840 oid 0x66-0x67.7 (2)
  0x006|                        86 f7 0d               |        ...     |                                [3]: 113549 oid 0x68-0x6a.7 (3)
  0x006|                                 01            |           .    |                                [4]: 1 oid 0x6b-0x6b.7 (1)
  0x006|                                    01         |            .   |                                [5]: 1 oid 0x6c-0x6c.7 (1)
  0x006|                                       05      |             .  |                                [6]: 5 oid 0x6d-0x6d.7 (1)
       |                                               |                |                            [1]{}: object 0x6e-0x6f.7 (2)
  0x006|                                          05   |              . |                              class: "universal" (0) 0x6e-0x6e.1 (0.2)
  0x006|                                          05   |              . |                              form: "primitive" (0) 0x6e.2-0x6e.2 (0.1)
  0x006|                                          05   |              . |                              tag: "null" (0x5) 0x6e.3-0x6e.7 (0.5)
  0x006|                                             00|               .|                              length: "indefinite" (0) 0x6f-0x6f.7 (1)
       |                                               |                |                              value: null
       |                                               |                |                        [2]{}: object 0x70-0x90.7 (33)
  0x007|30                                             |0               |                          class: "universal" (0) 0x70-0x70.1 (0.2)
  0x007|30                                             |0               |                          form: "constructed" (1) 0x70.2-0x70.2 (0.1)
  0x007|30                                             |0               |                          tag: "sequence" (0x10) 0x70.3-0x70.7 (0.5)
  0x007|   1f                                          | .              |                          length: 31 0x71-0x71.7 (1)
       |                                               |                |                          constructed[0:1]: 0x72-0x90.7 (31)
       |                                               |                |                            [0]{}: object 0x72-0x90.7 (31)
  0x007|      31                                       |  1             |                              class: "universal" (0) 0x72-0x72.1 (0.2)
  0x007|      31                                       |  1             |                              form: "constructed" (1) 0x72.2-0x72.2 (0.1)
  0x007|      31                                       |  1             |                              tag: "set" (0x11) 0x72.3-0x72.7 (0.5)
  0x007|         1d                                    |   .            |                              length: 29 0x73-0x73.7 (1)
       |                                               |                |                              constructed[0:1]: 0x74-0x90.7 (29)
       |                                               |                |                                [0]{}: object 0x74-0x90.7 (29)
  0x007|            30                                 |    0           |                                  class: "universal" (0) 0x74-0x74.1 (0.2)
  0x007|            30                                 |    0           |                                  form: "constructed" (1) 0x74.2-0x74.2 (0.1)
  0x007|            30                                 |    0           |                                  tag: "sequence" (0x10) 0x74.3-0x74.7 (0.5)
  0x007|               1b                              |     .          |                                  length: 27 0x75-0x75.7 (1)
       |                                               |                |                                  constructed[0:2]: 0x76-0x90.7 (27)
       |                                               |                |                                    [0]{}: object 0x76-0x7a.7 (5)
  0x007|                  06                           |      .         |                                      class: "universal" (0) 0x76-0x76.1 (0.2)
  0x007|                  06                           |      .         |                                      form: "primitive" (0) 0x76.2-0x76.2 (0.1)
  0x007|                  06                           |      .         |                                      tag: "object_identifier" (0x6) 0x76.3-0x76.7 (0.5)
  0x007|                     03                        |       .        |                                      length: 3 0x77-0x77.7 (1)
       |                                               |                |                                      value[0:4]: 0x78-0x7a.7 (3)
  0x007|                        55                     |        U       |                                        [0]: 2 oid 0x78-0x78.7 (1)
  0x007|                        55                     |        U       |                                        [1]: 5 oid 0x78-0x78.7 (1)
  0x007|                           04                  |         .      |                                        [2]: 4 oid 0x79-0x79.7 (1)
  0x007|                              03               |          .     |                                        [3]: 3 oid 0x7a-0x7a.7 (1)
       |                                               |                |                                    [1]{}: object 0x7b-0x90.7 (22)
  0x007|                                 0c            |           .    |                                      class: "universal" (0) 0x7b-0x7b.1 (0.2)
  0x007|                                 0c            |           .    |                                      form: "primitive" (0) 0x7b.2-0x7b.2 (0.1)
  0x007|                                 0c            |           .    |                                      tag: "utf8_string" (0xc) 0x7b.3-0x7b.7 (0.5)
  0x007|                                    14         |            .   |                                      length: 20 0x7c-0x7c.7 (1)
  0x007|                                       54 65 73|             Tes|                                      value: "Test Certificate RSA" 0x7d-0x90.7 (20)
  0x008|74 20 43 65 72 74 69 66 69 63 61 74 65 20 52 53|t Certificate RS|
  0x009|41                                             |A               |
       |                                               |                |                        [3]{}: object 0x91-0xb0.7 (32)
  0x009|   30                                          | 0              |                          class: "universal" (0) 0x91-0x91.1 (0.2)
  0x009|   30                                          | 0              |                          form: "constructed" (1) 0x91.2-0x91.2 (0.1)
  0x009|   30                                          | 0              |                          tag: "sequence" (0x10) 0x91.3-0x91.7 (0.5)
  0x009|      1e                                       |  .             |                          length: 30 0x92-0x92.7 (1)
       |                                               |                |                          constructed[0:2]: 0x93-0xb0.7 (30)
       |                                               |                |                            [0]{}: object 0x93-0xa1.7 (15)
  0x009|         17                                    |   .            |                              class: "universal" (0) 0x93-0x93.1 (0.2)
  0x009|         17                                    |   .            |                              form: "primitive" (0) 0x93.2-0x93.2 (0.1)
  0x009|         17                                    |   .            |                              tag: "utc_time" (0x17) 0x93.3-0x93.7 (0.5)
  0x009|            0d                                 |    .           |                              length: 13 0x94-0x94.7 (1)
  0x009|               31 33 30 39 31 35 32 31 35 31 31|     13091521511|                              value: "130915215110Z" 0x95-0xa1.7 (13)
  0x00a|30 5a                                          |0Z              |
       |                                               |                |                            [1]{}: object 0xa2-0xb0.7 (15)
  0x00a|      17                                       |  .             |                              class: "universal" (0) 0xa2-0xa2.1 (0.2)
  0x00a|      17                                       |  .             |                              form: "primitive" (0) 0xa2.2-0xa2.2 (0.1)
  0x00a|      17                                       |  .             |                              tag: "utc_time" (0x17) 0xa2.3-0xa2.7 (0.5)
  0x00a|         0d                                    |   .            |                              length: 13 0xa3-0xa3.7 (1)
  0x00a|            32 33 30 39 31 33 32 31 35 31 31 30|    230913215110|                              value: "230913215110Z" 0xa4-0xb0.7 (13)
  0x00b|5a                                             |Z               |
       |                                               |                |                        [4]{}: object 0xb1-0xd1.7 (33)
  0x00b|   30                                          | 0              |                          class: "universal" (0) 0xb1-0xb1.1 (0.2)
  0x00b|   30                                          | 0              |                          form: "constructed" (1) 0xb1.2-0xb1.2 (0.1)
  0x00b|   30                                          | 0              |                          tag: "sequence" (0x10) 0xb1.3-0xb1.7 (0.5)
  0x00b|      1f                                       |  .             |                          length: 31 0xb2-0xb2.7 (1)
       |                                               |                |                          constructed[0:1]: 0xb3-0xd1.7 (31)
       |                                               |                |                            [0]{}: object 0xb3-0xd1.7 (31)
  0x00b|         31                                    |   1            |                              class: "universal" (0) 0xb3-0xb3.1 (0.2)
  0x00b|         31                                    |   1            |                              form: "constructed" (1) 0xb3.2-0xb3.2 (0.1)
  0x00b|         31                                    |   1            |                              tag: "set" (0x11) 0xb3.3-0xb3.7 (0.5)
  0x00b|            1d                                 |    .           |                              length: 29 0xb4-0xb4.7 (1)
       |                                               |                |                              constructed[0:1]: 0xb5-0xd1.7 (29)
       |                                               |                |                                [0]{}: object 0xb5-0xd1.7 (29)
  0x00b|               30                              |     0          |                                  class: "universal" (0) 0xb5-0xb5.1 (0.2)
  0x00b|               30                              |     0          |                                  form: "constructed" (1) 0xb5.2-0xb5.2 (0.1)
  0x00b|               30                              |     0          |                                  tag: "sequence" (0x10) 0xb5.3-0xb5.7 (0.5)
  0x00b|                  1b                           |      .         |                                  length: 27 0xb6-0xb6.7 (1)
       |                                               |                |                                  constructed[0:2]: 0xb7-0xd1.7 (27)
       |                                               |                |                                    [0]{}: object 0xb7-0xbb.7 (5)
  0x00b|                     06                        |       .        |                                      class: "universal" (0) 0xb7-0xb7.1 (0.2)
  0x00b|                     06                        |       .        |                                      form: "primitive" (0) 0xb7.2-0xb7.2 (0.1)
  0x00b|                     06                        |       .        |                                      tag: "object_identifier" (0x6) 0xb7.3-0xb7.7 (0.5)
  0x00b|                        03                     |        .       |                                      length: 3 0xb8-0xb8.7 (1)
       |                                               |                |                                      value[0:4]: 0xb9-0xbb.7 (3)
  0x00b|                           55                  |         U      |                                        [0]: 2 oid 0xb9-0xb9.7 (1)
  0x00b|                           55                  |         U      |                                        [1]: 5 oid 0xb9-0xb9.7 (1)
  0x00b|                              04               |          .     |                                        [2]: 4 oid 0xba-0xba.7 (1)
  0x00b|                                 03            |           .    |                                        [3]: 3 oid 0xbb-0xbb.7 (1)
       |                                               |                |                                    [1]{}: object 0xbc-0xd1.7 (22)
  0x00b|                                    0c         |            .   |                                      class: "universal" (0) 0xbc-0xbc.1 (0.2)
  0x00b|                                    0c         |            .   |                                      form: "primitive" (0) 0xbc.2-0xbc.2 (0.1)
  0x00b|                                    0c         |            .   |                                      tag: "utf8_string" (0xc) 0xbc.3-0xbc.7 (0.5)
  0x00b|                                       14      |             .  |                                      length: 20 0xbd-0xbd.7 (1)
  0x00b|                                          54 65|              Te|                                      value: "Test Certificate RSA" 0xbe-0xd1.7 (20)
  0x00c|73 74 20 43 65 72 74 69 66 69 63 61 74 65 20 52|st Certificate R|
  0x00d|53 41                                          |SA              |
       |                                               |                |                        [5]{}: object 0xd2-0x173.7 (162)
  0x00d|      30                                       |  0             |                          class: "universal" (0) 0xd2-0xd2.1 (0.2)
  0x00d|      30                                       |  0             |                          form: "constructed" (1) 0xd2.2-0xd2.2 (0.1)
  0x00d|      30                                       |  0             |                          tag: "sequence" (0x10) 0xd2.3-0xd2.7 (0.5)
  0x00d|         81 9f                                 |   ..           |                          length: 159 0xd3-0xd4.7 (2)
       |                                               |                |                          constructed[0:2]: 0xd5-0x173.7 (159)
       |                                               |                |                            [0]{}: object 0xd5-0xe3.7 (15)
  0x00d|               30                              |     0          |                              class: "universal" (0) 0xd5-0xd5.1 (0.2)
  0x00d|               30                              |     0          |                              form: "constructed" (1) 0xd5.2-0xd5.2 (0.1)
  0x00d|               30                              |     0          |                              tag: "sequence" (0x10) 0xd5.3-0xd5.7 (0.5)
  0x00d|                  0d                           |      .         |                              length: 13 0xd6-0xd6.7 (1)
       |                                               |                |                              constructed[0:2]: 0xd7-0xe3.7 (13)
       |                                               |                |                                [0]{}: object 0xd7-0xe1.7 (11)
  0x00d|                     06                        |       .        |                                  class: "universal" (0) 0xd7-0xd7.1 (0.2)
  0x00d|                     06                        |       .        |                                  form: "primitive" (0) 0xd7.2-0xd7.2 (0.1)
  0x00d|                     06                        |       .        |                                  tag: "object_identifier" (0x6) 0xd7.3-0xd7.7 (0.5)
  0x00d|                        09                     |        .       |                                  length: 9 0xd8-0xd8.7 (1)
       |                                               |                |                                  value[0:7]: 0xd9-0xe1.7 (9)
  0x00d|                           2a                  |         *      |                                    [0]: 1 oid 0xd9-0xd9.7 (1)
  0x00d|                           2a                  |         *      |                                    [1]: 2 oid 0xd9-0xd9.7 (1)
  0x00d|                              86 48            |          .H    |                                    [2]: 840 oid 0xda-0xdb.7 (2)
  0x00d|                                    86 f7 0d   |            ... |                                    [3]: 113549 oid 0xdc-0xde.7 (3)
  0x00d|                                             01|               .|                                    [4]: 1 oid 0xdf-0xdf.7 (1)
  0x00e|01                                             |.               |                                    [5]: 1 oid 0xe0-0xe0.7 (1)
  0x00e|   01                                          | .              |                                    [6]: 1 oid 0xe1-0xe1.7 (1)
       |                                               |                |                                [1]{}: object 0xe2-0xe3.7 (2)
  0x00e|      05                                       |  .             |                                  class: "universal" (0) 0xe2-0xe2.1 (0.2)
  0x00e|      05                                       |  .             |                                  form: "primitive" (0) 0xe2.2-0xe2.2 (0.1)
  0x00e|      05                                       |  .             |                                  tag: "null" (0x5) 0xe2.3-0xe2.7 (0.5)
  0x00e|         00                                    |   .            |                                  length: "indefinite" (0) 0xe3-0xe3.7 (1)
       |                                               |                |                                  value: null
       |                                               |                |                            [1]{}: object 0xe4-0x173.7 (144)
  0x00e|            03                                 |    .           |                              class: "universal" (0) 0xe4-0xe4.1 (0.2)
  0x00e|            03                                 |    .           |                              form: "primitive" (0) 0xe4.2-0xe4.2 (0.1)
  0x00e|            03                                 |    .           |                              tag: "bit_string" (0x3) 0xe4.3-0xe4.7 (0.5)
  0x00e|               81 8d                           |     ..         |                              length: 141 0xe5-0xe6.7 (2)
  0x00e|                     00                        |       .        |                              unused_bits_count: 0 0xe7-0xe7.7 (1)
  0x00e|                        30 81 89 02 81 81 00 ac|        0.......|                              value: raw bits 0xe8-0x173.7 (140)
  0x00f|35 2a 93 7f c5 4f 18 98 b2 9f a0 fb 34 e6 e2 8b|5*...O......4...|
  *    |until 0x173.7 (140)                            |                |
       |                                               |                |                    [1]{}: object 0x174-0x182.7 (15)
  0x017|            30                                 |    0           |                      class: "universal" (0) 0x174-0x174.1 (0.2)
  0x017|            30                                 |    0           |                      form: "constructed" (1) 0x174.2-0x174.2 (0.1)
  0x017|            30                                 |    0           |                      tag: "sequence" (0x10) 0x174.3-0x174.7 (0.5)
  0x017|               0d                              |     .          |                      length: 13 0x175-0x175.7 (1)
       |                                               |                |                      constructed[0:2]: 0x176-0x182.7 (13)
       |                                               |                |                        [0]{}: object 0x176-0x180.7 (11)
  0x017|                  06                           |      .         |                          class: "universal" (0) 0x176-0x176.1 (0.2)
  0x017|                  06                           |      .         |                          form: "primitive" (0) 0x176.2-0x176.2 (0.1)
  0x017|                  06                           |      .         |                          tag: "object_identifier" (0x6) 0x176.3-0x176.7 (0.5)
  0x017|                     09                        |       .        |                          length: 9 0x177-0x177.7 (1)
       |                                               |                |                          value[0:7]: 0x178-0x180.7 (9)
  0x017|                        2a                     |        *       |                            [0]: 1 oid 0x178-0x178.7 (1)
  0x017|                        2a                     |        *       |                            [1]: 2 oid 0x178-0x178.7 (1)
  0x017|                           86 48               |         .H     |                            [2]: 840 oid 0x179-0x17a.7 (2)
  0x017|                                 86 f7 0d      |           ...  |                            [3]: 113549 oid 0x17b-0x17d.7 (3)
  0x017|                                          01   |              . |                            [4]: 1 oid 0x17e-0x17e.7 (1)
  0x017|                                             01|               .|                            [5]: 1 oid 0x17f-0x17f.7 (1)
  0x018|05                                             |.               |                            [6]: 5 oid 0x180-0x180.7 (1)
       |                                               |                |                        [1]{}: object 0x181-0x182.7 (2)
  0x018|   05                                          | .              |                          class: "universal" (0) 0x181-0x181.1 (0.2)
  0x018|   05                                          | .              |                          form: "primitive" (0) 0x181.2-0x181.2 (0.1)
  0x018|   05                                          | .              |                          tag: "null" (0x5) 0x181.3-0x181.7 (0.5)
  0x018|      00                                       |  .             |                          length: "indefinite" (0) 0x182-0x182.7 (1)
       |                                               |                |                          value: null
       |                                               |                |                    [2]{}: object 0x183-0x206.7 (132)
  0x018|         03                                    |   .            |                      class: "universal" (0) 0x183-0x183.1 (0.2)
  0x018|         03                                    |   .            |                      form: "primitive" (0) 0x183.2-0x183.2 (0.1)
  0x018|         03                                    |   .            |                      tag: "bit_string" (0x3) 0x183.3-0x183.7 (0.5)
  0x018|            81 81                              |    ..          |                      length: 129 0x184-0x185.7 (2)
  0x018|                  00                           |      .         |                      unused_bits_count: 0 0x186-0x186.7 (1)
  0x018|                     67 43 4c a8 a4 3e eb 1b 32|       gCL..>..2|                      value: raw bits 0x187-0x206.7 (128)
  0x019|28 70 8b db eb fe f1 b3 70 39 95 34 33 26 ef 54|(p......p9.43&.T|
  *    |until 0x206.7 (128)                            |                |
       |                                               |                |        [2]{}: record 0x207-0x31a.7 (276)
  0x020|                     16                        |       .        |          type: "handshake" (22) (valid) 0x207-0x207.7 (1)
  0x020|                        03 03                  |        ..      |          version: "tls1.2" (0x303) (valid) 0x208-0x209.7 (2)
  0x020|                              01 0f            |          ..    |          length: 271 0x20a-0x20b.7 (2)
       |                                               |                |          message{}: 0x20c-0x31a.7 (271)
  0x020|                                    0c         |            .   |            type: "server_key_exchange" (12) 0x20c-0x20c.7 (1)
  0x020|                                       00 01 0b|             ...|            length: 267 0x20d-0x20f.7 (3)
  0x021|00 40 da 58 3c 16 d9 85 22 89 d0 e4 af 75 6f 4c|.@.X<..."....uoL|            data: raw bits 0x210-0x31a.7 (267)
  *    |until 0x31a.7 (267)                            |                |
       |                                               |                |        [3]{}: record 0x31b-0x323.7 (9)
  0x031|                                 16            |           .    |          type: "handshake" (22) (valid) 0x31b-0x31b.7 (1)
  0x031|                                    03 03      |            ..  |          version: "tls1.2" (0x303) (valid) 0x31c-0x31d.7 (2)
  0x031|                                          00 04|              ..|          length: 4 0x31e-0x31f.7 (2)
       |                                               |                |          message{}: 0x320-0x323.7 (4)
  0x032|0e                                             |.               |            type: "server_hello_done" (14) 0x320-0x320.7 (1)
  0x032|   00 00 00                                    | ...            |            length: 0 0x321-0x323.7 (3)
       |                                               |                |            data: raw bits 0x324-NA (0)
       |                                               |                |        [4]{}: record 0x324-0x3d2.7 (175)
  0x032|            16                                 |    .           |          type: "handshake" (22) (valid) 0x324-0x324.7 (1)
  0x032|               03 03                           |     ..         |          version: "tls1.2" (0x303) (valid) 0x325-0x326.7 (2)
  0x032|                     00 aa                     |       ..       |          length: 170 0x327-0x328.7 (2)
       |                                               |                |          message{}: 0x329-0x3d2.7 (170)
  0x032|                           04                  |         .      |            type: "new_session_ticket" (4) 0x329-0x329.7 (1)
  0x032|                              00 00 a6         |          ...   |            length: 166 0x32a-0x32c.7 (3)
  0x032|                                       00 00 01|             ...|            lifetime_hint: 300 0x32d-0x330.7 (4)
  0x033|2c                                             |,               |
  0x033|   00 a0                                       | ..             |            ticket_length: 160 0x331-0x332.7 (2)
  0x033|         c0 b4 67 52 a5 ca da 99 7a 28 d7 eb e7|   ..gR....z(...|            ticket: raw bits 0x333-0x3d2.7 (160)
  0x034|a1 7e 31 ba a9 0c a6 98 21 24 ae 66 fe 5c c6 89|.~1.....!$.f.\..|
  *    |until 0x3d2.7 (160)                            |                |
       |                                               |                |        [5]{}: record 0x3d3-0x3d8.7 (6)
  0x03d|         14                                    |   .            |          type: "change_cipher_spec" (20) (valid) 0x3d3-0x3d3.7 (1)
  0x03d|            03 03                              |    ..          |          version: "tls1.2" (0x303) (valid) 0x3d4-0x3d5.7 (2)
  0x03d|                  00 01                        |      ..        |          length: 1 0x3d6-0x3d7.7 (2)
       |                                               |                |          message{}: 0x3d8-0x3d8.7 (1)
  0x03d|                        01                     |        .       |            type: 1 0x3d8-0x3d8.7 (1)
       |                                               |                |        [6]{}: record 0x3d9-0x41d.7 (69)
  0x03d|                           16                  |         .      |          type: "handshake" (22) (valid) 0x3d9-0x3d9.7 (1)
  0x03d|                              03 03            |          ..    |          version: "tls1.2" (0x303) (valid) 0x3da-0x3db.7 (2)
  0x03d|                                    00 40      |            .@  |          length: 64 0x3dc-0x3dd.7 (2)
  0x03d|                                          96 60|              .`|          encrypted_data: raw bits 0x3de-0x41d.7 (64)
  0x03e|9d fe 28 02 b2 fd bd 3f 7e e2 64 7d 71 34 87 7a|..(....?~.d}q4.z|
  *    |until 0x41d.7 (64)                             |                |
       |                                               |                |        [7]{}: record 0x41e-0x8b2.7 (1173)
  0x041|                                          17   |              . |          type: "application_data" (23) (valid) 0x41e-0x41e.7 (1)
  0x041|                                             03|               .|          version: "tls1.2" (0x303) (valid) 0x41f-0x420.7 (2)
  0x042|03                                             |.               |
  0x042|   04 90                                       | ..             |          length: 1168 0x421-0x422.7 (2)
  0x042|         ba d8 c1 9f 69 35 73 d1 60 37 59 91 28|   ....i5s.`7Y.(|          encrypted_data: raw bits 0x423-0x8b2.7 (1168)
  0x043|7c 82 c6 8f 45 84 80 a6 a1 2d d3 b8 9e 5c a1 72||...E....-...\.r|
  *    |until 0x8b2.7 (end) (1168)                     |                |
