$ fq -o keylog=@all.keylog ".tcp_connections[0] | dv" TLS_ECDHE_RSA_WITH_3DES_EDE_CBC_SHA.pcap
          |00 01 02 03 04 05 06 07 08 09 0a 0b 0c 0d 0e 0f|0123456789abcdef|.tcp_connections[0]{}: tcp_connection 0xe1f-NA (0)
          |                                               |                |  client{}: 0xe1f-NA (0)
          |                                               |                |    ip: "127.0.0.1"
          |                                               |                |    port: 38988
          |                                               |                |    has_start: true
          |                                               |                |    has_end: false
          |                                               |                |    skipped_bytes: 0
          |00 01 02 03 04 05 06 07 08 09 0a 0b 0c 0d 0e 0f|0123456789abcdef|    stream{}: (tls) 0x0-0x19d.7 (414)
          |                                               |                |      records[0:6]: 0x0-0x19d.7 (414)
          |                                               |                |        [0]{}: record 0x0-0xa5.7 (166)
  0x000000|16                                             |.               |          type: "handshake" (22) (valid) 0x0-0x0.7 (1)
  0x000000|   03 01                                       | ..             |          version: "tls1.0" (0x301) (valid) 0x1-0x2.7 (2)
  0x000000|         00 a1                                 |   ..           |          length: 161 0x3-0x4.7 (2)
          |                                               |                |          message{}: 0x5-0xa5.7 (161)
  0x000000|               01                              |     .          |            type: "client_hello" (1) 0x5-0x5.7 (1)
  0x000000|                  00 00 9d                     |      ...       |            length: 157 0x6-0x8.7 (3)
  0x000000|                           03 03               |         ..     |            version: "tls1.2" (0x303) 0x9-0xa.7 (2)
          |                                               |                |            random{}: 0xb-0x2a.7 (32)
  0x000000|                                 52 36 2c 11   |           R6,. |              gmt_unix_time: 1379281937 (2013-09-15T21:52:17Z) 0xb-0xe.7 (4)
  0x000000|                                             c3|               .|              random_bytes: raw bits 0xf-0x2a.7 (28)
  0x000001|6a 0c 24 59 17 0e c5 0e c7 83 37 8f 88 12 5b 20|j.$Y......7...[ |
  0x000002|3a e3 c7 33 3e 6a 0e 62 44 05 3c               |:..3>j.bD.<     |
  0x000002|                                 00            |           .    |            session_id_length: 0 0x2b-0x2b.7 (1)
          |                                               |                |            session_id: raw bits 0x2c-NA (0)
  0x000002|                                    00 04      |            ..  |            cipher_suits_length: 4 0x2c-0x2d.7 (2)
          |                                               |                |            cipher_suits[0:2]: 0x2e-0x31.7 (4)
  0x000002|                                          c0 12|              ..|              [0]: "TLS_ECDHE_RSA_WITH_3DES_EDE_CBC_SHA" (0xc012) cipher_suit 0x2e-0x2f.7 (2)
  0x000003|00 ff                                          |..              |              [1]: "TLS_EMPTY_RENEGOTIATION_INFO_SCSV" (0xff) cipher_suit 0x30-0x31.7 (2)
  0x000003|      02                                       |  .             |            compression_methods_length: 2 0x32-0x32.7 (1)
          |                                               |                |            compression_methods[0:2]: 0x33-0x34.7 (2)
  0x000003|         01                                    |   .            |              [0]: "deflate" (0x1) compression_method 0x33-0x33.7 (1)
  0x000003|            00                                 |    .           |              [1]: "null" (0x0) compression_method 0x34-0x34.7 (1)
  0x000003|               00 6f                           |     .o         |            extensions_length: 111 0x35-0x36.7 (2)
          |                                               |                |            extensions[0:5]: 0x37-0xa5.7 (111)
          |                                               |                |              [0]{}: extension 0x37-0x3e.7 (8)
  0x000003|                     00 0b                     |       ..       |                type: "ec_point_formats" (11) 0x37-0x38.7 (2)
  0x000003|                           00 04               |         ..     |                length: 4 0x39-0x3a.7 (2)
  0x000003|                                 03            |           .    |                ex_points_format_length: 3 0x3b-0x3b.7 (1)
          |                                               |                |                ex_points_formats[0:3]: 0x3c-0x3e.7 (3)
  0x000003|                                    00         |            .   |                  [0]: 0x0 ex_points_format 0x3c-0x3c.7 (1)
  0x000003|                                       01      |             .  |                  [1]: 0x1 ex_points_format 0x3d-0x3d.7 (1)
  0x000003|                                          02   |              . |                  [2]: 0x2 ex_points_format 0x3e-0x3e.7 (1)
          |                                               |                |              [1]{}: extension 0x3f-0x76.7 (56)
  0x000003|                                             00|               .|                type: "supported_groups" (10) 0x3f-0x40.7 (2)
  0x000004|0a                                             |.               |
  0x000004|   00 34                                       | .4             |                length: 52 0x41-0x42.7 (2)
  0x000004|         00 32                                 |   .2           |                supported_group_length: 50 0x43-0x44.7 (2)
          |                                               |                |                supported_groups[0:25]: 0x45-0x76.7 (50)
  0x000004|               00 0e                           |     ..         |                  [0]: 0xe supported_group 0x45-0x46.7 (2)
  0x000004|                     00 0d                     |       ..       |                  [1]: 0xd supported_group 0x47-0x48.7 (2)
  0x000004|                           00 19               |         ..     |                  [2]: 0x19 supported_group 0x49-0x4a.7 (2)
  0x000004|                                 00 0b         |           ..   |                  [3]: 0xb supported_group 0x4b-0x4c.7 (2)
  0x000004|                                       00 0c   |             .. |                  [4]: 0xc supported_group 0x4d-0x4e.7 (2)
  0x000004|                                             00|               .|                  [5]: 0x18 supported_group 0x4f-0x50.7 (2)
  0x000005|18                                             |.               |
  0x000005|   00 09                                       | ..             |                  [6]: 0x9 supported_group 0x51-0x52.7 (2)
  0x000005|         00 0a                                 |   ..           |                  [7]: 0xa supported_group 0x53-0x54.7 (2)
  0x000005|               00 16                           |     ..         |                  [8]: 0x16 supported_group 0x55-0x56.7 (2)
  0x000005|                     00 17                     |       ..       |                  [9]: 0x17 supported_group 0x57-0x58.7 (2)
  0x000005|                           00 08               |         ..     |                  [10]: 0x8 supported_group 0x59-0x5a.7 (2)
  0x000005|                                 00 06         |           ..   |                  [11]: 0x6 supported_group 0x5b-0x5c.7 (2)
  0x000005|                                       00 07   |             .. |                  [12]: 0x7 supported_group 0x5d-0x5e.7 (2)
  0x000005|                                             00|               .|                  [13]: 0x14 supported_group 0x5f-0x60.7 (2)
  0x000006|14                                             |.               |
  0x000006|   00 15                                       | ..             |                  [14]: 0x15 supported_group 0x61-0x62.7 (2)
  0x000006|         00 04                                 |   ..           |                  [15]: 0x4 supported_group 0x63-0x64.7 (2)
  0x000006|               00 05                           |     ..         |                  [16]: 0x5 supported_group 0x65-0x66.7 (2)
  0x000006|                     00 12                     |       ..       |                  [17]: 0x12 supported_group 0x67-0x68.7 (2)
  0x000006|                           00 13               |         ..     |                  [18]: 0x13 supported_group 0x69-0x6a.7 (2)
  0x000006|                                 00 01         |           ..   |                  [19]: 0x1 supported_group 0x6b-0x6c.7 (2)
  0x000006|                                       00 02   |             .. |                  [20]: 0x2 supported_group 0x6d-0x6e.7 (2)
  0x000006|                                             00|               .|                  [21]: 0x3 supported_group 0x6f-0x70.7 (2)
  0x000007|03                                             |.               |
  0x000007|   00 0f                                       | ..             |                  [22]: 0xf supported_group 0x71-0x72.7 (2)
  0x000007|         00 10                                 |   ..           |                  [23]: 0x10 supported_group 0x73-0x74.7 (2)
  0x000007|               00 11                           |     ..         |                  [24]: 0x11 supported_group 0x75-0x76.7 (2)
          |                                               |                |              [2]{}: extension 0x77-0x7a.7 (4)
  0x000007|                     00 23                     |       .#       |                type: "session_ticket" (35) 0x77-0x78.7 (2)
  0x000007|                           00 00               |         ..     |                length: 0 0x79-0x7a.7 (2)
          |                                               |                |              [3]{}: extension 0x7b-0xa0.7 (38)
  0x000007|                                 00 0d         |           ..   |                type: "signature_algorithms" (13) 0x7b-0x7c.7 (2)
  0x000007|                                       00 22   |             ." |                length: 34 0x7d-0x7e.7 (2)
  0x000007|                                             00|               .|                signature_algorithm_length: 32 0x7f-0x80.7 (2)
  0x000008|20                                             |                |
          |                                               |                |                signature_algorithms[0:16]: 0x81-0xa0.7 (32)
          |                                               |                |                  [0]{}: signature_algorithm 0x81-0x82.7 (2)
  0x000008|   06                                          | .              |                    hash: "sha512" (6) 0x81-0x81.7 (1)
  0x000008|      01                                       |  .             |                    signature: "rsa" (1) 0x82-0x82.7 (1)
          |                                               |                |                  [1]{}: signature_algorithm 0x83-0x84.7 (2)
  0x000008|         06                                    |   .            |                    hash: "sha512" (6) 0x83-0x83.7 (1)
  0x000008|            02                                 |    .           |                    signature: "dsa" (2) 0x84-0x84.7 (1)
          |                                               |                |                  [2]{}: signature_algorithm 0x85-0x86.7 (2)
  0x000008|               06                              |     .          |                    hash: "sha512" (6) 0x85-0x85.7 (1)
  0x000008|                  03                           |      .         |                    signature: "ecdsa" (3) 0x86-0x86.7 (1)
          |                                               |                |                  [3]{}: signature_algorithm 0x87-0x88.7 (2)
  0x000008|                     05                        |       .        |                    hash: "sha384" (5) 0x87-0x87.7 (1)
  0x000008|                        01                     |        .       |                    signature: "rsa" (1) 0x88-0x88.7 (1)
          |                                               |                |                  [4]{}: signature_algorithm 0x89-0x8a.7 (2)
  0x000008|                           05                  |         .      |                    hash: "sha384" (5) 0x89-0x89.7 (1)
  0x000008|                              02               |          .     |                    signature: "dsa" (2) 0x8a-0x8a.7 (1)
          |                                               |                |                  [5]{}: signature_algorithm 0x8b-0x8c.7 (2)
  0x000008|                                 05            |           .    |                    hash: "sha384" (5) 0x8b-0x8b.7 (1)
  0x000008|                                    03         |            .   |                    signature: "ecdsa" (3) 0x8c-0x8c.7 (1)
          |                                               |                |                  [6]{}: signature_algorithm 0x8d-0x8e.7 (2)
  0x000008|                                       04      |             .  |                    hash: "sha256" (4) 0x8d-0x8d.7 (1)
  0x000008|                                          01   |              . |                    signature: "rsa" (1) 0x8e-0x8e.7 (1)
          |                                               |                |                  [7]{}: signature_algorithm 0x8f-0x90.7 (2)
  0x000008|                                             04|               .|                    hash: "sha256" (4) 0x8f-0x8f.7 (1)
  0x000009|02                                             |.               |                    signature: "dsa" (2) 0x90-0x90.7 (1)
          |                                               |                |                  [8]{}: signature_algorithm 0x91-0x92.7 (2)
  0x000009|   04                                          | .              |                    hash: "sha256" (4) 0x91-0x91.7 (1)
  0x000009|      03                                       |  .             |                    signature: "ecdsa" (3) 0x92-0x92.7 (1)
          |                                               |                |                  [9]{}: signature_algorithm 0x93-0x94.7 (2)
  0x000009|         03                                    |   .            |                    hash: "sha224" (3) 0x93-0x93.7 (1)
  0x000009|            01                                 |    .           |                    signature: "rsa" (1) 0x94-0x94.7 (1)
          |                                               |                |                  [10]{}: signature_algorithm 0x95-0x96.7 (2)
  0x000009|               03                              |     .          |                    hash: "sha224" (3) 0x95-0x95.7 (1)
  0x000009|                  02                           |      .         |                    signature: "dsa" (2) 0x96-0x96.7 (1)
          |                                               |                |                  [11]{}: signature_algorithm 0x97-0x98.7 (2)
  0x000009|                     03                        |       .        |                    hash: "sha224" (3) 0x97-0x97.7 (1)
  0x000009|                        03                     |        .       |                    signature: "ecdsa" (3) 0x98-0x98.7 (1)
          |                                               |                |                  [12]{}: signature_algorithm 0x99-0x9a.7 (2)
  0x000009|                           02                  |         .      |                    hash: "sha1" (2) 0x99-0x99.7 (1)
  0x000009|                              01               |          .     |                    signature: "rsa" (1) 0x9a-0x9a.7 (1)
          |                                               |                |                  [13]{}: signature_algorithm 0x9b-0x9c.7 (2)
  0x000009|                                 02            |           .    |                    hash: "sha1" (2) 0x9b-0x9b.7 (1)
  0x000009|                                    02         |            .   |                    signature: "dsa" (2) 0x9c-0x9c.7 (1)
          |                                               |                |                  [14]{}: signature_algorithm 0x9d-0x9e.7 (2)
  0x000009|                                       02      |             .  |                    hash: "sha1" (2) 0x9d-0x9d.7 (1)
  0x000009|                                          03   |              . |                    signature: "ecdsa" (3) 0x9e-0x9e.7 (1)
          |                                               |                |                  [15]{}: signature_algorithm 0x9f-0xa0.7 (2)
  0x000009|                                             01|               .|                    hash: "md5" (1) 0x9f-0x9f.7 (1)
  0x00000a|01                                             |.               |                    signature: "rsa" (1) 0xa0-0xa0.7 (1)
          |                                               |                |              [4]{}: extension 0xa1-0xa5.7 (5)
  0x00000a|   00 0f                                       | ..             |                type: "heartbeat" (15) 0xa1-0xa2.7 (2)
  0x00000a|         00 01                                 |   ..           |                length: 1 0xa3-0xa4.7 (2)
  0x00000a|               01                              |     .          |                data: raw bits 0xa5-0xa5.7 (1)
          |                                               |                |        [1]{}: record 0xa6-0xf0.7 (75)
  0x00000a|                  16                           |      .         |          type: "handshake" (22) (valid) 0xa6-0xa6.7 (1)
  0x00000a|                     03 03                     |       ..       |          version: "tls1.2" (0x303) (valid) 0xa7-0xa8.7 (2)
  0x00000a|                           00 46               |         .F     |          length: 70 0xa9-0xaa.7 (2)
          |                                               |                |          message{}: 0xab-0xf0.7 (70)
  0x00000a|                                 10            |           .    |            type: "client_key_exchange" (16) 0xab-0xab.7 (1)
  0x00000a|                                    00 00 42   |            ..B |            length: 66 0xac-0xae.7 (3)
          |                                               |                |            public{}: 0xaf-NA (0)
  0x00000a|                                             41|               A|              length: 65 0xaf-0xaf.7 (1)
  0x00000b|04 fc 60 49 0b 27 b5 aa 9f 94 d9 79 01 2e 27 f1|..`I.'.....y..'.|              data: raw bits 0xb0-0xf0.7 (65)
  *       |until 0xf0.7 (65)                              |                |
          |                                               |                |        [2]{}: record 0xf1-0xf6.7 (6)
  0x00000f|   14                                          | .              |          type: "change_cipher_spec" (20) (valid) 0xf1-0xf1.7 (1)
  0x00000f|      03 03                                    |  ..            |          version: "tls1.2" (0x303) (valid) 0xf2-0xf3.7 (2)
  0x00000f|            00 01                              |    ..          |          length: 1 0xf4-0xf5.7 (2)
          |                                               |                |          message{}: 0xf6-0xf6.7 (1)
  0x00000f|                  01                           |      .         |            type: 1 0xf6-0xf6.7 (1)
          |                                               |                |        [3]{}: record 0xf7-0x133.7 (61)
  0x00000f|                     16                        |       .        |          type: "handshake" (22) (valid) 0xf7-0xf7.7 (1)
  0x00000f|                        03 03                  |        ..      |          version: "tls1.2" (0x303) (valid) 0xf8-0xf9.7 (2)
  0x00000f|                              00 38            |          .8    |          length: 56 0xfa-0xfb.7 (2)
  0x00000f|                                    12 ba cc 4a|            ...J|          encrypted_data: raw bits 0xfc-0x133.7 (56)
  0x000010|ca b3 ab d2 51 68 57 1a 2a 47 13 f3 ab 67 ba 3a|....QhW.*G...g.:|
  *       |until 0x133.7 (56)                             |                |
          |00 01 02 03 04 05 06 07 08 09 0a 0b 0c 0d 0e 0f|0123456789abcdef|          message{}: 0x0-0xf.7 (16)
    0x0000|14                                             |.               |            type: "finished" (20) 0x0-0x0.7 (1)
    0x0000|   00 00 0c                                    | ...            |            length: 12 0x1-0x3.7 (3)
    0x0000|            c3 08 23 4f f3 8a 7b 6a e9 8e e3 8c|    ..#O..{j....|            verify_data: raw bits 0x4-0xf.7 (12)
          |                                               |                |        [4]{}: record 0x134-0x170.7 (61)
  0x000013|            17                                 |    .           |          type: "application_data" (23) (valid) 0x134-0x134.7 (1)
  0x000013|               03 03                           |     ..         |          version: "tls1.2" (0x303) (valid) 0x135-0x136.7 (2)
  0x000013|                     00 38                     |       .8       |          length: 56 0x137-0x138.7 (2)
  0x000013|                           dc a3 05 d1 36 8f 16|         ....6..|          encrypted_data: raw bits 0x139-0x170.7 (56)
  0x000014|25 ba 61 e8 aa 9c 81 11 44 4e f3 71 1d ff 3f cb|%.a.....DN.q..?.|
  *       |until 0x170.7 (56)                             |                |
          |00 01 02 03 04 05 06 07 08 09 0a 0b 0c 0d 0e 0f|0123456789abcdef|
    0x0000|47 45 54 20 2f 20 48 54 54 50 2f 31 2e 30 0d 0a|GET / HTTP/1.0..|          message: raw bits 0x0-0x11.7 (18)
    0x0000|0d 0a|                                         |..|             |
          |                                               |                |        [5]{}: record 0x171-0x19d.7 (45)
  0x000017|   15                                          | .              |          type: "alert" (21) (valid) 0x171-0x171.7 (1)
  0x000017|      03 03                                    |  ..            |          version: "tls1.2" (0x303) (valid) 0x172-0x173.7 (2)
  0x000017|            00 28                              |    .(          |          length: 40 0x174-0x175.7 (2)
  0x000017|                  15 12 06 de a9 32 e6 53 c7 81|      .....2.S..|          encrypted_data: raw bits 0x176-0x19d.7 (40)
  0x000018|dd ad d3 62 7c 13 ec 54 4f 99 d9 20 d1 26 4b fd|...b|..TO.. .&K.|
  0x000019|4d 1f ff 89 9b b9 65 6b 25 03 5f 25 ed 59|     |M.....ek%._%.Y| |
          |00 01 02 03 04 05 06 07 08 09 0a 0b 0c 0d 0e 0f|0123456789abcdef|          message{}: 0x0-0x1.7 (2)
    0x0000|01                                             |.               |            level: "warning" (1) 0x0-0x0.7 (1)
    0x0000|   00|                                         | .|             |            description: "close_notify" (0) 0x1-0x1.7 (1)
          |00 01 02 03 04 05 06 07 08 09 0a 0b 0c 0d 0e 0f|0123456789abcdef|
    0x0000|47 45 54 20 2f 20 48 54 54 50 2f 31 2e 30 0d 0a|GET / HTTP/1.0..|      stream: raw bits 0x0-0x11.7 (18)
    0x0000|0d 0a|                                         |..|             |
          |                                               |                |  server{}: 0xe1f-NA (0)
          |                                               |                |    ip: "127.0.0.1"
          |                                               |                |    port: 4430
          |                                               |                |    has_start: true
          |                                               |                |    has_end: true
          |                                               |                |    skipped_bytes: 0
          |00 01 02 03 04 05 06 07 08 09 0a 0b 0c 0d 0e 0f|0123456789abcdef|    stream{}: (tls) 0x0-0x868.7 (2153)
          |                                               |                |      records[0:8]: 0x0-0x868.7 (2153)
          |                                               |                |        [0]{}: record 0x0-0x46.7 (71)
  0x000000|16                                             |.               |          type: "handshake" (22) (valid) 0x0-0x0.7 (1)
  0x000000|   03 03                                       | ..             |          version: "tls1.2" (0x303) (valid) 0x1-0x2.7 (2)
  0x000000|         00 42                                 |   .B           |          length: 66 0x3-0x4.7 (2)
          |                                               |                |          message{}: 0x5-0x46.7 (66)
  0x000000|               02                              |     .          |            type: "server_hello" (2) 0x5-0x5.7 (1)
  0x000000|                  00 00 3e                     |      ..>       |            length: 62 0x6-0x8.7 (3)
  0x000000|                           03 03               |         ..     |            version: "tls1.2" (0x303) 0x9-0xa.7 (2)
          |                                               |                |            random{}: 0xb-0x2a.7 (32)
  0x000000|                                 52 36 2c 11   |           R6,. |              gmt_unix_time: 1379281937 (2013-09-15T21:52:17Z) 0xb-0xe.7 (4)
  0x000000|                                             c5|               .|              random_bytes: raw bits 0xf-0x2a.7 (28)
  0x000001|d9 82 c1 53 94 f4 bb 6e 83 ff b5 1c aa d5 aa cd|...S...n........|
  0x000002|4a 69 ba ee 31 ed ff b2 df 89 90               |Ji..1......     |
  0x000002|                                 00            |           .    |            session_id_length: 0 0x2b-0x2b.7 (1)
          |                                               |                |            session_id: raw bits 0x2c-NA (0)
  0x000002|                                    c0 12      |            ..  |            cipher_suit: "TLS_ECDHE_RSA_WITH_3DES_EDE_CBC_SHA" (0xc012) 0x2c-0x2d.7 (2)
  0x000002|                                          01   |              . |            compression_method: "deflate" (0x1) 0x2e-0x2e.7 (1)
  0x000002|                                             00|               .|            extensions_length: 22 0x2f-0x30.7 (2)
  0x000003|16                                             |.               |
          |                                               |                |            extensions[0:4]: 0x31-0x46.7 (22)
          |                                               |                |              [0]{}: extension 0x31-0x35.7 (5)
  0x000003|   ff 01                                       | ..             |                type: "renegotiation_info" (65281) 0x31-0x32.7 (2)
  0x000003|         00 01                                 |   ..           |                length: 1 0x33-0x34.7 (2)
  0x000003|               00                              |     .          |                data: raw bits 0x35-0x35.7 (1)
          |                                               |                |              [1]{}: extension 0x36-0x3d.7 (8)
  0x000003|                  00 0b                        |      ..        |                type: "ec_point_formats" (11) 0x36-0x37.7 (2)
  0x000003|                        00 04                  |        ..      |                length: 4 0x38-0x39.7 (2)
  0x000003|                              03               |          .     |                ex_points_format_length: 3 0x3a-0x3a.7 (1)
          |                                               |                |                ex_points_formats[0:3]: 0x3b-0x3d.7 (3)
  0x000003|                                 00            |           .    |                  [0]: 0x0 ex_points_format 0x3b-0x3b.7 (1)
  0x000003|                                    01         |            .   |                  [1]: 0x1 ex_points_format 0x3c-0x3c.7 (1)
  0x000003|                                       02      |             .  |                  [2]: 0x2 ex_points_format 0x3d-0x3d.7 (1)
          |                                               |                |              [2]{}: extension 0x3e-0x41.7 (4)
  0x000003|                                          00 23|              .#|                type: "session_ticket" (35) 0x3e-0x3f.7 (2)
  0x000004|00 00                                          |..              |                length: 0 0x40-0x41.7 (2)
          |                                               |                |              [3]{}: extension 0x42-0x46.7 (5)
  0x000004|      00 0f                                    |  ..            |                type: "heartbeat" (15) 0x42-0x43.7 (2)
  0x000004|            00 01                              |    ..          |                length: 1 0x44-0x45.7 (2)
  0x000004|                  01                           |      .         |                data: raw bits 0x46-0x46.7 (1)
          |                                               |                |        [1]{}: record 0x47-0x20e.7 (456)
  0x000004|                     16                        |       .        |          type: "handshake" (22) (valid) 0x47-0x47.7 (1)
  0x000004|                        03 03                  |        ..      |          version: "tls1.2" (0x303) (valid) 0x48-0x49.7 (2)
  0x000004|                              01 c3            |          ..    |          length: 451 0x4a-0x4b.7 (2)
          |                                               |                |          message{}: 0x4c-0x20e.7 (451)
  0x000004|                                    0b         |            .   |            type: "certificate" (11) 0x4c-0x4c.7 (1)
  0x000004|                                       00 01 bf|             ...|            length: 447 0x4d-0x4f.7 (3)
  0x000005|00 01 bc                                       |...             |            certificates_length: 444 0x50-0x52.7 (3)
          |                                               |                |            certificates[0:1]: 0x53-0x20e.7 (444)
          |                                               |                |              [0]{}: certificate 0x53-0x20e.7 (444)
  0x000005|         00 01 b9                              |   ...          |                length: 441 0x53-0x55.7 (3)
          |00 01 02 03 04 05 06 07 08 09 0a 0b 0c 0d 0e 0f|0123456789abcdef|                data{}: (asn1_ber) 0x56-0x20e.7 (441)
  0x000005|                  30                           |      0         |                  class: "universal" (0) 0x56-0x56.1 (0.2)
  0x000005|                  30                           |      0         |                  form: "constructed" (1) 0x56.2-0x56.2 (0.1)
  0x000005|                  30                           |      0         |                  tag: "sequence" (0x10) 0x56.3-0x56.7 (0.5)
  0x000005|                     82 01 b5                  |       ...      |                  length: 437 0x57-0x59.7 (3)
          |                                               |                |                  constructed[0:3]: 0x5a-0x20e.7 (437)
          |                                               |                |                    [0]{}: object 0x5a-0x17b.7 (290)
  0x000005|                              30               |          0     |                      class: "universal" (0) 0x5a-0x5a.1 (0.2)
  0x000005|                              30               |          0     |                      form: "constructed" (1) 0x5a.2-0x5a.2 (0.1)
  0x000005|                              30               |          0     |                      tag: "sequence" (0x10) 0x5a.3-0x5a.7 (0.5)
  0x000005|                                 82 01 1e      |           ...  |                      length: 286 0x5b-0x5d.7 (3)
          |                                               |                |                      constructed[0:6]: 0x5e-0x17b.7 (286)
          |                                               |                |                        [0]{}: object 0x5e-0x68.7 (11)
  0x000005|                                          02   |              . |                          class: "universal" (0) 0x5e-0x5e.1 (0.2)
  0x000005|                                          02   |              . |                          form: "primitive" (0) 0x5e.2-0x5e.2 (0.1)
  0x000005|                                          02   |              . |                          tag: "integer" (0x2) 0x5e.3-0x5e.7 (0.5)
  0x000005|                                             09|               .|                          length: 9 0x5f-0x5f.7 (1)
  0x000006|00 f4 a7 2f d3 e8 fc 37 c4                     |.../...7.       |                          value: 17629111853558544324 0x60-0x68.7 (9)
          |                                               |                |                        [1]{}: object 0x69-0x77.7 (15)
  0x000006|                           30                  |         0      |                          class: "universal" (0) 0x69-0x69.1 (0.2)
  0x000006|                           30                  |         0      |                          form: "constructed" (1) 0x69.2-0x69.2 (0.1)
  0x000006|                           30                  |         0      |                          tag: "sequence" (0x10) 0x69.3-0x69.7 (0.5)
  0x000006|                              0d               |          .     |                          length: 13 0x6a-0x6a.7 (1)
          |                                               |                |                          constructed[0:2]: 0x6b-0x77.7 (13)
          |                                               |                |                            [0]{}: object 0x6b-0x75.7 (11)
  0x000006|                                 06            |           .    |                              class: "universal" (0) 0x6b-0x6b.1 (0.2)
  0x000006|                                 06            |           .    |                              form: "primitive" (0) 0x6b.2-0x6b.2 (0.1)
  0x000006|                                 06            |           .    |                              tag: "object_identifier" (0x6) 0x6b.3-0x6b.7 (0.5)
  0x000006|                                    09         |            .   |                              length: 9 0x6c-0x6c.7 (1)
          |                                               |                |                              value[0:7]: 0x6d-0x75.7 (9)
  0x000006|                                       2a      |             *  |                                [0]: 1 oid 0x6d-0x6d.7 (1)
  0x000006|                                       2a      |             *  |                                [1]: 2 oid 0x6d-0x6d.7 (1)
  0x000006|                                          86 48|              .H|                                [2]: 840 oid 0x6e-0x6f.7 (2)
  0x000007|86 f7 0d                                       |...             |                                [3]: 113549 oid 0x70-0x72.7 (3)
  0x000007|         01                                    |   .            |                                [4]: 1 oid 0x73-0x73.7 (1)
  0x000007|            01                                 |    .           |                                [5]: 1 oid 0x74-0x74.7 (1)
  0x000007|               05                              |     .          |                                [6]: 5 oid 0x75-0x75.7 (1)
          |                                               |                |                            [1]{}: object 0x76-0x77.7 (2)
  0x000007|                  05                           |      .         |                              class: "universal" (0) 0x76-0x76.1 (0.2)
  0x000007|                  05                           |      .         |                              form: "primitive" (0) 0x76.2-0x76.2 (0.1)
  0x000007|                  05                           |      .         |                              tag: "null" (0x5) 0x76.3-0x76.7 (0.5)
  0x000007|                     00                        |       .        |                              length: "indefinite" (0) 0x77-0x77.7 (1)
          |                                               |                |                              value: null
          |                                               |                |                        [2]{}: object 0x78-0x98.7 (33)
  0x000007|                        30                     |        0       |                          class: "universal" (0) 0x78-0x78.1 (0.2)
  0x000007|                        30                     |        0       |                          form: "constructed" (1) 0x78.2-0x78.2 (0.1)
  0x000007|                        30                     |        0       |                          tag: "sequence" (0x10) 0x78.3-0x78.7 (0.5)
  0x000007|                           1f                  |         .      |                          length: 31 0x79-0x79.7 (1)
          |                                               |                |                          constructed[0:1]: 0x7a-0x98.7 (31)
          |                                               |                |                            [0]{}: object 0x7a-0x98.7 (31)
  0x000007|                              31               |          1     |                              class: "universal" (0) 0x7a-0x7a.1 (0.2)
  0x000007|                              31               |          1     |                              form: "constructed" (1) 0x7a.2-0x7a.2 (0.1)
  0x000007|                              31               |          1     |                              tag: "set" (0x11) 0x7a.3-0x7a.7 (0.5)
  0x000007|                                 1d            |           .    |                              length: 29 0x7b-0x7b.7 (1)
          |                                               |                |                              constructed[0:1]: 0x7c-0x98.7 (29)
          |                                               |                |                                [0]{}: object 0x7c-0x98.7 (29)
  0x000007|                                    30         |            0   |                                  class: "universal" (0) 0x7c-0x7c.1 (0.2)
  0x000007|                                    30         |            0   |                                  form: "constructed" (1) 0x7c.2-0x7c.2 (0.1)
  0x000007|                                    30         |            0   |                                  tag: "sequence" (0x10) 0x7c.3-0x7c.7 (0.5)
  0x000007|                                       1b      |             .  |                                  length: 27 0x7d-0x7d.7 (1)
          |                                               |                |                                  constructed[0:2]: 0x7e-0x98.7 (27)
          |                                               |                |                                    [0]{}: object 0x7e-0x82.7 (5)
  0x000007|                                          06   |              . |                                      class: "universal" (0) 0x7e-0x7e.1 (0.2)
  0x000007|                                          06   |              . |                                      form: "primitive" (0) 0x7e.2-0x7e.2 (0.1)
  0x000007|                                          06   |              . |                                      tag: "object_identifier" (0x6) 0x7e.3-0x7e.7 (0.5)
  0x000007|                                             03|               .|                                      length: 3 0x7f-0x7f.7 (1)
          |                                               |                |                                      value[0:4]: 0x80-0x82.7 (3)
  0x000008|55                                             |U               |                                        [0]: 2 oid 0x80-0x80.7 (1)
  0x000008|55                                             |U               |                                        [1]: 5 oid 0x80-0x80.7 (1)
  0x000008|   04                                          | .              |                                        [2]: 4 oid 0x81-0x81.7 (1)
  0x000008|      03                                       |  .             |                                        [3]: 3 oid 0x82-0x82.7 (1)
          |                                               |                |                                    [1]{}: object 0x83-0x98.7 (22)
  0x000008|         0c                                    |   .            |                                      class: "universal" (0) 0x83-0x83.1 (0.2)
  0x000008|         0c                                    |   .            |                                      form: "primitive" (0) 0x83.2-0x83.2 (0.1)
  0x000008|         0c                                    |   .            |                                      tag: "utf8_string" (0xc) 0x83.3-0x83.7 (0.5)
  0x000008|            14                                 |    .           |                                      length: 20 0x84-0x84.7 (1)
  0x000008|               54 65 73 74 20 43 65 72 74 69 66|     Test Certif|                                      value: "Test Certificate RSA" 0x85-0x98.7 (20)
  0x000009|69 63 61 74 65 20 52 53 41                     |icate RSA       |
          |                                               |                |                        [3]{}: object 0x99-0xb8.7 (32)
  0x000009|                           30                  |         0      |                          class: "universal" (0) 0x99-0x99.1 (0.2)
  0x000009|                           30                  |         0      |                          form: "constructed" (1) 0x99.2-0x99.2 (0.1)
  0x000009|                           30                  |         0      |                          tag: "sequence" (0x10) 0x99.3-0x99.7 (0.5)
  0x000009|                              1e               |          .     |                          length: 30 0x9a-0x9a.7 (1)
          |                                               |                |                          constructed[0:2]: 0x9b-0xb8.7 (30)
          |                                               |                |                            [0]{}: object 0x9b-0xa9.7 (15)
  0x000009|                                 17            |           .    |                              class: "universal" (0) 0x9b-0x9b.1 (0.2)
  0x000009|                                 17            |           .    |                              form: "primitive" (0) 0x9b.2-0x9b.2 (0.1)
  0x000009|                                 17            |           .    |                              tag: "utc_time" (0x17) 0x9b.3-0x9b.7 (0.5)
  0x000009|                                    0d         |            .   |                              length: 13 0x9c-0x9c.7 (1)
  0x000009|                                       31 33 30|             130|                              value: "130915215110Z" 0x9d-0xa9.7 (13)
  0x00000a|39 31 35 32 31 35 31 31 30 5a                  |915215110Z      |
          |                                               |                |                            [1]{}: object 0xaa-0xb8.7 (15)
  0x00000a|                              17               |          .     |                              class: "universal" (0) 0xaa-0xaa.1 (0.2)
  0x00000a|                              17               |          .     |                              form: "primitive" (0) 0xaa.2-0xaa.2 (0.1)
  0x00000a|                              17               |          .     |                              tag: "utc_time" (0x17) 0xaa.3-0xaa.7 (0.5)
  0x00000a|                                 0d            |           .    |                              length: 13 0xab-0xab.7 (1)
  0x00000a|                                    32 33 30 39|            2309|                              value: "230913215110Z" 0xac-0xb8.7 (13)
  0x00000b|31 33 32 31 35 31 31 30 5a                     |13215110Z       |
          |                                               |                |                        [4]{}: object 0xb9-0xd9.7 (33)
  0x00000b|                           30                  |         0      |                          class: "universal" (0) 0xb9-0xb9.1 (0.2)
  0x00000b|                           30                  |         0      |                          form: "constructed" (1) 0xb9.2-0xb9.2 (0.1)
  0x00000b|                           30                  |         0      |                          tag: "sequence" (0x10) 0xb9.3-0xb9.7 (0.5)
  0x00000b|                              1f               |          .     |                          length: 31 0xba-0xba.7 (1)
          |                                               |                |                          constructed[0:1]: 0xbb-0xd9.7 (31)
          |                                               |                |                            [0]{}: object 0xbb-0xd9.7 (31)
  0x00000b|                                 31            |           1    |                              class: "universal" (0) 0xbb-0xbb.1 (0.2)
  0x00000b|                                 31            |           1    |                              form: "constructed" (1) 0xbb.2-0xbb.2 (0.1)
  0x00000b|                                 31            |           1    |                              tag: "set" (0x11) 0xbb.3-0xbb.7 (0.5)
  0x00000b|                                    1d         |            .   |                              length: 29 0xbc-0xbc.7 (1)
          |                                               |                |                              constructed[0:1]: 0xbd-0xd9.7 (29)
          |                                               |                |                                [0]{}: object 0xbd-0xd9.7 (29)
  0x00000b|                                       30      |             0  |                                  class: "universal" (0) 0xbd-0xbd.1 (0.2)
  0x00000b|                                       30      |             0  |                                  form: "constructed" (1) 0xbd.2-0xbd.2 (0.1)
  0x00000b|                                       30      |             0  |                                  tag: "sequence" (0x10) 0xbd.3-0xbd.7 (0.5)
  0x00000b|                                          1b   |              . |                                  length: 27 0xbe-0xbe.7 (1)
          |                                               |                |                                  constructed[0:2]: 0xbf-0xd9.7 (27)
          |                                               |                |                                    [0]{}: object 0xbf-0xc3.7 (5)
  0x00000b|                                             06|               .|                                      class: "universal" (0) 0xbf-0xbf.1 (0.2)
  0x00000b|                                             06|               .|                                      form: "primitive" (0) 0xbf.2-0xbf.2 (0.1)
  0x00000b|                                             06|               .|                                      tag: "object_identifier" (0x6) 0xbf.3-0xbf.7 (0.5)
  0x00000c|03                                             |.               |                                      length: 3 0xc0-0xc0.7 (1)
          |                                               |                |                                      value[0:4]: 0xc1-0xc3.7 (3)
  0x00000c|   55                                          | U              |                                        [0]: 2 oid 0xc1-0xc1.7 (1)
  0x00000c|   55                                          | U              |                                        [1]: 5 oid 0xc1-0xc1.7 (1)
  0x00000c|      04                                       |  .             |                                        [2]: 4 oid 0xc2-0xc2.7 (1)
  0x00000c|         03                                    |   .            |                                        [3]: 3 oid 0xc3-0xc3.7 (1)
          |                                               |                |                                    [1]{}: object 0xc4-0xd9.7 (22)
  0x00000c|            0c                                 |    .           |                                      class: "universal" (0) 0xc4-0xc4.1 (0.2)
  0x00000c|            0c                                 |    .           |                                      form: "primitive" (0) 0xc4.2-0xc4.2 (0.1)
  0x00000c|            0c                                 |    .           |                                      tag: "utf8_string" (0xc) 0xc4.3-0xc4.7 (0.5)
  0x00000c|               14                              |     .          |                                      length: 20 0xc5-0xc5.7 (1)
  0x00000c|                  54 65 73 74 20 43 65 72 74 69|      Test Certi|                                      value: "Test Certificate RSA" 0xc6-0xd9.7 (20)
  0x00000d|66 69 63 61 74 65 20 52 53 41                  |ficate RSA      |
          |                                               |                |                        [5]{}: object 0xda-0x17b.7 (162)
  0x00000d|                              30               |          0     |                          class: "universal" (0) 0xda-0xda.1 (0.2)
  0x00000d|                              30               |          0     |                          form: "constructed" (1) 0xda.2-0xda.2 (0.1)
  0x00000d|                              30               |          0     |                          tag: "sequence" (0x10) 0xda.3-0xda.7 (0.5)
  0x00000d|                                 81 9f         |           ..   |                          length: 159 0xdb-0xdc.7 (2)
          |                                               |                |                          constructed[0:2]: 0xdd-0x17b.7 (159)
          |                                               |                |                            [0]{}: object 0xdd-0xeb.7 (15)
  0x00000d|                                       30      |             0  |                              class: "universal" (0) 0xdd-0xdd.1 (0.2)
  0x00000d|                                       30      |             0  |                              form: "constructed" (1) 0xdd.2-0xdd.2 (0.1)
  0x00000d|                                       30      |             0  |                              tag: "sequence" (0x10) 0xdd.3-0xdd.7 (0.5)
  0x00000d|                                          0d   |              . |                              length: 13 0xde-0xde.7 (1)
          |                                               |                |                              constructed[0:2]: 0xdf-0xeb.7 (13)
          |                                               |                |                                [0]{}: object 0xdf-0xe9.7 (11)
  0x00000d|                                             06|               .|                                  class: "universal" (0) 0xdf-0xdf.1 (0.2)
  0x00000d|                                             06|               .|                                  form: "primitive" (0) 0xdf.2-0xdf.2 (0.1)
  0x00000d|                                             06|               .|                                  tag: "object_identifier" (0x6) 0xdf.3-0xdf.7 (0.5)
  0x00000e|09                                             |.               |                                  length: 9 0xe0-0xe0.7 (1)
          |                                               |                |                                  value[0:7]: 0xe1-0xe9.7 (9)
  0x00000e|   2a                                          | *              |                                    [0]: 1 oid 0xe1-0xe1.7 (1)
  0x00000e|   2a                                          | *              |                                    [1]: 2 oid 0xe1-0xe1.7 (1)
  0x00000e|      86 48                                    |  .H            |                                    [2]: 840 oid 0xe2-0xe3.7 (2)
  0x00000e|            86 f7 0d                           |    ...         |                                    [3]: 113549 oid 0xe4-0xe6.7 (3)
  0x00000e|                     01                        |       .        |                                    [4]: 1 oid 0xe7-0xe7.7 (1)
  0x00000e|                        01                     |        .       |                                    [5]: 1 oid 0xe8-0xe8.7 (1)
  0x00000e|                           01                  |         .      |                                    [6]: 1 oid 0xe9-0xe9.7 (1)
          |                                               |                |                                [1]{}: object 0xea-0xeb.7 (2)
  0x00000e|                              05               |          .     |                                  class: "universal" (0) 0xea-0xea.1 (0.2)
  0x00000e|                              05               |          .     |                                  form: "primitive" (0) 0xea.2-0xea.2 (0.1)
  0x00000e|                              05               |          .     |                                  tag: "null" (0x5) 0xea.3-0xea.7 (0.5)
  0x00000e|                                 00            |           .    |                                  length: "indefinite" (0) 0xeb-0xeb.7 (1)
          |                                               |                |                                  value: null
          |                                               |                |                            [1]{}: object 0xec-0x17b.7 (144)
  0x00000e|                                    03         |            .   |                              class: "universal" (0) 0xec-0xec.1 (0.2)
  0x00000e|                                    03         |            .   |                              form: "primitive" (0) 0xec.2-0xec.2 (0.1)
  0x00000e|                                    03         |            .   |                              tag: "bit_string" (0x3) 0xec.3-0xec.7 (0.5)
  0x00000e|                                       81 8d   |             .. |                              length: 141 0xed-0xee.7 (2)
  0x00000e|                                             00|               .|                              unused_bits_count: 0 0xef-0xef.7 (1)
  0x00000f|30 81 89 02 81 81 00 ac 35 2a 93 7f c5 4f 18 98|0.......5*...O..|                              value: raw bits 0xf0-0x17b.7 (140)
  *       |until 0x17b.7 (140)                            |                |
          |                                               |                |                    [1]{}: object 0x17c-0x18a.7 (15)
  0x000017|                                    30         |            0   |                      class: "universal" (0) 0x17c-0x17c.1 (0.2)
  0x000017|                                    30         |            0   |                      form: "constructed" (1) 0x17c.2-0x17c.2 (0.1)
  0x000017|                                    30         |            0   |                      tag: "sequence" (0x10) 0x17c.3-0x17c.7 (0.5)
  0x000017|                                       0d      |             .  |                      length: 13 0x17d-0x17d.7 (1)
          |                                               |                |                      constructed[0:2]: 0x17e-0x18a.7 (13)
          |                                               |                |                        [0]{}: object 0x17e-0x188.7 (11)
  0x000017|                                          06   |              . |                          class: "universal" (0) 0x17e-0x17e.1 (0.2)
  0x000017|                                          06   |              . |                          form: "primitive" (0) 0x17e.2-0x17e.2 (0.1)
  0x000017|                                          06   |              . |                          tag: "object_identifier" (0x6) 0x17e.3-0x17e.7 (0.5)
  0x000017|                                             09|               .|                          length: 9 0x17f-0x17f.7 (1)
          |                                               |                |                          value[0:7]: 0x180-0x188.7 (9)
  0x000018|2a                                             |*               |                            [0]: 1 oid 0x180-0x180.7 (1)
  0x000018|2a                                             |*               |                            [1]: 2 oid 0x180-0x180.7 (1)
  0x000018|   86 48                                       | .H             |                            [2]: 840 oid 0x181-0x182.7 (2)
  0x000018|         86 f7 0d                              |   ...          |                            [3]: 113549 oid 0x183-0x185.7 (3)
  0x000018|                  01                           |      .         |                            [4]: 1 oid 0x186-0x186.7 (1)
  0x000018|                     01                        |       .        |                            [5]: 1 oid 0x187-0x187.7 (1)
  0x000018|                        05                     |        .       |                            [6]: 5 oid 0x188-0x188.7 (1)
          |                                               |                |                        [1]{}: object 0x189-0x18a.7 (2)
  0x000018|                           05                  |         .      |                          class: "universal" (0) 0x189-0x189.1 (0.2)
  0x000018|                           05                  |         .      |                          form: "primitive" (0) 0x189.2-0x189.2 (0.1)
  0x000018|                           05                  |         .      |                          tag: "null" (0x5) 0x189.3-0x189.7 (0.5)
  0x000018|                              00               |          .     |                          length: "indefinite" (0) 0x18a-0x18a.7 (1)
          |                                               |                |                          value: null
          |                                               |                |                    [2]{}: object 0x18b-0x20e.7 (132)
  0x000018|                                 03            |           .    |                      class: "universal" (0) 0x18b-0x18b.1 (0.2)
  0x000018|                                 03            |           .    |                      form: "primitive" (0) 0x18b.2-0x18b.2 (0.1)
  0x000018|                                 03            |           .    |                      tag: "bit_string" (0x3) 0x18b.3-0x18b.7 (0.5)
  0x000018|                                    81 81      |            ..  |                      length: 129 0x18c-0x18d.7 (2)
  0x000018|                                          00   |              . |                      unused_bits_count: 0 0x18e-0x18e.7 (1)
  0x000018|                                             67|               g|                      value: raw bits 0x18f-0x20e.7 (128)
  0x000019|43 4c a8 a4 3e eb 1b 32 28 70 8b db eb fe f1 b3|CL..>..2(p......|
  *       |until 0x20e.7 (128)                            |                |
          |                                               |                |        [2]{}: record 0x20f-0x2e0.7 (210)
  0x000020|                                             16|               .|          type: "handshake" (22) (valid) 0x20f-0x20f.7 (1)
  0x000021|03 03                                          |..              |          version: "tls1.2" (0x303) (valid) 0x210-0x211.7 (2)
  0x000021|      00 cd                                    |  ..            |          length: 205 0x212-0x213.7 (2)
          |                                               |                |          message{}: 0x214-0x2e0.7 (205)
  0x000021|            0c                                 |    .           |            type: "server_key_exchange" (12) 0x214-0x214.7 (1)
  0x000021|               00 00 c9                        |     ...        |            length: 201 0x215-0x217.7 (3)
          |                                               |                |            curve_params{}: 0x218-NA (0)
  0x000021|                        03                     |        .       |              curve_type: 3 0x218-0x218.7 (1)
  0x000021|                           00 17               |         ..     |              named_curve: 23 0x219-0x21a.7 (2)
          |                                               |                |            public{}: 0x21b-NA (0)
  0x000021|                                 41            |           A    |              length: 65 0x21b-0x21b.7 (1)
  0x000021|                                    04 97 e0 a1|            ....|              data: raw bits 0x21c-0x25c.7 (65)
  0x000022|4e d7 18 a0 e8 17 bf e1 a0 c1 ad 25 65 fd 35 94|N..........%e.5.|
  *       |until 0x25c.7 (65)                             |                |
          |                                               |                |            signature_algorithm{}: 0x25d-NA (0)
  0x000025|                                       06      |             .  |              hash: "sha512" (6) 0x25d-0x25d.7 (1)
  0x000025|                                          01   |              . |              signature: "rsa" (1) 0x25e-0x25e.7 (1)
  0x000025|                                             00|               .|              length: 128 0x25f-0x260.7 (2)
  0x000026|80                                             |.               |
  0x000026|   89 93 8b ae fd 84 b6 1c 95 f8 6d 7e 6b 1d 23| ..........m~k.#|              data: raw bits 0x261-0x2e0.7 (128)
  0x000027|22 dc 50 47 cf 38 5d a6 e0 42 ea 15 ff 30 2f 52|".PG.8]..B...0/R|
  *       |until 0x2e0.7 (128)                            |                |
          |                                               |                |        [3]{}: record 0x2e1-0x2e9.7 (9)
  0x00002e|   16                                          | .              |          type: "handshake" (22) (valid) 0x2e1-0x2e1.7 (1)
  0x00002e|      03 03                                    |  ..            |          version: "tls1.2" (0x303) (valid) 0x2e2-0x2e3.7 (2)
  0x00002e|            00 04                              |    ..          |          length: 4 0x2e4-0x2e5.7 (2)
          |                                               |                |          message{}: 0x2e6-0x2e9.7 (4)
  0x00002e|                  0e                           |      .         |            type: "server_hello_done" (14) 0x2e6-0x2e6.7 (1)
  0x00002e|                     00 00 00                  |       ...      |            length: 0 0x2e7-0x2e9.7 (3)
          |                                               |                |            data: raw bits 0x2ea-NA (0)
          |                                               |                |        [4]{}: record 0x2ea-0x398.7 (175)
  0x00002e|                              16               |          .     |          type: "handshake" (22) (valid) 0x2ea-0x2ea.7 (1)
  0x00002e|                                 03 03         |           ..   |          version: "tls1.2" (0x303) (valid) 0x2eb-0x2ec.7 (2)
  0x00002e|                                       00 aa   |             .. |          length: 170 0x2ed-0x2ee.7 (2)
          |                                               |                |          message{}: 0x2ef-0x398.7 (170)
  0x00002e|                                             04|               .|            type: "new_session_ticket" (4) 0x2ef-0x2ef.7 (1)
  0x00002f|00 00 a6                                       |...             |            length: 166 0x2f0-0x2f2.7 (3)
  0x00002f|         00 00 01 2c                           |   ...,         |            lifetime_hint: 300 0x2f3-0x2f6.7 (4)
  0x00002f|                     00 a0                     |       ..       |            ticket_length: 160 0x2f7-0x2f8.7 (2)
  0x00002f|                           c0 b4 67 52 a5 ca da|         ..gR...|            ticket: raw bits 0x2f9-0x398.7 (160)
  0x000030|99 7a 28 d7 eb e7 a1 7e 31 0d 29 7f 94 e8 66 50|.z(....~1.)...fP|
  *       |until 0x398.7 (160)                            |                |
          |                                               |                |        [5]{}: record 0x399-0x39e.7 (6)
  0x000039|                           14                  |         .      |          type: "change_cipher_spec" (20) (valid) 0x399-0x399.7 (1)
  0x000039|                              03 03            |          ..    |          version: "tls1.2" (0x303) (valid) 0x39a-0x39b.7 (2)
  0x000039|                                    00 01      |            ..  |          length: 1 0x39c-0x39d.7 (2)
          |                                               |                |          message{}: 0x39e-0x39e.7 (1)
  0x000039|                                          01   |              . |            type: 1 0x39e-0x39e.7 (1)
          |                                               |                |        [6]{}: record 0x39f-0x3db.7 (61)
  0x000039|                                             16|               .|          type: "handshake" (22) (valid) 0x39f-0x39f.7 (1)
  0x00003a|03 03                                          |..              |          version: "tls1.2" (0x303) (valid) 0x3a0-0x3a1.7 (2)
  0x00003a|      00 38                                    |  .8            |          length: 56 0x3a2-0x3a3.7 (2)
  0x00003a|            04 c8 4f 39 dd 9a 97 90 0b 5b 9c 2a|    ..O9.....[.*|          encrypted_data: raw bits 0x3a4-0x3db.7 (56)
  0x00003b|c5 47 1a 24 1c 54 79 0f 77 6f e8 11 43 2f 8e de|.G.$.Ty.wo..C/..|
  *       |until 0x3db.7 (56)                             |                |
          |00 01 02 03 04 05 06 07 08 09 0a 0b 0c 0d 0e 0f|0123456789abcdef|          message{}: 0x0-0xf.7 (16)
    0x0000|14                                             |.               |            type: "finished" (20) 0x0-0x0.7 (1)
    0x0000|   00 00 0c                                    | ...            |            length: 12 0x1-0x3.7 (3)
    0x0000|            37 79 61 4a 11 01 7f 63 89 5a 1e 3b|    7yaJ...c.Z.;|            verify_data: raw bits 0x4-0xf.7 (12)
          |                                               |                |        [7]{}: record 0x3dc-0x868.7 (1165)
  0x00003d|                                    17         |            .   |          type: "application_data" (23) (valid) 0x3dc-0x3dc.7 (1)
  0x00003d|                                       03 03   |             .. |          version: "tls1.2" (0x303) (valid) 0x3dd-0x3de.7 (2)
  0x00003d|                                             04|               .|          length: 1160 0x3df-0x3e0.7 (2)
  0x00003e|88                                             |.               |
  0x00003e|   70 81 24 17 cb 2a 19 18 04 6b 89 13 ae 1f e8| p.$..*...k.....|          encrypted_data: raw bits 0x3e1-0x868.7 (1160)
  0x00003f|8f b4 be 91 0a 7c 9e 6e 2f 1d f1 eb e9 3a 78 dd|.....|.n/....:x.|
  *       |until 0x868.7 (end) (1160)                     |                |
          |00 01 02 03 04 05 06 07 08 09 0a 0b 0c 0d 0e 0f|0123456789abcdef|
    0x0000|48 54 54 50 2f 31 2e 30 20 32 30 30 20 6f 6b 0d|HTTP/1.0 200 ok.|          message: raw bits 0x0-0x113b.7 (4412)
    *     |until 0x113b.7 (end) (4412)                    |                |
          |00 01 02 03 04 05 06 07 08 09 0a 0b 0c 0d 0e 0f|0123456789abcdef|
    0x0000|48 54 54 50 2f 31 2e 30 20 32 30 30 20 6f 6b 0d|HTTP/1.0 200 ok.|      stream: raw bits 0x0-0x113b.7 (4412)
    *     |until 0x113b.7 (end) (4412)                    |                |
