$ fq -o keylog=@all.keylog ".tcp_connections[0] | dv" TLS_RSA_WITH_AES_256_GCM_SHA384.pcap
          |00 01 02 03 04 05 06 07 08 09 0a 0b 0c 0d 0e 0f|0123456789abcdef|.tcp_connections[0]{}: tcp_connection 0xd17-NA (0)
          |                                               |                |  client{}: 0xd17-NA (0)
          |                                               |                |    ip: "127.0.0.1" 0xd17-NA (0)
          |                                               |                |    port: 38984 0xd17-NA (0)
          |                                               |                |    has_start: true 0xd17-NA (0)
          |                                               |                |    has_end: false 0xd17-NA (0)
          |                                               |                |    skipped_bytes: 0 0xd17-NA (0)
          |00 01 02 03 04 05 06 07 08 09 0a 0b 0c 0d 0e 0f|0123456789abcdef|    stream{}: (tls) 0x0-0x186.7 (391)
          |                                               |                |      records[0:6]: 0x0-0x186.7 (391)
          |                                               |                |        [0]{}: record 0x0-0x65.7 (102)
  0x000000|16                                             |.               |          type: "handshake" (22) (valid) 0x0-0x0.7 (1)
  0x000000|   03 01                                       | ..             |          version: "tls1.0" (0x301) (valid) 0x1-0x2.7 (2)
  0x000000|         00 61                                 |   .a           |          length: 97 0x3-0x4.7 (2)
          |                                               |                |          message{}: 0x5-0x65.7 (97)
  0x000000|               01                              |     .          |            type: "client_hello" (1) 0x5-0x5.7 (1)
  0x000000|                  00 00 5d                     |      ..]       |            length: 93 0x6-0x8.7 (3)
  0x000000|                           03 03               |         ..     |            version: "tls1.2" (0x303) 0x9-0xa.7 (2)
          |                                               |                |            random{}: 0xb-0x2a.7 (32)
  0x000000|                                 52 36 2c 10   |           R6,. |              gmt_unix_time: 1379281936 (2013-09-15T21:52:16Z) 0xb-0xe.7 (4)
  0x000000|                                             12|               .|              random_bytes: raw bits 0xf-0x2a.7 (28)
  0x000001|67 eb a7 9b 66 13 1e 37 98 7d 05 d5 0a 5f 30 77|g...f..7.}..._0w|
  0x000002|91 95 68 16 85 17 d5 d2 fc d4 42               |..h.......B     |
  0x000002|                                 00            |           .    |            session_id_length: 0 0x2b-0x2b.7 (1)
          |                                               |                |            session_id: raw bits 0x2c-NA (0)
  0x000002|                                    00 04      |            ..  |            cipher_suits_length: 4 0x2c-0x2d.7 (2)
          |                                               |                |            cipher_suits[0:2]: 0x2e-0x31.7 (4)
  0x000002|                                          00 9d|              ..|              [0]: "TLS_RSA_WITH_AES_256_GCM_SHA384" (0x9d) cipher_suit 0x2e-0x2f.7 (2)
  0x000003|00 ff                                          |..              |              [1]: "TLS_EMPTY_RENEGOTIATION_INFO_SCSV" (0xff) cipher_suit 0x30-0x31.7 (2)
  0x000003|      02                                       |  .             |            compression_methods_length: 2 0x32-0x32.7 (1)
          |                                               |                |            compression_methods[0:2]: 0x33-0x34.7 (2)
  0x000003|         01                                    |   .            |              [0]: "deflate" (0x1) compression_method 0x33-0x33.7 (1)
  0x000003|            00                                 |    .           |              [1]: "null" (0x0) compression_method 0x34-0x34.7 (1)
  0x000003|               00 2f                           |     ./         |            extensions_length: 47 0x35-0x36.7 (2)
          |                                               |                |            extensions[0:3]: 0x37-0x65.7 (47)
          |                                               |                |              [0]{}: extension 0x37-0x3a.7 (4)
  0x000003|                     00 23                     |       .#       |                type: "session_ticket" (35) 0x37-0x38.7 (2)
  0x000003|                           00 00               |         ..     |                length: 0 0x39-0x3a.7 (2)
          |                                               |                |              [1]{}: extension 0x3b-0x60.7 (38)
  0x000003|                                 00 0d         |           ..   |                type: "signature_algorithms" (13) 0x3b-0x3c.7 (2)
  0x000003|                                       00 22   |             ." |                length: 34 0x3d-0x3e.7 (2)
  0x000003|                                             00|               .|                signature_algorithm_length: 32 0x3f-0x40.7 (2)
  0x000004|20                                             |                |
          |                                               |                |                signature_algorithms[0:16]: 0x41-0x60.7 (32)
          |                                               |                |                  [0]{}: signature_algorithm 0x41-0x42.7 (2)
  0x000004|   06                                          | .              |                    hash: "sha512" (6) 0x41-0x41.7 (1)
  0x000004|      01                                       |  .             |                    signature: "rsa" (1) 0x42-0x42.7 (1)
          |                                               |                |                  [1]{}: signature_algorithm 0x43-0x44.7 (2)
  0x000004|         06                                    |   .            |                    hash: "sha512" (6) 0x43-0x43.7 (1)
  0x000004|            02                                 |    .           |                    signature: "dsa" (2) 0x44-0x44.7 (1)
          |                                               |                |                  [2]{}: signature_algorithm 0x45-0x46.7 (2)
  0x000004|               06                              |     .          |                    hash: "sha512" (6) 0x45-0x45.7 (1)
  0x000004|                  03                           |      .         |                    signature: "ecdsa" (3) 0x46-0x46.7 (1)
          |                                               |                |                  [3]{}: signature_algorithm 0x47-0x48.7 (2)
  0x000004|                     05                        |       .        |                    hash: "sha384" (5) 0x47-0x47.7 (1)
  0x000004|                        01                     |        .       |                    signature: "rsa" (1) 0x48-0x48.7 (1)
          |                                               |                |                  [4]{}: signature_algorithm 0x49-0x4a.7 (2)
  0x000004|                           05                  |         .      |                    hash: "sha384" (5) 0x49-0x49.7 (1)
  0x000004|                              02               |          .     |                    signature: "dsa" (2) 0x4a-0x4a.7 (1)
          |                                               |                |                  [5]{}: signature_algorithm 0x4b-0x4c.7 (2)
  0x000004|                                 05            |           .    |                    hash: "sha384" (5) 0x4b-0x4b.7 (1)
  0x000004|                                    03         |            .   |                    signature: "ecdsa" (3) 0x4c-0x4c.7 (1)
          |                                               |                |                  [6]{}: signature_algorithm 0x4d-0x4e.7 (2)
  0x000004|                                       04      |             .  |                    hash: "sha256" (4) 0x4d-0x4d.7 (1)
  0x000004|                                          01   |              . |                    signature: "rsa" (1) 0x4e-0x4e.7 (1)
          |                                               |                |                  [7]{}: signature_algorithm 0x4f-0x50.7 (2)
  0x000004|                                             04|               .|                    hash: "sha256" (4) 0x4f-0x4f.7 (1)
  0x000005|02                                             |.               |                    signature: "dsa" (2) 0x50-0x50.7 (1)
          |                                               |                |                  [8]{}: signature_algorithm 0x51-0x52.7 (2)
  0x000005|   04                                          | .              |                    hash: "sha256" (4) 0x51-0x51.7 (1)
  0x000005|      03                                       |  .             |                    signature: "ecdsa" (3) 0x52-0x52.7 (1)
          |                                               |                |                  [9]{}: signature_algorithm 0x53-0x54.7 (2)
  0x000005|         03                                    |   .            |                    hash: "sha224" (3) 0x53-0x53.7 (1)
  0x000005|            01                                 |    .           |                    signature: "rsa" (1) 0x54-0x54.7 (1)
          |                                               |                |                  [10]{}: signature_algorithm 0x55-0x56.7 (2)
  0x000005|               03                              |     .          |                    hash: "sha224" (3) 0x55-0x55.7 (1)
  0x000005|                  02                           |      .         |                    signature: "dsa" (2) 0x56-0x56.7 (1)
          |                                               |                |                  [11]{}: signature_algorithm 0x57-0x58.7 (2)
  0x000005|                     03                        |       .        |                    hash: "sha224" (3) 0x57-0x57.7 (1)
  0x000005|                        03                     |        .       |                    signature: "ecdsa" (3) 0x58-0x58.7 (1)
          |                                               |                |                  [12]{}: signature_algorithm 0x59-0x5a.7 (2)
  0x000005|                           02                  |         .      |                    hash: "sha1" (2) 0x59-0x59.7 (1)
  0x000005|                              01               |          .     |                    signature: "rsa" (1) 0x5a-0x5a.7 (1)
          |                                               |                |                  [13]{}: signature_algorithm 0x5b-0x5c.7 (2)
  0x000005|                                 02            |           .    |                    hash: "sha1" (2) 0x5b-0x5b.7 (1)
  0x000005|                                    02         |            .   |                    signature: "dsa" (2) 0x5c-0x5c.7 (1)
          |                                               |                |                  [14]{}: signature_algorithm 0x5d-0x5e.7 (2)
  0x000005|                                       02      |             .  |                    hash: "sha1" (2) 0x5d-0x5d.7 (1)
  0x000005|                                          03   |              . |                    signature: "ecdsa" (3) 0x5e-0x5e.7 (1)
          |                                               |                |                  [15]{}: signature_algorithm 0x5f-0x60.7 (2)
  0x000005|                                             01|               .|                    hash: "md5" (1) 0x5f-0x5f.7 (1)
  0x000006|01                                             |.               |                    signature: "rsa" (1) 0x60-0x60.7 (1)
          |                                               |                |              [2]{}: extension 0x61-0x65.7 (5)
  0x000006|   00 0f                                       | ..             |                type: "heartbeat" (15) 0x61-0x62.7 (2)
  0x000006|         00 01                                 |   ..           |                length: 1 0x63-0x64.7 (2)
  0x000006|               01                              |     .          |                data: raw bits 0x65-0x65.7 (1)
          |                                               |                |        [1]{}: record 0x66-0xf0.7 (139)
  0x000006|                  16                           |      .         |          type: "handshake" (22) (valid) 0x66-0x66.7 (1)
  0x000006|                     03 03                     |       ..       |          version: "tls1.2" (0x303) (valid) 0x67-0x68.7 (2)
  0x000006|                           00 86               |         ..     |          length: 134 0x69-0x6a.7 (2)
          |                                               |                |          message{}: 0x6b-0xf0.7 (134)
  0x000006|                                 10            |           .    |            type: "client_key_exchange" (16) 0x6b-0x6b.7 (1)
  0x000006|                                    00 00 82   |            ... |            length: 130 0x6c-0x6e.7 (3)
          |                                               |                |            encrypted_premaster{}: 0x6f-NA (0)
  0x000006|                                             00|               .|              length: 128 0x6f-0x70.7 (2)
  0x000007|80                                             |.               |
  0x000007|   95 79 57 94 78 b4 79 61 00 16 07 76 0d ce 94| .yW.x.ya...v...|              data: raw bits 0x71-0xf0.7 (128)
  0x000008|ee 2e bd 76 9e d4 aa 03 13 1c a8 6b 44 98 21 7a|...v.......kD.!z|
  *       |until 0xf0.7 (128)                             |                |
          |                                               |                |        [2]{}: record 0xf1-0xf6.7 (6)
  0x00000f|   14                                          | .              |          type: "change_cipher_spec" (20) (valid) 0xf1-0xf1.7 (1)
  0x00000f|      03 03                                    |  ..            |          version: "tls1.2" (0x303) (valid) 0xf2-0xf3.7 (2)
  0x00000f|            00 01                              |    ..          |          length: 1 0xf4-0xf5.7 (2)
          |                                               |                |          message{}: 0xf6-0xf6.7 (1)
  0x00000f|                  01                           |      .         |            type: 1 0xf6-0xf6.7 (1)
          |                                               |                |        [3]{}: record 0xf7-0x12c.7 (54)
  0x00000f|                     16                        |       .        |          type: "handshake" (22) (valid) 0xf7-0xf7.7 (1)
  0x00000f|                        03 03                  |        ..      |          version: "tls1.2" (0x303) (valid) 0xf8-0xf9.7 (2)
  0x00000f|                              00 31            |          .1    |          length: 49 0xfa-0xfb.7 (2)
  0x00000f|                                    b3 f0 d4 9b|            ....|          encrypted_data: raw bits 0xfc-0x12c.7 (49)
  0x000010|e0 73 68 40 7e 60 3a 9f fc 64 f6 06 f8 62 9b fd|.sh@~`:..d...b..|
  *       |until 0x12c.7 (49)                             |                |
          |00 01 02 03 04 05 06 07 08 09 0a 0b 0c 0d 0e 0f|0123456789abcdef|          message{}: 0x0-0xf.7 (16)
    0x0000|14                                             |.               |            type: "finished" (20) 0x0-0x0.7 (1)
    0x0000|   00 00 0c                                    | ...            |            length: 12 0x1-0x3.7 (3)
    0x0000|            b3 86 60 1e 01 1b d1 dc a8 5a 60 b3|    ..`......Z`.|            verify_data: raw bits 0x4-0xf.7 (12)
          |                                               |                |        [4]{}: record 0x12d-0x161.7 (53)
  0x000012|                                       17      |             .  |          type: "application_data" (23) (valid) 0x12d-0x12d.7 (1)
  0x000012|                                          03 03|              ..|          version: "tls1.2" (0x303) (valid) 0x12e-0x12f.7 (2)
  0x000013|00 30                                          |.0              |          length: 48 0x130-0x131.7 (2)
  0x000013|      b3 f0 d4 9b e0 73 68 41 11 93 c4 e9 0d 38|  .....shA.....8|          encrypted_data: raw bits 0x132-0x161.7 (48)
  0x000014|8b d9 3e 96 37 41 a4 4e 6a 00 ed 59 bf f0 d9 90|..>.7A.Nj..Y....|
  *       |until 0x161.7 (48)                             |                |
          |00 01 02 03 04 05 06 07 08 09 0a 0b 0c 0d 0e 0f|0123456789abcdef|
    0x0000|47 45 54 20 2f 20 48 54 54 50 2f 31 2e 30 0d 0a|GET / HTTP/1.0..|          message: raw bits 0x0-0x11.7 (18)
    0x0000|0d 0a|                                         |..|             |
          |                                               |                |        [5]{}: record 0x162-0x186.7 (37)
  0x000016|      15                                       |  .             |          type: "alert" (21) (valid) 0x162-0x162.7 (1)
  0x000016|         03 03                                 |   ..           |          version: "tls1.2" (0x303) (valid) 0x163-0x164.7 (2)
  0x000016|               00 20                           |     .          |          length: 32 0x165-0x166.7 (2)
  0x000016|                     b3 f0 d4 9b e0 73 68 42 18|       .....shB.|          encrypted_data: raw bits 0x167-0x186.7 (32)
  0x000017|30 51 b8 26 5c 31 a0 fd 8a dd 72 51 7f 45 6c 29|0Q.&\1....rQ.El)|
  0x000018|91 32 49 4d d6 7a 33|                          |.2IM.z3|        |
          |00 01 02 03 04 05 06 07 08 09 0a 0b 0c 0d 0e 0f|0123456789abcdef|          message{}: 0x0-0x1.7 (2)
    0x0000|01                                             |.               |            level: "warning" (1) 0x0-0x0.7 (1)
    0x0000|   00|                                         | .|             |            description: "close_notify" (0) 0x1-0x1.7 (1)
          |00 01 02 03 04 05 06 07 08 09 0a 0b 0c 0d 0e 0f|0123456789abcdef|
    0x0000|47 45 54 20 2f 20 48 54 54 50 2f 31 2e 30 0d 0a|GET / HTTP/1.0..|      stream: raw bits 0x0-0x11.7 (18)
    0x0000|0d 0a|                                         |..|             |
          |                                               |                |  server{}: 0xd17-NA (0)
          |                                               |                |    ip: "127.0.0.1" 0xd17-NA (0)
          |                                               |                |    port: 4430 0xd17-NA (0)
          |                                               |                |    has_start: true 0xd17-NA (0)
          |                                               |                |    has_end: true 0xd17-NA (0)
          |                                               |                |    skipped_bytes: 0 0xd17-NA (0)
          |00 01 02 03 04 05 06 07 08 09 0a 0b 0c 0d 0e 0f|0123456789abcdef|    stream{}: (tls) 0x0-0x777.7 (1912)
          |                                               |                |      records[0:7]: 0x0-0x777.7 (1912)
          |                                               |                |        [0]{}: record 0x0-0x3e.7 (63)
  0x000000|16                                             |.               |          type: "handshake" (22) (valid) 0x0-0x0.7 (1)
  0x000000|   03 03                                       | ..             |          version: "tls1.2" (0x303) (valid) 0x1-0x2.7 (2)
  0x000000|         00 3a                                 |   .:           |          length: 58 0x3-0x4.7 (2)
          |                                               |                |          message{}: 0x5-0x3e.7 (58)
  0x000000|               02                              |     .          |            type: "server_hello" (2) 0x5-0x5.7 (1)
  0x000000|                  00 00 36                     |      ..6       |            length: 54 0x6-0x8.7 (3)
  0x000000|                           03 03               |         ..     |            version: "tls1.2" (0x303) 0x9-0xa.7 (2)
          |                                               |                |            random{}: 0xb-0x2a.7 (32)
  0x000000|                                 52 36 2c 10   |           R6,. |              gmt_unix_time: 1379281936 (2013-09-15T21:52:16Z) 0xb-0xe.7 (4)
  0x000000|                                             44|               D|              random_bytes: raw bits 0xf-0x2a.7 (28)
  0x000001|e9 1b 35 c4 29 f1 42 02 18 f0 f7 86 73 ac da 14|..5.).B.....s...|
  0x000002|c9 50 c4 0b 49 fb a9 35 41 4e ee               |.P..I..5AN.     |
  0x000002|                                 00            |           .    |            session_id_length: 0 0x2b-0x2b.7 (1)
          |                                               |                |            session_id: raw bits 0x2c-NA (0)
  0x000002|                                    00 9d      |            ..  |            cipher_suit: "TLS_RSA_WITH_AES_256_GCM_SHA384" (0x9d) 0x2c-0x2d.7 (2)
  0x000002|                                          01   |              . |            compression_method: "deflate" (0x1) 0x2e-0x2e.7 (1)
  0x000002|                                             00|               .|            extensions_length: 14 0x2f-0x30.7 (2)
  0x000003|0e                                             |.               |
          |                                               |                |            extensions[0:3]: 0x31-0x3e.7 (14)
          |                                               |                |              [0]{}: extension 0x31-0x35.7 (5)
  0x000003|   ff 01                                       | ..             |                type: "renegotiation_info" (65281) 0x31-0x32.7 (2)
  0x000003|         00 01                                 |   ..           |                length: 1 0x33-0x34.7 (2)
  0x000003|               00                              |     .          |                data: raw bits 0x35-0x35.7 (1)
          |                                               |                |              [1]{}: extension 0x36-0x39.7 (4)
  0x000003|                  00 23                        |      .#        |                type: "session_ticket" (35) 0x36-0x37.7 (2)
  0x000003|                        00 00                  |        ..      |                length: 0 0x38-0x39.7 (2)
          |                                               |                |              [2]{}: extension 0x3a-0x3e.7 (5)
  0x000003|                              00 0f            |          ..    |                type: "heartbeat" (15) 0x3a-0x3b.7 (2)
  0x000003|                                    00 01      |            ..  |                length: 1 0x3c-0x3d.7 (2)
  0x000003|                                          01   |              . |                data: raw bits 0x3e-0x3e.7 (1)
          |                                               |                |        [1]{}: record 0x3f-0x206.7 (456)
  0x000003|                                             16|               .|          type: "handshake" (22) (valid) 0x3f-0x3f.7 (1)
  0x000004|03 03                                          |..              |          version: "tls1.2" (0x303) (valid) 0x40-0x41.7 (2)
  0x000004|      01 c3                                    |  ..            |          length: 451 0x42-0x43.7 (2)
          |                                               |                |          message{}: 0x44-0x206.7 (451)
  0x000004|            0b                                 |    .           |            type: "certificate" (11) 0x44-0x44.7 (1)
  0x000004|               00 01 bf                        |     ...        |            length: 447 0x45-0x47.7 (3)
  0x000004|                        00 01 bc               |        ...     |            certificates_length: 444 0x48-0x4a.7 (3)
          |                                               |                |            certificates[0:1]: 0x4b-0x206.7 (444)
          |                                               |                |              [0]{}: certificate 0x4b-0x206.7 (444)
  0x000004|                                 00 01 b9      |           ...  |                length: 441 0x4b-0x4d.7 (3)
          |00 01 02 03 04 05 06 07 08 09 0a 0b 0c 0d 0e 0f|0123456789abcdef|                data{}: (asn1_ber) 0x4e-0x206.7 (441)
  0x000004|                                          30   |              0 |                  class: "universal" (0) 0x4e-0x4e.1 (0.2)
  0x000004|                                          30   |              0 |                  form: "constructed" (1) 0x4e.2-0x4e.2 (0.1)
  0x000004|                                          30   |              0 |                  tag: "sequence" (0x10) 0x4e.3-0x4e.7 (0.5)
  0x000004|                                             82|               .|                  length: 437 0x4f-0x51.7 (3)
  0x000005|01 b5                                          |..              |
          |                                               |                |                  constructed[0:3]: 0x52-0x206.7 (437)
          |                                               |                |                    [0]{}: object 0x52-0x173.7 (290)
  0x000005|      30                                       |  0             |                      class: "universal" (0) 0x52-0x52.1 (0.2)
  0x000005|      30                                       |  0             |                      form: "constructed" (1) 0x52.2-0x52.2 (0.1)
  0x000005|      30                                       |  0             |                      tag: "sequence" (0x10) 0x52.3-0x52.7 (0.5)
  0x000005|         82 01 1e                              |   ...          |                      length: 286 0x53-0x55.7 (3)
          |                                               |                |                      constructed[0:6]: 0x56-0x173.7 (286)
          |                                               |                |                        [0]{}: object 0x56-0x60.7 (11)
  0x000005|                  02                           |      .         |                          class: "universal" (0) 0x56-0x56.1 (0.2)
  0x000005|                  02                           |      .         |                          form: "primitive" (0) 0x56.2-0x56.2 (0.1)
  0x000005|                  02                           |      .         |                          tag: "integer" (0x2) 0x56.3-0x56.7 (0.5)
  0x000005|                     09                        |       .        |                          length: 9 0x57-0x57.7 (1)
  0x000005|                        00 f4 a7 2f d3 e8 fc 37|        .../...7|                          value: 17629111853558544324 0x58-0x60.7 (9)
  0x000006|c4                                             |.               |
          |                                               |                |                        [1]{}: object 0x61-0x6f.7 (15)
  0x000006|   30                                          | 0              |                          class: "universal" (0) 0x61-0x61.1 (0.2)
  0x000006|   30                                          | 0              |                          form: "constructed" (1) 0x61.2-0x61.2 (0.1)
  0x000006|   30                                          | 0              |                          tag: "sequence" (0x10) 0x61.3-0x61.7 (0.5)
  0x000006|      0d                                       |  .             |                          length: 13 0x62-0x62.7 (1)
          |                                               |                |                          constructed[0:2]: 0x63-0x6f.7 (13)
          |                                               |                |                            [0]{}: object 0x63-0x6d.7 (11)
  0x000006|         06                                    |   .            |                              class: "universal" (0) 0x63-0x63.1 (0.2)
  0x000006|         06                                    |   .            |                              form: "primitive" (0) 0x63.2-0x63.2 (0.1)
  0x000006|         06                                    |   .            |                              tag: "object_identifier" (0x6) 0x63.3-0x63.7 (0.5)
  0x000006|            09                                 |    .           |                              length: 9 0x64-0x64.7 (1)
          |                                               |                |                              value[0:7]: 0x65-0x6d.7 (9)
  0x000006|               2a                              |     *          |                                [0]: 1 oid 0x65-0x65.7 (1)
  0x000006|               2a                              |     *          |                                [1]: 2 oid 0x65-0x65.7 (1)
  0x000006|                  86 48                        |      .H        |                                [2]: 840 oid 0x66-0x67.7 (2)
  0x000006|                        86 f7 0d               |        ...     |                                [3]: 113549 oid 0x68-0x6a.7 (3)
  0x000006|                                 01            |           .    |                                [4]: 1 oid 0x6b-0x6b.7 (1)
  0x000006|                                    01         |            .   |                                [5]: 1 oid 0x6c-0x6c.7 (1)
  0x000006|                                       05      |             .  |                                [6]: 5 oid 0x6d-0x6d.7 (1)
          |                                               |                |                            [1]{}: object 0x6e-0x6f.7 (2)
  0x000006|                                          05   |              . |                              class: "universal" (0) 0x6e-0x6e.1 (0.2)
  0x000006|                                          05   |              . |                              form: "primitive" (0) 0x6e.2-0x6e.2 (0.1)
  0x000006|                                          05   |              . |                              tag: "null" (0x5) 0x6e.3-0x6e.7 (0.5)
  0x000006|                                             00|               .|                              length: "indefinite" (0) 0x6f-0x6f.7 (1)
          |                                               |                |                              value: null 0x70-NA (0)
          |                                               |                |                        [2]{}: object 0x70-0x90.7 (33)
  0x000007|30                                             |0               |                          class: "universal" (0) 0x70-0x70.1 (0.2)
  0x000007|30                                             |0               |                          form: "constructed" (1) 0x70.2-0x70.2 (0.1)
  0x000007|30                                             |0               |                          tag: "sequence" (0x10) 0x70.3-0x70.7 (0.5)
  0x000007|   1f                                          | .              |                          length: 31 0x71-0x71.7 (1)
          |                                               |                |                          constructed[0:1]: 0x72-0x90.7 (31)
          |                                               |                |                            [0]{}: object 0x72-0x90.7 (31)
  0x000007|      31                                       |  1             |                              class: "universal" (0) 0x72-0x72.1 (0.2)
  0x000007|      31                                       |  1             |                              form: "constructed" (1) 0x72.2-0x72.2 (0.1)
  0x000007|      31                                       |  1             |                              tag: "set" (0x11) 0x72.3-0x72.7 (0.5)
  0x000007|         1d                                    |   .            |                              length: 29 0x73-0x73.7 (1)
          |                                               |                |                              constructed[0:1]: 0x74-0x90.7 (29)
          |                                               |                |                                [0]{}: object 0x74-0x90.7 (29)
  0x000007|            30                                 |    0           |                                  class: "universal" (0) 0x74-0x74.1 (0.2)
  0x000007|            30                                 |    0           |                                  form: "constructed" (1) 0x74.2-0x74.2 (0.1)
  0x000007|            30                                 |    0           |                                  tag: "sequence" (0x10) 0x74.3-0x74.7 (0.5)
  0x000007|               1b                              |     .          |                                  length: 27 0x75-0x75.7 (1)
          |                                               |                |                                  constructed[0:2]: 0x76-0x90.7 (27)
          |                                               |                |                                    [0]{}: object 0x76-0x7a.7 (5)
  0x000007|                  06                           |      .         |                                      class: "universal" (0) 0x76-0x76.1 (0.2)
  0x000007|                  06                           |      .         |                                      form: "primitive" (0) 0x76.2-0x76.2 (0.1)
  0x000007|                  06                           |      .         |                                      tag: "object_identifier" (0x6) 0x76.3-0x76.7 (0.5)
  0x000007|                     03                        |       .        |                                      length: 3 0x77-0x77.7 (1)
          |                                               |                |                                      value[0:4]: 0x78-0x7a.7 (3)
  0x000007|                        55                     |        U       |                                        [0]: 2 oid 0x78-0x78.7 (1)
  0x000007|                        55                     |        U       |                                        [1]: 5 oid 0x78-0x78.7 (1)
  0x000007|                           04                  |         .      |                                        [2]: 4 oid 0x79-0x79.7 (1)
  0x000007|                              03               |          .     |                                        [3]: 3 oid 0x7a-0x7a.7 (1)
          |                                               |                |                                    [1]{}: object 0x7b-0x90.7 (22)
  0x000007|                                 0c            |           .    |                                      class: "universal" (0) 0x7b-0x7b.1 (0.2)
  0x000007|                                 0c            |           .    |                                      form: "primitive" (0) 0x7b.2-0x7b.2 (0.1)
  0x000007|                                 0c            |           .    |                                      tag: "utf8_string" (0xc) 0x7b.3-0x7b.7 (0.5)
  0x000007|                                    14         |            .   |                                      length: 20 0x7c-0x7c.7 (1)
  0x000007|                                       54 65 73|             Tes|                                      value: "Test Certificate RSA" 0x7d-0x90.7 (20)
  0x000008|74 20 43 65 72 74 69 66 69 63 61 74 65 20 52 53|t Certificate RS|
  0x000009|41                                             |A               |
          |                                               |                |                        [3]{}: object 0x91-0xb0.7 (32)
  0x000009|   30                                          | 0              |                          class: "universal" (0) 0x91-0x91.1 (0.2)
  0x000009|   30                                          | 0              |                          form: "constructed" (1) 0x91.2-0x91.2 (0.1)
  0x000009|   30                                          | 0              |                          tag: "sequence" (0x10) 0x91.3-0x91.7 (0.5)
  0x000009|      1e                                       |  .             |                          length: 30 0x92-0x92.7 (1)
          |                                               |                |                          constructed[0:2]: 0x93-0xb0.7 (30)
          |                                               |                |                            [0]{}: object 0x93-0xa1.7 (15)
  0x000009|         17                                    |   .            |                              class: "universal" (0) 0x93-0x93.1 (0.2)
  0x000009|         17                                    |   .            |                              form: "primitive" (0) 0x93.2-0x93.2 (0.1)
  0x000009|         17                                    |   .            |                              tag: "utc_time" (0x17) 0x93.3-0x93.7 (0.5)
  0x000009|            0d                                 |    .           |                              length: 13 0x94-0x94.7 (1)
  0x000009|               31 33 30 39 31 35 32 31 35 31 31|     13091521511|                              value: "130915215110Z" 0x95-0xa1.7 (13)
  0x00000a|30 5a                                          |0Z              |
          |                                               |                |                            [1]{}: object 0xa2-0xb0.7 (15)
  0x00000a|      17                                       |  .             |                              class: "universal" (0) 0xa2-0xa2.1 (0.2)
  0x00000a|      17                                       |  .             |                              form: "primitive" (0) 0xa2.2-0xa2.2 (0.1)
  0x00000a|      17                                       |  .             |                              tag: "utc_time" (0x17) 0xa2.3-0xa2.7 (0.5)
  0x00000a|         0d                                    |   .            |                              length: 13 0xa3-0xa3.7 (1)
  0x00000a|            32 33 30 39 31 33 32 31 35 31 31 30|    230913215110|                              value: "230913215110Z" 0xa4-0xb0.7 (13)
  0x00000b|5a                                             |Z               |
          |                                               |                |                        [4]{}: object 0xb1-0xd1.7 (33)
  0x00000b|   30                                          | 0              |                          class: "universal" (0) 0xb1-0xb1.1 (0.2)
  0x00000b|   30                                          | 0              |                          form: "constructed" (1) 0xb1.2-0xb1.2 (0.1)
  0x00000b|   30                                          | 0              |                          tag: "sequence" (0x10) 0xb1.3-0xb1.7 (0.5)
  0x00000b|      1f                                       |  .             |                          length: 31 0xb2-0xb2.7 (1)
          |                                               |                |                          constructed[0:1]: 0xb3-0xd1.7 (31)
          |                                               |                |                            [0]{}: object 0xb3-0xd1.7 (31)
  0x00000b|         31                                    |   1            |                              class: "universal" (0) 0xb3-0xb3.1 (0.2)
  0x00000b|         31                                    |   1            |                              form: "constructed" (1) 0xb3.2-0xb3.2 (0.1)
  0x00000b|         31                                    |   1            |                              tag: "set" (0x11) 0xb3.3-0xb3.7 (0.5)
  0x00000b|            1d                                 |    .           |                              length: 29 0xb4-0xb4.7 (1)
          |                                               |                |                              constructed[0:1]: 0xb5-0xd1.7 (29)
          |                                               |                |                                [0]{}: object 0xb5-0xd1.7 (29)
  0x00000b|               30                              |     0          |                                  class: "universal" (0) 0xb5-0xb5.1 (0.2)
  0x00000b|               30                              |     0          |                                  form: "constructed" (1) 0xb5.2-0xb5.2 (0.1)
  0x00000b|               30                              |     0          |                                  tag: "sequence" (0x10) 0xb5.3-0xb5.7 (0.5)
  0x00000b|                  1b                           |      .         |                                  length: 27 0xb6-0xb6.7 (1)
          |                                               |                |                                  constructed[0:2]: 0xb7-0xd1.7 (27)
          |                                               |                |                                    [0]{}: object 0xb7-0xbb.7 (5)
  0x00000b|                     06                        |       .        |                                      class: "universal" (0) 0xb7-0xb7.1 (0.2)
  0x00000b|                     06                        |       .        |                                      form: "primitive" (0) 0xb7.2-0xb7.2 (0.1)
  0x00000b|                     06                        |       .        |                                      tag: "object_identifier" (0x6) 0xb7.3-0xb7.7 (0.5)
  0x00000b|                        03                     |        .       |                                      length: 3 0xb8-0xb8.7 (1)
          |                                               |                |                                      value[0:4]: 0xb9-0xbb.7 (3)
  0x00000b|                           55                  |         U      |                                        [0]: 2 oid 0xb9-0xb9.7 (1)
  0x00000b|                           55                  |         U      |                                        [1]: 5 oid 0xb9-0xb9.7 (1)
  0x00000b|                              04               |          .     |                                        [2]: 4 oid 0xba-0xba.7 (1)
  0x00000b|                                 03            |           .    |                                        [3]: 3 oid 0xbb-0xbb.7 (1)
          |                                               |                |                                    [1]{}: object 0xbc-0xd1.7 (22)
  0x00000b|                                    0c         |            .   |                                      class: "universal" (0) 0xbc-0xbc.1 (0.2)
  0x00000b|                                    0c         |            .   |                                      form: "primitive" (0) 0xbc.2-0xbc.2 (0.1)
  0x00000b|                                    0c         |            .   |                                      tag: "utf8_string" (0xc) 0xbc.3-0xbc.7 (0.5)
  0x00000b|                                       14      |             .  |                                      length: 20 0xbd-0xbd.7 (1)
  0x00000b|                                          54 65|              Te|                                      value: "Test Certificate RSA" 0xbe-0xd1.7 (20)
  0x00000c|73 74 20 43 65 72 74 69 66 69 63 61 74 65 20 52|st Certificate R|
  0x00000d|53 41                                          |SA              |
          |                                               |                |                        [5]{}: object 0xd2-0x173.7 (162)
  0x00000d|      30                                       |  0             |                          class: "universal" (0) 0xd2-0xd2.1 (0.2)
  0x00000d|      30                                       |  0             |                          form: "constructed" (1) 0xd2.2-0xd2.2 (0.1)
  0x00000d|      30                                       |  0             |                          tag: "sequence" (0x10) 0xd2.3-0xd2.7 (0.5)
  0x00000d|         81 9f                                 |   ..           |                          length: 159 0xd3-0xd4.7 (2)
          |                                               |                |                          constructed[0:2]: 0xd5-0x173.7 (159)
          |                                               |                |                            [0]{}: object 0xd5-0xe3.7 (15)
  0x00000d|               30                              |     0          |                              class: "universal" (0) 0xd5-0xd5.1 (0.2)
  0x00000d|               30                              |     0          |                              form: "constructed" (1) 0xd5.2-0xd5.2 (0.1)
  0x00000d|               30                              |     0          |                              tag: "sequence" (0x10) 0xd5.3-0xd5.7 (0.5)
  0x00000d|                  0d                           |      .         |                              length: 13 0xd6-0xd6.7 (1)
          |                                               |                |                              constructed[0:2]: 0xd7-0xe3.7 (13)
          |                                               |                |                                [0]{}: object 0xd7-0xe1.7 (11)
  0x00000d|                     06                        |       .        |                                  class: "universal" (0) 0xd7-0xd7.1 (0.2)
  0x00000d|                     06                        |       .        |                                  form: "primitive" (0) 0xd7.2-0xd7.2 (0.1)
  0x00000d|                     06                        |       .        |                                  tag: "object_identifier" (0x6) 0xd7.3-0xd7.7 (0.5)
  0x00000d|                        09                     |        .       |                                  length: 9 0xd8-0xd8.7 (1)
          |                                               |                |                                  value[0:7]: 0xd9-0xe1.7 (9)
  0x00000d|                           2a                  |         *      |                                    [0]: 1 oid 0xd9-0xd9.7 (1)
  0x00000d|                           2a                  |         *      |                                    [1]: 2 oid 0xd9-0xd9.7 (1)
  0x00000d|                              86 48            |          .H    |                                    [2]: 840 oid 0xda-0xdb.7 (2)
  0x00000d|                                    86 f7 0d   |            ... |                                    [3]: 113549 oid 0xdc-0xde.7 (3)
  0x00000d|                                             01|               .|                                    [4]: 1 oid 0xdf-0xdf.7 (1)
  0x00000e|01                                             |.               |                                    [5]: 1 oid 0xe0-0xe0.7 (1)
  0x00000e|   01                                          | .              |                                    [6]: 1 oid 0xe1-0xe1.7 (1)
          |                                               |                |                                [1]{}: object 0xe2-0xe3.7 (2)
  0x00000e|      05                                       |  .             |                                  class: "universal" (0) 0xe2-0xe2.1 (0.2)
  0x00000e|      05                                       |  .             |                                  form: "primitive" (0) 0xe2.2-0xe2.2 (0.1)
  0x00000e|      05                                       |  .             |                                  tag: "null" (0x5) 0xe2.3-0xe2.7 (0.5)
  0x00000e|         00                                    |   .            |                                  length: "indefinite" (0) 0xe3-0xe3.7 (1)
          |                                               |                |                                  value: null 0xe4-NA (0)
          |                                               |                |                            [1]{}: object 0xe4-0x173.7 (144)
  0x00000e|            03                                 |    .           |                              class: "universal" (0) 0xe4-0xe4.1 (0.2)
  0x00000e|            03                                 |    .           |                              form: "primitive" (0) 0xe4.2-0xe4.2 (0.1)
  0x00000e|            03                                 |    .           |                              tag: "bit_string" (0x3) 0xe4.3-0xe4.7 (0.5)
  0x00000e|               81 8d                           |     ..         |                              length: 141 0xe5-0xe6.7 (2)
  0x00000e|                     00                        |       .        |                              unused_bits_count: 0 0xe7-0xe7.7 (1)
  0x00000e|                        30 81 89 02 81 81 00 ac|        0.......|                              value: raw bits 0xe8-0x173.7 (140)
  0x00000f|35 2a 93 7f c5 4f 18 98 b2 9f a0 fb 34 e6 e2 8b|5*...O......4...|
  *       |until 0x173.7 (140)                            |                |
          |                                               |                |                    [1]{}: object 0x174-0x182.7 (15)
  0x000017|            30                                 |    0           |                      class: "universal" (0) 0x174-0x174.1 (0.2)
  0x000017|            30                                 |    0           |                      form: "constructed" (1) 0x174.2-0x174.2 (0.1)
  0x000017|            30                                 |    0           |                      tag: "sequence" (0x10) 0x174.3-0x174.7 (0.5)
  0x000017|               0d                              |     .          |                      length: 13 0x175-0x175.7 (1)
          |                                               |                |                      constructed[0:2]: 0x176-0x182.7 (13)
          |                                               |                |                        [0]{}: object 0x176-0x180.7 (11)
  0x000017|                  06                           |      .         |                          class: "universal" (0) 0x176-0x176.1 (0.2)
  0x000017|                  06                           |      .         |                          form: "primitive" (0) 0x176.2-0x176.2 (0.1)
  0x000017|                  06                           |      .         |                          tag: "object_identifier" (0x6) 0x176.3-0x176.7 (0.5)
  0x000017|                     09                        |       .        |                          length: 9 0x177-0x177.7 (1)
          |                                               |                |                          value[0:7]: 0x178-0x180.7 (9)
  0x000017|                        2a                     |        *       |                            [0]: 1 oid 0x178-0x178.7 (1)
  0x000017|                        2a                     |        *       |                            [1]: 2 oid 0x178-0x178.7 (1)
  0x000017|                           86 48               |         .H     |                            [2]: 840 oid 0x179-0x17a.7 (2)
  0x000017|                                 86 f7 0d      |           ...  |                            [3]: 113549 oid 0x17b-0x17d.7 (3)
  0x000017|                                          01   |              . |                            [4]: 1 oid 0x17e-0x17e.7 (1)
  0x000017|                                             01|               .|                            [5]: 1 oid 0x17f-0x17f.7 (1)
  0x000018|05                                             |.               |                            [6]: 5 oid 0x180-0x180.7 (1)
          |                                               |                |                        [1]{}: object 0x181-0x182.7 (2)
  0x000018|   05                                          | .              |                          class: "universal" (0) 0x181-0x181.1 (0.2)
  0x000018|   05                                          | .              |                          form: "primitive" (0) 0x181.2-0x181.2 (0.1)
  0x000018|   05                                          | .              |                          tag: "null" (0x5) 0x181.3-0x181.7 (0.5)
  0x000018|      00                                       |  .             |                          length: "indefinite" (0) 0x182-0x182.7 (1)
          |                                               |                |                          value: null 0x183-NA (0)
          |                                               |                |                    [2]{}: object 0x183-0x206.7 (132)
  0x000018|         03                                    |   .            |                      class: "universal" (0) 0x183-0x183.1 (0.2)
  0x000018|         03                                    |   .            |                      form: "primitive" (0) 0x183.2-0x183.2 (0.1)
  0x000018|         03                                    |   .            |                      tag: "bit_string" (0x3) 0x183.3-0x183.7 (0.5)
  0x000018|            81 81                              |    ..          |                      length: 129 0x184-0x185.7 (2)
  0x000018|                  00                           |      .         |                      unused_bits_count: 0 0x186-0x186.7 (1)
  0x000018|                     67 43 4c a8 a4 3e eb 1b 32|       gCL..>..2|                      value: raw bits 0x187-0x206.7 (128)
  0x000019|28 70 8b db eb fe f1 b3 70 39 95 34 33 26 ef 54|(p......p9.43&.T|
  *       |until 0x206.7 (128)                            |                |
          |                                               |                |        [2]{}: record 0x207-0x20f.7 (9)
  0x000020|                     16                        |       .        |          type: "handshake" (22) (valid) 0x207-0x207.7 (1)
  0x000020|                        03 03                  |        ..      |          version: "tls1.2" (0x303) (valid) 0x208-0x209.7 (2)
  0x000020|                              00 04            |          ..    |          length: 4 0x20a-0x20b.7 (2)
          |                                               |                |          message{}: 0x20c-0x20f.7 (4)
  0x000020|                                    0e         |            .   |            type: "server_hello_done" (14) 0x20c-0x20c.7 (1)
  0x000020|                                       00 00 00|             ...|            length: 0 0x20d-0x20f.7 (3)
          |                                               |                |            data: raw bits 0x210-NA (0)
          |                                               |                |        [3]{}: record 0x210-0x2be.7 (175)
  0x000021|16                                             |.               |          type: "handshake" (22) (valid) 0x210-0x210.7 (1)
  0x000021|   03 03                                       | ..             |          version: "tls1.2" (0x303) (valid) 0x211-0x212.7 (2)
  0x000021|         00 aa                                 |   ..           |          length: 170 0x213-0x214.7 (2)
          |                                               |                |          message{}: 0x215-0x2be.7 (170)
  0x000021|               04                              |     .          |            type: "new_session_ticket" (4) 0x215-0x215.7 (1)
  0x000021|                  00 00 a6                     |      ...       |            length: 166 0x216-0x218.7 (3)
  0x000021|                           00 00 01 2c         |         ...,   |            lifetime_hint: 300 0x219-0x21c.7 (4)
  0x000021|                                       00 a0   |             .. |            ticket_length: 160 0x21d-0x21e.7 (2)
  0x000021|                                             c0|               .|            ticket: raw bits 0x21f-0x2be.7 (160)
  0x000022|b4 67 52 a5 ca da 99 7a 28 d7 eb e7 a1 7e 31 43|.gR....z(....~1C|
  *       |until 0x2be.7 (160)                            |                |
          |                                               |                |        [4]{}: record 0x2bf-0x2c4.7 (6)
  0x00002b|                                             14|               .|          type: "change_cipher_spec" (20) (valid) 0x2bf-0x2bf.7 (1)
  0x00002c|03 03                                          |..              |          version: "tls1.2" (0x303) (valid) 0x2c0-0x2c1.7 (2)
  0x00002c|      00 01                                    |  ..            |          length: 1 0x2c2-0x2c3.7 (2)
          |                                               |                |          message{}: 0x2c4-0x2c4.7 (1)
  0x00002c|            01                                 |    .           |            type: 1 0x2c4-0x2c4.7 (1)
          |                                               |                |        [5]{}: record 0x2c5-0x2f9.7 (53)
  0x00002c|               16                              |     .          |          type: "handshake" (22) (valid) 0x2c5-0x2c5.7 (1)
  0x00002c|                  03 03                        |      ..        |          version: "tls1.2" (0x303) (valid) 0x2c6-0x2c7.7 (2)
  0x00002c|                        00 30                  |        .0      |          length: 48 0x2c8-0x2c9.7 (2)
  0x00002c|                              2e e7 87 ee fc e8|          ......|          encrypted_data: raw bits 0x2ca-0x2f9.7 (48)
  0x00002d|8d 50 89 e2 2f b1 7d 7a 95 64 09 cc c4 6f 66 66|.P../.}z.d...off|
  *       |until 0x2f9.7 (48)                             |                |
          |00 01 02 03 04 05 06 07 08 09 0a 0b 0c 0d 0e 0f|0123456789abcdef|          message{}: 0x0-0xf.7 (16)
    0x0000|14                                             |.               |            type: "finished" (20) 0x0-0x0.7 (1)
    0x0000|   00 00 0c                                    | ...            |            length: 12 0x1-0x3.7 (3)
    0x0000|            41 46 8b 56 d8 70 45 3f ae 08 05 12|    AF.V.pE?....|            verify_data: raw bits 0x4-0xf.7 (12)
          |                                               |                |        [6]{}: record 0x2fa-0x777.7 (1150)
  0x00002f|                              17               |          .     |          type: "application_data" (23) (valid) 0x2fa-0x2fa.7 (1)
  0x00002f|                                 03 03         |           ..   |          version: "tls1.2" (0x303) (valid) 0x2fb-0x2fc.7 (2)
  0x00002f|                                       04 79   |             .y |          length: 1145 0x2fd-0x2fe.7 (2)
  0x00002f|                                             2e|               .|          encrypted_data: raw bits 0x2ff-0x777.7 (1145)
  0x000030|e7 87 ee fc e8 8d 51 a0 f6 75 31 4f 66 5f cc 18|......Q..u1Of_..|
  *       |until 0x777.7 (end) (1145)                     |                |
          |00 01 02 03 04 05 06 07 08 09 0a 0b 0c 0d 0e 0f|0123456789abcdef|
    0x0000|48 54 54 50 2f 31 2e 30 20 32 30 30 20 6f 6b 0d|HTTP/1.0 200 ok.|          message: raw bits 0x0-0x112c.7 (4397)
    *     |until 0x112c.7 (end) (4397)                    |                |
          |00 01 02 03 04 05 06 07 08 09 0a 0b 0c 0d 0e 0f|0123456789abcdef|
    0x0000|48 54 54 50 2f 31 2e 30 20 32 30 30 20 6f 6b 0d|HTTP/1.0 200 ok.|      stream: raw bits 0x0-0x112c.7 (4397)
    *     |until 0x112c.7 (end) (4397)                    |                |
