$ fq -o keylog=@all.keylog ".tcp_connections[0] | dv" TLS_DHE_DSS_WITH_AES_256_CBC_SHA256.pcap
          |00 01 02 03 04 05 06 07 08 09 0a 0b 0c 0d 0e 0f|0123456789abcdef|.tcp_connections[0]{}: tcp_connection 0xefc-0xefc (0)
          |                                               |                |  client{}: 0xefc-0xefc (0)
          |                                               |                |    ip: "127.0.0.1"
          |                                               |                |    port: 56714
          |                                               |                |    has_start: true
          |                                               |                |    has_end: false
          |                                               |                |    skipped_bytes: 0
          |00 01 02 03 04 05 06 07 08 09 0a 0b 0c 0d 0e 0f|0123456789abcdef|    stream{}: (tls) 0x0-0x1a6 (422)
          |                                               |                |      records[0:6]: 0x0-0x1a6 (422)
          |                                               |                |        [0]{}: record 0x0-0x66 (102)
  0x000000|16                                             |.               |          type: "handshake" (22) (valid) 0x0-0x1 (1)
  0x000000|   03 01                                       | ..             |          version: "tls1.0" (0x301) (valid) 0x1-0x3 (2)
  0x000000|         00 61                                 |   .a           |          length: 97 0x3-0x5 (2)
          |                                               |                |          message{}: 0x5-0x66 (97)
  0x000000|               01                              |     .          |            type: "client_hello" (1) 0x5-0x6 (1)
  0x000000|                  00 00 5d                     |      ..]       |            length: 93 0x6-0x9 (3)
  0x000000|                           03 03               |         ..     |            version: "tls1.2" (0x303) 0x9-0xb (2)
          |                                               |                |            random{}: 0xb-0x2b (32)
  0x000000|                                 52 36 2c 10   |           R6,. |              gmt_unix_time: 1379281936 (2013-09-15T21:52:16Z) 0xb-0xf (4)
  0x000000|                                             a3|               .|              random_bytes: raw bits 0xf-0x2b (28)
  0x000001|b4 e9 82 46 0e d0 98 08 6a 76 c9 6b 4e c7 bf f2|...F....jv.kN...|
  0x000002|93 a8 5f d1 3f 61 82 9b 60 3e 40               |.._.?a..`>@     |
  0x000002|                                 00            |           .    |            session_id_length: 0 0x2b-0x2c (1)
          |                                               |                |            session_id: raw bits 0x2c-0x2c (0)
  0x000002|                                    00 04      |            ..  |            cipher_suits_length: 4 0x2c-0x2e (2)
          |                                               |                |            cipher_suits[0:2]: 0x2e-0x32 (4)
  0x000002|                                          00 6a|              .j|              [0]: "TLS_DHE_DSS_WITH_AES_256_CBC_SHA256" (0x6a) cipher_suit 0x2e-0x30 (2)
  0x000003|00 ff                                          |..              |              [1]: "TLS_EMPTY_RENEGOTIATION_INFO_SCSV" (0xff) cipher_suit 0x30-0x32 (2)
  0x000003|      02                                       |  .             |            compression_methods_length: 2 0x32-0x33 (1)
          |                                               |                |            compression_methods[0:2]: 0x33-0x35 (2)
  0x000003|         01                                    |   .            |              [0]: "deflate" (0x1) compression_method 0x33-0x34 (1)
  0x000003|            00                                 |    .           |              [1]: "null" (0x0) compression_method 0x34-0x35 (1)
  0x000003|               00 2f                           |     ./         |            extensions_length: 47 0x35-0x37 (2)
          |                                               |                |            extensions[0:3]: 0x37-0x66 (47)
          |                                               |                |              [0]{}: extension 0x37-0x3b (4)
  0x000003|                     00 23                     |       .#       |                type: "session_ticket" (35) 0x37-0x39 (2)
  0x000003|                           00 00               |         ..     |                length: 0 0x39-0x3b (2)
          |                                               |                |              [1]{}: extension 0x3b-0x61 (38)
  0x000003|                                 00 0d         |           ..   |                type: "signature_algorithms" (13) 0x3b-0x3d (2)
  0x000003|                                       00 22   |             ." |                length: 34 0x3d-0x3f (2)
  0x000003|                                             00|               .|                signature_algorithms_length: 32 0x3f-0x41 (2)
  0x000004|20                                             |                |
          |                                               |                |                signature_algorithms[0:16]: 0x41-0x61 (32)
          |                                               |                |                  [0]{}: signature_algorithm 0x41-0x43 (2)
  0x000004|   06                                          | .              |                    hash: "sha512" (6) 0x41-0x42 (1)
  0x000004|      01                                       |  .             |                    signature: "rsa" (1) 0x42-0x43 (1)
          |                                               |                |                  [1]{}: signature_algorithm 0x43-0x45 (2)
  0x000004|         06                                    |   .            |                    hash: "sha512" (6) 0x43-0x44 (1)
  0x000004|            02                                 |    .           |                    signature: "dsa" (2) 0x44-0x45 (1)
          |                                               |                |                  [2]{}: signature_algorithm 0x45-0x47 (2)
  0x000004|               06                              |     .          |                    hash: "sha512" (6) 0x45-0x46 (1)
  0x000004|                  03                           |      .         |                    signature: "ecdsa" (3) 0x46-0x47 (1)
          |                                               |                |                  [3]{}: signature_algorithm 0x47-0x49 (2)
  0x000004|                     05                        |       .        |                    hash: "sha384" (5) 0x47-0x48 (1)
  0x000004|                        01                     |        .       |                    signature: "rsa" (1) 0x48-0x49 (1)
          |                                               |                |                  [4]{}: signature_algorithm 0x49-0x4b (2)
  0x000004|                           05                  |         .      |                    hash: "sha384" (5) 0x49-0x4a (1)
  0x000004|                              02               |          .     |                    signature: "dsa" (2) 0x4a-0x4b (1)
          |                                               |                |                  [5]{}: signature_algorithm 0x4b-0x4d (2)
  0x000004|                                 05            |           .    |                    hash: "sha384" (5) 0x4b-0x4c (1)
  0x000004|                                    03         |            .   |                    signature: "ecdsa" (3) 0x4c-0x4d (1)
          |                                               |                |                  [6]{}: signature_algorithm 0x4d-0x4f (2)
  0x000004|                                       04      |             .  |                    hash: "sha256" (4) 0x4d-0x4e (1)
  0x000004|                                          01   |              . |                    signature: "rsa" (1) 0x4e-0x4f (1)
          |                                               |                |                  [7]{}: signature_algorithm 0x4f-0x51 (2)
  0x000004|                                             04|               .|                    hash: "sha256" (4) 0x4f-0x50 (1)
  0x000005|02                                             |.               |                    signature: "dsa" (2) 0x50-0x51 (1)
          |                                               |                |                  [8]{}: signature_algorithm 0x51-0x53 (2)
  0x000005|   04                                          | .              |                    hash: "sha256" (4) 0x51-0x52 (1)
  0x000005|      03                                       |  .             |                    signature: "ecdsa" (3) 0x52-0x53 (1)
          |                                               |                |                  [9]{}: signature_algorithm 0x53-0x55 (2)
  0x000005|         03                                    |   .            |                    hash: "sha224" (3) 0x53-0x54 (1)
  0x000005|            01                                 |    .           |                    signature: "rsa" (1) 0x54-0x55 (1)
          |                                               |                |                  [10]{}: signature_algorithm 0x55-0x57 (2)
  0x000005|               03                              |     .          |                    hash: "sha224" (3) 0x55-0x56 (1)
  0x000005|                  02                           |      .         |                    signature: "dsa" (2) 0x56-0x57 (1)
          |                                               |                |                  [11]{}: signature_algorithm 0x57-0x59 (2)
  0x000005|                     03                        |       .        |                    hash: "sha224" (3) 0x57-0x58 (1)
  0x000005|                        03                     |        .       |                    signature: "ecdsa" (3) 0x58-0x59 (1)
          |                                               |                |                  [12]{}: signature_algorithm 0x59-0x5b (2)
  0x000005|                           02                  |         .      |                    hash: "sha1" (2) 0x59-0x5a (1)
  0x000005|                              01               |          .     |                    signature: "rsa" (1) 0x5a-0x5b (1)
          |                                               |                |                  [13]{}: signature_algorithm 0x5b-0x5d (2)
  0x000005|                                 02            |           .    |                    hash: "sha1" (2) 0x5b-0x5c (1)
  0x000005|                                    02         |            .   |                    signature: "dsa" (2) 0x5c-0x5d (1)
          |                                               |                |                  [14]{}: signature_algorithm 0x5d-0x5f (2)
  0x000005|                                       02      |             .  |                    hash: "sha1" (2) 0x5d-0x5e (1)
  0x000005|                                          03   |              . |                    signature: "ecdsa" (3) 0x5e-0x5f (1)
          |                                               |                |                  [15]{}: signature_algorithm 0x5f-0x61 (2)
  0x000005|                                             01|               .|                    hash: "md5" (1) 0x5f-0x60 (1)
  0x000006|01                                             |.               |                    signature: "rsa" (1) 0x60-0x61 (1)
          |                                               |                |              [2]{}: extension 0x61-0x66 (5)
  0x000006|   00 0f                                       | ..             |                type: "heartbeat" (15) 0x61-0x63 (2)
  0x000006|         00 01                                 |   ..           |                length: 1 0x63-0x65 (2)
  0x000006|               01                              |     .          |                data: raw bits 0x65-0x66 (1)
          |                                               |                |        [1]{}: record 0x66-0xb1 (75)
  0x000006|                  16                           |      .         |          type: "handshake" (22) (valid) 0x66-0x67 (1)
  0x000006|                     03 03                     |       ..       |          version: "tls1.2" (0x303) (valid) 0x67-0x69 (2)
  0x000006|                           00 46               |         .F     |          length: 70 0x69-0x6b (2)
          |                                               |                |          message{}: 0x6b-0xb1 (70)
  0x000006|                                 10            |           .    |            type: "client_key_exchange" (16) 0x6b-0x6c (1)
  0x000006|                                    00 00 42   |            ..B |            length: 66 0x6c-0x6f (3)
          |                                               |                |            public{}: 0x6f-0x6f (0)
  0x000006|                                             00|               .|              length: 64 0x6f-0x71 (2)
  0x000007|40                                             |@               |
  0x000007|   af e1 f2 98 ef 9a 83 8a 86 f3 1b 9e 9f 76 9c| .............v.|              data: raw bits 0x71-0xb1 (64)
  0x000008|db 94 f5 6f 97 93 ed 4a 41 43 25 06 5e 8d df ae|...o...JAC%.^...|
  *       |until 0xb0.7 (64)                              |                |
          |                                               |                |        [2]{}: record 0xb1-0xb7 (6)
  0x00000b|   14                                          | .              |          type: "change_cipher_spec" (20) (valid) 0xb1-0xb2 (1)
  0x00000b|      03 03                                    |  ..            |          version: "tls1.2" (0x303) (valid) 0xb2-0xb4 (2)
  0x00000b|            00 01                              |    ..          |          length: 1 0xb4-0xb6 (2)
          |                                               |                |          message{}: 0xb6-0xb7 (1)
  0x00000b|                  01                           |      .         |            type: 1 0xb6-0xb7 (1)
          |                                               |                |        [3]{}: record 0xb7-0x10c (85)
  0x00000b|                     16                        |       .        |          type: "handshake" (22) (valid) 0xb7-0xb8 (1)
  0x00000b|                        03 03                  |        ..      |          version: "tls1.2" (0x303) (valid) 0xb8-0xba (2)
  0x00000b|                              00 50            |          .P    |          length: 80 0xba-0xbc (2)
  0x00000b|                                    fb 4e 82 cc|            .N..|          encrypted_data: raw bits 0xbc-0x10c (80)
  0x00000c|4d 62 7d 9f df 7e 98 32 f1 15 c9 3d 99 4a 44 4c|Mb}..~.2...=.JDL|
  *       |until 0x10b.7 (80)                             |                |
          |00 01 02 03 04 05 06 07 08 09 0a 0b 0c 0d 0e 0f|0123456789abcdef|          message{}: 0x0-0x10 (16)
    0x0000|14                                             |.               |            type: "finished" (20) 0x0-0x1 (1)
    0x0000|   00 00 0c                                    | ...            |            length: 12 0x1-0x4 (3)
    0x0000|            01 19 5b 93 73 cc d1 b4 c6 19 fb a6|    ..[.s.......|            verify_data: raw bits 0x4-0x10 (12)
          |                                               |                |        [4]{}: record 0x10c-0x161 (85)
  0x000010|                                    17         |            .   |          type: "application_data" (23) (valid) 0x10c-0x10d (1)
  0x000010|                                       03 03   |             .. |          version: "tls1.2" (0x303) (valid) 0x10d-0x10f (2)
  0x000010|                                             00|               .|          length: 80 0x10f-0x111 (2)
  0x000011|50                                             |P               |
  0x000011|   f6 ba ef e8 02 40 c5 ad 4a 3e 50 d8 4b 20 78| .....@..J>P.K x|          encrypted_data: raw bits 0x111-0x161 (80)
  0x000012|8a f3 d0 81 20 8d 7a 8f 81 61 2e 30 e6 cd 8f 89|.... .z..a.0....|
  *       |until 0x160.7 (80)                             |                |
          |00 01 02 03 04 05 06 07 08 09 0a 0b 0c 0d 0e 0f|0123456789abcdef|
    0x0000|47 45 54 20 2f 20 48 54 54 50 2f 31 2e 30 0d 0a|GET / HTTP/1.0..|          message: raw bits 0x0-0x12 (18)
    0x0000|0d 0a|                                         |..|             |
          |                                               |                |        [5]{}: record 0x161-0x1a6 (69)
  0x000016|   15                                          | .              |          type: "alert" (21) (valid) 0x161-0x162 (1)
  0x000016|      03 03                                    |  ..            |          version: "tls1.2" (0x303) (valid) 0x162-0x164 (2)
  0x000016|            00 40                              |    .@          |          length: 64 0x164-0x166 (2)
  0x000016|                  86 96 03 f5 57 88 94 b9 18 7f|      ....W.....|          encrypted_data: raw bits 0x166-0x1a6 (64)
  0x000017|5f 58 8d 74 74 e0 d9 a4 81 f6 d3 5c 72 01 3d 25|_X.tt......\r.=%|
  *       |until 0x1a5.7 (end) (64)                       |                |
          |00 01 02 03 04 05 06 07 08 09 0a 0b 0c 0d 0e 0f|0123456789abcdef|          message{}: 0x0-0x2 (2)
    0x0000|01                                             |.               |            level: "warning" (1) 0x0-0x1 (1)
    0x0000|   00|                                         | .|             |            description: "close_notify" (0) 0x1-0x2 (1)
          |00 01 02 03 04 05 06 07 08 09 0a 0b 0c 0d 0e 0f|0123456789abcdef|
    0x0000|47 45 54 20 2f 20 48 54 54 50 2f 31 2e 30 0d 0a|GET / HTTP/1.0..|      stream: raw bits 0x0-0x12 (18)
    0x0000|0d 0a|                                         |..|             |
          |                                               |                |  server{}: 0xefc-0xefc (0)
          |                                               |                |    ip: "127.0.0.1"
          |                                               |                |    port: 4433
          |                                               |                |    has_start: true
          |                                               |                |    has_end: true
          |                                               |                |    skipped_bytes: 0
          |00 01 02 03 04 05 06 07 08 09 0a 0b 0c 0d 0e 0f|0123456789abcdef|    stream{}: (tls) 0x0-0x93e (2366)
          |                                               |                |      records[0:8]: 0x0-0x93e (2366)
          |                                               |                |        [0]{}: record 0x0-0x3f (63)
  0x000000|16                                             |.               |          type: "handshake" (22) (valid) 0x0-0x1 (1)
  0x000000|   03 03                                       | ..             |          version: "tls1.2" (0x303) (valid) 0x1-0x3 (2)
  0x000000|         00 3a                                 |   .:           |          length: 58 0x3-0x5 (2)
          |                                               |                |          message{}: 0x5-0x3f (58)
  0x000000|               02                              |     .          |            type: "server_hello" (2) 0x5-0x6 (1)
  0x000000|                  00 00 36                     |      ..6       |            length: 54 0x6-0x9 (3)
  0x000000|                           03 03               |         ..     |            version: "tls1.2" (0x303) 0x9-0xb (2)
          |                                               |                |            random{}: 0xb-0x2b (32)
  0x000000|                                 52 36 2c 10   |           R6,. |              gmt_unix_time: 1379281936 (2013-09-15T21:52:16Z) 0xb-0xf (4)
  0x000000|                                             b9|               .|              random_bytes: raw bits 0xf-0x2b (28)
  0x000001|68 e2 37 be 6d 55 f0 16 f1 43 ef c9 1b 42 d9 77|h.7.mU...C...B.w|
  0x000002|44 03 21 aa dd ef 54 ed 62 75 38               |D.!...T.bu8     |
  0x000002|                                 00            |           .    |            session_id_length: 0 0x2b-0x2c (1)
          |                                               |                |            session_id: raw bits 0x2c-0x2c (0)
  0x000002|                                    00 6a      |            .j  |            cipher_suit: "TLS_DHE_DSS_WITH_AES_256_CBC_SHA256" (0x6a) 0x2c-0x2e (2)
  0x000002|                                          01   |              . |            compression_method: "deflate" (0x1) 0x2e-0x2f (1)
  0x000002|                                             00|               .|            extensions_length: 14 0x2f-0x31 (2)
  0x000003|0e                                             |.               |
          |                                               |                |            extensions[0:3]: 0x31-0x3f (14)
          |                                               |                |              [0]{}: extension 0x31-0x36 (5)
  0x000003|   ff 01                                       | ..             |                type: "renegotiation_info" (65281) 0x31-0x33 (2)
  0x000003|         00 01                                 |   ..           |                length: 1 0x33-0x35 (2)
  0x000003|               00                              |     .          |                data: raw bits 0x35-0x36 (1)
          |                                               |                |              [1]{}: extension 0x36-0x3a (4)
  0x000003|                  00 23                        |      .#        |                type: "session_ticket" (35) 0x36-0x38 (2)
  0x000003|                        00 00                  |        ..      |                length: 0 0x38-0x3a (2)
          |                                               |                |              [2]{}: extension 0x3a-0x3f (5)
  0x000003|                              00 0f            |          ..    |                type: "heartbeat" (15) 0x3a-0x3c (2)
  0x000003|                                    00 01      |            ..  |                length: 1 0x3c-0x3e (2)
  0x000003|                                          01   |              . |                data: raw bits 0x3e-0x3f (1)
          |                                               |                |        [1]{}: record 0x3f-0x2c4 (645)
  0x000003|                                             16|               .|          type: "handshake" (22) (valid) 0x3f-0x40 (1)
  0x000004|03 03                                          |..              |          version: "tls1.2" (0x303) (valid) 0x40-0x42 (2)
  0x000004|      02 80                                    |  ..            |          length: 640 0x42-0x44 (2)
          |                                               |                |          message{}: 0x44-0x2c4 (640)
  0x000004|            0b                                 |    .           |            type: "certificate" (11) 0x44-0x45 (1)
  0x000004|               00 02 7c                        |     ..|        |            length: 636 0x45-0x48 (3)
  0x000004|                        00 02 79               |        ..y     |            certificates_length: 633 0x48-0x4b (3)
          |                                               |                |            certificates[0:1]: 0x4b-0x2c4 (633)
          |                                               |                |              [0]{}: certificate 0x4b-0x2c4 (633)
  0x000004|                                 00 02 76      |           ..v  |                length: 630 0x4b-0x4e (3)
          |00 01 02 03 04 05 06 07 08 09 0a 0b 0c 0d 0e 0f|0123456789abcdef|                data{}: (asn1_ber) 0x4e-0x2c4 (630)
  0x000004|                                          30   |              0 |                  class: "universal" (0) 0x4e-0x4e.2 (0.2)
  0x000004|                                          30   |              0 |                  form: "constructed" (1) 0x4e.2-0x4e.3 (0.1)
  0x000004|                                          30   |              0 |                  tag: "sequence" (0x10) 0x4e.3-0x4f (0.5)
  0x000004|                                             82|               .|                  length: 626 0x4f-0x52 (3)
  0x000005|02 72                                          |.r              |
          |                                               |                |                  constructed[0:3]: 0x52-0x2c4 (626)
          |                                               |                |                    [0]{}: object 0x52-0x288 (566)
  0x000005|      30                                       |  0             |                      class: "universal" (0) 0x52-0x52.2 (0.2)
  0x000005|      30                                       |  0             |                      form: "constructed" (1) 0x52.2-0x52.3 (0.1)
  0x000005|      30                                       |  0             |                      tag: "sequence" (0x10) 0x52.3-0x53 (0.5)
  0x000005|         82 02 32                              |   ..2          |                      length: 562 0x53-0x56 (3)
          |                                               |                |                      constructed[0:6]: 0x56-0x288 (562)
          |                                               |                |                        [0]{}: object 0x56-0x61 (11)
  0x000005|                  02                           |      .         |                          class: "universal" (0) 0x56-0x56.2 (0.2)
  0x000005|                  02                           |      .         |                          form: "primitive" (0) 0x56.2-0x56.3 (0.1)
  0x000005|                  02                           |      .         |                          tag: "integer" (0x2) 0x56.3-0x57 (0.5)
  0x000005|                     09                        |       .        |                          length: 9 0x57-0x58 (1)
  0x000005|                        00 c6 85 8b d3 08 d4 32|        .......2|                          value: 14304993529914733277 0x58-0x61 (9)
  0x000006|dd                                             |.               |
          |                                               |                |                        [1]{}: object 0x61-0x6c (11)
  0x000006|   30                                          | 0              |                          class: "universal" (0) 0x61-0x61.2 (0.2)
  0x000006|   30                                          | 0              |                          form: "constructed" (1) 0x61.2-0x61.3 (0.1)
  0x000006|   30                                          | 0              |                          tag: "sequence" (0x10) 0x61.3-0x62 (0.5)
  0x000006|      09                                       |  .             |                          length: 9 0x62-0x63 (1)
          |                                               |                |                          constructed[0:1]: 0x63-0x6c (9)
          |                                               |                |                            [0]{}: object 0x63-0x6c (9)
  0x000006|         06                                    |   .            |                              class: "universal" (0) 0x63-0x63.2 (0.2)
  0x000006|         06                                    |   .            |                              form: "primitive" (0) 0x63.2-0x63.3 (0.1)
  0x000006|         06                                    |   .            |                              tag: "object_identifier" (0x6) 0x63.3-0x64 (0.5)
  0x000006|            07                                 |    .           |                              length: 7 0x64-0x65 (1)
          |                                               |                |                              value[0:6]: 0x65-0x6c (7)
  0x000006|               2a                              |     *          |                                [0]: 1 oid 0x65-0x66 (1)
  0x000006|               2a                              |     *          |                                [1]: 2 oid 0x65-0x66 (1)
  0x000006|                  86 48                        |      .H        |                                [2]: 840 oid 0x66-0x68 (2)
  0x000006|                        ce 38                  |        .8      |                                [3]: 10040 oid 0x68-0x6a (2)
  0x000006|                              04               |          .     |                                [4]: 4 oid 0x6a-0x6b (1)
  0x000006|                                 03            |           .    |                                [5]: 3 oid 0x6b-0x6c (1)
          |                                               |                |                        [2]{}: object 0x6c-0x8d (33)
  0x000006|                                    30         |            0   |                          class: "universal" (0) 0x6c-0x6c.2 (0.2)
  0x000006|                                    30         |            0   |                          form: "constructed" (1) 0x6c.2-0x6c.3 (0.1)
  0x000006|                                    30         |            0   |                          tag: "sequence" (0x10) 0x6c.3-0x6d (0.5)
  0x000006|                                       1f      |             .  |                          length: 31 0x6d-0x6e (1)
          |                                               |                |                          constructed[0:1]: 0x6e-0x8d (31)
          |                                               |                |                            [0]{}: object 0x6e-0x8d (31)
  0x000006|                                          31   |              1 |                              class: "universal" (0) 0x6e-0x6e.2 (0.2)
  0x000006|                                          31   |              1 |                              form: "constructed" (1) 0x6e.2-0x6e.3 (0.1)
  0x000006|                                          31   |              1 |                              tag: "set" (0x11) 0x6e.3-0x6f (0.5)
  0x000006|                                             1d|               .|                              length: 29 0x6f-0x70 (1)
          |                                               |                |                              constructed[0:1]: 0x70-0x8d (29)
          |                                               |                |                                [0]{}: object 0x70-0x8d (29)
  0x000007|30                                             |0               |                                  class: "universal" (0) 0x70-0x70.2 (0.2)
  0x000007|30                                             |0               |                                  form: "constructed" (1) 0x70.2-0x70.3 (0.1)
  0x000007|30                                             |0               |                                  tag: "sequence" (0x10) 0x70.3-0x71 (0.5)
  0x000007|   1b                                          | .              |                                  length: 27 0x71-0x72 (1)
          |                                               |                |                                  constructed[0:2]: 0x72-0x8d (27)
          |                                               |                |                                    [0]{}: object 0x72-0x77 (5)
  0x000007|      06                                       |  .             |                                      class: "universal" (0) 0x72-0x72.2 (0.2)
  0x000007|      06                                       |  .             |                                      form: "primitive" (0) 0x72.2-0x72.3 (0.1)
  0x000007|      06                                       |  .             |                                      tag: "object_identifier" (0x6) 0x72.3-0x73 (0.5)
  0x000007|         03                                    |   .            |                                      length: 3 0x73-0x74 (1)
          |                                               |                |                                      value[0:4]: 0x74-0x77 (3)
  0x000007|            55                                 |    U           |                                        [0]: 2 oid 0x74-0x75 (1)
  0x000007|            55                                 |    U           |                                        [1]: 5 oid 0x74-0x75 (1)
  0x000007|               04                              |     .          |                                        [2]: 4 oid 0x75-0x76 (1)
  0x000007|                  03                           |      .         |                                        [3]: 3 oid 0x76-0x77 (1)
          |                                               |                |                                    [1]{}: object 0x77-0x8d (22)
  0x000007|                     0c                        |       .        |                                      class: "universal" (0) 0x77-0x77.2 (0.2)
  0x000007|                     0c                        |       .        |                                      form: "primitive" (0) 0x77.2-0x77.3 (0.1)
  0x000007|                     0c                        |       .        |                                      tag: "utf8_string" (0xc) 0x77.3-0x78 (0.5)
  0x000007|                        14                     |        .       |                                      length: 20 0x78-0x79 (1)
  0x000007|                           54 65 73 74 20 43 65|         Test Ce|                                      value: "Test Certificate DSS" 0x79-0x8d (20)
  0x000008|72 74 69 66 69 63 61 74 65 20 44 53 53         |rtificate DSS   |
          |                                               |                |                        [3]{}: object 0x8d-0xad (32)
  0x000008|                                       30      |             0  |                          class: "universal" (0) 0x8d-0x8d.2 (0.2)
  0x000008|                                       30      |             0  |                          form: "constructed" (1) 0x8d.2-0x8d.3 (0.1)
  0x000008|                                       30      |             0  |                          tag: "sequence" (0x10) 0x8d.3-0x8e (0.5)
  0x000008|                                          1e   |              . |                          length: 30 0x8e-0x8f (1)
          |                                               |                |                          constructed[0:2]: 0x8f-0xad (30)
          |                                               |                |                            [0]{}: object 0x8f-0x9e (15)
  0x000008|                                             17|               .|                              class: "universal" (0) 0x8f-0x8f.2 (0.2)
  0x000008|                                             17|               .|                              form: "primitive" (0) 0x8f.2-0x8f.3 (0.1)
  0x000008|                                             17|               .|                              tag: "utc_time" (0x17) 0x8f.3-0x90 (0.5)
  0x000009|0d                                             |.               |                              length: 13 0x90-0x91 (1)
  0x000009|   31 33 30 39 31 35 32 31 35 31 31 30 5a      | 130915215110Z  |                              value: "130915215110Z" 0x91-0x9e (13)
          |                                               |                |                            [1]{}: object 0x9e-0xad (15)
  0x000009|                                          17   |              . |                              class: "universal" (0) 0x9e-0x9e.2 (0.2)
  0x000009|                                          17   |              . |                              form: "primitive" (0) 0x9e.2-0x9e.3 (0.1)
  0x000009|                                          17   |              . |                              tag: "utc_time" (0x17) 0x9e.3-0x9f (0.5)
  0x000009|                                             0d|               .|                              length: 13 0x9f-0xa0 (1)
  0x00000a|32 33 30 39 31 33 32 31 35 31 31 30 5a         |230913215110Z   |                              value: "230913215110Z" 0xa0-0xad (13)
          |                                               |                |                        [4]{}: object 0xad-0xce (33)
  0x00000a|                                       30      |             0  |                          class: "universal" (0) 0xad-0xad.2 (0.2)
  0x00000a|                                       30      |             0  |                          form: "constructed" (1) 0xad.2-0xad.3 (0.1)
  0x00000a|                                       30      |             0  |                          tag: "sequence" (0x10) 0xad.3-0xae (0.5)
  0x00000a|                                          1f   |              . |                          length: 31 0xae-0xaf (1)
          |                                               |                |                          constructed[0:1]: 0xaf-0xce (31)
          |                                               |                |                            [0]{}: object 0xaf-0xce (31)
  0x00000a|                                             31|               1|                              class: "universal" (0) 0xaf-0xaf.2 (0.2)
  0x00000a|                                             31|               1|                              form: "constructed" (1) 0xaf.2-0xaf.3 (0.1)
  0x00000a|                                             31|               1|                              tag: "set" (0x11) 0xaf.3-0xb0 (0.5)
  0x00000b|1d                                             |.               |                              length: 29 0xb0-0xb1 (1)
          |                                               |                |                              constructed[0:1]: 0xb1-0xce (29)
          |                                               |                |                                [0]{}: object 0xb1-0xce (29)
  0x00000b|   30                                          | 0              |                                  class: "universal" (0) 0xb1-0xb1.2 (0.2)
  0x00000b|   30                                          | 0              |                                  form: "constructed" (1) 0xb1.2-0xb1.3 (0.1)
  0x00000b|   30                                          | 0              |                                  tag: "sequence" (0x10) 0xb1.3-0xb2 (0.5)
  0x00000b|      1b                                       |  .             |                                  length: 27 0xb2-0xb3 (1)
          |                                               |                |                                  constructed[0:2]: 0xb3-0xce (27)
          |                                               |                |                                    [0]{}: object 0xb3-0xb8 (5)
  0x00000b|         06                                    |   .            |                                      class: "universal" (0) 0xb3-0xb3.2 (0.2)
  0x00000b|         06                                    |   .            |                                      form: "primitive" (0) 0xb3.2-0xb3.3 (0.1)
  0x00000b|         06                                    |   .            |                                      tag: "object_identifier" (0x6) 0xb3.3-0xb4 (0.5)
  0x00000b|            03                                 |    .           |                                      length: 3 0xb4-0xb5 (1)
          |                                               |                |                                      value[0:4]: 0xb5-0xb8 (3)
  0x00000b|               55                              |     U          |                                        [0]: 2 oid 0xb5-0xb6 (1)
  0x00000b|               55                              |     U          |                                        [1]: 5 oid 0xb5-0xb6 (1)
  0x00000b|                  04                           |      .         |                                        [2]: 4 oid 0xb6-0xb7 (1)
  0x00000b|                     03                        |       .        |                                        [3]: 3 oid 0xb7-0xb8 (1)
          |                                               |                |                                    [1]{}: object 0xb8-0xce (22)
  0x00000b|                        0c                     |        .       |                                      class: "universal" (0) 0xb8-0xb8.2 (0.2)
  0x00000b|                        0c                     |        .       |                                      form: "primitive" (0) 0xb8.2-0xb8.3 (0.1)
  0x00000b|                        0c                     |        .       |                                      tag: "utf8_string" (0xc) 0xb8.3-0xb9 (0.5)
  0x00000b|                           14                  |         .      |                                      length: 20 0xb9-0xba (1)
  0x00000b|                              54 65 73 74 20 43|          Test C|                                      value: "Test Certificate DSS" 0xba-0xce (20)
  0x00000c|65 72 74 69 66 69 63 61 74 65 20 44 53 53      |ertificate DSS  |
          |                                               |                |                        [5]{}: object 0xce-0x288 (442)
  0x00000c|                                          30   |              0 |                          class: "universal" (0) 0xce-0xce.2 (0.2)
  0x00000c|                                          30   |              0 |                          form: "constructed" (1) 0xce.2-0xce.3 (0.1)
  0x00000c|                                          30   |              0 |                          tag: "sequence" (0x10) 0xce.3-0xcf (0.5)
  0x00000c|                                             82|               .|                          length: 438 0xcf-0xd2 (3)
  0x00000d|01 b6                                          |..              |
          |                                               |                |                          constructed[0:2]: 0xd2-0x288 (438)
          |                                               |                |                            [0]{}: object 0xd2-0x201 (303)
  0x00000d|      30                                       |  0             |                              class: "universal" (0) 0xd2-0xd2.2 (0.2)
  0x00000d|      30                                       |  0             |                              form: "constructed" (1) 0xd2.2-0xd2.3 (0.1)
  0x00000d|      30                                       |  0             |                              tag: "sequence" (0x10) 0xd2.3-0xd3 (0.5)
  0x00000d|         82 01 2b                              |   ..+          |                              length: 299 0xd3-0xd6 (3)
          |                                               |                |                              constructed[0:2]: 0xd6-0x201 (299)
          |                                               |                |                                [0]{}: object 0xd6-0xdf (9)
  0x00000d|                  06                           |      .         |                                  class: "universal" (0) 0xd6-0xd6.2 (0.2)
  0x00000d|                  06                           |      .         |                                  form: "primitive" (0) 0xd6.2-0xd6.3 (0.1)
  0x00000d|                  06                           |      .         |                                  tag: "object_identifier" (0x6) 0xd6.3-0xd7 (0.5)
  0x00000d|                     07                        |       .        |                                  length: 7 0xd7-0xd8 (1)
          |                                               |                |                                  value[0:6]: 0xd8-0xdf (7)
  0x00000d|                        2a                     |        *       |                                    [0]: 1 oid 0xd8-0xd9 (1)
  0x00000d|                        2a                     |        *       |                                    [1]: 2 oid 0xd8-0xd9 (1)
  0x00000d|                           86 48               |         .H     |                                    [2]: 840 oid 0xd9-0xdb (2)
  0x00000d|                                 ce 38         |           .8   |                                    [3]: 10040 oid 0xdb-0xdd (2)
  0x00000d|                                       04      |             .  |                                    [4]: 4 oid 0xdd-0xde (1)
  0x00000d|                                          01   |              . |                                    [5]: 1 oid 0xde-0xdf (1)
          |                                               |                |                                [1]{}: object 0xdf-0x201 (290)
  0x00000d|                                             30|               0|                                  class: "universal" (0) 0xdf-0xdf.2 (0.2)
  0x00000d|                                             30|               0|                                  form: "constructed" (1) 0xdf.2-0xdf.3 (0.1)
  0x00000d|                                             30|               0|                                  tag: "sequence" (0x10) 0xdf.3-0xe0 (0.5)
  0x00000e|82 01 1e                                       |...             |                                  length: 286 0xe0-0xe3 (3)
          |                                               |                |                                  constructed[0:3]: 0xe3-0x201 (286)
          |                                               |                |                                    [0]{}: object 0xe3-0x167 (132)
  0x00000e|         02                                    |   .            |                                      class: "universal" (0) 0xe3-0xe3.2 (0.2)
  0x00000e|         02                                    |   .            |                                      form: "primitive" (0) 0xe3.2-0xe3.3 (0.1)
  0x00000e|         02                                    |   .            |                                      tag: "integer" (0x2) 0xe3.3-0xe4 (0.5)
  0x00000e|            81 81                              |    ..          |                                      length: 129 0xe4-0xe6 (2)
  0x00000e|                  00 c2 f7 7e e9 70 e7 89 12 0a|      ...~.p....|                                      value: 136910329070488299378327259524927038161733379470505356730121232091090086514834553845968989920849620435345775777167290535699239055131308141952489888965222417689471480719820943713033298825729988988452440118426146804292912092805770067484684608296506113124192386094297682201884209532959834970982669442066672091881 0xe6-0x167 (129)
  0x00000f|a5 78 26 24 fc cd 49 7e c2 d3 9f 22 8d 27 e6 ca|.x&$..I~...".'..|
  *       |until 0x166.7 (129)                            |                |
          |                                               |                |                                    [1]{}: object 0x167-0x17e (23)
  0x000016|                     02                        |       .        |                                      class: "universal" (0) 0x167-0x167.2 (0.2)
  0x000016|                     02                        |       .        |                                      form: "primitive" (0) 0x167.2-0x167.3 (0.1)
  0x000016|                     02                        |       .        |                                      tag: "integer" (0x2) 0x167.3-0x168 (0.5)
  0x000016|                        15                     |        .       |                                      length: 21 0x168-0x169 (1)
  0x000016|                           00 98 58 f2 62 6b b6|         ..X.bk.|                                      value: 869750177406735357517327538899360394175585208387 0x169-0x17e (21)
  0x000017|3c 03 14 47 dd 8e 68 4a 3d 1c fe 4c 48 43      |<..G..hJ=..LHC  |
          |                                               |                |                                    [2]{}: object 0x17e-0x201 (131)
  0x000017|                                          02   |              . |                                      class: "universal" (0) 0x17e-0x17e.2 (0.2)
  0x000017|                                          02   |              . |                                      form: "primitive" (0) 0x17e.2-0x17e.3 (0.1)
  0x000017|                                          02   |              . |                                      tag: "integer" (0x2) 0x17e.3-0x17f (0.5)
  0x000017|                                             81|               .|                                      length: 128 0x17f-0x181 (2)
  0x000018|80                                             |.               |
  0x000018|   3f 02 ab 4e 43 f4 41 32 34 ad cd 98 49 8f c2| ?..NC.A24...I..|                                      value: 44247426170402622087425518647469060177168515448383480108707357314914924071046359553790624375303209327971525248666708548293595274064224162982232337674914654715681152890905955591957342867846032291315547979242473713074351452275228730099918471850426035459597093784807208832673341150587615416898207576073482022832 0x181-0x201 (128)
  0x000019|91 c9 3e 91 3b e8 6d 99 17 fc e1 51 de d5 b6 fa|..>.;.m....Q....|
  *       |until 0x200.7 (128)                            |                |
          |                                               |                |                            [1]{}: object 0x201-0x288 (135)
  0x000020|   03                                          | .              |                              class: "universal" (0) 0x201-0x201.2 (0.2)
  0x000020|   03                                          | .              |                              form: "primitive" (0) 0x201.2-0x201.3 (0.1)
  0x000020|   03                                          | .              |                              tag: "bit_string" (0x3) 0x201.3-0x202 (0.5)
  0x000020|      81 84                                    |  ..            |                              length: 132 0x202-0x204 (2)
  0x000020|            00                                 |    .           |                              unused_bits_count: 0 0x204-0x205 (1)
  0x000020|               02 81 80 7f 19 87 d0 34 72 de 66|     .......4r.f|                              value: raw bits 0x205-0x288 (131)
  0x000021|cd 51 0f 99 aa da fb 56 89 94 64 4d 94 47 a1 b6|.Q.....V..dM.G..|
  *       |until 0x287.7 (131)                            |                |
          |                                               |                |                    [1]{}: object 0x288-0x293 (11)
  0x000028|                        30                     |        0       |                      class: "universal" (0) 0x288-0x288.2 (0.2)
  0x000028|                        30                     |        0       |                      form: "constructed" (1) 0x288.2-0x288.3 (0.1)
  0x000028|                        30                     |        0       |                      tag: "sequence" (0x10) 0x288.3-0x289 (0.5)
  0x000028|                           09                  |         .      |                      length: 9 0x289-0x28a (1)
          |                                               |                |                      constructed[0:1]: 0x28a-0x293 (9)
          |                                               |                |                        [0]{}: object 0x28a-0x293 (9)
  0x000028|                              06               |          .     |                          class: "universal" (0) 0x28a-0x28a.2 (0.2)
  0x000028|                              06               |          .     |                          form: "primitive" (0) 0x28a.2-0x28a.3 (0.1)
  0x000028|                              06               |          .     |                          tag: "object_identifier" (0x6) 0x28a.3-0x28b (0.5)
  0x000028|                                 07            |           .    |                          length: 7 0x28b-0x28c (1)
          |                                               |                |                          value[0:6]: 0x28c-0x293 (7)
  0x000028|                                    2a         |            *   |                            [0]: 1 oid 0x28c-0x28d (1)
  0x000028|                                    2a         |            *   |                            [1]: 2 oid 0x28c-0x28d (1)
  0x000028|                                       86 48   |             .H |                            [2]: 840 oid 0x28d-0x28f (2)
  0x000028|                                             ce|               .|                            [3]: 10040 oid 0x28f-0x291 (2)
  0x000029|38                                             |8               |
  0x000029|   04                                          | .              |                            [4]: 4 oid 0x291-0x292 (1)
  0x000029|      03                                       |  .             |                            [5]: 3 oid 0x292-0x293 (1)
          |                                               |                |                    [2]{}: object 0x293-0x2c4 (49)
  0x000029|         03                                    |   .            |                      class: "universal" (0) 0x293-0x293.2 (0.2)
  0x000029|         03                                    |   .            |                      form: "primitive" (0) 0x293.2-0x293.3 (0.1)
  0x000029|         03                                    |   .            |                      tag: "bit_string" (0x3) 0x293.3-0x294 (0.5)
  0x000029|            2f                                 |    /           |                      length: 47 0x294-0x295 (1)
  0x000029|               00                              |     .          |                      unused_bits_count: 0 0x295-0x296 (1)
  0x000029|                  30 2c 02 14 52 31 f8 06 82 70|      0,..R1...p|                      value: raw bits 0x296-0x2c4 (46)
  0x00002a|cd 8e ed dd be 72 ec 66 5d 79 45 c1 49 7f 02 14|.....r.f]yE.I...|
  *       |until 0x2c3.7 (46)                             |                |
          |                                               |                |        [2]{}: record 0x2c4-0x386 (194)
  0x00002c|            16                                 |    .           |          type: "handshake" (22) (valid) 0x2c4-0x2c5 (1)
  0x00002c|               03 03                           |     ..         |          version: "tls1.2" (0x303) (valid) 0x2c5-0x2c7 (2)
  0x00002c|                     00 bd                     |       ..       |          length: 189 0x2c7-0x2c9 (2)
          |                                               |                |          message{}: 0x2c9-0x386 (189)
  0x00002c|                           0c                  |         .      |            type: "server_key_exchange" (12) 0x2c9-0x2ca (1)
  0x00002c|                              00 00 b9         |          ...   |            length: 185 0x2ca-0x2cd (3)
  0x00002c|                                       00 40 da|             .@.|            data: raw bits 0x2cd-0x386 (185)
  0x00002d|58 3c 16 d9 85 22 89 d0 e4 af 75 6f 4c ca 92 dd|X<..."....uoL...|
  *       |until 0x385.7 (185)                            |                |
          |                                               |                |        [3]{}: record 0x386-0x38f (9)
  0x000038|                  16                           |      .         |          type: "handshake" (22) (valid) 0x386-0x387 (1)
  0x000038|                     03 03                     |       ..       |          version: "tls1.2" (0x303) (valid) 0x387-0x389 (2)
  0x000038|                           00 04               |         ..     |          length: 4 0x389-0x38b (2)
          |                                               |                |          message{}: 0x38b-0x38f (4)
  0x000038|                                 0e            |           .    |            type: "server_hello_done" (14) 0x38b-0x38c (1)
  0x000038|                                    00 00 00   |            ... |            length: 0 0x38c-0x38f (3)
          |                                               |                |            data: raw bits 0x38f-0x38f (0)
          |                                               |                |        [4]{}: record 0x38f-0x43e (175)
  0x000038|                                             16|               .|          type: "handshake" (22) (valid) 0x38f-0x390 (1)
  0x000039|03 03                                          |..              |          version: "tls1.2" (0x303) (valid) 0x390-0x392 (2)
  0x000039|      00 aa                                    |  ..            |          length: 170 0x392-0x394 (2)
          |                                               |                |          message{}: 0x394-0x43e (170)
  0x000039|            04                                 |    .           |            type: "new_session_ticket" (4) 0x394-0x395 (1)
  0x000039|               00 00 a6                        |     ...        |            length: 166 0x395-0x398 (3)
  0x000039|                        00 00 01 2c            |        ...,    |            lifetime_hint: 300 0x398-0x39c (4)
  0x000039|                                    00 a0      |            ..  |            ticket_length: 160 0x39c-0x39e (2)
  0x000039|                                          22 07|              ".|            ticket: raw bits 0x39e-0x43e (160)
  0x00003a|b4 d8 97 c7 0f f3 0f f1 4b c1 4b d0 cb 8e ef b7|........K.K.....|
  *       |until 0x43d.7 (160)                            |                |
          |                                               |                |        [5]{}: record 0x43e-0x444 (6)
  0x000043|                                          14   |              . |          type: "change_cipher_spec" (20) (valid) 0x43e-0x43f (1)
  0x000043|                                             03|               .|          version: "tls1.2" (0x303) (valid) 0x43f-0x441 (2)
  0x000044|03                                             |.               |
  0x000044|   00 01                                       | ..             |          length: 1 0x441-0x443 (2)
          |                                               |                |          message{}: 0x443-0x444 (1)
  0x000044|         01                                    |   .            |            type: 1 0x443-0x444 (1)
          |                                               |                |        [6]{}: record 0x444-0x499 (85)
  0x000044|            16                                 |    .           |          type: "handshake" (22) (valid) 0x444-0x445 (1)
  0x000044|               03 03                           |     ..         |          version: "tls1.2" (0x303) (valid) 0x445-0x447 (2)
  0x000044|                     00 50                     |       .P       |          length: 80 0x447-0x449 (2)
  0x000044|                           d0 b4 0b b9 9d 08 d5|         .......|          encrypted_data: raw bits 0x449-0x499 (80)
  0x000045|34 77 6e b7 c9 24 02 b9 a5 42 f8 4a 99 ac 5b 05|4wn..$...B.J..[.|
  *       |until 0x498.7 (80)                             |                |
          |00 01 02 03 04 05 06 07 08 09 0a 0b 0c 0d 0e 0f|0123456789abcdef|          message{}: 0x0-0x10 (16)
    0x0000|14                                             |.               |            type: "finished" (20) 0x0-0x1 (1)
    0x0000|   00 00 0c                                    | ...            |            length: 12 0x1-0x4 (3)
    0x0000|            28 20 b8 e7 8a 39 ed 87 ae e1 27 7d|    ( ...9....'}|            verify_data: raw bits 0x4-0x10 (12)
          |                                               |                |        [7]{}: record 0x499-0x93e (1189)
  0x000049|                           17                  |         .      |          type: "application_data" (23) (valid) 0x499-0x49a (1)
  0x000049|                              03 03            |          ..    |          version: "tls1.2" (0x303) (valid) 0x49a-0x49c (2)
  0x000049|                                    04 a0      |            ..  |          length: 1184 0x49c-0x49e (2)
  0x000049|                                          11 7e|              .~|          encrypted_data: raw bits 0x49e-0x93e (1184)
  0x00004a|95 6b 1a 63 22 da a7 6f 90 13 b4 36 7e 29 40 bc|.k.c"..o...6~)@.|
  *       |until 0x93d.7 (end) (1184)                     |                |
          |00 01 02 03 04 05 06 07 08 09 0a 0b 0c 0d 0e 0f|0123456789abcdef|
    0x0000|48 54 54 50 2f 31 2e 30 20 32 30 30 20 6f 6b 0d|HTTP/1.0 200 ok.|          message: raw bits 0x0-0x1133 (4403)
    *     |until 0x1132.7 (end) (4403)                    |                |
          |00 01 02 03 04 05 06 07 08 09 0a 0b 0c 0d 0e 0f|0123456789abcdef|
    0x0000|48 54 54 50 2f 31 2e 30 20 32 30 30 20 6f 6b 0d|HTTP/1.0 200 ok.|      stream: raw bits 0x0-0x1133 (4403)
    *     |until 0x1132.7 (end) (4403)                    |                |
