$ fq -o keylog=@all.keylog ".tcp_connections[0] | dv" TLS_ECDH_ECDSA_WITH_AES_128_GCM_SHA256.pcap
          |00 01 02 03 04 05 06 07 08 09 0a 0b 0c 0d 0e 0f|0123456789abcdef|.tcp_connections[0]{}: tcp_connection 0xd00-0xd00 (0)
          |                                               |                |  client{}: 0xd00-0xd00 (0)
          |                                               |                |    ip: "127.0.0.1"
          |                                               |                |    port: 42423
          |                                               |                |    has_start: true
          |                                               |                |    has_end: false
          |                                               |                |    skipped_bytes: 0
          |00 01 02 03 04 05 06 07 08 09 0a 0b 0c 0d 0e 0f|0123456789abcdef|    stream{}: (tls) 0x0-0x1a7 (423)
          |                                               |                |      records[0:6]: 0x0-0x1a7 (423)
          |                                               |                |        [0]{}: record 0x0-0xa6 (166)
  0x000000|16                                             |.               |          type: "handshake" (22) (valid) 0x0-0x1 (1)
  0x000000|   03 01                                       | ..             |          version: "tls1.0" (0x301) (valid) 0x1-0x3 (2)
  0x000000|         00 a1                                 |   ..           |          length: 161 0x3-0x5 (2)
          |                                               |                |          message{}: 0x5-0xa6 (161)
  0x000000|               01                              |     .          |            type: "client_hello" (1) 0x5-0x6 (1)
  0x000000|                  00 00 9d                     |      ...       |            length: 157 0x6-0x9 (3)
  0x000000|                           03 03               |         ..     |            version: "tls1.2" (0x303) 0x9-0xb (2)
          |                                               |                |            random{}: 0xb-0x2b (32)
  0x000000|                                 52 36 2c 11   |           R6,. |              gmt_unix_time: 1379281937 (2013-09-15T21:52:17Z) 0xb-0xf (4)
  0x000000|                                             14|               .|              random_bytes: raw bits 0xf-0x2b (28)
  0x000001|e6 63 f1 a2 18 e0 6e 07 32 ed a8 fe aa fc 5b 4d|.c....n.2.....[M|
  0x000002|b8 80 27 63 bf 95 b2 a7 30 64 dc               |..'c....0d.     |
  0x000002|                                 00            |           .    |            session_id_length: 0 0x2b-0x2c (1)
          |                                               |                |            session_id: raw bits 0x2c-0x2c (0)
  0x000002|                                    00 04      |            ..  |            cipher_suits_length: 4 0x2c-0x2e (2)
          |                                               |                |            cipher_suits[0:2]: 0x2e-0x32 (4)
  0x000002|                                          c0 2d|              .-|              [0]: "TLS_ECDH_ECDSA_WITH_AES_128_GCM_SHA256" (0xc02d) cipher_suit 0x2e-0x30 (2)
  0x000003|00 ff                                          |..              |              [1]: "TLS_EMPTY_RENEGOTIATION_INFO_SCSV" (0xff) cipher_suit 0x30-0x32 (2)
  0x000003|      02                                       |  .             |            compression_methods_length: 2 0x32-0x33 (1)
          |                                               |                |            compression_methods[0:2]: 0x33-0x35 (2)
  0x000003|         01                                    |   .            |              [0]: "deflate" (0x1) compression_method 0x33-0x34 (1)
  0x000003|            00                                 |    .           |              [1]: "null" (0x0) compression_method 0x34-0x35 (1)
  0x000003|               00 6f                           |     .o         |            extensions_length: 111 0x35-0x37 (2)
          |                                               |                |            extensions[0:5]: 0x37-0xa6 (111)
          |                                               |                |              [0]{}: extension 0x37-0x3f (8)
  0x000003|                     00 0b                     |       ..       |                type: "ec_point_formats" (11) 0x37-0x39 (2)
  0x000003|                           00 04               |         ..     |                length: 4 0x39-0x3b (2)
  0x000003|                                 03            |           .    |                ex_points_formats_length: 3 0x3b-0x3c (1)
          |                                               |                |                ex_points_formats[0:3]: 0x3c-0x3f (3)
  0x000003|                                    00         |            .   |                  [0]: 0x0 ex_points_format 0x3c-0x3d (1)
  0x000003|                                       01      |             .  |                  [1]: 0x1 ex_points_format 0x3d-0x3e (1)
  0x000003|                                          02   |              . |                  [2]: 0x2 ex_points_format 0x3e-0x3f (1)
          |                                               |                |              [1]{}: extension 0x3f-0x77 (56)
  0x000003|                                             00|               .|                type: "supported_groups" (10) 0x3f-0x41 (2)
  0x000004|0a                                             |.               |
  0x000004|   00 34                                       | .4             |                length: 52 0x41-0x43 (2)
  0x000004|         00 32                                 |   .2           |                supported_groups_length: 50 0x43-0x45 (2)
          |                                               |                |                supported_groups[0:25]: 0x45-0x77 (50)
  0x000004|               00 0e                           |     ..         |                  [0]: 0xe supported_group 0x45-0x47 (2)
  0x000004|                     00 0d                     |       ..       |                  [1]: 0xd supported_group 0x47-0x49 (2)
  0x000004|                           00 19               |         ..     |                  [2]: 0x19 supported_group 0x49-0x4b (2)
  0x000004|                                 00 0b         |           ..   |                  [3]: 0xb supported_group 0x4b-0x4d (2)
  0x000004|                                       00 0c   |             .. |                  [4]: 0xc supported_group 0x4d-0x4f (2)
  0x000004|                                             00|               .|                  [5]: 0x18 supported_group 0x4f-0x51 (2)
  0x000005|18                                             |.               |
  0x000005|   00 09                                       | ..             |                  [6]: 0x9 supported_group 0x51-0x53 (2)
  0x000005|         00 0a                                 |   ..           |                  [7]: 0xa supported_group 0x53-0x55 (2)
  0x000005|               00 16                           |     ..         |                  [8]: 0x16 supported_group 0x55-0x57 (2)
  0x000005|                     00 17                     |       ..       |                  [9]: 0x17 supported_group 0x57-0x59 (2)
  0x000005|                           00 08               |         ..     |                  [10]: 0x8 supported_group 0x59-0x5b (2)
  0x000005|                                 00 06         |           ..   |                  [11]: 0x6 supported_group 0x5b-0x5d (2)
  0x000005|                                       00 07   |             .. |                  [12]: 0x7 supported_group 0x5d-0x5f (2)
  0x000005|                                             00|               .|                  [13]: 0x14 supported_group 0x5f-0x61 (2)
  0x000006|14                                             |.               |
  0x000006|   00 15                                       | ..             |                  [14]: 0x15 supported_group 0x61-0x63 (2)
  0x000006|         00 04                                 |   ..           |                  [15]: 0x4 supported_group 0x63-0x65 (2)
  0x000006|               00 05                           |     ..         |                  [16]: 0x5 supported_group 0x65-0x67 (2)
  0x000006|                     00 12                     |       ..       |                  [17]: 0x12 supported_group 0x67-0x69 (2)
  0x000006|                           00 13               |         ..     |                  [18]: 0x13 supported_group 0x69-0x6b (2)
  0x000006|                                 00 01         |           ..   |                  [19]: 0x1 supported_group 0x6b-0x6d (2)
  0x000006|                                       00 02   |             .. |                  [20]: 0x2 supported_group 0x6d-0x6f (2)
  0x000006|                                             00|               .|                  [21]: 0x3 supported_group 0x6f-0x71 (2)
  0x000007|03                                             |.               |
  0x000007|   00 0f                                       | ..             |                  [22]: 0xf supported_group 0x71-0x73 (2)
  0x000007|         00 10                                 |   ..           |                  [23]: 0x10 supported_group 0x73-0x75 (2)
  0x000007|               00 11                           |     ..         |                  [24]: 0x11 supported_group 0x75-0x77 (2)
          |                                               |                |              [2]{}: extension 0x77-0x7b (4)
  0x000007|                     00 23                     |       .#       |                type: "session_ticket" (35) 0x77-0x79 (2)
  0x000007|                           00 00               |         ..     |                length: 0 0x79-0x7b (2)
          |                                               |                |              [3]{}: extension 0x7b-0xa1 (38)
  0x000007|                                 00 0d         |           ..   |                type: "signature_algorithms" (13) 0x7b-0x7d (2)
  0x000007|                                       00 22   |             ." |                length: 34 0x7d-0x7f (2)
  0x000007|                                             00|               .|                signature_algorithms_length: 32 0x7f-0x81 (2)
  0x000008|20                                             |                |
          |                                               |                |                signature_algorithms[0:16]: 0x81-0xa1 (32)
          |                                               |                |                  [0]{}: signature_algorithm 0x81-0x83 (2)
  0x000008|   06                                          | .              |                    hash: "sha512" (6) 0x81-0x82 (1)
  0x000008|      01                                       |  .             |                    signature: "rsa" (1) 0x82-0x83 (1)
          |                                               |                |                  [1]{}: signature_algorithm 0x83-0x85 (2)
  0x000008|         06                                    |   .            |                    hash: "sha512" (6) 0x83-0x84 (1)
  0x000008|            02                                 |    .           |                    signature: "dsa" (2) 0x84-0x85 (1)
          |                                               |                |                  [2]{}: signature_algorithm 0x85-0x87 (2)
  0x000008|               06                              |     .          |                    hash: "sha512" (6) 0x85-0x86 (1)
  0x000008|                  03                           |      .         |                    signature: "ecdsa" (3) 0x86-0x87 (1)
          |                                               |                |                  [3]{}: signature_algorithm 0x87-0x89 (2)
  0x000008|                     05                        |       .        |                    hash: "sha384" (5) 0x87-0x88 (1)
  0x000008|                        01                     |        .       |                    signature: "rsa" (1) 0x88-0x89 (1)
          |                                               |                |                  [4]{}: signature_algorithm 0x89-0x8b (2)
  0x000008|                           05                  |         .      |                    hash: "sha384" (5) 0x89-0x8a (1)
  0x000008|                              02               |          .     |                    signature: "dsa" (2) 0x8a-0x8b (1)
          |                                               |                |                  [5]{}: signature_algorithm 0x8b-0x8d (2)
  0x000008|                                 05            |           .    |                    hash: "sha384" (5) 0x8b-0x8c (1)
  0x000008|                                    03         |            .   |                    signature: "ecdsa" (3) 0x8c-0x8d (1)
          |                                               |                |                  [6]{}: signature_algorithm 0x8d-0x8f (2)
  0x000008|                                       04      |             .  |                    hash: "sha256" (4) 0x8d-0x8e (1)
  0x000008|                                          01   |              . |                    signature: "rsa" (1) 0x8e-0x8f (1)
          |                                               |                |                  [7]{}: signature_algorithm 0x8f-0x91 (2)
  0x000008|                                             04|               .|                    hash: "sha256" (4) 0x8f-0x90 (1)
  0x000009|02                                             |.               |                    signature: "dsa" (2) 0x90-0x91 (1)
          |                                               |                |                  [8]{}: signature_algorithm 0x91-0x93 (2)
  0x000009|   04                                          | .              |                    hash: "sha256" (4) 0x91-0x92 (1)
  0x000009|      03                                       |  .             |                    signature: "ecdsa" (3) 0x92-0x93 (1)
          |                                               |                |                  [9]{}: signature_algorithm 0x93-0x95 (2)
  0x000009|         03                                    |   .            |                    hash: "sha224" (3) 0x93-0x94 (1)
  0x000009|            01                                 |    .           |                    signature: "rsa" (1) 0x94-0x95 (1)
          |                                               |                |                  [10]{}: signature_algorithm 0x95-0x97 (2)
  0x000009|               03                              |     .          |                    hash: "sha224" (3) 0x95-0x96 (1)
  0x000009|                  02                           |      .         |                    signature: "dsa" (2) 0x96-0x97 (1)
          |                                               |                |                  [11]{}: signature_algorithm 0x97-0x99 (2)
  0x000009|                     03                        |       .        |                    hash: "sha224" (3) 0x97-0x98 (1)
  0x000009|                        03                     |        .       |                    signature: "ecdsa" (3) 0x98-0x99 (1)
          |                                               |                |                  [12]{}: signature_algorithm 0x99-0x9b (2)
  0x000009|                           02                  |         .      |                    hash: "sha1" (2) 0x99-0x9a (1)
  0x000009|                              01               |          .     |                    signature: "rsa" (1) 0x9a-0x9b (1)
          |                                               |                |                  [13]{}: signature_algorithm 0x9b-0x9d (2)
  0x000009|                                 02            |           .    |                    hash: "sha1" (2) 0x9b-0x9c (1)
  0x000009|                                    02         |            .   |                    signature: "dsa" (2) 0x9c-0x9d (1)
          |                                               |                |                  [14]{}: signature_algorithm 0x9d-0x9f (2)
  0x000009|                                       02      |             .  |                    hash: "sha1" (2) 0x9d-0x9e (1)
  0x000009|                                          03   |              . |                    signature: "ecdsa" (3) 0x9e-0x9f (1)
          |                                               |                |                  [15]{}: signature_algorithm 0x9f-0xa1 (2)
  0x000009|                                             01|               .|                    hash: "md5" (1) 0x9f-0xa0 (1)
  0x00000a|01                                             |.               |                    signature: "rsa" (1) 0xa0-0xa1 (1)
          |                                               |                |              [4]{}: extension 0xa1-0xa6 (5)
  0x00000a|   00 0f                                       | ..             |                type: "heartbeat" (15) 0xa1-0xa3 (2)
  0x00000a|         00 01                                 |   ..           |                length: 1 0xa3-0xa5 (2)
  0x00000a|               01                              |     .          |                data: raw bits 0xa5-0xa6 (1)
          |                                               |                |        [1]{}: record 0xa6-0x111 (107)
  0x00000a|                  16                           |      .         |          type: "handshake" (22) (valid) 0xa6-0xa7 (1)
  0x00000a|                     03 03                     |       ..       |          version: "tls1.2" (0x303) (valid) 0xa7-0xa9 (2)
  0x00000a|                           00 66               |         .f     |          length: 102 0xa9-0xab (2)
          |                                               |                |          message{}: 0xab-0x111 (102)
  0x00000a|                                 10            |           .    |            type: "client_key_exchange" (16) 0xab-0xac (1)
  0x00000a|                                    00 00 62   |            ..b |            length: 98 0xac-0xaf (3)
          |                                               |                |            public{}: 0xaf-0xaf (0)
  0x00000a|                                             61|               a|              length: 97 0xaf-0xb0 (1)
  0x00000b|04 3b e2 08 94 92 30 58 f3 16 ed b6 c0 fe ce d2|.;....0X........|              data: raw bits 0xb0-0x111 (97)
  *       |until 0x110.7 (97)                             |                |
          |                                               |                |        [2]{}: record 0x111-0x117 (6)
  0x000011|   14                                          | .              |          type: "change_cipher_spec" (20) (valid) 0x111-0x112 (1)
  0x000011|      03 03                                    |  ..            |          version: "tls1.2" (0x303) (valid) 0x112-0x114 (2)
  0x000011|            00 01                              |    ..          |          length: 1 0x114-0x116 (2)
          |                                               |                |          message{}: 0x116-0x117 (1)
  0x000011|                  01                           |      .         |            type: 1 0x116-0x117 (1)
          |                                               |                |        [3]{}: record 0x117-0x14d (54)
  0x000011|                     16                        |       .        |          type: "handshake" (22) (valid) 0x117-0x118 (1)
  0x000011|                        03 03                  |        ..      |          version: "tls1.2" (0x303) (valid) 0x118-0x11a (2)
  0x000011|                              00 31            |          .1    |          length: 49 0x11a-0x11c (2)
  0x000011|                                    52 47 ad d2|            RG..|          encrypted_data: raw bits 0x11c-0x14d (49)
  0x000012|e2 16 d2 ab 11 0f 50 96 34 16 fd b9 7d 7c bb de|......P.4...}|..|
  *       |until 0x14c.7 (49)                             |                |
          |00 01 02 03 04 05 06 07 08 09 0a 0b 0c 0d 0e 0f|0123456789abcdef|          message{}: 0x0-0x10 (16)
    0x0000|14                                             |.               |            type: "finished" (20) 0x0-0x1 (1)
    0x0000|   00 00 0c                                    | ...            |            length: 12 0x1-0x4 (3)
    0x0000|            dc 99 f0 42 2e db 24 25 91 bd f5 95|    ...B..$%....|            verify_data: raw bits 0x4-0x10 (12)
          |                                               |                |        [4]{}: record 0x14d-0x182 (53)
  0x000014|                                       17      |             .  |          type: "application_data" (23) (valid) 0x14d-0x14e (1)
  0x000014|                                          03 03|              ..|          version: "tls1.2" (0x303) (valid) 0x14e-0x150 (2)
  0x000015|00 30                                          |.0              |          length: 48 0x150-0x152 (2)
  0x000015|      52 47 ad d2 e2 16 d2 ac f6 ba e7 50 4c fc|  RG.........PL.|          encrypted_data: raw bits 0x152-0x182 (48)
  0x000016|7d 54 8b 2d 7b 10 b8 11 2c 7a 76 66 ef 24 24 94|}T.-{...,zvf.$$.|
  *       |until 0x181.7 (48)                             |                |
          |00 01 02 03 04 05 06 07 08 09 0a 0b 0c 0d 0e 0f|0123456789abcdef|
    0x0000|47 45 54 20 2f 20 48 54 54 50 2f 31 2e 30 0d 0a|GET / HTTP/1.0..|          message: raw bits 0x0-0x12 (18)
    0x0000|0d 0a|                                         |..|             |
          |                                               |                |        [5]{}: record 0x182-0x1a7 (37)
  0x000018|      15                                       |  .             |          type: "alert" (21) (valid) 0x182-0x183 (1)
  0x000018|         03 03                                 |   ..           |          version: "tls1.2" (0x303) (valid) 0x183-0x185 (2)
  0x000018|               00 20                           |     .          |          length: 32 0x185-0x187 (2)
  0x000018|                     52 47 ad d2 e2 16 d2 ad 49|       RG......I|          encrypted_data: raw bits 0x187-0x1a7 (32)
  0x000019|0f 27 be b5 53 80 1a a6 1f fc 14 48 fc c0 59 a5|.'..S......H..Y.|
  0x00001a|77 dc 8f a7 9c 65 cd|                          |w....e.|        |
          |00 01 02 03 04 05 06 07 08 09 0a 0b 0c 0d 0e 0f|0123456789abcdef|          message{}: 0x0-0x2 (2)
    0x0000|01                                             |.               |            level: "warning" (1) 0x0-0x1 (1)
    0x0000|   00|                                         | .|             |            description: "close_notify" (0) 0x1-0x2 (1)
          |00 01 02 03 04 05 06 07 08 09 0a 0b 0c 0d 0e 0f|0123456789abcdef|
    0x0000|47 45 54 20 2f 20 48 54 54 50 2f 31 2e 30 0d 0a|GET / HTTP/1.0..|      stream: raw bits 0x0-0x12 (18)
    0x0000|0d 0a|                                         |..|             |
          |                                               |                |  server{}: 0xd00-0xd00 (0)
          |                                               |                |    ip: "127.0.0.1"
          |                                               |                |    port: 4431
          |                                               |                |    has_start: true
          |                                               |                |    has_end: true
          |                                               |                |    skipped_bytes: 0
          |00 01 02 03 04 05 06 07 08 09 0a 0b 0c 0d 0e 0f|0123456789abcdef|    stream{}: (tls) 0x0-0x741 (1857)
          |                                               |                |      records[0:7]: 0x0-0x741 (1857)
          |                                               |                |        [0]{}: record 0x0-0x47 (71)
  0x000000|16                                             |.               |          type: "handshake" (22) (valid) 0x0-0x1 (1)
  0x000000|   03 03                                       | ..             |          version: "tls1.2" (0x303) (valid) 0x1-0x3 (2)
  0x000000|         00 42                                 |   .B           |          length: 66 0x3-0x5 (2)
          |                                               |                |          message{}: 0x5-0x47 (66)
  0x000000|               02                              |     .          |            type: "server_hello" (2) 0x5-0x6 (1)
  0x000000|                  00 00 3e                     |      ..>       |            length: 62 0x6-0x9 (3)
  0x000000|                           03 03               |         ..     |            version: "tls1.2" (0x303) 0x9-0xb (2)
          |                                               |                |            random{}: 0xb-0x2b (32)
  0x000000|                                 52 36 2c 11   |           R6,. |              gmt_unix_time: 1379281937 (2013-09-15T21:52:17Z) 0xb-0xf (4)
  0x000000|                                             0b|               .|              random_bytes: raw bits 0xf-0x2b (28)
  0x000001|50 09 29 d6 47 88 8c 32 c3 3b 7a 1d 0c b7 03 ce|P.).G..2.;z.....|
  0x000002|f4 65 50 29 6b 14 f2 0a cc 39 94               |.eP)k....9.     |
  0x000002|                                 00            |           .    |            session_id_length: 0 0x2b-0x2c (1)
          |                                               |                |            session_id: raw bits 0x2c-0x2c (0)
  0x000002|                                    c0 2d      |            .-  |            cipher_suit: "TLS_ECDH_ECDSA_WITH_AES_128_GCM_SHA256" (0xc02d) 0x2c-0x2e (2)
  0x000002|                                          01   |              . |            compression_method: "deflate" (0x1) 0x2e-0x2f (1)
  0x000002|                                             00|               .|            extensions_length: 22 0x2f-0x31 (2)
  0x000003|16                                             |.               |
          |                                               |                |            extensions[0:4]: 0x31-0x47 (22)
          |                                               |                |              [0]{}: extension 0x31-0x36 (5)
  0x000003|   ff 01                                       | ..             |                type: "renegotiation_info" (65281) 0x31-0x33 (2)
  0x000003|         00 01                                 |   ..           |                length: 1 0x33-0x35 (2)
  0x000003|               00                              |     .          |                data: raw bits 0x35-0x36 (1)
          |                                               |                |              [1]{}: extension 0x36-0x3e (8)
  0x000003|                  00 0b                        |      ..        |                type: "ec_point_formats" (11) 0x36-0x38 (2)
  0x000003|                        00 04                  |        ..      |                length: 4 0x38-0x3a (2)
  0x000003|                              03               |          .     |                ex_points_formats_length: 3 0x3a-0x3b (1)
          |                                               |                |                ex_points_formats[0:3]: 0x3b-0x3e (3)
  0x000003|                                 00            |           .    |                  [0]: 0x0 ex_points_format 0x3b-0x3c (1)
  0x000003|                                    01         |            .   |                  [1]: 0x1 ex_points_format 0x3c-0x3d (1)
  0x000003|                                       02      |             .  |                  [2]: 0x2 ex_points_format 0x3d-0x3e (1)
          |                                               |                |              [2]{}: extension 0x3e-0x42 (4)
  0x000003|                                          00 23|              .#|                type: "session_ticket" (35) 0x3e-0x40 (2)
  0x000004|00 00                                          |..              |                length: 0 0x40-0x42 (2)
          |                                               |                |              [3]{}: extension 0x42-0x47 (5)
  0x000004|      00 0f                                    |  ..            |                type: "heartbeat" (15) 0x42-0x44 (2)
  0x000004|            00 01                              |    ..          |                length: 1 0x44-0x46 (2)
  0x000004|                  01                           |      .         |                data: raw bits 0x46-0x47 (1)
          |                                               |                |        [1]{}: record 0x47-0x1c7 (384)
  0x000004|                     16                        |       .        |          type: "handshake" (22) (valid) 0x47-0x48 (1)
  0x000004|                        03 03                  |        ..      |          version: "tls1.2" (0x303) (valid) 0x48-0x4a (2)
  0x000004|                              01 7b            |          .{    |          length: 379 0x4a-0x4c (2)
          |                                               |                |          message{}: 0x4c-0x1c7 (379)
  0x000004|                                    0b         |            .   |            type: "certificate" (11) 0x4c-0x4d (1)
  0x000004|                                       00 01 77|             ..w|            length: 375 0x4d-0x50 (3)
  0x000005|00 01 74                                       |..t             |            certificates_length: 372 0x50-0x53 (3)
          |                                               |                |            certificates[0:1]: 0x53-0x1c7 (372)
          |                                               |                |              [0]{}: certificate 0x53-0x1c7 (372)
  0x000005|         00 01 71                              |   ..q          |                length: 369 0x53-0x56 (3)
          |00 01 02 03 04 05 06 07 08 09 0a 0b 0c 0d 0e 0f|0123456789abcdef|                data{}: (asn1_ber) 0x56-0x1c7 (369)
  0x000005|                  30                           |      0         |                  class: "universal" (0) 0x56-0x56.2 (0.2)
  0x000005|                  30                           |      0         |                  form: "constructed" (1) 0x56.2-0x56.3 (0.1)
  0x000005|                  30                           |      0         |                  tag: "sequence" (0x10) 0x56.3-0x57 (0.5)
  0x000005|                     82 01 6d                  |       ..m      |                  length: 365 0x57-0x5a (3)
          |                                               |                |                  constructed[0:3]: 0x5a-0x1c7 (365)
          |                                               |                |                    [0]{}: object 0x5a-0x151 (247)
  0x000005|                              30               |          0     |                      class: "universal" (0) 0x5a-0x5a.2 (0.2)
  0x000005|                              30               |          0     |                      form: "constructed" (1) 0x5a.2-0x5a.3 (0.1)
  0x000005|                              30               |          0     |                      tag: "sequence" (0x10) 0x5a.3-0x5b (0.5)
  0x000005|                                 81 f4         |           ..   |                      length: 244 0x5b-0x5d (2)
          |                                               |                |                      constructed[0:6]: 0x5d-0x151 (244)
          |                                               |                |                        [0]{}: object 0x5d-0x68 (11)
  0x000005|                                       02      |             .  |                          class: "universal" (0) 0x5d-0x5d.2 (0.2)
  0x000005|                                       02      |             .  |                          form: "primitive" (0) 0x5d.2-0x5d.3 (0.1)
  0x000005|                                       02      |             .  |                          tag: "integer" (0x2) 0x5d.3-0x5e (0.5)
  0x000005|                                          09   |              . |                          length: 9 0x5e-0x5f (1)
  0x000005|                                             00|               .|                          value: 15139635147801862390 0x5f-0x68 (9)
  0x000006|d2 1a c9 f4 25 bf a0 f6                        |....%...        |
          |                                               |                |                        [1]{}: object 0x68-0x73 (11)
  0x000006|                        30                     |        0       |                          class: "universal" (0) 0x68-0x68.2 (0.2)
  0x000006|                        30                     |        0       |                          form: "constructed" (1) 0x68.2-0x68.3 (0.1)
  0x000006|                        30                     |        0       |                          tag: "sequence" (0x10) 0x68.3-0x69 (0.5)
  0x000006|                           09                  |         .      |                          length: 9 0x69-0x6a (1)
          |                                               |                |                          constructed[0:1]: 0x6a-0x73 (9)
          |                                               |                |                            [0]{}: object 0x6a-0x73 (9)
  0x000006|                              06               |          .     |                              class: "universal" (0) 0x6a-0x6a.2 (0.2)
  0x000006|                              06               |          .     |                              form: "primitive" (0) 0x6a.2-0x6a.3 (0.1)
  0x000006|                              06               |          .     |                              tag: "object_identifier" (0x6) 0x6a.3-0x6b (0.5)
  0x000006|                                 07            |           .    |                              length: 7 0x6b-0x6c (1)
          |                                               |                |                              value[0:6]: 0x6c-0x73 (7)
  0x000006|                                    2a         |            *   |                                [0]: 1 oid 0x6c-0x6d (1)
  0x000006|                                    2a         |            *   |                                [1]: 2 oid 0x6c-0x6d (1)
  0x000006|                                       86 48   |             .H |                                [2]: 840 oid 0x6d-0x6f (2)
  0x000006|                                             ce|               .|                                [3]: 10045 oid 0x6f-0x71 (2)
  0x000007|3d                                             |=               |
  0x000007|   04                                          | .              |                                [4]: 4 oid 0x71-0x72 (1)
  0x000007|      01                                       |  .             |                                [5]: 1 oid 0x72-0x73 (1)
          |                                               |                |                        [2]{}: object 0x73-0x96 (35)
  0x000007|         30                                    |   0            |                          class: "universal" (0) 0x73-0x73.2 (0.2)
  0x000007|         30                                    |   0            |                          form: "constructed" (1) 0x73.2-0x73.3 (0.1)
  0x000007|         30                                    |   0            |                          tag: "sequence" (0x10) 0x73.3-0x74 (0.5)
  0x000007|            21                                 |    !           |                          length: 33 0x74-0x75 (1)
          |                                               |                |                          constructed[0:1]: 0x75-0x96 (33)
          |                                               |                |                            [0]{}: object 0x75-0x96 (33)
  0x000007|               31                              |     1          |                              class: "universal" (0) 0x75-0x75.2 (0.2)
  0x000007|               31                              |     1          |                              form: "constructed" (1) 0x75.2-0x75.3 (0.1)
  0x000007|               31                              |     1          |                              tag: "set" (0x11) 0x75.3-0x76 (0.5)
  0x000007|                  1f                           |      .         |                              length: 31 0x76-0x77 (1)
          |                                               |                |                              constructed[0:1]: 0x77-0x96 (31)
          |                                               |                |                                [0]{}: object 0x77-0x96 (31)
  0x000007|                     30                        |       0        |                                  class: "universal" (0) 0x77-0x77.2 (0.2)
  0x000007|                     30                        |       0        |                                  form: "constructed" (1) 0x77.2-0x77.3 (0.1)
  0x000007|                     30                        |       0        |                                  tag: "sequence" (0x10) 0x77.3-0x78 (0.5)
  0x000007|                        1d                     |        .       |                                  length: 29 0x78-0x79 (1)
          |                                               |                |                                  constructed[0:2]: 0x79-0x96 (29)
          |                                               |                |                                    [0]{}: object 0x79-0x7e (5)
  0x000007|                           06                  |         .      |                                      class: "universal" (0) 0x79-0x79.2 (0.2)
  0x000007|                           06                  |         .      |                                      form: "primitive" (0) 0x79.2-0x79.3 (0.1)
  0x000007|                           06                  |         .      |                                      tag: "object_identifier" (0x6) 0x79.3-0x7a (0.5)
  0x000007|                              03               |          .     |                                      length: 3 0x7a-0x7b (1)
          |                                               |                |                                      value[0:4]: 0x7b-0x7e (3)
  0x000007|                                 55            |           U    |                                        [0]: 2 oid 0x7b-0x7c (1)
  0x000007|                                 55            |           U    |                                        [1]: 5 oid 0x7b-0x7c (1)
  0x000007|                                    04         |            .   |                                        [2]: 4 oid 0x7c-0x7d (1)
  0x000007|                                       03      |             .  |                                        [3]: 3 oid 0x7d-0x7e (1)
          |                                               |                |                                    [1]{}: object 0x7e-0x96 (24)
  0x000007|                                          0c   |              . |                                      class: "universal" (0) 0x7e-0x7e.2 (0.2)
  0x000007|                                          0c   |              . |                                      form: "primitive" (0) 0x7e.2-0x7e.3 (0.1)
  0x000007|                                          0c   |              . |                                      tag: "utf8_string" (0xc) 0x7e.3-0x7f (0.5)
  0x000007|                                             16|               .|                                      length: 22 0x7f-0x80 (1)
  0x000008|54 65 73 74 20 43 65 72 74 69 66 69 63 61 74 65|Test Certificate|                                      value: "Test Certificate ECDSA" 0x80-0x96 (22)
  0x000009|20 45 43 44 53 41                              | ECDSA          |
          |                                               |                |                        [3]{}: object 0x96-0xb6 (32)
  0x000009|                  30                           |      0         |                          class: "universal" (0) 0x96-0x96.2 (0.2)
  0x000009|                  30                           |      0         |                          form: "constructed" (1) 0x96.2-0x96.3 (0.1)
  0x000009|                  30                           |      0         |                          tag: "sequence" (0x10) 0x96.3-0x97 (0.5)
  0x000009|                     1e                        |       .        |                          length: 30 0x97-0x98 (1)
          |                                               |                |                          constructed[0:2]: 0x98-0xb6 (30)
          |                                               |                |                            [0]{}: object 0x98-0xa7 (15)
  0x000009|                        17                     |        .       |                              class: "universal" (0) 0x98-0x98.2 (0.2)
  0x000009|                        17                     |        .       |                              form: "primitive" (0) 0x98.2-0x98.3 (0.1)
  0x000009|                        17                     |        .       |                              tag: "utc_time" (0x17) 0x98.3-0x99 (0.5)
  0x000009|                           0d                  |         .      |                              length: 13 0x99-0x9a (1)
  0x000009|                              31 33 30 39 31 35|          130915|                              value: "130915215110Z" 0x9a-0xa7 (13)
  0x00000a|32 31 35 31 31 30 5a                           |215110Z         |
          |                                               |                |                            [1]{}: object 0xa7-0xb6 (15)
  0x00000a|                     17                        |       .        |                              class: "universal" (0) 0xa7-0xa7.2 (0.2)
  0x00000a|                     17                        |       .        |                              form: "primitive" (0) 0xa7.2-0xa7.3 (0.1)
  0x00000a|                     17                        |       .        |                              tag: "utc_time" (0x17) 0xa7.3-0xa8 (0.5)
  0x00000a|                        0d                     |        .       |                              length: 13 0xa8-0xa9 (1)
  0x00000a|                           32 33 30 39 31 33 32|         2309132|                              value: "230913215110Z" 0xa9-0xb6 (13)
  0x00000b|31 35 31 31 30 5a                              |15110Z          |
          |                                               |                |                        [4]{}: object 0xb6-0xd9 (35)
  0x00000b|                  30                           |      0         |                          class: "universal" (0) 0xb6-0xb6.2 (0.2)
  0x00000b|                  30                           |      0         |                          form: "constructed" (1) 0xb6.2-0xb6.3 (0.1)
  0x00000b|                  30                           |      0         |                          tag: "sequence" (0x10) 0xb6.3-0xb7 (0.5)
  0x00000b|                     21                        |       !        |                          length: 33 0xb7-0xb8 (1)
          |                                               |                |                          constructed[0:1]: 0xb8-0xd9 (33)
          |                                               |                |                            [0]{}: object 0xb8-0xd9 (33)
  0x00000b|                        31                     |        1       |                              class: "universal" (0) 0xb8-0xb8.2 (0.2)
  0x00000b|                        31                     |        1       |                              form: "constructed" (1) 0xb8.2-0xb8.3 (0.1)
  0x00000b|                        31                     |        1       |                              tag: "set" (0x11) 0xb8.3-0xb9 (0.5)
  0x00000b|                           1f                  |         .      |                              length: 31 0xb9-0xba (1)
          |                                               |                |                              constructed[0:1]: 0xba-0xd9 (31)
          |                                               |                |                                [0]{}: object 0xba-0xd9 (31)
  0x00000b|                              30               |          0     |                                  class: "universal" (0) 0xba-0xba.2 (0.2)
  0x00000b|                              30               |          0     |                                  form: "constructed" (1) 0xba.2-0xba.3 (0.1)
  0x00000b|                              30               |          0     |                                  tag: "sequence" (0x10) 0xba.3-0xbb (0.5)
  0x00000b|                                 1d            |           .    |                                  length: 29 0xbb-0xbc (1)
          |                                               |                |                                  constructed[0:2]: 0xbc-0xd9 (29)
          |                                               |                |                                    [0]{}: object 0xbc-0xc1 (5)
  0x00000b|                                    06         |            .   |                                      class: "universal" (0) 0xbc-0xbc.2 (0.2)
  0x00000b|                                    06         |            .   |                                      form: "primitive" (0) 0xbc.2-0xbc.3 (0.1)
  0x00000b|                                    06         |            .   |                                      tag: "object_identifier" (0x6) 0xbc.3-0xbd (0.5)
  0x00000b|                                       03      |             .  |                                      length: 3 0xbd-0xbe (1)
          |                                               |                |                                      value[0:4]: 0xbe-0xc1 (3)
  0x00000b|                                          55   |              U |                                        [0]: 2 oid 0xbe-0xbf (1)
  0x00000b|                                          55   |              U |                                        [1]: 5 oid 0xbe-0xbf (1)
  0x00000b|                                             04|               .|                                        [2]: 4 oid 0xbf-0xc0 (1)
  0x00000c|03                                             |.               |                                        [3]: 3 oid 0xc0-0xc1 (1)
          |                                               |                |                                    [1]{}: object 0xc1-0xd9 (24)
  0x00000c|   0c                                          | .              |                                      class: "universal" (0) 0xc1-0xc1.2 (0.2)
  0x00000c|   0c                                          | .              |                                      form: "primitive" (0) 0xc1.2-0xc1.3 (0.1)
  0x00000c|   0c                                          | .              |                                      tag: "utf8_string" (0xc) 0xc1.3-0xc2 (0.5)
  0x00000c|      16                                       |  .             |                                      length: 22 0xc2-0xc3 (1)
  0x00000c|         54 65 73 74 20 43 65 72 74 69 66 69 63|   Test Certific|                                      value: "Test Certificate ECDSA" 0xc3-0xd9 (22)
  0x00000d|61 74 65 20 45 43 44 53 41                     |ate ECDSA       |
          |                                               |                |                        [5]{}: object 0xd9-0x151 (120)
  0x00000d|                           30                  |         0      |                          class: "universal" (0) 0xd9-0xd9.2 (0.2)
  0x00000d|                           30                  |         0      |                          form: "constructed" (1) 0xd9.2-0xd9.3 (0.1)
  0x00000d|                           30                  |         0      |                          tag: "sequence" (0x10) 0xd9.3-0xda (0.5)
  0x00000d|                              76               |          v     |                          length: 118 0xda-0xdb (1)
          |                                               |                |                          constructed[0:2]: 0xdb-0x151 (118)
          |                                               |                |                            [0]{}: object 0xdb-0xed (18)
  0x00000d|                                 30            |           0    |                              class: "universal" (0) 0xdb-0xdb.2 (0.2)
  0x00000d|                                 30            |           0    |                              form: "constructed" (1) 0xdb.2-0xdb.3 (0.1)
  0x00000d|                                 30            |           0    |                              tag: "sequence" (0x10) 0xdb.3-0xdc (0.5)
  0x00000d|                                    10         |            .   |                              length: 16 0xdc-0xdd (1)
          |                                               |                |                              constructed[0:2]: 0xdd-0xed (16)
          |                                               |                |                                [0]{}: object 0xdd-0xe6 (9)
  0x00000d|                                       06      |             .  |                                  class: "universal" (0) 0xdd-0xdd.2 (0.2)
  0x00000d|                                       06      |             .  |                                  form: "primitive" (0) 0xdd.2-0xdd.3 (0.1)
  0x00000d|                                       06      |             .  |                                  tag: "object_identifier" (0x6) 0xdd.3-0xde (0.5)
  0x00000d|                                          07   |              . |                                  length: 7 0xde-0xdf (1)
          |                                               |                |                                  value[0:6]: 0xdf-0xe6 (7)
  0x00000d|                                             2a|               *|                                    [0]: 1 oid 0xdf-0xe0 (1)
  0x00000d|                                             2a|               *|                                    [1]: 2 oid 0xdf-0xe0 (1)
  0x00000e|86 48                                          |.H              |                                    [2]: 840 oid 0xe0-0xe2 (2)
  0x00000e|      ce 3d                                    |  .=            |                                    [3]: 10045 oid 0xe2-0xe4 (2)
  0x00000e|            02                                 |    .           |                                    [4]: 2 oid 0xe4-0xe5 (1)
  0x00000e|               01                              |     .          |                                    [5]: 1 oid 0xe5-0xe6 (1)
          |                                               |                |                                [1]{}: object 0xe6-0xed (7)
  0x00000e|                  06                           |      .         |                                  class: "universal" (0) 0xe6-0xe6.2 (0.2)
  0x00000e|                  06                           |      .         |                                  form: "primitive" (0) 0xe6.2-0xe6.3 (0.1)
  0x00000e|                  06                           |      .         |                                  tag: "object_identifier" (0x6) 0xe6.3-0xe7 (0.5)
  0x00000e|                     05                        |       .        |                                  length: 5 0xe7-0xe8 (1)
          |                                               |                |                                  value[0:5]: 0xe8-0xed (5)
  0x00000e|                        2b                     |        +       |                                    [0]: 1 oid 0xe8-0xe9 (1)
  0x00000e|                        2b                     |        +       |                                    [1]: 3 oid 0xe8-0xe9 (1)
  0x00000e|                           81 04               |         ..     |                                    [2]: 132 oid 0xe9-0xeb (2)
  0x00000e|                                 00            |           .    |                                    [3]: 0 oid 0xeb-0xec (1)
  0x00000e|                                    22         |            "   |                                    [4]: 34 oid 0xec-0xed (1)
          |                                               |                |                            [1]{}: object 0xed-0x151 (100)
  0x00000e|                                       03      |             .  |                              class: "universal" (0) 0xed-0xed.2 (0.2)
  0x00000e|                                       03      |             .  |                              form: "primitive" (0) 0xed.2-0xed.3 (0.1)
  0x00000e|                                       03      |             .  |                              tag: "bit_string" (0x3) 0xed.3-0xee (0.5)
  0x00000e|                                          62   |              b |                              length: 98 0xee-0xef (1)
  0x00000e|                                             00|               .|                              unused_bits_count: 0 0xef-0xf0 (1)
  0x00000f|04 a8 82 d1 a7 4e 97 73 1c 4a e2 3e f7 e9 ae c2|.....N.s.J.>....|                              value: raw bits 0xf0-0x151 (97)
  *       |until 0x150.7 (97)                             |                |
          |                                               |                |                    [1]{}: object 0x151-0x15c (11)
  0x000015|   30                                          | 0              |                      class: "universal" (0) 0x151-0x151.2 (0.2)
  0x000015|   30                                          | 0              |                      form: "constructed" (1) 0x151.2-0x151.3 (0.1)
  0x000015|   30                                          | 0              |                      tag: "sequence" (0x10) 0x151.3-0x152 (0.5)
  0x000015|      09                                       |  .             |                      length: 9 0x152-0x153 (1)
          |                                               |                |                      constructed[0:1]: 0x153-0x15c (9)
          |                                               |                |                        [0]{}: object 0x153-0x15c (9)
  0x000015|         06                                    |   .            |                          class: "universal" (0) 0x153-0x153.2 (0.2)
  0x000015|         06                                    |   .            |                          form: "primitive" (0) 0x153.2-0x153.3 (0.1)
  0x000015|         06                                    |   .            |                          tag: "object_identifier" (0x6) 0x153.3-0x154 (0.5)
  0x000015|            07                                 |    .           |                          length: 7 0x154-0x155 (1)
          |                                               |                |                          value[0:6]: 0x155-0x15c (7)
  0x000015|               2a                              |     *          |                            [0]: 1 oid 0x155-0x156 (1)
  0x000015|               2a                              |     *          |                            [1]: 2 oid 0x155-0x156 (1)
  0x000015|                  86 48                        |      .H        |                            [2]: 840 oid 0x156-0x158 (2)
  0x000015|                        ce 3d                  |        .=      |                            [3]: 10045 oid 0x158-0x15a (2)
  0x000015|                              04               |          .     |                            [4]: 4 oid 0x15a-0x15b (1)
  0x000015|                                 01            |           .    |                            [5]: 1 oid 0x15b-0x15c (1)
          |                                               |                |                    [2]{}: object 0x15c-0x1c7 (107)
  0x000015|                                    03         |            .   |                      class: "universal" (0) 0x15c-0x15c.2 (0.2)
  0x000015|                                    03         |            .   |                      form: "primitive" (0) 0x15c.2-0x15c.3 (0.1)
  0x000015|                                    03         |            .   |                      tag: "bit_string" (0x3) 0x15c.3-0x15d (0.5)
  0x000015|                                       69      |             i  |                      length: 105 0x15d-0x15e (1)
  0x000015|                                          00   |              . |                      unused_bits_count: 0 0x15e-0x15f (1)
  0x000015|                                             30|               0|                      value: raw bits 0x15f-0x1c7 (104)
  0x000016|66 02 31 00 c7 67 eb 3d 15 47 89 d0 26 f4 5f 89|f.1..g.=.G..&._.|
  *       |until 0x1c6.7 (104)                            |                |
          |                                               |                |        [2]{}: record 0x1c7-0x1d0 (9)
  0x00001c|                     16                        |       .        |          type: "handshake" (22) (valid) 0x1c7-0x1c8 (1)
  0x00001c|                        03 03                  |        ..      |          version: "tls1.2" (0x303) (valid) 0x1c8-0x1ca (2)
  0x00001c|                              00 04            |          ..    |          length: 4 0x1ca-0x1cc (2)
          |                                               |                |          message{}: 0x1cc-0x1d0 (4)
  0x00001c|                                    0e         |            .   |            type: "server_hello_done" (14) 0x1cc-0x1cd (1)
  0x00001c|                                       00 00 00|             ...|            length: 0 0x1cd-0x1d0 (3)
          |                                               |                |            data: raw bits 0x1d0-0x1d0 (0)
          |                                               |                |        [3]{}: record 0x1d0-0x27f (175)
  0x00001d|16                                             |.               |          type: "handshake" (22) (valid) 0x1d0-0x1d1 (1)
  0x00001d|   03 03                                       | ..             |          version: "tls1.2" (0x303) (valid) 0x1d1-0x1d3 (2)
  0x00001d|         00 aa                                 |   ..           |          length: 170 0x1d3-0x1d5 (2)
          |                                               |                |          message{}: 0x1d5-0x27f (170)
  0x00001d|               04                              |     .          |            type: "new_session_ticket" (4) 0x1d5-0x1d6 (1)
  0x00001d|                  00 00 a6                     |      ...       |            length: 166 0x1d6-0x1d9 (3)
  0x00001d|                           00 00 01 2c         |         ...,   |            lifetime_hint: 300 0x1d9-0x1dd (4)
  0x00001d|                                       00 a0   |             .. |            ticket_length: 160 0x1dd-0x1df (2)
  0x00001d|                                             6f|               o|            ticket: raw bits 0x1df-0x27f (160)
  0x00001e|7d e1 6c 67 99 7a b0 7e f2 61 6e a4 37 9e 3d bc|}.lg.z.~.an.7.=.|
  *       |until 0x27e.7 (160)                            |                |
          |                                               |                |        [4]{}: record 0x27f-0x285 (6)
  0x000027|                                             14|               .|          type: "change_cipher_spec" (20) (valid) 0x27f-0x280 (1)
  0x000028|03 03                                          |..              |          version: "tls1.2" (0x303) (valid) 0x280-0x282 (2)
  0x000028|      00 01                                    |  ..            |          length: 1 0x282-0x284 (2)
          |                                               |                |          message{}: 0x284-0x285 (1)
  0x000028|            01                                 |    .           |            type: 1 0x284-0x285 (1)
          |                                               |                |        [5]{}: record 0x285-0x2ba (53)
  0x000028|               16                              |     .          |          type: "handshake" (22) (valid) 0x285-0x286 (1)
  0x000028|                  03 03                        |      ..        |          version: "tls1.2" (0x303) (valid) 0x286-0x288 (2)
  0x000028|                        00 30                  |        .0      |          length: 48 0x288-0x28a (2)
  0x000028|                              b7 f6 15 43 05 bb|          ...C..|          encrypted_data: raw bits 0x28a-0x2ba (48)
  0x000029|1a bf ed e4 e3 db 7d 7d 9c aa 3d 58 f0 11 fd 7f|......}}..=X....|
  *       |until 0x2b9.7 (48)                             |                |
          |00 01 02 03 04 05 06 07 08 09 0a 0b 0c 0d 0e 0f|0123456789abcdef|          message{}: 0x0-0x10 (16)
    0x0000|14                                             |.               |            type: "finished" (20) 0x0-0x1 (1)
    0x0000|   00 00 0c                                    | ...            |            length: 12 0x1-0x4 (3)
    0x0000|            f0 0b 63 25 00 0e 4a f8 50 18 f1 3f|    ..c%..J.P..?|            verify_data: raw bits 0x4-0x10 (12)
          |                                               |                |        [6]{}: record 0x2ba-0x741 (1159)
  0x00002b|                              17               |          .     |          type: "application_data" (23) (valid) 0x2ba-0x2bb (1)
  0x00002b|                                 03 03         |           ..   |          version: "tls1.2" (0x303) (valid) 0x2bb-0x2bd (2)
  0x00002b|                                       04 82   |             .. |          length: 1154 0x2bd-0x2bf (2)
  0x00002b|                                             b7|               .|          encrypted_data: raw bits 0x2bf-0x741 (1154)
  0x00002c|f6 15 43 05 bb 1a c0 51 18 fd f5 71 f3 a3 2d da|..C....Q...q..-.|
  *       |until 0x740.7 (end) (1154)                     |                |
          |00 01 02 03 04 05 06 07 08 09 0a 0b 0c 0d 0e 0f|0123456789abcdef|
    0x0000|48 54 54 50 2f 31 2e 30 20 32 30 30 20 6f 6b 0d|HTTP/1.0 200 ok.|          message: raw bits 0x0-0x115c (4444)
    *     |until 0x115b.7 (end) (4444)                    |                |
          |00 01 02 03 04 05 06 07 08 09 0a 0b 0c 0d 0e 0f|0123456789abcdef|
    0x0000|48 54 54 50 2f 31 2e 30 20 32 30 30 20 6f 6b 0d|HTTP/1.0 200 ok.|      stream: raw bits 0x0-0x115c (4444)
    *     |until 0x115b.7 (end) (4444)                    |                |
