$ fq -o keylog=@all.keylog ".tcp_connections[0] | dv" TLS_ECDHE_ECDSA_WITH_AES_128_CBC_SHA256.pcap
          |00 01 02 03 04 05 06 07 08 09 0a 0b 0c 0d 0e 0f|0123456789abcdef|.tcp_connections[0]{}: tcp_connection 0xe36-NA (0)
          |                                               |                |  client{}: 0xe36-NA (0)
          |                                               |                |    ip: "127.0.0.1"
          |                                               |                |    port: 42409
          |                                               |                |    has_start: true
          |                                               |                |    has_end: false
          |                                               |                |    skipped_bytes: 0
          |00 01 02 03 04 05 06 07 08 09 0a 0b 0c 0d 0e 0f|0123456789abcdef|    stream{}: (tls) 0x0-0x1e5.7 (486)
          |                                               |                |      records[0:6]: 0x0-0x1e5.7 (486)
          |                                               |                |        [0]{}: record 0x0-0xa5.7 (166)
  0x000000|16                                             |.               |          type: "handshake" (22) (valid) 0x0-0x0.7 (1)
  0x000000|   03 01                                       | ..             |          version: "tls1.0" (0x301) (valid) 0x1-0x2.7 (2)
  0x000000|         00 a1                                 |   ..           |          length: 161 0x3-0x4.7 (2)
          |                                               |                |          message{}: 0x5-0xa5.7 (161)
  0x000000|               01                              |     .          |            type: "client_hello" (1) 0x5-0x5.7 (1)
  0x000000|                  00 00 9d                     |      ...       |            length: 157 0x6-0x8.7 (3)
  0x000000|                           03 03               |         ..     |            version: "tls1.2" (0x303) 0x9-0xa.7 (2)
          |                                               |                |            random{}: 0xb-0x2a.7 (32)
  0x000000|                                 52 36 2c 11   |           R6,. |              gmt_unix_time: 1379281937 (2013-09-15T21:52:17Z) 0xb-0xe.7 (4)
  0x000000|                                             22|               "|              random_bytes: raw bits 0xf-0x2a.7 (28)
  0x000001|0a b9 b3 15 31 47 e9 8d 23 28 b5 c2 e4 72 d9 d4|....1G..#(...r..|
  0x000002|0d 54 8b e0 51 68 fb 5c 09 4d 9b               |.T..Qh.\.M.     |
  0x000002|                                 00            |           .    |            session_id_length: 0 0x2b-0x2b.7 (1)
          |                                               |                |            session_id: raw bits 0x2c-NA (0)
  0x000002|                                    00 04      |            ..  |            cipher_suits_length: 4 0x2c-0x2d.7 (2)
          |                                               |                |            cipher_suits[0:2]: 0x2e-0x31.7 (4)
  0x000002|                                          c0 23|              .#|              [0]: "TLS_ECDHE_ECDSA_WITH_AES_128_CBC_SHA256" (0xc023) cipher_suit 0x2e-0x2f.7 (2)
  0x000003|00 ff                                          |..              |              [1]: "TLS_EMPTY_RENEGOTIATION_INFO_SCSV" (0xff) cipher_suit 0x30-0x31.7 (2)
  0x000003|      02                                       |  .             |            compression_methods_length: 2 0x32-0x32.7 (1)
          |                                               |                |            compression_methods[0:2]: 0x33-0x34.7 (2)
  0x000003|         01                                    |   .            |              [0]: "deflate" (0x1) compression_method 0x33-0x33.7 (1)
  0x000003|            00                                 |    .           |              [1]: "null" (0x0) compression_method 0x34-0x34.7 (1)
  0x000003|               00 6f                           |     .o         |            extensions_length: 111 0x35-0x36.7 (2)
          |                                               |                |            extensions[0:5]: 0x37-0xa5.7 (111)
          |                                               |                |              [0]{}: extension 0x37-0x3e.7 (8)
  0x000003|                     00 0b                     |       ..       |                type: "ec_point_formats" (11) 0x37-0x38.7 (2)
  0x000003|                           00 04               |         ..     |                length: 4 0x39-0x3a.7 (2)
  0x000003|                                 03            |           .    |                ex_points_format_length: 3 0x3b-0x3b.7 (1)
          |                                               |                |                ex_points_formats[0:3]: 0x3c-0x3e.7 (3)
  0x000003|                                    00         |            .   |                  [0]: 0x0 ex_points_format 0x3c-0x3c.7 (1)
  0x000003|                                       01      |             .  |                  [1]: 0x1 ex_points_format 0x3d-0x3d.7 (1)
  0x000003|                                          02   |              . |                  [2]: 0x2 ex_points_format 0x3e-0x3e.7 (1)
          |                                               |                |              [1]{}: extension 0x3f-0x76.7 (56)
  0x000003|                                             00|               .|                type: "supported_groups" (10) 0x3f-0x40.7 (2)
  0x000004|0a                                             |.               |
  0x000004|   00 34                                       | .4             |                length: 52 0x41-0x42.7 (2)
  0x000004|         00 32                                 |   .2           |                supported_group_length: 50 0x43-0x44.7 (2)
          |                                               |                |                supported_groups[0:25]: 0x45-0x76.7 (50)
  0x000004|               00 0e                           |     ..         |                  [0]: 0xe supported_group 0x45-0x46.7 (2)
  0x000004|                     00 0d                     |       ..       |                  [1]: 0xd supported_group 0x47-0x48.7 (2)
  0x000004|                           00 19               |         ..     |                  [2]: 0x19 supported_group 0x49-0x4a.7 (2)
  0x000004|                                 00 0b         |           ..   |                  [3]: 0xb supported_group 0x4b-0x4c.7 (2)
  0x000004|                                       00 0c   |             .. |                  [4]: 0xc supported_group 0x4d-0x4e.7 (2)
  0x000004|                                             00|               .|                  [5]: 0x18 supported_group 0x4f-0x50.7 (2)
  0x000005|18                                             |.               |
  0x000005|   00 09                                       | ..             |                  [6]: 0x9 supported_group 0x51-0x52.7 (2)
  0x000005|         00 0a                                 |   ..           |                  [7]: 0xa supported_group 0x53-0x54.7 (2)
  0x000005|               00 16                           |     ..         |                  [8]: 0x16 supported_group 0x55-0x56.7 (2)
  0x000005|                     00 17                     |       ..       |                  [9]: 0x17 supported_group 0x57-0x58.7 (2)
  0x000005|                           00 08               |         ..     |                  [10]: 0x8 supported_group 0x59-0x5a.7 (2)
  0x000005|                                 00 06         |           ..   |                  [11]: 0x6 supported_group 0x5b-0x5c.7 (2)
  0x000005|                                       00 07   |             .. |                  [12]: 0x7 supported_group 0x5d-0x5e.7 (2)
  0x000005|                                             00|               .|                  [13]: 0x14 supported_group 0x5f-0x60.7 (2)
  0x000006|14                                             |.               |
  0x000006|   00 15                                       | ..             |                  [14]: 0x15 supported_group 0x61-0x62.7 (2)
  0x000006|         00 04                                 |   ..           |                  [15]: 0x4 supported_group 0x63-0x64.7 (2)
  0x000006|               00 05                           |     ..         |                  [16]: 0x5 supported_group 0x65-0x66.7 (2)
  0x000006|                     00 12                     |       ..       |                  [17]: 0x12 supported_group 0x67-0x68.7 (2)
  0x000006|                           00 13               |         ..     |                  [18]: 0x13 supported_group 0x69-0x6a.7 (2)
  0x000006|                                 00 01         |           ..   |                  [19]: 0x1 supported_group 0x6b-0x6c.7 (2)
  0x000006|                                       00 02   |             .. |                  [20]: 0x2 supported_group 0x6d-0x6e.7 (2)
  0x000006|                                             00|               .|                  [21]: 0x3 supported_group 0x6f-0x70.7 (2)
  0x000007|03                                             |.               |
  0x000007|   00 0f                                       | ..             |                  [22]: 0xf supported_group 0x71-0x72.7 (2)
  0x000007|         00 10                                 |   ..           |                  [23]: 0x10 supported_group 0x73-0x74.7 (2)
  0x000007|               00 11                           |     ..         |                  [24]: 0x11 supported_group 0x75-0x76.7 (2)
          |                                               |                |              [2]{}: extension 0x77-0x7a.7 (4)
  0x000007|                     00 23                     |       .#       |                type: "session_ticket" (35) 0x77-0x78.7 (2)
  0x000007|                           00 00               |         ..     |                length: 0 0x79-0x7a.7 (2)
          |                                               |                |              [3]{}: extension 0x7b-0xa0.7 (38)
  0x000007|                                 00 0d         |           ..   |                type: "signature_algorithms" (13) 0x7b-0x7c.7 (2)
  0x000007|                                       00 22   |             ." |                length: 34 0x7d-0x7e.7 (2)
  0x000007|                                             00|               .|                signature_algorithm_length: 32 0x7f-0x80.7 (2)
  0x000008|20                                             |                |
          |                                               |                |                signature_algorithms[0:16]: 0x81-0xa0.7 (32)
          |                                               |                |                  [0]{}: signature_algorithm 0x81-0x82.7 (2)
  0x000008|   06                                          | .              |                    hash: "sha512" (6) 0x81-0x81.7 (1)
  0x000008|      01                                       |  .             |                    signature: "rsa" (1) 0x82-0x82.7 (1)
          |                                               |                |                  [1]{}: signature_algorithm 0x83-0x84.7 (2)
  0x000008|         06                                    |   .            |                    hash: "sha512" (6) 0x83-0x83.7 (1)
  0x000008|            02                                 |    .           |                    signature: "dsa" (2) 0x84-0x84.7 (1)
          |                                               |                |                  [2]{}: signature_algorithm 0x85-0x86.7 (2)
  0x000008|               06                              |     .          |                    hash: "sha512" (6) 0x85-0x85.7 (1)
  0x000008|                  03                           |      .         |                    signature: "ecdsa" (3) 0x86-0x86.7 (1)
          |                                               |                |                  [3]{}: signature_algorithm 0x87-0x88.7 (2)
  0x000008|                     05                        |       .        |                    hash: "sha384" (5) 0x87-0x87.7 (1)
  0x000008|                        01                     |        .       |                    signature: "rsa" (1) 0x88-0x88.7 (1)
          |                                               |                |                  [4]{}: signature_algorithm 0x89-0x8a.7 (2)
  0x000008|                           05                  |         .      |                    hash: "sha384" (5) 0x89-0x89.7 (1)
  0x000008|                              02               |          .     |                    signature: "dsa" (2) 0x8a-0x8a.7 (1)
          |                                               |                |                  [5]{}: signature_algorithm 0x8b-0x8c.7 (2)
  0x000008|                                 05            |           .    |                    hash: "sha384" (5) 0x8b-0x8b.7 (1)
  0x000008|                                    03         |            .   |                    signature: "ecdsa" (3) 0x8c-0x8c.7 (1)
          |                                               |                |                  [6]{}: signature_algorithm 0x8d-0x8e.7 (2)
  0x000008|                                       04      |             .  |                    hash: "sha256" (4) 0x8d-0x8d.7 (1)
  0x000008|                                          01   |              . |                    signature: "rsa" (1) 0x8e-0x8e.7 (1)
          |                                               |                |                  [7]{}: signature_algorithm 0x8f-0x90.7 (2)
  0x000008|                                             04|               .|                    hash: "sha256" (4) 0x8f-0x8f.7 (1)
  0x000009|02                                             |.               |                    signature: "dsa" (2) 0x90-0x90.7 (1)
          |                                               |                |                  [8]{}: signature_algorithm 0x91-0x92.7 (2)
  0x000009|   04                                          | .              |                    hash: "sha256" (4) 0x91-0x91.7 (1)
  0x000009|      03                                       |  .             |                    signature: "ecdsa" (3) 0x92-0x92.7 (1)
          |                                               |                |                  [9]{}: signature_algorithm 0x93-0x94.7 (2)
  0x000009|         03                                    |   .            |                    hash: "sha224" (3) 0x93-0x93.7 (1)
  0x000009|            01                                 |    .           |                    signature: "rsa" (1) 0x94-0x94.7 (1)
          |                                               |                |                  [10]{}: signature_algorithm 0x95-0x96.7 (2)
  0x000009|               03                              |     .          |                    hash: "sha224" (3) 0x95-0x95.7 (1)
  0x000009|                  02                           |      .         |                    signature: "dsa" (2) 0x96-0x96.7 (1)
          |                                               |                |                  [11]{}: signature_algorithm 0x97-0x98.7 (2)
  0x000009|                     03                        |       .        |                    hash: "sha224" (3) 0x97-0x97.7 (1)
  0x000009|                        03                     |        .       |                    signature: "ecdsa" (3) 0x98-0x98.7 (1)
          |                                               |                |                  [12]{}: signature_algorithm 0x99-0x9a.7 (2)
  0x000009|                           02                  |         .      |                    hash: "sha1" (2) 0x99-0x99.7 (1)
  0x000009|                              01               |          .     |                    signature: "rsa" (1) 0x9a-0x9a.7 (1)
          |                                               |                |                  [13]{}: signature_algorithm 0x9b-0x9c.7 (2)
  0x000009|                                 02            |           .    |                    hash: "sha1" (2) 0x9b-0x9b.7 (1)
  0x000009|                                    02         |            .   |                    signature: "dsa" (2) 0x9c-0x9c.7 (1)
          |                                               |                |                  [14]{}: signature_algorithm 0x9d-0x9e.7 (2)
  0x000009|                                       02      |             .  |                    hash: "sha1" (2) 0x9d-0x9d.7 (1)
  0x000009|                                          03   |              . |                    signature: "ecdsa" (3) 0x9e-0x9e.7 (1)
          |                                               |                |                  [15]{}: signature_algorithm 0x9f-0xa0.7 (2)
  0x000009|                                             01|               .|                    hash: "md5" (1) 0x9f-0x9f.7 (1)
  0x00000a|01                                             |.               |                    signature: "rsa" (1) 0xa0-0xa0.7 (1)
          |                                               |                |              [4]{}: extension 0xa1-0xa5.7 (5)
  0x00000a|   00 0f                                       | ..             |                type: "heartbeat" (15) 0xa1-0xa2.7 (2)
  0x00000a|         00 01                                 |   ..           |                length: 1 0xa3-0xa4.7 (2)
  0x00000a|               01                              |     .          |                data: raw bits 0xa5-0xa5.7 (1)
          |                                               |                |        [1]{}: record 0xa6-0xf0.7 (75)
  0x00000a|                  16                           |      .         |          type: "handshake" (22) (valid) 0xa6-0xa6.7 (1)
  0x00000a|                     03 03                     |       ..       |          version: "tls1.2" (0x303) (valid) 0xa7-0xa8.7 (2)
  0x00000a|                           00 46               |         .F     |          length: 70 0xa9-0xaa.7 (2)
          |                                               |                |          message{}: 0xab-0xf0.7 (70)
  0x00000a|                                 10            |           .    |            type: "client_key_exchange" (16) 0xab-0xab.7 (1)
  0x00000a|                                    00 00 42   |            ..B |            length: 66 0xac-0xae.7 (3)
          |                                               |                |            public{}: 0xaf-NA (0)
  0x00000a|                                             41|               A|              length: 65 0xaf-0xaf.7 (1)
  0x00000b|04 ef b3 c0 48 4c 24 d3 88 cc b6 69 1c 22 41 3c|....HL$....i."A<|              data: raw bits 0xb0-0xf0.7 (65)
  *       |until 0xf0.7 (65)                              |                |
          |                                               |                |        [2]{}: record 0xf1-0xf6.7 (6)
  0x00000f|   14                                          | .              |          type: "change_cipher_spec" (20) (valid) 0xf1-0xf1.7 (1)
  0x00000f|      03 03                                    |  ..            |          version: "tls1.2" (0x303) (valid) 0xf2-0xf3.7 (2)
  0x00000f|            00 01                              |    ..          |          length: 1 0xf4-0xf5.7 (2)
          |                                               |                |          message{}: 0xf6-0xf6.7 (1)
  0x00000f|                  01                           |      .         |            type: 1 0xf6-0xf6.7 (1)
          |                                               |                |        [3]{}: record 0xf7-0x14b.7 (85)
  0x00000f|                     16                        |       .        |          type: "handshake" (22) (valid) 0xf7-0xf7.7 (1)
  0x00000f|                        03 03                  |        ..      |          version: "tls1.2" (0x303) (valid) 0xf8-0xf9.7 (2)
  0x00000f|                              00 50            |          .P    |          length: 80 0xfa-0xfb.7 (2)
  0x00000f|                                    2f 60 f6 c6|            /`..|          encrypted_data: raw bits 0xfc-0x14b.7 (80)
  0x000010|0b 22 23 04 9c ef b1 3a aa ce 43 cb 30 f6 80 ed|."#....:..C.0...|
  *       |until 0x14b.7 (80)                             |                |
          |00 01 02 03 04 05 06 07 08 09 0a 0b 0c 0d 0e 0f|0123456789abcdef|          message{}: 0x0-0xf.7 (16)
    0x0000|14                                             |.               |            type: "finished" (20) 0x0-0x0.7 (1)
    0x0000|   00 00 0c                                    | ...            |            length: 12 0x1-0x3.7 (3)
    0x0000|            90 e1 25 2b f2 ec 41 85 b5 6a 6c a4|    ..%+..A..jl.|            verify_data: raw bits 0x4-0xf.7 (12)
          |                                               |                |        [4]{}: record 0x14c-0x1a0.7 (85)
  0x000014|                                    17         |            .   |          type: "application_data" (23) (valid) 0x14c-0x14c.7 (1)
  0x000014|                                       03 03   |             .. |          version: "tls1.2" (0x303) (valid) 0x14d-0x14e.7 (2)
  0x000014|                                             00|               .|          length: 80 0x14f-0x150.7 (2)
  0x000015|50                                             |P               |
  0x000015|   cb 5f 36 c4 b9 2b 07 10 c7 e1 b4 cf 98 72 b1| ._6..+.......r.|          encrypted_data: raw bits 0x151-0x1a0.7 (80)
  0x000016|16 4b 18 58 aa 8a 9b 33 6f 99 67 2b e9 01 46 f1|.K.X...3o.g+..F.|
  *       |until 0x1a0.7 (80)                             |                |
          |00 01 02 03 04 05 06 07 08 09 0a 0b 0c 0d 0e 0f|0123456789abcdef|
    0x0000|47 45 54 20 2f 20 48 54 54 50 2f 31 2e 30 0d 0a|GET / HTTP/1.0..|          message: raw bits 0x0-0x11.7 (18)
    0x0000|0d 0a|                                         |..|             |
          |                                               |                |        [5]{}: record 0x1a1-0x1e5.7 (69)
  0x00001a|   15                                          | .              |          type: "alert" (21) (valid) 0x1a1-0x1a1.7 (1)
  0x00001a|      03 03                                    |  ..            |          version: "tls1.2" (0x303) (valid) 0x1a2-0x1a3.7 (2)
  0x00001a|            00 40                              |    .@          |          length: 64 0x1a4-0x1a5.7 (2)
  0x00001a|                  a5 55 74 d6 bf a7 f3 0e d2 37|      .Ut......7|          encrypted_data: raw bits 0x1a6-0x1e5.7 (64)
  0x00001b|49 e2 42 b8 b7 3d 8e f5 f5 bb 6c 18 cc dd 47 19|I.B..=....l...G.|
  *       |until 0x1e5.7 (end) (64)                       |                |
          |00 01 02 03 04 05 06 07 08 09 0a 0b 0c 0d 0e 0f|0123456789abcdef|          message{}: 0x0-0x1.7 (2)
    0x0000|01                                             |.               |            level: "warning" (1) 0x0-0x0.7 (1)
    0x0000|   00|                                         | .|             |            description: "close_notify" (0) 0x1-0x1.7 (1)
          |00 01 02 03 04 05 06 07 08 09 0a 0b 0c 0d 0e 0f|0123456789abcdef|
    0x0000|47 45 54 20 2f 20 48 54 54 50 2f 31 2e 30 0d 0a|GET / HTTP/1.0..|      stream: raw bits 0x0-0x11.7 (18)
    0x0000|0d 0a|                                         |..|             |
          |                                               |                |  server{}: 0xe36-NA (0)
          |                                               |                |    ip: "127.0.0.1"
          |                                               |                |    port: 4431
          |                                               |                |    has_start: true
          |                                               |                |    has_end: true
          |                                               |                |    skipped_bytes: 0
          |00 01 02 03 04 05 06 07 08 09 0a 0b 0c 0d 0e 0f|0123456789abcdef|    stream{}: (tls) 0x0-0x837.7 (2104)
          |                                               |                |      records[0:8]: 0x0-0x837.7 (2104)
          |                                               |                |        [0]{}: record 0x0-0x46.7 (71)
  0x000000|16                                             |.               |          type: "handshake" (22) (valid) 0x0-0x0.7 (1)
  0x000000|   03 03                                       | ..             |          version: "tls1.2" (0x303) (valid) 0x1-0x2.7 (2)
  0x000000|         00 42                                 |   .B           |          length: 66 0x3-0x4.7 (2)
          |                                               |                |          message{}: 0x5-0x46.7 (66)
  0x000000|               02                              |     .          |            type: "server_hello" (2) 0x5-0x5.7 (1)
  0x000000|                  00 00 3e                     |      ..>       |            length: 62 0x6-0x8.7 (3)
  0x000000|                           03 03               |         ..     |            version: "tls1.2" (0x303) 0x9-0xa.7 (2)
          |                                               |                |            random{}: 0xb-0x2a.7 (32)
  0x000000|                                 52 36 2c 11   |           R6,. |              gmt_unix_time: 1379281937 (2013-09-15T21:52:17Z) 0xb-0xe.7 (4)
  0x000000|                                             b6|               .|              random_bytes: raw bits 0xf-0x2a.7 (28)
  0x000001|40 ff ec 8b a8 a0 97 e0 30 55 bf d2 dd ff 81 c7|@.......0U......|
  0x000002|87 1d ca f5 ae 9f 83 d9 7b 38 51               |........{8Q     |
  0x000002|                                 00            |           .    |            session_id_length: 0 0x2b-0x2b.7 (1)
          |                                               |                |            session_id: raw bits 0x2c-NA (0)
  0x000002|                                    c0 23      |            .#  |            cipher_suit: "TLS_ECDHE_ECDSA_WITH_AES_128_CBC_SHA256" (0xc023) 0x2c-0x2d.7 (2)
  0x000002|                                          01   |              . |            compression_method: "deflate" (0x1) 0x2e-0x2e.7 (1)
  0x000002|                                             00|               .|            extensions_length: 22 0x2f-0x30.7 (2)
  0x000003|16                                             |.               |
          |                                               |                |            extensions[0:4]: 0x31-0x46.7 (22)
          |                                               |                |              [0]{}: extension 0x31-0x35.7 (5)
  0x000003|   ff 01                                       | ..             |                type: "renegotiation_info" (65281) 0x31-0x32.7 (2)
  0x000003|         00 01                                 |   ..           |                length: 1 0x33-0x34.7 (2)
  0x000003|               00                              |     .          |                data: raw bits 0x35-0x35.7 (1)
          |                                               |                |              [1]{}: extension 0x36-0x3d.7 (8)
  0x000003|                  00 0b                        |      ..        |                type: "ec_point_formats" (11) 0x36-0x37.7 (2)
  0x000003|                        00 04                  |        ..      |                length: 4 0x38-0x39.7 (2)
  0x000003|                              03               |          .     |                ex_points_format_length: 3 0x3a-0x3a.7 (1)
          |                                               |                |                ex_points_formats[0:3]: 0x3b-0x3d.7 (3)
  0x000003|                                 00            |           .    |                  [0]: 0x0 ex_points_format 0x3b-0x3b.7 (1)
  0x000003|                                    01         |            .   |                  [1]: 0x1 ex_points_format 0x3c-0x3c.7 (1)
  0x000003|                                       02      |             .  |                  [2]: 0x2 ex_points_format 0x3d-0x3d.7 (1)
          |                                               |                |              [2]{}: extension 0x3e-0x41.7 (4)
  0x000003|                                          00 23|              .#|                type: "session_ticket" (35) 0x3e-0x3f.7 (2)
  0x000004|00 00                                          |..              |                length: 0 0x40-0x41.7 (2)
          |                                               |                |              [3]{}: extension 0x42-0x46.7 (5)
  0x000004|      00 0f                                    |  ..            |                type: "heartbeat" (15) 0x42-0x43.7 (2)
  0x000004|            00 01                              |    ..          |                length: 1 0x44-0x45.7 (2)
  0x000004|                  01                           |      .         |                data: raw bits 0x46-0x46.7 (1)
          |                                               |                |        [1]{}: record 0x47-0x1c6.7 (384)
  0x000004|                     16                        |       .        |          type: "handshake" (22) (valid) 0x47-0x47.7 (1)
  0x000004|                        03 03                  |        ..      |          version: "tls1.2" (0x303) (valid) 0x48-0x49.7 (2)
  0x000004|                              01 7b            |          .{    |          length: 379 0x4a-0x4b.7 (2)
          |                                               |                |          message{}: 0x4c-0x1c6.7 (379)
  0x000004|                                    0b         |            .   |            type: "certificate" (11) 0x4c-0x4c.7 (1)
  0x000004|                                       00 01 77|             ..w|            length: 375 0x4d-0x4f.7 (3)
  0x000005|00 01 74                                       |..t             |            certificates_length: 372 0x50-0x52.7 (3)
          |                                               |                |            certificates[0:1]: 0x53-0x1c6.7 (372)
          |                                               |                |              [0]{}: certificate 0x53-0x1c6.7 (372)
  0x000005|         00 01 71                              |   ..q          |                length: 369 0x53-0x55.7 (3)
          |00 01 02 03 04 05 06 07 08 09 0a 0b 0c 0d 0e 0f|0123456789abcdef|                data{}: (asn1_ber) 0x56-0x1c6.7 (369)
  0x000005|                  30                           |      0         |                  class: "universal" (0) 0x56-0x56.1 (0.2)
  0x000005|                  30                           |      0         |                  form: "constructed" (1) 0x56.2-0x56.2 (0.1)
  0x000005|                  30                           |      0         |                  tag: "sequence" (0x10) 0x56.3-0x56.7 (0.5)
  0x000005|                     82 01 6d                  |       ..m      |                  length: 365 0x57-0x59.7 (3)
          |                                               |                |                  constructed[0:3]: 0x5a-0x1c6.7 (365)
          |                                               |                |                    [0]{}: object 0x5a-0x150.7 (247)
  0x000005|                              30               |          0     |                      class: "universal" (0) 0x5a-0x5a.1 (0.2)
  0x000005|                              30               |          0     |                      form: "constructed" (1) 0x5a.2-0x5a.2 (0.1)
  0x000005|                              30               |          0     |                      tag: "sequence" (0x10) 0x5a.3-0x5a.7 (0.5)
  0x000005|                                 81 f4         |           ..   |                      length: 244 0x5b-0x5c.7 (2)
          |                                               |                |                      constructed[0:6]: 0x5d-0x150.7 (244)
          |                                               |                |                        [0]{}: object 0x5d-0x67.7 (11)
  0x000005|                                       02      |             .  |                          class: "universal" (0) 0x5d-0x5d.1 (0.2)
  0x000005|                                       02      |             .  |                          form: "primitive" (0) 0x5d.2-0x5d.2 (0.1)
  0x000005|                                       02      |             .  |                          tag: "integer" (0x2) 0x5d.3-0x5d.7 (0.5)
  0x000005|                                          09   |              . |                          length: 9 0x5e-0x5e.7 (1)
  0x000005|                                             00|               .|                          value: 15139635147801862390 0x5f-0x67.7 (9)
  0x000006|d2 1a c9 f4 25 bf a0 f6                        |....%...        |
          |                                               |                |                        [1]{}: object 0x68-0x72.7 (11)
  0x000006|                        30                     |        0       |                          class: "universal" (0) 0x68-0x68.1 (0.2)
  0x000006|                        30                     |        0       |                          form: "constructed" (1) 0x68.2-0x68.2 (0.1)
  0x000006|                        30                     |        0       |                          tag: "sequence" (0x10) 0x68.3-0x68.7 (0.5)
  0x000006|                           09                  |         .      |                          length: 9 0x69-0x69.7 (1)
          |                                               |                |                          constructed[0:1]: 0x6a-0x72.7 (9)
          |                                               |                |                            [0]{}: object 0x6a-0x72.7 (9)
  0x000006|                              06               |          .     |                              class: "universal" (0) 0x6a-0x6a.1 (0.2)
  0x000006|                              06               |          .     |                              form: "primitive" (0) 0x6a.2-0x6a.2 (0.1)
  0x000006|                              06               |          .     |                              tag: "object_identifier" (0x6) 0x6a.3-0x6a.7 (0.5)
  0x000006|                                 07            |           .    |                              length: 7 0x6b-0x6b.7 (1)
          |                                               |                |                              value[0:6]: 0x6c-0x72.7 (7)
  0x000006|                                    2a         |            *   |                                [0]: 1 oid 0x6c-0x6c.7 (1)
  0x000006|                                    2a         |            *   |                                [1]: 2 oid 0x6c-0x6c.7 (1)
  0x000006|                                       86 48   |             .H |                                [2]: 840 oid 0x6d-0x6e.7 (2)
  0x000006|                                             ce|               .|                                [3]: 10045 oid 0x6f-0x70.7 (2)
  0x000007|3d                                             |=               |
  0x000007|   04                                          | .              |                                [4]: 4 oid 0x71-0x71.7 (1)
  0x000007|      01                                       |  .             |                                [5]: 1 oid 0x72-0x72.7 (1)
          |                                               |                |                        [2]{}: object 0x73-0x95.7 (35)
  0x000007|         30                                    |   0            |                          class: "universal" (0) 0x73-0x73.1 (0.2)
  0x000007|         30                                    |   0            |                          form: "constructed" (1) 0x73.2-0x73.2 (0.1)
  0x000007|         30                                    |   0            |                          tag: "sequence" (0x10) 0x73.3-0x73.7 (0.5)
  0x000007|            21                                 |    !           |                          length: 33 0x74-0x74.7 (1)
          |                                               |                |                          constructed[0:1]: 0x75-0x95.7 (33)
          |                                               |                |                            [0]{}: object 0x75-0x95.7 (33)
  0x000007|               31                              |     1          |                              class: "universal" (0) 0x75-0x75.1 (0.2)
  0x000007|               31                              |     1          |                              form: "constructed" (1) 0x75.2-0x75.2 (0.1)
  0x000007|               31                              |     1          |                              tag: "set" (0x11) 0x75.3-0x75.7 (0.5)
  0x000007|                  1f                           |      .         |                              length: 31 0x76-0x76.7 (1)
          |                                               |                |                              constructed[0:1]: 0x77-0x95.7 (31)
          |                                               |                |                                [0]{}: object 0x77-0x95.7 (31)
  0x000007|                     30                        |       0        |                                  class: "universal" (0) 0x77-0x77.1 (0.2)
  0x000007|                     30                        |       0        |                                  form: "constructed" (1) 0x77.2-0x77.2 (0.1)
  0x000007|                     30                        |       0        |                                  tag: "sequence" (0x10) 0x77.3-0x77.7 (0.5)
  0x000007|                        1d                     |        .       |                                  length: 29 0x78-0x78.7 (1)
          |                                               |                |                                  constructed[0:2]: 0x79-0x95.7 (29)
          |                                               |                |                                    [0]{}: object 0x79-0x7d.7 (5)
  0x000007|                           06                  |         .      |                                      class: "universal" (0) 0x79-0x79.1 (0.2)
  0x000007|                           06                  |         .      |                                      form: "primitive" (0) 0x79.2-0x79.2 (0.1)
  0x000007|                           06                  |         .      |                                      tag: "object_identifier" (0x6) 0x79.3-0x79.7 (0.5)
  0x000007|                              03               |          .     |                                      length: 3 0x7a-0x7a.7 (1)
          |                                               |                |                                      value[0:4]: 0x7b-0x7d.7 (3)
  0x000007|                                 55            |           U    |                                        [0]: 2 oid 0x7b-0x7b.7 (1)
  0x000007|                                 55            |           U    |                                        [1]: 5 oid 0x7b-0x7b.7 (1)
  0x000007|                                    04         |            .   |                                        [2]: 4 oid 0x7c-0x7c.7 (1)
  0x000007|                                       03      |             .  |                                        [3]: 3 oid 0x7d-0x7d.7 (1)
          |                                               |                |                                    [1]{}: object 0x7e-0x95.7 (24)
  0x000007|                                          0c   |              . |                                      class: "universal" (0) 0x7e-0x7e.1 (0.2)
  0x000007|                                          0c   |              . |                                      form: "primitive" (0) 0x7e.2-0x7e.2 (0.1)
  0x000007|                                          0c   |              . |                                      tag: "utf8_string" (0xc) 0x7e.3-0x7e.7 (0.5)
  0x000007|                                             16|               .|                                      length: 22 0x7f-0x7f.7 (1)
  0x000008|54 65 73 74 20 43 65 72 74 69 66 69 63 61 74 65|Test Certificate|                                      value: "Test Certificate ECDSA" 0x80-0x95.7 (22)
  0x000009|20 45 43 44 53 41                              | ECDSA          |
          |                                               |                |                        [3]{}: object 0x96-0xb5.7 (32)
  0x000009|                  30                           |      0         |                          class: "universal" (0) 0x96-0x96.1 (0.2)
  0x000009|                  30                           |      0         |                          form: "constructed" (1) 0x96.2-0x96.2 (0.1)
  0x000009|                  30                           |      0         |                          tag: "sequence" (0x10) 0x96.3-0x96.7 (0.5)
  0x000009|                     1e                        |       .        |                          length: 30 0x97-0x97.7 (1)
          |                                               |                |                          constructed[0:2]: 0x98-0xb5.7 (30)
          |                                               |                |                            [0]{}: object 0x98-0xa6.7 (15)
  0x000009|                        17                     |        .       |                              class: "universal" (0) 0x98-0x98.1 (0.2)
  0x000009|                        17                     |        .       |                              form: "primitive" (0) 0x98.2-0x98.2 (0.1)
  0x000009|                        17                     |        .       |                              tag: "utc_time" (0x17) 0x98.3-0x98.7 (0.5)
  0x000009|                           0d                  |         .      |                              length: 13 0x99-0x99.7 (1)
  0x000009|                              31 33 30 39 31 35|          130915|                              value: "130915215110Z" 0x9a-0xa6.7 (13)
  0x00000a|32 31 35 31 31 30 5a                           |215110Z         |
          |                                               |                |                            [1]{}: object 0xa7-0xb5.7 (15)
  0x00000a|                     17                        |       .        |                              class: "universal" (0) 0xa7-0xa7.1 (0.2)
  0x00000a|                     17                        |       .        |                              form: "primitive" (0) 0xa7.2-0xa7.2 (0.1)
  0x00000a|                     17                        |       .        |                              tag: "utc_time" (0x17) 0xa7.3-0xa7.7 (0.5)
  0x00000a|                        0d                     |        .       |                              length: 13 0xa8-0xa8.7 (1)
  0x00000a|                           32 33 30 39 31 33 32|         2309132|                              value: "230913215110Z" 0xa9-0xb5.7 (13)
  0x00000b|31 35 31 31 30 5a                              |15110Z          |
          |                                               |                |                        [4]{}: object 0xb6-0xd8.7 (35)
  0x00000b|                  30                           |      0         |                          class: "universal" (0) 0xb6-0xb6.1 (0.2)
  0x00000b|                  30                           |      0         |                          form: "constructed" (1) 0xb6.2-0xb6.2 (0.1)
  0x00000b|                  30                           |      0         |                          tag: "sequence" (0x10) 0xb6.3-0xb6.7 (0.5)
  0x00000b|                     21                        |       !        |                          length: 33 0xb7-0xb7.7 (1)
          |                                               |                |                          constructed[0:1]: 0xb8-0xd8.7 (33)
          |                                               |                |                            [0]{}: object 0xb8-0xd8.7 (33)
  0x00000b|                        31                     |        1       |                              class: "universal" (0) 0xb8-0xb8.1 (0.2)
  0x00000b|                        31                     |        1       |                              form: "constructed" (1) 0xb8.2-0xb8.2 (0.1)
  0x00000b|                        31                     |        1       |                              tag: "set" (0x11) 0xb8.3-0xb8.7 (0.5)
  0x00000b|                           1f                  |         .      |                              length: 31 0xb9-0xb9.7 (1)
          |                                               |                |                              constructed[0:1]: 0xba-0xd8.7 (31)
          |                                               |                |                                [0]{}: object 0xba-0xd8.7 (31)
  0x00000b|                              30               |          0     |                                  class: "universal" (0) 0xba-0xba.1 (0.2)
  0x00000b|                              30               |          0     |                                  form: "constructed" (1) 0xba.2-0xba.2 (0.1)
  0x00000b|                              30               |          0     |                                  tag: "sequence" (0x10) 0xba.3-0xba.7 (0.5)
  0x00000b|                                 1d            |           .    |                                  length: 29 0xbb-0xbb.7 (1)
          |                                               |                |                                  constructed[0:2]: 0xbc-0xd8.7 (29)
          |                                               |                |                                    [0]{}: object 0xbc-0xc0.7 (5)
  0x00000b|                                    06         |            .   |                                      class: "universal" (0) 0xbc-0xbc.1 (0.2)
  0x00000b|                                    06         |            .   |                                      form: "primitive" (0) 0xbc.2-0xbc.2 (0.1)
  0x00000b|                                    06         |            .   |                                      tag: "object_identifier" (0x6) 0xbc.3-0xbc.7 (0.5)
  0x00000b|                                       03      |             .  |                                      length: 3 0xbd-0xbd.7 (1)
          |                                               |                |                                      value[0:4]: 0xbe-0xc0.7 (3)
  0x00000b|                                          55   |              U |                                        [0]: 2 oid 0xbe-0xbe.7 (1)
  0x00000b|                                          55   |              U |                                        [1]: 5 oid 0xbe-0xbe.7 (1)
  0x00000b|                                             04|               .|                                        [2]: 4 oid 0xbf-0xbf.7 (1)
  0x00000c|03                                             |.               |                                        [3]: 3 oid 0xc0-0xc0.7 (1)
          |                                               |                |                                    [1]{}: object 0xc1-0xd8.7 (24)
  0x00000c|   0c                                          | .              |                                      class: "universal" (0) 0xc1-0xc1.1 (0.2)
  0x00000c|   0c                                          | .              |                                      form: "primitive" (0) 0xc1.2-0xc1.2 (0.1)
  0x00000c|   0c                                          | .              |                                      tag: "utf8_string" (0xc) 0xc1.3-0xc1.7 (0.5)
  0x00000c|      16                                       |  .             |                                      length: 22 0xc2-0xc2.7 (1)
  0x00000c|         54 65 73 74 20 43 65 72 74 69 66 69 63|   Test Certific|                                      value: "Test Certificate ECDSA" 0xc3-0xd8.7 (22)
  0x00000d|61 74 65 20 45 43 44 53 41                     |ate ECDSA       |
          |                                               |                |                        [5]{}: object 0xd9-0x150.7 (120)
  0x00000d|                           30                  |         0      |                          class: "universal" (0) 0xd9-0xd9.1 (0.2)
  0x00000d|                           30                  |         0      |                          form: "constructed" (1) 0xd9.2-0xd9.2 (0.1)
  0x00000d|                           30                  |         0      |                          tag: "sequence" (0x10) 0xd9.3-0xd9.7 (0.5)
  0x00000d|                              76               |          v     |                          length: 118 0xda-0xda.7 (1)
          |                                               |                |                          constructed[0:2]: 0xdb-0x150.7 (118)
          |                                               |                |                            [0]{}: object 0xdb-0xec.7 (18)
  0x00000d|                                 30            |           0    |                              class: "universal" (0) 0xdb-0xdb.1 (0.2)
  0x00000d|                                 30            |           0    |                              form: "constructed" (1) 0xdb.2-0xdb.2 (0.1)
  0x00000d|                                 30            |           0    |                              tag: "sequence" (0x10) 0xdb.3-0xdb.7 (0.5)
  0x00000d|                                    10         |            .   |                              length: 16 0xdc-0xdc.7 (1)
          |                                               |                |                              constructed[0:2]: 0xdd-0xec.7 (16)
          |                                               |                |                                [0]{}: object 0xdd-0xe5.7 (9)
  0x00000d|                                       06      |             .  |                                  class: "universal" (0) 0xdd-0xdd.1 (0.2)
  0x00000d|                                       06      |             .  |                                  form: "primitive" (0) 0xdd.2-0xdd.2 (0.1)
  0x00000d|                                       06      |             .  |                                  tag: "object_identifier" (0x6) 0xdd.3-0xdd.7 (0.5)
  0x00000d|                                          07   |              . |                                  length: 7 0xde-0xde.7 (1)
          |                                               |                |                                  value[0:6]: 0xdf-0xe5.7 (7)
  0x00000d|                                             2a|               *|                                    [0]: 1 oid 0xdf-0xdf.7 (1)
  0x00000d|                                             2a|               *|                                    [1]: 2 oid 0xdf-0xdf.7 (1)
  0x00000e|86 48                                          |.H              |                                    [2]: 840 oid 0xe0-0xe1.7 (2)
  0x00000e|      ce 3d                                    |  .=            |                                    [3]: 10045 oid 0xe2-0xe3.7 (2)
  0x00000e|            02                                 |    .           |                                    [4]: 2 oid 0xe4-0xe4.7 (1)
  0x00000e|               01                              |     .          |                                    [5]: 1 oid 0xe5-0xe5.7 (1)
          |                                               |                |                                [1]{}: object 0xe6-0xec.7 (7)
  0x00000e|                  06                           |      .         |                                  class: "universal" (0) 0xe6-0xe6.1 (0.2)
  0x00000e|                  06                           |      .         |                                  form: "primitive" (0) 0xe6.2-0xe6.2 (0.1)
  0x00000e|                  06                           |      .         |                                  tag: "object_identifier" (0x6) 0xe6.3-0xe6.7 (0.5)
  0x00000e|                     05                        |       .        |                                  length: 5 0xe7-0xe7.7 (1)
          |                                               |                |                                  value[0:5]: 0xe8-0xec.7 (5)
  0x00000e|                        2b                     |        +       |                                    [0]: 1 oid 0xe8-0xe8.7 (1)
  0x00000e|                        2b                     |        +       |                                    [1]: 3 oid 0xe8-0xe8.7 (1)
  0x00000e|                           81 04               |         ..     |                                    [2]: 132 oid 0xe9-0xea.7 (2)
  0x00000e|                                 00            |           .    |                                    [3]: 0 oid 0xeb-0xeb.7 (1)
  0x00000e|                                    22         |            "   |                                    [4]: 34 oid 0xec-0xec.7 (1)
          |                                               |                |                            [1]{}: object 0xed-0x150.7 (100)
  0x00000e|                                       03      |             .  |                              class: "universal" (0) 0xed-0xed.1 (0.2)
  0x00000e|                                       03      |             .  |                              form: "primitive" (0) 0xed.2-0xed.2 (0.1)
  0x00000e|                                       03      |             .  |                              tag: "bit_string" (0x3) 0xed.3-0xed.7 (0.5)
  0x00000e|                                          62   |              b |                              length: 98 0xee-0xee.7 (1)
  0x00000e|                                             00|               .|                              unused_bits_count: 0 0xef-0xef.7 (1)
  0x00000f|04 a8 82 d1 a7 4e 97 73 1c 4a e2 3e f7 e9 ae c2|.....N.s.J.>....|                              value: raw bits 0xf0-0x150.7 (97)
  *       |until 0x150.7 (97)                             |                |
          |                                               |                |                    [1]{}: object 0x151-0x15b.7 (11)
  0x000015|   30                                          | 0              |                      class: "universal" (0) 0x151-0x151.1 (0.2)
  0x000015|   30                                          | 0              |                      form: "constructed" (1) 0x151.2-0x151.2 (0.1)
  0x000015|   30                                          | 0              |                      tag: "sequence" (0x10) 0x151.3-0x151.7 (0.5)
  0x000015|      09                                       |  .             |                      length: 9 0x152-0x152.7 (1)
          |                                               |                |                      constructed[0:1]: 0x153-0x15b.7 (9)
          |                                               |                |                        [0]{}: object 0x153-0x15b.7 (9)
  0x000015|         06                                    |   .            |                          class: "universal" (0) 0x153-0x153.1 (0.2)
  0x000015|         06                                    |   .            |                          form: "primitive" (0) 0x153.2-0x153.2 (0.1)
  0x000015|         06                                    |   .            |                          tag: "object_identifier" (0x6) 0x153.3-0x153.7 (0.5)
  0x000015|            07                                 |    .           |                          length: 7 0x154-0x154.7 (1)
          |                                               |                |                          value[0:6]: 0x155-0x15b.7 (7)
  0x000015|               2a                              |     *          |                            [0]: 1 oid 0x155-0x155.7 (1)
  0x000015|               2a                              |     *          |                            [1]: 2 oid 0x155-0x155.7 (1)
  0x000015|                  86 48                        |      .H        |                            [2]: 840 oid 0x156-0x157.7 (2)
  0x000015|                        ce 3d                  |        .=      |                            [3]: 10045 oid 0x158-0x159.7 (2)
  0x000015|                              04               |          .     |                            [4]: 4 oid 0x15a-0x15a.7 (1)
  0x000015|                                 01            |           .    |                            [5]: 1 oid 0x15b-0x15b.7 (1)
          |                                               |                |                    [2]{}: object 0x15c-0x1c6.7 (107)
  0x000015|                                    03         |            .   |                      class: "universal" (0) 0x15c-0x15c.1 (0.2)
  0x000015|                                    03         |            .   |                      form: "primitive" (0) 0x15c.2-0x15c.2 (0.1)
  0x000015|                                    03         |            .   |                      tag: "bit_string" (0x3) 0x15c.3-0x15c.7 (0.5)
  0x000015|                                       69      |             i  |                      length: 105 0x15d-0x15d.7 (1)
  0x000015|                                          00   |              . |                      unused_bits_count: 0 0x15e-0x15e.7 (1)
  0x000015|                                             30|               0|                      value: raw bits 0x15f-0x1c6.7 (104)
  0x000016|66 02 31 00 c7 67 eb 3d 15 47 89 d0 26 f4 5f 89|f.1..g.=.G..&._.|
  *       |until 0x1c6.7 (104)                            |                |
          |                                               |                |        [2]{}: record 0x1c7-0x27f.7 (185)
  0x00001c|                     16                        |       .        |          type: "handshake" (22) (valid) 0x1c7-0x1c7.7 (1)
  0x00001c|                        03 03                  |        ..      |          version: "tls1.2" (0x303) (valid) 0x1c8-0x1c9.7 (2)
  0x00001c|                              00 b4            |          ..    |          length: 180 0x1ca-0x1cb.7 (2)
          |                                               |                |          message{}: 0x1cc-0x27f.7 (180)
  0x00001c|                                    0c         |            .   |            type: "server_key_exchange" (12) 0x1cc-0x1cc.7 (1)
  0x00001c|                                       00 00 b0|             ...|            length: 176 0x1cd-0x1cf.7 (3)
          |                                               |                |            curve_params{}: 0x1d0-NA (0)
  0x00001d|03                                             |.               |              curve_type: 3 0x1d0-0x1d0.7 (1)
  0x00001d|   00 17                                       | ..             |              named_curve: 23 0x1d1-0x1d2.7 (2)
          |                                               |                |            public{}: 0x1d3-NA (0)
  0x00001d|         41                                    |   A            |              length: 65 0x1d3-0x1d3.7 (1)
  0x00001d|            04 34 e1 a2 85 ef 39 47 4b 97 2b e9|    .4....9GK.+.|              data: raw bits 0x1d4-0x214.7 (65)
  0x00001e|9d e3 c7 4c 70 31 95 87 36 67 64 8d a9 b2 4a d8|...Lp1..6gd...J.|
  *       |until 0x214.7 (65)                             |                |
          |                                               |                |            signature_algorithm{}: 0x215-NA (0)
  0x000021|               06                              |     .          |              hash: "sha512" (6) 0x215-0x215.7 (1)
  0x000021|                  03                           |      .         |              signature: "ecdsa" (3) 0x216-0x216.7 (1)
  0x000021|                     00 67                     |       .g       |              length: 103 0x217-0x218.7 (2)
  0x000021|                           30 65 02 30 36 a8 a5|         0e.06..|              data: raw bits 0x219-0x27f.7 (103)
  0x000022|c1 b1 f1 b8 ef 6a 60 64 d5 9a 45 54 6e 58 c0 55|.....j`d..ETnX.U|
  *       |until 0x27f.7 (103)                            |                |
          |                                               |                |        [3]{}: record 0x280-0x288.7 (9)
  0x000028|16                                             |.               |          type: "handshake" (22) (valid) 0x280-0x280.7 (1)
  0x000028|   03 03                                       | ..             |          version: "tls1.2" (0x303) (valid) 0x281-0x282.7 (2)
  0x000028|         00 04                                 |   ..           |          length: 4 0x283-0x284.7 (2)
          |                                               |                |          message{}: 0x285-0x288.7 (4)
  0x000028|               0e                              |     .          |            type: "server_hello_done" (14) 0x285-0x285.7 (1)
  0x000028|                  00 00 00                     |      ...       |            length: 0 0x286-0x288.7 (3)
          |                                               |                |            data: raw bits 0x289-NA (0)
          |                                               |                |        [4]{}: record 0x289-0x337.7 (175)
  0x000028|                           16                  |         .      |          type: "handshake" (22) (valid) 0x289-0x289.7 (1)
  0x000028|                              03 03            |          ..    |          version: "tls1.2" (0x303) (valid) 0x28a-0x28b.7 (2)
  0x000028|                                    00 aa      |            ..  |          length: 170 0x28c-0x28d.7 (2)
          |                                               |                |          message{}: 0x28e-0x337.7 (170)
  0x000028|                                          04   |              . |            type: "new_session_ticket" (4) 0x28e-0x28e.7 (1)
  0x000028|                                             00|               .|            length: 166 0x28f-0x291.7 (3)
  0x000029|00 a6                                          |..              |
  0x000029|      00 00 01 2c                              |  ...,          |            lifetime_hint: 300 0x292-0x295.7 (4)
  0x000029|                  00 a0                        |      ..        |            ticket_length: 160 0x296-0x297.7 (2)
  0x000029|                        6f 7d e1 6c 67 99 7a b0|        o}.lg.z.|            ticket: raw bits 0x298-0x337.7 (160)
  0x00002a|7e f2 61 6e a4 37 9e 3d f1 35 8b 5f 16 cc 87 d8|~.an.7.=.5._....|
  *       |until 0x337.7 (160)                            |                |
          |                                               |                |        [5]{}: record 0x338-0x33d.7 (6)
  0x000033|                        14                     |        .       |          type: "change_cipher_spec" (20) (valid) 0x338-0x338.7 (1)
  0x000033|                           03 03               |         ..     |          version: "tls1.2" (0x303) (valid) 0x339-0x33a.7 (2)
  0x000033|                                 00 01         |           ..   |          length: 1 0x33b-0x33c.7 (2)
          |                                               |                |          message{}: 0x33d-0x33d.7 (1)
  0x000033|                                       01      |             .  |            type: 1 0x33d-0x33d.7 (1)
          |                                               |                |        [6]{}: record 0x33e-0x392.7 (85)
  0x000033|                                          16   |              . |          type: "handshake" (22) (valid) 0x33e-0x33e.7 (1)
  0x000033|                                             03|               .|          version: "tls1.2" (0x303) (valid) 0x33f-0x340.7 (2)
  0x000034|03                                             |.               |
  0x000034|   00 50                                       | .P             |          length: 80 0x341-0x342.7 (2)
  0x000034|         15 7f 70 e5 7c 01 45 a7 56 a3 17 26 86|   ..p.|.E.V..&.|          encrypted_data: raw bits 0x343-0x392.7 (80)
  0x000035|05 70 c8 9e a5 3a 9d 4a 25 66 52 ea 25 1a 2d d8|.p...:.J%fR.%.-.|
  *       |until 0x392.7 (80)                             |                |
          |00 01 02 03 04 05 06 07 08 09 0a 0b 0c 0d 0e 0f|0123456789abcdef|          message{}: 0x0-0xf.7 (16)
    0x0000|14                                             |.               |            type: "finished" (20) 0x0-0x0.7 (1)
    0x0000|   00 00 0c                                    | ...            |            length: 12 0x1-0x3.7 (3)
    0x0000|            d5 cb ba 05 1e b7 eb 4f 60 c8 39 ec|    .......O`.9.|            verify_data: raw bits 0x4-0xf.7 (12)
          |                                               |                |        [7]{}: record 0x393-0x837.7 (1189)
  0x000039|         17                                    |   .            |          type: "application_data" (23) (valid) 0x393-0x393.7 (1)
  0x000039|            03 03                              |    ..          |          version: "tls1.2" (0x303) (valid) 0x394-0x395.7 (2)
  0x000039|                  04 a0                        |      ..        |          length: 1184 0x396-0x397.7 (2)
  0x000039|                        07 4f 3b 08 ed 62 1f c0|        .O;..b..|          encrypted_data: raw bits 0x398-0x837.7 (1184)
  0x00003a|81 5d 6e 2c 69 f1 28 6e c1 46 d2 5f 6e 20 6d 19|.]n,i.(n.F._n m.|
  *       |until 0x837.7 (end) (1184)                     |                |
          |00 01 02 03 04 05 06 07 08 09 0a 0b 0c 0d 0e 0f|0123456789abcdef|
    0x0000|48 54 54 50 2f 31 2e 30 20 32 30 30 20 6f 6b 0d|HTTP/1.0 200 ok.|          message: raw bits 0x0-0x1152.7 (4435)
    *     |until 0x1152.7 (end) (4435)                    |                |
          |00 01 02 03 04 05 06 07 08 09 0a 0b 0c 0d 0e 0f|0123456789abcdef|
    0x0000|48 54 54 50 2f 31 2e 30 20 32 30 30 20 6f 6b 0d|HTTP/1.0 200 ok.|      stream: raw bits 0x0-0x1152.7 (4435)
    *     |until 0x1152.7 (end) (4435)                    |                |
