$ fq -o keylog=@all.keylog ".tcp_connections[0] | dv" TLS_DHE_DSS_WITH_CAMELLIA_256_CBC_SHA.pcap
       |00 01 02 03 04 05 06 07 08 09 0a 0b 0c 0d 0e 0f|0123456789abcdef|.tcp_connections[0]{}: tcp_connection 0xeac-NA (0)
       |                                               |                |  client{}: 0xeac-NA (0)
       |                                               |                |    ip: "127.0.0.1"
       |                                               |                |    port: 56718
       |                                               |                |    has_start: true
       |                                               |                |    has_end: false
       |                                               |                |    skipped_bytes: 0
       |00 01 02 03 04 05 06 07 08 09 0a 0b 0c 0d 0e 0f|0123456789abcdef|    stream{}: (tls) 0x0-0x175.7 (374)
       |                                               |                |      records[0:6]: 0x0-0x175.7 (374)
       |                                               |                |        [0]{}: record 0x0-0x65.7 (102)
  0x000|16                                             |.               |          type: "handshake" (22) (valid) 0x0-0x0.7 (1)
  0x000|   03 01                                       | ..             |          version: "tls1.0" (0x301) (valid) 0x1-0x2.7 (2)
  0x000|         00 61                                 |   .a           |          length: 97 0x3-0x4.7 (2)
       |                                               |                |          message{}: 0x5-0x65.7 (97)
  0x000|               01                              |     .          |            type: "client_hello" (1) 0x5-0x5.7 (1)
  0x000|                  00 00 5d                     |      ..]       |            length: 93 0x6-0x8.7 (3)
  0x000|                           03 03               |         ..     |            version: "tls1.2" (0x303) 0x9-0xa.7 (2)
       |                                               |                |            random{}: 0xb-0x2a.7 (32)
  0x000|                                 52 36 2c 10   |           R6,. |              gmt_unix_time: 1379281936 (2013-09-15T21:52:16Z) 0xb-0xe.7 (4)
  0x000|                                             3e|               >|              random_bytes: raw bits 0xf-0x2a.7 (28)
  0x001|a5 f4 08 5f 49 3a 4c 59 64 a9 a9 6b aa 38 39 7c|..._I:LYd..k.89||
  0x002|c6 25 c5 14 be e6 2b f1 af b1 db               |.%....+....     |
  0x002|                                 00            |           .    |            session_id_length: 0 0x2b-0x2b.7 (1)
       |                                               |                |            session_id: raw bits 0x2c-NA (0)
  0x002|                                    00 04      |            ..  |            cipher_suits_length: 4 0x2c-0x2d.7 (2)
       |                                               |                |            cipher_suits[0:2]: 0x2e-0x31.7 (4)
  0x002|                                          00 87|              ..|              [0]: "TLS_DHE_DSS_WITH_CAMELLIA_256_CBC_SHA" (0x87) cipher_suit 0x2e-0x2f.7 (2)
  0x003|00 ff                                          |..              |              [1]: "TLS_EMPTY_RENEGOTIATION_INFO_SCSV" (0xff) cipher_suit 0x30-0x31.7 (2)
  0x003|      02                                       |  .             |            compression_methods_length: 2 0x32-0x32.7 (1)
       |                                               |                |            compression_methods[0:2]: 0x33-0x34.7 (2)
  0x003|         01                                    |   .            |              [0]: "deflate" (0x1) compression_method 0x33-0x33.7 (1)
  0x003|            00                                 |    .           |              [1]: "null" (0x0) compression_method 0x34-0x34.7 (1)
  0x003|               00 2f                           |     ./         |            extensions_length: 47 0x35-0x36.7 (2)
       |                                               |                |            extensions[0:3]: 0x37-0x65.7 (47)
       |                                               |                |              [0]{}: extension 0x37-0x3a.7 (4)
  0x003|                     00 23                     |       .#       |                type: "session_ticket" (35) 0x37-0x38.7 (2)
  0x003|                           00 00               |         ..     |                length: 0 0x39-0x3a.7 (2)
       |                                               |                |              [1]{}: extension 0x3b-0x60.7 (38)
  0x003|                                 00 0d         |           ..   |                type: "signature_algorithms" (13) 0x3b-0x3c.7 (2)
  0x003|                                       00 22   |             ." |                length: 34 0x3d-0x3e.7 (2)
  0x003|                                             00|               .|                signature_algorithm_length: 32 0x3f-0x40.7 (2)
  0x004|20                                             |                |
       |                                               |                |                signature_algorithms[0:16]: 0x41-0x60.7 (32)
       |                                               |                |                  [0]{}: signature_algorithm 0x41-0x42.7 (2)
  0x004|   06                                          | .              |                    hash: "sha512" (6) 0x41-0x41.7 (1)
  0x004|      01                                       |  .             |                    signature: "rsa" (1) 0x42-0x42.7 (1)
       |                                               |                |                  [1]{}: signature_algorithm 0x43-0x44.7 (2)
  0x004|         06                                    |   .            |                    hash: "sha512" (6) 0x43-0x43.7 (1)
  0x004|            02                                 |    .           |                    signature: "dsa" (2) 0x44-0x44.7 (1)
       |                                               |                |                  [2]{}: signature_algorithm 0x45-0x46.7 (2)
  0x004|               06                              |     .          |                    hash: "sha512" (6) 0x45-0x45.7 (1)
  0x004|                  03                           |      .         |                    signature: "ecdsa" (3) 0x46-0x46.7 (1)
       |                                               |                |                  [3]{}: signature_algorithm 0x47-0x48.7 (2)
  0x004|                     05                        |       .        |                    hash: "sha384" (5) 0x47-0x47.7 (1)
  0x004|                        01                     |        .       |                    signature: "rsa" (1) 0x48-0x48.7 (1)
       |                                               |                |                  [4]{}: signature_algorithm 0x49-0x4a.7 (2)
  0x004|                           05                  |         .      |                    hash: "sha384" (5) 0x49-0x49.7 (1)
  0x004|                              02               |          .     |                    signature: "dsa" (2) 0x4a-0x4a.7 (1)
       |                                               |                |                  [5]{}: signature_algorithm 0x4b-0x4c.7 (2)
  0x004|                                 05            |           .    |                    hash: "sha384" (5) 0x4b-0x4b.7 (1)
  0x004|                                    03         |            .   |                    signature: "ecdsa" (3) 0x4c-0x4c.7 (1)
       |                                               |                |                  [6]{}: signature_algorithm 0x4d-0x4e.7 (2)
  0x004|                                       04      |             .  |                    hash: "sha256" (4) 0x4d-0x4d.7 (1)
  0x004|                                          01   |              . |                    signature: "rsa" (1) 0x4e-0x4e.7 (1)
       |                                               |                |                  [7]{}: signature_algorithm 0x4f-0x50.7 (2)
  0x004|                                             04|               .|                    hash: "sha256" (4) 0x4f-0x4f.7 (1)
  0x005|02                                             |.               |                    signature: "dsa" (2) 0x50-0x50.7 (1)
       |                                               |                |                  [8]{}: signature_algorithm 0x51-0x52.7 (2)
  0x005|   04                                          | .              |                    hash: "sha256" (4) 0x51-0x51.7 (1)
  0x005|      03                                       |  .             |                    signature: "ecdsa" (3) 0x52-0x52.7 (1)
       |                                               |                |                  [9]{}: signature_algorithm 0x53-0x54.7 (2)
  0x005|         03                                    |   .            |                    hash: "sha224" (3) 0x53-0x53.7 (1)
  0x005|            01                                 |    .           |                    signature: "rsa" (1) 0x54-0x54.7 (1)
       |                                               |                |                  [10]{}: signature_algorithm 0x55-0x56.7 (2)
  0x005|               03                              |     .          |                    hash: "sha224" (3) 0x55-0x55.7 (1)
  0x005|                  02                           |      .         |                    signature: "dsa" (2) 0x56-0x56.7 (1)
       |                                               |                |                  [11]{}: signature_algorithm 0x57-0x58.7 (2)
  0x005|                     03                        |       .        |                    hash: "sha224" (3) 0x57-0x57.7 (1)
  0x005|                        03                     |        .       |                    signature: "ecdsa" (3) 0x58-0x58.7 (1)
       |                                               |                |                  [12]{}: signature_algorithm 0x59-0x5a.7 (2)
  0x005|                           02                  |         .      |                    hash: "sha1" (2) 0x59-0x59.7 (1)
  0x005|                              01               |          .     |                    signature: "rsa" (1) 0x5a-0x5a.7 (1)
       |                                               |                |                  [13]{}: signature_algorithm 0x5b-0x5c.7 (2)
  0x005|                                 02            |           .    |                    hash: "sha1" (2) 0x5b-0x5b.7 (1)
  0x005|                                    02         |            .   |                    signature: "dsa" (2) 0x5c-0x5c.7 (1)
       |                                               |                |                  [14]{}: signature_algorithm 0x5d-0x5e.7 (2)
  0x005|                                       02      |             .  |                    hash: "sha1" (2) 0x5d-0x5d.7 (1)
  0x005|                                          03   |              . |                    signature: "ecdsa" (3) 0x5e-0x5e.7 (1)
       |                                               |                |                  [15]{}: signature_algorithm 0x5f-0x60.7 (2)
  0x005|                                             01|               .|                    hash: "md5" (1) 0x5f-0x5f.7 (1)
  0x006|01                                             |.               |                    signature: "rsa" (1) 0x60-0x60.7 (1)
       |                                               |                |              [2]{}: extension 0x61-0x65.7 (5)
  0x006|   00 0f                                       | ..             |                type: "heartbeat" (15) 0x61-0x62.7 (2)
  0x006|         00 01                                 |   ..           |                length: 1 0x63-0x64.7 (2)
  0x006|               01                              |     .          |                data: raw bits 0x65-0x65.7 (1)
       |                                               |                |        [1]{}: record 0x66-0xb0.7 (75)
  0x006|                  16                           |      .         |          type: "handshake" (22) (valid) 0x66-0x66.7 (1)
  0x006|                     03 03                     |       ..       |          version: "tls1.2" (0x303) (valid) 0x67-0x68.7 (2)
  0x006|                           00 46               |         .F     |          length: 70 0x69-0x6a.7 (2)
       |                                               |                |          message{}: 0x6b-0xb0.7 (70)
  0x006|                                 10            |           .    |            type: "client_key_exchange" (16) 0x6b-0x6b.7 (1)
  0x006|                                    00 00 42   |            ..B |            length: 66 0x6c-0x6e.7 (3)
       |                                               |                |            public{}: 0x6f-NA (0)
  0x006|                                             00|               .|              length: 64 0x6f-0x70.7 (2)
  0x007|40                                             |@               |
  0x007|   45 af 35 e7 c1 42 00 09 b1 30 13 55 78 1c c6| E.5..B...0.Ux..|              data: raw bits 0x71-0xb0.7 (64)
  0x008|f0 92 7f e1 db 76 c4 ad 86 82 7d 2b 0a 50 a3 55|.....v....}+.P.U|
  *    |until 0xb0.7 (64)                              |                |
       |                                               |                |        [2]{}: record 0xb1-0xb6.7 (6)
  0x00b|   14                                          | .              |          type: "change_cipher_spec" (20) (valid) 0xb1-0xb1.7 (1)
  0x00b|      03 03                                    |  ..            |          version: "tls1.2" (0x303) (valid) 0xb2-0xb3.7 (2)
  0x00b|            00 01                              |    ..          |          length: 1 0xb4-0xb5.7 (2)
       |                                               |                |          message{}: 0xb6-0xb6.7 (1)
  0x00b|                  01                           |      .         |            type: 1 0xb6-0xb6.7 (1)
       |                                               |                |        [3]{}: record 0xb7-0xfb.7 (69)
  0x00b|                     16                        |       .        |          type: "handshake" (22) (valid) 0xb7-0xb7.7 (1)
  0x00b|                        03 03                  |        ..      |          version: "tls1.2" (0x303) (valid) 0xb8-0xb9.7 (2)
  0x00b|                              00 40            |          .@    |          length: 64 0xba-0xbb.7 (2)
  0x00b|                                    e4 3e 93 f6|            .>..|          encrypted_data: raw bits 0xbc-0xfb.7 (64)
  0x00c|5a 81 99 2d cf e9 13 fb b3 d9 d9 11 cf 86 b2 f0|Z..-............|
  *    |until 0xfb.7 (64)                              |                |
       |                                               |                |        [4]{}: record 0xfc-0x140.7 (69)
  0x00f|                                    17         |            .   |          type: "application_data" (23) (valid) 0xfc-0xfc.7 (1)
  0x00f|                                       03 03   |             .. |          version: "tls1.2" (0x303) (valid) 0xfd-0xfe.7 (2)
  0x00f|                                             00|               .|          length: 64 0xff-0x100.7 (2)
  0x010|40                                             |@               |
  0x010|   39 f0 5f 1e 84 b3 9e e8 27 6d c0 32 1b ac b7| 9._.....'m.2...|          encrypted_data: raw bits 0x101-0x140.7 (64)
  0x011|c9 6f 3e 56 9d 24 6b 25 6a 1f 4d 60 3e 53 eb 23|.o>V.$k%j.M`>S.#|
  *    |until 0x140.7 (64)                             |                |
       |                                               |                |        [5]{}: record 0x141-0x175.7 (53)
  0x014|   15                                          | .              |          type: "alert" (21) (valid) 0x141-0x141.7 (1)
  0x014|      03 03                                    |  ..            |          version: "tls1.2" (0x303) (valid) 0x142-0x143.7 (2)
  0x014|            00 30                              |    .0          |          length: 48 0x144-0x145.7 (2)
  0x014|                  e2 cb 1e 06 a7 f6 20 a0 96 e3|      ...... ...|          encrypted_data: raw bits 0x146-0x175.7 (48)
  0x015|98 c8 8c 99 dd c7 dc 0a 8c a9 14 c6 d1 f0 46 b2|..............F.|
  *    |until 0x175.7 (end) (48)                       |                |
       |                                               |                |  server{}: 0xeac-NA (0)
       |                                               |                |    ip: "127.0.0.1"
       |                                               |                |    port: 4433
       |                                               |                |    has_start: true
       |                                               |                |    has_end: true
       |                                               |                |    skipped_bytes: 0
       |00 01 02 03 04 05 06 07 08 09 0a 0b 0c 0d 0e 0f|0123456789abcdef|    stream{}: (tls) 0x0-0x91d.7 (2334)
       |                                               |                |      records[0:8]: 0x0-0x91d.7 (2334)
       |                                               |                |        [0]{}: record 0x0-0x3e.7 (63)
  0x000|16                                             |.               |          type: "handshake" (22) (valid) 0x0-0x0.7 (1)
  0x000|   03 03                                       | ..             |          version: "tls1.2" (0x303) (valid) 0x1-0x2.7 (2)
  0x000|         00 3a                                 |   .:           |          length: 58 0x3-0x4.7 (2)
       |                                               |                |          message{}: 0x5-0x3e.7 (58)
  0x000|               02                              |     .          |            type: "server_hello" (2) 0x5-0x5.7 (1)
  0x000|                  00 00 36                     |      ..6       |            length: 54 0x6-0x8.7 (3)
  0x000|                           03 03               |         ..     |            version: "tls1.2" (0x303) 0x9-0xa.7 (2)
       |                                               |                |            random{}: 0xb-0x2a.7 (32)
  0x000|                                 52 36 2c 10   |           R6,. |              gmt_unix_time: 1379281936 (2013-09-15T21:52:16Z) 0xb-0xe.7 (4)
  0x000|                                             f5|               .|              random_bytes: raw bits 0xf-0x2a.7 (28)
  0x001|a5 96 40 19 55 d9 ce 5a 12 a0 c2 69 df 79 f7 3b|..@.U..Z...i.y.;|
  0x002|1d b7 9d 44 05 df 15 de f5 b9 73               |...D......s     |
  0x002|                                 00            |           .    |            session_id_length: 0 0x2b-0x2b.7 (1)
       |                                               |                |            session_id: raw bits 0x2c-NA (0)
  0x002|                                    00 87      |            ..  |            cipher_suit: "TLS_DHE_DSS_WITH_CAMELLIA_256_CBC_SHA" (0x87) 0x2c-0x2d.7 (2)
  0x002|                                          01   |              . |            compression_method: "deflate" (0x1) 0x2e-0x2e.7 (1)
  0x002|                                             00|               .|            extensions_length: 14 0x2f-0x30.7 (2)
  0x003|0e                                             |.               |
       |                                               |                |            extensions[0:3]: 0x31-0x3e.7 (14)
       |                                               |                |              [0]{}: extension 0x31-0x35.7 (5)
  0x003|   ff 01                                       | ..             |                type: "renegotiation_info" (65281) 0x31-0x32.7 (2)
  0x003|         00 01                                 |   ..           |                length: 1 0x33-0x34.7 (2)
  0x003|               00                              |     .          |                data: raw bits 0x35-0x35.7 (1)
       |                                               |                |              [1]{}: extension 0x36-0x39.7 (4)
  0x003|                  00 23                        |      .#        |                type: "session_ticket" (35) 0x36-0x37.7 (2)
  0x003|                        00 00                  |        ..      |                length: 0 0x38-0x39.7 (2)
       |                                               |                |              [2]{}: extension 0x3a-0x3e.7 (5)
  0x003|                              00 0f            |          ..    |                type: "heartbeat" (15) 0x3a-0x3b.7 (2)
  0x003|                                    00 01      |            ..  |                length: 1 0x3c-0x3d.7 (2)
  0x003|                                          01   |              . |                data: raw bits 0x3e-0x3e.7 (1)
       |                                               |                |        [1]{}: record 0x3f-0x2c3.7 (645)
  0x003|                                             16|               .|          type: "handshake" (22) (valid) 0x3f-0x3f.7 (1)
  0x004|03 03                                          |..              |          version: "tls1.2" (0x303) (valid) 0x40-0x41.7 (2)
  0x004|      02 80                                    |  ..            |          length: 640 0x42-0x43.7 (2)
       |                                               |                |          message{}: 0x44-0x2c3.7 (640)
  0x004|            0b                                 |    .           |            type: "certificate" (11) 0x44-0x44.7 (1)
  0x004|               00 02 7c                        |     ..|        |            length: 636 0x45-0x47.7 (3)
  0x004|                        00 02 79               |        ..y     |            certificates_length: 633 0x48-0x4a.7 (3)
       |                                               |                |            certificates[0:1]: 0x4b-0x2c3.7 (633)
       |                                               |                |              [0]{}: certificate 0x4b-0x2c3.7 (633)
  0x004|                                 00 02 76      |           ..v  |                length: 630 0x4b-0x4d.7 (3)
       |00 01 02 03 04 05 06 07 08 09 0a 0b 0c 0d 0e 0f|0123456789abcdef|                data{}: (asn1_ber) 0x4e-0x2c3.7 (630)
  0x004|                                          30   |              0 |                  class: "universal" (0) 0x4e-0x4e.1 (0.2)
  0x004|                                          30   |              0 |                  form: "constructed" (1) 0x4e.2-0x4e.2 (0.1)
  0x004|                                          30   |              0 |                  tag: "sequence" (0x10) 0x4e.3-0x4e.7 (0.5)
  0x004|                                             82|               .|                  length: 626 0x4f-0x51.7 (3)
  0x005|02 72                                          |.r              |
       |                                               |                |                  constructed[0:3]: 0x52-0x2c3.7 (626)
       |                                               |                |                    [0]{}: object 0x52-0x287.7 (566)
  0x005|      30                                       |  0             |                      class: "universal" (0) 0x52-0x52.1 (0.2)
  0x005|      30                                       |  0             |                      form: "constructed" (1) 0x52.2-0x52.2 (0.1)
  0x005|      30                                       |  0             |                      tag: "sequence" (0x10) 0x52.3-0x52.7 (0.5)
  0x005|         82 02 32                              |   ..2          |                      length: 562 0x53-0x55.7 (3)
       |                                               |                |                      constructed[0:6]: 0x56-0x287.7 (562)
       |                                               |                |                        [0]{}: object 0x56-0x60.7 (11)
  0x005|                  02                           |      .         |                          class: "universal" (0) 0x56-0x56.1 (0.2)
  0x005|                  02                           |      .         |                          form: "primitive" (0) 0x56.2-0x56.2 (0.1)
  0x005|                  02                           |      .         |                          tag: "integer" (0x2) 0x56.3-0x56.7 (0.5)
  0x005|                     09                        |       .        |                          length: 9 0x57-0x57.7 (1)
  0x005|                        00 c6 85 8b d3 08 d4 32|        .......2|                          value: 14304993529914733277 0x58-0x60.7 (9)
  0x006|dd                                             |.               |
       |                                               |                |                        [1]{}: object 0x61-0x6b.7 (11)
  0x006|   30                                          | 0              |                          class: "universal" (0) 0x61-0x61.1 (0.2)
  0x006|   30                                          | 0              |                          form: "constructed" (1) 0x61.2-0x61.2 (0.1)
  0x006|   30                                          | 0              |                          tag: "sequence" (0x10) 0x61.3-0x61.7 (0.5)
  0x006|      09                                       |  .             |                          length: 9 0x62-0x62.7 (1)
       |                                               |                |                          constructed[0:1]: 0x63-0x6b.7 (9)
       |                                               |                |                            [0]{}: object 0x63-0x6b.7 (9)
  0x006|         06                                    |   .            |                              class: "universal" (0) 0x63-0x63.1 (0.2)
  0x006|         06                                    |   .            |                              form: "primitive" (0) 0x63.2-0x63.2 (0.1)
  0x006|         06                                    |   .            |                              tag: "object_identifier" (0x6) 0x63.3-0x63.7 (0.5)
  0x006|            07                                 |    .           |                              length: 7 0x64-0x64.7 (1)
       |                                               |                |                              value[0:6]: 0x65-0x6b.7 (7)
  0x006|               2a                              |     *          |                                [0]: 1 oid 0x65-0x65.7 (1)
  0x006|               2a                              |     *          |                                [1]: 2 oid 0x65-0x65.7 (1)
  0x006|                  86 48                        |      .H        |                                [2]: 840 oid 0x66-0x67.7 (2)
  0x006|                        ce 38                  |        .8      |                                [3]: 10040 oid 0x68-0x69.7 (2)
  0x006|                              04               |          .     |                                [4]: 4 oid 0x6a-0x6a.7 (1)
  0x006|                                 03            |           .    |                                [5]: 3 oid 0x6b-0x6b.7 (1)
       |                                               |                |                        [2]{}: object 0x6c-0x8c.7 (33)
  0x006|                                    30         |            0   |                          class: "universal" (0) 0x6c-0x6c.1 (0.2)
  0x006|                                    30         |            0   |                          form: "constructed" (1) 0x6c.2-0x6c.2 (0.1)
  0x006|                                    30         |            0   |                          tag: "sequence" (0x10) 0x6c.3-0x6c.7 (0.5)
  0x006|                                       1f      |             .  |                          length: 31 0x6d-0x6d.7 (1)
       |                                               |                |                          constructed[0:1]: 0x6e-0x8c.7 (31)
       |                                               |                |                            [0]{}: object 0x6e-0x8c.7 (31)
  0x006|                                          31   |              1 |                              class: "universal" (0) 0x6e-0x6e.1 (0.2)
  0x006|                                          31   |              1 |                              form: "constructed" (1) 0x6e.2-0x6e.2 (0.1)
  0x006|                                          31   |              1 |                              tag: "set" (0x11) 0x6e.3-0x6e.7 (0.5)
  0x006|                                             1d|               .|                              length: 29 0x6f-0x6f.7 (1)
       |                                               |                |                              constructed[0:1]: 0x70-0x8c.7 (29)
       |                                               |                |                                [0]{}: object 0x70-0x8c.7 (29)
  0x007|30                                             |0               |                                  class: "universal" (0) 0x70-0x70.1 (0.2)
  0x007|30                                             |0               |                                  form: "constructed" (1) 0x70.2-0x70.2 (0.1)
  0x007|30                                             |0               |                                  tag: "sequence" (0x10) 0x70.3-0x70.7 (0.5)
  0x007|   1b                                          | .              |                                  length: 27 0x71-0x71.7 (1)
       |                                               |                |                                  constructed[0:2]: 0x72-0x8c.7 (27)
       |                                               |                |                                    [0]{}: object 0x72-0x76.7 (5)
  0x007|      06                                       |  .             |                                      class: "universal" (0) 0x72-0x72.1 (0.2)
  0x007|      06                                       |  .             |                                      form: "primitive" (0) 0x72.2-0x72.2 (0.1)
  0x007|      06                                       |  .             |                                      tag: "object_identifier" (0x6) 0x72.3-0x72.7 (0.5)
  0x007|         03                                    |   .            |                                      length: 3 0x73-0x73.7 (1)
       |                                               |                |                                      value[0:4]: 0x74-0x76.7 (3)
  0x007|            55                                 |    U           |                                        [0]: 2 oid 0x74-0x74.7 (1)
  0x007|            55                                 |    U           |                                        [1]: 5 oid 0x74-0x74.7 (1)
  0x007|               04                              |     .          |                                        [2]: 4 oid 0x75-0x75.7 (1)
  0x007|                  03                           |      .         |                                        [3]: 3 oid 0x76-0x76.7 (1)
       |                                               |                |                                    [1]{}: object 0x77-0x8c.7 (22)
  0x007|                     0c                        |       .        |                                      class: "universal" (0) 0x77-0x77.1 (0.2)
  0x007|                     0c                        |       .        |                                      form: "primitive" (0) 0x77.2-0x77.2 (0.1)
  0x007|                     0c                        |       .        |                                      tag: "utf8_string" (0xc) 0x77.3-0x77.7 (0.5)
  0x007|                        14                     |        .       |                                      length: 20 0x78-0x78.7 (1)
  0x007|                           54 65 73 74 20 43 65|         Test Ce|                                      value: "Test Certificate DSS" 0x79-0x8c.7 (20)
  0x008|72 74 69 66 69 63 61 74 65 20 44 53 53         |rtificate DSS   |
       |                                               |                |                        [3]{}: object 0x8d-0xac.7 (32)
  0x008|                                       30      |             0  |                          class: "universal" (0) 0x8d-0x8d.1 (0.2)
  0x008|                                       30      |             0  |                          form: "constructed" (1) 0x8d.2-0x8d.2 (0.1)
  0x008|                                       30      |             0  |                          tag: "sequence" (0x10) 0x8d.3-0x8d.7 (0.5)
  0x008|                                          1e   |              . |                          length: 30 0x8e-0x8e.7 (1)
       |                                               |                |                          constructed[0:2]: 0x8f-0xac.7 (30)
       |                                               |                |                            [0]{}: object 0x8f-0x9d.7 (15)
  0x008|                                             17|               .|                              class: "universal" (0) 0x8f-0x8f.1 (0.2)
  0x008|                                             17|               .|                              form: "primitive" (0) 0x8f.2-0x8f.2 (0.1)
  0x008|                                             17|               .|                              tag: "utc_time" (0x17) 0x8f.3-0x8f.7 (0.5)
  0x009|0d                                             |.               |                              length: 13 0x90-0x90.7 (1)
  0x009|   31 33 30 39 31 35 32 31 35 31 31 30 5a      | 130915215110Z  |                              value: "130915215110Z" 0x91-0x9d.7 (13)
       |                                               |                |                            [1]{}: object 0x9e-0xac.7 (15)
  0x009|                                          17   |              . |                              class: "universal" (0) 0x9e-0x9e.1 (0.2)
  0x009|                                          17   |              . |                              form: "primitive" (0) 0x9e.2-0x9e.2 (0.1)
  0x009|                                          17   |              . |                              tag: "utc_time" (0x17) 0x9e.3-0x9e.7 (0.5)
  0x009|                                             0d|               .|                              length: 13 0x9f-0x9f.7 (1)
  0x00a|32 33 30 39 31 33 32 31 35 31 31 30 5a         |230913215110Z   |                              value: "230913215110Z" 0xa0-0xac.7 (13)
       |                                               |                |                        [4]{}: object 0xad-0xcd.7 (33)
  0x00a|                                       30      |             0  |                          class: "universal" (0) 0xad-0xad.1 (0.2)
  0x00a|                                       30      |             0  |                          form: "constructed" (1) 0xad.2-0xad.2 (0.1)
  0x00a|                                       30      |             0  |                          tag: "sequence" (0x10) 0xad.3-0xad.7 (0.5)
  0x00a|                                          1f   |              . |                          length: 31 0xae-0xae.7 (1)
       |                                               |                |                          constructed[0:1]: 0xaf-0xcd.7 (31)
       |                                               |                |                            [0]{}: object 0xaf-0xcd.7 (31)
  0x00a|                                             31|               1|                              class: "universal" (0) 0xaf-0xaf.1 (0.2)
  0x00a|                                             31|               1|                              form: "constructed" (1) 0xaf.2-0xaf.2 (0.1)
  0x00a|                                             31|               1|                              tag: "set" (0x11) 0xaf.3-0xaf.7 (0.5)
  0x00b|1d                                             |.               |                              length: 29 0xb0-0xb0.7 (1)
       |                                               |                |                              constructed[0:1]: 0xb1-0xcd.7 (29)
       |                                               |                |                                [0]{}: object 0xb1-0xcd.7 (29)
  0x00b|   30                                          | 0              |                                  class: "universal" (0) 0xb1-0xb1.1 (0.2)
  0x00b|   30                                          | 0              |                                  form: "constructed" (1) 0xb1.2-0xb1.2 (0.1)
  0x00b|   30                                          | 0              |                                  tag: "sequence" (0x10) 0xb1.3-0xb1.7 (0.5)
  0x00b|      1b                                       |  .             |                                  length: 27 0xb2-0xb2.7 (1)
       |                                               |                |                                  constructed[0:2]: 0xb3-0xcd.7 (27)
       |                                               |                |                                    [0]{}: object 0xb3-0xb7.7 (5)
  0x00b|         06                                    |   .            |                                      class: "universal" (0) 0xb3-0xb3.1 (0.2)
  0x00b|         06                                    |   .            |                                      form: "primitive" (0) 0xb3.2-0xb3.2 (0.1)
  0x00b|         06                                    |   .            |                                      tag: "object_identifier" (0x6) 0xb3.3-0xb3.7 (0.5)
  0x00b|            03                                 |    .           |                                      length: 3 0xb4-0xb4.7 (1)
       |                                               |                |                                      value[0:4]: 0xb5-0xb7.7 (3)
  0x00b|               55                              |     U          |                                        [0]: 2 oid 0xb5-0xb5.7 (1)
  0x00b|               55                              |     U          |                                        [1]: 5 oid 0xb5-0xb5.7 (1)
  0x00b|                  04                           |      .         |                                        [2]: 4 oid 0xb6-0xb6.7 (1)
  0x00b|                     03                        |       .        |                                        [3]: 3 oid 0xb7-0xb7.7 (1)
       |                                               |                |                                    [1]{}: object 0xb8-0xcd.7 (22)
  0x00b|                        0c                     |        .       |                                      class: "universal" (0) 0xb8-0xb8.1 (0.2)
  0x00b|                        0c                     |        .       |                                      form: "primitive" (0) 0xb8.2-0xb8.2 (0.1)
  0x00b|                        0c                     |        .       |                                      tag: "utf8_string" (0xc) 0xb8.3-0xb8.7 (0.5)
  0x00b|                           14                  |         .      |                                      length: 20 0xb9-0xb9.7 (1)
  0x00b|                              54 65 73 74 20 43|          Test C|                                      value: "Test Certificate DSS" 0xba-0xcd.7 (20)
  0x00c|65 72 74 69 66 69 63 61 74 65 20 44 53 53      |ertificate DSS  |
       |                                               |                |                        [5]{}: object 0xce-0x287.7 (442)
  0x00c|                                          30   |              0 |                          class: "universal" (0) 0xce-0xce.1 (0.2)
  0x00c|                                          30   |              0 |                          form: "constructed" (1) 0xce.2-0xce.2 (0.1)
  0x00c|                                          30   |              0 |                          tag: "sequence" (0x10) 0xce.3-0xce.7 (0.5)
  0x00c|                                             82|               .|                          length: 438 0xcf-0xd1.7 (3)
  0x00d|01 b6                                          |..              |
       |                                               |                |                          constructed[0:2]: 0xd2-0x287.7 (438)
       |                                               |                |                            [0]{}: object 0xd2-0x200.7 (303)
  0x00d|      30                                       |  0             |                              class: "universal" (0) 0xd2-0xd2.1 (0.2)
  0x00d|      30                                       |  0             |                              form: "constructed" (1) 0xd2.2-0xd2.2 (0.1)
  0x00d|      30                                       |  0             |                              tag: "sequence" (0x10) 0xd2.3-0xd2.7 (0.5)
  0x00d|         82 01 2b                              |   ..+          |                              length: 299 0xd3-0xd5.7 (3)
       |                                               |                |                              constructed[0:2]: 0xd6-0x200.7 (299)
       |                                               |                |                                [0]{}: object 0xd6-0xde.7 (9)
  0x00d|                  06                           |      .         |                                  class: "universal" (0) 0xd6-0xd6.1 (0.2)
  0x00d|                  06                           |      .         |                                  form: "primitive" (0) 0xd6.2-0xd6.2 (0.1)
  0x00d|                  06                           |      .         |                                  tag: "object_identifier" (0x6) 0xd6.3-0xd6.7 (0.5)
  0x00d|                     07                        |       .        |                                  length: 7 0xd7-0xd7.7 (1)
       |                                               |                |                                  value[0:6]: 0xd8-0xde.7 (7)
  0x00d|                        2a                     |        *       |                                    [0]: 1 oid 0xd8-0xd8.7 (1)
  0x00d|                        2a                     |        *       |                                    [1]: 2 oid 0xd8-0xd8.7 (1)
  0x00d|                           86 48               |         .H     |                                    [2]: 840 oid 0xd9-0xda.7 (2)
  0x00d|                                 ce 38         |           .8   |                                    [3]: 10040 oid 0xdb-0xdc.7 (2)
  0x00d|                                       04      |             .  |                                    [4]: 4 oid 0xdd-0xdd.7 (1)
  0x00d|                                          01   |              . |                                    [5]: 1 oid 0xde-0xde.7 (1)
       |                                               |                |                                [1]{}: object 0xdf-0x200.7 (290)
  0x00d|                                             30|               0|                                  class: "universal" (0) 0xdf-0xdf.1 (0.2)
  0x00d|                                             30|               0|                                  form: "constructed" (1) 0xdf.2-0xdf.2 (0.1)
  0x00d|                                             30|               0|                                  tag: "sequence" (0x10) 0xdf.3-0xdf.7 (0.5)
  0x00e|82 01 1e                                       |...             |                                  length: 286 0xe0-0xe2.7 (3)
       |                                               |                |                                  constructed[0:3]: 0xe3-0x200.7 (286)
       |                                               |                |                                    [0]{}: object 0xe3-0x166.7 (132)
  0x00e|         02                                    |   .            |                                      class: "universal" (0) 0xe3-0xe3.1 (0.2)
  0x00e|         02                                    |   .            |                                      form: "primitive" (0) 0xe3.2-0xe3.2 (0.1)
  0x00e|         02                                    |   .            |                                      tag: "integer" (0x2) 0xe3.3-0xe3.7 (0.5)
  0x00e|            81 81                              |    ..          |                                      length: 129 0xe4-0xe5.7 (2)
  0x00e|                  00 c2 f7 7e e9 70 e7 89 12 0a|      ...~.p....|                                      value: 136910329070488299378327259524927038161733379470505356730121232091090086514834553845968989920849620435345775777167290535699239055131308141952489888965222417689471480719820943713033298825729988988452440118426146804292912092805770067484684608296506113124192386094297682201884209532959834970982669442066672091881 0xe6-0x166.7 (129)
  0x00f|a5 78 26 24 fc cd 49 7e c2 d3 9f 22 8d 27 e6 ca|.x&$..I~...".'..|
  *    |until 0x166.7 (129)                            |                |
       |                                               |                |                                    [1]{}: object 0x167-0x17d.7 (23)
  0x016|                     02                        |       .        |                                      class: "universal" (0) 0x167-0x167.1 (0.2)
  0x016|                     02                        |       .        |                                      form: "primitive" (0) 0x167.2-0x167.2 (0.1)
  0x016|                     02                        |       .        |                                      tag: "integer" (0x2) 0x167.3-0x167.7 (0.5)
  0x016|                        15                     |        .       |                                      length: 21 0x168-0x168.7 (1)
  0x016|                           00 98 58 f2 62 6b b6|         ..X.bk.|                                      value: 869750177406735357517327538899360394175585208387 0x169-0x17d.7 (21)
  0x017|3c 03 14 47 dd 8e 68 4a 3d 1c fe 4c 48 43      |<..G..hJ=..LHC  |
       |                                               |                |                                    [2]{}: object 0x17e-0x200.7 (131)
  0x017|                                          02   |              . |                                      class: "universal" (0) 0x17e-0x17e.1 (0.2)
  0x017|                                          02   |              . |                                      form: "primitive" (0) 0x17e.2-0x17e.2 (0.1)
  0x017|                                          02   |              . |                                      tag: "integer" (0x2) 0x17e.3-0x17e.7 (0.5)
  0x017|                                             81|               .|                                      length: 128 0x17f-0x180.7 (2)
  0x018|80                                             |.               |
  0x018|   3f 02 ab 4e 43 f4 41 32 34 ad cd 98 49 8f c2| ?..NC.A24...I..|                                      value: 44247426170402622087425518647469060177168515448383480108707357314914924071046359553790624375303209327971525248666708548293595274064224162982232337674914654715681152890905955591957342867846032291315547979242473713074351452275228730099918471850426035459597093784807208832673341150587615416898207576073482022832 0x181-0x200.7 (128)
  0x019|91 c9 3e 91 3b e8 6d 99 17 fc e1 51 de d5 b6 fa|..>.;.m....Q....|
  *    |until 0x200.7 (128)                            |                |
       |                                               |                |                            [1]{}: object 0x201-0x287.7 (135)
  0x020|   03                                          | .              |                              class: "universal" (0) 0x201-0x201.1 (0.2)
  0x020|   03                                          | .              |                              form: "primitive" (0) 0x201.2-0x201.2 (0.1)
  0x020|   03                                          | .              |                              tag: "bit_string" (0x3) 0x201.3-0x201.7 (0.5)
  0x020|      81 84                                    |  ..            |                              length: 132 0x202-0x203.7 (2)
  0x020|            00                                 |    .           |                              unused_bits_count: 0 0x204-0x204.7 (1)
  0x020|               02 81 80 7f 19 87 d0 34 72 de 66|     .......4r.f|                              value: raw bits 0x205-0x287.7 (131)
  0x021|cd 51 0f 99 aa da fb 56 89 94 64 4d 94 47 a1 b6|.Q.....V..dM.G..|
  *    |until 0x287.7 (131)                            |                |
       |                                               |                |                    [1]{}: object 0x288-0x292.7 (11)
  0x028|                        30                     |        0       |                      class: "universal" (0) 0x288-0x288.1 (0.2)
  0x028|                        30                     |        0       |                      form: "constructed" (1) 0x288.2-0x288.2 (0.1)
  0x028|                        30                     |        0       |                      tag: "sequence" (0x10) 0x288.3-0x288.7 (0.5)
  0x028|                           09                  |         .      |                      length: 9 0x289-0x289.7 (1)
       |                                               |                |                      constructed[0:1]: 0x28a-0x292.7 (9)
       |                                               |                |                        [0]{}: object 0x28a-0x292.7 (9)
  0x028|                              06               |          .     |                          class: "universal" (0) 0x28a-0x28a.1 (0.2)
  0x028|                              06               |          .     |                          form: "primitive" (0) 0x28a.2-0x28a.2 (0.1)
  0x028|                              06               |          .     |                          tag: "object_identifier" (0x6) 0x28a.3-0x28a.7 (0.5)
  0x028|                                 07            |           .    |                          length: 7 0x28b-0x28b.7 (1)
       |                                               |                |                          value[0:6]: 0x28c-0x292.7 (7)
  0x028|                                    2a         |            *   |                            [0]: 1 oid 0x28c-0x28c.7 (1)
  0x028|                                    2a         |            *   |                            [1]: 2 oid 0x28c-0x28c.7 (1)
  0x028|                                       86 48   |             .H |                            [2]: 840 oid 0x28d-0x28e.7 (2)
  0x028|                                             ce|               .|                            [3]: 10040 oid 0x28f-0x290.7 (2)
  0x029|38                                             |8               |
  0x029|   04                                          | .              |                            [4]: 4 oid 0x291-0x291.7 (1)
  0x029|      03                                       |  .             |                            [5]: 3 oid 0x292-0x292.7 (1)
       |                                               |                |                    [2]{}: object 0x293-0x2c3.7 (49)
  0x029|         03                                    |   .            |                      class: "universal" (0) 0x293-0x293.1 (0.2)
  0x029|         03                                    |   .            |                      form: "primitive" (0) 0x293.2-0x293.2 (0.1)
  0x029|         03                                    |   .            |                      tag: "bit_string" (0x3) 0x293.3-0x293.7 (0.5)
  0x029|            2f                                 |    /           |                      length: 47 0x294-0x294.7 (1)
  0x029|               00                              |     .          |                      unused_bits_count: 0 0x295-0x295.7 (1)
  0x029|                  30 2c 02 14 52 31 f8 06 82 70|      0,..R1...p|                      value: raw bits 0x296-0x2c3.7 (46)
  0x02a|cd 8e ed dd be 72 ec 66 5d 79 45 c1 49 7f 02 14|.....r.f]yE.I...|
  *    |until 0x2c3.7 (46)                             |                |
       |                                               |                |        [2]{}: record 0x2c4-0x385.7 (194)
  0x02c|            16                                 |    .           |          type: "handshake" (22) (valid) 0x2c4-0x2c4.7 (1)
  0x02c|               03 03                           |     ..         |          version: "tls1.2" (0x303) (valid) 0x2c5-0x2c6.7 (2)
  0x02c|                     00 bd                     |       ..       |          length: 189 0x2c7-0x2c8.7 (2)
       |                                               |                |          message{}: 0x2c9-0x385.7 (189)
  0x02c|                           0c                  |         .      |            type: "server_key_exchange" (12) 0x2c9-0x2c9.7 (1)
  0x02c|                              00 00 b9         |          ...   |            length: 185 0x2ca-0x2cc.7 (3)
  0x02c|                                       00 40 da|             .@.|            data: raw bits 0x2cd-0x385.7 (185)
  0x02d|58 3c 16 d9 85 22 89 d0 e4 af 75 6f 4c ca 92 dd|X<..."....uoL...|
  *    |until 0x385.7 (185)                            |                |
       |                                               |                |        [3]{}: record 0x386-0x38e.7 (9)
  0x038|                  16                           |      .         |          type: "handshake" (22) (valid) 0x386-0x386.7 (1)
  0x038|                     03 03                     |       ..       |          version: "tls1.2" (0x303) (valid) 0x387-0x388.7 (2)
  0x038|                           00 04               |         ..     |          length: 4 0x389-0x38a.7 (2)
       |                                               |                |          message{}: 0x38b-0x38e.7 (4)
  0x038|                                 0e            |           .    |            type: "server_hello_done" (14) 0x38b-0x38b.7 (1)
  0x038|                                    00 00 00   |            ... |            length: 0 0x38c-0x38e.7 (3)
       |                                               |                |            data: raw bits 0x38f-NA (0)
       |                                               |                |        [4]{}: record 0x38f-0x43d.7 (175)
  0x038|                                             16|               .|          type: "handshake" (22) (valid) 0x38f-0x38f.7 (1)
  0x039|03 03                                          |..              |          version: "tls1.2" (0x303) (valid) 0x390-0x391.7 (2)
  0x039|      00 aa                                    |  ..            |          length: 170 0x392-0x393.7 (2)
       |                                               |                |          message{}: 0x394-0x43d.7 (170)
  0x039|            04                                 |    .           |            type: "new_session_ticket" (4) 0x394-0x394.7 (1)
  0x039|               00 00 a6                        |     ...        |            length: 166 0x395-0x397.7 (3)
  0x039|                        00 00 01 2c            |        ...,    |            lifetime_hint: 300 0x398-0x39b.7 (4)
  0x039|                                    00 a0      |            ..  |            ticket_length: 160 0x39c-0x39d.7 (2)
  0x039|                                          22 07|              ".|            ticket: raw bits 0x39e-0x43d.7 (160)
  0x03a|b4 d8 97 c7 0f f3 0f f1 4b c1 4b d0 cb 8e 56 91|........K.K...V.|
  *    |until 0x43d.7 (160)                            |                |
       |                                               |                |        [5]{}: record 0x43e-0x443.7 (6)
  0x043|                                          14   |              . |          type: "change_cipher_spec" (20) (valid) 0x43e-0x43e.7 (1)
  0x043|                                             03|               .|          version: "tls1.2" (0x303) (valid) 0x43f-0x440.7 (2)
  0x044|03                                             |.               |
  0x044|   00 01                                       | ..             |          length: 1 0x441-0x442.7 (2)
       |                                               |                |          message{}: 0x443-0x443.7 (1)
  0x044|         01                                    |   .            |            type: 1 0x443-0x443.7 (1)
       |                                               |                |        [6]{}: record 0x444-0x488.7 (69)
  0x044|            16                                 |    .           |          type: "handshake" (22) (valid) 0x444-0x444.7 (1)
  0x044|               03 03                           |     ..         |          version: "tls1.2" (0x303) (valid) 0x445-0x446.7 (2)
  0x044|                     00 40                     |       .@       |          length: 64 0x447-0x448.7 (2)
  0x044|                           43 cd 85 87 41 fa 2f|         C...A./|          encrypted_data: raw bits 0x449-0x488.7 (64)
  0x045|28 f5 97 e3 a4 62 b3 fd 28 25 45 85 1f 25 47 56|(....b..(%E..%GV|
  *    |until 0x488.7 (64)                             |                |
       |                                               |                |        [7]{}: record 0x489-0x91d.7 (1173)
  0x048|                           17                  |         .      |          type: "application_data" (23) (valid) 0x489-0x489.7 (1)
  0x048|                              03 03            |          ..    |          version: "tls1.2" (0x303) (valid) 0x48a-0x48b.7 (2)
  0x048|                                    04 90      |            ..  |          length: 1168 0x48c-0x48d.7 (2)
  0x048|                                          c1 76|              .v|          encrypted_data: raw bits 0x48e-0x91d.7 (1168)
  0x049|b1 03 59 45 27 b5 d8 5d 4f de bd c0 a1 d3 04 5c|..YE'..]O......\|
  *    |until 0x91d.7 (end) (1168)                     |                |
