$ fq -o keylog=@all.keylog ".tcp_connections[0] | dv" TLS_DHE_RSA_WITH_AES_128_CBC_SHA256.pcap
          |00 01 02 03 04 05 06 07 08 09 0a 0b 0c 0d 0e 0f|0123456789abcdef|.tcp_connections[0]{}: tcp_connection 0xe91-0xe91 (0)
          |                                               |                |  client{}: 0xe91-0xe91 (0)
          |                                               |                |    ip: "127.0.0.1"
          |                                               |                |    port: 39003
          |                                               |                |    has_start: true
          |                                               |                |    has_end: false
          |                                               |                |    skipped_bytes: 0
          |00 01 02 03 04 05 06 07 08 09 0a 0b 0c 0d 0e 0f|0123456789abcdef|    stream{}: (tls) 0x0-0x1a6 (422)
          |                                               |                |      records[0:6]: 0x0-0x1a6 (422)
          |                                               |                |        [0]{}: record 0x0-0x66 (102)
  0x000000|16                                             |.               |          type: "handshake" (22) (valid) 0x0-0x1 (1)
  0x000000|   03 01                                       | ..             |          version: "tls1.0" (0x301) (valid) 0x1-0x3 (2)
  0x000000|         00 61                                 |   .a           |          length: 97 0x3-0x5 (2)
          |                                               |                |          message{}: 0x5-0x66 (97)
  0x000000|               01                              |     .          |            type: "client_hello" (1) 0x5-0x6 (1)
  0x000000|                  00 00 5d                     |      ..]       |            length: 93 0x6-0x9 (3)
  0x000000|                           03 03               |         ..     |            version: "tls1.2" (0x303) 0x9-0xb (2)
          |                                               |                |            random{}: 0xb-0x2b (32)
  0x000000|                                 52 36 2c 11   |           R6,. |              gmt_unix_time: 1379281937 (2013-09-15T21:52:17Z) 0xb-0xf (4)
  0x000000|                                             9b|               .|              random_bytes: raw bits 0xf-0x2b (28)
  0x000001|62 cb b2 3d ce 19 27 ec 4b 86 1e ee 45 a7 fb 39|b..=..'.K...E..9|
  0x000002|b0 99 95 9e ca e5 63 7b 7b 69 ae               |......c{{i.     |
  0x000002|                                 00            |           .    |            session_id_length: 0 0x2b-0x2c (1)
          |                                               |                |            session_id: raw bits 0x2c-0x2c (0)
  0x000002|                                    00 04      |            ..  |            cipher_suits_length: 4 0x2c-0x2e (2)
          |                                               |                |            cipher_suits[0:2]: 0x2e-0x32 (4)
  0x000002|                                          00 67|              .g|              [0]: "TLS_DHE_RSA_WITH_AES_128_CBC_SHA256" (0x67) cipher_suit 0x2e-0x30 (2)
  0x000003|00 ff                                          |..              |              [1]: "TLS_EMPTY_RENEGOTIATION_INFO_SCSV" (0xff) cipher_suit 0x30-0x32 (2)
  0x000003|      02                                       |  .             |            compression_methods_length: 2 0x32-0x33 (1)
          |                                               |                |            compression_methods[0:2]: 0x33-0x35 (2)
  0x000003|         01                                    |   .            |              [0]: "deflate" (0x1) compression_method 0x33-0x34 (1)
  0x000003|            00                                 |    .           |              [1]: "null" (0x0) compression_method 0x34-0x35 (1)
  0x000003|               00 2f                           |     ./         |            extensions_length: 47 0x35-0x37 (2)
          |                                               |                |            extensions[0:3]: 0x37-0x66 (47)
          |                                               |                |              [0]{}: extension 0x37-0x3b (4)
  0x000003|                     00 23                     |       .#       |                type: "session_ticket" (35) 0x37-0x39 (2)
  0x000003|                           00 00               |         ..     |                length: 0 0x39-0x3b (2)
          |                                               |                |              [1]{}: extension 0x3b-0x61 (38)
  0x000003|                                 00 0d         |           ..   |                type: "signature_algorithms" (13) 0x3b-0x3d (2)
  0x000003|                                       00 22   |             ." |                length: 34 0x3d-0x3f (2)
  0x000003|                                             00|               .|                signature_algorithms_length: 32 0x3f-0x41 (2)
  0x000004|20                                             |                |
          |                                               |                |                signature_algorithms[0:16]: 0x41-0x61 (32)
          |                                               |                |                  [0]{}: signature_algorithm 0x41-0x43 (2)
  0x000004|   06                                          | .              |                    hash: "sha512" (6) 0x41-0x42 (1)
  0x000004|      01                                       |  .             |                    signature: "rsa" (1) 0x42-0x43 (1)
          |                                               |                |                  [1]{}: signature_algorithm 0x43-0x45 (2)
  0x000004|         06                                    |   .            |                    hash: "sha512" (6) 0x43-0x44 (1)
  0x000004|            02                                 |    .           |                    signature: "dsa" (2) 0x44-0x45 (1)
          |                                               |                |                  [2]{}: signature_algorithm 0x45-0x47 (2)
  0x000004|               06                              |     .          |                    hash: "sha512" (6) 0x45-0x46 (1)
  0x000004|                  03                           |      .         |                    signature: "ecdsa" (3) 0x46-0x47 (1)
          |                                               |                |                  [3]{}: signature_algorithm 0x47-0x49 (2)
  0x000004|                     05                        |       .        |                    hash: "sha384" (5) 0x47-0x48 (1)
  0x000004|                        01                     |        .       |                    signature: "rsa" (1) 0x48-0x49 (1)
          |                                               |                |                  [4]{}: signature_algorithm 0x49-0x4b (2)
  0x000004|                           05                  |         .      |                    hash: "sha384" (5) 0x49-0x4a (1)
  0x000004|                              02               |          .     |                    signature: "dsa" (2) 0x4a-0x4b (1)
          |                                               |                |                  [5]{}: signature_algorithm 0x4b-0x4d (2)
  0x000004|                                 05            |           .    |                    hash: "sha384" (5) 0x4b-0x4c (1)
  0x000004|                                    03         |            .   |                    signature: "ecdsa" (3) 0x4c-0x4d (1)
          |                                               |                |                  [6]{}: signature_algorithm 0x4d-0x4f (2)
  0x000004|                                       04      |             .  |                    hash: "sha256" (4) 0x4d-0x4e (1)
  0x000004|                                          01   |              . |                    signature: "rsa" (1) 0x4e-0x4f (1)
          |                                               |                |                  [7]{}: signature_algorithm 0x4f-0x51 (2)
  0x000004|                                             04|               .|                    hash: "sha256" (4) 0x4f-0x50 (1)
  0x000005|02                                             |.               |                    signature: "dsa" (2) 0x50-0x51 (1)
          |                                               |                |                  [8]{}: signature_algorithm 0x51-0x53 (2)
  0x000005|   04                                          | .              |                    hash: "sha256" (4) 0x51-0x52 (1)
  0x000005|      03                                       |  .             |                    signature: "ecdsa" (3) 0x52-0x53 (1)
          |                                               |                |                  [9]{}: signature_algorithm 0x53-0x55 (2)
  0x000005|         03                                    |   .            |                    hash: "sha224" (3) 0x53-0x54 (1)
  0x000005|            01                                 |    .           |                    signature: "rsa" (1) 0x54-0x55 (1)
          |                                               |                |                  [10]{}: signature_algorithm 0x55-0x57 (2)
  0x000005|               03                              |     .          |                    hash: "sha224" (3) 0x55-0x56 (1)
  0x000005|                  02                           |      .         |                    signature: "dsa" (2) 0x56-0x57 (1)
          |                                               |                |                  [11]{}: signature_algorithm 0x57-0x59 (2)
  0x000005|                     03                        |       .        |                    hash: "sha224" (3) 0x57-0x58 (1)
  0x000005|                        03                     |        .       |                    signature: "ecdsa" (3) 0x58-0x59 (1)
          |                                               |                |                  [12]{}: signature_algorithm 0x59-0x5b (2)
  0x000005|                           02                  |         .      |                    hash: "sha1" (2) 0x59-0x5a (1)
  0x000005|                              01               |          .     |                    signature: "rsa" (1) 0x5a-0x5b (1)
          |                                               |                |                  [13]{}: signature_algorithm 0x5b-0x5d (2)
  0x000005|                                 02            |           .    |                    hash: "sha1" (2) 0x5b-0x5c (1)
  0x000005|                                    02         |            .   |                    signature: "dsa" (2) 0x5c-0x5d (1)
          |                                               |                |                  [14]{}: signature_algorithm 0x5d-0x5f (2)
  0x000005|                                       02      |             .  |                    hash: "sha1" (2) 0x5d-0x5e (1)
  0x000005|                                          03   |              . |                    signature: "ecdsa" (3) 0x5e-0x5f (1)
          |                                               |                |                  [15]{}: signature_algorithm 0x5f-0x61 (2)
  0x000005|                                             01|               .|                    hash: "md5" (1) 0x5f-0x60 (1)
  0x000006|01                                             |.               |                    signature: "rsa" (1) 0x60-0x61 (1)
          |                                               |                |              [2]{}: extension 0x61-0x66 (5)
  0x000006|   00 0f                                       | ..             |                type: "heartbeat" (15) 0x61-0x63 (2)
  0x000006|         00 01                                 |   ..           |                length: 1 0x63-0x65 (2)
  0x000006|               01                              |     .          |                data: raw bits 0x65-0x66 (1)
          |                                               |                |        [1]{}: record 0x66-0xb1 (75)
  0x000006|                  16                           |      .         |          type: "handshake" (22) (valid) 0x66-0x67 (1)
  0x000006|                     03 03                     |       ..       |          version: "tls1.2" (0x303) (valid) 0x67-0x69 (2)
  0x000006|                           00 46               |         .F     |          length: 70 0x69-0x6b (2)
          |                                               |                |          message{}: 0x6b-0xb1 (70)
  0x000006|                                 10            |           .    |            type: "client_key_exchange" (16) 0x6b-0x6c (1)
  0x000006|                                    00 00 42   |            ..B |            length: 66 0x6c-0x6f (3)
          |                                               |                |            public{}: 0x6f-0x6f (0)
  0x000006|                                             00|               .|              length: 64 0x6f-0x71 (2)
  0x000007|40                                             |@               |
  0x000007|   3f 0e 8f d7 01 d3 a4 b2 52 69 9f 98 e3 d4 63| ?.......Ri....c|              data: raw bits 0x71-0xb1 (64)
  0x000008|41 38 9d e5 5e 80 ea 60 79 00 bb 20 d2 9b 81 1d|A8..^..`y.. ....|
  *       |until 0xb0.7 (64)                              |                |
          |                                               |                |        [2]{}: record 0xb1-0xb7 (6)
  0x00000b|   14                                          | .              |          type: "change_cipher_spec" (20) (valid) 0xb1-0xb2 (1)
  0x00000b|      03 03                                    |  ..            |          version: "tls1.2" (0x303) (valid) 0xb2-0xb4 (2)
  0x00000b|            00 01                              |    ..          |          length: 1 0xb4-0xb6 (2)
          |                                               |                |          message{}: 0xb6-0xb7 (1)
  0x00000b|                  01                           |      .         |            type: 1 0xb6-0xb7 (1)
          |                                               |                |        [3]{}: record 0xb7-0x10c (85)
  0x00000b|                     16                        |       .        |          type: "handshake" (22) (valid) 0xb7-0xb8 (1)
  0x00000b|                        03 03                  |        ..      |          version: "tls1.2" (0x303) (valid) 0xb8-0xba (2)
  0x00000b|                              00 50            |          .P    |          length: 80 0xba-0xbc (2)
  0x00000b|                                    5b 35 9a ca|            [5..|          encrypted_data: raw bits 0xbc-0x10c (80)
  0x00000c|a0 61 9d 9f eb 09 b1 4f 80 f3 e3 fc 3d ed 28 82|.a.....O....=.(.|
  *       |until 0x10b.7 (80)                             |                |
          |00 01 02 03 04 05 06 07 08 09 0a 0b 0c 0d 0e 0f|0123456789abcdef|          message{}: 0x0-0x10 (16)
    0x0000|14                                             |.               |            type: "finished" (20) 0x0-0x1 (1)
    0x0000|   00 00 0c                                    | ...            |            length: 12 0x1-0x4 (3)
    0x0000|            5a b7 55 e0 14 39 36 05 1a d4 57 31|    Z.U..96...W1|            verify_data: raw bits 0x4-0x10 (12)
          |                                               |                |        [4]{}: record 0x10c-0x161 (85)
  0x000010|                                    17         |            .   |          type: "application_data" (23) (valid) 0x10c-0x10d (1)
  0x000010|                                       03 03   |             .. |          version: "tls1.2" (0x303) (valid) 0x10d-0x10f (2)
  0x000010|                                             00|               .|          length: 80 0x10f-0x111 (2)
  0x000011|50                                             |P               |
  0x000011|   12 99 21 23 28 b8 ae c5 b7 ff 65 08 55 1d 0d| ..!#(.....e.U..|          encrypted_data: raw bits 0x111-0x161 (80)
  0x000012|df 45 94 ac 6e c4 eb dd d1 89 a4 47 c2 54 70 02|.E..n......G.Tp.|
  *       |until 0x160.7 (80)                             |                |
          |00 01 02 03 04 05 06 07 08 09 0a 0b 0c 0d 0e 0f|0123456789abcdef|
    0x0000|47 45 54 20 2f 20 48 54 54 50 2f 31 2e 30 0d 0a|GET / HTTP/1.0..|          message: raw bits 0x0-0x12 (18)
    0x0000|0d 0a|                                         |..|             |
          |                                               |                |        [5]{}: record 0x161-0x1a6 (69)
  0x000016|   15                                          | .              |          type: "alert" (21) (valid) 0x161-0x162 (1)
  0x000016|      03 03                                    |  ..            |          version: "tls1.2" (0x303) (valid) 0x162-0x164 (2)
  0x000016|            00 40                              |    .@          |          length: 64 0x164-0x166 (2)
  0x000016|                  d8 eb 13 04 b1 3d b8 8b 2b e6|      .....=..+.|          encrypted_data: raw bits 0x166-0x1a6 (64)
  0x000017|0b 57 18 db 9c 12 69 db ae b8 19 53 47 1d 5a 9e|.W....i....SG.Z.|
  *       |until 0x1a5.7 (end) (64)                       |                |
          |00 01 02 03 04 05 06 07 08 09 0a 0b 0c 0d 0e 0f|0123456789abcdef|          message{}: 0x0-0x2 (2)
    0x0000|01                                             |.               |            level: "warning" (1) 0x0-0x1 (1)
    0x0000|   00|                                         | .|             |            description: "close_notify" (0) 0x1-0x2 (1)
          |00 01 02 03 04 05 06 07 08 09 0a 0b 0c 0d 0e 0f|0123456789abcdef|
    0x0000|47 45 54 20 2f 20 48 54 54 50 2f 31 2e 30 0d 0a|GET / HTTP/1.0..|      stream: raw bits 0x0-0x12 (18)
    0x0000|0d 0a|                                         |..|             |
          |                                               |                |  server{}: 0xe91-0xe91 (0)
          |                                               |                |    ip: "127.0.0.1"
          |                                               |                |    port: 4430
          |                                               |                |    has_start: true
          |                                               |                |    has_end: true
          |                                               |                |    skipped_bytes: 0
          |00 01 02 03 04 05 06 07 08 09 0a 0b 0c 0d 0e 0f|0123456789abcdef|    stream{}: (tls) 0x0-0x8d3 (2259)
          |                                               |                |      records[0:8]: 0x0-0x8d3 (2259)
          |                                               |                |        [0]{}: record 0x0-0x3f (63)
  0x000000|16                                             |.               |          type: "handshake" (22) (valid) 0x0-0x1 (1)
  0x000000|   03 03                                       | ..             |          version: "tls1.2" (0x303) (valid) 0x1-0x3 (2)
  0x000000|         00 3a                                 |   .:           |          length: 58 0x3-0x5 (2)
          |                                               |                |          message{}: 0x5-0x3f (58)
  0x000000|               02                              |     .          |            type: "server_hello" (2) 0x5-0x6 (1)
  0x000000|                  00 00 36                     |      ..6       |            length: 54 0x6-0x9 (3)
  0x000000|                           03 03               |         ..     |            version: "tls1.2" (0x303) 0x9-0xb (2)
          |                                               |                |            random{}: 0xb-0x2b (32)
  0x000000|                                 52 36 2c 11   |           R6,. |              gmt_unix_time: 1379281937 (2013-09-15T21:52:17Z) 0xb-0xf (4)
  0x000000|                                             42|               B|              random_bytes: raw bits 0xf-0x2b (28)
  0x000001|c0 67 82 33 fd 02 0a 30 b2 02 d7 c1 f0 14 88 e6|.g.3...0........|
  0x000002|b5 31 5d fd 39 5e 78 2c 49 94 5c               |.1].9^x,I.\     |
  0x000002|                                 00            |           .    |            session_id_length: 0 0x2b-0x2c (1)
          |                                               |                |            session_id: raw bits 0x2c-0x2c (0)
  0x000002|                                    00 67      |            .g  |            cipher_suit: "TLS_DHE_RSA_WITH_AES_128_CBC_SHA256" (0x67) 0x2c-0x2e (2)
  0x000002|                                          01   |              . |            compression_method: "deflate" (0x1) 0x2e-0x2f (1)
  0x000002|                                             00|               .|            extensions_length: 14 0x2f-0x31 (2)
  0x000003|0e                                             |.               |
          |                                               |                |            extensions[0:3]: 0x31-0x3f (14)
          |                                               |                |              [0]{}: extension 0x31-0x36 (5)
  0x000003|   ff 01                                       | ..             |                type: "renegotiation_info" (65281) 0x31-0x33 (2)
  0x000003|         00 01                                 |   ..           |                length: 1 0x33-0x35 (2)
  0x000003|               00                              |     .          |                data: raw bits 0x35-0x36 (1)
          |                                               |                |              [1]{}: extension 0x36-0x3a (4)
  0x000003|                  00 23                        |      .#        |                type: "session_ticket" (35) 0x36-0x38 (2)
  0x000003|                        00 00                  |        ..      |                length: 0 0x38-0x3a (2)
          |                                               |                |              [2]{}: extension 0x3a-0x3f (5)
  0x000003|                              00 0f            |          ..    |                type: "heartbeat" (15) 0x3a-0x3c (2)
  0x000003|                                    00 01      |            ..  |                length: 1 0x3c-0x3e (2)
  0x000003|                                          01   |              . |                data: raw bits 0x3e-0x3f (1)
          |                                               |                |        [1]{}: record 0x3f-0x207 (456)
  0x000003|                                             16|               .|          type: "handshake" (22) (valid) 0x3f-0x40 (1)
  0x000004|03 03                                          |..              |          version: "tls1.2" (0x303) (valid) 0x40-0x42 (2)
  0x000004|      01 c3                                    |  ..            |          length: 451 0x42-0x44 (2)
          |                                               |                |          message{}: 0x44-0x207 (451)
  0x000004|            0b                                 |    .           |            type: "certificate" (11) 0x44-0x45 (1)
  0x000004|               00 01 bf                        |     ...        |            length: 447 0x45-0x48 (3)
  0x000004|                        00 01 bc               |        ...     |            certificates_length: 444 0x48-0x4b (3)
          |                                               |                |            certificates[0:1]: 0x4b-0x207 (444)
          |                                               |                |              [0]{}: certificate 0x4b-0x207 (444)
  0x000004|                                 00 01 b9      |           ...  |                length: 441 0x4b-0x4e (3)
          |00 01 02 03 04 05 06 07 08 09 0a 0b 0c 0d 0e 0f|0123456789abcdef|                data{}: (asn1_ber) 0x4e-0x207 (441)
  0x000004|                                          30   |              0 |                  class: "universal" (0) 0x4e-0x4e.2 (0.2)
  0x000004|                                          30   |              0 |                  form: "constructed" (1) 0x4e.2-0x4e.3 (0.1)
  0x000004|                                          30   |              0 |                  tag: "sequence" (0x10) 0x4e.3-0x4f (0.5)
  0x000004|                                             82|               .|                  length: 437 0x4f-0x52 (3)
  0x000005|01 b5                                          |..              |
          |                                               |                |                  constructed[0:3]: 0x52-0x207 (437)
          |                                               |                |                    [0]{}: object 0x52-0x174 (290)
  0x000005|      30                                       |  0             |                      class: "universal" (0) 0x52-0x52.2 (0.2)
  0x000005|      30                                       |  0             |                      form: "constructed" (1) 0x52.2-0x52.3 (0.1)
  0x000005|      30                                       |  0             |                      tag: "sequence" (0x10) 0x52.3-0x53 (0.5)
  0x000005|         82 01 1e                              |   ...          |                      length: 286 0x53-0x56 (3)
          |                                               |                |                      constructed[0:6]: 0x56-0x174 (286)
          |                                               |                |                        [0]{}: object 0x56-0x61 (11)
  0x000005|                  02                           |      .         |                          class: "universal" (0) 0x56-0x56.2 (0.2)
  0x000005|                  02                           |      .         |                          form: "primitive" (0) 0x56.2-0x56.3 (0.1)
  0x000005|                  02                           |      .         |                          tag: "integer" (0x2) 0x56.3-0x57 (0.5)
  0x000005|                     09                        |       .        |                          length: 9 0x57-0x58 (1)
  0x000005|                        00 f4 a7 2f d3 e8 fc 37|        .../...7|                          value: 17629111853558544324 0x58-0x61 (9)
  0x000006|c4                                             |.               |
          |                                               |                |                        [1]{}: object 0x61-0x70 (15)
  0x000006|   30                                          | 0              |                          class: "universal" (0) 0x61-0x61.2 (0.2)
  0x000006|   30                                          | 0              |                          form: "constructed" (1) 0x61.2-0x61.3 (0.1)
  0x000006|   30                                          | 0              |                          tag: "sequence" (0x10) 0x61.3-0x62 (0.5)
  0x000006|      0d                                       |  .             |                          length: 13 0x62-0x63 (1)
          |                                               |                |                          constructed[0:2]: 0x63-0x70 (13)
          |                                               |                |                            [0]{}: object 0x63-0x6e (11)
  0x000006|         06                                    |   .            |                              class: "universal" (0) 0x63-0x63.2 (0.2)
  0x000006|         06                                    |   .            |                              form: "primitive" (0) 0x63.2-0x63.3 (0.1)
  0x000006|         06                                    |   .            |                              tag: "object_identifier" (0x6) 0x63.3-0x64 (0.5)
  0x000006|            09                                 |    .           |                              length: 9 0x64-0x65 (1)
          |                                               |                |                              value[0:7]: 0x65-0x6e (9)
  0x000006|               2a                              |     *          |                                [0]: 1 oid 0x65-0x66 (1)
  0x000006|               2a                              |     *          |                                [1]: 2 oid 0x65-0x66 (1)
  0x000006|                  86 48                        |      .H        |                                [2]: 840 oid 0x66-0x68 (2)
  0x000006|                        86 f7 0d               |        ...     |                                [3]: 113549 oid 0x68-0x6b (3)
  0x000006|                                 01            |           .    |                                [4]: 1 oid 0x6b-0x6c (1)
  0x000006|                                    01         |            .   |                                [5]: 1 oid 0x6c-0x6d (1)
  0x000006|                                       05      |             .  |                                [6]: 5 oid 0x6d-0x6e (1)
          |                                               |                |                            [1]{}: object 0x6e-0x70 (2)
  0x000006|                                          05   |              . |                              class: "universal" (0) 0x6e-0x6e.2 (0.2)
  0x000006|                                          05   |              . |                              form: "primitive" (0) 0x6e.2-0x6e.3 (0.1)
  0x000006|                                          05   |              . |                              tag: "null" (0x5) 0x6e.3-0x6f (0.5)
  0x000006|                                             00|               .|                              length: "indefinite" (0) 0x6f-0x70 (1)
          |                                               |                |                              value: null
          |                                               |                |                        [2]{}: object 0x70-0x91 (33)
  0x000007|30                                             |0               |                          class: "universal" (0) 0x70-0x70.2 (0.2)
  0x000007|30                                             |0               |                          form: "constructed" (1) 0x70.2-0x70.3 (0.1)
  0x000007|30                                             |0               |                          tag: "sequence" (0x10) 0x70.3-0x71 (0.5)
  0x000007|   1f                                          | .              |                          length: 31 0x71-0x72 (1)
          |                                               |                |                          constructed[0:1]: 0x72-0x91 (31)
          |                                               |                |                            [0]{}: object 0x72-0x91 (31)
  0x000007|      31                                       |  1             |                              class: "universal" (0) 0x72-0x72.2 (0.2)
  0x000007|      31                                       |  1             |                              form: "constructed" (1) 0x72.2-0x72.3 (0.1)
  0x000007|      31                                       |  1             |                              tag: "set" (0x11) 0x72.3-0x73 (0.5)
  0x000007|         1d                                    |   .            |                              length: 29 0x73-0x74 (1)
          |                                               |                |                              constructed[0:1]: 0x74-0x91 (29)
          |                                               |                |                                [0]{}: object 0x74-0x91 (29)
  0x000007|            30                                 |    0           |                                  class: "universal" (0) 0x74-0x74.2 (0.2)
  0x000007|            30                                 |    0           |                                  form: "constructed" (1) 0x74.2-0x74.3 (0.1)
  0x000007|            30                                 |    0           |                                  tag: "sequence" (0x10) 0x74.3-0x75 (0.5)
  0x000007|               1b                              |     .          |                                  length: 27 0x75-0x76 (1)
          |                                               |                |                                  constructed[0:2]: 0x76-0x91 (27)
          |                                               |                |                                    [0]{}: object 0x76-0x7b (5)
  0x000007|                  06                           |      .         |                                      class: "universal" (0) 0x76-0x76.2 (0.2)
  0x000007|                  06                           |      .         |                                      form: "primitive" (0) 0x76.2-0x76.3 (0.1)
  0x000007|                  06                           |      .         |                                      tag: "object_identifier" (0x6) 0x76.3-0x77 (0.5)
  0x000007|                     03                        |       .        |                                      length: 3 0x77-0x78 (1)
          |                                               |                |                                      value[0:4]: 0x78-0x7b (3)
  0x000007|                        55                     |        U       |                                        [0]: 2 oid 0x78-0x79 (1)
  0x000007|                        55                     |        U       |                                        [1]: 5 oid 0x78-0x79 (1)
  0x000007|                           04                  |         .      |                                        [2]: 4 oid 0x79-0x7a (1)
  0x000007|                              03               |          .     |                                        [3]: 3 oid 0x7a-0x7b (1)
          |                                               |                |                                    [1]{}: object 0x7b-0x91 (22)
  0x000007|                                 0c            |           .    |                                      class: "universal" (0) 0x7b-0x7b.2 (0.2)
  0x000007|                                 0c            |           .    |                                      form: "primitive" (0) 0x7b.2-0x7b.3 (0.1)
  0x000007|                                 0c            |           .    |                                      tag: "utf8_string" (0xc) 0x7b.3-0x7c (0.5)
  0x000007|                                    14         |            .   |                                      length: 20 0x7c-0x7d (1)
  0x000007|                                       54 65 73|             Tes|                                      value: "Test Certificate RSA" 0x7d-0x91 (20)
  0x000008|74 20 43 65 72 74 69 66 69 63 61 74 65 20 52 53|t Certificate RS|
  0x000009|41                                             |A               |
          |                                               |                |                        [3]{}: object 0x91-0xb1 (32)
  0x000009|   30                                          | 0              |                          class: "universal" (0) 0x91-0x91.2 (0.2)
  0x000009|   30                                          | 0              |                          form: "constructed" (1) 0x91.2-0x91.3 (0.1)
  0x000009|   30                                          | 0              |                          tag: "sequence" (0x10) 0x91.3-0x92 (0.5)
  0x000009|      1e                                       |  .             |                          length: 30 0x92-0x93 (1)
          |                                               |                |                          constructed[0:2]: 0x93-0xb1 (30)
          |                                               |                |                            [0]{}: object 0x93-0xa2 (15)
  0x000009|         17                                    |   .            |                              class: "universal" (0) 0x93-0x93.2 (0.2)
  0x000009|         17                                    |   .            |                              form: "primitive" (0) 0x93.2-0x93.3 (0.1)
  0x000009|         17                                    |   .            |                              tag: "utc_time" (0x17) 0x93.3-0x94 (0.5)
  0x000009|            0d                                 |    .           |                              length: 13 0x94-0x95 (1)
  0x000009|               31 33 30 39 31 35 32 31 35 31 31|     13091521511|                              value: "130915215110Z" 0x95-0xa2 (13)
  0x00000a|30 5a                                          |0Z              |
          |                                               |                |                            [1]{}: object 0xa2-0xb1 (15)
  0x00000a|      17                                       |  .             |                              class: "universal" (0) 0xa2-0xa2.2 (0.2)
  0x00000a|      17                                       |  .             |                              form: "primitive" (0) 0xa2.2-0xa2.3 (0.1)
  0x00000a|      17                                       |  .             |                              tag: "utc_time" (0x17) 0xa2.3-0xa3 (0.5)
  0x00000a|         0d                                    |   .            |                              length: 13 0xa3-0xa4 (1)
  0x00000a|            32 33 30 39 31 33 32 31 35 31 31 30|    230913215110|                              value: "230913215110Z" 0xa4-0xb1 (13)
  0x00000b|5a                                             |Z               |
          |                                               |                |                        [4]{}: object 0xb1-0xd2 (33)
  0x00000b|   30                                          | 0              |                          class: "universal" (0) 0xb1-0xb1.2 (0.2)
  0x00000b|   30                                          | 0              |                          form: "constructed" (1) 0xb1.2-0xb1.3 (0.1)
  0x00000b|   30                                          | 0              |                          tag: "sequence" (0x10) 0xb1.3-0xb2 (0.5)
  0x00000b|      1f                                       |  .             |                          length: 31 0xb2-0xb3 (1)
          |                                               |                |                          constructed[0:1]: 0xb3-0xd2 (31)
          |                                               |                |                            [0]{}: object 0xb3-0xd2 (31)
  0x00000b|         31                                    |   1            |                              class: "universal" (0) 0xb3-0xb3.2 (0.2)
  0x00000b|         31                                    |   1            |                              form: "constructed" (1) 0xb3.2-0xb3.3 (0.1)
  0x00000b|         31                                    |   1            |                              tag: "set" (0x11) 0xb3.3-0xb4 (0.5)
  0x00000b|            1d                                 |    .           |                              length: 29 0xb4-0xb5 (1)
          |                                               |                |                              constructed[0:1]: 0xb5-0xd2 (29)
          |                                               |                |                                [0]{}: object 0xb5-0xd2 (29)
  0x00000b|               30                              |     0          |                                  class: "universal" (0) 0xb5-0xb5.2 (0.2)
  0x00000b|               30                              |     0          |                                  form: "constructed" (1) 0xb5.2-0xb5.3 (0.1)
  0x00000b|               30                              |     0          |                                  tag: "sequence" (0x10) 0xb5.3-0xb6 (0.5)
  0x00000b|                  1b                           |      .         |                                  length: 27 0xb6-0xb7 (1)
          |                                               |                |                                  constructed[0:2]: 0xb7-0xd2 (27)
          |                                               |                |                                    [0]{}: object 0xb7-0xbc (5)
  0x00000b|                     06                        |       .        |                                      class: "universal" (0) 0xb7-0xb7.2 (0.2)
  0x00000b|                     06                        |       .        |                                      form: "primitive" (0) 0xb7.2-0xb7.3 (0.1)
  0x00000b|                     06                        |       .        |                                      tag: "object_identifier" (0x6) 0xb7.3-0xb8 (0.5)
  0x00000b|                        03                     |        .       |                                      length: 3 0xb8-0xb9 (1)
          |                                               |                |                                      value[0:4]: 0xb9-0xbc (3)
  0x00000b|                           55                  |         U      |                                        [0]: 2 oid 0xb9-0xba (1)
  0x00000b|                           55                  |         U      |                                        [1]: 5 oid 0xb9-0xba (1)
  0x00000b|                              04               |          .     |                                        [2]: 4 oid 0xba-0xbb (1)
  0x00000b|                                 03            |           .    |                                        [3]: 3 oid 0xbb-0xbc (1)
          |                                               |                |                                    [1]{}: object 0xbc-0xd2 (22)
  0x00000b|                                    0c         |            .   |                                      class: "universal" (0) 0xbc-0xbc.2 (0.2)
  0x00000b|                                    0c         |            .   |                                      form: "primitive" (0) 0xbc.2-0xbc.3 (0.1)
  0x00000b|                                    0c         |            .   |                                      tag: "utf8_string" (0xc) 0xbc.3-0xbd (0.5)
  0x00000b|                                       14      |             .  |                                      length: 20 0xbd-0xbe (1)
  0x00000b|                                          54 65|              Te|                                      value: "Test Certificate RSA" 0xbe-0xd2 (20)
  0x00000c|73 74 20 43 65 72 74 69 66 69 63 61 74 65 20 52|st Certificate R|
  0x00000d|53 41                                          |SA              |
          |                                               |                |                        [5]{}: object 0xd2-0x174 (162)
  0x00000d|      30                                       |  0             |                          class: "universal" (0) 0xd2-0xd2.2 (0.2)
  0x00000d|      30                                       |  0             |                          form: "constructed" (1) 0xd2.2-0xd2.3 (0.1)
  0x00000d|      30                                       |  0             |                          tag: "sequence" (0x10) 0xd2.3-0xd3 (0.5)
  0x00000d|         81 9f                                 |   ..           |                          length: 159 0xd3-0xd5 (2)
          |                                               |                |                          constructed[0:2]: 0xd5-0x174 (159)
          |                                               |                |                            [0]{}: object 0xd5-0xe4 (15)
  0x00000d|               30                              |     0          |                              class: "universal" (0) 0xd5-0xd5.2 (0.2)
  0x00000d|               30                              |     0          |                              form: "constructed" (1) 0xd5.2-0xd5.3 (0.1)
  0x00000d|               30                              |     0          |                              tag: "sequence" (0x10) 0xd5.3-0xd6 (0.5)
  0x00000d|                  0d                           |      .         |                              length: 13 0xd6-0xd7 (1)
          |                                               |                |                              constructed[0:2]: 0xd7-0xe4 (13)
          |                                               |                |                                [0]{}: object 0xd7-0xe2 (11)
  0x00000d|                     06                        |       .        |                                  class: "universal" (0) 0xd7-0xd7.2 (0.2)
  0x00000d|                     06                        |       .        |                                  form: "primitive" (0) 0xd7.2-0xd7.3 (0.1)
  0x00000d|                     06                        |       .        |                                  tag: "object_identifier" (0x6) 0xd7.3-0xd8 (0.5)
  0x00000d|                        09                     |        .       |                                  length: 9 0xd8-0xd9 (1)
          |                                               |                |                                  value[0:7]: 0xd9-0xe2 (9)
  0x00000d|                           2a                  |         *      |                                    [0]: 1 oid 0xd9-0xda (1)
  0x00000d|                           2a                  |         *      |                                    [1]: 2 oid 0xd9-0xda (1)
  0x00000d|                              86 48            |          .H    |                                    [2]: 840 oid 0xda-0xdc (2)
  0x00000d|                                    86 f7 0d   |            ... |                                    [3]: 113549 oid 0xdc-0xdf (3)
  0x00000d|                                             01|               .|                                    [4]: 1 oid 0xdf-0xe0 (1)
  0x00000e|01                                             |.               |                                    [5]: 1 oid 0xe0-0xe1 (1)
  0x00000e|   01                                          | .              |                                    [6]: 1 oid 0xe1-0xe2 (1)
          |                                               |                |                                [1]{}: object 0xe2-0xe4 (2)
  0x00000e|      05                                       |  .             |                                  class: "universal" (0) 0xe2-0xe2.2 (0.2)
  0x00000e|      05                                       |  .             |                                  form: "primitive" (0) 0xe2.2-0xe2.3 (0.1)
  0x00000e|      05                                       |  .             |                                  tag: "null" (0x5) 0xe2.3-0xe3 (0.5)
  0x00000e|         00                                    |   .            |                                  length: "indefinite" (0) 0xe3-0xe4 (1)
          |                                               |                |                                  value: null
          |                                               |                |                            [1]{}: object 0xe4-0x174 (144)
  0x00000e|            03                                 |    .           |                              class: "universal" (0) 0xe4-0xe4.2 (0.2)
  0x00000e|            03                                 |    .           |                              form: "primitive" (0) 0xe4.2-0xe4.3 (0.1)
  0x00000e|            03                                 |    .           |                              tag: "bit_string" (0x3) 0xe4.3-0xe5 (0.5)
  0x00000e|               81 8d                           |     ..         |                              length: 141 0xe5-0xe7 (2)
  0x00000e|                     00                        |       .        |                              unused_bits_count: 0 0xe7-0xe8 (1)
  0x00000e|                        30 81 89 02 81 81 00 ac|        0.......|                              value: raw bits 0xe8-0x174 (140)
  0x00000f|35 2a 93 7f c5 4f 18 98 b2 9f a0 fb 34 e6 e2 8b|5*...O......4...|
  *       |until 0x173.7 (140)                            |                |
          |                                               |                |                    [1]{}: object 0x174-0x183 (15)
  0x000017|            30                                 |    0           |                      class: "universal" (0) 0x174-0x174.2 (0.2)
  0x000017|            30                                 |    0           |                      form: "constructed" (1) 0x174.2-0x174.3 (0.1)
  0x000017|            30                                 |    0           |                      tag: "sequence" (0x10) 0x174.3-0x175 (0.5)
  0x000017|               0d                              |     .          |                      length: 13 0x175-0x176 (1)
          |                                               |                |                      constructed[0:2]: 0x176-0x183 (13)
          |                                               |                |                        [0]{}: object 0x176-0x181 (11)
  0x000017|                  06                           |      .         |                          class: "universal" (0) 0x176-0x176.2 (0.2)
  0x000017|                  06                           |      .         |                          form: "primitive" (0) 0x176.2-0x176.3 (0.1)
  0x000017|                  06                           |      .         |                          tag: "object_identifier" (0x6) 0x176.3-0x177 (0.5)
  0x000017|                     09                        |       .        |                          length: 9 0x177-0x178 (1)
          |                                               |                |                          value[0:7]: 0x178-0x181 (9)
  0x000017|                        2a                     |        *       |                            [0]: 1 oid 0x178-0x179 (1)
  0x000017|                        2a                     |        *       |                            [1]: 2 oid 0x178-0x179 (1)
  0x000017|                           86 48               |         .H     |                            [2]: 840 oid 0x179-0x17b (2)
  0x000017|                                 86 f7 0d      |           ...  |                            [3]: 113549 oid 0x17b-0x17e (3)
  0x000017|                                          01   |              . |                            [4]: 1 oid 0x17e-0x17f (1)
  0x000017|                                             01|               .|                            [5]: 1 oid 0x17f-0x180 (1)
  0x000018|05                                             |.               |                            [6]: 5 oid 0x180-0x181 (1)
          |                                               |                |                        [1]{}: object 0x181-0x183 (2)
  0x000018|   05                                          | .              |                          class: "universal" (0) 0x181-0x181.2 (0.2)
  0x000018|   05                                          | .              |                          form: "primitive" (0) 0x181.2-0x181.3 (0.1)
  0x000018|   05                                          | .              |                          tag: "null" (0x5) 0x181.3-0x182 (0.5)
  0x000018|      00                                       |  .             |                          length: "indefinite" (0) 0x182-0x183 (1)
          |                                               |                |                          value: null
          |                                               |                |                    [2]{}: object 0x183-0x207 (132)
  0x000018|         03                                    |   .            |                      class: "universal" (0) 0x183-0x183.2 (0.2)
  0x000018|         03                                    |   .            |                      form: "primitive" (0) 0x183.2-0x183.3 (0.1)
  0x000018|         03                                    |   .            |                      tag: "bit_string" (0x3) 0x183.3-0x184 (0.5)
  0x000018|            81 81                              |    ..          |                      length: 129 0x184-0x186 (2)
  0x000018|                  00                           |      .         |                      unused_bits_count: 0 0x186-0x187 (1)
  0x000018|                     67 43 4c a8 a4 3e eb 1b 32|       gCL..>..2|                      value: raw bits 0x187-0x207 (128)
  0x000019|28 70 8b db eb fe f1 b3 70 39 95 34 33 26 ef 54|(p......p9.43&.T|
  *       |until 0x206.7 (128)                            |                |
          |                                               |                |        [2]{}: record 0x207-0x31b (276)
  0x000020|                     16                        |       .        |          type: "handshake" (22) (valid) 0x207-0x208 (1)
  0x000020|                        03 03                  |        ..      |          version: "tls1.2" (0x303) (valid) 0x208-0x20a (2)
  0x000020|                              01 0f            |          ..    |          length: 271 0x20a-0x20c (2)
          |                                               |                |          message{}: 0x20c-0x31b (271)
  0x000020|                                    0c         |            .   |            type: "server_key_exchange" (12) 0x20c-0x20d (1)
  0x000020|                                       00 01 0b|             ...|            length: 267 0x20d-0x210 (3)
  0x000021|00 40 da 58 3c 16 d9 85 22 89 d0 e4 af 75 6f 4c|.@.X<..."....uoL|            data: raw bits 0x210-0x31b (267)
  *       |until 0x31a.7 (267)                            |                |
          |                                               |                |        [3]{}: record 0x31b-0x324 (9)
  0x000031|                                 16            |           .    |          type: "handshake" (22) (valid) 0x31b-0x31c (1)
  0x000031|                                    03 03      |            ..  |          version: "tls1.2" (0x303) (valid) 0x31c-0x31e (2)
  0x000031|                                          00 04|              ..|          length: 4 0x31e-0x320 (2)
          |                                               |                |          message{}: 0x320-0x324 (4)
  0x000032|0e                                             |.               |            type: "server_hello_done" (14) 0x320-0x321 (1)
  0x000032|   00 00 00                                    | ...            |            length: 0 0x321-0x324 (3)
          |                                               |                |            data: raw bits 0x324-0x324 (0)
          |                                               |                |        [4]{}: record 0x324-0x3d3 (175)
  0x000032|            16                                 |    .           |          type: "handshake" (22) (valid) 0x324-0x325 (1)
  0x000032|               03 03                           |     ..         |          version: "tls1.2" (0x303) (valid) 0x325-0x327 (2)
  0x000032|                     00 aa                     |       ..       |          length: 170 0x327-0x329 (2)
          |                                               |                |          message{}: 0x329-0x3d3 (170)
  0x000032|                           04                  |         .      |            type: "new_session_ticket" (4) 0x329-0x32a (1)
  0x000032|                              00 00 a6         |          ...   |            length: 166 0x32a-0x32d (3)
  0x000032|                                       00 00 01|             ...|            lifetime_hint: 300 0x32d-0x331 (4)
  0x000033|2c                                             |,               |
  0x000033|   00 a0                                       | ..             |            ticket_length: 160 0x331-0x333 (2)
  0x000033|         c0 b4 67 52 a5 ca da 99 7a 28 d7 eb e7|   ..gR....z(...|            ticket: raw bits 0x333-0x3d3 (160)
  0x000034|a1 7e 31 68 7e 49 65 ec d4 38 22 54 64 88 4a b6|.~1h~Ie..8"Td.J.|
  *       |until 0x3d2.7 (160)                            |                |
          |                                               |                |        [5]{}: record 0x3d3-0x3d9 (6)
  0x00003d|         14                                    |   .            |          type: "change_cipher_spec" (20) (valid) 0x3d3-0x3d4 (1)
  0x00003d|            03 03                              |    ..          |          version: "tls1.2" (0x303) (valid) 0x3d4-0x3d6 (2)
  0x00003d|                  00 01                        |      ..        |          length: 1 0x3d6-0x3d8 (2)
          |                                               |                |          message{}: 0x3d8-0x3d9 (1)
  0x00003d|                        01                     |        .       |            type: 1 0x3d8-0x3d9 (1)
          |                                               |                |        [6]{}: record 0x3d9-0x42e (85)
  0x00003d|                           16                  |         .      |          type: "handshake" (22) (valid) 0x3d9-0x3da (1)
  0x00003d|                              03 03            |          ..    |          version: "tls1.2" (0x303) (valid) 0x3da-0x3dc (2)
  0x00003d|                                    00 50      |            .P  |          length: 80 0x3dc-0x3de (2)
  0x00003d|                                          15 2b|              .+|          encrypted_data: raw bits 0x3de-0x42e (80)
  0x00003e|f3 72 b5 50 62 f7 fa 25 eb cc 6d d7 aa 9f ae 7d|.r.Pb..%..m....}|
  *       |until 0x42d.7 (80)                             |                |
          |00 01 02 03 04 05 06 07 08 09 0a 0b 0c 0d 0e 0f|0123456789abcdef|          message{}: 0x0-0x10 (16)
    0x0000|14                                             |.               |            type: "finished" (20) 0x0-0x1 (1)
    0x0000|   00 00 0c                                    | ...            |            length: 12 0x1-0x4 (3)
    0x0000|            12 fc ff 80 2c 48 92 2b 50 57 0a a5|    ....,H.+PW..|            verify_data: raw bits 0x4-0x10 (12)
          |                                               |                |        [7]{}: record 0x42e-0x8d3 (1189)
  0x000042|                                          17   |              . |          type: "application_data" (23) (valid) 0x42e-0x42f (1)
  0x000042|                                             03|               .|          version: "tls1.2" (0x303) (valid) 0x42f-0x431 (2)
  0x000043|03                                             |.               |
  0x000043|   04 a0                                       | ..             |          length: 1184 0x431-0x433 (2)
  0x000043|         11 a2 df 75 bb f9 ba aa fe 8f 7e 99 52|   ...u......~.R|          encrypted_data: raw bits 0x433-0x8d3 (1184)
  0x000044|3b bb e6 a4 ab 68 6b 2b a1 9d d9 4f 9e 5c 07 0a|;....hk+...O.\..|
  *       |until 0x8d2.7 (end) (1184)                     |                |
          |00 01 02 03 04 05 06 07 08 09 0a 0b 0c 0d 0e 0f|0123456789abcdef|
    0x0000|48 54 54 50 2f 31 2e 30 20 32 30 30 20 6f 6b 0d|HTTP/1.0 200 ok.|          message: raw bits 0x0-0x1139 (4409)
    *     |until 0x1138.7 (end) (4409)                    |                |
          |00 01 02 03 04 05 06 07 08 09 0a 0b 0c 0d 0e 0f|0123456789abcdef|
    0x0000|48 54 54 50 2f 31 2e 30 20 32 30 30 20 6f 6b 0d|HTTP/1.0 200 ok.|      stream: raw bits 0x0-0x1139 (4409)
    *     |until 0x1138.7 (end) (4409)                    |                |
