$ fq -o keylog=@all.keylog ".tcp_connections[0] | dv" TLS_RSA_WITH_RC4_128_MD5.pcap
          |00 01 02 03 04 05 06 07 08 09 0a 0b 0c 0d 0e 0f|0123456789abcdef|.tcp_connections[0]{}: tcp_connection 0x18d0-0x18d0 (0)
          |                                               |                |  client{}: 0x18d0-0x18d0 (0)
          |                                               |                |    ip: "127.0.0.1"
          |                                               |                |    port: 39028
          |                                               |                |    has_start: true
          |                                               |                |    has_end: false
          |                                               |                |    skipped_bytes: 0
          |00 01 02 03 04 05 06 07 08 09 0a 0b 0c 0d 0e 0f|0123456789abcdef|    stream{}: (tls) 0x0-0x128 (296)
          |                                               |                |      ssl_v2{}: 0x0-0x34 (52)
  0x000000|80 32                                          |.2              |        length: 50 0x0-0x2 (2)
  0x000000|      01                                       |  .             |        type: 1 0x2-0x3 (1)
  0x000000|         03 03                                 |   ..           |        tls_version: 771 0x3-0x5 (2)
  0x000000|               00 09                           |     ..         |        cipher_spec_length: 9 0x5-0x7 (2)
  0x000000|                     00 00                     |       ..       |        session_id_length: 0 0x7-0x9 (2)
  0x000000|                           00 20               |         .      |        challenge_length: 32 0x9-0xb (2)
          |                                               |                |        cipher_specs[0:3]: 0xb-0x14 (9)
  0x000000|                                 00 00 04      |           ...  |          [0]: "TLS_RSA_WITH_RC4_128_MD5" (0x4) cipher_spec 0xb-0xe (3)
  0x000000|                                          01 00|              ..|          [1]: "SSL_CK_RC4_128_WITH_MD5" (0x10080) cipher_spec 0xe-0x11 (3)
  0x000001|80                                             |.               |
  0x000001|   00 00 ff                                    | ...            |          [2]: "TLS_EMPTY_RENEGOTIATION_INFO_SCSV" (0xff) cipher_spec 0x11-0x14 (3)
          |                                               |                |        session_id: raw bits 0x14-0x14 (0)
  0x000001|            45 75 c2 fa 38 3b 34 ff 9c 5a a5 3c|    Eu..8;4..Z.<|        challenge: raw bits 0x14-0x34 (32)
  0x000002|27 a3 11 88 a5 cb d9 97 6d d1 cb ee 23 12 4a ba|'.......m...#.J.|
  0x000003|07 8b c2 f1                                    |....            |
          |                                               |                |      records[0:5]: 0x34-0x128 (244)
          |                                               |                |        [0]{}: record 0x34-0xbf (139)
  0x000003|            16                                 |    .           |          type: "handshake" (22) (valid) 0x34-0x35 (1)
  0x000003|               03 03                           |     ..         |          version: "tls1.2" (0x303) (valid) 0x35-0x37 (2)
  0x000003|                     00 86                     |       ..       |          length: 134 0x37-0x39 (2)
          |                                               |                |          message{}: 0x39-0xbf (134)
  0x000003|                           10                  |         .      |            type: "client_key_exchange" (16) 0x39-0x3a (1)
  0x000003|                              00 00 82         |          ...   |            length: 130 0x3a-0x3d (3)
          |                                               |                |            encrypted_premaster{}: 0x3d-0x3d (0)
  0x000003|                                       00 80   |             .. |              length: 128 0x3d-0x3f (2)
  0x000003|                                             34|               4|              data: raw bits 0x3f-0xbf (128)
  0x000004|98 3d 5b b8 a4 26 53 7f 29 df 1a aa cd 32 b5 b5|.=[..&S.)....2..|
  *       |until 0xbe.7 (128)                             |                |
          |                                               |                |        [1]{}: record 0xbf-0xc5 (6)
  0x00000b|                                             14|               .|          type: "change_cipher_spec" (20) (valid) 0xbf-0xc0 (1)
  0x00000c|03 03                                          |..              |          version: "tls1.2" (0x303) (valid) 0xc0-0xc2 (2)
  0x00000c|      00 01                                    |  ..            |          length: 1 0xc2-0xc4 (2)
          |                                               |                |          message{}: 0xc4-0xc5 (1)
  0x00000c|            01                                 |    .           |            type: 1 0xc4-0xc5 (1)
          |                                               |                |        [2]{}: record 0xc5-0xea (37)
  0x00000c|               16                              |     .          |          type: "handshake" (22) (valid) 0xc5-0xc6 (1)
  0x00000c|                  03 03                        |      ..        |          version: "tls1.2" (0x303) (valid) 0xc6-0xc8 (2)
  0x00000c|                        00 20                  |        .       |          length: 32 0xc8-0xca (2)
  0x00000c|                              97 d3 ee 51 34 a5|          ...Q4.|          encrypted_data: raw bits 0xca-0xea (32)
  0x00000d|2f 02 2f de 6a 3d f5 5e 65 d9 90 2a 53 46 f7 46|/./.j=.^e..*SF.F|
  0x00000e|eb 37 e2 3b dd 27 65 b1 86 6a                  |.7.;.'e..j      |
          |00 01 02 03 04 05 06 07 08 09 0a 0b 0c 0d 0e 0f|0123456789abcdef|          message{}: 0x0-0x10 (16)
    0x0000|14                                             |.               |            type: "finished" (20) 0x0-0x1 (1)
    0x0000|   00 00 0c                                    | ...            |            length: 12 0x1-0x4 (3)
    0x0000|            69 ca b3 c0 60 22 12 2e 9e 0b d6 1b|    i...`"......|            verify_data: raw bits 0x4-0x10 (12)
          |                                               |                |        [3]{}: record 0xea-0x111 (39)
  0x00000e|                              17               |          .     |          type: "application_data" (23) (valid) 0xea-0xeb (1)
  0x00000e|                                 03 03         |           ..   |          version: "tls1.2" (0x303) (valid) 0xeb-0xed (2)
  0x00000e|                                       00 22   |             ." |          length: 34 0xed-0xef (2)
  0x00000e|                                             95|               .|          encrypted_data: raw bits 0xef-0x111 (34)
  0x00000f|b1 e0 20 79 d5 d7 a3 f1 04 a4 f8 eb 47 1c bb 65|.. y........G..e|
  *       |until 0x110.7 (34)                             |                |
          |00 01 02 03 04 05 06 07 08 09 0a 0b 0c 0d 0e 0f|0123456789abcdef|
    0x0000|47 45 54 20 2f 20 48 54 54 50 2f 31 2e 30 0d 0a|GET / HTTP/1.0..|          message: raw bits 0x0-0x12 (18)
    0x0000|0d 0a|                                         |..|             |
          |                                               |                |        [4]{}: record 0x111-0x128 (23)
  0x000011|   15                                          | .              |          type: "alert" (21) (valid) 0x111-0x112 (1)
  0x000011|      03 03                                    |  ..            |          version: "tls1.2" (0x303) (valid) 0x112-0x114 (2)
  0x000011|            00 12                              |    ..          |          length: 18 0x114-0x116 (2)
  0x000011|                  c2 65 49 82 64 74 94 59 9d 45|      .eI.dt.Y.E|          encrypted_data: raw bits 0x116-0x128 (18)
  0x000012|7c 3f fc 23 83 64 51 0f|                       ||?.#.dQ.|       |
          |00 01 02 03 04 05 06 07 08 09 0a 0b 0c 0d 0e 0f|0123456789abcdef|          message{}: 0x0-0x2 (2)
    0x0000|01                                             |.               |            level: "warning" (1) 0x0-0x1 (1)
    0x0000|   00|                                         | .|             |            description: "close_notify" (0) 0x1-0x2 (1)
          |00 01 02 03 04 05 06 07 08 09 0a 0b 0c 0d 0e 0f|0123456789abcdef|
    0x0000|47 45 54 20 2f 20 48 54 54 50 2f 31 2e 30 0d 0a|GET / HTTP/1.0..|      stream: raw bits 0x0-0x12 (18)
    0x0000|0d 0a|                                         |..|             |
          |                                               |                |  server{}: 0x18d0-0x18d0 (0)
          |                                               |                |    ip: "127.0.0.1"
          |                                               |                |    port: 4430
          |                                               |                |    has_start: true
          |                                               |                |    has_end: true
          |                                               |                |    skipped_bytes: 0
          |00 01 02 03 04 05 06 07 08 09 0a 0b 0c 0d 0e 0f|0123456789abcdef|    stream{}: (tls) 0x0-0x1390 (5008)
          |                                               |                |      records[0:6]: 0x0-0x1390 (5008)
          |                                               |                |        [0]{}: record 0x0-0x56 (86)
  0x000000|16                                             |.               |          type: "handshake" (22) (valid) 0x0-0x1 (1)
  0x000000|   03 03                                       | ..             |          version: "tls1.2" (0x303) (valid) 0x1-0x3 (2)
  0x000000|         00 51                                 |   .Q           |          length: 81 0x3-0x5 (2)
          |                                               |                |          message{}: 0x5-0x56 (81)
  0x000000|               02                              |     .          |            type: "server_hello" (2) 0x5-0x6 (1)
  0x000000|                  00 00 4d                     |      ..M       |            length: 77 0x6-0x9 (3)
  0x000000|                           03 03               |         ..     |            version: "tls1.2" (0x303) 0x9-0xb (2)
          |                                               |                |            random{}: 0xb-0x2b (32)
  0x000000|                                 52 36 2c 11   |           R6,. |              gmt_unix_time: 1379281937 (2013-09-15T21:52:17Z) 0xb-0xf (4)
  0x000000|                                             78|               x|              random_bytes: raw bits 0xf-0x2b (28)
  0x000001|a1 7a ff 8a bb ca e8 8d 88 a3 a6 76 b6 90 e2 e7|.z.........v....|
  0x000002|1f 41 33 36 32 10 2b ab b3 4b fa               |.A362.+..K.     |
  0x000002|                                 20            |                |            session_id_length: 32 0x2b-0x2c (1)
  0x000002|                                    3e 3b 6c 62|            >;lb|            session_id: raw bits 0x2c-0x4c (32)
  0x000003|12 f2 88 5e 31 d8 64 a1 34 21 4d f5 40 49 e9 0f|...^1.d.4!M.@I..|
  0x000004|d0 88 24 8c ae 91 cf 89 da 13 73 98            |..$.......s.    |
  0x000004|                                    00 04      |            ..  |            cipher_suit: "TLS_RSA_WITH_RC4_128_MD5" (0x4) 0x4c-0x4e (2)
  0x000004|                                          00   |              . |            compression_method: "null" (0x0) 0x4e-0x4f (1)
  0x000004|                                             00|               .|            extensions_length: 5 0x4f-0x51 (2)
  0x000005|05                                             |.               |
          |                                               |                |            extensions[0:1]: 0x51-0x56 (5)
          |                                               |                |              [0]{}: extension 0x51-0x56 (5)
  0x000005|   ff 01                                       | ..             |                type: "renegotiation_info" (65281) 0x51-0x53 (2)
  0x000005|         00 01                                 |   ..           |                length: 1 0x53-0x55 (2)
  0x000005|               00                              |     .          |                data: raw bits 0x55-0x56 (1)
          |                                               |                |        [1]{}: record 0x56-0x21e (456)
  0x000005|                  16                           |      .         |          type: "handshake" (22) (valid) 0x56-0x57 (1)
  0x000005|                     03 03                     |       ..       |          version: "tls1.2" (0x303) (valid) 0x57-0x59 (2)
  0x000005|                           01 c3               |         ..     |          length: 451 0x59-0x5b (2)
          |                                               |                |          message{}: 0x5b-0x21e (451)
  0x000005|                                 0b            |           .    |            type: "certificate" (11) 0x5b-0x5c (1)
  0x000005|                                    00 01 bf   |            ... |            length: 447 0x5c-0x5f (3)
  0x000005|                                             00|               .|            certificates_length: 444 0x5f-0x62 (3)
  0x000006|01 bc                                          |..              |
          |                                               |                |            certificates[0:1]: 0x62-0x21e (444)
          |                                               |                |              [0]{}: certificate 0x62-0x21e (444)
  0x000006|      00 01 b9                                 |  ...           |                length: 441 0x62-0x65 (3)
          |00 01 02 03 04 05 06 07 08 09 0a 0b 0c 0d 0e 0f|0123456789abcdef|                data{}: (asn1_ber) 0x65-0x21e (441)
  0x000006|               30                              |     0          |                  class: "universal" (0) 0x65-0x65.2 (0.2)
  0x000006|               30                              |     0          |                  form: "constructed" (1) 0x65.2-0x65.3 (0.1)
  0x000006|               30                              |     0          |                  tag: "sequence" (0x10) 0x65.3-0x66 (0.5)
  0x000006|                  82 01 b5                     |      ...       |                  length: 437 0x66-0x69 (3)
          |                                               |                |                  constructed[0:3]: 0x69-0x21e (437)
          |                                               |                |                    [0]{}: object 0x69-0x18b (290)
  0x000006|                           30                  |         0      |                      class: "universal" (0) 0x69-0x69.2 (0.2)
  0x000006|                           30                  |         0      |                      form: "constructed" (1) 0x69.2-0x69.3 (0.1)
  0x000006|                           30                  |         0      |                      tag: "sequence" (0x10) 0x69.3-0x6a (0.5)
  0x000006|                              82 01 1e         |          ...   |                      length: 286 0x6a-0x6d (3)
          |                                               |                |                      constructed[0:6]: 0x6d-0x18b (286)
          |                                               |                |                        [0]{}: object 0x6d-0x78 (11)
  0x000006|                                       02      |             .  |                          class: "universal" (0) 0x6d-0x6d.2 (0.2)
  0x000006|                                       02      |             .  |                          form: "primitive" (0) 0x6d.2-0x6d.3 (0.1)
  0x000006|                                       02      |             .  |                          tag: "integer" (0x2) 0x6d.3-0x6e (0.5)
  0x000006|                                          09   |              . |                          length: 9 0x6e-0x6f (1)
  0x000006|                                             00|               .|                          value: 17629111853558544324 0x6f-0x78 (9)
  0x000007|f4 a7 2f d3 e8 fc 37 c4                        |../...7.        |
          |                                               |                |                        [1]{}: object 0x78-0x87 (15)
  0x000007|                        30                     |        0       |                          class: "universal" (0) 0x78-0x78.2 (0.2)
  0x000007|                        30                     |        0       |                          form: "constructed" (1) 0x78.2-0x78.3 (0.1)
  0x000007|                        30                     |        0       |                          tag: "sequence" (0x10) 0x78.3-0x79 (0.5)
  0x000007|                           0d                  |         .      |                          length: 13 0x79-0x7a (1)
          |                                               |                |                          constructed[0:2]: 0x7a-0x87 (13)
          |                                               |                |                            [0]{}: object 0x7a-0x85 (11)
  0x000007|                              06               |          .     |                              class: "universal" (0) 0x7a-0x7a.2 (0.2)
  0x000007|                              06               |          .     |                              form: "primitive" (0) 0x7a.2-0x7a.3 (0.1)
  0x000007|                              06               |          .     |                              tag: "object_identifier" (0x6) 0x7a.3-0x7b (0.5)
  0x000007|                                 09            |           .    |                              length: 9 0x7b-0x7c (1)
          |                                               |                |                              value[0:7]: 0x7c-0x85 (9)
  0x000007|                                    2a         |            *   |                                [0]: 1 oid 0x7c-0x7d (1)
  0x000007|                                    2a         |            *   |                                [1]: 2 oid 0x7c-0x7d (1)
  0x000007|                                       86 48   |             .H |                                [2]: 840 oid 0x7d-0x7f (2)
  0x000007|                                             86|               .|                                [3]: 113549 oid 0x7f-0x82 (3)
  0x000008|f7 0d                                          |..              |
  0x000008|      01                                       |  .             |                                [4]: 1 oid 0x82-0x83 (1)
  0x000008|         01                                    |   .            |                                [5]: 1 oid 0x83-0x84 (1)
  0x000008|            05                                 |    .           |                                [6]: 5 oid 0x84-0x85 (1)
          |                                               |                |                            [1]{}: object 0x85-0x87 (2)
  0x000008|               05                              |     .          |                              class: "universal" (0) 0x85-0x85.2 (0.2)
  0x000008|               05                              |     .          |                              form: "primitive" (0) 0x85.2-0x85.3 (0.1)
  0x000008|               05                              |     .          |                              tag: "null" (0x5) 0x85.3-0x86 (0.5)
  0x000008|                  00                           |      .         |                              length: "indefinite" (0) 0x86-0x87 (1)
          |                                               |                |                              value: null
          |                                               |                |                        [2]{}: object 0x87-0xa8 (33)
  0x000008|                     30                        |       0        |                          class: "universal" (0) 0x87-0x87.2 (0.2)
  0x000008|                     30                        |       0        |                          form: "constructed" (1) 0x87.2-0x87.3 (0.1)
  0x000008|                     30                        |       0        |                          tag: "sequence" (0x10) 0x87.3-0x88 (0.5)
  0x000008|                        1f                     |        .       |                          length: 31 0x88-0x89 (1)
          |                                               |                |                          constructed[0:1]: 0x89-0xa8 (31)
          |                                               |                |                            [0]{}: object 0x89-0xa8 (31)
  0x000008|                           31                  |         1      |                              class: "universal" (0) 0x89-0x89.2 (0.2)
  0x000008|                           31                  |         1      |                              form: "constructed" (1) 0x89.2-0x89.3 (0.1)
  0x000008|                           31                  |         1      |                              tag: "set" (0x11) 0x89.3-0x8a (0.5)
  0x000008|                              1d               |          .     |                              length: 29 0x8a-0x8b (1)
          |                                               |                |                              constructed[0:1]: 0x8b-0xa8 (29)
          |                                               |                |                                [0]{}: object 0x8b-0xa8 (29)
  0x000008|                                 30            |           0    |                                  class: "universal" (0) 0x8b-0x8b.2 (0.2)
  0x000008|                                 30            |           0    |                                  form: "constructed" (1) 0x8b.2-0x8b.3 (0.1)
  0x000008|                                 30            |           0    |                                  tag: "sequence" (0x10) 0x8b.3-0x8c (0.5)
  0x000008|                                    1b         |            .   |                                  length: 27 0x8c-0x8d (1)
          |                                               |                |                                  constructed[0:2]: 0x8d-0xa8 (27)
          |                                               |                |                                    [0]{}: object 0x8d-0x92 (5)
  0x000008|                                       06      |             .  |                                      class: "universal" (0) 0x8d-0x8d.2 (0.2)
  0x000008|                                       06      |             .  |                                      form: "primitive" (0) 0x8d.2-0x8d.3 (0.1)
  0x000008|                                       06      |             .  |                                      tag: "object_identifier" (0x6) 0x8d.3-0x8e (0.5)
  0x000008|                                          03   |              . |                                      length: 3 0x8e-0x8f (1)
          |                                               |                |                                      value[0:4]: 0x8f-0x92 (3)
  0x000008|                                             55|               U|                                        [0]: 2 oid 0x8f-0x90 (1)
  0x000008|                                             55|               U|                                        [1]: 5 oid 0x8f-0x90 (1)
  0x000009|04                                             |.               |                                        [2]: 4 oid 0x90-0x91 (1)
  0x000009|   03                                          | .              |                                        [3]: 3 oid 0x91-0x92 (1)
          |                                               |                |                                    [1]{}: object 0x92-0xa8 (22)
  0x000009|      0c                                       |  .             |                                      class: "universal" (0) 0x92-0x92.2 (0.2)
  0x000009|      0c                                       |  .             |                                      form: "primitive" (0) 0x92.2-0x92.3 (0.1)
  0x000009|      0c                                       |  .             |                                      tag: "utf8_string" (0xc) 0x92.3-0x93 (0.5)
  0x000009|         14                                    |   .            |                                      length: 20 0x93-0x94 (1)
  0x000009|            54 65 73 74 20 43 65 72 74 69 66 69|    Test Certifi|                                      value: "Test Certificate RSA" 0x94-0xa8 (20)
  0x00000a|63 61 74 65 20 52 53 41                        |cate RSA        |
          |                                               |                |                        [3]{}: object 0xa8-0xc8 (32)
  0x00000a|                        30                     |        0       |                          class: "universal" (0) 0xa8-0xa8.2 (0.2)
  0x00000a|                        30                     |        0       |                          form: "constructed" (1) 0xa8.2-0xa8.3 (0.1)
  0x00000a|                        30                     |        0       |                          tag: "sequence" (0x10) 0xa8.3-0xa9 (0.5)
  0x00000a|                           1e                  |         .      |                          length: 30 0xa9-0xaa (1)
          |                                               |                |                          constructed[0:2]: 0xaa-0xc8 (30)
          |                                               |                |                            [0]{}: object 0xaa-0xb9 (15)
  0x00000a|                              17               |          .     |                              class: "universal" (0) 0xaa-0xaa.2 (0.2)
  0x00000a|                              17               |          .     |                              form: "primitive" (0) 0xaa.2-0xaa.3 (0.1)
  0x00000a|                              17               |          .     |                              tag: "utc_time" (0x17) 0xaa.3-0xab (0.5)
  0x00000a|                                 0d            |           .    |                              length: 13 0xab-0xac (1)
  0x00000a|                                    31 33 30 39|            1309|                              value: "130915215110Z" 0xac-0xb9 (13)
  0x00000b|31 35 32 31 35 31 31 30 5a                     |15215110Z       |
          |                                               |                |                            [1]{}: object 0xb9-0xc8 (15)
  0x00000b|                           17                  |         .      |                              class: "universal" (0) 0xb9-0xb9.2 (0.2)
  0x00000b|                           17                  |         .      |                              form: "primitive" (0) 0xb9.2-0xb9.3 (0.1)
  0x00000b|                           17                  |         .      |                              tag: "utc_time" (0x17) 0xb9.3-0xba (0.5)
  0x00000b|                              0d               |          .     |                              length: 13 0xba-0xbb (1)
  0x00000b|                                 32 33 30 39 31|           23091|                              value: "230913215110Z" 0xbb-0xc8 (13)
  0x00000c|33 32 31 35 31 31 30 5a                        |3215110Z        |
          |                                               |                |                        [4]{}: object 0xc8-0xe9 (33)
  0x00000c|                        30                     |        0       |                          class: "universal" (0) 0xc8-0xc8.2 (0.2)
  0x00000c|                        30                     |        0       |                          form: "constructed" (1) 0xc8.2-0xc8.3 (0.1)
  0x00000c|                        30                     |        0       |                          tag: "sequence" (0x10) 0xc8.3-0xc9 (0.5)
  0x00000c|                           1f                  |         .      |                          length: 31 0xc9-0xca (1)
          |                                               |                |                          constructed[0:1]: 0xca-0xe9 (31)
          |                                               |                |                            [0]{}: object 0xca-0xe9 (31)
  0x00000c|                              31               |          1     |                              class: "universal" (0) 0xca-0xca.2 (0.2)
  0x00000c|                              31               |          1     |                              form: "constructed" (1) 0xca.2-0xca.3 (0.1)
  0x00000c|                              31               |          1     |                              tag: "set" (0x11) 0xca.3-0xcb (0.5)
  0x00000c|                                 1d            |           .    |                              length: 29 0xcb-0xcc (1)
          |                                               |                |                              constructed[0:1]: 0xcc-0xe9 (29)
          |                                               |                |                                [0]{}: object 0xcc-0xe9 (29)
  0x00000c|                                    30         |            0   |                                  class: "universal" (0) 0xcc-0xcc.2 (0.2)
  0x00000c|                                    30         |            0   |                                  form: "constructed" (1) 0xcc.2-0xcc.3 (0.1)
  0x00000c|                                    30         |            0   |                                  tag: "sequence" (0x10) 0xcc.3-0xcd (0.5)
  0x00000c|                                       1b      |             .  |                                  length: 27 0xcd-0xce (1)
          |                                               |                |                                  constructed[0:2]: 0xce-0xe9 (27)
          |                                               |                |                                    [0]{}: object 0xce-0xd3 (5)
  0x00000c|                                          06   |              . |                                      class: "universal" (0) 0xce-0xce.2 (0.2)
  0x00000c|                                          06   |              . |                                      form: "primitive" (0) 0xce.2-0xce.3 (0.1)
  0x00000c|                                          06   |              . |                                      tag: "object_identifier" (0x6) 0xce.3-0xcf (0.5)
  0x00000c|                                             03|               .|                                      length: 3 0xcf-0xd0 (1)
          |                                               |                |                                      value[0:4]: 0xd0-0xd3 (3)
  0x00000d|55                                             |U               |                                        [0]: 2 oid 0xd0-0xd1 (1)
  0x00000d|55                                             |U               |                                        [1]: 5 oid 0xd0-0xd1 (1)
  0x00000d|   04                                          | .              |                                        [2]: 4 oid 0xd1-0xd2 (1)
  0x00000d|      03                                       |  .             |                                        [3]: 3 oid 0xd2-0xd3 (1)
          |                                               |                |                                    [1]{}: object 0xd3-0xe9 (22)
  0x00000d|         0c                                    |   .            |                                      class: "universal" (0) 0xd3-0xd3.2 (0.2)
  0x00000d|         0c                                    |   .            |                                      form: "primitive" (0) 0xd3.2-0xd3.3 (0.1)
  0x00000d|         0c                                    |   .            |                                      tag: "utf8_string" (0xc) 0xd3.3-0xd4 (0.5)
  0x00000d|            14                                 |    .           |                                      length: 20 0xd4-0xd5 (1)
  0x00000d|               54 65 73 74 20 43 65 72 74 69 66|     Test Certif|                                      value: "Test Certificate RSA" 0xd5-0xe9 (20)
  0x00000e|69 63 61 74 65 20 52 53 41                     |icate RSA       |
          |                                               |                |                        [5]{}: object 0xe9-0x18b (162)
  0x00000e|                           30                  |         0      |                          class: "universal" (0) 0xe9-0xe9.2 (0.2)
  0x00000e|                           30                  |         0      |                          form: "constructed" (1) 0xe9.2-0xe9.3 (0.1)
  0x00000e|                           30                  |         0      |                          tag: "sequence" (0x10) 0xe9.3-0xea (0.5)
  0x00000e|                              81 9f            |          ..    |                          length: 159 0xea-0xec (2)
          |                                               |                |                          constructed[0:2]: 0xec-0x18b (159)
          |                                               |                |                            [0]{}: object 0xec-0xfb (15)
  0x00000e|                                    30         |            0   |                              class: "universal" (0) 0xec-0xec.2 (0.2)
  0x00000e|                                    30         |            0   |                              form: "constructed" (1) 0xec.2-0xec.3 (0.1)
  0x00000e|                                    30         |            0   |                              tag: "sequence" (0x10) 0xec.3-0xed (0.5)
  0x00000e|                                       0d      |             .  |                              length: 13 0xed-0xee (1)
          |                                               |                |                              constructed[0:2]: 0xee-0xfb (13)
          |                                               |                |                                [0]{}: object 0xee-0xf9 (11)
  0x00000e|                                          06   |              . |                                  class: "universal" (0) 0xee-0xee.2 (0.2)
  0x00000e|                                          06   |              . |                                  form: "primitive" (0) 0xee.2-0xee.3 (0.1)
  0x00000e|                                          06   |              . |                                  tag: "object_identifier" (0x6) 0xee.3-0xef (0.5)
  0x00000e|                                             09|               .|                                  length: 9 0xef-0xf0 (1)
          |                                               |                |                                  value[0:7]: 0xf0-0xf9 (9)
  0x00000f|2a                                             |*               |                                    [0]: 1 oid 0xf0-0xf1 (1)
  0x00000f|2a                                             |*               |                                    [1]: 2 oid 0xf0-0xf1 (1)
  0x00000f|   86 48                                       | .H             |                                    [2]: 840 oid 0xf1-0xf3 (2)
  0x00000f|         86 f7 0d                              |   ...          |                                    [3]: 113549 oid 0xf3-0xf6 (3)
  0x00000f|                  01                           |      .         |                                    [4]: 1 oid 0xf6-0xf7 (1)
  0x00000f|                     01                        |       .        |                                    [5]: 1 oid 0xf7-0xf8 (1)
  0x00000f|                        01                     |        .       |                                    [6]: 1 oid 0xf8-0xf9 (1)
          |                                               |                |                                [1]{}: object 0xf9-0xfb (2)
  0x00000f|                           05                  |         .      |                                  class: "universal" (0) 0xf9-0xf9.2 (0.2)
  0x00000f|                           05                  |         .      |                                  form: "primitive" (0) 0xf9.2-0xf9.3 (0.1)
  0x00000f|                           05                  |         .      |                                  tag: "null" (0x5) 0xf9.3-0xfa (0.5)
  0x00000f|                              00               |          .     |                                  length: "indefinite" (0) 0xfa-0xfb (1)
          |                                               |                |                                  value: null
          |                                               |                |                            [1]{}: object 0xfb-0x18b (144)
  0x00000f|                                 03            |           .    |                              class: "universal" (0) 0xfb-0xfb.2 (0.2)
  0x00000f|                                 03            |           .    |                              form: "primitive" (0) 0xfb.2-0xfb.3 (0.1)
  0x00000f|                                 03            |           .    |                              tag: "bit_string" (0x3) 0xfb.3-0xfc (0.5)
  0x00000f|                                    81 8d      |            ..  |                              length: 141 0xfc-0xfe (2)
  0x00000f|                                          00   |              . |                              unused_bits_count: 0 0xfe-0xff (1)
  0x00000f|                                             30|               0|                              value: raw bits 0xff-0x18b (140)
  0x000010|81 89 02 81 81 00 ac 35 2a 93 7f c5 4f 18 98 b2|.......5*...O...|
  *       |until 0x18a.7 (140)                            |                |
          |                                               |                |                    [1]{}: object 0x18b-0x19a (15)
  0x000018|                                 30            |           0    |                      class: "universal" (0) 0x18b-0x18b.2 (0.2)
  0x000018|                                 30            |           0    |                      form: "constructed" (1) 0x18b.2-0x18b.3 (0.1)
  0x000018|                                 30            |           0    |                      tag: "sequence" (0x10) 0x18b.3-0x18c (0.5)
  0x000018|                                    0d         |            .   |                      length: 13 0x18c-0x18d (1)
          |                                               |                |                      constructed[0:2]: 0x18d-0x19a (13)
          |                                               |                |                        [0]{}: object 0x18d-0x198 (11)
  0x000018|                                       06      |             .  |                          class: "universal" (0) 0x18d-0x18d.2 (0.2)
  0x000018|                                       06      |             .  |                          form: "primitive" (0) 0x18d.2-0x18d.3 (0.1)
  0x000018|                                       06      |             .  |                          tag: "object_identifier" (0x6) 0x18d.3-0x18e (0.5)
  0x000018|                                          09   |              . |                          length: 9 0x18e-0x18f (1)
          |                                               |                |                          value[0:7]: 0x18f-0x198 (9)
  0x000018|                                             2a|               *|                            [0]: 1 oid 0x18f-0x190 (1)
  0x000018|                                             2a|               *|                            [1]: 2 oid 0x18f-0x190 (1)
  0x000019|86 48                                          |.H              |                            [2]: 840 oid 0x190-0x192 (2)
  0x000019|      86 f7 0d                                 |  ...           |                            [3]: 113549 oid 0x192-0x195 (3)
  0x000019|               01                              |     .          |                            [4]: 1 oid 0x195-0x196 (1)
  0x000019|                  01                           |      .         |                            [5]: 1 oid 0x196-0x197 (1)
  0x000019|                     05                        |       .        |                            [6]: 5 oid 0x197-0x198 (1)
          |                                               |                |                        [1]{}: object 0x198-0x19a (2)
  0x000019|                        05                     |        .       |                          class: "universal" (0) 0x198-0x198.2 (0.2)
  0x000019|                        05                     |        .       |                          form: "primitive" (0) 0x198.2-0x198.3 (0.1)
  0x000019|                        05                     |        .       |                          tag: "null" (0x5) 0x198.3-0x199 (0.5)
  0x000019|                           00                  |         .      |                          length: "indefinite" (0) 0x199-0x19a (1)
          |                                               |                |                          value: null
          |                                               |                |                    [2]{}: object 0x19a-0x21e (132)
  0x000019|                              03               |          .     |                      class: "universal" (0) 0x19a-0x19a.2 (0.2)
  0x000019|                              03               |          .     |                      form: "primitive" (0) 0x19a.2-0x19a.3 (0.1)
  0x000019|                              03               |          .     |                      tag: "bit_string" (0x3) 0x19a.3-0x19b (0.5)
  0x000019|                                 81 81         |           ..   |                      length: 129 0x19b-0x19d (2)
  0x000019|                                       00      |             .  |                      unused_bits_count: 0 0x19d-0x19e (1)
  0x000019|                                          67 43|              gC|                      value: raw bits 0x19e-0x21e (128)
  0x00001a|4c a8 a4 3e eb 1b 32 28 70 8b db eb fe f1 b3 70|L..>..2(p......p|
  *       |until 0x21d.7 (128)                            |                |
          |                                               |                |        [2]{}: record 0x21e-0x227 (9)
  0x000021|                                          16   |              . |          type: "handshake" (22) (valid) 0x21e-0x21f (1)
  0x000021|                                             03|               .|          version: "tls1.2" (0x303) (valid) 0x21f-0x221 (2)
  0x000022|03                                             |.               |
  0x000022|   00 04                                       | ..             |          length: 4 0x221-0x223 (2)
          |                                               |                |          message{}: 0x223-0x227 (4)
  0x000022|         0e                                    |   .            |            type: "server_hello_done" (14) 0x223-0x224 (1)
  0x000022|            00 00 00                           |    ...         |            length: 0 0x224-0x227 (3)
          |                                               |                |            data: raw bits 0x227-0x227 (0)
          |                                               |                |        [3]{}: record 0x227-0x22d (6)
  0x000022|                     14                        |       .        |          type: "change_cipher_spec" (20) (valid) 0x227-0x228 (1)
  0x000022|                        03 03                  |        ..      |          version: "tls1.2" (0x303) (valid) 0x228-0x22a (2)
  0x000022|                              00 01            |          ..    |          length: 1 0x22a-0x22c (2)
          |                                               |                |          message{}: 0x22c-0x22d (1)
  0x000022|                                    01         |            .   |            type: 1 0x22c-0x22d (1)
          |                                               |                |        [4]{}: record 0x22d-0x252 (37)
  0x000022|                                       16      |             .  |          type: "handshake" (22) (valid) 0x22d-0x22e (1)
  0x000022|                                          03 03|              ..|          version: "tls1.2" (0x303) (valid) 0x22e-0x230 (2)
  0x000023|00 20                                          |.               |          length: 32 0x230-0x232 (2)
  0x000023|      b8 bf 79 c6 2b 43 d1 b0 15 e2 33 bb 94 12|  ..y.+C....3...|          encrypted_data: raw bits 0x232-0x252 (32)
  0x000024|75 89 64 59 a2 86 4c 2a 38 29 7d fe bf b8 b4 f9|u.dY..L*8)}.....|
  0x000025|f8 c0                                          |..              |
          |00 01 02 03 04 05 06 07 08 09 0a 0b 0c 0d 0e 0f|0123456789abcdef|          message{}: 0x0-0x10 (16)
    0x0000|14                                             |.               |            type: "finished" (20) 0x0-0x1 (1)
    0x0000|   00 00 0c                                    | ...            |            length: 12 0x1-0x4 (3)
    0x0000|            51 e0 4b 5c 41 0e ca bf 4f e8 d9 42|    Q.K\A...O..B|            verify_data: raw bits 0x4-0x10 (12)
          |                                               |                |        [5]{}: record 0x252-0x1390 (4414)
  0x000025|      17                                       |  .             |          type: "application_data" (23) (valid) 0x252-0x253 (1)
  0x000025|         03 03                                 |   ..           |          version: "tls1.2" (0x303) (valid) 0x253-0x255 (2)
  0x000025|               11 39                           |     .9         |          length: 4409 0x255-0x257 (2)
  0x000025|                     e3 04 c4 70 61 49 69 64 7f|       ...paIid.|          encrypted_data: raw bits 0x257-0x1390 (4409)
  0x000026|44 ad 9e ba ff 14 04 34 e1 e1 cf 2f 5a 73 ec ac|D......4.../Zs..|
  *       |until 0x138f.7 (end) (4409)                    |                |
          |00 01 02 03 04 05 06 07 08 09 0a 0b 0c 0d 0e 0f|0123456789abcdef|
    0x0000|48 54 54 50 2f 31 2e 30 20 32 30 30 20 6f 6b 0d|HTTP/1.0 200 ok.|          message: raw bits 0x0-0x1129 (4393)
    *     |until 0x1128.7 (end) (4393)                    |                |
          |00 01 02 03 04 05 06 07 08 09 0a 0b 0c 0d 0e 0f|0123456789abcdef|
    0x0000|48 54 54 50 2f 31 2e 30 20 32 30 30 20 6f 6b 0d|HTTP/1.0 200 ok.|      stream: raw bits 0x0-0x1129 (4393)
    *     |until 0x1128.7 (end) (4393)                    |                |
