$ fq -o keylog=@all.keylog ".tcp_connections[0] | dv" TLS_ECDH_RSA_WITH_AES_256_GCM_SHA384.pcap
          |00 01 02 03 04 05 06 07 08 09 0a 0b 0c 0d 0e 0f|0123456789abcdef|.tcp_connections[0]{}: tcp_connection 0xd16-0xd16 (0)
          |                                               |                |  client{}: 0xd16-0xd16 (0)
          |                                               |                |    ip: "127.0.0.1"
          |                                               |                |    port: 48835
          |                                               |                |    has_start: true
          |                                               |                |    has_end: false
          |                                               |                |    skipped_bytes: 0
          |00 01 02 03 04 05 06 07 08 09 0a 0b 0c 0d 0e 0f|0123456789abcdef|    stream{}: (tls) 0x0-0x1a7 (423)
          |                                               |                |      records[0:6]: 0x0-0x1a7 (423)
          |                                               |                |        [0]{}: record 0x0-0xa6 (166)
  0x000000|16                                             |.               |          type: "handshake" (22) (valid) 0x0-0x1 (1)
  0x000000|   03 01                                       | ..             |          version: "tls1.0" (0x301) (valid) 0x1-0x3 (2)
  0x000000|         00 a1                                 |   ..           |          length: 161 0x3-0x5 (2)
          |                                               |                |          message{}: 0x5-0xa6 (161)
  0x000000|               01                              |     .          |            type: "client_hello" (1) 0x5-0x6 (1)
  0x000000|                  00 00 9d                     |      ...       |            length: 157 0x6-0x9 (3)
  0x000000|                           03 03               |         ..     |            version: "tls1.2" (0x303) 0x9-0xb (2)
          |                                               |                |            random{}: 0xb-0x2b (32)
  0x000000|                                 52 36 2c 10   |           R6,. |              gmt_unix_time: 1379281936 (2013-09-15T21:52:16Z) 0xb-0xf (4)
  0x000000|                                             f9|               .|              random_bytes: raw bits 0xf-0x2b (28)
  0x000001|2c 68 48 63 56 41 f3 c4 9e d0 c9 dc 33 51 65 7a|,hHcVA......3Qez|
  0x000002|d5 3e 66 58 4a 14 37 54 c4 c2 09               |.>fXJ.7T...     |
  0x000002|                                 00            |           .    |            session_id_length: 0 0x2b-0x2c (1)
          |                                               |                |            session_id: raw bits 0x2c-0x2c (0)
  0x000002|                                    00 04      |            ..  |            cipher_suits_length: 4 0x2c-0x2e (2)
          |                                               |                |            cipher_suits[0:2]: 0x2e-0x32 (4)
  0x000002|                                          c0 32|              .2|              [0]: "TLS_ECDH_RSA_WITH_AES_256_GCM_SHA384" (0xc032) cipher_suit 0x2e-0x30 (2)
  0x000003|00 ff                                          |..              |              [1]: "TLS_EMPTY_RENEGOTIATION_INFO_SCSV" (0xff) cipher_suit 0x30-0x32 (2)
  0x000003|      02                                       |  .             |            compression_methods_length: 2 0x32-0x33 (1)
          |                                               |                |            compression_methods[0:2]: 0x33-0x35 (2)
  0x000003|         01                                    |   .            |              [0]: "deflate" (0x1) compression_method 0x33-0x34 (1)
  0x000003|            00                                 |    .           |              [1]: "null" (0x0) compression_method 0x34-0x35 (1)
  0x000003|               00 6f                           |     .o         |            extensions_length: 111 0x35-0x37 (2)
          |                                               |                |            extensions[0:5]: 0x37-0xa6 (111)
          |                                               |                |              [0]{}: extension 0x37-0x3f (8)
  0x000003|                     00 0b                     |       ..       |                type: "ec_point_formats" (11) 0x37-0x39 (2)
  0x000003|                           00 04               |         ..     |                length: 4 0x39-0x3b (2)
  0x000003|                                 03            |           .    |                ex_points_formats_length: 3 0x3b-0x3c (1)
          |                                               |                |                ex_points_formats[0:3]: 0x3c-0x3f (3)
  0x000003|                                    00         |            .   |                  [0]: 0x0 ex_points_format 0x3c-0x3d (1)
  0x000003|                                       01      |             .  |                  [1]: 0x1 ex_points_format 0x3d-0x3e (1)
  0x000003|                                          02   |              . |                  [2]: 0x2 ex_points_format 0x3e-0x3f (1)
          |                                               |                |              [1]{}: extension 0x3f-0x77 (56)
  0x000003|                                             00|               .|                type: "supported_groups" (10) 0x3f-0x41 (2)
  0x000004|0a                                             |.               |
  0x000004|   00 34                                       | .4             |                length: 52 0x41-0x43 (2)
  0x000004|         00 32                                 |   .2           |                supported_groups_length: 50 0x43-0x45 (2)
          |                                               |                |                supported_groups[0:25]: 0x45-0x77 (50)
  0x000004|               00 0e                           |     ..         |                  [0]: 0xe supported_group 0x45-0x47 (2)
  0x000004|                     00 0d                     |       ..       |                  [1]: 0xd supported_group 0x47-0x49 (2)
  0x000004|                           00 19               |         ..     |                  [2]: 0x19 supported_group 0x49-0x4b (2)
  0x000004|                                 00 0b         |           ..   |                  [3]: 0xb supported_group 0x4b-0x4d (2)
  0x000004|                                       00 0c   |             .. |                  [4]: 0xc supported_group 0x4d-0x4f (2)
  0x000004|                                             00|               .|                  [5]: 0x18 supported_group 0x4f-0x51 (2)
  0x000005|18                                             |.               |
  0x000005|   00 09                                       | ..             |                  [6]: 0x9 supported_group 0x51-0x53 (2)
  0x000005|         00 0a                                 |   ..           |                  [7]: 0xa supported_group 0x53-0x55 (2)
  0x000005|               00 16                           |     ..         |                  [8]: 0x16 supported_group 0x55-0x57 (2)
  0x000005|                     00 17                     |       ..       |                  [9]: 0x17 supported_group 0x57-0x59 (2)
  0x000005|                           00 08               |         ..     |                  [10]: 0x8 supported_group 0x59-0x5b (2)
  0x000005|                                 00 06         |           ..   |                  [11]: 0x6 supported_group 0x5b-0x5d (2)
  0x000005|                                       00 07   |             .. |                  [12]: 0x7 supported_group 0x5d-0x5f (2)
  0x000005|                                             00|               .|                  [13]: 0x14 supported_group 0x5f-0x61 (2)
  0x000006|14                                             |.               |
  0x000006|   00 15                                       | ..             |                  [14]: 0x15 supported_group 0x61-0x63 (2)
  0x000006|         00 04                                 |   ..           |                  [15]: 0x4 supported_group 0x63-0x65 (2)
  0x000006|               00 05                           |     ..         |                  [16]: 0x5 supported_group 0x65-0x67 (2)
  0x000006|                     00 12                     |       ..       |                  [17]: 0x12 supported_group 0x67-0x69 (2)
  0x000006|                           00 13               |         ..     |                  [18]: 0x13 supported_group 0x69-0x6b (2)
  0x000006|                                 00 01         |           ..   |                  [19]: 0x1 supported_group 0x6b-0x6d (2)
  0x000006|                                       00 02   |             .. |                  [20]: 0x2 supported_group 0x6d-0x6f (2)
  0x000006|                                             00|               .|                  [21]: 0x3 supported_group 0x6f-0x71 (2)
  0x000007|03                                             |.               |
  0x000007|   00 0f                                       | ..             |                  [22]: 0xf supported_group 0x71-0x73 (2)
  0x000007|         00 10                                 |   ..           |                  [23]: 0x10 supported_group 0x73-0x75 (2)
  0x000007|               00 11                           |     ..         |                  [24]: 0x11 supported_group 0x75-0x77 (2)
          |                                               |                |              [2]{}: extension 0x77-0x7b (4)
  0x000007|                     00 23                     |       .#       |                type: "session_ticket" (35) 0x77-0x79 (2)
  0x000007|                           00 00               |         ..     |                length: 0 0x79-0x7b (2)
          |                                               |                |              [3]{}: extension 0x7b-0xa1 (38)
  0x000007|                                 00 0d         |           ..   |                type: "signature_algorithms" (13) 0x7b-0x7d (2)
  0x000007|                                       00 22   |             ." |                length: 34 0x7d-0x7f (2)
  0x000007|                                             00|               .|                signature_algorithms_length: 32 0x7f-0x81 (2)
  0x000008|20                                             |                |
          |                                               |                |                signature_algorithms[0:16]: 0x81-0xa1 (32)
          |                                               |                |                  [0]{}: signature_algorithm 0x81-0x83 (2)
  0x000008|   06                                          | .              |                    hash: "sha512" (6) 0x81-0x82 (1)
  0x000008|      01                                       |  .             |                    signature: "rsa" (1) 0x82-0x83 (1)
          |                                               |                |                  [1]{}: signature_algorithm 0x83-0x85 (2)
  0x000008|         06                                    |   .            |                    hash: "sha512" (6) 0x83-0x84 (1)
  0x000008|            02                                 |    .           |                    signature: "dsa" (2) 0x84-0x85 (1)
          |                                               |                |                  [2]{}: signature_algorithm 0x85-0x87 (2)
  0x000008|               06                              |     .          |                    hash: "sha512" (6) 0x85-0x86 (1)
  0x000008|                  03                           |      .         |                    signature: "ecdsa" (3) 0x86-0x87 (1)
          |                                               |                |                  [3]{}: signature_algorithm 0x87-0x89 (2)
  0x000008|                     05                        |       .        |                    hash: "sha384" (5) 0x87-0x88 (1)
  0x000008|                        01                     |        .       |                    signature: "rsa" (1) 0x88-0x89 (1)
          |                                               |                |                  [4]{}: signature_algorithm 0x89-0x8b (2)
  0x000008|                           05                  |         .      |                    hash: "sha384" (5) 0x89-0x8a (1)
  0x000008|                              02               |          .     |                    signature: "dsa" (2) 0x8a-0x8b (1)
          |                                               |                |                  [5]{}: signature_algorithm 0x8b-0x8d (2)
  0x000008|                                 05            |           .    |                    hash: "sha384" (5) 0x8b-0x8c (1)
  0x000008|                                    03         |            .   |                    signature: "ecdsa" (3) 0x8c-0x8d (1)
          |                                               |                |                  [6]{}: signature_algorithm 0x8d-0x8f (2)
  0x000008|                                       04      |             .  |                    hash: "sha256" (4) 0x8d-0x8e (1)
  0x000008|                                          01   |              . |                    signature: "rsa" (1) 0x8e-0x8f (1)
          |                                               |                |                  [7]{}: signature_algorithm 0x8f-0x91 (2)
  0x000008|                                             04|               .|                    hash: "sha256" (4) 0x8f-0x90 (1)
  0x000009|02                                             |.               |                    signature: "dsa" (2) 0x90-0x91 (1)
          |                                               |                |                  [8]{}: signature_algorithm 0x91-0x93 (2)
  0x000009|   04                                          | .              |                    hash: "sha256" (4) 0x91-0x92 (1)
  0x000009|      03                                       |  .             |                    signature: "ecdsa" (3) 0x92-0x93 (1)
          |                                               |                |                  [9]{}: signature_algorithm 0x93-0x95 (2)
  0x000009|         03                                    |   .            |                    hash: "sha224" (3) 0x93-0x94 (1)
  0x000009|            01                                 |    .           |                    signature: "rsa" (1) 0x94-0x95 (1)
          |                                               |                |                  [10]{}: signature_algorithm 0x95-0x97 (2)
  0x000009|               03                              |     .          |                    hash: "sha224" (3) 0x95-0x96 (1)
  0x000009|                  02                           |      .         |                    signature: "dsa" (2) 0x96-0x97 (1)
          |                                               |                |                  [11]{}: signature_algorithm 0x97-0x99 (2)
  0x000009|                     03                        |       .        |                    hash: "sha224" (3) 0x97-0x98 (1)
  0x000009|                        03                     |        .       |                    signature: "ecdsa" (3) 0x98-0x99 (1)
          |                                               |                |                  [12]{}: signature_algorithm 0x99-0x9b (2)
  0x000009|                           02                  |         .      |                    hash: "sha1" (2) 0x99-0x9a (1)
  0x000009|                              01               |          .     |                    signature: "rsa" (1) 0x9a-0x9b (1)
          |                                               |                |                  [13]{}: signature_algorithm 0x9b-0x9d (2)
  0x000009|                                 02            |           .    |                    hash: "sha1" (2) 0x9b-0x9c (1)
  0x000009|                                    02         |            .   |                    signature: "dsa" (2) 0x9c-0x9d (1)
          |                                               |                |                  [14]{}: signature_algorithm 0x9d-0x9f (2)
  0x000009|                                       02      |             .  |                    hash: "sha1" (2) 0x9d-0x9e (1)
  0x000009|                                          03   |              . |                    signature: "ecdsa" (3) 0x9e-0x9f (1)
          |                                               |                |                  [15]{}: signature_algorithm 0x9f-0xa1 (2)
  0x000009|                                             01|               .|                    hash: "md5" (1) 0x9f-0xa0 (1)
  0x00000a|01                                             |.               |                    signature: "rsa" (1) 0xa0-0xa1 (1)
          |                                               |                |              [4]{}: extension 0xa1-0xa6 (5)
  0x00000a|   00 0f                                       | ..             |                type: "heartbeat" (15) 0xa1-0xa3 (2)
  0x00000a|         00 01                                 |   ..           |                length: 1 0xa3-0xa5 (2)
  0x00000a|               01                              |     .          |                data: raw bits 0xa5-0xa6 (1)
          |                                               |                |        [1]{}: record 0xa6-0x111 (107)
  0x00000a|                  16                           |      .         |          type: "handshake" (22) (valid) 0xa6-0xa7 (1)
  0x00000a|                     03 03                     |       ..       |          version: "tls1.2" (0x303) (valid) 0xa7-0xa9 (2)
  0x00000a|                           00 66               |         .f     |          length: 102 0xa9-0xab (2)
          |                                               |                |          message{}: 0xab-0x111 (102)
  0x00000a|                                 10            |           .    |            type: "client_key_exchange" (16) 0xab-0xac (1)
  0x00000a|                                    00 00 62   |            ..b |            length: 98 0xac-0xaf (3)
          |                                               |                |            public{}: 0xaf-0xaf (0)
  0x00000a|                                             61|               a|              length: 97 0xaf-0xb0 (1)
  0x00000b|04 7c d4 cf d2 79 87 9f 57 09 bd 7d 31 1c d3 da|.|...y..W..}1...|              data: raw bits 0xb0-0x111 (97)
  *       |until 0x110.7 (97)                             |                |
          |                                               |                |        [2]{}: record 0x111-0x117 (6)
  0x000011|   14                                          | .              |          type: "change_cipher_spec" (20) (valid) 0x111-0x112 (1)
  0x000011|      03 03                                    |  ..            |          version: "tls1.2" (0x303) (valid) 0x112-0x114 (2)
  0x000011|            00 01                              |    ..          |          length: 1 0x114-0x116 (2)
          |                                               |                |          message{}: 0x116-0x117 (1)
  0x000011|                  01                           |      .         |            type: 1 0x116-0x117 (1)
          |                                               |                |        [3]{}: record 0x117-0x14d (54)
  0x000011|                     16                        |       .        |          type: "handshake" (22) (valid) 0x117-0x118 (1)
  0x000011|                        03 03                  |        ..      |          version: "tls1.2" (0x303) (valid) 0x118-0x11a (2)
  0x000011|                              00 31            |          .1    |          length: 49 0x11a-0x11c (2)
  0x000011|                                    a3 46 b8 85|            .F..|          encrypted_data: raw bits 0x11c-0x14d (49)
  0x000012|4d 2f 62 57 fe 37 92 6c c5 3a 82 a1 9c eb 4d d6|M/bW.7.l.:....M.|
  *       |until 0x14c.7 (49)                             |                |
          |00 01 02 03 04 05 06 07 08 09 0a 0b 0c 0d 0e 0f|0123456789abcdef|          message{}: 0x0-0x10 (16)
    0x0000|14                                             |.               |            type: "finished" (20) 0x0-0x1 (1)
    0x0000|   00 00 0c                                    | ...            |            length: 12 0x1-0x4 (3)
    0x0000|            e1 0f 0a be 68 9c 93 01 76 45 16 f8|    ....h...vE..|            verify_data: raw bits 0x4-0x10 (12)
          |                                               |                |        [4]{}: record 0x14d-0x182 (53)
  0x000014|                                       17      |             .  |          type: "application_data" (23) (valid) 0x14d-0x14e (1)
  0x000014|                                          03 03|              ..|          version: "tls1.2" (0x303) (valid) 0x14e-0x150 (2)
  0x000015|00 30                                          |.0              |          length: 48 0x150-0x152 (2)
  0x000015|      a3 46 b8 85 4d 2f 62 58 38 af 47 8e 78 b2|  .F..M/bX8.G.x.|          encrypted_data: raw bits 0x152-0x182 (48)
  0x000016|86 72 6f 6a cb bc f2 db c6 5e a4 16 d9 c5 c0 04|.roj.....^......|
  *       |until 0x181.7 (48)                             |                |
          |00 01 02 03 04 05 06 07 08 09 0a 0b 0c 0d 0e 0f|0123456789abcdef|
    0x0000|47 45 54 20 2f 20 48 54 54 50 2f 31 2e 30 0d 0a|GET / HTTP/1.0..|          message: raw bits 0x0-0x12 (18)
    0x0000|0d 0a|                                         |..|             |
          |                                               |                |        [5]{}: record 0x182-0x1a7 (37)
  0x000018|      15                                       |  .             |          type: "alert" (21) (valid) 0x182-0x183 (1)
  0x000018|         03 03                                 |   ..           |          version: "tls1.2" (0x303) (valid) 0x183-0x185 (2)
  0x000018|               00 20                           |     .          |          length: 32 0x185-0x187 (2)
  0x000018|                     a3 46 b8 85 4d 2f 62 59 ea|       .F..M/bY.|          encrypted_data: raw bits 0x187-0x1a7 (32)
  0x000019|11 e6 05 99 f9 5a 60 5e 57 02 72 27 79 92 27 bf|.....Z`^W.r'y.'.|
  0x00001a|cb c3 f4 3e 69 77 69|                          |...>iwi|        |
          |00 01 02 03 04 05 06 07 08 09 0a 0b 0c 0d 0e 0f|0123456789abcdef|          message{}: 0x0-0x2 (2)
    0x0000|01                                             |.               |            level: "warning" (1) 0x0-0x1 (1)
    0x0000|   00|                                         | .|             |            description: "close_notify" (0) 0x1-0x2 (1)
          |00 01 02 03 04 05 06 07 08 09 0a 0b 0c 0d 0e 0f|0123456789abcdef|
    0x0000|47 45 54 20 2f 20 48 54 54 50 2f 31 2e 30 0d 0a|GET / HTTP/1.0..|      stream: raw bits 0x0-0x12 (18)
    0x0000|0d 0a|                                         |..|             |
          |                                               |                |  server{}: 0xd16-0xd16 (0)
          |                                               |                |    ip: "127.0.0.1"
          |                                               |                |    port: 4432
          |                                               |                |    has_start: true
          |                                               |                |    has_end: true
          |                                               |                |    skipped_bytes: 0
          |00 01 02 03 04 05 06 07 08 09 0a 0b 0c 0d 0e 0f|0123456789abcdef|    stream{}: (tls) 0x0-0x757 (1879)
          |                                               |                |      records[0:7]: 0x0-0x757 (1879)
          |                                               |                |        [0]{}: record 0x0-0x47 (71)
  0x000000|16                                             |.               |          type: "handshake" (22) (valid) 0x0-0x1 (1)
  0x000000|   03 03                                       | ..             |          version: "tls1.2" (0x303) (valid) 0x1-0x3 (2)
  0x000000|         00 42                                 |   .B           |          length: 66 0x3-0x5 (2)
          |                                               |                |          message{}: 0x5-0x47 (66)
  0x000000|               02                              |     .          |            type: "server_hello" (2) 0x5-0x6 (1)
  0x000000|                  00 00 3e                     |      ..>       |            length: 62 0x6-0x9 (3)
  0x000000|                           03 03               |         ..     |            version: "tls1.2" (0x303) 0x9-0xb (2)
          |                                               |                |            random{}: 0xb-0x2b (32)
  0x000000|                                 52 36 2c 10   |           R6,. |              gmt_unix_time: 1379281936 (2013-09-15T21:52:16Z) 0xb-0xf (4)
  0x000000|                                             ba|               .|              random_bytes: raw bits 0xf-0x2b (28)
  0x000001|0c 1f 83 6b c3 78 c6 5f 21 bb 4a b9 31 6f ba bf|...k.x._!.J.1o..|
  0x000002|ba a2 0a ac f7 6a 61 c3 ab 2b 88               |.....ja..+.     |
  0x000002|                                 00            |           .    |            session_id_length: 0 0x2b-0x2c (1)
          |                                               |                |            session_id: raw bits 0x2c-0x2c (0)
  0x000002|                                    c0 32      |            .2  |            cipher_suit: "TLS_ECDH_RSA_WITH_AES_256_GCM_SHA384" (0xc032) 0x2c-0x2e (2)
  0x000002|                                          01   |              . |            compression_method: "deflate" (0x1) 0x2e-0x2f (1)
  0x000002|                                             00|               .|            extensions_length: 22 0x2f-0x31 (2)
  0x000003|16                                             |.               |
          |                                               |                |            extensions[0:4]: 0x31-0x47 (22)
          |                                               |                |              [0]{}: extension 0x31-0x36 (5)
  0x000003|   ff 01                                       | ..             |                type: "renegotiation_info" (65281) 0x31-0x33 (2)
  0x000003|         00 01                                 |   ..           |                length: 1 0x33-0x35 (2)
  0x000003|               00                              |     .          |                data: raw bits 0x35-0x36 (1)
          |                                               |                |              [1]{}: extension 0x36-0x3e (8)
  0x000003|                  00 0b                        |      ..        |                type: "ec_point_formats" (11) 0x36-0x38 (2)
  0x000003|                        00 04                  |        ..      |                length: 4 0x38-0x3a (2)
  0x000003|                              03               |          .     |                ex_points_formats_length: 3 0x3a-0x3b (1)
          |                                               |                |                ex_points_formats[0:3]: 0x3b-0x3e (3)
  0x000003|                                 00            |           .    |                  [0]: 0x0 ex_points_format 0x3b-0x3c (1)
  0x000003|                                    01         |            .   |                  [1]: 0x1 ex_points_format 0x3c-0x3d (1)
  0x000003|                                       02      |             .  |                  [2]: 0x2 ex_points_format 0x3d-0x3e (1)
          |                                               |                |              [2]{}: extension 0x3e-0x42 (4)
  0x000003|                                          00 23|              .#|                type: "session_ticket" (35) 0x3e-0x40 (2)
  0x000004|00 00                                          |..              |                length: 0 0x40-0x42 (2)
          |                                               |                |              [3]{}: extension 0x42-0x47 (5)
  0x000004|      00 0f                                    |  ..            |                type: "heartbeat" (15) 0x42-0x44 (2)
  0x000004|            00 01                              |    ..          |                length: 1 0x44-0x46 (2)
  0x000004|                  01                           |      .         |                data: raw bits 0x46-0x47 (1)
          |                                               |                |        [1]{}: record 0x47-0x1df (408)
  0x000004|                     16                        |       .        |          type: "handshake" (22) (valid) 0x47-0x48 (1)
  0x000004|                        03 03                  |        ..      |          version: "tls1.2" (0x303) (valid) 0x48-0x4a (2)
  0x000004|                              01 93            |          ..    |          length: 403 0x4a-0x4c (2)
          |                                               |                |          message{}: 0x4c-0x1df (403)
  0x000004|                                    0b         |            .   |            type: "certificate" (11) 0x4c-0x4d (1)
  0x000004|                                       00 01 8f|             ...|            length: 399 0x4d-0x50 (3)
  0x000005|00 01 8c                                       |...             |            certificates_length: 396 0x50-0x53 (3)
          |                                               |                |            certificates[0:1]: 0x53-0x1df (396)
          |                                               |                |              [0]{}: certificate 0x53-0x1df (396)
  0x000005|         00 01 89                              |   ...          |                length: 393 0x53-0x56 (3)
          |00 01 02 03 04 05 06 07 08 09 0a 0b 0c 0d 0e 0f|0123456789abcdef|                data{}: (asn1_ber) 0x56-0x1df (393)
  0x000005|                  30                           |      0         |                  class: "universal" (0) 0x56-0x56.2 (0.2)
  0x000005|                  30                           |      0         |                  form: "constructed" (1) 0x56.2-0x56.3 (0.1)
  0x000005|                  30                           |      0         |                  tag: "sequence" (0x10) 0x56.3-0x57 (0.5)
  0x000005|                     82 01 85                  |       ...      |                  length: 389 0x57-0x5a (3)
          |                                               |                |                  constructed[0:3]: 0x5a-0x1df (389)
          |                                               |                |                    [0]{}: object 0x5a-0x14c (242)
  0x000005|                              30               |          0     |                      class: "universal" (0) 0x5a-0x5a.2 (0.2)
  0x000005|                              30               |          0     |                      form: "constructed" (1) 0x5a.2-0x5a.3 (0.1)
  0x000005|                              30               |          0     |                      tag: "sequence" (0x10) 0x5a.3-0x5b (0.5)
  0x000005|                                 81 ef         |           ..   |                      length: 239 0x5b-0x5d (2)
          |                                               |                |                      constructed[0:6]: 0x5d-0x14c (239)
          |                                               |                |                        [0]{}: object 0x5d-0x62 (5)
  0x000005|                                       02      |             .  |                          class: "universal" (0) 0x5d-0x5d.2 (0.2)
  0x000005|                                       02      |             .  |                          form: "primitive" (0) 0x5d.2-0x5d.3 (0.1)
  0x000005|                                       02      |             .  |                          tag: "integer" (0x2) 0x5d.3-0x5e (0.5)
  0x000005|                                          03   |              . |                          length: 3 0x5e-0x5f (1)
  0x000005|                                             01|               .|                          value: 129423 0x5f-0x62 (3)
  0x000006|f9 8f                                          |..              |
          |                                               |                |                        [1]{}: object 0x62-0x71 (15)
  0x000006|      30                                       |  0             |                          class: "universal" (0) 0x62-0x62.2 (0.2)
  0x000006|      30                                       |  0             |                          form: "constructed" (1) 0x62.2-0x62.3 (0.1)
  0x000006|      30                                       |  0             |                          tag: "sequence" (0x10) 0x62.3-0x63 (0.5)
  0x000006|         0d                                    |   .            |                          length: 13 0x63-0x64 (1)
          |                                               |                |                          constructed[0:2]: 0x64-0x71 (13)
          |                                               |                |                            [0]{}: object 0x64-0x6f (11)
  0x000006|            06                                 |    .           |                              class: "universal" (0) 0x64-0x64.2 (0.2)
  0x000006|            06                                 |    .           |                              form: "primitive" (0) 0x64.2-0x64.3 (0.1)
  0x000006|            06                                 |    .           |                              tag: "object_identifier" (0x6) 0x64.3-0x65 (0.5)
  0x000006|               09                              |     .          |                              length: 9 0x65-0x66 (1)
          |                                               |                |                              value[0:7]: 0x66-0x6f (9)
  0x000006|                  2a                           |      *         |                                [0]: 1 oid 0x66-0x67 (1)
  0x000006|                  2a                           |      *         |                                [1]: 2 oid 0x66-0x67 (1)
  0x000006|                     86 48                     |       .H       |                                [2]: 840 oid 0x67-0x69 (2)
  0x000006|                           86 f7 0d            |         ...    |                                [3]: 113549 oid 0x69-0x6c (3)
  0x000006|                                    01         |            .   |                                [4]: 1 oid 0x6c-0x6d (1)
  0x000006|                                       01      |             .  |                                [5]: 1 oid 0x6d-0x6e (1)
  0x000006|                                          05   |              . |                                [6]: 5 oid 0x6e-0x6f (1)
          |                                               |                |                            [1]{}: object 0x6f-0x71 (2)
  0x000006|                                             05|               .|                              class: "universal" (0) 0x6f-0x6f.2 (0.2)
  0x000006|                                             05|               .|                              form: "primitive" (0) 0x6f.2-0x6f.3 (0.1)
  0x000006|                                             05|               .|                              tag: "null" (0x5) 0x6f.3-0x70 (0.5)
  0x000007|00                                             |.               |                              length: "indefinite" (0) 0x70-0x71 (1)
          |                                               |                |                              value: null
          |                                               |                |                        [2]{}: object 0x71-0x92 (33)
  0x000007|   30                                          | 0              |                          class: "universal" (0) 0x71-0x71.2 (0.2)
  0x000007|   30                                          | 0              |                          form: "constructed" (1) 0x71.2-0x71.3 (0.1)
  0x000007|   30                                          | 0              |                          tag: "sequence" (0x10) 0x71.3-0x72 (0.5)
  0x000007|      1f                                       |  .             |                          length: 31 0x72-0x73 (1)
          |                                               |                |                          constructed[0:1]: 0x73-0x92 (31)
          |                                               |                |                            [0]{}: object 0x73-0x92 (31)
  0x000007|         31                                    |   1            |                              class: "universal" (0) 0x73-0x73.2 (0.2)
  0x000007|         31                                    |   1            |                              form: "constructed" (1) 0x73.2-0x73.3 (0.1)
  0x000007|         31                                    |   1            |                              tag: "set" (0x11) 0x73.3-0x74 (0.5)
  0x000007|            1d                                 |    .           |                              length: 29 0x74-0x75 (1)
          |                                               |                |                              constructed[0:1]: 0x75-0x92 (29)
          |                                               |                |                                [0]{}: object 0x75-0x92 (29)
  0x000007|               30                              |     0          |                                  class: "universal" (0) 0x75-0x75.2 (0.2)
  0x000007|               30                              |     0          |                                  form: "constructed" (1) 0x75.2-0x75.3 (0.1)
  0x000007|               30                              |     0          |                                  tag: "sequence" (0x10) 0x75.3-0x76 (0.5)
  0x000007|                  1b                           |      .         |                                  length: 27 0x76-0x77 (1)
          |                                               |                |                                  constructed[0:2]: 0x77-0x92 (27)
          |                                               |                |                                    [0]{}: object 0x77-0x7c (5)
  0x000007|                     06                        |       .        |                                      class: "universal" (0) 0x77-0x77.2 (0.2)
  0x000007|                     06                        |       .        |                                      form: "primitive" (0) 0x77.2-0x77.3 (0.1)
  0x000007|                     06                        |       .        |                                      tag: "object_identifier" (0x6) 0x77.3-0x78 (0.5)
  0x000007|                        03                     |        .       |                                      length: 3 0x78-0x79 (1)
          |                                               |                |                                      value[0:4]: 0x79-0x7c (3)
  0x000007|                           55                  |         U      |                                        [0]: 2 oid 0x79-0x7a (1)
  0x000007|                           55                  |         U      |                                        [1]: 5 oid 0x79-0x7a (1)
  0x000007|                              04               |          .     |                                        [2]: 4 oid 0x7a-0x7b (1)
  0x000007|                                 03            |           .    |                                        [3]: 3 oid 0x7b-0x7c (1)
          |                                               |                |                                    [1]{}: object 0x7c-0x92 (22)
  0x000007|                                    0c         |            .   |                                      class: "universal" (0) 0x7c-0x7c.2 (0.2)
  0x000007|                                    0c         |            .   |                                      form: "primitive" (0) 0x7c.2-0x7c.3 (0.1)
  0x000007|                                    0c         |            .   |                                      tag: "utf8_string" (0xc) 0x7c.3-0x7d (0.5)
  0x000007|                                       14      |             .  |                                      length: 20 0x7d-0x7e (1)
  0x000007|                                          54 65|              Te|                                      value: "Test Certificate RSA" 0x7e-0x92 (20)
  0x000008|73 74 20 43 65 72 74 69 66 69 63 61 74 65 20 52|st Certificate R|
  0x000009|53 41                                          |SA              |
          |                                               |                |                        [3]{}: object 0x92-0xb2 (32)
  0x000009|      30                                       |  0             |                          class: "universal" (0) 0x92-0x92.2 (0.2)
  0x000009|      30                                       |  0             |                          form: "constructed" (1) 0x92.2-0x92.3 (0.1)
  0x000009|      30                                       |  0             |                          tag: "sequence" (0x10) 0x92.3-0x93 (0.5)
  0x000009|         1e                                    |   .            |                          length: 30 0x93-0x94 (1)
          |                                               |                |                          constructed[0:2]: 0x94-0xb2 (30)
          |                                               |                |                            [0]{}: object 0x94-0xa3 (15)
  0x000009|            17                                 |    .           |                              class: "universal" (0) 0x94-0x94.2 (0.2)
  0x000009|            17                                 |    .           |                              form: "primitive" (0) 0x94.2-0x94.3 (0.1)
  0x000009|            17                                 |    .           |                              tag: "utc_time" (0x17) 0x94.3-0x95 (0.5)
  0x000009|               0d                              |     .          |                              length: 13 0x95-0x96 (1)
  0x000009|                  31 33 30 39 31 35 32 31 35 31|      1309152151|                              value: "130915215110Z" 0x96-0xa3 (13)
  0x00000a|31 30 5a                                       |10Z             |
          |                                               |                |                            [1]{}: object 0xa3-0xb2 (15)
  0x00000a|         17                                    |   .            |                              class: "universal" (0) 0xa3-0xa3.2 (0.2)
  0x00000a|         17                                    |   .            |                              form: "primitive" (0) 0xa3.2-0xa3.3 (0.1)
  0x00000a|         17                                    |   .            |                              tag: "utc_time" (0x17) 0xa3.3-0xa4 (0.5)
  0x00000a|            0d                                 |    .           |                              length: 13 0xa4-0xa5 (1)
  0x00000a|               32 33 30 39 31 33 32 31 35 31 31|     23091321511|                              value: "230913215110Z" 0xa5-0xb2 (13)
  0x00000b|30 5a                                          |0Z              |
          |                                               |                |                        [4]{}: object 0xb2-0xd4 (34)
  0x00000b|      30                                       |  0             |                          class: "universal" (0) 0xb2-0xb2.2 (0.2)
  0x00000b|      30                                       |  0             |                          form: "constructed" (1) 0xb2.2-0xb2.3 (0.1)
  0x00000b|      30                                       |  0             |                          tag: "sequence" (0x10) 0xb2.3-0xb3 (0.5)
  0x00000b|         20                                    |                |                          length: 32 0xb3-0xb4 (1)
          |                                               |                |                          constructed[0:1]: 0xb4-0xd4 (32)
          |                                               |                |                            [0]{}: object 0xb4-0xd4 (32)
  0x00000b|            31                                 |    1           |                              class: "universal" (0) 0xb4-0xb4.2 (0.2)
  0x00000b|            31                                 |    1           |                              form: "constructed" (1) 0xb4.2-0xb4.3 (0.1)
  0x00000b|            31                                 |    1           |                              tag: "set" (0x11) 0xb4.3-0xb5 (0.5)
  0x00000b|               1e                              |     .          |                              length: 30 0xb5-0xb6 (1)
          |                                               |                |                              constructed[0:1]: 0xb6-0xd4 (30)
          |                                               |                |                                [0]{}: object 0xb6-0xd4 (30)
  0x00000b|                  30                           |      0         |                                  class: "universal" (0) 0xb6-0xb6.2 (0.2)
  0x00000b|                  30                           |      0         |                                  form: "constructed" (1) 0xb6.2-0xb6.3 (0.1)
  0x00000b|                  30                           |      0         |                                  tag: "sequence" (0x10) 0xb6.3-0xb7 (0.5)
  0x00000b|                     1c                        |       .        |                                  length: 28 0xb7-0xb8 (1)
          |                                               |                |                                  constructed[0:2]: 0xb8-0xd4 (28)
          |                                               |                |                                    [0]{}: object 0xb8-0xbd (5)
  0x00000b|                        06                     |        .       |                                      class: "universal" (0) 0xb8-0xb8.2 (0.2)
  0x00000b|                        06                     |        .       |                                      form: "primitive" (0) 0xb8.2-0xb8.3 (0.1)
  0x00000b|                        06                     |        .       |                                      tag: "object_identifier" (0x6) 0xb8.3-0xb9 (0.5)
  0x00000b|                           03                  |         .      |                                      length: 3 0xb9-0xba (1)
          |                                               |                |                                      value[0:4]: 0xba-0xbd (3)
  0x00000b|                              55               |          U     |                                        [0]: 2 oid 0xba-0xbb (1)
  0x00000b|                              55               |          U     |                                        [1]: 5 oid 0xba-0xbb (1)
  0x00000b|                                 04            |           .    |                                        [2]: 4 oid 0xbb-0xbc (1)
  0x00000b|                                    03         |            .   |                                        [3]: 3 oid 0xbc-0xbd (1)
          |                                               |                |                                    [1]{}: object 0xbd-0xd4 (23)
  0x00000b|                                       0c      |             .  |                                      class: "universal" (0) 0xbd-0xbd.2 (0.2)
  0x00000b|                                       0c      |             .  |                                      form: "primitive" (0) 0xbd.2-0xbd.3 (0.1)
  0x00000b|                                       0c      |             .  |                                      tag: "utf8_string" (0xc) 0xbd.3-0xbe (0.5)
  0x00000b|                                          15   |              . |                                      length: 21 0xbe-0xbf (1)
  0x00000b|                                             54|               T|                                      value: "Test Certificate ECDH" 0xbf-0xd4 (21)
  0x00000c|65 73 74 20 43 65 72 74 69 66 69 63 61 74 65 20|est Certificate |
  0x00000d|45 43 44 48                                    |ECDH            |
          |                                               |                |                        [5]{}: object 0xd4-0x14c (120)
  0x00000d|            30                                 |    0           |                          class: "universal" (0) 0xd4-0xd4.2 (0.2)
  0x00000d|            30                                 |    0           |                          form: "constructed" (1) 0xd4.2-0xd4.3 (0.1)
  0x00000d|            30                                 |    0           |                          tag: "sequence" (0x10) 0xd4.3-0xd5 (0.5)
  0x00000d|               76                              |     v          |                          length: 118 0xd5-0xd6 (1)
          |                                               |                |                          constructed[0:2]: 0xd6-0x14c (118)
          |                                               |                |                            [0]{}: object 0xd6-0xe8 (18)
  0x00000d|                  30                           |      0         |                              class: "universal" (0) 0xd6-0xd6.2 (0.2)
  0x00000d|                  30                           |      0         |                              form: "constructed" (1) 0xd6.2-0xd6.3 (0.1)
  0x00000d|                  30                           |      0         |                              tag: "sequence" (0x10) 0xd6.3-0xd7 (0.5)
  0x00000d|                     10                        |       .        |                              length: 16 0xd7-0xd8 (1)
          |                                               |                |                              constructed[0:2]: 0xd8-0xe8 (16)
          |                                               |                |                                [0]{}: object 0xd8-0xe1 (9)
  0x00000d|                        06                     |        .       |                                  class: "universal" (0) 0xd8-0xd8.2 (0.2)
  0x00000d|                        06                     |        .       |                                  form: "primitive" (0) 0xd8.2-0xd8.3 (0.1)
  0x00000d|                        06                     |        .       |                                  tag: "object_identifier" (0x6) 0xd8.3-0xd9 (0.5)
  0x00000d|                           07                  |         .      |                                  length: 7 0xd9-0xda (1)
          |                                               |                |                                  value[0:6]: 0xda-0xe1 (7)
  0x00000d|                              2a               |          *     |                                    [0]: 1 oid 0xda-0xdb (1)
  0x00000d|                              2a               |          *     |                                    [1]: 2 oid 0xda-0xdb (1)
  0x00000d|                                 86 48         |           .H   |                                    [2]: 840 oid 0xdb-0xdd (2)
  0x00000d|                                       ce 3d   |             .= |                                    [3]: 10045 oid 0xdd-0xdf (2)
  0x00000d|                                             02|               .|                                    [4]: 2 oid 0xdf-0xe0 (1)
  0x00000e|01                                             |.               |                                    [5]: 1 oid 0xe0-0xe1 (1)
          |                                               |                |                                [1]{}: object 0xe1-0xe8 (7)
  0x00000e|   06                                          | .              |                                  class: "universal" (0) 0xe1-0xe1.2 (0.2)
  0x00000e|   06                                          | .              |                                  form: "primitive" (0) 0xe1.2-0xe1.3 (0.1)
  0x00000e|   06                                          | .              |                                  tag: "object_identifier" (0x6) 0xe1.3-0xe2 (0.5)
  0x00000e|      05                                       |  .             |                                  length: 5 0xe2-0xe3 (1)
          |                                               |                |                                  value[0:5]: 0xe3-0xe8 (5)
  0x00000e|         2b                                    |   +            |                                    [0]: 1 oid 0xe3-0xe4 (1)
  0x00000e|         2b                                    |   +            |                                    [1]: 3 oid 0xe3-0xe4 (1)
  0x00000e|            81 04                              |    ..          |                                    [2]: 132 oid 0xe4-0xe6 (2)
  0x00000e|                  00                           |      .         |                                    [3]: 0 oid 0xe6-0xe7 (1)
  0x00000e|                     22                        |       "        |                                    [4]: 34 oid 0xe7-0xe8 (1)
          |                                               |                |                            [1]{}: object 0xe8-0x14c (100)
  0x00000e|                        03                     |        .       |                              class: "universal" (0) 0xe8-0xe8.2 (0.2)
  0x00000e|                        03                     |        .       |                              form: "primitive" (0) 0xe8.2-0xe8.3 (0.1)
  0x00000e|                        03                     |        .       |                              tag: "bit_string" (0x3) 0xe8.3-0xe9 (0.5)
  0x00000e|                           62                  |         b      |                              length: 98 0xe9-0xea (1)
  0x00000e|                              00               |          .     |                              unused_bits_count: 0 0xea-0xeb (1)
  0x00000e|                                 04 04 cb f7 cc|           .....|                              value: raw bits 0xeb-0x14c (97)
  0x00000f|46 9f 58 43 7a 95 21 a2 57 84 8f 6c eb c9 45 28|F.XCz.!.W..l..E(|
  *       |until 0x14b.7 (97)                             |                |
          |                                               |                |                    [1]{}: object 0x14c-0x15b (15)
  0x000014|                                    30         |            0   |                      class: "universal" (0) 0x14c-0x14c.2 (0.2)
  0x000014|                                    30         |            0   |                      form: "constructed" (1) 0x14c.2-0x14c.3 (0.1)
  0x000014|                                    30         |            0   |                      tag: "sequence" (0x10) 0x14c.3-0x14d (0.5)
  0x000014|                                       0d      |             .  |                      length: 13 0x14d-0x14e (1)
          |                                               |                |                      constructed[0:2]: 0x14e-0x15b (13)
          |                                               |                |                        [0]{}: object 0x14e-0x159 (11)
  0x000014|                                          06   |              . |                          class: "universal" (0) 0x14e-0x14e.2 (0.2)
  0x000014|                                          06   |              . |                          form: "primitive" (0) 0x14e.2-0x14e.3 (0.1)
  0x000014|                                          06   |              . |                          tag: "object_identifier" (0x6) 0x14e.3-0x14f (0.5)
  0x000014|                                             09|               .|                          length: 9 0x14f-0x150 (1)
          |                                               |                |                          value[0:7]: 0x150-0x159 (9)
  0x000015|2a                                             |*               |                            [0]: 1 oid 0x150-0x151 (1)
  0x000015|2a                                             |*               |                            [1]: 2 oid 0x150-0x151 (1)
  0x000015|   86 48                                       | .H             |                            [2]: 840 oid 0x151-0x153 (2)
  0x000015|         86 f7 0d                              |   ...          |                            [3]: 113549 oid 0x153-0x156 (3)
  0x000015|                  01                           |      .         |                            [4]: 1 oid 0x156-0x157 (1)
  0x000015|                     01                        |       .        |                            [5]: 1 oid 0x157-0x158 (1)
  0x000015|                        05                     |        .       |                            [6]: 5 oid 0x158-0x159 (1)
          |                                               |                |                        [1]{}: object 0x159-0x15b (2)
  0x000015|                           05                  |         .      |                          class: "universal" (0) 0x159-0x159.2 (0.2)
  0x000015|                           05                  |         .      |                          form: "primitive" (0) 0x159.2-0x159.3 (0.1)
  0x000015|                           05                  |         .      |                          tag: "null" (0x5) 0x159.3-0x15a (0.5)
  0x000015|                              00               |          .     |                          length: "indefinite" (0) 0x15a-0x15b (1)
          |                                               |                |                          value: null
          |                                               |                |                    [2]{}: object 0x15b-0x1df (132)
  0x000015|                                 03            |           .    |                      class: "universal" (0) 0x15b-0x15b.2 (0.2)
  0x000015|                                 03            |           .    |                      form: "primitive" (0) 0x15b.2-0x15b.3 (0.1)
  0x000015|                                 03            |           .    |                      tag: "bit_string" (0x3) 0x15b.3-0x15c (0.5)
  0x000015|                                    81 81      |            ..  |                      length: 129 0x15c-0x15e (2)
  0x000015|                                          00   |              . |                      unused_bits_count: 0 0x15e-0x15f (1)
  0x000015|                                             51|               Q|                      value: raw bits 0x15f-0x1df (128)
  0x000016|f1 72 36 6b 46 bb 3a fd 03 28 f9 69 2e 48 4c 8a|.r6kF.:..(.i.HL.|
  *       |until 0x1de.7 (128)                            |                |
          |                                               |                |        [2]{}: record 0x1df-0x1e8 (9)
  0x00001d|                                             16|               .|          type: "handshake" (22) (valid) 0x1df-0x1e0 (1)
  0x00001e|03 03                                          |..              |          version: "tls1.2" (0x303) (valid) 0x1e0-0x1e2 (2)
  0x00001e|      00 04                                    |  ..            |          length: 4 0x1e2-0x1e4 (2)
          |                                               |                |          message{}: 0x1e4-0x1e8 (4)
  0x00001e|            0e                                 |    .           |            type: "server_hello_done" (14) 0x1e4-0x1e5 (1)
  0x00001e|               00 00 00                        |     ...        |            length: 0 0x1e5-0x1e8 (3)
          |                                               |                |            data: raw bits 0x1e8-0x1e8 (0)
          |                                               |                |        [3]{}: record 0x1e8-0x297 (175)
  0x00001e|                        16                     |        .       |          type: "handshake" (22) (valid) 0x1e8-0x1e9 (1)
  0x00001e|                           03 03               |         ..     |          version: "tls1.2" (0x303) (valid) 0x1e9-0x1eb (2)
  0x00001e|                                 00 aa         |           ..   |          length: 170 0x1eb-0x1ed (2)
          |                                               |                |          message{}: 0x1ed-0x297 (170)
  0x00001e|                                       04      |             .  |            type: "new_session_ticket" (4) 0x1ed-0x1ee (1)
  0x00001e|                                          00 00|              ..|            length: 166 0x1ee-0x1f1 (3)
  0x00001f|a6                                             |.               |
  0x00001f|   00 00 01 2c                                 | ...,           |            lifetime_hint: 300 0x1f1-0x1f5 (4)
  0x00001f|               00 a0                           |     ..         |            ticket_length: 160 0x1f5-0x1f7 (2)
  0x00001f|                     24 d5 3a fb 86 57 2c 82 fd|       $.:..W,..|            ticket: raw bits 0x1f7-0x297 (160)
  0x000020|03 3b 84 63 3f e2 3f 91 5c d9 78 f3 eb 41 9c f9|.;.c?.?.\.x..A..|
  *       |until 0x296.7 (160)                            |                |
          |                                               |                |        [4]{}: record 0x297-0x29d (6)
  0x000029|                     14                        |       .        |          type: "change_cipher_spec" (20) (valid) 0x297-0x298 (1)
  0x000029|                        03 03                  |        ..      |          version: "tls1.2" (0x303) (valid) 0x298-0x29a (2)
  0x000029|                              00 01            |          ..    |          length: 1 0x29a-0x29c (2)
          |                                               |                |          message{}: 0x29c-0x29d (1)
  0x000029|                                    01         |            .   |            type: 1 0x29c-0x29d (1)
          |                                               |                |        [5]{}: record 0x29d-0x2d3 (54)
  0x000029|                                       16      |             .  |          type: "handshake" (22) (valid) 0x29d-0x29e (1)
  0x000029|                                          03 03|              ..|          version: "tls1.2" (0x303) (valid) 0x29e-0x2a0 (2)
  0x00002a|00 31                                          |.1              |          length: 49 0x2a0-0x2a2 (2)
  0x00002a|      8d f5 0a c6 37 4a 28 cc 04 3c d7 c1 80 8d|  ....7J(..<....|          encrypted_data: raw bits 0x2a2-0x2d3 (49)
  0x00002b|00 e7 1a 9c 85 af 46 9c b6 28 a2 74 c3 96 30 b6|......F..(.t..0.|
  *       |until 0x2d2.7 (49)                             |                |
          |00 01 02 03 04 05 06 07 08 09 0a 0b 0c 0d 0e 0f|0123456789abcdef|          message{}: 0x0-0x10 (16)
    0x0000|14                                             |.               |            type: "finished" (20) 0x0-0x1 (1)
    0x0000|   00 00 0c                                    | ...            |            length: 12 0x1-0x4 (3)
    0x0000|            f5 e9 15 24 e9 6d da a6 5f 7f f2 d2|    ...$.m.._...|            verify_data: raw bits 0x4-0x10 (12)
          |                                               |                |        [6]{}: record 0x2d3-0x757 (1156)
  0x00002d|         17                                    |   .            |          type: "application_data" (23) (valid) 0x2d3-0x2d4 (1)
  0x00002d|            03 03                              |    ..          |          version: "tls1.2" (0x303) (valid) 0x2d4-0x2d6 (2)
  0x00002d|                  04 7f                        |      ..        |          length: 1151 0x2d6-0x2d8 (2)
  0x00002d|                        8d f5 0a c6 37 4a 28 cd|        ....7J(.|          encrypted_data: raw bits 0x2d8-0x757 (1151)
  0x00002e|f7 80 60 cc 70 11 09 5c 84 b2 dd 87 95 bd c2 42|..`.p..\.......B|
  *       |until 0x756.7 (end) (1151)                     |                |
          |00 01 02 03 04 05 06 07 08 09 0a 0b 0c 0d 0e 0f|0123456789abcdef|
    0x0000|48 54 54 50 2f 31 2e 30 20 32 30 30 20 6f 6b 0d|HTTP/1.0 200 ok.|          message: raw bits 0x0-0x1156 (4438)
    *     |until 0x1155.7 (end) (4438)                    |                |
          |00 01 02 03 04 05 06 07 08 09 0a 0b 0c 0d 0e 0f|0123456789abcdef|
    0x0000|48 54 54 50 2f 31 2e 30 20 32 30 30 20 6f 6b 0d|HTTP/1.0 200 ok.|      stream: raw bits 0x0-0x1156 (4438)
    *     |until 0x1155.7 (end) (4438)                    |                |
