# fq 'tobytes[0:.end_marker | tobytesrange.start]' test.tar > no_end_marker.tar
$ fq dv no_end_marker.tar
     |00 01 02 03 04 05 06 07 08 09 0a 0b 0c 0d 0e 0f|0123456789abcdef|.{}: no_end_marker.tar (tar) 0x0-0x400 (1024)
     |                                               |                |  files[0:1]: 0x0-0x400 (1024)
     |                                               |                |    [0]{}: file 0x0-0x400 (1024)
0x000|74 65 73 74 00 00 00 00 00 00 00 00 00 00 00 00|test............|      name: "test" 0x0-0x64 (100)
*    |until 0x63.7 (100)                             |                |
0x060|            30 30 30 36 34 34 20 00            |    000644 .    |      mode: 420 ("000644 ") 0x64-0x6c (8)
0x060|                                    30 30 30 37|            0007|      uid: 501 ("000765 ") 0x6c-0x74 (8)
0x070|36 35 20 00                                    |65 .            |
0x070|            30 30 30 30 32 34 20 00            |    000024 .    |      gid: 20 ("000024 ") 0x74-0x7c (8)
0x070|                                    30 30 30 30|            0000|      size: 6 ("00000000006 ") 0x7c-0x88 (12)
0x080|30 30 30 30 30 30 36 20                        |0000006         |
0x080|                        31 34 31 33 33 36 32 35|        14133625|      mtime: 1634675538 ("14133625522 ") (2021-10-19T20:32:18Z) 0x88-0x94 (12)
0x090|35 32 32 20                                    |522             |
0x090|            30 31 32 32 32 34 00 20            |    012224.     |      chksum: 5268 ("012224") 0x94-0x9c (8)
0x090|                                    30         |            0   |      typeflag: "0" 0x9c-0x9d (1)
0x090|                                       00 00 00|             ...|      linkname: "" 0x9d-0x101 (100)
0x0a0|00 00 00 00 00 00 00 00 00 00 00 00 00 00 00 00|................|
*    |until 0x100.7 (100)                            |                |
0x100|   75 73 74 61 72 00                           | ustar.         |      magic: "ustar" (valid) 0x101-0x107 (6)
0x100|                     30 30                     |       00       |      version: 0 ("00") 0x107-0x109 (2)
0x100|                           77 61 64 65 72 00 00|         wader..|      uname: "wader" 0x109-0x129 (32)
0x110|00 00 00 00 00 00 00 00 00 00 00 00 00 00 00 00|................|
0x120|00 00 00 00 00 00 00 00 00                     |.........       |
0x120|                           73 74 61 66 66 00 00|         staff..|      gname: "staff" 0x129-0x149 (32)
0x130|00 00 00 00 00 00 00 00 00 00 00 00 00 00 00 00|................|
0x140|00 00 00 00 00 00 00 00 00                     |.........       |
0x140|                           30 30 30 30 30 30 20|         000000 |      devmajor: 0 ("000000 ") 0x149-0x151 (8)
0x150|00                                             |.               |
0x150|   30 30 30 30 30 30 20 00                     | 000000 .       |      devminor: 0 ("000000 ") 0x151-0x159 (8)
0x150|                           00 00 00 00 00 00 00|         .......|      prefix: "" 0x159-0x1f4 (155)
0x160|00 00 00 00 00 00 00 00 00 00 00 00 00 00 00 00|................|
*    |until 0x1f3.7 (155)                            |                |
0x1f0|            00 00 00 00 00 00 00 00 00 00 00 00|    ............|      header_block_padding: raw bits (all zero) 0x1f4-0x200 (12)
0x200|68 65 6c 6c 6f 0a                              |hello.          |      data: raw bits 0x200-0x206 (6)
0x200|                  00 00 00 00 00 00 00 00 00 00|      ..........|      data_block_padding: raw bits (all zero) 0x206-0x400 (506)
0x210|00 00 00 00 00 00 00 00 00 00 00 00 00 00 00 00|................|
*    |until 0x3ff.7 (end) (506)                      |                |
