$ fq -d pg_wal "dv" 00000001000000000000004E
      |00 01 02 03 04 05 06 07 08 09 0a 0b 0c 0d 0e 0f|0123456789abcdef|.{}: 00000001000000000000004E (pg_wal) 0x0-0x3fff.7 (16384)
      |                                               |                |  Pages[0:2]: 0x0-0x3fff.7 (16384)
      |                                               |                |    [0]{}: Page 0x0-0x2d17.7 (11544)
      |                                               |                |      XLogPageHeaderData{}: 0x0-0x27.7 (40)
0x0000|0d d1                                          |..              |        xlp_magic: 53517 0x0-0x1.7 (2)
0x0000|      07 00                                    |  ..            |        xlp_info: 7 0x2-0x3.7 (2)
0x0000|            01 00 00 00                        |    ....        |        xlp_tli: 1 0x4-0x7.7 (4)
0x0000|                        00 00 00 4e 00 00 00 00|        ...N....|        xlp_pageaddr: 1308622848 0x8-0xf.7 (8)
0x0010|cd 0f 00 00                                    |....            |        xlp_rem_len: 4045 0x10-0x13.7 (4)
0x0010|            00 00 00 00                        |    ....        |        padding0: 0 0x14-0x17.7 (4)
      |                                               |                |        XLogLongPageHeaderData{}: 0x18-0x27.7 (16)
0x0010|                        bb f9 25 51 64 7c d5 62|        ..%Qd|.b|          xlp_sysid: 7121735156056324539 0x18-0x1f.7 (8)
0x0020|00 00 00 01                                    |....            |          xlp_seg_size: 16777216 0x20-0x23.7 (4)
0x0020|            00 20 00 00                        |    . ..        |          xlp_xlog_blcksz: 8192 0x24-0x27.7 (4)
0x0020|                        74 08 00 10 00 a2 ca 95|        t.......|      raw_bytes_of_prev_wal_file: raw bits 0x28-0xff7.7 (4048)
0x0030|00 00 00 00 00 02 00 a2 74 07 00 10 00 a1 ca 95|........t.......|
*     |until 0xff7.7 (4048)                           |                |
      |                                               |                |      Records[0:1]: 0xff8-0x2d17.7 (7456)
      |                                               |                |        [0]{}: XLogRecord 0xff8-0x2d17.7 (7456)
      |                                               |                |          lsn: "0/4E000FF8" (1308626936) 0xff8-NA (0)
0x0ff0|                        05 1d 00 00            |        ....    |          xl_tot_len: 7429 0xff8-0xffb.7 (4)
0x0ff0|                                    e8 02 00 00|            ....|          xLogBody0: raw bits 0xffc-0x1fff.7 (4100)
0x1000|c8 f2 ff 4d 00 00 00 00 b0 00 00 00 28 0e 9d 77|...M........(..w|
*     |until 0x1fff.7 (4100)                          |                |
0x0ff0|                                    e8 02 00 00|            ....|          xl_xid: 744 0xffc-0xfff.7 (4)
0x1000|c8 f2 ff 4d 00 00 00 00                        |...M....        |          xl_prev: "0/4DFFF2C8" (1308619464) 0x1000-0x1007.7 (8)
0x1000|                        b0                     |        .       |          xl_info: 176 0x1008-0x1008.7 (1)
0x1000|                           00                  |         .      |          xl_rmid: 0 0x1009-0x1009.7 (1)
0x1000|                              00 00            |          ..    |          hole1: 0 0x100a-0x100b.7 (2)
0x1000|                                    28 0e 9d 77|            (..w|          xl_crc: 2006781480 0x100c-0x100f.7 (4)
0x2010|                        74 18 00 10 00 e3 cb 95|        t.......|          xLogBody1: raw bits 0x2018-0x2d17.7 (3328)
0x2020|00 00 00 00 00 02 00 a7 74 17 00 10 00 e2 cb 95|........t.......|
*     |until 0x2d17.7 (3328)                          |                |
      |                                               |                |    [1]{}: Page 0x2000-0x3fff.7 (8192)
      |                                               |                |      XLogPageHeaderData{}: 0x2000-0x2017.7 (24)
0x2000|0d d1                                          |..              |        xlp_magic: 53517 0x2000-0x2001.7 (2)
0x2000|      05 00                                    |  ..            |        xlp_info: 5 0x2002-0x2003.7 (2)
0x2000|            01 00 00 00                        |    ....        |        xlp_tli: 1 0x2004-0x2007.7 (4)
0x2000|                        00 20 00 4e 00 00 00 00|        . .N....|        xlp_pageaddr: 1308631040 0x2008-0x200f.7 (8)
0x2010|fd 0c 00 00                                    |....            |        xlp_rem_len: 3325 0x2010-0x2013.7 (4)
0x2010|            00 00 00 00                        |    ....        |        padding0: 0 0x2014-0x2017.7 (4)
      |                                               |                |      Records[0:1]: 0x2d18-0x3fff.7 (4840)
      |                                               |                |        [0]{}: XLogRecord 0x2d18-0x3fff.7 (4840)
      |                                               |                |          lsn: "0/4E002D18" (1308634392) 0x2d18-NA (0)
0x2d10|                        05 1d 00 00            |        ....    |          xl_tot_len: 7429 0x2d18-0x2d1b.7 (4)
0x2d10|                                    e8 02 00 00|            ....|          xLogBody0: raw bits 0x2d1c-0x3fff.7 (4836)
0x2d20|f8 0f 00 4e 00 00 00 00 b0 00 00 00 14 38 ce 9e|...N.........8..|
*     |until 0x3fff.7 (end) (4836)                    |                |
0x2d10|                                    e8 02 00 00|            ....|          xl_xid: 744 0x2d1c-0x2d1f.7 (4)
0x2d20|f8 0f 00 4e 00 00 00 00                        |...N....        |          xl_prev: "0/4E000FF8" (1308626936) 0x2d20-0x2d27.7 (8)
0x2d20|                        b0                     |        .       |          xl_info: 176 0x2d28-0x2d28.7 (1)
0x2d20|                           00                  |         .      |          xl_rmid: 0 0x2d29-0x2d29.7 (1)
0x2d20|                              00 00            |          ..    |          hole1: 0 0x2d2a-0x2d2b.7 (2)
0x2d20|                                    14 38 ce 9e|            .8..|          xl_crc: 2664314900 0x2d2c-0x2d2f.7 (4)
