$ fq -d pg_heap -o flavour=postgres14 ".[0].pd_linp[0, 1, 2, -1] | dv" 16994
    |00 01 02 03 04 05 06 07 08 09 0a 0b 0c 0d 0e 0f|0123456789abcdef|.[0].pd_linp[0]{}: item_id 0x18-0x1b.7 (4)
0x10|                        00 80 01 00            |        ....    |  lp_off: 0 0x18-0x1b.7 (4)
0x10|                        00 80 01 00            |        ....    |  lp_flags: "LP_DEAD" (3) 0x18-0x1b.7 (4)
0x10|                        00 80 01 00            |        ....    |  lp_len: 0 0x18-0x1b.7 (4)
    |00 01 02 03 04 05 06 07 08 09 0a 0b 0c 0d 0e 0f|0123456789abcdef|.[0].pd_linp[1]{}: item_id 0x1c-0x1f.7 (4)
0x10|                                    e0 9f 38 00|            ..8.|  lp_off: 8160 0x1c-0x1f.7 (4)
0x10|                                    e0 9f 38 00|            ..8.|  lp_flags: "LP_NORMAL" (1) 0x1c-0x1f.7 (4)
0x10|                                    e0 9f 38 00|            ..8.|  lp_len: 28 0x1c-0x1f.7 (4)
    |00 01 02 03 04 05 06 07 08 09 0a 0b 0c 0d 0e 0f|0123456789abcdef|.[0].pd_linp[2]{}: item_id 0x20-0x23.7 (4)
0x20|c0 9f 38 00                                    |..8.            |  lp_off: 8128 0x20-0x23.7 (4)
0x20|c0 9f 38 00                                    |..8.            |  lp_flags: "LP_NORMAL" (1) 0x20-0x23.7 (4)
0x20|c0 9f 38 00                                    |..8.            |  lp_len: 28 0x20-0x23.7 (4)
     |00 01 02 03 04 05 06 07 08 09 0a 0b 0c 0d 0e 0f|0123456789abcdef|.[0].pd_linp[225]{}: item_id 0x39c-0x39f.7 (4)
0x390|                                    e0 83 38 00|            ..8.|  lp_off: 992 0x39c-0x39f.7 (4)
0x390|                                    e0 83 38 00|            ..8.|  lp_flags: "LP_NORMAL" (1) 0x39c-0x39f.7 (4)
0x390|                                    e0 83 38 00|            ..8.|  lp_len: 28 0x39c-0x39f.7 (4)
