$ fq -d pg_heap -o flavour=postgres14 ".[0].Tuples[0,-1] | dv" 33233
      |00 01 02 03 04 05 06 07 08 09 0a 0b 0c 0d 0e 0f|0123456789abcdef|.[0].Tuples[0]{}: Tuple 0x1f80-0x1fff.7 (128)
      |                                               |                |  HeapTupleHeaderData{}: 0x1f80-0x1f97.7 (24)
      |                                               |                |    t_choice{}: 0x1f80-0x1f8b.7 (12)
      |                                               |                |      t_heap{}: 0x1f80-0x1f8b.7 (12)
0x1f80|86 10 18 00                                    |....            |        t_xmin: 1577094 0x1f80-0x1f83.7 (4)
0x1f80|            00 00 00 00                        |    ....        |        t_xmax: 0 0x1f84-0x1f87.7 (4)
      |                                               |                |        t_field3{}: 0x1f88-0x1f8b.7 (4)
0x1f80|                        0f 00 00 00            |        ....    |          t_cid: 15 0x1f88-0x1f8b.7 (4)
0x1f80|                        0f 00 00 00            |        ....    |          t_xvac: 15 0x1f88-0x1f8b.7 (4)
      |                                               |                |      t_datum{}: 0x1f80-0x1f8b.7 (12)
0x1f80|86 10 18 00                                    |....            |        datum_len_: 1577094 0x1f80-0x1f83.7 (4)
0x1f80|            00 00 00 00                        |    ....        |        datum_typmod: 0 0x1f84-0x1f87.7 (4)
0x1f80|                        0f 00 00 00            |        ....    |        datum_typeid: 15 0x1f88-0x1f8b.7 (4)
      |                                               |                |    t_ctid{}: 0x1f8c-0x1f91.7 (6)
0x1f80|                                    00 00 00 00|            ....|      ip_blkid: 0 0x1f8c-0x1f8f.7 (4)
0x1f90|15 00                                          |..              |      ip_posid: 21 0x1f90-0x1f91.7 (2)
0x1f90|      04 00                                    |  ..            |    t_infomask2: 4 0x1f92-0x1f93.7 (2)
      |                                               |                |    Infomask2{}: 0x1f92-0x1f93.7 (2)
0x1f90|      04 00                                    |  ..            |      HEAP_KEYS_UPDATED: 0 0x1f92-0x1f93.7 (2)
0x1f90|      04 00                                    |  ..            |      HEAP_HOT_UPDATED: 0 0x1f92-0x1f93.7 (2)
0x1f90|      04 00                                    |  ..            |      HEAP_ONLY_TUPLE: 0 0x1f92-0x1f93.7 (2)
0x1f90|            02 09                              |    ..          |    t_infomask: 2306 0x1f94-0x1f95.7 (2)
      |                                               |                |    Infomask{}: 0x1f94-0x1f95.7 (2)
0x1f90|            02 09                              |    ..          |      HEAP_HASNULL: 0 0x1f94-0x1f95.7 (2)
0x1f90|            02 09                              |    ..          |      HEAP_HASVARWIDTH: 1 0x1f94-0x1f95.7 (2)
0x1f90|            02 09                              |    ..          |      HEAP_HASEXTERNAL: 0 0x1f94-0x1f95.7 (2)
0x1f90|            02 09                              |    ..          |      HEAP_HASOID_OLD: 0 0x1f94-0x1f95.7 (2)
0x1f90|            02 09                              |    ..          |      HEAP_XMAX_KEYSHR_LOCK: 0 0x1f94-0x1f95.7 (2)
0x1f90|            02 09                              |    ..          |      HEAP_COMBOCID: 0 0x1f94-0x1f95.7 (2)
0x1f90|            02 09                              |    ..          |      HEAP_XMAX_EXCL_LOCK: 0 0x1f94-0x1f95.7 (2)
0x1f90|            02 09                              |    ..          |      HEAP_XMAX_LOCK_ONLY: 0 0x1f94-0x1f95.7 (2)
0x1f90|            02 09                              |    ..          |      HEAP_XMAX_SHR_LOCK: 0 0x1f94-0x1f95.7 (2)
0x1f90|            02 09                              |    ..          |      HEAP_LOCK_MASK: 0 0x1f94-0x1f95.7 (2)
0x1f90|            02 09                              |    ..          |      HEAP_XMIN_COMMITTED: 1 0x1f94-0x1f95.7 (2)
0x1f90|            02 09                              |    ..          |      HEAP_XMIN_INVALID: 0 0x1f94-0x1f95.7 (2)
0x1f90|            02 09                              |    ..          |      HEAP_XMIN_FROZEN: 0 0x1f94-0x1f95.7 (2)
0x1f90|            02 09                              |    ..          |      HEAP_XMAX_COMMITTED: 0 0x1f94-0x1f95.7 (2)
0x1f90|            02 09                              |    ..          |      HEAP_XMAX_INVALID: 1 0x1f94-0x1f95.7 (2)
0x1f90|            02 09                              |    ..          |      HEAP_XMAX_IS_MULTI: 0 0x1f94-0x1f95.7 (2)
0x1f90|            02 09                              |    ..          |      HEAP_UPDATED: 0 0x1f94-0x1f95.7 (2)
0x1f90|            02 09                              |    ..          |      HEAP_MOVED_OFF: 0 0x1f94-0x1f95.7 (2)
0x1f90|            02 09                              |    ..          |      HEAP_MOVED_IN: 0 0x1f94-0x1f95.7 (2)
0x1f90|            02 09                              |    ..          |      HEAP_MOVED: 0 0x1f94-0x1f95.7 (2)
0x1f90|                  18                           |      .         |    t_hoff: 24 0x1f96-0x1f96.7 (1)
0x1f90|                     00                        |       .        |    padding0: 0 0x1f97-0x1f97.7 (1)
0x1f90|                        15 00 00 00 01 00 00 00|        ........|  Data: "150000000100000000000000ab202020202020202020202..." (raw bits) 0x1f98-0x1ff8.7 (97)
0x1fa0|00 00 00 00 ab 20 20 20 20 20 20 20 20 20 20 20|.....           |
*     |until 0x1ff8.7 (97)                            |                |
0x1ff0|                           00 00 00 00 00 00 00|         .......|  padding1: "00000000000000" (raw bits) 0x1ff9-0x1fff.7 (7)
     |00 01 02 03 04 05 06 07 08 09 0a 0b 0c 0d 0e 0f|0123456789abcdef|.[0].Tuples[58]{}: Tuple 0x280-0x2ff.7 (128)
     |                                               |                |  HeapTupleHeaderData{}: 0x280-0x297.7 (24)
     |                                               |                |    t_choice{}: 0x280-0x28b.7 (12)
     |                                               |                |      t_heap{}: 0x280-0x28b.7 (12)
0x280|96 58 1c 00                                    |.X..            |        t_xmin: 1857686 0x280-0x283.7 (4)
0x280|            00 00 00 00                        |    ....        |        t_xmax: 0 0x284-0x287.7 (4)
     |                                               |                |        t_field3{}: 0x288-0x28b.7 (4)
0x280|                        00 00 00 00            |        ....    |          t_cid: 0 0x288-0x28b.7 (4)
0x280|                        00 00 00 00            |        ....    |          t_xvac: 0 0x288-0x28b.7 (4)
     |                                               |                |      t_datum{}: 0x280-0x28b.7 (12)
0x280|96 58 1c 00                                    |.X..            |        datum_len_: 1857686 0x280-0x283.7 (4)
0x280|            00 00 00 00                        |    ....        |        datum_typmod: 0 0x284-0x287.7 (4)
0x280|                        00 00 00 00            |        ....    |        datum_typeid: 0 0x288-0x28b.7 (4)
     |                                               |                |    t_ctid{}: 0x28c-0x291.7 (6)
0x280|                                    00 00 00 00|            ....|      ip_blkid: 0 0x28c-0x28f.7 (4)
0x290|78 00                                          |x.              |      ip_posid: 120 0x290-0x291.7 (2)
0x290|      04 80                                    |  ..            |    t_infomask2: 32772 0x292-0x293.7 (2)
     |                                               |                |    Infomask2{}: 0x292-0x293.7 (2)
0x290|      04 80                                    |  ..            |      HEAP_KEYS_UPDATED: 0 0x292-0x293.7 (2)
0x290|      04 80                                    |  ..            |      HEAP_HOT_UPDATED: 0 0x292-0x293.7 (2)
0x290|      04 80                                    |  ..            |      HEAP_ONLY_TUPLE: 1 0x292-0x293.7 (2)
0x290|            02 29                              |    .)          |    t_infomask: 10498 0x294-0x295.7 (2)
     |                                               |                |    Infomask{}: 0x294-0x295.7 (2)
0x290|            02 29                              |    .)          |      HEAP_HASNULL: 0 0x294-0x295.7 (2)
0x290|            02 29                              |    .)          |      HEAP_HASVARWIDTH: 1 0x294-0x295.7 (2)
0x290|            02 29                              |    .)          |      HEAP_HASEXTERNAL: 0 0x294-0x295.7 (2)
0x290|            02 29                              |    .)          |      HEAP_HASOID_OLD: 0 0x294-0x295.7 (2)
0x290|            02 29                              |    .)          |      HEAP_XMAX_KEYSHR_LOCK: 0 0x294-0x295.7 (2)
0x290|            02 29                              |    .)          |      HEAP_COMBOCID: 0 0x294-0x295.7 (2)
0x290|            02 29                              |    .)          |      HEAP_XMAX_EXCL_LOCK: 0 0x294-0x295.7 (2)
0x290|            02 29                              |    .)          |      HEAP_XMAX_LOCK_ONLY: 0 0x294-0x295.7 (2)
0x290|            02 29                              |    .)          |      HEAP_XMAX_SHR_LOCK: 0 0x294-0x295.7 (2)
0x290|            02 29                              |    .)          |      HEAP_LOCK_MASK: 0 0x294-0x295.7 (2)
0x290|            02 29                              |    .)          |      HEAP_XMIN_COMMITTED: 1 0x294-0x295.7 (2)
0x290|            02 29                              |    .)          |      HEAP_XMIN_INVALID: 0 0x294-0x295.7 (2)
0x290|            02 29                              |    .)          |      HEAP_XMIN_FROZEN: 0 0x294-0x295.7 (2)
0x290|            02 29                              |    .)          |      HEAP_XMAX_COMMITTED: 0 0x294-0x295.7 (2)
0x290|            02 29                              |    .)          |      HEAP_XMAX_INVALID: 1 0x294-0x295.7 (2)
0x290|            02 29                              |    .)          |      HEAP_XMAX_IS_MULTI: 0 0x294-0x295.7 (2)
0x290|            02 29                              |    .)          |      HEAP_UPDATED: 1 0x294-0x295.7 (2)
0x290|            02 29                              |    .)          |      HEAP_MOVED_OFF: 0 0x294-0x295.7 (2)
0x290|            02 29                              |    .)          |      HEAP_MOVED_IN: 0 0x294-0x295.7 (2)
0x290|            02 29                              |    .)          |      HEAP_MOVED: 0 0x294-0x295.7 (2)
0x290|                  18                           |      .         |    t_hoff: 24 0x296-0x296.7 (1)
0x290|                     00                        |       .        |    padding0: 0 0x297-0x297.7 (1)
0x290|                        21 00 00 00 01 00 00 00|        !.......|  Data: "210000000100000053fdffffab202020202020202020202..." (raw bits) 0x298-0x2f8.7 (97)
0x2a0|53 fd ff ff ab 20 20 20 20 20 20 20 20 20 20 20|S....           |
*    |until 0x2f8.7 (97)                             |                |
0x2f0|                           00 00 00 00 00 00 00|         .......|  padding1: "00000000000000" (raw bits) 0x2f9-0x2ff.7 (7)
