$ fq -d pg_heap -o flavour=postgres14 ".[0].pd_linp[0, 1, -1] | dv" 33233
    |00 01 02 03 04 05 06 07 08 09 0a 0b 0c 0d 0e 0f|0123456789abcdef|.[0].pd_linp[0]{}: item_id 0x18-0x1c (4)
0x10|                        4d 00 01 00            |        M...    |  item_id_data: 65613 0x18-0x1c (4)
    |                                               |                |  lp_off: 77
    |                                               |                |  lp_flags: "LP_REDIRECT" (2)
    |                                               |                |  lp_len: 0
    |00 01 02 03 04 05 06 07 08 09 0a 0b 0c 0d 0e 0f|0123456789abcdef|.[0].pd_linp[1]{}: item_id 0x1c-0x20 (4)
0x10|                                    6a 00 01 00|            j...|  item_id_data: 65642 0x1c-0x20 (4)
    |                                               |                |  lp_off: 106
    |                                               |                |  lp_flags: "LP_REDIRECT" (2)
    |                                               |                |  lp_len: 0
     |00 01 02 03 04 05 06 07 08 09 0a 0b 0c 0d 0e 0f|0123456789abcdef|.[0].pd_linp[119]{}: item_id 0x1f4-0x1f8 (4)
0x1f0|            80 82 f2 00                        |    ....        |  item_id_data: 15893120 0x1f4-0x1f8 (4)
     |                                               |                |  lp_off: 640
     |                                               |                |  lp_flags: "LP_NORMAL" (1)
     |                                               |                |  lp_len: 121
