$ fq -d pg_heap -o flavour=postgres14 ".[0].PageHeaderData.pd_linp[0, 1, -1] | dv" 33233
    |00 01 02 03 04 05 06 07 08 09 0a 0b 0c 0d 0e 0f|0123456789abcdef|.[0].PageHeaderData.pd_linp[0]{}: ItemIdData 0x18-0x1b.7 (4)
0x10|                        4d 00 01 00            |        M...    |  lp_off: 77 0x18-0x1b.7 (4)
0x10|                        4d 00 01 00            |        M...    |  lp_flags: "LP_REDIRECT" (2) 0x18-0x1b.7 (4)
0x10|                        4d 00 01 00            |        M...    |  lp_len: 0 0x18-0x1b.7 (4)
    |00 01 02 03 04 05 06 07 08 09 0a 0b 0c 0d 0e 0f|0123456789abcdef|.[0].PageHeaderData.pd_linp[1]{}: ItemIdData 0x1c-0x1f.7 (4)
0x10|                                    6a 00 01 00|            j...|  lp_off: 106 0x1c-0x1f.7 (4)
0x10|                                    6a 00 01 00|            j...|  lp_flags: "LP_REDIRECT" (2) 0x1c-0x1f.7 (4)
0x10|                                    6a 00 01 00|            j...|  lp_len: 0 0x1c-0x1f.7 (4)
     |00 01 02 03 04 05 06 07 08 09 0a 0b 0c 0d 0e 0f|0123456789abcdef|.[0].PageHeaderData.pd_linp[119]{}: ItemIdData 0x1f4-0x1f7.7 (4)
0x1f0|            80 82 f2 00                        |    ....        |  lp_off: 640 0x1f4-0x1f7.7 (4)
0x1f0|            80 82 f2 00                        |    ....        |  lp_flags: "LP_NORMAL" (1) 0x1f4-0x1f7.7 (4)
0x1f0|            80 82 f2 00                        |    ....        |  lp_len: 121 0x1f4-0x1f7.7 (4)
