$ fq -d pg_heap -o flavour=postgres14 ".[0].tuples[0,-1] | dv" 33233
      |00 01 02 03 04 05 06 07 08 09 0a 0b 0c 0d 0e 0f|0123456789abcdef|.[0].tuples[0]{}: tuple 0x1f80-0x2000 (128)
      |                                               |                |  header{}: 0x1f80-0x1f98 (24)
      |                                               |                |    t_choice{}: 0x1f80-0x1f8c (12)
      |                                               |                |      t_heap{}: 0x1f80-0x1f8c (12)
0x1f80|86 10 18 00                                    |....            |        t_xmin: 1577094 0x1f80-0x1f84 (4)
0x1f80|            00 00 00 00                        |    ....        |        t_xmax: 0 0x1f84-0x1f88 (4)
      |                                               |                |        t_field3{}: 0x1f88-0x1f8c (4)
0x1f80|                        0f 00 00 00            |        ....    |          t_cid: 15 0x1f88-0x1f8c (4)
0x1f80|                        0f 00 00 00            |        ....    |          t_xvac: 15 0x1f88-0x1f8c (4)
      |                                               |                |      t_datum{}: 0x1f80-0x1f8c (12)
0x1f80|86 10 18 00                                    |....            |        datum_len_: 1577094 0x1f80-0x1f84 (4)
0x1f80|            00 00 00 00                        |    ....        |        datum_typmod: 0 0x1f84-0x1f88 (4)
0x1f80|                        0f 00 00 00            |        ....    |        datum_typeid: 15 0x1f88-0x1f8c (4)
      |                                               |                |    t_ctid{}: 0x1f8c-0x1f92 (6)
0x1f80|                                    00 00 00 00|            ....|      ip_blkid: 0 0x1f8c-0x1f90 (4)
0x1f90|15 00                                          |..              |      ip_posid: 21 0x1f90-0x1f92 (2)
0x1f90|      04 00                                    |  ..            |    t_infomask2: 4 0x1f92-0x1f94 (2)
      |                                               |                |    infomask2{}: 0x1f94-0x1f94 (0)
      |                                               |                |      heap_keys_updated: false
      |                                               |                |      heap_hot_updated: false
      |                                               |                |      heap_only_tuple: false
0x1f90|            02 09                              |    ..          |    t_infomask: 2306 0x1f94-0x1f96 (2)
      |                                               |                |    infomask{}: 0x1f96-0x1f96 (0)
      |                                               |                |      heap_hasnull: false
      |                                               |                |      heap_hasvarwidth: true
      |                                               |                |      heap_hasexternal: false
      |                                               |                |      heap_hasoid_old: false
      |                                               |                |      heap_xmax_keyshr_lock: false
      |                                               |                |      heap_combocid: false
      |                                               |                |      heap_xmax_excl_lock: false
      |                                               |                |      heap_xmax_lock_only: false
      |                                               |                |      heap_xmax_shr_lock: false
      |                                               |                |      heap_lock_mask: false
      |                                               |                |      heap_xmin_committed: true
      |                                               |                |      heap_xmin_invalid: false
      |                                               |                |      heap_xmin_frozen: true
      |                                               |                |      heap_xmax_committed: false
      |                                               |                |      heap_xmax_invalid: true
      |                                               |                |      heap_xmax_is_multi: false
      |                                               |                |      heap_updated: false
      |                                               |                |      heap_moved_off: false
      |                                               |                |      heap_moved_in: false
      |                                               |                |      heap_moved: false
0x1f90|                  18                           |      .         |    t_hoff: 24 0x1f96-0x1f97 (1)
0x1f90|                     00                        |       .        |    padding0: 0 0x1f97-0x1f98 (1)
0x1f90|                        15 00 00 00 01 00 00 00|        ........|  data: "150000000100000000000000ab202020202020202020202020202020202020202020202020202020202020202020202020202020202020202020202020202020202020202020202020202020202020202020202020202020202020202020202020" (raw bits) 0x1f98-0x1ff9 (97)
0x1fa0|00 00 00 00 ab 20 20 20 20 20 20 20 20 20 20 20|.....           |
*     |until 0x1ff8.7 (97)                            |                |
0x1ff0|                           00 00 00 00 00 00 00|         .......|  padding1: "00000000000000" (raw bits) 0x1ff9-0x2000 (7)
     |00 01 02 03 04 05 06 07 08 09 0a 0b 0c 0d 0e 0f|0123456789abcdef|.[0].tuples[58]{}: tuple 0x280-0x300 (128)
     |                                               |                |  header{}: 0x280-0x298 (24)
     |                                               |                |    t_choice{}: 0x280-0x28c (12)
     |                                               |                |      t_heap{}: 0x280-0x28c (12)
0x280|96 58 1c 00                                    |.X..            |        t_xmin: 1857686 0x280-0x284 (4)
0x280|            00 00 00 00                        |    ....        |        t_xmax: 0 0x284-0x288 (4)
     |                                               |                |        t_field3{}: 0x288-0x28c (4)
0x280|                        00 00 00 00            |        ....    |          t_cid: 0 0x288-0x28c (4)
0x280|                        00 00 00 00            |        ....    |          t_xvac: 0 0x288-0x28c (4)
     |                                               |                |      t_datum{}: 0x280-0x28c (12)
0x280|96 58 1c 00                                    |.X..            |        datum_len_: 1857686 0x280-0x284 (4)
0x280|            00 00 00 00                        |    ....        |        datum_typmod: 0 0x284-0x288 (4)
0x280|                        00 00 00 00            |        ....    |        datum_typeid: 0 0x288-0x28c (4)
     |                                               |                |    t_ctid{}: 0x28c-0x292 (6)
0x280|                                    00 00 00 00|            ....|      ip_blkid: 0 0x28c-0x290 (4)
0x290|78 00                                          |x.              |      ip_posid: 120 0x290-0x292 (2)
0x290|      04 80                                    |  ..            |    t_infomask2: 32772 0x292-0x294 (2)
     |                                               |                |    infomask2{}: 0x294-0x294 (0)
     |                                               |                |      heap_keys_updated: false
     |                                               |                |      heap_hot_updated: false
     |                                               |                |      heap_only_tuple: true
0x290|            02 29                              |    .)          |    t_infomask: 10498 0x294-0x296 (2)
     |                                               |                |    infomask{}: 0x296-0x296 (0)
     |                                               |                |      heap_hasnull: false
     |                                               |                |      heap_hasvarwidth: true
     |                                               |                |      heap_hasexternal: false
     |                                               |                |      heap_hasoid_old: false
     |                                               |                |      heap_xmax_keyshr_lock: false
     |                                               |                |      heap_combocid: false
     |                                               |                |      heap_xmax_excl_lock: false
     |                                               |                |      heap_xmax_lock_only: false
     |                                               |                |      heap_xmax_shr_lock: false
     |                                               |                |      heap_lock_mask: false
     |                                               |                |      heap_xmin_committed: true
     |                                               |                |      heap_xmin_invalid: false
     |                                               |                |      heap_xmin_frozen: true
     |                                               |                |      heap_xmax_committed: false
     |                                               |                |      heap_xmax_invalid: true
     |                                               |                |      heap_xmax_is_multi: false
     |                                               |                |      heap_updated: true
     |                                               |                |      heap_moved_off: false
     |                                               |                |      heap_moved_in: false
     |                                               |                |      heap_moved: false
0x290|                  18                           |      .         |    t_hoff: 24 0x296-0x297 (1)
0x290|                     00                        |       .        |    padding0: 0 0x297-0x298 (1)
0x290|                        21 00 00 00 01 00 00 00|        !.......|  data: "210000000100000053fdffffab202020202020202020202020202020202020202020202020202020202020202020202020202020202020202020202020202020202020202020202020202020202020202020202020202020202020202020202020" (raw bits) 0x298-0x2f9 (97)
0x2a0|53 fd ff ff ab 20 20 20 20 20 20 20 20 20 20 20|S....           |
*    |until 0x2f8.7 (97)                             |                |
0x2f0|                           00 00 00 00 00 00 00|         .......|  padding1: "00000000000000" (raw bits) 0x2f9-0x300 (7)
