$ fq -d pg_control -o flavour=postgres14 dv pg_control
      |00 01 02 03 04 05 06 07 08 09 0a 0b 0c 0d 0e 0f|0123456789abcdef|.{}: pg_control (pg_control) 0x0-0x1fff.7 (8192)
0x0000|68 e7 dd 05 b3 88 b3 61                        |h......a        |  system_identifier: 7040120944989169512 0x0-0x7.7 (8)
0x0000|                        14 05 00 00            |        ....    |  pg_control_version: 1300 0x8-0xb.7 (4)
0x0000|                                    2d e9 0b 0c|            -...|  catalog_version_no: 202107181 0xc-0xf.7 (4)
0x0010|06 00 00 00                                    |....            |  state: "DB_IN_PRODUCTION" (6) 0x10-0x13.7 (4)
0x0010|            00 00 00 00                        |    ....        |  hole0: 0 0x14-0x17.7 (4)
0x0010|                        46 a1 c2 62 00 00 00 00|        F..b....|  time: "Mon, 04 Jul 2022 08:13:58 UTC" (1656922438) 0x18-0x1f.7 (8)
0x0020|c0 88 d6 9a 00 00 00 00                        |........        |  check_point: "0/9AD688C0" (2597750976) 0x20-0x27.7 (8)
      |                                               |                |  check_point_copy{}: 0x28-0x7f.7 (88)
0x0020|                        c0 88 d6 9a 00 00 00 00|        ........|    redo: "0/9AD688C0" (2597750976) 0x28-0x2f.7 (8)
0x0030|01 00 00 00                                    |....            |    this_time_line_id: 1 0x30-0x33.7 (4)
0x0030|            01 00 00 00                        |    ....        |    prev_time_line_id: 1 0x34-0x37.7 (4)
0x0030|                        01                     |        .       |    full_page_writes: 1 0x38-0x38.7 (1)
0x0030|                           00 00 00 00 00 00 00|         .......|    hole1: 0 0x39-0x3f.7 (7)
0x0040|4b ab 1c 00 00 00 00 00                        |K.......        |    next_xid: 1878859 0x40-0x47.7 (8)
0x0040|                        dd 81 00 00            |        ....    |    next_oid: 33245 0x48-0x4b.7 (4)
0x0040|                                    01 00 00 00|            ....|    next_multi: 1 0x4c-0x4f.7 (4)
0x0050|00 00 00 00                                    |....            |    next_multi_offset: 0 0x50-0x53.7 (4)
0x0050|            d6 02 00 00                        |    ....        |    oldest_xid: 726 0x54-0x57.7 (4)
0x0050|                        01 00 00 00            |        ....    |    oldest_xid_db: 1 0x58-0x5b.7 (4)
0x0050|                                    01 00 00 00|            ....|    oldest_multi: 1 0x5c-0x5f.7 (4)
0x0060|01 00 00 00                                    |....            |    oldest_multi_db: 1 0x60-0x63.7 (4)
0x0060|            00 00 00 00                        |    ....        |    hole2: 0 0x64-0x67.7 (4)
0x0060|                        46 a1 c2 62 00 00 00 00|        F..b....|    time: "Mon, 04 Jul 2022 08:13:58 UTC" (1656922438) 0x68-0x6f.7 (8)
0x0070|00 00 00 00                                    |....            |    oldest_commit_ts_xid: 0 0x70-0x73.7 (4)
0x0070|            00 00 00 00                        |    ....        |    newest_commit_ts_xid: 0 0x74-0x77.7 (4)
0x0070|                        00 00 00 00            |        ....    |    oldest_active_xid: 0 0x78-0x7b.7 (4)
0x0070|                                    00 00 00 00|            ....|    padding0: 0 0x7c-0x7f.7 (4)
0x0080|e8 03 00 00 00 00 00 00                        |........        |  unlogged_lsn: "0/3E8" (1000) 0x80-0x87.7 (8)
0x0080|                        00 00 00 00 00 00 00 00|        ........|  min_recovery_point: "0/0" (0) 0x88-0x8f.7 (8)
0x0090|00 00 00 00                                    |....            |  min_recovery_point_tli: 0 0x90-0x93.7 (4)
0x0090|            00 00 00 00                        |    ....        |  hole3: 0 0x94-0x97.7 (4)
0x0090|                        00 00 00 00 00 00 00 00|        ........|  backup_start_point: "0/0" (0) 0x98-0x9f.7 (8)
0x00a0|00 00 00 00 00 00 00 00                        |........        |  backup_end_point: "0/0" (0) 0xa0-0xa7.7 (8)
0x00a0|                        00                     |        .       |  backup_end_required: 0 0xa8-0xa8.7 (1)
0x00a0|                           00 00 00            |         ...    |  hole4: 0 0xa9-0xab.7 (3)
0x00a0|                                    01 00 00 00|            ....|  wal_level: "WAL_LEVEL_REPLICA" (1) 0xac-0xaf.7 (4)
0x00b0|00                                             |.               |  wal_log_hints: 0 0xb0-0xb0.7 (1)
0x00b0|   00 00 00                                    | ...            |  hole5: 0 0xb1-0xb3.7 (3)
0x00b0|            64 00 00 00                        |    d...        |  max_connections: 100 0xb4-0xb7.7 (4)
0x00b0|                        08 00 00 00            |        ....    |  max_worker_processes: 8 0xb8-0xbb.7 (4)
0x00b0|                                    0a 00 00 00|            ....|  max_wal_senders: 10 0xbc-0xbf.7 (4)
0x00c0|00 00 00 00                                    |....            |  max_prepared_xacts: 0 0xc0-0xc3.7 (4)
0x00c0|            40 00 00 00                        |    @...        |  max_locks_per_xact: 64 0xc4-0xc7.7 (4)
0x00c0|                        00                     |        .       |  track_commit_timestamp: 0 0xc8-0xc8.7 (1)
0x00c0|                           00 00 00            |         ...    |  hole6: 0 0xc9-0xcb.7 (3)
0x00c0|                                    08 00 00 00|            ....|  max_align: 8 0xcc-0xcf.7 (4)
0x00d0|00 00 00 00 87 d6 32 41                        |......2A        |  float_format: 1.234567e+06 0xd0-0xd7.7 (8)
0x00d0|                        00 20 00 00            |        . ..    |  blcksz: 8192 0xd8-0xdb.7 (4)
0x00d0|                                    00 00 02 00|            ....|  relseg_size: 131072 0xdc-0xdf.7 (4)
0x00e0|00 20 00 00                                    |. ..            |  xlog_blcksz: 8192 0xe0-0xe3.7 (4)
0x00e0|            00 00 00 01                        |    ....        |  xlog_seg_size: 16777216 0xe4-0xe7.7 (4)
0x00e0|                        40 00 00 00            |        @...    |  name_data_len: 64 0xe8-0xeb.7 (4)
0x00e0|                                    20 00 00 00|             ...|  index_max_keys: 32 0xec-0xef.7 (4)
0x00f0|cc 07 00 00                                    |....            |  toast_max_chunk_size: 1996 0xf0-0xf3.7 (4)
0x00f0|            00 08 00 00                        |    ....        |  loblksize: 2048 0xf4-0xf7.7 (4)
0x00f0|                        01                     |        .       |  float8_by_val: 1 0xf8-0xf8.7 (1)
0x00f0|                           00 00 00            |         ...    |  hole7: 0 0xf9-0xfb.7 (3)
0x00f0|                                    00 00 00 00|            ....|  data_checksum_version: 0 0xfc-0xff.7 (4)
0x0100|00 45 fd 64 7e d4 d3 53 82 75 0a b7 d6 be c1 9a|.E.d~..S.u......|  mock_authentication_nonce: "0045fd647ed4d35382750ab7d6bec19a77af72bae00f728..." (raw bits) 0x100-0x11f.7 (32)
0x0110|77 af 72 ba e0 0f 72 80 4a 57 43 fb 76 c8 98 8c|w.r...r.JWC.v...|
0x0120|4b 76 27 eb                                    |Kv'.            |  crc: 3945231947 0x120-0x123.7 (4)
0x0120|            00 00 00 00                        |    ....        |  padding1: 0 0x124-0x127.7 (4)
0x0120|                        00 00 00 00 00 00 00 00|        ........|  unused: raw bits 0x128-0x1fff.7 (7896)
0x0130|00 00 00 00 00 00 00 00 00 00 00 00 00 00 00 00|................|
*     |until 0x1fff.7 (end) (7896)                    |                |
