$ fq -d fit dv settings.fit
    |00 01 02 03 04 05 06 07 08 09 0a 0b 0c 0d 0e 0f|0123456789abcdef|.{}: settings.fit (fit) 0x0-0x52 (82)
    |                                               |                |  header{}: 0x0-0xc (12)
0x00|0c                                             |.               |    header_size: 12 0x0-0x1 (1)
0x00|   10                                          | .              |    protocol_version: 16 0x1-0x2 (1)
0x00|      47 00                                    |  G.            |    profile_version: 71 0x2-0x4 (2)
0x00|            44 00 00 00                        |    D...        |    data_size: 68 0x4-0x8 (4)
0x00|                        2e 46 49 54            |        .FIT    |    data_type: raw bits (valid) 0x8-0xc (4)
    |                                               |                |  data_records[0:6]: 0xc-0x50 (68)
    |                                               |                |    [0]{}: data_record 0xc-0x1e (18)
    |                                               |                |      record_header{}: 0xc-0xd (1)
0x00|                                    40         |            @   |        header_type: "normal" (0) 0xc-0xc.1 (0.1)
0x00|                                    40         |            @   |        message_type: "definition" (1) 0xc.1-0xc.2 (0.1)
0x00|                                    40         |            @   |        has_developer_fields: false 0xc.2-0xc.3 (0.1)
0x00|                                    40         |            @   |        reserved: false 0xc.3-0xc.4 (0.1)
0x00|                                    40         |            @   |        local_message_type: 0 0xc.4-0xd (0.4)
    |                                               |                |      definition_message{}: 0xd-0x1e (17)
0x00|                                       00      |             .  |        reserved: 0 0xd-0xe (1)
0x00|                                          01   |              . |        architecture: "big_endian" (1) 0xe-0xf (1)
0x00|                                             00|               .|        global_message_number: "file_id" (0) 0xf-0x11 (2)
0x10|00                                             |.               |
0x10|   04                                          | .              |        fields: 4 0x11-0x12 (1)
    |                                               |                |        field_definitions[0:4]: 0x12-0x1e (12)
    |                                               |                |          [0]{}: field_definition 0x12-0x15 (3)
0x10|      01                                       |  .             |            field_definition_number: "manufacturer" (1) 0x12-0x13 (1)
0x10|         02                                    |   .            |            size: 2 0x13-0x14 (1)
0x10|            84                                 |    .           |            base_type: "uint16" (132) 0x14-0x15 (1)
    |                                               |                |          [1]{}: field_definition 0x15-0x18 (3)
0x10|               02                              |     .          |            field_definition_number: "product" (2) 0x15-0x16 (1)
0x10|                  02                           |      .         |            size: 2 0x16-0x17 (1)
0x10|                     84                        |       .        |            base_type: "uint16" (132) 0x17-0x18 (1)
    |                                               |                |          [2]{}: field_definition 0x18-0x1b (3)
0x10|                        03                     |        .       |            field_definition_number: "serial_number" (3) 0x18-0x19 (1)
0x10|                           04                  |         .      |            size: 4 0x19-0x1a (1)
0x10|                              8c               |          .     |            base_type: "uint32z" (140) 0x1a-0x1b (1)
    |                                               |                |          [3]{}: field_definition 0x1b-0x1e (3)
0x10|                                 00            |           .    |            field_definition_number: "type" (0) 0x1b-0x1c (1)
0x10|                                    01         |            .   |            size: 1 0x1c-0x1d (1)
0x10|                                       00      |             .  |            base_type: "enum" (0) 0x1d-0x1e (1)
    |                                               |                |    [1]{}: data_record 0x1e-0x28 (10)
    |                                               |                |      record_header{}: 0x1e-0x1f (1)
0x10|                                          00   |              . |        header_type: "normal" (0) 0x1e-0x1e.1 (0.1)
0x10|                                          00   |              . |        message_type: "data" (0) 0x1e.1-0x1e.2 (0.1)
0x10|                                          00   |              . |        has_developer_fields: false 0x1e.2-0x1e.3 (0.1)
0x10|                                          00   |              . |        reserved: false 0x1e.3-0x1e.4 (0.1)
0x10|                                          00   |              . |        local_message_type: 0 0x1e.4-0x1f (0.4)
    |                                               |                |      data_message{}: 0x1f-0x28 (9)
0x10|                                             00|               .|        manufacturer: 256 0x1f-0x21 (2)
0x20|01                                             |.               |
0x20|   03 dc                                       | ..             |        product: 56323 0x21-0x23 (2)
0x20|         00 01 e2 40                           |   ...@         |        serial_number: 1088553216 0x23-0x27 (4)
0x20|                     02                        |       .        |        type: "settings" (2) 0x27-0x28 (1)
    |                                               |                |    [2]{}: data_record 0x28-0x3d (21)
    |                                               |                |      record_header{}: 0x28-0x29 (1)
0x20|                        40                     |        @       |        header_type: "normal" (0) 0x28-0x28.1 (0.1)
0x20|                        40                     |        @       |        message_type: "definition" (1) 0x28.1-0x28.2 (0.1)
0x20|                        40                     |        @       |        has_developer_fields: false 0x28.2-0x28.3 (0.1)
0x20|                        40                     |        @       |        reserved: false 0x28.3-0x28.4 (0.1)
0x20|                        40                     |        @       |        local_message_type: 0 0x28.4-0x29 (0.4)
    |                                               |                |      definition_message{}: 0x29-0x3d (20)
0x20|                           00                  |         .      |        reserved: 0 0x29-0x2a (1)
0x20|                              01               |          .     |        architecture: "big_endian" (1) 0x2a-0x2b (1)
0x20|                                 00 03         |           ..   |        global_message_number: "user_profile" (3) 0x2b-0x2d (2)
0x20|                                       05      |             .  |        fields: 5 0x2d-0x2e (1)
    |                                               |                |        field_definitions[0:5]: 0x2e-0x3d (15)
    |                                               |                |          [0]{}: field_definition 0x2e-0x31 (3)
0x20|                                          04   |              . |            field_definition_number: "weight" (4) 0x2e-0x2f (1)
0x20|                                             02|               .|            size: 2 0x2f-0x30 (1)
0x30|84                                             |.               |            base_type: "uint16" (132) 0x30-0x31 (1)
    |                                               |                |          [1]{}: field_definition 0x31-0x34 (3)
0x30|   01                                          | .              |            field_definition_number: "gender" (1) 0x31-0x32 (1)
0x30|      01                                       |  .             |            size: 1 0x32-0x33 (1)
0x30|         00                                    |   .            |            base_type: "enum" (0) 0x33-0x34 (1)
    |                                               |                |          [2]{}: field_definition 0x34-0x37 (3)
0x30|            02                                 |    .           |            field_definition_number: "age" (2) 0x34-0x35 (1)
0x30|               01                              |     .          |            size: 1 0x35-0x36 (1)
0x30|                  02                           |      .         |            base_type: "uint8" (2) 0x36-0x37 (1)
    |                                               |                |          [3]{}: field_definition 0x37-0x3a (3)
0x30|                     03                        |       .        |            field_definition_number: "height" (3) 0x37-0x38 (1)
0x30|                        01                     |        .       |            size: 1 0x38-0x39 (1)
0x30|                           02                  |         .      |            base_type: "uint8" (2) 0x39-0x3a (1)
    |                                               |                |          [4]{}: field_definition 0x3a-0x3d (3)
0x30|                              05               |          .     |            field_definition_number: "language" (5) 0x3a-0x3b (1)
0x30|                                 01            |           .    |            size: 1 0x3b-0x3c (1)
0x30|                                    00         |            .   |            base_type: "enum" (0) 0x3c-0x3d (1)
    |                                               |                |    [3]{}: data_record 0x3d-0x44 (7)
    |                                               |                |      record_header{}: 0x3d-0x3e (1)
0x30|                                       00      |             .  |        header_type: "normal" (0) 0x3d-0x3d.1 (0.1)
0x30|                                       00      |             .  |        message_type: "data" (0) 0x3d.1-0x3d.2 (0.1)
0x30|                                       00      |             .  |        has_developer_fields: false 0x3d.2-0x3d.3 (0.1)
0x30|                                       00      |             .  |        reserved: false 0x3d.3-0x3d.4 (0.1)
0x30|                                       00      |             .  |        local_message_type: 0 0x3d.4-0x3e (0.4)
    |                                               |                |      data_message{}: 0x3e-0x44 (6)
0x30|                                          03 84|              ..|        weight: 3379.5 (33795) (kg) 0x3e-0x40 (2)
0x40|01                                             |.               |        gender: "male" (1) 0x40-0x41 (1)
0x40|   1c                                          | .              |        age: 28 (years) 0x41-0x42 (1)
0x40|      be                                       |  .             |        height: 1.9 (190) (m) 0x42-0x43 (1)
0x40|         00                                    |   .            |        language: "english" (0) 0x43-0x44 (1)
    |                                               |                |    [4]{}: data_record 0x44-0x4d (9)
    |                                               |                |      record_header{}: 0x44-0x45 (1)
0x40|            40                                 |    @           |        header_type: "normal" (0) 0x44-0x44.1 (0.1)
0x40|            40                                 |    @           |        message_type: "definition" (1) 0x44.1-0x44.2 (0.1)
0x40|            40                                 |    @           |        has_developer_fields: false 0x44.2-0x44.3 (0.1)
0x40|            40                                 |    @           |        reserved: false 0x44.3-0x44.4 (0.1)
0x40|            40                                 |    @           |        local_message_type: 0 0x44.4-0x45 (0.4)
    |                                               |                |      definition_message{}: 0x45-0x4d (8)
0x40|               00                              |     .          |        reserved: 0 0x45-0x46 (1)
0x40|                  01                           |      .         |        architecture: "big_endian" (1) 0x46-0x47 (1)
0x40|                     00 04                     |       ..       |        global_message_number: "hrm_profile" (4) 0x47-0x49 (2)
0x40|                           01                  |         .      |        fields: 1 0x49-0x4a (1)
    |                                               |                |        field_definitions[0:1]: 0x4a-0x4d (3)
    |                                               |                |          [0]{}: field_definition 0x4a-0x4d (3)
0x40|                              01               |          .     |            field_definition_number: "hrm_ant_id" (1) 0x4a-0x4b (1)
0x40|                                 02            |           .    |            size: 2 0x4b-0x4c (1)
0x40|                                    8b         |            .   |            base_type: "uint16z" (139) 0x4c-0x4d (1)
    |                                               |                |    [5]{}: data_record 0x4d-0x50 (3)
    |                                               |                |      record_header{}: 0x4d-0x4e (1)
0x40|                                       00      |             .  |        header_type: "normal" (0) 0x4d-0x4d.1 (0.1)
0x40|                                       00      |             .  |        message_type: "data" (0) 0x4d.1-0x4d.2 (0.1)
0x40|                                       00      |             .  |        has_developer_fields: false 0x4d.2-0x4d.3 (0.1)
0x40|                                       00      |             .  |        reserved: false 0x4d.3-0x4d.4 (0.1)
0x40|                                       00      |             .  |        local_message_type: 0 0x4d.4-0x4e (0.4)
    |                                               |                |      data_message{}: 0x4e-0x50 (2)
0x40|                                          00 64|              .d|        hrm_ant_id: 25600 0x4e-0x50 (2)
0x50|39 50|                                         |9P|             |  crc: 0x5039 (valid) 0x50-0x52 (2)
