$ fq -d icc_profile dv adobe_linear.icc
     |00 01 02 03 04 05 06 07 08 09 0a 0b 0c 0d 0e 0f|0123456789abcdef|.{}: adobe_linear.icc (icc_profile) 0x0-0x204 (516)
     |                                               |                |  header{}: 0x0-0x80 (128)
0x000|00 00 02 04                                    |....            |    size: 516 0x0-0x4 (4)
0x000|            41 44 42 45                        |    ADBE        |    cmm_type_signature: "ADBE" 0x4-0x8 (4)
0x000|                        02                     |        .       |    version_major: 2 0x8-0x9 (1)
0x000|                           40                  |         @      |    version_minor: 40 0x9-0xa (1)
0x000|                              00 00            |          ..    |    version_reserved: 0 0xa-0xc (2)
0x000|                                    6d 6e 74 72|            mntr|    device_class_signature: "mntr" 0xc-0x10 (4)
0x010|52 47 42 20                                    |RGB             |    color_space: "RGB" 0x10-0x14 (4)
0x010|            58 59 5a 20                        |    XYZ         |    connection_space: "XYZ" 0x14-0x18 (4)
     |                                               |                |    timestamp{}: 0x18-0x24 (12)
0x010|                        07 e5                  |        ..      |      year: 2021 0x18-0x1a (2)
0x010|                              00 07            |          ..    |      month: 7 0x1a-0x1c (2)
0x010|                                    00 15      |            ..  |      day: 21 0x1c-0x1e (2)
0x010|                                          00 14|              ..|      hours: 20 0x1e-0x20 (2)
0x020|00 19                                          |..              |      minutes: 25 0x20-0x22 (2)
0x020|      00 1a                                    |  ..            |      seconds: 26 0x22-0x24 (2)
0x020|            61 63 73 70                        |    acsp        |    file_signature: "acsp" 0x24-0x28 (4)
0x020|                        41 50 50 4c            |        APPL    |    primary_platform: "APPL" 0x28-0x2c (4)
0x020|                                    00 00 00 00|            ....|    flags: 0 0x2c-0x30 (4)
0x030|6e 6f 6e 65                                    |none            |    device_manufacturer: "none" 0x30-0x34 (4)
0x030|            00 00 00 00                        |    ....        |    device_model: "" 0x34-0x38 (4)
0x030|                        00 00 00 00 00 00 00 00|        ........|    device_attribute: "" 0x38-0x40 (8)
0x040|00 00 00 00                                    |....            |    render_intent: "" 0x40-0x44 (4)
0x040|            00 00 f6 d6 00 01 00 00 00 00 d3 2d|    ...........-|    xyz_illuminant: "" 0x44-0x50 (12)
0x050|41 44 42 45                                    |ADBE            |    profile_creator_signature: "ADBE" 0x50-0x54 (4)
0x050|            00 00 00 00 00 00 00 00 00 00 00 00|    ............|    profile_id: "" 0x54-0x64 (16)
0x060|00 00 00 00                                    |....            |
0x060|            00 00 00 00 00 00 00 00 00 00 00 00|    ............|    reserved: raw bits (all zero) 0x64-0x80 (28)
0x070|00 00 00 00 00 00 00 00 00 00 00 00 00 00 00 00|................|
     |                                               |                |  tag_table{}: 0x80-0x204 (388)
0x080|00 00 00 09                                    |....            |    count: 9 0x80-0x84 (4)
     |                                               |                |    table[0:9]: 0x84-0x204 (384)
     |                                               |                |      [0]{}: element 0x84-0x124 (160)
0x080|            63 70 72 74                        |    cprt        |        signature: "cprt" 0x84-0x88 (4)
0x080|                        00 00 00 f0            |        ....    |        offset: 240 0x88-0x8c (4)
0x080|                                    00 00 00 32|            ...2|        size: 50 0x8c-0x90 (4)
0x0f0|74 65 78 74                                    |text            |        type: "text" 0xf0-0xf4 (4)
0x0f0|            00 00 00 00                        |    ....        |        reserved: 0 0xf4-0xf8 (4)
0x0f0|                        43 6f 70 79 72 69 67 68|        Copyrigh|        text: "Copyright 2021 Adobe Systems Incorporated" 0xf8-0x122 (42)
0x100|74 20 32 30 32 31 20 41 64 6f 62 65 20 53 79 73|t 2021 Adobe Sys|
*    |until 0x121.7 (42)                             |                |
0x120|      00 00                                    |  ..            |        alignment: raw bits 0x122-0x124 (2)
     |                                               |                |      [1]{}: element 0x90-0x1a4 (276)
0x090|64 65 73 63                                    |desc            |        signature: "desc" 0x90-0x94 (4)
0x090|            00 00 01 24                        |    ...$        |        offset: 292 0x94-0x98 (4)
0x090|                        00 00 00 80            |        ....    |        size: 128 0x98-0x9c (4)
0x120|            64 65 73 63                        |    desc        |        type: "desc" 0x124-0x128 (4)
0x120|                        00 00 00 00            |        ....    |        reserved: 0 0x128-0x12c (4)
0x120|                                    00 00 00 26|            ...&|        description_length: 38 0x12c-0x130 (4)
0x130|41 64 6f 62 65 20 52 47 42 20 28 31 39 39 38 29|Adobe RGB (1998)|        description: "Adobe RGB (1998) (Linear RGB Profile)" 0x130-0x156 (38)
*    |until 0x155.7 (38)                             |                |
0x150|                  00 00 00 00                  |      ....      |        language_code: 0 0x156-0x15a (4)
0x150|                              00 00 00 00      |          ....  |        localizable_description_length: 0 0x15a-0x15e (4)
     |                                               |                |        localizable_description: "" 0x15e-0x15e (0)
0x150|                                          00 00|              ..|        script_code: 0 0x15e-0x160 (2)
0x160|00                                             |.               |        macintosh_description_length: 0 0x160-0x161 (1)
0x160|   00 00 00 00 00 00 00 00 00 00 00 00 00 00 00| ...............|        macintosh_description: "" 0x161-0x1a4 (67)
0x170|00 00 00 00 00 00 00 00 00 00 00 00 00 00 00 00|................|
*    |until 0x1a3.7 (67)                             |                |
     |                                               |                |      [2]{}: element 0x9c-0x1b8 (284)
0x090|                                    72 58 59 5a|            rXYZ|        signature: "rXYZ" 0x9c-0xa0 (4)
0x0a0|00 00 01 a4                                    |....            |        offset: 420 0xa0-0xa4 (4)
0x0a0|            00 00 00 14                        |    ....        |        size: 20 0xa4-0xa8 (4)
0x1a0|            58 59 5a 20                        |    XYZ         |        type: "XYZ" 0x1a4-0x1a8 (4)
0x1a0|                        00 00 00 00            |        ....    |        reserved: 0 0x1a8-0x1ac (4)
0x1a0|                                    00 00 9c 18|            ....|        x: 0.6097412109375 0x1ac-0x1b0 (4)
0x1b0|00 00 4f a5                                    |..O.            |        y: 0.3111114501953125 0x1b0-0x1b4 (4)
0x1b0|            00 00 04 fc                        |    ....        |        z: 0.01947021484375 0x1b4-0x1b8 (4)
     |                                               |                |      [3]{}: element 0xa8-0x1cc (292)
0x0a0|                        67 58 59 5a            |        gXYZ    |        signature: "gXYZ" 0xa8-0xac (4)
0x0a0|                                    00 00 01 b8|            ....|        offset: 440 0xac-0xb0 (4)
0x0b0|00 00 00 14                                    |....            |        size: 20 0xb0-0xb4 (4)
0x1b0|                        58 59 5a 20            |        XYZ     |        type: "XYZ" 0x1b8-0x1bc (4)
0x1b0|                                    00 00 00 00|            ....|        reserved: 0 0x1bc-0x1c0 (4)
0x1c0|00 00 34 8d                                    |..4.            |        x: 0.2052764892578125 0x1c0-0x1c4 (4)
0x1c0|            00 00 a0 2c                        |    ...,        |        y: 0.62567138671875 0x1c4-0x1c8 (4)
0x1c0|                        00 00 0f 95            |        ....    |        z: 0.0608673095703125 0x1c8-0x1cc (4)
     |                                               |                |      [4]{}: element 0xb4-0x1e0 (300)
0x0b0|            62 58 59 5a                        |    bXYZ        |        signature: "bXYZ" 0xb4-0xb8 (4)
0x0b0|                        00 00 01 cc            |        ....    |        offset: 460 0xb8-0xbc (4)
0x0b0|                                    00 00 00 14|            ....|        size: 20 0xbc-0xc0 (4)
0x1c0|                                    58 59 5a 20|            XYZ |        type: "XYZ" 0x1cc-0x1d0 (4)
0x1d0|00 00 00 00                                    |....            |        reserved: 0 0x1d0-0x1d4 (4)
0x1d0|            00 00 26 31                        |    ..&1        |        x: 0.1491851806640625 0x1d4-0x1d8 (4)
0x1d0|                        00 00 10 2f            |        .../    |        y: 0.0632171630859375 0x1d8-0x1dc (4)
0x1d0|                                    00 00 be 9c|            ....|        z: 0.74456787109375 0x1dc-0x1e0 (4)
     |                                               |                |      [5]{}: element 0xc0-0x1f4 (308)
0x0c0|77 74 70 74                                    |wtpt            |        signature: "wtpt" 0xc0-0xc4 (4)
0x0c0|            00 00 01 e0                        |    ....        |        offset: 480 0xc4-0xc8 (4)
0x0c0|                        00 00 00 14            |        ....    |        size: 20 0xc8-0xcc (4)
0x1e0|58 59 5a 20                                    |XYZ             |        type: "XYZ" 0x1e0-0x1e4 (4)
0x1e0|            00 00 00 00                        |    ....        |        reserved: 0 0x1e4-0x1e8 (4)
0x1e0|                        00 00 f3 50            |        ...P    |        x: 0.950439453125 0x1e8-0x1ec (4)
0x1e0|                                    00 01 00 00|            ....|        y: 1 0x1ec-0x1f0 (4)
0x1f0|00 01 16 cc                                    |....            |        z: 1.08905029296875 0x1f0-0x1f4 (4)
     |                                               |                |      [6]{}: element 0xcc-0x204 (312)
0x0c0|                                    72 54 52 43|            rTRC|        signature: "rTRC" 0xcc-0xd0 (4)
0x0d0|00 00 01 f4                                    |....            |        offset: 500 0xd0-0xd4 (4)
0x0d0|            00 00 00 0e                        |    ....        |        size: 14 0xd4-0xd8 (4)
0x1f0|            63 75 72 76                        |    curv        |        type: "curv" 0x1f4-0x1f8 (4)
0x1f0|                        00 00 00 00            |        ....    |        reserved: 0 0x1f8-0x1fc (4)
0x1f0|                                    00 00 00 01|            ....|        count: "simple_gamma" (1) 0x1fc-0x200 (4)
0x200|01 00                                          |..              |        gamma: 1 0x200-0x202 (2)
0x200|      00 00|                                   |  ..|           |        alignment: raw bits 0x202-0x204 (2)
     |                                               |                |      [7]{}: element 0xd8-0x204 (300)
0x0d0|                        67 54 52 43            |        gTRC    |        signature: "gTRC" 0xd8-0xdc (4)
0x0d0|                                    00 00 01 f4|            ....|        offset: 500 0xdc-0xe0 (4)
0x0e0|00 00 00 0e                                    |....            |        size: 14 0xe0-0xe4 (4)
0x1f0|            63 75 72 76                        |    curv        |        type: "curv" 0x1f4-0x1f8 (4)
0x1f0|                        00 00 00 00            |        ....    |        reserved: 0 0x1f8-0x1fc (4)
0x1f0|                                    00 00 00 01|            ....|        count: "simple_gamma" (1) 0x1fc-0x200 (4)
0x200|01 00                                          |..              |        gamma: 1 0x200-0x202 (2)
0x200|      00 00|                                   |  ..|           |        alignment: raw bits 0x202-0x204 (2)
     |                                               |                |      [8]{}: element 0xe4-0x204 (288)
0x0e0|            62 54 52 43                        |    bTRC        |        signature: "bTRC" 0xe4-0xe8 (4)
0x0e0|                        00 00 01 f4            |        ....    |        offset: 500 0xe8-0xec (4)
0x0e0|                                    00 00 00 0e|            ....|        size: 14 0xec-0xf0 (4)
0x1f0|            63 75 72 76                        |    curv        |        type: "curv" 0x1f4-0x1f8 (4)
0x1f0|                        00 00 00 00            |        ....    |        reserved: 0 0x1f8-0x1fc (4)
0x1f0|                                    00 00 00 01|            ....|        count: "simple_gamma" (1) 0x1fc-0x200 (4)
0x200|01 00                                          |..              |        gamma: 1 0x200-0x202 (2)
0x200|      00 00|                                   |  ..|           |        alignment: raw bits 0x202-0x204 (2)
