$ fq -d stl dv file.stl
     |00 01 02 03 04 05 06 07 08 09 0a 0b 0c 0d 0e 0f|0123456789abcdef|.{}: file.stl (stl) 0x0-0x11c (284)
0x000|45 78 70 6f 72 74 65 64 20 66 72 6f 6d 20 42 6c|Exported from Bl|  header: "Exported from Blender-3.6.23" 0x0-0x50 (80)
*    |until 0x4f.7 (80)                              |                |
0x050|04 00 00 00                                    |....            |  num_facets: 4 0x50-0x54 (4)
     |                                               |                |  facets[0:4]: 0x54-0x11c (200)
     |                                               |                |    [0]{}: facet 0x54-0x86 (50)
     |                                               |                |      normal{}: 0x54-0x60 (12)
0x050|            00 00 00 00                        |    ....        |        x: 0 0x54-0x58 (4)
0x050|                        00 00 80 bf            |        ....    |        y: -1 0x58-0x5c (4)
0x050|                                    00 00 00 00|            ....|        z: 0 0x5c-0x60 (4)
     |                                               |                |      vertices[0:3]: 0x60-0x84 (36)
     |                                               |                |        [0]{}: vertex 0x60-0x6c (12)
0x060|00 00 80 3f                                    |...?            |          x: 1 0x60-0x64 (4)
0x060|            00 00 00 00                        |    ....        |          y: 0 0x64-0x68 (4)
0x060|                        00 00 00 00            |        ....    |          z: 0 0x68-0x6c (4)
     |                                               |                |        [1]{}: vertex 0x6c-0x78 (12)
0x060|                                    00 00 00 00|            ....|          x: 0 0x6c-0x70 (4)
0x070|00 00 00 00                                    |....            |          y: 0 0x70-0x74 (4)
0x070|            00 00 80 3f                        |    ...?        |          z: 1 0x74-0x78 (4)
     |                                               |                |        [2]{}: vertex 0x78-0x84 (12)
0x070|                        00 00 00 00            |        ....    |          x: 0 0x78-0x7c (4)
0x070|                                    00 00 00 00|            ....|          y: 0 0x7c-0x80 (4)
0x080|00 00 00 00                                    |....            |          z: 0 0x80-0x84 (4)
0x080|            00 00                              |    ..          |      attribute_byte_count: 0 0x84-0x86 (2)
     |                                               |                |    [1]{}: facet 0x86-0xb8 (50)
     |                                               |                |      normal{}: 0x86-0x92 (12)
0x080|                  00 00 80 bf                  |      ....      |        x: -1 0x86-0x8a (4)
0x080|                              00 00 00 00      |          ....  |        y: 0 0x8a-0x8e (4)
0x080|                                          00 00|              ..|        z: 0 0x8e-0x92 (4)
0x090|00 00                                          |..              |
     |                                               |                |      vertices[0:3]: 0x92-0xb6 (36)
     |                                               |                |        [0]{}: vertex 0x92-0x9e (12)
0x090|      00 00 00 00                              |  ....          |          x: 0 0x92-0x96 (4)
0x090|                  00 00 00 00                  |      ....      |          y: 0 0x96-0x9a (4)
0x090|                              00 00 00 00      |          ....  |          z: 0 0x9a-0x9e (4)
     |                                               |                |        [1]{}: vertex 0x9e-0xaa (12)
0x090|                                          00 00|              ..|          x: 0 0x9e-0xa2 (4)
0x0a0|00 00                                          |..              |
0x0a0|      00 00 00 00                              |  ....          |          y: 0 0xa2-0xa6 (4)
0x0a0|                  00 00 80 3f                  |      ...?      |          z: 1 0xa6-0xaa (4)
     |                                               |                |        [2]{}: vertex 0xaa-0xb6 (12)
0x0a0|                              00 00 00 00      |          ....  |          x: 0 0xaa-0xae (4)
0x0a0|                                          00 00|              ..|          y: 1 0xae-0xb2 (4)
0x0b0|80 3f                                          |.?              |
0x0b0|      00 00 00 00                              |  ....          |          z: 0 0xb2-0xb6 (4)
0x0b0|                  00 00                        |      ..        |      attribute_byte_count: 0 0xb6-0xb8 (2)
     |                                               |                |    [2]{}: facet 0xb8-0xea (50)
     |                                               |                |      normal{}: 0xb8-0xc4 (12)
0x0b0|                        00 00 00 00            |        ....    |        x: 0 0xb8-0xbc (4)
0x0b0|                                    00 00 00 00|            ....|        y: 0 0xbc-0xc0 (4)
0x0c0|00 00 80 bf                                    |....            |        z: -1 0xc0-0xc4 (4)
     |                                               |                |      vertices[0:3]: 0xc4-0xe8 (36)
     |                                               |                |        [0]{}: vertex 0xc4-0xd0 (12)
0x0c0|            00 00 00 00                        |    ....        |          x: 0 0xc4-0xc8 (4)
0x0c0|                        00 00 80 3f            |        ...?    |          y: 1 0xc8-0xcc (4)
0x0c0|                                    00 00 00 00|            ....|          z: 0 0xcc-0xd0 (4)
     |                                               |                |        [1]{}: vertex 0xd0-0xdc (12)
0x0d0|00 00 80 3f                                    |...?            |          x: 1 0xd0-0xd4 (4)
0x0d0|            00 00 00 00                        |    ....        |          y: 0 0xd4-0xd8 (4)
0x0d0|                        00 00 00 00            |        ....    |          z: 0 0xd8-0xdc (4)
     |                                               |                |        [2]{}: vertex 0xdc-0xe8 (12)
0x0d0|                                    00 00 00 00|            ....|          x: 0 0xdc-0xe0 (4)
0x0e0|00 00 00 00                                    |....            |          y: 0 0xe0-0xe4 (4)
0x0e0|            00 00 00 00                        |    ....        |          z: 0 0xe4-0xe8 (4)
0x0e0|                        00 00                  |        ..      |      attribute_byte_count: 0 0xe8-0xea (2)
     |                                               |                |    [3]{}: facet 0xea-0x11c (50)
     |                                               |                |      normal{}: 0xea-0xf6 (12)
0x0e0|                              3a cd 13 3f      |          :..?  |        x: 0.5773502588272095 0xea-0xee (4)
0x0e0|                                          3a cd|              :.|        y: 0.5773502588272095 0xee-0xf2 (4)
0x0f0|13 3f                                          |.?              |
0x0f0|      3a cd 13 3f                              |  :..?          |        z: 0.5773502588272095 0xf2-0xf6 (4)
     |                                               |                |      vertices[0:3]: 0xf6-0x11a (36)
     |                                               |                |        [0]{}: vertex 0xf6-0x102 (12)
0x0f0|                  00 00 00 00                  |      ....      |          x: 0 0xf6-0xfa (4)
0x0f0|                              00 00 80 3f      |          ...?  |          y: 1 0xfa-0xfe (4)
0x0f0|                                          00 00|              ..|          z: 0 0xfe-0x102 (4)
0x100|00 00                                          |..              |
     |                                               |                |        [1]{}: vertex 0x102-0x10e (12)
0x100|      00 00 00 00                              |  ....          |          x: 0 0x102-0x106 (4)
0x100|                  00 00 00 00                  |      ....      |          y: 0 0x106-0x10a (4)
0x100|                              00 00 80 3f      |          ...?  |          z: 1 0x10a-0x10e (4)
     |                                               |                |        [2]{}: vertex 0x10e-0x11a (12)
0x100|                                          00 00|              ..|          x: 1 0x10e-0x112 (4)
0x110|80 3f                                          |.?              |
0x110|      00 00 00 00                              |  ....          |          y: 0 0x112-0x116 (4)
0x110|                  00 00 00 00                  |      ....      |          z: 0 0x116-0x11a (4)
0x110|                              00 00|           |          ..|   |      attribute_byte_count: 0 0x11a-0x11c (2)
