# ffmpeg -f lavfi -i sine -f lavfi -i testsrc -g 1 -c:a aac -c:v h264 -f mp4 -movflags frag_keyframe+empty_moov -t 100ms fragmented.mp4
/fragmented.mp4:
> fq -d mp4 fragmented.mp4 verbose
      |00 01 02 03 04 05 06 07 08 09 0a 0b 0c 0d 0e 0f|                |.: mp4 0x0-0x2b06.7 (11015)
      |                                               |                |  boxes: [9] 0x0-0x2b06.7 (11015)
      |                                               |                |    [0]: {} (box) 0x0-0x23.7 (36)
0x0000|00 00 00 24                                    |...$            |      size: 36 0x0-0x3.7 (4)
0x0000|            66 74 79 70                        |    ftyp        |      type: "ftyp" (File type and compatibility) 0x4-0x7.7 (4)
0x0000|                        69 73 6f 6d            |        isom    |      major_brand: "isom" 0x8-0xb.7 (4)
0x0000|                                    00 00 02 00|            ....|      minor_version: 512 0xc-0xf.7 (4)
      |                                               |                |      brands: [5] 0x10-0x23.7 (20)
0x0010|69 73 6f 6d                                    |isom            |        [0]: "isom" (brand) 0x10-0x13.7 (4)
0x0010|            69 73 6f 36                        |    iso6        |        [1]: "iso6" (brand) 0x14-0x17.7 (4)
0x0010|                        69 73 6f 32            |        iso2    |        [2]: "iso2" (brand) 0x18-0x1b.7 (4)
0x0010|                                    61 76 63 31|            avc1|        [3]: "avc1" (brand) 0x1c-0x1f.7 (4)
0x0020|6d 70 34 31                                    |mp41            |        [4]: "mp41" (brand) 0x20-0x23.7 (4)
      |                                               |                |    [1]: {} (box) 0x24-0x4d8.7 (1205)
0x0020|            00 00 04 b5                        |    ....        |      size: 1205 0x24-0x27.7 (4)
0x0020|                        6d 6f 6f 76            |        moov    |      type: "moov" (Container for all the meta-data) 0x28-0x2b.7 (4)
      |                                               |                |      boxes: [5] 0x2c-0x4d8.7 (1197)
      |                                               |                |        [0]: {} (box) 0x2c-0x97.7 (108)
0x0020|                                    00 00 00 6c|            ...l|          size: 108 0x2c-0x2f.7 (4)
0x0030|6d 76 68 64                                    |mvhd            |          type: "mvhd" (Movie header, overall declarations) 0x30-0x33.7 (4)
0x0030|            00                                 |    .           |          version: 0 0x34-0x34.7 (1)
0x0030|               00 00 00                        |     ...        |          flags: "\x00\x00\x00" 0x35-0x37.7 (3)
0x0030|                        00 00 00 00            |        ....    |          creation_time: 0 0x38-0x3b.7 (4)
0x0030|                                    00 00 00 00|            ....|          modification_time: 0 0x3c-0x3f.7 (4)
0x0040|00 00 03 e8                                    |....            |          time_scale: 1000 0x40-0x43.7 (4)
0x0040|            00 00 00 00                        |    ....        |          duration: 0 0x44-0x47.7 (4)
0x0040|                        00 01 00 00            |        ....    |          preferred_rate: 1 0x48-0x4b.7 (4)
0x0040|                                    01 00      |            ..  |          preferred_volume: 1 0x4c-0x4d.7 (2)
0x0040|                                          00 00|              ..|          reserved: "\x00\x00\x00\x00\x00\x00\x00\x00\x00\x00" 0x4e-0x57.7 (10)
0x0050|00 00 00 00 00 00 00 00                        |........        |
0x0050|                        00 01 00 00 00 00 00 00|        ........|          matrix_structure: "\x00\x01\x00\x00\x00\x00\x00\x00\x00\x00\x00\x00\x00\x00\x00\x00\x00\x01\x00\x00\x00\x00\x00\x00\x00\x00\x00\x00\x00\x00\x00\x00@\x00\x00\x00" 0x58-0x7b.7 (36)
0x0060|00 00 00 00 00 00 00 00 00 01 00 00 00 00 00 00|................|
0x0070|00 00 00 00 00 00 00 00 40 00 00 00            |........@...    |
0x0070|                                    00 00 00 00|            ....|          preview_time: 0 0x7c-0x7f.7 (4)
0x0080|00 00 00 00                                    |....            |          preview_duration: 0 0x80-0x83.7 (4)
0x0080|            00 00 00 00                        |    ....        |          poster_time: 0 0x84-0x87.7 (4)
0x0080|                        00 00 00 00            |        ....    |          selection_time: 0 0x88-0x8b.7 (4)
0x0080|                                    00 00 00 00|            ....|          selection_duration: 0 0x8c-0x8f.7 (4)
0x0090|00 00 00 00                                    |....            |          current_time: 0 0x90-0x93.7 (4)
0x0090|            00 00 00 02                        |    ....        |          next_track_id: 2 0x94-0x97.7 (4)
      |                                               |                |        [1]: {} (box) 0x98-0x283.7 (492)
0x0090|                        00 00 01 ec            |        ....    |          size: 492 0x98-0x9b.7 (4)
0x0090|                                    74 72 61 6b|            trak|          type: "trak" (Container for an individual track or stream) 0x9c-0x9f.7 (4)
      |                                               |                |          boxes: [2] 0xa0-0x283.7 (484)
      |                                               |                |            [0]: {} (box) 0xa0-0xfb.7 (92)
0x00a0|00 00 00 5c                                    |...\            |              size: 92 0xa0-0xa3.7 (4)
0x00a0|            74 6b 68 64                        |    tkhd        |              type: "tkhd" (Track header, overall information about the track) 0xa4-0xa7.7 (4)
0x00a0|                        00                     |        .       |              version: 0 0xa8-0xa8.7 (1)
0x00a0|                           00 00 03            |         ...    |              flags: 3 0xa9-0xab.7 (3)
0x00a0|                                    00 00 00 00|            ....|              creation_time: 0 0xac-0xaf.7 (4)
0x00b0|00 00 00 00                                    |....            |              modification_time: 0 0xb0-0xb3.7 (4)
0x00b0|            00 00 00 01                        |    ....        |              track_id: 1 0xb4-0xb7.7 (4)
0x00b0|                        00 00 00 00            |        ....    |              reserved1: 0 0xb8-0xbb.7 (4)
0x00b0|                                    00 00 00 00|            ....|              duration: 0 0xbc-0xbf.7 (4)
0x00c0|00 00 00 00 00 00 00 00                        |........        |              reserved2: 0000000000000000 0xc0-0xc7.7 (8)
0x00c0|                        00 00                  |        ..      |              layer: 0 0xc8-0xc9.7 (2)
0x00c0|                              00 00            |          ..    |              alternate_group: 0 0xca-0xcb.7 (2)
0x00c0|                                    00 00      |            ..  |              volume: 0 0xcc-0xcd.7 (2)
0x00c0|                                          00 00|              ..|              reserved3: 0 0xce-0xcf.7 (2)
0x00d0|00 01 00 00 00 00 00 00 00 00 00 00 00 00 00 00|................|              matrix_structure: 00010000000000000000000000000000... 0xd0-0xf3.7 (36)
*     |20 bytes more until 0xf3.7                     |                |
0x00f0|            01 40 00 00                        |    .@..        |              track_width: 320 0xf4-0xf7.7 (4)
0x00f0|                        00 f0 00 00            |        ....    |              track_height: 240 0xf8-0xfb.7 (4)
      |                                               |                |            [1]: {} (box) 0xfc-0x283.7 (392)
0x00f0|                                    00 00 01 88|            ....|              size: 392 0xfc-0xff.7 (4)
0x0100|6d 64 69 61                                    |mdia            |              type: "mdia" (Container for the media information in a track) 0x100-0x103.7 (4)
      |                                               |                |              boxes: [3] 0x104-0x283.7 (384)
      |                                               |                |                [0]: {} (box) 0x104-0x123.7 (32)
0x0100|            00 00 00 20                        |    ...         |                  size: 32 0x104-0x107.7 (4)
0x0100|                        6d 64 68 64            |        mdhd    |                  type: "mdhd" (Media header, overall information about the media) 0x108-0x10b.7 (4)
0x0100|                                    00         |            .   |                  version: 0 0x10c-0x10c.7 (1)
0x0100|                                       00 00 00|             ...|                  flags: 0 0x10d-0x10f.7 (3)
0x0110|00 00 00 00                                    |....            |                  creation_time: 0 0x110-0x113.7 (4)
0x0110|            00 00 00 00                        |    ....        |                  modification_time: 0 0x114-0x117.7 (4)
0x0110|                        00 00 32 00            |        ..2.    |                  time_scale: 12800 0x118-0x11b.7 (4)
0x0110|                                    00 00 00 00|            ....|                  duration: 0 0x11c-0x11f.7 (4)
0x0120|55 c4                                          |U.              |                  language: 21956 0x120-0x121.7 (2)
0x0120|      00 00                                    |  ..            |                  quality: 0 0x122-0x123.7 (2)
      |                                               |                |                [1]: {} (box) 0x124-0x150.7 (45)
0x0120|            00 00 00 2d                        |    ...-        |                  size: 45 0x124-0x127.7 (4)
0x0120|                        68 64 6c 72            |        hdlr    |                  type: "hdlr" (Handler, declares the media (handler) type) 0x128-0x12b.7 (4)
0x0120|                                    00         |            .   |                  version: 0 0x12c-0x12c.7 (1)
0x0120|                                       00 00 00|             ...|                  flags: 0 0x12d-0x12f.7 (3)
0x0130|00 00 00 00                                    |....            |                  component_type: "\x00\x00\x00\x00" 0x130-0x133.7 (4)
0x0130|            76 69 64 65                        |    vide        |                  component_subtype: "vide" 0x134-0x137.7 (4)
0x0130|                        00 00 00 00            |        ....    |                  component_manufacturer: "\x00\x00\x00\x00" 0x138-0x13b.7 (4)
0x0130|                                    00 00 00 00|            ....|                  component_flags: 0 0x13c-0x13f.7 (4)
0x0140|00 00 00 00                                    |....            |                  component_flags_mask: 0 0x140-0x143.7 (4)
0x0140|            56 69 64 65 6f 48 61 6e 64 6c 65 72|    VideoHandler|                  component_name: "VideoHandler\x00" 0x144-0x150.7 (13)
0x0150|00                                             |.               |
      |                                               |                |                [2]: {} (box) 0x151-0x283.7 (307)
0x0150|   00 00 01 33                                 | ...3           |                  size: 307 0x151-0x154.7 (4)
0x0150|               6d 69 6e 66                     |     minf       |                  type: "minf" (Media information container) 0x155-0x158.7 (4)
      |                                               |                |                  boxes: [3] 0x159-0x283.7 (299)
      |                                               |                |                    [0]: {} (box) 0x159-0x16c.7 (20)
0x0150|                           00 00 00 14         |         ....   |                      size: 20 0x159-0x15c.7 (4)
0x0150|                                       76 6d 68|             vmh|                      type: "vmhd" (Video media header, overall information (video track only)) 0x15d-0x160.7 (4)
0x0160|64                                             |d               |
0x0160|   00 00 00 01 00 00 00 00 00 00 00 00         | ............   |                      data: 000000010000000000000000 0x161-0x16c.7 (12)
      |                                               |                |                    [1]: {} (box) 0x16d-0x190.7 (36)
0x0160|                                       00 00 00|             ...|                      size: 36 0x16d-0x170.7 (4)
0x0170|24                                             |$               |
0x0170|   64 69 6e 66                                 | dinf           |                      type: "dinf" (Data information box, container) 0x171-0x174.7 (4)
      |                                               |                |                      boxes: [1] 0x175-0x190.7 (28)
      |                                               |                |                        [0]: {} (box) 0x175-0x190.7 (28)
0x0170|               00 00 00 1c                     |     ....       |                          size: 28 0x175-0x178.7 (4)
0x0170|                           64 72 65 66         |         dref   |                          type: "dref" (Data reference box, declares source(s) of media data in track) 0x179-0x17c.7 (4)
0x0170|                                       00      |             .  |                          version: 0 0x17d-0x17d.7 (1)
0x0170|                                          00 00|              ..|                          flags: 0 0x17e-0x180.7 (3)
0x0180|00                                             |.               |
0x0180|   00 00 00 01                                 | ....           |                          num_entries: 1 0x181-0x184.7 (4)
      |                                               |                |                          references: [1] 0x185-0x190.7 (12)
      |                                               |                |                            [0]: {} (reference) 0x185-0x190.7 (12)
0x0180|               00 00 00 0c                     |     ....       |                              size: 12 0x185-0x188.7 (4)
0x0180|                           75 72 6c 20         |         url    |                              type: "url " 0x189-0x18c.7 (4)
0x0180|                                       00      |             .  |                              version: 0 0x18d-0x18d.7 (1)
0x0180|                                          00 00|              ..|                              flags: 1 0x18e-0x190.7 (3)
0x0190|01                                             |.               |
      |                                               |                |                              data:  0x191-NA (0)
      |                                               |                |                    [2]: {} (box) 0x191-0x283.7 (243)
0x0190|   00 00 00 f3                                 | ....           |                      size: 243 0x191-0x194.7 (4)
0x0190|               73 74 62 6c                     |     stbl       |                      type: "stbl" (Sample table box, container for the time/space map) 0x195-0x198.7 (4)
      |                                               |                |                      boxes: [5] 0x199-0x283.7 (235)
      |                                               |                |                        [0]: {} (box) 0x199-0x23f.7 (167)
0x0190|                           00 00 00 a7         |         ....   |                          size: 167 0x199-0x19c.7 (4)
0x0190|                                       73 74 73|             sts|                          type: "stsd" (Sample descriptions (codec types, initialization etc.)) 0x19d-0x1a0.7 (4)
0x01a0|64                                             |d               |
0x01a0|   00                                          | .              |                          version: 0 0x1a1-0x1a1.7 (1)
0x01a0|      00 00 00                                 |  ...           |                          flags: 0 0x1a2-0x1a4.7 (3)
0x01a0|               00 00 00 01                     |     ....       |                          num_entries: 1 0x1a5-0x1a8.7 (4)
      |                                               |                |                          sample_descriptions: [1] 0x1a9-0x23f.7 (151)
      |                                               |                |                            [0]: {} (sample_description) 0x1a9-0x23f.7 (151)
0x01a0|                           00 00 00 97         |         ....   |                              size: 151 0x1a9-0x1ac.7 (4)
0x01a0|                                       61 76 63|             avc|                              data_format: "avc1" 0x1ad-0x1b0.7 (4)
0x01b0|31                                             |1               |
0x01b0|   00 00 00 00 00 00                           | ......         |                              reserved: 000000000000 0x1b1-0x1b6.7 (6)
0x01b0|                     00 01                     |       ..       |                              data_reference_index: 1 0x1b7-0x1b8.7 (2)
0x01b0|                           00 00               |         ..     |                              version: 0 0x1b9-0x1ba.7 (2)
0x01b0|                                 00 00         |           ..   |                              revision_level: 0 0x1bb-0x1bc.7 (2)
0x01b0|                                       00 00 00|             ...|                              max_packet_size: 0 0x1bd-0x1c0.7 (4)
0x01c0|00                                             |.               |
0x01c0|   00 00 00 00                                 | ....           |                              temporal_quality: 0 0x1c1-0x1c4.7 (4)
0x01c0|               00 00 00 00                     |     ....       |                              spatial_quality: 0 0x1c5-0x1c8.7 (4)
0x01c0|                           01 40               |         .@     |                              width: 320 0x1c9-0x1ca.7 (2)
0x01c0|                                 00 f0         |           ..   |                              height: 240 0x1cb-0x1cc.7 (2)
0x01c0|                                       00 48 00|             .H.|                              horizontal_resolution: 72 0x1cd-0x1d0.7 (4)
0x01d0|00                                             |.               |
0x01d0|   00 48 00 00                                 | .H..           |                              vertical_resolution: 72 0x1d1-0x1d4.7 (4)
0x01d0|               00 00 00 00                     |     ....       |                              data_size: 0 0x1d5-0x1d8.7 (4)
0x01d0|                           00 01               |         ..     |                              frame_count: 1 0x1d9-0x1da.7 (2)
0x01d0|                                 00 00 00 00 00|           .....|                              compression_name: "\x00\x00\x00\x00\x00\x00\x00\x00\x00\x00\x00\x00\x00\x00\x00\x00\x00\x00\x00\x00\x00\x00\x00\x00\x00\x00\x00\x00\x00\x00\x00\x00" 0x1db-0x1fa.7 (32)
0x01e0|00 00 00 00 00 00 00 00 00 00 00 00 00 00 00 00|................|
0x01f0|00 00 00 00 00 00 00 00 00 00 00               |...........     |
0x01f0|                                 00 18         |           ..   |                              depth: 24 0x1fb-0x1fc.7 (2)
0x01f0|                                       ff ff   |             .. |                              color_table_id: -1 0x1fd-0x1fe.7 (2)
      |                                               |                |                              boxes: [2] 0x1ff-0x23f.7 (65)
      |                                               |                |                                [0]: {} (box) 0x1ff-0x22f.7 (49)
0x01f0|                                             00|               .|                                  size: 49 0x1ff-0x202.7 (4)
0x0200|00 00 31                                       |..1             |
0x0200|         61 76 63 43                           |   avcC         |                                  type: "avcC" 0x203-0x206.7 (4)
      |                                               |                |                                  value: avc_dcr 0x207-0x22f.7 (41)
0x0200|                     01                        |       .        |                                    configuration_version: 1 0x207-0x207.7 (1)
0x0200|                        f4                     |        .       |                                    profile_indication: High 4:4:4 Predictive Profile (244) 0x208-0x208.7 (1)
0x0200|                           10                  |         .      |                                    profile_compatibility: 16 0x209-0x209.7 (1)
0x0200|                              0d               |          .     |                                    level_indication: 1.3 (13) 0x20a-0x20a.7 (1)
0x0200|                                 ff            |           .    |                                    reserved0: 63 0x20b-0x20b.5 (0.6)
0x0200|                                 ff            |           .    |                                    length_size_minus_one: 3 0x20b.6-0x20b.7 (0.2)
0x0200|                                    e1         |            .   |                                    reserved1: 7 0x20c-0x20c.2 (0.3)
0x0200|                                    e1         |            .   |                                    num_of_sequence_parameter_sets: 1 0x20c.3-0x20c.7 (0.5)
      |                                               |                |                                    sequence_parameter_sets: [1] 0x20d-0x222.7 (22)
      |                                               |                |                                      [0]: {} (set) 0x20d-0x222.7 (22)
0x0200|                                       00 14   |             .. |                                        length: 20 0x20d-0x20e.7 (2)
      |                                               |                |                                        nal: avc_nalu 0x20f-0x222.7 (20)
      |                                               |                |                                          sps: avc_sps 0x0-0x11.7 (18)
 0x000|f4                                             |.               |                                            profile_idc: High 4:4:4 Predictive Profile (244) 0x0-0x0.7 (1)
 0x000|   10                                          | .              |                                            constraint_set0_flag: false 0x1-0x1 (0.1)
 0x000|   10                                          | .              |                                            constraint_set1_flag: false 0x1.1-0x1.1 (0.1)
 0x000|   10                                          | .              |                                            constraint_set2_flag: false 0x1.2-0x1.2 (0.1)
 0x000|   10                                          | .              |                                            constraint_set3_flag: true 0x1.3-0x1.3 (0.1)
 0x000|   10                                          | .              |                                            constraint_set4_flag: false 0x1.4-0x1.4 (0.1)
 0x000|   10                                          | .              |                                            constraint_set5_flag: false 0x1.5-0x1.5 (0.1)
 0x000|   10                                          | .              |                                            reserved_zero_2bits: 0 0x1.6-0x1.7 (0.2)
 0x000|      0d                                       |  .             |                                            level_idc: 1.3 (13) 0x2-0x2.7 (1)
 0x000|         91                                    |   .            |                                            seq_parameter_set_id: 0 0x3-0x3 (0.1)
 0x000|         91                                    |   .            |                                            chroma_format_idc: 3 0x3.1-0x3.5 (0.5)
 0x000|         91                                    |   .            |                                            separate_colour_plane_flag: false 0x3.6-0x3.6 (0.1)
 0x000|         91                                    |   .            |                                            bit_depth_luma_minus8: 0 0x3.7-0x3.7 (0.1)
 0x000|            97                                 |    .           |                                            bit_depth_chroma_minus8: 0 0x4-0x4 (0.1)
 0x000|            97                                 |    .           |                                            qpprime_y_zero_transform_bypass_flag: false 0x4.1-0x4.1 (0.1)
 0x000|            97                                 |    .           |                                            seq_scaling_matrix_present_flag: false 0x4.2-0x4.2 (0.1)
 0x000|            97                                 |    .           |                                            log2_max_frame_num_minus4: 0 0x4.3-0x4.3 (0.1)
 0x000|            97                                 |    .           |                                            pic_order_cnt_type: 2 0x4.4-0x4.6 (0.3)
 0x000|            97                                 |    .           |                                            max_num_ref_frames: 0 0x4.7-0x4.7 (0.1)
 0x000|               05                              |     .          |                                            gaps_in_frame_num_value_allowed_flag: false 0x5-0x5 (0.1)
 0x000|               05 07                           |     ..         |                                            pic_width_in_mbs_minus1: 19 0x5.1-0x6.1 (1.1)
 0x000|                  07 ec                        |      ..        |                                            pic_height_in_map_units_minus1: 14 0x6.2-0x7 (0.7)
 0x000|                     ec                        |       .        |                                            frame_mbs_only_flag: true 0x7.1-0x7.1 (0.1)
 0x000|                     ec                        |       .        |                                            direct_8x8_inference_flag: true 0x7.2-0x7.2 (0.1)
 0x000|                     ec                        |       .        |                                            frame_cropping_flag: false 0x7.3-0x7.3 (0.1)
 0x000|                     ec                        |       .        |                                            vui_parameters_present_flag: true 0x7.4-0x7.4 (0.1)
      |                                               |                |                                            vui_parameters: {} 0x7.5-0x11.6 (10.2)
 0x000|                     ec                        |       .        |                                              aspect_ratio_info_present_flag: true 0x7.5-0x7.5 (0.1)
 0x000|                     ec 04                     |       ..       |                                              aspect_ratio_idc: 1 0x7.6-0x8.5 (1)
 0x000|                        04                     |        .       |                                              overscan_info_present_flag: false 0x8.6-0x8.6 (0.1)
 0x000|                        04                     |        .       |                                              video_signal_type_present_flag: false 0x8.7-0x8.7 (0.1)
 0x000|                           40                  |         @      |                                              chroma_loc_info_present_flag: false 0x9-0x9 (0.1)
 0x000|                           40                  |         @      |                                              timing_info_present_flag: true 0x9.1-0x9.1 (0.1)
 0x000|                           40 00 00 00 40      |         @...@  |                                              num_units_in_tick: 1 0x9.2-0xd.1 (4)
 0x000|                                       40 00 00|             @..|                                              time_scale: 50 0xd.2-0x11.1 (4)
 0x010|0c 81|                                         |..|             |
 0x010|   81|                                         | .|             |                                              fixed_frame_rate_flag: false 0x11.2-0x11.2 (0.1)
 0x010|   81|                                         | .|             |                                              nal_hrd_parameters_present_flag: false 0x11.3-0x11.3 (0.1)
 0x010|   81|                                         | .|             |                                              vcl_hrd_parameters_present_flag: false 0x11.4-0x11.4 (0.1)
 0x010|   81|                                         | .|             |                                              pic_struct_present_flag: false 0x11.5-0x11.5 (0.1)
 0x010|   81|                                         | .|             |                                              bitstream_restriction_flag: false 0x11.6-0x11.6 (0.1)
 0x010|   81|                                         | .|             |                                            rbsp_trailing_bits: 80 0x11.7-0x11.7 (0.1)
0x0200|                                             67|               g|                                          forbidden_zero_bit: false 0x20f-0x20f (0.1)
0x0200|                                             67|               g|                                          nal_ref_idc: 3 0x20f.1-0x20f.2 (0.2)
0x0200|                                             67|               g|                                          nal_unit_type: Sequence parameter set (7) 0x20f.3-0x20f.7 (0.5)
0x0210|f4 10 0d 91 97 05 07 ec 04 40 00 00 03 00 40 00|.........@....@.|                                          data: f4100d91970507ec0440000003004000... 0x210-0x222.7 (19)
0x0220|00 0c 81                                       |...             |
0x0220|         01                                    |   .            |                                    num_of_picture_parameter_sets: 1 0x223-0x223.7 (1)
      |                                               |                |                                    picture_parameter_sets: [1] 0x224-0x22b.7 (8)
      |                                               |                |                                      [0]: {} (set) 0x224-0x22b.7 (8)
0x0220|            00 06                              |    ..          |                                        length: 6 0x224-0x225.7 (2)
      |                                               |                |                                        nal: avc_nalu 0x226-0x22b.7 (6)
      |                                               |                |                                          pps: avc_pps 0x0-0x4.7 (5)
 0x000|ee                                             |.               |                                            pic_parameter_set_id: 0 0x0-0x0 (0.1)
 0x000|ee                                             |.               |                                            seq_parameter_set_id: 0 0x0.1-0x0.1 (0.1)
 0x000|ee                                             |.               |                                            entropy_coding_mode_flag: true 0x0.2-0x0.2 (0.1)
 0x000|ee                                             |.               |                                            bottom_field_pic_order_in_frame_present_flag: false 0x0.3-0x0.3 (0.1)
 0x000|ee                                             |.               |                                            num_slice_groups_minus1: 0 0x0.4-0x0.4 (0.1)
 0x000|ee                                             |.               |                                            num_ref_idx_l0_default_active_minus1: 0 0x0.5-0x0.5 (0.1)
 0x000|ee                                             |.               |                                            num_ref_idx_l1_default_active_minus1: 0 0x0.6-0x0.6 (0.1)
 0x000|ee                                             |.               |                                            weighted_pred_flag: false 0x0.7-0x0.7 (0.1)
 0x000|   0f                                          | .              |                                            weighted_bipred_idc: 0 0x1-0x1.1 (0.2)
 0x000|   0f                                          | .              |                                            pic_init_qp_minus26: 3 0x1.2-0x1.6 (0.5)
 0x000|   0f                                          | .              |                                            pic_init_qs_minus26: 0 0x1.7-0x1.7 (0.1)
 0x000|      11                                       |  .             |                                            chroma_qp_index_offset: -4 0x2-0x2.6 (0.7)
 0x000|      11                                       |  .             |                                            deblocking_filter_control_present_flag: true 0x2.7-0x2.7 (0.1)
 0x000|         21                                    |   !            |                                            constrained_intra_pred_flag: false 0x3-0x3 (0.1)
 0x000|         21                                    |   !            |                                            redundant_pic_cnt_present_flag: false 0x3.1-0x3.1 (0.1)
 0x000|         21                                    |   !            |                                            transform_8x8_mode_flag: true 0x3.2-0x3.2 (0.1)
 0x000|         21                                    |   !            |                                            pic_scaling_matrix_present_flag: false 0x3.3-0x3.3 (0.1)
 0x000|         21 10|                                |   !.|          |                                            second_chroma_qp_index_offset: -4 0x3.4-0x4.2 (0.7)
 0x000|            10|                                |    .|          |                                            rbsp_trailing_bits: 80 0x4.3-0x4.7 (0.5)
0x0220|                  68                           |      h         |                                          forbidden_zero_bit: false 0x226-0x226 (0.1)
0x0220|                  68                           |      h         |                                          nal_ref_idc: 3 0x226.1-0x226.2 (0.2)
0x0220|                  68                           |      h         |                                          nal_unit_type: Picture parameter set (8) 0x226.3-0x226.7 (0.5)
0x0220|                     ee 0f 11 21 10            |       ...!.    |                                          data: ee0f112110 0x227-0x22b.7 (5)
0x0220|                                    ff f8 f8 00|            ....|                                    data: fff8f800 0x22c-0x22f.7 (4)
      |                                               |                |                                [1]: {} (box) 0x230-0x23f.7 (16)
0x0230|00 00 00 10                                    |....            |                                  size: 16 0x230-0x233.7 (4)
0x0230|            70 61 73 70                        |    pasp        |                                  type: "pasp" (Pixel aspect ratio) 0x234-0x237.7 (4)
0x0230|                        00 00 00 01            |        ....    |                                  h_spacing: 1 0x238-0x23b.7 (4)
0x0230|                                    00 00 00 01|            ....|                                  v_spacing: 1 0x23c-0x23f.7 (4)
      |                                               |                |                        [1]: {} (box) 0x240-0x24f.7 (16)
0x0240|00 00 00 10                                    |....            |                          size: 16 0x240-0x243.7 (4)
0x0240|            73 74 74 73                        |    stts        |                          type: "stts" (Sample time-to-sample) 0x244-0x247.7 (4)
0x0240|                        00                     |        .       |                          version: 0 0x248-0x248.7 (1)
0x0240|                           00 00 00            |         ...    |                          flags: 0 0x249-0x24b.7 (3)
0x0240|                                    00 00 00 00|            ....|                          num_entries: 0 0x24c-0x24f.7 (4)
      |                                               |                |                          table: [0] 0x250-NA (0)
      |                                               |                |                        [2]: {} (box) 0x250-0x25f.7 (16)
0x0250|00 00 00 10                                    |....            |                          size: 16 0x250-0x253.7 (4)
0x0250|            73 74 73 63                        |    stsc        |                          type: "stsc" (Sample-to-chunk, partial data-offset information) 0x254-0x257.7 (4)
0x0250|                        00                     |        .       |                          version: 0 0x258-0x258.7 (1)
0x0250|                           00 00 00            |         ...    |                          flags: 0 0x259-0x25b.7 (3)
0x0250|                                    00 00 00 00|            ....|                          num_entries: 0 0x25c-0x25f.7 (4)
      |                                               |                |                          table: [0] 0x260-NA (0)
      |                                               |                |                        [3]: {} (box) 0x260-0x273.7 (20)
0x0260|00 00 00 14                                    |....            |                          size: 20 0x260-0x263.7 (4)
0x0260|            73 74 73 7a                        |    stsz        |                          type: "stsz" (Sample sizes (framing)) 0x264-0x267.7 (4)
0x0260|                        00                     |        .       |                          version: 0 0x268-0x268.7 (1)
0x0260|                           00 00 00            |         ...    |                          flags: 0 0x269-0x26b.7 (3)
0x0260|                                    00 00 00 00|            ....|                          sample_size: 0 0x26c-0x26f.7 (4)
0x0270|00 00 00 00                                    |....            |                          num_entries: 0 0x270-0x273.7 (4)
      |                                               |                |                          table: [0] 0x274-NA (0)
      |                                               |                |                        [4]: {} (box) 0x274-0x283.7 (16)
0x0270|            00 00 00 10                        |    ....        |                          size: 16 0x274-0x277.7 (4)
0x0270|                        73 74 63 6f            |        stco    |                          type: "stco" (Chunk offset, partial data-offset information) 0x278-0x27b.7 (4)
0x0270|                                    00         |            .   |                          version: 0 0x27c-0x27c.7 (1)
0x0270|                                       00 00 00|             ...|                          flags: 0 0x27d-0x27f.7 (3)
0x0280|00 00 00 00                                    |....            |                          num_entries: 0 0x280-0x283.7 (4)
      |                                               |                |                          table: [0] 0x284-NA (0)
      |                                               |                |        [2]: {} (box) 0x284-0x42e.7 (427)
0x0280|            00 00 01 ab                        |    ....        |          size: 427 0x284-0x287.7 (4)
0x0280|                        74 72 61 6b            |        trak    |          type: "trak" (Container for an individual track or stream) 0x288-0x28b.7 (4)
      |                                               |                |          boxes: [2] 0x28c-0x42e.7 (419)
      |                                               |                |            [0]: {} (box) 0x28c-0x2e7.7 (92)
0x0280|                                    00 00 00 5c|            ...\|              size: 92 0x28c-0x28f.7 (4)
0x0290|74 6b 68 64                                    |tkhd            |              type: "tkhd" (Track header, overall information about the track) 0x290-0x293.7 (4)
0x0290|            00                                 |    .           |              version: 0 0x294-0x294.7 (1)
0x0290|               00 00 03                        |     ...        |              flags: 3 0x295-0x297.7 (3)
0x0290|                        00 00 00 00            |        ....    |              creation_time: 0 0x298-0x29b.7 (4)
0x0290|                                    00 00 00 00|            ....|              modification_time: 0 0x29c-0x29f.7 (4)
0x02a0|00 00 00 02                                    |....            |              track_id: 2 0x2a0-0x2a3.7 (4)
0x02a0|            00 00 00 00                        |    ....        |              reserved1: 0 0x2a4-0x2a7.7 (4)
0x02a0|                        00 00 00 00            |        ....    |              duration: 0 0x2a8-0x2ab.7 (4)
0x02a0|                                    00 00 00 00|            ....|              reserved2: 0000000000000000 0x2ac-0x2b3.7 (8)
0x02b0|00 00 00 00                                    |....            |
0x02b0|            00 00                              |    ..          |              layer: 0 0x2b4-0x2b5.7 (2)
0x02b0|                  00 01                        |      ..        |              alternate_group: 1 0x2b6-0x2b7.7 (2)
0x02b0|                        01 00                  |        ..      |              volume: 1 0x2b8-0x2b9.7 (2)
0x02b0|                              00 00            |          ..    |              reserved3: 0 0x2ba-0x2bb.7 (2)
0x02b0|                                    00 01 00 00|            ....|              matrix_structure: 00010000000000000000000000000000... 0x2bc-0x2df.7 (36)
0x02c0|00 00 00 00 00 00 00 00 00 00 00 00 00 01 00 00|................|
0x02d0|00 00 00 00 00 00 00 00 00 00 00 00 40 00 00 00|............@...|
0x02e0|00 00 00 00                                    |....            |              track_width: 0 0x2e0-0x2e3.7 (4)
0x02e0|            00 00 00 00                        |    ....        |              track_height: 0 0x2e4-0x2e7.7 (4)
      |                                               |                |            [1]: {} (box) 0x2e8-0x42e.7 (327)
0x02e0|                        00 00 01 47            |        ...G    |              size: 327 0x2e8-0x2eb.7 (4)
0x02e0|                                    6d 64 69 61|            mdia|              type: "mdia" (Container for the media information in a track) 0x2ec-0x2ef.7 (4)
      |                                               |                |              boxes: [3] 0x2f0-0x42e.7 (319)
      |                                               |                |                [0]: {} (box) 0x2f0-0x30f.7 (32)
0x02f0|00 00 00 20                                    |...             |                  size: 32 0x2f0-0x2f3.7 (4)
0x02f0|            6d 64 68 64                        |    mdhd        |                  type: "mdhd" (Media header, overall information about the media) 0x2f4-0x2f7.7 (4)
0x02f0|                        00                     |        .       |                  version: 0 0x2f8-0x2f8.7 (1)
0x02f0|                           00 00 00            |         ...    |                  flags: 0 0x2f9-0x2fb.7 (3)
0x02f0|                                    00 00 00 00|            ....|                  creation_time: 0 0x2fc-0x2ff.7 (4)
0x0300|00 00 00 00                                    |....            |                  modification_time: 0 0x300-0x303.7 (4)
0x0300|            00 00 ac 44                        |    ...D        |                  time_scale: 44100 0x304-0x307.7 (4)
0x0300|                        00 00 00 00            |        ....    |                  duration: 0 0x308-0x30b.7 (4)
0x0300|                                    55 c4      |            U.  |                  language: 21956 0x30c-0x30d.7 (2)
0x0300|                                          00 00|              ..|                  quality: 0 0x30e-0x30f.7 (2)
      |                                               |                |                [1]: {} (box) 0x310-0x33c.7 (45)
0x0310|00 00 00 2d                                    |...-            |                  size: 45 0x310-0x313.7 (4)
0x0310|            68 64 6c 72                        |    hdlr        |                  type: "hdlr" (Handler, declares the media (handler) type) 0x314-0x317.7 (4)
0x0310|                        00                     |        .       |                  version: 0 0x318-0x318.7 (1)
0x0310|                           00 00 00            |         ...    |                  flags: 0 0x319-0x31b.7 (3)
0x0310|                                    00 00 00 00|            ....|                  component_type: "\x00\x00\x00\x00" 0x31c-0x31f.7 (4)
0x0320|73 6f 75 6e                                    |soun            |                  component_subtype: "soun" 0x320-0x323.7 (4)
0x0320|            00 00 00 00                        |    ....        |                  component_manufacturer: "\x00\x00\x00\x00" 0x324-0x327.7 (4)
0x0320|                        00 00 00 00            |        ....    |                  component_flags: 0 0x328-0x32b.7 (4)
0x0320|                                    00 00 00 00|            ....|                  component_flags_mask: 0 0x32c-0x32f.7 (4)
0x0330|53 6f 75 6e 64 48 61 6e 64 6c 65 72 00         |SoundHandler.   |                  component_name: "SoundHandler\x00" 0x330-0x33c.7 (13)
      |                                               |                |                [2]: {} (box) 0x33d-0x42e.7 (242)
0x0330|                                       00 00 00|             ...|                  size: 242 0x33d-0x340.7 (4)
0x0340|f2                                             |.               |
0x0340|   6d 69 6e 66                                 | minf           |                  type: "minf" (Media information container) 0x341-0x344.7 (4)
      |                                               |                |                  boxes: [3] 0x345-0x42e.7 (234)
      |                                               |                |                    [0]: {} (box) 0x345-0x354.7 (16)
0x0340|               00 00 00 10                     |     ....       |                      size: 16 0x345-0x348.7 (4)
0x0340|                           73 6d 68 64         |         smhd   |                      type: "smhd" (Sound media header, overall information (sound track only)) 0x349-0x34c.7 (4)
0x0340|                                       00 00 00|             ...|                      data: 0000000000000000 0x34d-0x354.7 (8)
0x0350|00 00 00 00 00                                 |.....           |
      |                                               |                |                    [1]: {} (box) 0x355-0x378.7 (36)
0x0350|               00 00 00 24                     |     ...$       |                      size: 36 0x355-0x358.7 (4)
0x0350|                           64 69 6e 66         |         dinf   |                      type: "dinf" (Data information box, container) 0x359-0x35c.7 (4)
      |                                               |                |                      boxes: [1] 0x35d-0x378.7 (28)
      |                                               |                |                        [0]: {} (box) 0x35d-0x378.7 (28)
0x0350|                                       00 00 00|             ...|                          size: 28 0x35d-0x360.7 (4)
0x0360|1c                                             |.               |
0x0360|   64 72 65 66                                 | dref           |                          type: "dref" (Data reference box, declares source(s) of media data in track) 0x361-0x364.7 (4)
0x0360|               00                              |     .          |                          version: 0 0x365-0x365.7 (1)
0x0360|                  00 00 00                     |      ...       |                          flags: 0 0x366-0x368.7 (3)
0x0360|                           00 00 00 01         |         ....   |                          num_entries: 1 0x369-0x36c.7 (4)
      |                                               |                |                          references: [1] 0x36d-0x378.7 (12)
      |                                               |                |                            [0]: {} (reference) 0x36d-0x378.7 (12)
0x0360|                                       00 00 00|             ...|                              size: 12 0x36d-0x370.7 (4)
0x0370|0c                                             |.               |
0x0370|   75 72 6c 20                                 | url            |                              type: "url " 0x371-0x374.7 (4)
0x0370|               00                              |     .          |                              version: 0 0x375-0x375.7 (1)
0x0370|                  00 00 01                     |      ...       |                              flags: 1 0x376-0x378.7 (3)
      |                                               |                |                              data:  0x379-NA (0)
      |                                               |                |                    [2]: {} (box) 0x379-0x42e.7 (182)
0x0370|                           00 00 00 b6         |         ....   |                      size: 182 0x379-0x37c.7 (4)
0x0370|                                       73 74 62|             stb|                      type: "stbl" (Sample table box, container for the time/space map) 0x37d-0x380.7 (4)
0x0380|6c                                             |l               |
      |                                               |                |                      boxes: [5] 0x381-0x42e.7 (174)
      |                                               |                |                        [0]: {} (box) 0x381-0x3ea.7 (106)
0x0380|   00 00 00 6a                                 | ...j           |                          size: 106 0x381-0x384.7 (4)
0x0380|               73 74 73 64                     |     stsd       |                          type: "stsd" (Sample descriptions (codec types, initialization etc.)) 0x385-0x388.7 (4)
0x0380|                           00                  |         .      |                          version: 0 0x389-0x389.7 (1)
0x0380|                              00 00 00         |          ...   |                          flags: 0 0x38a-0x38c.7 (3)
0x0380|                                       00 00 00|             ...|                          num_entries: 1 0x38d-0x390.7 (4)
0x0390|01                                             |.               |
      |                                               |                |                          sample_descriptions: [1] 0x391-0x3ea.7 (90)
      |                                               |                |                            [0]: {} (sample_description) 0x391-0x3ea.7 (90)
0x0390|   00 00 00 5a                                 | ...Z           |                              size: 90 0x391-0x394.7 (4)
0x0390|               6d 70 34 61                     |     mp4a       |                              data_format: "mp4a" 0x395-0x398.7 (4)
0x0390|                           00 00 00 00 00 00   |         ...... |                              reserved: 000000000000 0x399-0x39e.7 (6)
0x0390|                                             00|               .|                              data_reference_index: 1 0x39f-0x3a0.7 (2)
0x03a0|01                                             |.               |
0x03a0|   00 00                                       | ..             |                              version: 0 0x3a1-0x3a2.7 (2)
0x03a0|         00 00                                 |   ..           |                              revision_level: 0 0x3a3-0x3a4.7 (2)
0x03a0|               00 00 00 00                     |     ....       |                              max_packet_size: 0 0x3a5-0x3a8.7 (4)
0x03a0|                           00 02               |         ..     |                              num_audio_channels: 2 0x3a9-0x3aa.7 (2)
0x03a0|                                 00 10         |           ..   |                              sample_size: 16 0x3ab-0x3ac.7 (2)
0x03a0|                                       00 00   |             .. |                              compression_id: 0 0x3ad-0x3ae.7 (2)
0x03a0|                                             00|               .|                              packet_size: 0 0x3af-0x3b0.7 (2)
0x03b0|00                                             |.               |
0x03b0|   ac 44 00 00                                 | .D..           |                              sample_rate: 44100 0x3b1-0x3b4.7 (4)
      |                                               |                |                              boxes: [1] 0x3b5-0x3ea.7 (54)
      |                                               |                |                                [0]: {} (box) 0x3b5-0x3ea.7 (54)
0x03b0|               00 00 00 36                     |     ...6       |                                  size: 54 0x3b5-0x3b8.7 (4)
0x03b0|                           65 73 64 73         |         esds   |                                  type: "esds" (Elementary stream descriptor) 0x3b9-0x3bc.7 (4)
0x03b0|                                       00 00 00|             ...|                                  version: 0 0x3bd-0x3c0.7 (4)
0x03c0|00                                             |.               |
      |                                               |                |                                  es_descriptor: mpeg_es 0x3c1-0x3ea.7 (42)
0x03c0|   03                                          | .              |                                    tag_id: ES_DescrTag (3) 0x3c1-0x3c1.7 (1)
0x03c0|      80 80 80 25                              |  ...%          |                                    length: 37 0x3c2-0x3c5.7 (4)
0x03c0|                  00 02                        |      ..        |                                    es_id: 2 0x3c6-0x3c7.7 (2)
0x03c0|                        00                     |        .       |                                    stream_dependency_flag: false 0x3c8-0x3c8 (0.1)
0x03c0|                        00                     |        .       |                                    url_flag: false 0x3c8.1-0x3c8.1 (0.1)
0x03c0|                        00                     |        .       |                                    ocr_stream_flag: false 0x3c8.2-0x3c8.2 (0.1)
0x03c0|                        00                     |        .       |                                    stream_priority: 0 0x3c8.3-0x3c8.7 (0.5)
      |                                               |                |                                    dec_config_descr: {} 0x3c9-0x3e4.7 (28)
0x03c0|                           04                  |         .      |                                      tag_id: DecoderConfigDescrTag (4) 0x3c9-0x3c9.7 (1)
0x03c0|                              80 80 80 17      |          ....  |                                      length: 23 0x3ca-0x3cd.7 (4)
0x03c0|                                          40   |              @ |                                      object_type_indication: MPEGObjectTypeAAC (64) 0x3ce-0x3ce.7 (1)
0x03c0|                                             15|               .|                                      stream_type: AudioStream (5) 0x3cf-0x3cf.5 (0.6)
0x03c0|                                             15|               .|                                      upsteam: false 0x3cf.6-0x3cf.6 (0.1)
0x03c0|                                             15|               .|                                      specific_info_flag: true 0x3cf.7-0x3cf.7 (0.1)
0x03d0|00 00 00                                       |...             |                                      buffer_size_db: 0 0x3d0-0x3d2.7 (3)
0x03d0|         00 01 0d 88                           |   ....         |                                      max_bit_rate: 69000 0x3d3-0x3d6.7 (4)
0x03d0|                     00 00 00 00               |       ....     |                                      avg_bit_rate: 0 0x3d7-0x3da.7 (4)
      |                                               |                |                                      decoder_specific_info: {} 0x3db-0x3e4.7 (10)
0x03d0|                                 05            |           .    |                                        tag_id: DecSpecificInfoTag (5) 0x3db-0x3db.7 (1)
0x03d0|                                    80 80 80 05|            ....|                                        length: 5 0x3dc-0x3df.7 (4)
      |                                               |                |                                        audio_specific_config: mpeg_asc 0x3e0-0x3e4.7 (5)
0x03e0|12                                             |.               |                                          object_type: AAC LC (Low Complexity) (2) 0x3e0-0x3e0.4 (0.5)
0x03e0|12 08                                          |..              |                                          frequency_index: 44100 0x3e0.5-0x3e1 (0.4)
0x03e0|   08                                          | .              |                                          channel_configuration: channel: front-center (1) 0x3e1.1-0x3e1.4 (0.4)
0x03e0|   08 56 e5 00                                 | .V..           |                                          var_aot_or_byte_align: 0adca000 0x3e1.5-0x3e4.7 (3.3)
      |                                               |                |                                    sl_config_descr: {} 0x3e5-0x3ea.7 (6)
0x03e0|               06                              |     .          |                                      tag_id: SLConfigDescrTag (6) 0x3e5-0x3e5.7 (1)
0x03e0|                  80 80 80 01                  |      ....      |                                      length: 1 0x3e6-0x3e9.7 (4)
0x03e0|                              02               |          .     |                                      data: 02 0x3ea-0x3ea.7 (1)
      |                                               |                |                        [1]: {} (box) 0x3eb-0x3fa.7 (16)
0x03e0|                                 00 00 00 10   |           .... |                          size: 16 0x3eb-0x3ee.7 (4)
0x03e0|                                             73|               s|                          type: "stts" (Sample time-to-sample) 0x3ef-0x3f2.7 (4)
0x03f0|74 74 73                                       |tts             |
0x03f0|         00                                    |   .            |                          version: 0 0x3f3-0x3f3.7 (1)
0x03f0|            00 00 00                           |    ...         |                          flags: 0 0x3f4-0x3f6.7 (3)
0x03f0|                     00 00 00 00               |       ....     |                          num_entries: 0 0x3f7-0x3fa.7 (4)
      |                                               |                |                          table: [0] 0x3fb-NA (0)
      |                                               |                |                        [2]: {} (box) 0x3fb-0x40a.7 (16)
0x03f0|                                 00 00 00 10   |           .... |                          size: 16 0x3fb-0x3fe.7 (4)
0x03f0|                                             73|               s|                          type: "stsc" (Sample-to-chunk, partial data-offset information) 0x3ff-0x402.7 (4)
0x0400|74 73 63                                       |tsc             |
0x0400|         00                                    |   .            |                          version: 0 0x403-0x403.7 (1)
0x0400|            00 00 00                           |    ...         |                          flags: 0 0x404-0x406.7 (3)
0x0400|                     00 00 00 00               |       ....     |                          num_entries: 0 0x407-0x40a.7 (4)
      |                                               |                |                          table: [0] 0x40b-NA (0)
      |                                               |                |                        [3]: {} (box) 0x40b-0x41e.7 (20)
0x0400|                                 00 00 00 14   |           .... |                          size: 20 0x40b-0x40e.7 (4)
0x0400|                                             73|               s|                          type: "stsz" (Sample sizes (framing)) 0x40f-0x412.7 (4)
0x0410|74 73 7a                                       |tsz             |
0x0410|         00                                    |   .            |                          version: 0 0x413-0x413.7 (1)
0x0410|            00 00 00                           |    ...         |                          flags: 0 0x414-0x416.7 (3)
0x0410|                     00 00 00 00               |       ....     |                          sample_size: 0 0x417-0x41a.7 (4)
0x0410|                                 00 00 00 00   |           .... |                          num_entries: 0 0x41b-0x41e.7 (4)
      |                                               |                |                          table: [0] 0x41f-NA (0)
      |                                               |                |                        [4]: {} (box) 0x41f-0x42e.7 (16)
0x0410|                                             00|               .|                          size: 16 0x41f-0x422.7 (4)
0x0420|00 00 10                                       |...             |
0x0420|         73 74 63 6f                           |   stco         |                          type: "stco" (Chunk offset, partial data-offset information) 0x423-0x426.7 (4)
0x0420|                     00                        |       .        |                          version: 0 0x427-0x427.7 (1)
0x0420|                        00 00 00               |        ...     |                          flags: 0 0x428-0x42a.7 (3)
0x0420|                                 00 00 00 00   |           .... |                          num_entries: 0 0x42b-0x42e.7 (4)
      |                                               |                |                          table: [0] 0x42f-NA (0)
      |                                               |                |        [3]: {} (box) 0x42f-0x476.7 (72)
0x0420|                                             00|               .|          size: 72 0x42f-0x432.7 (4)
0x0430|00 00 48                                       |..H             |
0x0430|         6d 76 65 78                           |   mvex         |          type: "mvex" (Movie extends box) 0x433-0x436.7 (4)
      |                                               |                |          boxes: [2] 0x437-0x476.7 (64)
      |                                               |                |            [0]: {} (box) 0x437-0x456.7 (32)
0x0430|                     00 00 00 20               |       ...      |              size: 32 0x437-0x43a.7 (4)
0x0430|                                 74 72 65 78   |           trex |              type: "trex" (Track extends defaults) 0x43b-0x43e.7 (4)
0x0430|                                             00|               .|              version: 0 0x43f-0x43f.7 (1)
0x0440|00 00 00                                       |...             |              flags: 0 0x440-0x442.7 (3)
0x0440|         00 00 00 01                           |   ....         |              track_id: 1 0x443-0x446.7 (4)
0x0440|                     00 00 00 01               |       ....     |              default_sample_description_index: 1 0x447-0x44a.7 (4)
0x0440|                                 00 00 00 00   |           .... |              default_sample_duration: 0 0x44b-0x44e.7 (4)
0x0440|                                             00|               .|              default_sample_size: 0 0x44f-0x452.7 (4)
0x0450|00 00 00                                       |...             |
0x0450|         00                                    |   .            |              reserved0: 0 0x453-0x453.3 (0.4)
0x0450|         00                                    |   .            |              is_leading: 0 0x453.4-0x453.5 (0.2)
0x0450|         00                                    |   .            |              sample_depends_on: 0 0x453.6-0x453.7 (0.2)
0x0450|            00                                 |    .           |              sample_is_depended_on: 0 0x454-0x454.1 (0.2)
0x0450|            00                                 |    .           |              sample_has_redundancy: 0 0x454.2-0x454.3 (0.2)
0x0450|            00                                 |    .           |              sample_padding_value: 0 0x454.4-0x454.6 (0.3)
0x0450|            00                                 |    .           |              sample_is_non_sync_sample: 0 0x454.7-0x454.7 (0.1)
0x0450|               00 00                           |     ..         |              sample_degradation_priority: 0 0x455-0x456.7 (2)
      |                                               |                |            [1]: {} (box) 0x457-0x476.7 (32)
0x0450|                     00 00 00 20               |       ...      |              size: 32 0x457-0x45a.7 (4)
0x0450|                                 74 72 65 78   |           trex |              type: "trex" (Track extends defaults) 0x45b-0x45e.7 (4)
0x0450|                                             00|               .|              version: 0 0x45f-0x45f.7 (1)
0x0460|00 00 00                                       |...             |              flags: 0 0x460-0x462.7 (3)
0x0460|         00 00 00 02                           |   ....         |              track_id: 2 0x463-0x466.7 (4)
0x0460|                     00 00 00 01               |       ....     |              default_sample_description_index: 1 0x467-0x46a.7 (4)
0x0460|                                 00 00 00 00   |           .... |              default_sample_duration: 0 0x46b-0x46e.7 (4)
0x0460|                                             00|               .|              default_sample_size: 0 0x46f-0x472.7 (4)
0x0470|00 00 00                                       |...             |
0x0470|         00                                    |   .            |              reserved0: 0 0x473-0x473.3 (0.4)
0x0470|         00                                    |   .            |              is_leading: 0 0x473.4-0x473.5 (0.2)
0x0470|         00                                    |   .            |              sample_depends_on: 0 0x473.6-0x473.7 (0.2)
0x0470|            00                                 |    .           |              sample_is_depended_on: 0 0x474-0x474.1 (0.2)
0x0470|            00                                 |    .           |              sample_has_redundancy: 0 0x474.2-0x474.3 (0.2)
0x0470|            00                                 |    .           |              sample_padding_value: 0 0x474.4-0x474.6 (0.3)
0x0470|            00                                 |    .           |              sample_is_non_sync_sample: 0 0x474.7-0x474.7 (0.1)
0x0470|               00 00                           |     ..         |              sample_degradation_priority: 0 0x475-0x476.7 (2)
      |                                               |                |        [4]: {} (box) 0x477-0x4d8.7 (98)
0x0470|                     00 00 00 62               |       ...b     |          size: 98 0x477-0x47a.7 (4)
0x0470|                                 75 64 74 61   |           udta |          type: "udta" (User-data) 0x47b-0x47e.7 (4)
      |                                               |                |          boxes: [1] 0x47f-0x4d8.7 (90)
      |                                               |                |            [0]: {} (box) 0x47f-0x4d8.7 (90)
0x0470|                                             00|               .|              size: 90 0x47f-0x482.7 (4)
0x0480|00 00 5a                                       |..Z             |
0x0480|         6d 65 74 61                           |   meta         |              type: "meta" (Metadata container) 0x483-0x486.7 (4)
0x0480|                     00 00 00 00               |       ....     |              maybe_flags: 0 0x487-0x48a.7 (4)
      |                                               |                |              boxes: [2] 0x48b-0x4d8.7 (78)
      |                                               |                |                [0]: {} (box) 0x48b-0x4ab.7 (33)
0x0480|                                 00 00 00 21   |           ...! |                  size: 33 0x48b-0x48e.7 (4)
0x0480|                                             68|               h|                  type: "hdlr" (Handler, declares the media (handler) type) 0x48f-0x492.7 (4)
0x0490|64 6c 72                                       |dlr             |
0x0490|         00                                    |   .            |                  version: 0 0x493-0x493.7 (1)
0x0490|            00 00 00                           |    ...         |                  flags: 0 0x494-0x496.7 (3)
0x0490|                     00 00 00 00               |       ....     |                  component_type: "\x00\x00\x00\x00" 0x497-0x49a.7 (4)
0x0490|                                 6d 64 69 72   |           mdir |                  component_subtype: "mdir" 0x49b-0x49e.7 (4)
0x0490|                                             61|               a|                  component_manufacturer: "appl" 0x49f-0x4a2.7 (4)
0x04a0|70 70 6c                                       |ppl             |
0x04a0|         00 00 00 00                           |   ....         |                  component_flags: 0 0x4a3-0x4a6.7 (4)
0x04a0|                     00 00 00 00               |       ....     |                  component_flags_mask: 0 0x4a7-0x4aa.7 (4)
0x04a0|                                 00            |           .    |                  component_name: "\x00" 0x4ab-0x4ab.7 (1)
      |                                               |                |                [1]: {} (box) 0x4ac-0x4d8.7 (45)
0x04a0|                                    00 00 00 2d|            ...-|                  size: 45 0x4ac-0x4af.7 (4)
0x04b0|69 6c 73 74                                    |ilst            |                  type: "ilst" 0x4b0-0x4b3.7 (4)
      |                                               |                |                  boxes: [1] 0x4b4-0x4d8.7 (37)
      |                                               |                |                    [0]: {} (box) 0x4b4-0x4d8.7 (37)
0x04b0|            00 00 00 25                        |    ...%        |                      size: 37 0x4b4-0x4b7.7 (4)
0x04b0|                        a9 74 6f 6f            |        .too    |                      type: "\xa9too" 0x4b8-0x4bb.7 (4)
      |                                               |                |                      boxes: [1] 0x4bc-0x4d8.7 (29)
      |                                               |                |                        [0]: {} (box) 0x4bc-0x4d8.7 (29)
0x04b0|                                    00 00 00 1d|            ....|                          size: 29 0x4bc-0x4bf.7 (4)
0x04c0|64 61 74 61                                    |data            |                          type: "data" 0x4c0-0x4c3.7 (4)
0x04c0|            00                                 |    .           |                          version: 0 0x4c4-0x4c4.7 (1)
0x04c0|               00 00 01                        |     ...        |                          flags: 1 0x4c5-0x4c7.7 (3)
0x04c0|                        00 00 00 00            |        ....    |                          reserved: 0 0x4c8-0x4cb.7 (4)
0x04c0|                                    4c 61 76 66|            Lavf|                          data: "Lavf58.45.100" 0x4cc-0x4d8.7 (13)
0x04d0|35 38 2e 34 35 2e 31 30 30                     |58.45.100       |
      |                                               |                |    [2]: {} (box) 0x4d9-0x5a8.7 (208)
0x04d0|                           00 00 00 d0         |         ....   |      size: 208 0x4d9-0x4dc.7 (4)
0x04d0|                                       6d 6f 6f|             moo|      type: "moof" (Movie fragment) 0x4dd-0x4e0.7 (4)
0x04e0|66                                             |f               |
      |                                               |                |      boxes: [3] 0x4e1-0x5a8.7 (200)
      |                                               |                |        [0]: {} (box) 0x4e1-0x4f0.7 (16)
0x04e0|   00 00 00 10                                 | ....           |          size: 16 0x4e1-0x4e4.7 (4)
0x04e0|               6d 66 68 64                     |     mfhd       |          type: "mfhd" (Movie fragment header) 0x4e5-0x4e8.7 (4)
0x04e0|                           00                  |         .      |          version: 0 0x4e9-0x4e9.7 (1)
0x04e0|                              00 00 00         |          ...   |          flags: 0 0x4ea-0x4ec.7 (3)
0x04e0|                                       00 00 00|             ...|          sequence_number: 1 0x4ed-0x4f0.7 (4)
0x04f0|01                                             |.               |
      |                                               |                |        [1]: {} (box) 0x4f1-0x548.7 (88)
0x04f0|   00 00 00 58                                 | ...X           |          size: 88 0x4f1-0x4f4.7 (4)
0x04f0|               74 72 61 66                     |     traf       |          type: "traf" (Track fragment) 0x4f5-0x4f8.7 (4)
      |                                               |                |          boxes: [3] 0x4f9-0x548.7 (80)
      |                                               |                |            [0]: {} (box) 0x4f9-0x51c.7 (36)
0x04f0|                           00 00 00 24         |         ...$   |              size: 36 0x4f9-0x4fc.7 (4)
0x04f0|                                       74 66 68|             tfh|              type: "tfhd" (Track fragment header) 0x4fd-0x500.7 (4)
0x0500|64                                             |d               |
0x0500|   00                                          | .              |              version: 0 0x501-0x501.7 (1)
      |                                               |                |              flags: {} 0x502-0x504.7 (3)
0x0500|      00                                       |  .             |                unused0: 0 0x502-0x502.6 (0.7)
0x0500|      00                                       |  .             |                duration_is_empty: false 0x502.7-0x502.7 (0.1)
0x0500|         00 39                                 |   .9           |                unused1: 0 0x503-0x504.1 (1.2)
0x0500|            39                                 |    9           |                default_sample_flags_present: true 0x504.2-0x504.2 (0.1)
0x0500|            39                                 |    9           |                default_sample_size_present: true 0x504.3-0x504.3 (0.1)
0x0500|            39                                 |    9           |                default_sample_duration_present: true 0x504.4-0x504.4 (0.1)
0x0500|            39                                 |    9           |                unused2: 0 0x504.5-0x504.5 (0.1)
0x0500|            39                                 |    9           |                sample_description_index_present: false 0x504.6-0x504.6 (0.1)
0x0500|            39                                 |    9           |                base_data_offset_present: true 0x504.7-0x504.7 (0.1)
0x0500|               00 00 00 01                     |     ....       |              track_id: 1 0x505-0x508.7 (4)
0x0500|                           00 00 00 00 00 00 04|         .......|              base_data_offset: 1241 0x509-0x510.7 (8)
0x0510|d9                                             |.               |
0x0510|   00 00 03 2a                                 | ...*           |              default_sample_duration: 810 0x511-0x514.7 (4)
0x0510|               00 00 0d 83                     |     ....       |              default_sample_size: 3459 0x515-0x518.7 (4)
0x0510|                           01 01 00 00         |         ....   |              default_sample_flags: 16842752 0x519-0x51c.7 (4)
      |                                               |                |            [1]: {} (box) 0x51d-0x530.7 (20)
0x0510|                                       00 00 00|             ...|              size: 20 0x51d-0x520.7 (4)
0x0520|14                                             |.               |
0x0520|   74 66 64 74                                 | tfdt           |              type: "tfdt" (Track fragment decode time) 0x521-0x524.7 (4)
0x0520|               01                              |     .          |              version: 1 0x525-0x525.7 (1)
0x0520|                  00 00 00                     |      ...       |              flags: 0 0x526-0x528.7 (3)
0x0520|                           00 00 00 00 00 00 00|         .......|              start_time: 0 0x529-0x530.7 (8)
0x0530|00                                             |.               |
      |                                               |                |            [2]: {} (box) 0x531-0x548.7 (24)
0x0530|   00 00 00 18                                 | ....           |              size: 24 0x531-0x534.7 (4)
0x0530|               74 72 75 6e                     |     trun       |              type: "trun" (Track fragment run) 0x535-0x538.7 (4)
0x0530|                           00                  |         .      |              version: 0 0x539-0x539.7 (1)
      |                                               |                |              flags: {} 0x53a-0x53c.7 (3)
0x0530|                              00 00            |          ..    |                unused0: 0 0x53a-0x53b.3 (1.4)
0x0530|                                 00            |           .    |                sample_composition_time_sffsets_present: false 0x53b.4-0x53b.4 (0.1)
0x0530|                                 00            |           .    |                sample_flags_present: false 0x53b.5-0x53b.5 (0.1)
0x0530|                                 00            |           .    |                sample_size_present: false 0x53b.6-0x53b.6 (0.1)
0x0530|                                 00            |           .    |                sample_duration_present: false 0x53b.7-0x53b.7 (0.1)
0x0530|                                    05         |            .   |                unused1: 0 0x53c-0x53c.4 (0.5)
0x0530|                                    05         |            .   |                first_sample_flags_present: true 0x53c.5-0x53c.5 (0.1)
0x0530|                                    05         |            .   |                unused2: 0 0x53c.6-0x53c.6 (0.1)
0x0530|                                    05         |            .   |                data_offset_present: true 0x53c.7-0x53c.7 (0.1)
0x0530|                                       00 00 00|             ...|              sample_count: 1 0x53d-0x540.7 (4)
0x0540|01                                             |.               |
0x0540|   00 00 00 d8                                 | ....           |              data_offset: 216 0x541-0x544.7 (4)
0x0540|               02 00 00 00                     |     ....       |              first_sample_flags: 33554432 0x545-0x548.7 (4)
      |                                               |                |              samples: [1] 0x549-NA (0)
      |                                               |                |                [0]: {} (sample) 0x549-NA (0)
      |                                               |                |        [2]: {} (box) 0x549-0x5a8.7 (96)
0x0540|                           00 00 00 60         |         ...`   |          size: 96 0x549-0x54c.7 (4)
0x0540|                                       74 72 61|             tra|          type: "traf" (Track fragment) 0x54d-0x550.7 (4)
0x0550|66                                             |f               |
      |                                               |                |          boxes: [3] 0x551-0x5a8.7 (88)
      |                                               |                |            [0]: {} (box) 0x551-0x574.7 (36)
0x0550|   00 00 00 24                                 | ...$           |              size: 36 0x551-0x554.7 (4)
0x0550|               74 66 68 64                     |     tfhd       |              type: "tfhd" (Track fragment header) 0x555-0x558.7 (4)
0x0550|                           00                  |         .      |              version: 0 0x559-0x559.7 (1)
      |                                               |                |              flags: {} 0x55a-0x55c.7 (3)
0x0550|                              00               |          .     |                unused0: 0 0x55a-0x55a.6 (0.7)
0x0550|                              00               |          .     |                duration_is_empty: false 0x55a.7-0x55a.7 (0.1)
0x0550|                                 00 39         |           .9   |                unused1: 0 0x55b-0x55c.1 (1.2)
0x0550|                                    39         |            9   |                default_sample_flags_present: true 0x55c.2-0x55c.2 (0.1)
0x0550|                                    39         |            9   |                default_sample_size_present: true 0x55c.3-0x55c.3 (0.1)
0x0550|                                    39         |            9   |                default_sample_duration_present: true 0x55c.4-0x55c.4 (0.1)
0x0550|                                    39         |            9   |                unused2: 0 0x55c.5-0x55c.5 (0.1)
0x0550|                                    39         |            9   |                sample_description_index_present: false 0x55c.6-0x55c.6 (0.1)
0x0550|                                    39         |            9   |                base_data_offset_present: true 0x55c.7-0x55c.7 (0.1)
0x0550|                                       00 00 00|             ...|              track_id: 2 0x55d-0x560.7 (4)
0x0560|02                                             |.               |
0x0560|   00 00 00 00 00 00 04 d9                     | ........       |              base_data_offset: 1241 0x561-0x568.7 (8)
0x0560|                           00 00 04 00         |         ....   |              default_sample_duration: 1024 0x569-0x56c.7 (4)
0x0560|                                       00 00 00|             ...|              default_sample_size: 205 0x56d-0x570.7 (4)
0x0570|cd                                             |.               |
0x0570|   02 00 00 00                                 | ....           |              default_sample_flags: 33554432 0x571-0x574.7 (4)
      |                                               |                |            [1]: {} (box) 0x575-0x588.7 (20)
0x0570|               00 00 00 14                     |     ....       |              size: 20 0x575-0x578.7 (4)
0x0570|                           74 66 64 74         |         tfdt   |              type: "tfdt" (Track fragment decode time) 0x579-0x57c.7 (4)
0x0570|                                       01      |             .  |              version: 1 0x57d-0x57d.7 (1)
0x0570|                                          00 00|              ..|              flags: 0 0x57e-0x580.7 (3)
0x0580|00                                             |.               |
0x0580|   00 00 00 00 00 00 00 00                     | ........       |              start_time: 0 0x581-0x588.7 (8)
      |                                               |                |            [2]: {} (box) 0x589-0x5a8.7 (32)
0x0580|                           00 00 00 20         |         ...    |              size: 32 0x589-0x58c.7 (4)
0x0580|                                       74 72 75|             tru|              type: "trun" (Track fragment run) 0x58d-0x590.7 (4)
0x0590|6e                                             |n               |
0x0590|   00                                          | .              |              version: 0 0x591-0x591.7 (1)
      |                                               |                |              flags: {} 0x592-0x594.7 (3)
0x0590|      00 02                                    |  ..            |                unused0: 0 0x592-0x593.3 (1.4)
0x0590|         02                                    |   .            |                sample_composition_time_sffsets_present: false 0x593.4-0x593.4 (0.1)
0x0590|         02                                    |   .            |                sample_flags_present: false 0x593.5-0x593.5 (0.1)
0x0590|         02                                    |   .            |                sample_size_present: true 0x593.6-0x593.6 (0.1)
0x0590|         02                                    |   .            |                sample_duration_present: false 0x593.7-0x593.7 (0.1)
0x0590|            01                                 |    .           |                unused1: 0 0x594-0x594.4 (0.5)
0x0590|            01                                 |    .           |                first_sample_flags_present: false 0x594.5-0x594.5 (0.1)
0x0590|            01                                 |    .           |                unused2: 0 0x594.6-0x594.6 (0.1)
0x0590|            01                                 |    .           |                data_offset_present: true 0x594.7-0x594.7 (0.1)
0x0590|               00 00 00 03                     |     ....       |              sample_count: 3 0x595-0x598.7 (4)
0x0590|                           00 00 0e 5b         |         ...[   |              data_offset: 3675 0x599-0x59c.7 (4)
      |                                               |                |              samples: [3] 0x59d-0x5a8.7 (12)
      |                                               |                |                [0]: {} (sample) 0x59d-0x5a0.7 (4)
0x0590|                                       00 00 00|             ...|                  sample_size: 205 0x59d-0x5a0.7 (4)
0x05a0|cd                                             |.               |
      |                                               |                |                [1]: {} (sample) 0x5a1-0x5a4.7 (4)
0x05a0|   00 00 00 da                                 | ....           |                  sample_size: 218 0x5a1-0x5a4.7 (4)
      |                                               |                |                [2]: {} (sample) 0x5a5-0x5a8.7 (4)
0x05a0|               00 00 00 c0                     |     ....       |                  sample_size: 192 0x5a5-0x5a8.7 (4)
      |                                               |                |    [3]: {} (box) 0x5a9-0x159a.7 (4082)
0x05a0|                           00 00 0f f2         |         ....   |      size: 4082 0x5a9-0x5ac.7 (4)
0x05a0|                                       6d 64 61|             mda|      type: "mdat" (Media data container) 0x5ad-0x5b0.7 (4)
0x05b0|74                                             |t               |
0x05b0|   00 00 02 5d 06 05 ff ff 59 dc 45 e9 bd e6 d9| ...]....Y.E....|      data: 0000025d0605ffff59dc45e9bde6d948... 0x5b1-0x159a.7 (4074)
0x05c0|48 b7 96 2c d8 20 d9 23 ee ef 78 32 36 34 20 2d|H..,. .#..x264 -|
*     |4043 bytes more until 0x159a.7                 |                |
      |                                               |                |    [4]: {} (box) 0x159b-0x1666.7 (204)
0x1590|                                 00 00 00 cc   |           .... |      size: 204 0x159b-0x159e.7 (4)
0x1590|                                             6d|               m|      type: "moof" (Movie fragment) 0x159f-0x15a2.7 (4)
0x15a0|6f 6f 66                                       |oof             |
      |                                               |                |      boxes: [3] 0x15a3-0x1666.7 (196)
      |                                               |                |        [0]: {} (box) 0x15a3-0x15b2.7 (16)
0x15a0|         00 00 00 10                           |   ....         |          size: 16 0x15a3-0x15a6.7 (4)
0x15a0|                     6d 66 68 64               |       mfhd     |          type: "mfhd" (Movie fragment header) 0x15a7-0x15aa.7 (4)
0x15a0|                                 00            |           .    |          version: 0 0x15ab-0x15ab.7 (1)
0x15a0|                                    00 00 00   |            ... |          flags: 0 0x15ac-0x15ae.7 (3)
0x15a0|                                             00|               .|          sequence_number: 2 0x15af-0x15b2.7 (4)
0x15b0|00 00 02                                       |...             |
      |                                               |                |        [1]: {} (box) 0x15b3-0x160a.7 (88)
0x15b0|         00 00 00 58                           |   ...X         |          size: 88 0x15b3-0x15b6.7 (4)
0x15b0|                     74 72 61 66               |       traf     |          type: "traf" (Track fragment) 0x15b7-0x15ba.7 (4)
      |                                               |                |          boxes: [3] 0x15bb-0x160a.7 (80)
      |                                               |                |            [0]: {} (box) 0x15bb-0x15de.7 (36)
0x15b0|                                 00 00 00 24   |           ...$ |              size: 36 0x15bb-0x15be.7 (4)
0x15b0|                                             74|               t|              type: "tfhd" (Track fragment header) 0x15bf-0x15c2.7 (4)
0x15c0|66 68 64                                       |fhd             |
0x15c0|         00                                    |   .            |              version: 0 0x15c3-0x15c3.7 (1)
      |                                               |                |              flags: {} 0x15c4-0x15c6.7 (3)
0x15c0|            00                                 |    .           |                unused0: 0 0x15c4-0x15c4.6 (0.7)
0x15c0|            00                                 |    .           |                duration_is_empty: false 0x15c4.7-0x15c4.7 (0.1)
0x15c0|               00 39                           |     .9         |                unused1: 0 0x15c5-0x15c6.1 (1.2)
0x15c0|                  39                           |      9         |                default_sample_flags_present: true 0x15c6.2-0x15c6.2 (0.1)
0x15c0|                  39                           |      9         |                default_sample_size_present: true 0x15c6.3-0x15c6.3 (0.1)
0x15c0|                  39                           |      9         |                default_sample_duration_present: true 0x15c6.4-0x15c6.4 (0.1)
0x15c0|                  39                           |      9         |                unused2: 0 0x15c6.5-0x15c6.5 (0.1)
0x15c0|                  39                           |      9         |                sample_description_index_present: false 0x15c6.6-0x15c6.6 (0.1)
0x15c0|                  39                           |      9         |                base_data_offset_present: true 0x15c6.7-0x15c6.7 (0.1)
0x15c0|                     00 00 00 01               |       ....     |              track_id: 1 0x15c7-0x15ca.7 (4)
0x15c0|                                 00 00 00 00 00|           .....|              base_data_offset: 5531 0x15cb-0x15d2.7 (8)
0x15d0|00 15 9b                                       |...             |
0x15d0|         00 00 02 00                           |   ....         |              default_sample_duration: 512 0x15d3-0x15d6.7 (4)
0x15d0|                     00 00 08 ca               |       ....     |              default_sample_size: 2250 0x15d7-0x15da.7 (4)
0x15d0|                                 01 01 00 00   |           .... |              default_sample_flags: 16842752 0x15db-0x15de.7 (4)
      |                                               |                |            [1]: {} (box) 0x15df-0x15f2.7 (20)
0x15d0|                                             00|               .|              size: 20 0x15df-0x15e2.7 (4)
0x15e0|00 00 14                                       |...             |
0x15e0|         74 66 64 74                           |   tfdt         |              type: "tfdt" (Track fragment decode time) 0x15e3-0x15e6.7 (4)
0x15e0|                     01                        |       .        |              version: 1 0x15e7-0x15e7.7 (1)
0x15e0|                        00 00 00               |        ...     |              flags: 0 0x15e8-0x15ea.7 (3)
0x15e0|                                 00 00 00 00 00|           .....|              start_time: 810 0x15eb-0x15f2.7 (8)
0x15f0|00 03 2a                                       |..*             |
      |                                               |                |            [2]: {} (box) 0x15f3-0x160a.7 (24)
0x15f0|         00 00 00 18                           |   ....         |              size: 24 0x15f3-0x15f6.7 (4)
0x15f0|                     74 72 75 6e               |       trun     |              type: "trun" (Track fragment run) 0x15f7-0x15fa.7 (4)
0x15f0|                                 00            |           .    |              version: 0 0x15fb-0x15fb.7 (1)
      |                                               |                |              flags: {} 0x15fc-0x15fe.7 (3)
0x15f0|                                    00 00      |            ..  |                unused0: 0 0x15fc-0x15fd.3 (1.4)
0x15f0|                                       00      |             .  |                sample_composition_time_sffsets_present: false 0x15fd.4-0x15fd.4 (0.1)
0x15f0|                                       00      |             .  |                sample_flags_present: false 0x15fd.5-0x15fd.5 (0.1)
0x15f0|                                       00      |             .  |                sample_size_present: false 0x15fd.6-0x15fd.6 (0.1)
0x15f0|                                       00      |             .  |                sample_duration_present: false 0x15fd.7-0x15fd.7 (0.1)
0x15f0|                                          05   |              . |                unused1: 0 0x15fe-0x15fe.4 (0.5)
0x15f0|                                          05   |              . |                first_sample_flags_present: true 0x15fe.5-0x15fe.5 (0.1)
0x15f0|                                          05   |              . |                unused2: 0 0x15fe.6-0x15fe.6 (0.1)
0x15f0|                                          05   |              . |                data_offset_present: true 0x15fe.7-0x15fe.7 (0.1)
0x15f0|                                             00|               .|              sample_count: 1 0x15ff-0x1602.7 (4)
0x1600|00 00 01                                       |...             |
0x1600|         00 00 00 d4                           |   ....         |              data_offset: 212 0x1603-0x1606.7 (4)
0x1600|                     02 00 00 00               |       ....     |              first_sample_flags: 33554432 0x1607-0x160a.7 (4)
      |                                               |                |              samples: [1] 0x160b-NA (0)
      |                                               |                |                [0]: {} (sample) 0x160b-NA (0)
      |                                               |                |        [2]: {} (box) 0x160b-0x1666.7 (92)
0x1600|                                 00 00 00 5c   |           ...\ |          size: 92 0x160b-0x160e.7 (4)
0x1600|                                             74|               t|          type: "traf" (Track fragment) 0x160f-0x1612.7 (4)
0x1610|72 61 66                                       |raf             |
      |                                               |                |          boxes: [3] 0x1613-0x1666.7 (84)
      |                                               |                |            [0]: {} (box) 0x1613-0x1636.7 (36)
0x1610|         00 00 00 24                           |   ...$         |              size: 36 0x1613-0x1616.7 (4)
0x1610|                     74 66 68 64               |       tfhd     |              type: "tfhd" (Track fragment header) 0x1617-0x161a.7 (4)
0x1610|                                 00            |           .    |              version: 0 0x161b-0x161b.7 (1)
      |                                               |                |              flags: {} 0x161c-0x161e.7 (3)
0x1610|                                    00         |            .   |                unused0: 0 0x161c-0x161c.6 (0.7)
0x1610|                                    00         |            .   |                duration_is_empty: false 0x161c.7-0x161c.7 (0.1)
0x1610|                                       00 39   |             .9 |                unused1: 0 0x161d-0x161e.1 (1.2)
0x1610|                                          39   |              9 |                default_sample_flags_present: true 0x161e.2-0x161e.2 (0.1)
0x1610|                                          39   |              9 |                default_sample_size_present: true 0x161e.3-0x161e.3 (0.1)
0x1610|                                          39   |              9 |                default_sample_duration_present: true 0x161e.4-0x161e.4 (0.1)
0x1610|                                          39   |              9 |                unused2: 0 0x161e.5-0x161e.5 (0.1)
0x1610|                                          39   |              9 |                sample_description_index_present: false 0x161e.6-0x161e.6 (0.1)
0x1610|                                          39   |              9 |                base_data_offset_present: true 0x161e.7-0x161e.7 (0.1)
0x1610|                                             00|               .|              track_id: 2 0x161f-0x1622.7 (4)
0x1620|00 00 02                                       |...             |
0x1620|         00 00 00 00 00 00 15 9b               |   ........     |              base_data_offset: 5531 0x1623-0x162a.7 (8)
0x1620|                                 00 00 04 00   |           .... |              default_sample_duration: 1024 0x162b-0x162e.7 (4)
0x1620|                                             00|               .|              default_sample_size: 194 0x162f-0x1632.7 (4)
0x1630|00 00 c2                                       |...             |
0x1630|         02 00 00 00                           |   ....         |              default_sample_flags: 33554432 0x1633-0x1636.7 (4)
      |                                               |                |            [1]: {} (box) 0x1637-0x164a.7 (20)
0x1630|                     00 00 00 14               |       ....     |              size: 20 0x1637-0x163a.7 (4)
0x1630|                                 74 66 64 74   |           tfdt |              type: "tfdt" (Track fragment decode time) 0x163b-0x163e.7 (4)
0x1630|                                             01|               .|              version: 1 0x163f-0x163f.7 (1)
0x1640|00 00 00                                       |...             |              flags: 0 0x1640-0x1642.7 (3)
0x1640|         00 00 00 00 00 00 0c 00               |   ........     |              start_time: 3072 0x1643-0x164a.7 (8)
      |                                               |                |            [2]: {} (box) 0x164b-0x1666.7 (28)
0x1640|                                 00 00 00 1c   |           .... |              size: 28 0x164b-0x164e.7 (4)
0x1640|                                             74|               t|              type: "trun" (Track fragment run) 0x164f-0x1652.7 (4)
0x1650|72 75 6e                                       |run             |
0x1650|         00                                    |   .            |              version: 0 0x1653-0x1653.7 (1)
      |                                               |                |              flags: {} 0x1654-0x1656.7 (3)
0x1650|            00 02                              |    ..          |                unused0: 0 0x1654-0x1655.3 (1.4)
0x1650|               02                              |     .          |                sample_composition_time_sffsets_present: false 0x1655.4-0x1655.4 (0.1)
0x1650|               02                              |     .          |                sample_flags_present: false 0x1655.5-0x1655.5 (0.1)
0x1650|               02                              |     .          |                sample_size_present: true 0x1655.6-0x1655.6 (0.1)
0x1650|               02                              |     .          |                sample_duration_present: false 0x1655.7-0x1655.7 (0.1)
0x1650|                  01                           |      .         |                unused1: 0 0x1656-0x1656.4 (0.5)
0x1650|                  01                           |      .         |                first_sample_flags_present: false 0x1656.5-0x1656.5 (0.1)
0x1650|                  01                           |      .         |                unused2: 0 0x1656.6-0x1656.6 (0.1)
0x1650|                  01                           |      .         |                data_offset_present: true 0x1656.7-0x1656.7 (0.1)
0x1650|                     00 00 00 02               |       ....     |              sample_count: 2 0x1657-0x165a.7 (4)
0x1650|                                 00 00 09 9e   |           .... |              data_offset: 2462 0x165b-0x165e.7 (4)
      |                                               |                |              samples: [2] 0x165f-0x1666.7 (8)
      |                                               |                |                [0]: {} (sample) 0x165f-0x1662.7 (4)
0x1650|                                             00|               .|                  sample_size: 194 0x165f-0x1662.7 (4)
0x1660|00 00 c2                                       |...             |
      |                                               |                |                [1]: {} (sample) 0x1663-0x1666.7 (4)
0x1660|         00 00 00 c1                           |   ....         |                  sample_size: 193 0x1663-0x1666.7 (4)
      |                                               |                |    [5]: {} (box) 0x1667-0x20bb.7 (2645)
0x1660|                     00 00 0a 55               |       ...U     |      size: 2645 0x1667-0x166a.7 (4)
0x1660|                                 6d 64 61 74   |           mdat |      type: "mdat" (Media data container) 0x166b-0x166e.7 (4)
0x1660|                                             00|               .|      data: 000008c6658882033ffef686f814d853... 0x166f-0x20bb.7 (2637)
0x1670|00 08 c6 65 88 82 03 3f fe f6 86 f8 14 d8 53 23|...e...?......S#|
*     |2620 bytes more until 0x20bb.7                 |                |
      |                                               |                |    [6]: {} (box) 0x20bc-0x217f.7 (196)
0x20b0|                                    00 00 00 c4|            ....|      size: 196 0x20bc-0x20bf.7 (4)
0x20c0|6d 6f 6f 66                                    |moof            |      type: "moof" (Movie fragment) 0x20c0-0x20c3.7 (4)
      |                                               |                |      boxes: [3] 0x20c4-0x217f.7 (188)
      |                                               |                |        [0]: {} (box) 0x20c4-0x20d3.7 (16)
0x20c0|            00 00 00 10                        |    ....        |          size: 16 0x20c4-0x20c7.7 (4)
0x20c0|                        6d 66 68 64            |        mfhd    |          type: "mfhd" (Movie fragment header) 0x20c8-0x20cb.7 (4)
0x20c0|                                    00         |            .   |          version: 0 0x20cc-0x20cc.7 (1)
0x20c0|                                       00 00 00|             ...|          flags: 0 0x20cd-0x20cf.7 (3)
0x20d0|00 00 00 03                                    |....            |          sequence_number: 3 0x20d0-0x20d3.7 (4)
      |                                               |                |        [1]: {} (box) 0x20d4-0x212b.7 (88)
0x20d0|            00 00 00 58                        |    ...X        |          size: 88 0x20d4-0x20d7.7 (4)
0x20d0|                        74 72 61 66            |        traf    |          type: "traf" (Track fragment) 0x20d8-0x20db.7 (4)
      |                                               |                |          boxes: [3] 0x20dc-0x212b.7 (80)
      |                                               |                |            [0]: {} (box) 0x20dc-0x20ff.7 (36)
0x20d0|                                    00 00 00 24|            ...$|              size: 36 0x20dc-0x20df.7 (4)
0x20e0|74 66 68 64                                    |tfhd            |              type: "tfhd" (Track fragment header) 0x20e0-0x20e3.7 (4)
0x20e0|            00                                 |    .           |              version: 0 0x20e4-0x20e4.7 (1)
      |                                               |                |              flags: {} 0x20e5-0x20e7.7 (3)
0x20e0|               00                              |     .          |                unused0: 0 0x20e5-0x20e5.6 (0.7)
0x20e0|               00                              |     .          |                duration_is_empty: false 0x20e5.7-0x20e5.7 (0.1)
0x20e0|                  00 39                        |      .9        |                unused1: 0 0x20e6-0x20e7.1 (1.2)
0x20e0|                     39                        |       9        |                default_sample_flags_present: true 0x20e7.2-0x20e7.2 (0.1)
0x20e0|                     39                        |       9        |                default_sample_size_present: true 0x20e7.3-0x20e7.3 (0.1)
0x20e0|                     39                        |       9        |                default_sample_duration_present: true 0x20e7.4-0x20e7.4 (0.1)
0x20e0|                     39                        |       9        |                unused2: 0 0x20e7.5-0x20e7.5 (0.1)
0x20e0|                     39                        |       9        |                sample_description_index_present: false 0x20e7.6-0x20e7.6 (0.1)
0x20e0|                     39                        |       9        |                base_data_offset_present: true 0x20e7.7-0x20e7.7 (0.1)
0x20e0|                        00 00 00 01            |        ....    |              track_id: 1 0x20e8-0x20eb.7 (4)
0x20e0|                                    00 00 00 00|            ....|              base_data_offset: 8380 0x20ec-0x20f3.7 (8)
0x20f0|00 00 20 bc                                    |.. .            |
0x20f0|            00 00 02 00                        |    ....        |              default_sample_duration: 512 0x20f4-0x20f7.7 (4)
0x20f0|                        00 00 08 c0            |        ....    |              default_sample_size: 2240 0x20f8-0x20fb.7 (4)
0x20f0|                                    01 01 00 00|            ....|              default_sample_flags: 16842752 0x20fc-0x20ff.7 (4)
      |                                               |                |            [1]: {} (box) 0x2100-0x2113.7 (20)
0x2100|00 00 00 14                                    |....            |              size: 20 0x2100-0x2103.7 (4)
0x2100|            74 66 64 74                        |    tfdt        |              type: "tfdt" (Track fragment decode time) 0x2104-0x2107.7 (4)
0x2100|                        01                     |        .       |              version: 1 0x2108-0x2108.7 (1)
0x2100|                           00 00 00            |         ...    |              flags: 0 0x2109-0x210b.7 (3)
0x2100|                                    00 00 00 00|            ....|              start_time: 1322 0x210c-0x2113.7 (8)
0x2110|00 00 05 2a                                    |...*            |
      |                                               |                |            [2]: {} (box) 0x2114-0x212b.7 (24)
0x2110|            00 00 00 18                        |    ....        |              size: 24 0x2114-0x2117.7 (4)
0x2110|                        74 72 75 6e            |        trun    |              type: "trun" (Track fragment run) 0x2118-0x211b.7 (4)
0x2110|                                    00         |            .   |              version: 0 0x211c-0x211c.7 (1)
      |                                               |                |              flags: {} 0x211d-0x211f.7 (3)
0x2110|                                       00 00   |             .. |                unused0: 0 0x211d-0x211e.3 (1.4)
0x2110|                                          00   |              . |                sample_composition_time_sffsets_present: false 0x211e.4-0x211e.4 (0.1)
0x2110|                                          00   |              . |                sample_flags_present: false 0x211e.5-0x211e.5 (0.1)
0x2110|                                          00   |              . |                sample_size_present: false 0x211e.6-0x211e.6 (0.1)
0x2110|                                          00   |              . |                sample_duration_present: false 0x211e.7-0x211e.7 (0.1)
0x2110|                                             05|               .|                unused1: 0 0x211f-0x211f.4 (0.5)
0x2110|                                             05|               .|                first_sample_flags_present: true 0x211f.5-0x211f.5 (0.1)
0x2110|                                             05|               .|                unused2: 0 0x211f.6-0x211f.6 (0.1)
0x2110|                                             05|               .|                data_offset_present: true 0x211f.7-0x211f.7 (0.1)
0x2120|00 00 00 01                                    |....            |              sample_count: 1 0x2120-0x2123.7 (4)
0x2120|            00 00 00 cc                        |    ....        |              data_offset: 204 0x2124-0x2127.7 (4)
0x2120|                        02 00 00 00            |        ....    |              first_sample_flags: 33554432 0x2128-0x212b.7 (4)
      |                                               |                |              samples: [1] 0x212c-NA (0)
      |                                               |                |                [0]: {} (sample) 0x212c-NA (0)
      |                                               |                |        [2]: {} (box) 0x212c-0x217f.7 (84)
0x2120|                                    00 00 00 54|            ...T|          size: 84 0x212c-0x212f.7 (4)
0x2130|74 72 61 66                                    |traf            |          type: "traf" (Track fragment) 0x2130-0x2133.7 (4)
      |                                               |                |          boxes: [3] 0x2134-0x217f.7 (76)
      |                                               |                |            [0]: {} (box) 0x2134-0x2157.7 (36)
0x2130|            00 00 00 24                        |    ...$        |              size: 36 0x2134-0x2137.7 (4)
0x2130|                        74 66 68 64            |        tfhd    |              type: "tfhd" (Track fragment header) 0x2138-0x213b.7 (4)
0x2130|                                    00         |            .   |              version: 0 0x213c-0x213c.7 (1)
      |                                               |                |              flags: {} 0x213d-0x213f.7 (3)
0x2130|                                       00      |             .  |                unused0: 0 0x213d-0x213d.6 (0.7)
0x2130|                                       00      |             .  |                duration_is_empty: false 0x213d.7-0x213d.7 (0.1)
0x2130|                                          00 39|              .9|                unused1: 0 0x213e-0x213f.1 (1.2)
0x2130|                                             39|               9|                default_sample_flags_present: true 0x213f.2-0x213f.2 (0.1)
0x2130|                                             39|               9|                default_sample_size_present: true 0x213f.3-0x213f.3 (0.1)
0x2130|                                             39|               9|                default_sample_duration_present: true 0x213f.4-0x213f.4 (0.1)
0x2130|                                             39|               9|                unused2: 0 0x213f.5-0x213f.5 (0.1)
0x2130|                                             39|               9|                sample_description_index_present: false 0x213f.6-0x213f.6 (0.1)
0x2130|                                             39|               9|                base_data_offset_present: true 0x213f.7-0x213f.7 (0.1)
0x2140|00 00 00 02                                    |....            |              track_id: 2 0x2140-0x2143.7 (4)
0x2140|            00 00 00 00 00 00 20 bc            |    ...... .    |              base_data_offset: 8380 0x2144-0x214b.7 (8)
0x2140|                                    00 00 01 3a|            ...:|              default_sample_duration: 314 0x214c-0x214f.7 (4)
0x2150|00 00 00 05                                    |....            |              default_sample_size: 5 0x2150-0x2153.7 (4)
0x2150|            02 00 00 00                        |    ....        |              default_sample_flags: 33554432 0x2154-0x2157.7 (4)
      |                                               |                |            [1]: {} (box) 0x2158-0x216b.7 (20)
0x2150|                        00 00 00 14            |        ....    |              size: 20 0x2158-0x215b.7 (4)
0x2150|                                    74 66 64 74|            tfdt|              type: "tfdt" (Track fragment decode time) 0x215c-0x215f.7 (4)
0x2160|01                                             |.               |              version: 1 0x2160-0x2160.7 (1)
0x2160|   00 00 00                                    | ...            |              flags: 0 0x2161-0x2163.7 (3)
0x2160|            00 00 00 00 00 00 14 00            |    ........    |              start_time: 5120 0x2164-0x216b.7 (8)
      |                                               |                |            [2]: {} (box) 0x216c-0x217f.7 (20)
0x2160|                                    00 00 00 14|            ....|              size: 20 0x216c-0x216f.7 (4)
0x2170|74 72 75 6e                                    |trun            |              type: "trun" (Track fragment run) 0x2170-0x2173.7 (4)
0x2170|            00                                 |    .           |              version: 0 0x2174-0x2174.7 (1)
      |                                               |                |              flags: {} 0x2175-0x2177.7 (3)
0x2170|               00 00                           |     ..         |                unused0: 0 0x2175-0x2176.3 (1.4)
0x2170|                  00                           |      .         |                sample_composition_time_sffsets_present: false 0x2176.4-0x2176.4 (0.1)
0x2170|                  00                           |      .         |                sample_flags_present: false 0x2176.5-0x2176.5 (0.1)
0x2170|                  00                           |      .         |                sample_size_present: false 0x2176.6-0x2176.6 (0.1)
0x2170|                  00                           |      .         |                sample_duration_present: false 0x2176.7-0x2176.7 (0.1)
0x2170|                     01                        |       .        |                unused1: 0 0x2177-0x2177.4 (0.5)
0x2170|                     01                        |       .        |                first_sample_flags_present: false 0x2177.5-0x2177.5 (0.1)
0x2170|                     01                        |       .        |                unused2: 0 0x2177.6-0x2177.6 (0.1)
0x2170|                     01                        |       .        |                data_offset_present: true 0x2177.7-0x2177.7 (0.1)
0x2170|                        00 00 00 01            |        ....    |              sample_count: 1 0x2178-0x217b.7 (4)
0x2170|                                    00 00 09 8c|            ....|              data_offset: 2444 0x217c-0x217f.7 (4)
      |                                               |                |              samples: [1] 0x2180-NA (0)
      |                                               |                |                [0]: {} (sample) 0x2180-NA (0)
      |                                               |                |    [7]: {} (box) 0x2180-0x2a4c.7 (2253)
0x2180|00 00 08 cd                                    |....            |      size: 2253 0x2180-0x2183.7 (4)
0x2180|            6d 64 61 74                        |    mdat        |      type: "mdat" (Media data container) 0x2184-0x2187.7 (4)
0x2180|                        00 00 08 bc 65 88 84 0c|        ....e...|      data: 000008bc6588840cfffef686f814d853... 0x2188-0x2a4c.7 (2245)
0x2190|ff fe f6 86 f8 14 d8 53 23 af ff f2 50 06 7f 30|.......S#...P..0|
*     |2221 bytes more until 0x2a4c.7                 |                |
      |                                               |                |    [8]: {} (box) 0x2a4d-0x2b06.7 (186)
0x2a40|                                       00 00 00|             ...|      size: 186 0x2a4d-0x2a50.7 (4)
0x2a50|ba                                             |.               |
0x2a50|   6d 66 72 61                                 | mfra           |      type: "mfra" (Movie fragment random access) 0x2a51-0x2a54.7 (4)
      |                                               |                |      boxes: [3] 0x2a55-0x2b06.7 (178)
      |                                               |                |        [0]: {} (box) 0x2a55-0x2a68.7 (20)
0x2a50|               00 00 00 51                     |     ...Q       |          size: 81 0x2a55-0x2a58.7 (4)
0x2a50|                           74 66 72 61         |         tfra   |          type: "tfra" (Track fragment radom access) 0x2a59-0x2a5c.7 (4)
0x2a50|                                       01      |             .  |          version: 1 0x2a5d-0x2a5d.7 (1)
0x2a50|                                          00 00|              ..|          flags: 0 0x2a5e-0x2a60.7 (3)
0x2a60|00                                             |.               |
0x2a60|   00 00 00 01                                 | ....           |          reserved: 0 0x2a61-0x2a64.1 (3.2)
0x2a60|            01                                 |    .           |          length_size_of_traf_num: 0 0x2a64.2-0x2a64.3 (0.2)
0x2a60|            01                                 |    .           |          sample_length_size_of_trun_num: 0 0x2a64.4-0x2a64.5 (0.2)
0x2a60|            01                                 |    .           |          length_size_of_sample_num: 1 0x2a64.6-0x2a64.7 (0.2)
0x2a60|               00 00 00 00                     |     ....       |          num_entries: 0 0x2a65-0x2a68.7 (4)
      |                                               |                |          entries: [0] 0x2a69-NA (0)
      |                                               |                |        [1]: {} (box) 0x2aa6-0x2ab9.7 (20)
0x2aa0|                  00 00 00 51                  |      ...Q      |          size: 81 0x2aa6-0x2aa9.7 (4)
0x2aa0|                              74 66 72 61      |          tfra  |          type: "tfra" (Track fragment radom access) 0x2aaa-0x2aad.7 (4)
0x2aa0|                                          01   |              . |          version: 1 0x2aae-0x2aae.7 (1)
0x2aa0|                                             00|               .|          flags: 0 0x2aaf-0x2ab1.7 (3)
0x2ab0|00 00                                          |..              |
0x2ab0|      00 00 00 02                              |  ....          |          reserved: 0 0x2ab2-0x2ab5.1 (3.2)
0x2ab0|               02                              |     .          |          length_size_of_traf_num: 0 0x2ab5.2-0x2ab5.3 (0.2)
0x2ab0|               02                              |     .          |          sample_length_size_of_trun_num: 0 0x2ab5.4-0x2ab5.5 (0.2)
0x2ab0|               02                              |     .          |          length_size_of_sample_num: 2 0x2ab5.6-0x2ab5.7 (0.2)
0x2ab0|                  00 00 00 00                  |      ....      |          num_entries: 0 0x2ab6-0x2ab9.7 (4)
      |                                               |                |          entries: [0] 0x2aba-NA (0)
      |                                               |                |        [2]: {} (box) 0x2af7-0x2b06.7 (16)
0x2af0|                     00 00 00 10               |       ....     |          size: 16 0x2af7-0x2afa.7 (4)
0x2af0|                                 6d 66 72 6f   |           mfro |          type: "mfro" (Movie fragment random access offset) 0x2afb-0x2afe.7 (4)
0x2af0|                                             00|               .|          version: 0 0x2aff-0x2aff.7 (1)
0x2b00|00 00 00                                       |...             |          flags: 0 0x2b00-0x2b02.7 (3)
0x2b00|         00 00 00 ba|                          |   ....|        |          mfra_size: 186 0x2b03-0x2b06.7 (4)
      |                                               |                |  tracks: [2] 0x5b1-0x2b06.7 (9558)
      |                                               |                |    [0]: {} (track) 0x5b1-0x2b06.7 (9558)
      |                                               |                |      samples: [3] 0x5b1-0x2a47.7 (9367)
      |                                               |                |        [0]: avc_au (sample) 0x5b1-0x1333.7 (3459)
      |                                               |                |          access_unit: [2] 0x5b1-0x1333.7 (3459)
      |                                               |                |            [0]: {} (nalu) 0x5b1-0x811.7 (609)
0x05b0|   00 00 02 5d                                 | ...]           |              length: 605 0x5b1-0x5b4.7 (4)
      |                                               |                |              nalu: avc_nalu 0x5b5-0x811.7 (605)
      |                                               |                |                sei: avc_sei 0x0-0x25b.7 (604)
 0x000|05                                             |.               |                  payload_type: 5 0x0-0x0.7 (1)
 0x000|   ff ff 59                                    | ..Y            |                  payload_size: 599 0x1-0x3.7 (3)
 0x000|            dc 45 e9 bd e6 d9 48 b7 96 2c d8 20|    .E....H..,. |                  uuid: x264 (dc45e9bde6d948b7962cd820d923eeef) 0x4-0x13.7 (16)
 0x010|d9 23 ee ef                                    |.#..            |
 0x010|            78 32 36 34 20 2d 20 63 6f 72 65 20|    x264 - core |                  data: 78323634202d20636f72652031363120... 0x14-0x25a.7 (583)
 0x020|31 36 31 20 72 33 30 32 30 20 64 31 39 38 39 33|161 r3020 d19893|
 *    |555 bytes more until 0x25a.7                   |                |
 0x250|                                 80|           |           .|   |                  rbsp_trailing_bits: 80 0x25b-0x25b.7 (1)
0x05b0|               06                              |     .          |                forbidden_zero_bit: false 0x5b5-0x5b5 (0.1)
0x05b0|               06                              |     .          |                nal_ref_idc: 0 0x5b5.1-0x5b5.2 (0.2)
0x05b0|               06                              |     .          |                nal_unit_type: Supplemental enhancement information (SEI) (6) 0x5b5.3-0x5b5.7 (0.5)
0x05b0|                  05 ff ff 59 dc 45 e9 bd e6 d9|      ...Y.E....|                data: 05ffff59dc45e9bde6d948b7962cd820... 0x5b6-0x811.7 (604)
0x05c0|48 b7 96 2c d8 20 d9 23 ee ef 78 32 36 34 20 2d|H..,. .#..x264 -|
*     |578 bytes more until 0x811.7                   |                |
      |                                               |                |            [1]: {} (nalu) 0x812-0x1333.7 (2850)
0x0810|      00 00 0b 1e                              |  ....          |              length: 2846 0x812-0x815.7 (4)
      |                                               |                |              nalu: avc_nalu 0x816-0x1333.7 (2846)
0x0810|                  65                           |      e         |                forbidden_zero_bit: false 0x816-0x816 (0.1)
0x0810|                  65                           |      e         |                nal_ref_idc: 3 0x816.1-0x816.2 (0.2)
0x0810|                  65                           |      e         |                nal_unit_type: Coded slice of an IDR picture (5) 0x816.3-0x816.7 (0.5)
      |                                               |                |                slice_header: {} 0x817-0x818 (1.1)
0x0810|                     88                        |       .        |                  first_mb_in_slice: 0 0x817-0x817 (0.1)
0x0810|                     88                        |       .        |                  slice_type: I (7) 0x817.1-0x817.7 (0.7)
0x0810|                        84                     |        .       |                  pic_parameter_set_id: 0 0x818-0x818 (0.1)
0x0810|                        84 04 bf fe f7 84 7e 05|        ......~.|                data: 08097ffdef08fc0a6e1959ffd50ffa9f... 0x818.1-0x1333.7 (2843.7)
0x0820|37 0c ac ff ea 87 fd 4f 9c 30 95 e0 00 43 0f 7b|7......O.0...C.{|
*     |2820 bytes more until 0x1333.7                 |                |
      |                                               |                |        [1]: avc_au (sample) 0x166f-0x1f38.7 (2250)
      |                                               |                |          access_unit: [1] 0x166f-0x1f38.7 (2250)
      |                                               |                |            [0]: {} (nalu) 0x166f-0x1f38.7 (2250)
0x1660|                                             00|               .|              length: 2246 0x166f-0x1672.7 (4)
0x1670|00 08 c6                                       |...             |
      |                                               |                |              nalu: avc_nalu 0x1673-0x1f38.7 (2246)
0x1670|         65                                    |   e            |                forbidden_zero_bit: false 0x1673-0x1673 (0.1)
0x1670|         65                                    |   e            |                nal_ref_idc: 3 0x1673.1-0x1673.2 (0.2)
0x1670|         65                                    |   e            |                nal_unit_type: Coded slice of an IDR picture (5) 0x1673.3-0x1673.7 (0.5)
      |                                               |                |                slice_header: {} 0x1674-0x1675 (1.1)
0x1670|            88                                 |    .           |                  first_mb_in_slice: 0 0x1674-0x1674 (0.1)
0x1670|            88                                 |    .           |                  slice_type: I (7) 0x1674.1-0x1674.7 (0.7)
0x1670|               82                              |     .          |                  pic_parameter_set_id: 0 0x1675-0x1675 (0.1)
0x1670|               82 03 3f fe f6 86 f8 14 d8 53 23|     ..?......S#|                data: 04067ffded0df029b0a6475fffe4a00c... 0x1675.1-0x1f38.7 (2243.7)
0x1680|af ff f2 50 06 7f 30 02 17 55 d4 5a 6f db ca e6|...P..0..U.Zo...|
*     |2217 bytes more until 0x1f38.7                 |                |
      |                                               |                |        [2]: avc_au (sample) 0x2188-0x2a47.7 (2240)
      |                                               |                |          access_unit: [1] 0x2188-0x2a47.7 (2240)
      |                                               |                |            [0]: {} (nalu) 0x2188-0x2a47.7 (2240)
0x2180|                        00 00 08 bc            |        ....    |              length: 2236 0x2188-0x218b.7 (4)
      |                                               |                |              nalu: avc_nalu 0x218c-0x2a47.7 (2236)
0x2180|                                    65         |            e   |                forbidden_zero_bit: false 0x218c-0x218c (0.1)
0x2180|                                    65         |            e   |                nal_ref_idc: 3 0x218c.1-0x218c.2 (0.2)
0x2180|                                    65         |            e   |                nal_unit_type: Coded slice of an IDR picture (5) 0x218c.3-0x218c.7 (0.5)
      |                                               |                |                slice_header: {} 0x218d-0x218e (1.1)
0x2180|                                       88      |             .  |                  first_mb_in_slice: 0 0x218d-0x218d (0.1)
0x2180|                                       88      |             .  |                  slice_type: I (7) 0x218d.1-0x218d.7 (0.7)
0x2180|                                          84   |              . |                  pic_parameter_set_id: 0 0x218e-0x218e (0.1)
0x2180|                                          84 0c|              ..|                data: 0819fffded0df029b0a6475fffe4a00c... 0x218e.1-0x2a47.7 (2233.7)
0x2190|ff fe f6 86 f8 14 d8 53 23 af ff f2 50 06 7f 30|.......S#...P..0|
*     |2216 bytes more until 0x2a47.7                 |                |
      |                                               |                |      data_format: "avc1" 0x2b07-NA (0)
      |                                               |                |    [1]: {} (track) 0x1334-0x2b06.7 (6099)
      |                                               |                |      samples: [6] 0x1334-0x2a4c.7 (5913)
      |                                               |                |        [0]: aac_frame (sample) 0x1334-0x1400.7 (205)
      |                                               |                |          raw_data_blocks: [2] 0x1334-0x1348.7 (21)
      |                                               |                |            [0]: {} (raw_data_block) 0x1334-0x1344.7 (17)
0x1330|            de                                 |    .           |              syntax_element: FIL (6) 0x1334-0x1334.2 (0.3)
      |                                               |                |              cnt: {} 0x1334.3-0x1335.6 (1.4)
0x1330|            de                                 |    .           |                count: 15 0x1334.3-0x1334.6 (0.4)
0x1330|            de 02                              |    ..          |                esc_count: 1 0x1334.7-0x1335.6 (1)
      |                                               |                |              payload_length: 15 0x1335.7-NA (0)
      |                                               |                |              extension_payload: {} 0x1335.7-0x1344.6 (15)
0x1330|               02 00                           |     ..         |                extension_type: FILL (0) 0x1335.7-0x1336.2 (0.4)
0x1330|                  00                           |      .         |                fill_nibble: 0 0x1336.3-0x1336.6 (0.4)
0x1330|                  00 4c 61 76 63 35 38 2e 39 31|      .Lavc58.91|                fill_byte: 2630bb319a9c171c989718981800 0x1336.7-0x1344.6 (14)
0x1340|2e 31 30 30 00                                 |.100.           |
0x1340|            00                                 |    .           |              byte_align: 00 0x1344.7-0x1344.7 (0.1)
      |                                               |                |            [1]: {} (raw_data_block) 0x1345-0x1348.7 (4)
0x1340|               02                              |     .          |              syntax_element: SCE (0) 0x1345-0x1345.2 (0.3)
0x1340|               02                              |     .          |              element_instance_tag: 1 0x1345.3-0x1345.6 (0.4)
0x1340|               02 5c                           |     .\         |              global_gain: 46 0x1345.7-0x1346.6 (1)
      |                                               |                |              ics_info: {} 0x1346.7-0x1348.5 (1.7)
0x1340|                  5c                           |      \         |                ics_reserved_bit: 0 0x1346.7-0x1346.7 (0.1)
0x1340|                     ab                        |       .        |                window_sequence: EIGHT_START_SEQUENCE (2) 0x1347-0x1347.1 (0.2)
0x1340|                     ab                        |       .        |                window_shape: 1 0x1347.2-0x1347.2 (0.1)
0x1340|                     ab                        |       .        |                max_sfb: 5 0x1347.3-0x1347.6 (0.4)
0x1340|                     ab 59                     |       .Y       |                scale_factor_grouping: 86 0x1347.7-0x1348.5 (0.7)
0x1340|                        59                     |        Y       |              byte_align: 40 0x1348.6-0x1348.7 (0.2)
0x1340|                           a9 8c 72 50 8b 4c aa|         ..rP.L.|          data: a98c72508b4caade1d71725c88420810... 0x1349-0x1400.7 (184)
0x1350|de 1d 71 72 5c 88 42 08 10 0e 80 0c d5 9f 71 6c|..qr\.B.......ql|
*     |161 bytes more until 0x1400.7                  |                |
      |                                               |                |        [1]: aac_frame (sample) 0x1401-0x14da.7 (218)
      |                                               |                |          raw_data_blocks: [1] 0x1401-0x1404.7 (4)
      |                                               |                |            [0]: {} (raw_data_block) 0x1401-0x1404.7 (4)
0x1400|   01                                          | .              |              syntax_element: SCE (0) 0x1401-0x1401.2 (0.3)
0x1400|   01                                          | .              |              element_instance_tag: 0 0x1401.3-0x1401.6 (0.4)
0x1400|   01 22                                       | ."             |              global_gain: 145 0x1401.7-0x1402.6 (1)
      |                                               |                |              ics_info: {} 0x1402.7-0x1404.5 (1.7)
0x1400|      22                                       |  "             |                ics_reserved_bit: 0 0x1402.7-0x1402.7 (0.1)
0x1400|         98                                    |   .            |                window_sequence: EIGHT_START_SEQUENCE (2) 0x1403-0x1403.1 (0.2)
0x1400|         98                                    |   .            |                window_shape: 0 0x1403.2-0x1403.2 (0.1)
0x1400|         98                                    |   .            |                max_sfb: 12 0x1403.3-0x1403.6 (0.4)
0x1400|         98 da                                 |   ..           |                scale_factor_grouping: 54 0x1403.7-0x1404.5 (0.7)
0x1400|            da                                 |    .           |              byte_align: 80 0x1404.6-0x1404.7 (0.2)
0x1400|               d8 3d d6 93 80 76 db 22 13 6a 38|     .=...v.".j8|          data: d83dd6938076db22136a38461c9c5eae... 0x1405-0x14da.7 (214)
0x1410|46 1c 9c 5e ae 85 f1 ab d5 ff 4d 7b 0f 3e 6d 4f|F..^......M{.>mO|
*     |187 bytes more until 0x14da.7                  |                |
      |                                               |                |        [2]: aac_frame (sample) 0x14db-0x159a.7 (192)
      |                                               |                |          raw_data_blocks: [1] 0x14db-0x14de.7 (4)
      |                                               |                |            [0]: {} (raw_data_block) 0x14db-0x14de.7 (4)
0x14d0|                                 01            |           .    |              syntax_element: SCE (0) 0x14db-0x14db.2 (0.3)
0x14d0|                                 01            |           .    |              element_instance_tag: 0 0x14db.3-0x14db.6 (0.4)
0x14d0|                                 01 24         |           .$   |              global_gain: 146 0x14db.7-0x14dc.6 (1)
      |                                               |                |              ics_info: {} 0x14dc.7-0x14de.1 (1.3)
0x14d0|                                    24         |            $   |                ics_reserved_bit: 0 0x14dc.7-0x14dc.7 (0.1)
0x14d0|                                       f5      |             .  |                window_sequence: LONG_STOP_SEQUENCE (3) 0x14dd-0x14dd.1 (0.2)
0x14d0|                                       f5      |             .  |                window_shape: 1 0x14dd.2-0x14dd.2 (0.1)
0x14d0|                                       f5 ad   |             .. |                max_sfb: 43 0x14dd.3-0x14de (0.6)
0x14d0|                                          ad   |              . |                predictor_data_present: false 0x14de.1-0x14de.1 (0.1)
0x14d0|                                          ad   |              . |              byte_align: b4 0x14de.2-0x14de.7 (0.6)
0x14d0|                                             0d|               .|          data: 0d126098005e7b675534924892240504... 0x14df-0x159a.7 (188)
0x14e0|12 60 98 00 5e 7b 67 55 34 92 48 92 24 05 04 08|.`..^{gU4.H.$...|
*     |171 bytes more until 0x159a.7                  |                |
      |                                               |                |        [3]: aac_frame (sample) 0x1f39-0x1ffa.7 (194)
      |                                               |                |          raw_data_blocks: [1] 0x1f39-0x1f3c.7 (4)
      |                                               |                |            [0]: {} (raw_data_block) 0x1f39-0x1f3c.7 (4)
0x1f30|                           01                  |         .      |              syntax_element: SCE (0) 0x1f39-0x1f39.2 (0.3)
0x1f30|                           01                  |         .      |              element_instance_tag: 0 0x1f39.3-0x1f39.6 (0.4)
0x1f30|                           01 22               |         ."     |              global_gain: 145 0x1f39.7-0x1f3a.6 (1)
      |                                               |                |              ics_info: {} 0x1f3a.7-0x1f3c.1 (1.3)
0x1f30|                              22               |          "     |                ics_reserved_bit: 0 0x1f3a.7-0x1f3a.7 (0.1)
0x1f30|                                 55            |           U    |                window_sequence: LONG_START_SEQUENCE (1) 0x1f3b-0x1f3b.1 (0.2)
0x1f30|                                 55            |           U    |                window_shape: 0 0x1f3b.2-0x1f3b.2 (0.1)
0x1f30|                                 55 ad         |           U.   |                max_sfb: 43 0x1f3b.3-0x1f3c (0.6)
0x1f30|                                    ad         |            .   |                predictor_data_present: false 0x1f3c.1-0x1f3c.1 (0.1)
0x1f30|                                    ad         |            .   |              byte_align: b4 0x1f3c.2-0x1f3c.7 (0.6)
0x1f30|                                       4c f4 38|             L.8|          data: 4cf438a34222000eb3db7e726aea4b49... 0x1f3d-0x1ffa.7 (190)
0x1f40|a3 42 22 00 0e b3 db 7e 72 6a ea 4b 49 00 14 71|.B"....~rj.KI..q|
*     |171 bytes more until 0x1ffa.7                  |                |
      |                                               |                |        [4]: aac_frame (sample) 0x1ffb-0x20bb.7 (193)
      |                                               |                |          raw_data_blocks: [1] 0x1ffb-0x1ffe.7 (4)
      |                                               |                |            [0]: {} (raw_data_block) 0x1ffb-0x1ffe.7 (4)
0x1ff0|                                 01            |           .    |              syntax_element: SCE (0) 0x1ffb-0x1ffb.2 (0.3)
0x1ff0|                                 01            |           .    |              element_instance_tag: 0 0x1ffb.3-0x1ffb.6 (0.4)
0x1ff0|                                 01 1a         |           ..   |              global_gain: 141 0x1ffb.7-0x1ffc.6 (1)
      |                                               |                |              ics_info: {} 0x1ffc.7-0x1ffe.5 (1.7)
0x1ff0|                                    1a         |            .   |                ics_reserved_bit: 0 0x1ffc.7-0x1ffc.7 (0.1)
0x1ff0|                                       99      |             .  |                window_sequence: EIGHT_START_SEQUENCE (2) 0x1ffd-0x1ffd.1 (0.2)
0x1ff0|                                       99      |             .  |                window_shape: 0 0x1ffd.2-0x1ffd.2 (0.1)
0x1ff0|                                       99      |             .  |                max_sfb: 12 0x1ffd.3-0x1ffd.6 (0.4)
0x1ff0|                                       99 b2   |             .. |                scale_factor_grouping: 108 0x1ffd.7-0x1ffe.5 (0.7)
0x1ff0|                                          b2   |              . |              byte_align: 80 0x1ffe.6-0x1ffe.7 (0.2)
0x1ff0|                                             d2|               .|          data: d230e2d24666ecd781e803cf1edc159f... 0x1fff-0x20bb.7 (189)
0x2000|30 e2 d2 46 66 ec d7 81 e8 03 cf 1e dc 15 9f dc|0..Ff...........|
*     |172 bytes more until 0x20bb.7                  |                |
      |                                               |                |        [5]: aac_frame (sample) 0x2a48-0x2a4c.7 (5)
      |                                               |                |          raw_data_blocks: [1] 0x2a48-0x2a4b.7 (4)
      |                                               |                |            [0]: {} (raw_data_block) 0x2a48-0x2a4b.7 (4)
0x2a40|                        01                     |        .       |              syntax_element: SCE (0) 0x2a48-0x2a48.2 (0.3)
0x2a40|                        01                     |        .       |              element_instance_tag: 0 0x2a48.3-0x2a48.6 (0.4)
0x2a40|                        01 18                  |        ..      |              global_gain: 140 0x2a48.7-0x2a49.6 (1)
      |                                               |                |              ics_info: {} 0x2a49.7-0x2a4b.5 (1.7)
0x2a40|                           18                  |         .      |                ics_reserved_bit: 0 0x2a49.7-0x2a49.7 (0.1)
0x2a40|                              81               |          .     |                window_sequence: EIGHT_START_SEQUENCE (2) 0x2a4a-0x2a4a.1 (0.2)
0x2a40|                              81               |          .     |                window_shape: 0 0x2a4a.2-0x2a4a.2 (0.1)
0x2a40|                              81               |          .     |                max_sfb: 0 0x2a4a.3-0x2a4a.6 (0.4)
0x2a40|                              81 b4            |          ..    |                scale_factor_grouping: 109 0x2a4a.7-0x2a4b.5 (0.7)
0x2a40|                                 b4            |           .    |              byte_align: 00 0x2a4b.6-0x2a4b.7 (0.2)
0x2a40|                                    70         |            p   |          data: 70 0x2a4c-0x2a4c.7 (1)
      |                                               |                |      data_format: "mp4a" 0x2b07-NA (0)
0x2a60|                           00 00 00 03 00 00 00|         .......|  unknown0: 00000003000000000000000000000000... 0x2a69-0x2aa5.7 (61)
0x2a70|00 00 00 00 00 00 00 00 00 00 00 04 d9 01 01 01|................|
*     |38 bytes more until 0x2aa5.7                   |                |
0x2ab0|                              00 00 00 03 00 00|          ......|  unknown1: 00000003000000000000000000000000... 0x2aba-0x2af6.7 (61)
0x2ac0|00 00 00 00 00 00 00 00 00 00 00 00 04 d9 01 01|................|
*     |39 bytes more until 0x2af6.7                   |                |
