# head -c 512 /dev/sda > mbr.bin
     |00 01 02 03 04 05 06 07 08 09 0a 0b 0c 0d 0e 0f 10 11 12 13|0123456789abcdef0123|.{}: format/mbr/testdata/mbr.bin (mbr) 0x0-0x1ff.7 (512)
0x000|eb 63 90 90 90 90 90 90 90 90 90 90 90 90 90 90 90 90 90 90|.c..................|  code_area: raw bits 0x0-0x1bd.7 (446)
*    |until 0x1bd.7 (446)                                        |                    |
     |                                                           |                    |  partition_table{}: 0x1be-0x1fd.7 (64)
     |                                                           |                    |    entry_1{}: 0x1be-0x1cd.7 (16)
0x1b8|                  80                                       |      .             |      boot_indicator: 128 (active) 0x1be-0x1be.7 (1)
0x1b8|                     02 01 00                              |       ...          |      starting_chs_vals: "CHS(0, 2, 1)" 0x1bf-0x1c1.7 (3)
0x1b8|                              cd                           |          .         |      partition_type: 205 (Reserved for DR-DOS 7+) 0x1c2-0x1c2.7 (1)
0x1b8|                                 3f e0 ff                  |           ?..      |      ending_chs_vals: "CHS(ff, 3f, 20)" 0x1c3-0x1c5.7 (3)
0x1b8|                                          40 00 00         |              @..   |      starting_sector: "CHS(0, 40, 0)" 0x1c6-0x1c8.7 (3)
0x1b8|                                                      ec 26|                  .&|      partition_size: 7939820 0x1ca-0x1cd.7 (4)
0x1cc|79 00                                                      |y.                  |
     |                                                           |                    |    entry_2{}: 0x1ce-0x1dd.7 (16)
0x1cc|      00                                                   |  .                 |      boot_indicator: 0 (inactive) 0x1ce-0x1ce.7 (1)
0x1cc|         3f e0 ff                                          |   ?..              |      starting_chs_vals: "CHS(ff, 3f, 20)" 0x1cf-0x1d1.7 (3)
0x1cc|                  ef                                       |      .             |      partition_type: 239 (EFI/UEFI System Partition (or ESP)) 0x1d2-0x1d2.7 (1)
0x1cc|                     3f e0 ff                              |       ?..          |      ending_chs_vals: "CHS(ff, 3f, 20)" 0x1d3-0x1d5.7 (3)
0x1cc|                              2c 27 79                     |          ,'y       |      starting_sector: "CHS(79, 2c, 27)" 0x1d6-0x1d8.7 (3)
0x1cc|                                          00 20 00 00      |              . ..  |      partition_size: 8192 0x1da-0x1dd.7 (4)
     |                                                           |                    |    entry_3{}: 0x1de-0x1ed.7 (16)
0x1cc|                                                      00   |                  . |      boot_indicator: 0 (inactive) 0x1de-0x1de.7 (1)
0x1cc|                                                         00|                   .|      starting_chs_vals: "CHS(0, 0, 0)" 0x1df-0x1e1.7 (3)
0x1e0|00 00                                                      |..                  |
0x1e0|      00                                                   |  .                 |      partition_type: 0 (empty) 0x1e2-0x1e2.7 (1)
0x1e0|         00 00 00                                          |   ...              |      ending_chs_vals: "CHS(0, 0, 0)" 0x1e3-0x1e5.7 (3)
0x1e0|                  00 00 00                                 |      ...           |      starting_sector: "CHS(0, 0, 0)" 0x1e6-0x1e8.7 (3)
0x1e0|                              00 00 00 00                  |          ....      |      partition_size: 0 0x1ea-0x1ed.7 (4)
     |                                                           |                    |    entry_4{}: 0x1ee-0x1fd.7 (16)
0x1e0|                                          00               |              .     |      boot_indicator: 0 (inactive) 0x1ee-0x1ee.7 (1)
0x1e0|                                             00 00 00      |               ...  |      starting_chs_vals: "CHS(0, 0, 0)" 0x1ef-0x1f1.7 (3)
0x1e0|                                                      00   |                  . |      partition_type: 0 (empty) 0x1f2-0x1f2.7 (1)
0x1e0|                                                         00|                   .|      ending_chs_vals: "CHS(0, 0, 0)" 0x1f3-0x1f5.7 (3)
0x1f4|00 00                                                      |..                  |
0x1f4|      00 00 00                                             |  ...               |      starting_sector: "CHS(0, 0, 0)" 0x1f6-0x1f8.7 (3)
0x1f4|                  00 00 00 00                              |      ....          |      partition_size: 0 0x1fa-0x1fd.7 (4)
0x1b8|                                                   00      |                 .  |  unknown0: raw bits 0x1c9-0x1c9.7 (1)
0x1cc|                                       00                  |             .      |  unknown1: raw bits 0x1d9-0x1d9.7 (1)
0x1e0|                           00                              |         .          |  unknown2: raw bits 0x1e9-0x1e9.7 (1)
0x1f4|               00                                          |     .              |  unknown3: raw bits 0x1f9-0x1f9.7 (1)
0x1f4|                              55 aa|                       |          U.|       |  boot_record_sig: 0xaa55 0x1fe-0x1ff.7 (2)
