$ fq -d tzx dv basic_prog1.tzx
    |00 01 02 03 04 05 06 07 08 09 0a 0b 0c 0d 0e 0f|0123456789abcdef|.{}: basic_prog1.tzx (tzx) 0x0-0xcd (205)
0x00|5a 58 54 61 70 65 21 1a                        |ZXTape!.        |  signature: raw bits (valid) 0x0-0x8 (8)
0x00|                        01                     |        .       |  major_version: 1 0x8-0x9 (1)
0x00|                           14                  |         .      |  minor_version: 20 0x9-0xa (1)
    |                                               |                |  blocks[0:3]: 0xa-0xcd (195)
    |                                               |                |    [0]{}: block 0xa-0x88 (126)
    |                                               |                |      archive_info{}: 0xa-0x88 (126)
0x00|                              32               |          2     |        type: "archive_info" (50) 0xa-0xb (1)
0x00|                                 7b 00         |           {.   |        length: 123 0xb-0xd (2)
0x00|                                       09      |             .  |        count: 9 0xd-0xe (1)
    |                                               |                |        entries[0:9]: 0xe-0x88 (122)
    |                                               |                |          [0]{}: entry 0xe-0x1a (12)
0x00|                                          00   |              . |            id: "title" (0) 0xe-0xf (1)
0x00|                                             0a|               .|            length: 10 0xf-0x10 (1)
0x10|66 71 74 65 73 74 70 72 6f 67                  |fqtestprog      |            value: "fqtestprog" 0x10-0x1a (10)
    |                                               |                |          [1]{}: entry 0x1a-0x21 (7)
0x10|                              01               |          .     |            id: "publisher" (1) 0x1a-0x1b (1)
0x10|                                 05            |           .    |            length: 5 0x1b-0x1c (1)
0x10|                                    77 61 64 65|            wade|            value: "wader" 0x1c-0x21 (5)
0x20|72                                             |r               |
    |                                               |                |          [2]{}: entry 0x21-0x32 (17)
0x20|   02                                          | .              |            id: "author" (2) 0x21-0x22 (1)
0x20|      0f                                       |  .             |            length: 15 0x22-0x23 (1)
0x20|         4d 69 63 68 61 65 6c 20 52 2e 20 43 6f|   Michael R. Co|            value: "Michael R. Cook" 0x23-0x32 (15)
0x30|6f 6b                                          |ok              |
    |                                               |                |          [3]{}: entry 0x32-0x38 (6)
0x30|      03                                       |  .             |            id: "year" (3) 0x32-0x33 (1)
0x30|         04                                    |   .            |            length: 4 0x33-0x34 (1)
0x30|            32 30 32 34                        |    2024        |            value: "2024" 0x34-0x38 (4)
    |                                               |                |          [4]{}: entry 0x38-0x41 (9)
0x30|                        04                     |        .       |            id: "language" (4) 0x38-0x39 (1)
0x30|                           07                  |         .      |            length: 7 0x39-0x3a (1)
0x30|                              45 6e 67 6c 69 73|          Englis|            value: "English" 0x3a-0x41 (7)
0x40|68                                             |h               |
    |                                               |                |          [5]{}: entry 0x41-0x4f (14)
0x40|   05                                          | .              |            id: "category" (5) 0x41-0x42 (1)
0x40|      0c                                       |  .             |            length: 12 0x42-0x43 (1)
0x40|         54 65 73 74 20 50 72 6f 67 72 61 6d   |   Test Program |            value: "Test Program" 0x43-0x4f (12)
    |                                               |                |          [6]{}: entry 0x4f-0x5c (13)
0x40|                                             07|               .|            id: "loader" (7) 0x4f-0x50 (1)
0x50|0b                                             |.               |            length: 11 0x50-0x51 (1)
0x50|   52 4f 4d 20 74 69 6d 69 6e 67 73            | ROM timings    |            value: "ROM timings" 0x51-0x5c (11)
    |                                               |                |          [7]{}: entry 0x5c-0x6e (18)
0x50|                                    08         |            .   |            id: "origin" (8) 0x5c-0x5d (1)
0x50|                                       10      |             .  |            length: 16 0x5d-0x5e (1)
0x50|                                          4f 72|              Or|            value: "Original release" 0x5e-0x6e (16)
0x60|69 67 69 6e 61 6c 20 72 65 6c 65 61 73 65      |iginal release  |
    |                                               |                |          [8]{}: entry 0x6e-0x88 (26)
0x60|                                          ff   |              . |            id: "comment" (255) 0x6e-0x6f (1)
0x60|                                             18|               .|            length: 24 0x6f-0x70 (1)
0x70|54 5a 58 65 64 20 62 79 20 4d 69 63 68 61 65 6c|TZXed by Michael|            value: "TZXed by Michael R. Cook" 0x70-0x88 (24)
0x80|20 52 2e 20 43 6f 6f 6b                        | R. Cook        |
    |                                               |                |    [1]{}: block 0x88-0xa0 (24)
    |                                               |                |      standard_speed_data{}: 0x88-0xa0 (24)
0x80|                        10                     |        .       |        type: "standard_speed_data" (16) 0x88-0x89 (1)
0x80|                           e8 03               |         ..     |        pause: 1000 0x89-0x8b (2)
    |00 01 02 03 04 05 06 07 08 09 0a 0b 0c 0d 0e 0f|0123456789abcdef|        tap{}: (tap) 0x8b-0xa0 (21)
    |                                               |                |          blocks[0:1]: 0x8b-0xa0 (21)
    |                                               |                |            [0]{}: block 0x8b-0xa0 (21)
0x80|                                 13 00         |           ..   |              length: 19 0x8b-0x8d (2)
    |                                               |                |              header{}: 0x8d-0xa0 (19)
0x80|                                       00      |             .  |                flag: "standard_speed_data" (0) 0x8d-0x8e (1)
0x80|                                          00   |              . |                data_type: "program" (0) 0x8e-0x8f (1)
0x80|                                             66|               f|                program_name: "fqTestProg" 0x8f-0x99 (10)
0x90|71 54 65 73 74 50 72 6f 67                     |qTestProg       |
0x90|                           26 00               |         &.     |                data_length: 38 0x99-0x9b (2)
0x90|                                 0a 00         |           ..   |                auto_start_line: 10 0x9b-0x9d (2)
0x90|                                       26 00   |             &. |                program_length: 38 0x9d-0x9f (2)
0x90|                                             01|               .|                checksum: 0x1 (valid) 0x9f-0xa0 (1)
    |                                               |                |    [2]{}: block 0xa0-0xcd (45)
    |                                               |                |      standard_speed_data{}: 0xa0-0xcd (45)
0xa0|10                                             |.               |        type: "standard_speed_data" (16) 0xa0-0xa1 (1)
0xa0|   e8 03                                       | ..             |        pause: 1000 0xa1-0xa3 (2)
    |00 01 02 03 04 05 06 07 08 09 0a 0b 0c 0d 0e 0f|0123456789abcdef|        tap{}: (tap) 0xa3-0xcd (42)
    |                                               |                |          blocks[0:1]: 0xa3-0xcd (42)
    |                                               |                |            [0]{}: block 0xa3-0xcd (42)
0xa0|         28 00                                 |   (.           |              length: 40 0xa3-0xa5 (2)
    |                                               |                |              data{}: 0xa5-0xcd (40)
0xa0|               ff                              |     .          |                flag: "standard_speed_data" (255) 0xa5-0xa6 (1)
0xa0|                  00 0a 14 00 20 f5 22 66 71 20|      .... ."fq |                bytes: raw bits 0xa6-0xcc (38)
0xb0|69 73 20 74 68 65 20 62 65 73 74 21 22 0d 00 14|is the best!"...|
0xc0|0a 00 ec 31 30 0e 00 00 0a 00 00 0d            |...10.......    |
0xc0|                                    b6|        |            .|  |                checksum: 0xb6 (valid) 0xcc-0xcd (1)
