$ fq -d rtmp dv ffmpeg_client_stream
      |00 01 02 03 04 05 06 07 08 09 0a 0b 0c 0d 0e 0f|0123456789abcdef|.{}: ffmpeg_client_stream (rtmp) 0x0-0xdbe (3518)
      |                                               |                |  handshake{}: 0x0-0xc01 (3073)
      |                                               |                |    s0{}: 0x0-0x1 (1)
0x0000|03                                             |.               |      version: 3 0x0-0x1 (1)
      |                                               |                |    s1{}: 0x1-0x601 (1536)
0x0000|   00 00 00 00                                 | ....           |      time: 0 0x1-0x5 (4)
0x0000|               09 00 7c 02                     |     ..|.       |      zero: 151026690 0x5-0x9 (4)
0x0000|                           f7 78 55 1e ce ab 8e|         .xU....|      random: raw bits 0x9-0x601 (1528)
0x0010|1e 36 2f 07 c5 86 8a 70 b2 66 d4 02 20 e5 08 61|.6/....p.f.. ..a|
*     |until 0x600.7 (1528)                           |                |
      |                                               |                |    s2{}: 0x601-0xc01 (1536)
0x0600|   00 00 00 00                                 | ....           |      time: 0 0x601-0x605 (4)
0x0600|               00 00 00 00                     |     ....       |      time2: 0 0x605-0x609 (4)
0x0600|                           39 cf 0b bf 4a 34 14|         9...J4.|      random: raw bits 0x609-0xc01 (1528)
0x0610|11 65 b1 a2 55 28 d5 69 f0 4f 76 41 25 75 5d 6a|.e..U(.i.OvA%u]j|
*     |until 0xc00.7 (1528)                           |                |
      |                                               |                |  messages[0:8]: 0xc01-0xc01 (0)
      |00 01 02 03 04 05 06 07 08 09 0a 0b 0c 0d 0e 0f|0123456789abcdef|    [0]{}: message 0x0-0xd2 (210)
      |                                               |                |      message_stream_id: 0
      |                                               |                |      message_type_id: "command_message" (20)
      |00 01 02 03 04 05 06 07 08 09 0a 0b 0c 0d 0e 0f|0123456789abcdef|      command_name{}: (amf0) 0x0-0xa (10)
  0x00|02                                             |.               |        type: "string" (2) 0x0-0x1 (1)
  0x00|   00 07                                       | ..             |        length: 7 0x1-0x3 (2)
  0x00|         63 6f 6e 6e 65 63 74                  |   connect      |        value: "connect" 0x3-0xa (7)
      |00 01 02 03 04 05 06 07 08 09 0a 0b 0c 0d 0e 0f|0123456789abcdef|      transaction_id{}: (amf0) 0xa-0x13 (9)
  0x00|                              00               |          .     |        type: "number" (0) 0xa-0xb (1)
  0x00|                                 3f f0 00 00 00|           ?....|        value: 1 0xb-0x13 (8)
  0x01|00 00 00                                       |...             |
      |00 01 02 03 04 05 06 07 08 09 0a 0b 0c 0d 0e 0f|0123456789abcdef|      command_object{}: (amf0) 0x13-0xd2 (191)
  0x01|         03                                    |   .            |        type: "object" (3) 0x13-0x14 (1)
      |                                               |                |        value[0:9]: 0x14-0xd2 (190)
      |                                               |                |          [0]{}: pair 0x14-0x27 (19)
      |                                               |                |            key{}: 0x14-0x19 (5)
  0x01|            00 03                              |    ..          |              length: 3 0x14-0x16 (2)
  0x01|                  61 70 70                     |      app       |              value: "app" 0x16-0x19 (3)
      |                                               |                |            value{}: 0x19-0x27 (14)
  0x01|                           02                  |         .      |              type: "string" (2) 0x19-0x1a (1)
  0x01|                              00 0b            |          ..    |              length: 11 0x1a-0x1c (2)
  0x01|                                    74 65 73 74|            test|              value: "test_stream" 0x1c-0x27 (11)
  0x02|5f 73 74 72 65 61 6d                           |_stream         |
      |                                               |                |          [1]{}: pair 0x27-0x41 (26)
      |                                               |                |            key{}: 0x27-0x31 (10)
  0x02|                     00 08                     |       ..       |              length: 8 0x27-0x29 (2)
  0x02|                           66 6c 61 73 68 56 65|         flashVe|              value: "flashVer" 0x29-0x31 (8)
  0x03|72                                             |r               |
      |                                               |                |            value{}: 0x31-0x41 (16)
  0x03|   02                                          | .              |              type: "string" (2) 0x31-0x32 (1)
  0x03|      00 0d                                    |  ..            |              length: 13 0x32-0x34 (2)
  0x03|            4c 4e 58 20 39 2c 30 2c 31 32 34 2c|    LNX 9,0,124,|              value: "LNX 9,0,124,2" 0x34-0x41 (13)
  0x04|32                                             |2               |
      |                                               |                |          [2]{}: pair 0x41-0x6c (43)
      |                                               |                |            key{}: 0x41-0x48 (7)
  0x04|   00 05                                       | ..             |              length: 5 0x41-0x43 (2)
  0x04|         74 63 55 72 6c                        |   tcUrl        |              value: "tcUrl" 0x43-0x48 (5)
      |                                               |                |            value{}: 0x48-0x6c (36)
  0x04|                        02                     |        .       |              type: "string" (2) 0x48-0x49 (1)
  0x04|                           00 21               |         .!     |              length: 33 0x49-0x4b (2)
  0x04|                                 72 74 6d 70 3a|           rtmp:|              value: "rtmp://localhost:1935/test_stream" 0x4b-0x6c (33)
  0x05|2f 2f 6c 6f 63 61 6c 68 6f 73 74 3a 31 39 33 35|//localhost:1935|
  0x06|2f 74 65 73 74 5f 73 74 72 65 61 6d            |/test_stream    |
      |                                               |                |          [3]{}: pair 0x6c-0x74 (8)
      |                                               |                |            key{}: 0x6c-0x72 (6)
  0x06|                                    00 04      |            ..  |              length: 4 0x6c-0x6e (2)
  0x06|                                          66 70|              fp|              value: "fpad" 0x6e-0x72 (4)
  0x07|61 64                                          |ad              |
      |                                               |                |            value{}: 0x72-0x74 (2)
  0x07|      01                                       |  .             |              type: "boolean" (1) 0x72-0x73 (1)
  0x07|         00                                    |   .            |              value: 0 0x73-0x74 (1)
      |                                               |                |          [4]{}: pair 0x74-0x8b (23)
      |                                               |                |            key{}: 0x74-0x82 (14)
  0x07|            00 0c                              |    ..          |              length: 12 0x74-0x76 (2)
  0x07|                  63 61 70 61 62 69 6c 69 74 69|      capabiliti|              value: "capabilities" 0x76-0x82 (12)
  0x08|65 73                                          |es              |
      |                                               |                |            value{}: 0x82-0x8b (9)
  0x08|      00                                       |  .             |              type: "number" (0) 0x82-0x83 (1)
  0x08|         40 2e 00 00 00 00 00 00               |   @.......     |              value: 15 0x83-0x8b (8)
      |                                               |                |          [5]{}: pair 0x8b-0xa1 (22)
      |                                               |                |            key{}: 0x8b-0x98 (13)
  0x08|                                 00 0b         |           ..   |              length: 11 0x8b-0x8d (2)
  0x08|                                       61 75 64|             aud|              value: "audioCodecs" 0x8d-0x98 (11)
  0x09|69 6f 43 6f 64 65 63 73                        |ioCodecs        |
      |                                               |                |            value{}: 0x98-0xa1 (9)
  0x09|                        00                     |        .       |              type: "number" (0) 0x98-0x99 (1)
  0x09|                           40 af ce 00 00 00 00|         @......|              value: 4071 0x99-0xa1 (8)
  0x0a|00                                             |.               |
      |                                               |                |          [6]{}: pair 0xa1-0xb7 (22)
      |                                               |                |            key{}: 0xa1-0xae (13)
  0x0a|   00 0b                                       | ..             |              length: 11 0xa1-0xa3 (2)
  0x0a|         76 69 64 65 6f 43 6f 64 65 63 73      |   videoCodecs  |              value: "videoCodecs" 0xa3-0xae (11)
      |                                               |                |            value{}: 0xae-0xb7 (9)
  0x0a|                                          00   |              . |              type: "number" (0) 0xae-0xaf (1)
  0x0a|                                             40|               @|              value: 252 0xaf-0xb7 (8)
  0x0b|6f 80 00 00 00 00 00                           |o......         |
      |                                               |                |          [7]{}: pair 0xb7-0xcf (24)
      |                                               |                |            key{}: 0xb7-0xc6 (15)
  0x0b|                     00 0d                     |       ..       |              length: 13 0xb7-0xb9 (2)
  0x0b|                           76 69 64 65 6f 46 75|         videoFu|              value: "videoFunction" 0xb9-0xc6 (13)
  0x0c|6e 63 74 69 6f 6e                              |nction          |
      |                                               |                |            value{}: 0xc6-0xcf (9)
  0x0c|                  00                           |      .         |              type: "number" (0) 0xc6-0xc7 (1)
  0x0c|                     3f f0 00 00 00 00 00 00   |       ?....... |              value: 1 0xc7-0xcf (8)
      |                                               |                |          [8]{}: pair 0xcf-0xd2 (3)
      |                                               |                |            key{}: 0xcf-0xd1 (2)
  0x0c|                                             00|               .|              length: 0 0xcf-0xd1 (2)
  0x0d|00                                             |.               |
      |                                               |                |              value: "" 0xd1-0xd1 (0)
      |                                               |                |            value{}: 0xd1-0xd2 (1)
  0x0d|   09|                                         | .|             |              type: "object_end" (9) 0xd1-0xd2 (1)
      |                                               |                |      arguments[0:0]: 0xd2-0xd2 (0)
      |00 01 02 03 04 05 06 07 08 09 0a 0b 0c 0d 0e 0f|0123456789abcdef|    [1]{}: message 0x0-0x4 (4)
      |                                               |                |      message_stream_id: 0
      |                                               |                |      message_type_id: "window_acknowledgement_size" (5)
  0x00|00 26 25 a0|                                   |.&%.|           |      window_size: 2500000 0x0-0x4 (4)
      |00 01 02 03 04 05 06 07 08 09 0a 0b 0c 0d 0e 0f|0123456789abcdef|    [2]{}: message 0x0-0x19 (25)
      |                                               |                |      message_stream_id: 0
      |                                               |                |      message_type_id: "command_message" (20)
      |00 01 02 03 04 05 06 07 08 09 0a 0b 0c 0d 0e 0f|0123456789abcdef|      command_name{}: (amf0) 0x0-0xf (15)
  0x00|02                                             |.               |        type: "string" (2) 0x0-0x1 (1)
  0x00|   00 0c                                       | ..             |        length: 12 0x1-0x3 (2)
  0x00|         63 72 65 61 74 65 53 74 72 65 61 6d   |   createStream |        value: "createStream" 0x3-0xf (12)
      |00 01 02 03 04 05 06 07 08 09 0a 0b 0c 0d 0e 0f|0123456789abcdef|      transaction_id{}: (amf0) 0xf-0x18 (9)
  0x00|                                             00|               .|        type: "number" (0) 0xf-0x10 (1)
  0x01|40 00 00 00 00 00 00 00                        |@.......        |        value: 2 0x10-0x18 (8)
      |00 01 02 03 04 05 06 07 08 09 0a 0b 0c 0d 0e 0f|0123456789abcdef|      command_object{}: (amf0) 0x18-0x19 (1)
  0x01|                        05|                    |        .|      |        type: "null" (5) 0x18-0x19 (1)
      |                                               |                |        value: null
      |                                               |                |      arguments[0:0]: 0x19-0x19 (0)
      |00 01 02 03 04 05 06 07 08 09 0a 0b 0c 0d 0e 0f|0123456789abcdef|    [3]{}: message 0x0-0x15 (21)
      |                                               |                |      message_stream_id: 0
      |                                               |                |      message_type_id: "command_message" (20)
      |00 01 02 03 04 05 06 07 08 09 0a 0b 0c 0d 0e 0f|0123456789abcdef|      command_name{}: (amf0) 0x0-0xb (11)
  0x00|02                                             |.               |        type: "string" (2) 0x0-0x1 (1)
  0x00|   00 08                                       | ..             |        length: 8 0x1-0x3 (2)
  0x00|         5f 63 68 65 63 6b 62 77               |   _checkbw     |        value: "_checkbw" 0x3-0xb (8)
      |00 01 02 03 04 05 06 07 08 09 0a 0b 0c 0d 0e 0f|0123456789abcdef|      transaction_id{}: (amf0) 0xb-0x14 (9)
  0x00|                                 00            |           .    |        type: "number" (0) 0xb-0xc (1)
  0x00|                                    40 08 00 00|            @...|        value: 3 0xc-0x14 (8)
  0x01|00 00 00 00                                    |....            |
      |00 01 02 03 04 05 06 07 08 09 0a 0b 0c 0d 0e 0f|0123456789abcdef|      command_object{}: (amf0) 0x14-0x15 (1)
  0x01|            05|                                |    .|          |        type: "null" (5) 0x14-0x15 (1)
      |                                               |                |        value: null
      |                                               |                |      arguments[0:0]: 0x15-0x15 (0)
      |00 01 02 03 04 05 06 07 08 09 0a 0b 0c 0d 0e 0f|0123456789abcdef|    [4]{}: message 0x0-0x1f (31)
      |                                               |                |      message_stream_id: 0
      |                                               |                |      message_type_id: "command_message" (20)
      |00 01 02 03 04 05 06 07 08 09 0a 0b 0c 0d 0e 0f|0123456789abcdef|      command_name{}: (amf0) 0x0-0x12 (18)
  0x00|02                                             |.               |        type: "string" (2) 0x0-0x1 (1)
  0x00|   00 0f                                       | ..             |        length: 15 0x1-0x3 (2)
  0x00|         67 65 74 53 74 72 65 61 6d 4c 65 6e 67|   getStreamLeng|        value: "getStreamLength" 0x3-0x12 (15)
  0x01|74 68                                          |th              |
      |00 01 02 03 04 05 06 07 08 09 0a 0b 0c 0d 0e 0f|0123456789abcdef|      transaction_id{}: (amf0) 0x12-0x1b (9)
  0x01|      00                                       |  .             |        type: "number" (0) 0x12-0x13 (1)
  0x01|         40 10 00 00 00 00 00 00               |   @.......     |        value: 4 0x13-0x1b (8)
      |00 01 02 03 04 05 06 07 08 09 0a 0b 0c 0d 0e 0f|0123456789abcdef|      command_object{}: (amf0) 0x1b-0x1c (1)
  0x01|                                 05            |           .    |        type: "null" (5) 0x1b-0x1c (1)
      |                                               |                |        value: null
      |                                               |                |      arguments[0:1]: 0x1c-0x1f (3)
      |00 01 02 03 04 05 06 07 08 09 0a 0b 0c 0d 0e 0f|0123456789abcdef|        [0]{}: argument (amf0) 0x1c-0x1f (3)
  0x01|                                    02         |            .   |          type: "string" (2) 0x1c-0x1d (1)
  0x01|                                       00 00|  |             ..||          length: 0 0x1d-0x1f (2)
      |                                               |                |          value: "" 0x1f-0x1f (0)
      |00 01 02 03 04 05 06 07 08 09 0a 0b 0c 0d 0e 0f|0123456789abcdef|    [5]{}: message 0x0-0x1d (29)
      |                                               |                |      message_stream_id: 1
      |                                               |                |      message_type_id: "command_message" (20)
      |00 01 02 03 04 05 06 07 08 09 0a 0b 0c 0d 0e 0f|0123456789abcdef|      command_name{}: (amf0) 0x0-0x7 (7)
  0x00|02                                             |.               |        type: "string" (2) 0x0-0x1 (1)
  0x00|   00 04                                       | ..             |        length: 4 0x1-0x3 (2)
  0x00|         70 6c 61 79                           |   play         |        value: "play" 0x3-0x7 (4)
      |00 01 02 03 04 05 06 07 08 09 0a 0b 0c 0d 0e 0f|0123456789abcdef|      transaction_id{}: (amf0) 0x7-0x10 (9)
  0x00|                     00                        |       .        |        type: "number" (0) 0x7-0x8 (1)
  0x00|                        40 14 00 00 00 00 00 00|        @.......|        value: 5 0x8-0x10 (8)
      |00 01 02 03 04 05 06 07 08 09 0a 0b 0c 0d 0e 0f|0123456789abcdef|      command_object{}: (amf0) 0x10-0x11 (1)
  0x01|05                                             |.               |        type: "null" (5) 0x10-0x11 (1)
      |                                               |                |        value: null
      |                                               |                |      arguments[0:2]: 0x11-0x1d (12)
      |00 01 02 03 04 05 06 07 08 09 0a 0b 0c 0d 0e 0f|0123456789abcdef|        [0]{}: argument (amf0) 0x11-0x14 (3)
  0x01|   02                                          | .              |          type: "string" (2) 0x11-0x12 (1)
  0x01|      00 00                                    |  ..            |          length: 0 0x12-0x14 (2)
      |                                               |                |          value: "" 0x14-0x14 (0)
      |00 01 02 03 04 05 06 07 08 09 0a 0b 0c 0d 0e 0f|0123456789abcdef|        [1]{}: argument (amf0) 0x14-0x1d (9)
  0x01|            00                                 |    .           |          type: "number" (0) 0x14-0x15 (1)
  0x01|               c0 9f 40 00 00 00 00 00|        |     ..@.....|  |          value: -2000 0x15-0x1d (8)
      |00 01 02 03 04 05 06 07 08 09 0a 0b 0c 0d 0e 0f|0123456789abcdef|    [6]{}: message 0x0-0xa (10)
      |                                               |                |      message_stream_id: 0
      |                                               |                |      message_type_id: "user_control_message" (4)
  0x00|00 03                                          |..              |      type: "set_buffer_length" (3) 0x0-0x2 (2)
  0x00|      00 00 00 01                              |  ....          |      stream_id: 1 0x2-0x6 (4)
  0x00|                  00 00 0b b8|                 |      ....|     |      length: 3000 0x6-0xa (4)
      |00 01 02 03 04 05 06 07 08 09 0a 0b 0c 0d 0e 0f|0123456789abcdef|    [7]{}: message 0x0-0x22 (34)
      |                                               |                |      message_stream_id: 0
      |                                               |                |      message_type_id: "command_message" (20)
      |00 01 02 03 04 05 06 07 08 09 0a 0b 0c 0d 0e 0f|0123456789abcdef|      command_name{}: (amf0) 0x0-0xf (15)
  0x00|02                                             |.               |        type: "string" (2) 0x0-0x1 (1)
  0x00|   00 0c                                       | ..             |        length: 12 0x1-0x3 (2)
  0x00|         64 65 6c 65 74 65 53 74 72 65 61 6d   |   deleteStream |        value: "deleteStream" 0x3-0xf (12)
      |00 01 02 03 04 05 06 07 08 09 0a 0b 0c 0d 0e 0f|0123456789abcdef|      transaction_id{}: (amf0) 0xf-0x18 (9)
  0x00|                                             00|               .|        type: "number" (0) 0xf-0x10 (1)
  0x01|40 18 00 00 00 00 00 00                        |@.......        |        value: 6 0x10-0x18 (8)
      |00 01 02 03 04 05 06 07 08 09 0a 0b 0c 0d 0e 0f|0123456789abcdef|      command_object{}: (amf0) 0x18-0x19 (1)
  0x01|                        05                     |        .       |        type: "null" (5) 0x18-0x19 (1)
      |                                               |                |        value: null
      |                                               |                |      arguments[0:1]: 0x19-0x22 (9)
      |00 01 02 03 04 05 06 07 08 09 0a 0b 0c 0d 0e 0f|0123456789abcdef|        [0]{}: argument (amf0) 0x19-0x22 (9)
  0x01|                           00                  |         .      |          type: "number" (0) 0x19-0x1a (1)
  0x01|                              3f f0 00 00 00 00|          ?.....|          value: 1 0x1a-0x22 (8)
  0x02|00 00|                                         |..|             |
      |                                               |                |  chunks[0:9]: 0xc01-0xdbe (445)
      |                                               |                |    [0]{}: chunk 0xc01-0xc8d (140)
0x0c00|   03                                          | .              |      fmt: 0 0xc01-0xc01.2 (0.2)
0x0c00|   03                                          | .              |      chunk_stream_id: 3 0xc01.2-0xc02 (0.6)
0x0c00|      00 00 00                                 |  ...           |      timestamp: 0 0xc02-0xc05 (3)
0x0c00|               00 00 d2                        |     ...        |      message_length: 210 0xc05-0xc08 (3)
0x0c00|                        14                     |        .       |      message_type_id: "command_message" (20) 0xc08-0xc09 (1)
0x0c00|                           00 00 00 00         |         ....   |      message_stream_id: 0 0xc09-0xc0d (4)
      |                                               |                |      calculated_timestamp: 0
0x0c00|                                       02 00 07|             ...|      data: raw bits 0xc0d-0xc8d (128)
0x0c10|63 6f 6e 6e 65 63 74 00 3f f0 00 00 00 00 00 00|connect.?.......|
*     |until 0xc8c.7 (128)                            |                |
      |                                               |                |    [1]{}: chunk 0xc8d-0xce0 (83)
0x0c80|                                       c3      |             .  |      fmt: 3 0xc8d-0xc8d.2 (0.2)
0x0c80|                                       c3      |             .  |      chunk_stream_id: 3 0xc8d.2-0xc8e (0.6)
      |                                               |                |      message_length: 210 (previous)
      |                                               |                |      message_type_id: 20 (previous)
      |                                               |                |      message_stream_id: 0 (previous)
      |                                               |                |      calculated_timestamp: 0
0x0c80|                                          65 73|              es|      data: raw bits 0xc8e-0xce0 (82)
0x0c90|00 40 2e 00 00 00 00 00 00 00 0b 61 75 64 69 6f|.@.........audio|
*     |until 0xcdf.7 (82)                             |                |
      |                                               |                |    [2]{}: chunk 0xce0-0xcf0 (16)
0x0ce0|02                                             |.               |      fmt: 0 0xce0-0xce0.2 (0.2)
0x0ce0|02                                             |.               |      chunk_stream_id: 2 0xce0.2-0xce1 (0.6)
0x0ce0|   00 00 00                                    | ...            |      timestamp: 0 0xce1-0xce4 (3)
0x0ce0|            00 00 04                           |    ...         |      message_length: 4 0xce4-0xce7 (3)
0x0ce0|                     05                        |       .        |      message_type_id: "window_acknowledgement_size" (5) 0xce7-0xce8 (1)
0x0ce0|                        00 00 00 00            |        ....    |      message_stream_id: 0 0xce8-0xcec (4)
      |                                               |                |      calculated_timestamp: 0
0x0ce0|                                    00 26 25 a0|            .&%.|      data: raw bits 0xcec-0xcf0 (4)
      |                                               |                |    [3]{}: chunk 0xcf0-0xd11 (33)
0x0cf0|43                                             |C               |      fmt: 1 0xcf0-0xcf0.2 (0.2)
0x0cf0|43                                             |C               |      chunk_stream_id: 3 0xcf0.2-0xcf1 (0.6)
0x0cf0|   00 00 00                                    | ...            |      timestamp_delta: 0 0xcf1-0xcf4 (3)
0x0cf0|            00 00 19                           |    ...         |      message_length: 25 0xcf4-0xcf7 (3)
0x0cf0|                     14                        |       .        |      message_type_id: "command_message" (20) 0xcf7-0xcf8 (1)
      |                                               |                |      message_stream_id: 0 (previous)
      |                                               |                |      calculated_timestamp: 0
0x0cf0|                        02 00 0c 63 72 65 61 74|        ...creat|      data: raw bits 0xcf8-0xd11 (25)
0x0d00|65 53 74 72 65 61 6d 00 40 00 00 00 00 00 00 00|eStream.@.......|
0x0d10|05                                             |.               |
      |                                               |                |    [4]{}: chunk 0xd11-0xd2e (29)
0x0d10|   43                                          | C              |      fmt: 1 0xd11-0xd11.2 (0.2)
0x0d10|   43                                          | C              |      chunk_stream_id: 3 0xd11.2-0xd12 (0.6)
0x0d10|      00 00 00                                 |  ...           |      timestamp_delta: 0 0xd12-0xd15 (3)
0x0d10|               00 00 15                        |     ...        |      message_length: 21 0xd15-0xd18 (3)
0x0d10|                        14                     |        .       |      message_type_id: "command_message" (20) 0xd18-0xd19 (1)
      |                                               |                |      message_stream_id: 0 (previous)
      |                                               |                |      calculated_timestamp: 0
0x0d10|                           02 00 08 5f 63 68 65|         ..._che|      data: raw bits 0xd19-0xd2e (21)
0x0d20|63 6b 62 77 00 40 08 00 00 00 00 00 00 05      |ckbw.@........  |
      |                                               |                |    [5]{}: chunk 0xd2e-0xd59 (43)
0x0d20|                                          08   |              . |      fmt: 0 0xd2e-0xd2e.2 (0.2)
0x0d20|                                          08   |              . |      chunk_stream_id: 8 0xd2e.2-0xd2f (0.6)
0x0d20|                                             00|               .|      timestamp: 0 0xd2f-0xd32 (3)
0x0d30|00 00                                          |..              |
0x0d30|      00 00 1f                                 |  ...           |      message_length: 31 0xd32-0xd35 (3)
0x0d30|               14                              |     .          |      message_type_id: "command_message" (20) 0xd35-0xd36 (1)
0x0d30|                  00 00 00 00                  |      ....      |      message_stream_id: 0 0xd36-0xd3a (4)
      |                                               |                |      calculated_timestamp: 0
0x0d30|                              02 00 0f 67 65 74|          ...get|      data: raw bits 0xd3a-0xd59 (31)
0x0d40|53 74 72 65 61 6d 4c 65 6e 67 74 68 00 40 10 00|StreamLength.@..|
0x0d50|00 00 00 00 00 05 02 00 00                     |.........       |
      |                                               |                |    [6]{}: chunk 0xd59-0xd82 (41)
0x0d50|                           08                  |         .      |      fmt: 0 0xd59-0xd59.2 (0.2)
0x0d50|                           08                  |         .      |      chunk_stream_id: 8 0xd59.2-0xd5a (0.6)
0x0d50|                              00 00 00         |          ...   |      timestamp: 0 0xd5a-0xd5d (3)
0x0d50|                                       00 00 1d|             ...|      message_length: 29 0xd5d-0xd60 (3)
0x0d60|14                                             |.               |      message_type_id: "command_message" (20) 0xd60-0xd61 (1)
0x0d60|   01 00 00 00                                 | ....           |      message_stream_id: 1 0xd61-0xd65 (4)
      |                                               |                |      calculated_timestamp: 0
0x0d60|               02 00 04 70 6c 61 79 00 40 14 00|     ...play.@..|      data: raw bits 0xd65-0xd82 (29)
0x0d70|00 00 00 00 00 05 02 00 00 00 c0 9f 40 00 00 00|............@...|
0x0d80|00 00                                          |..              |
      |                                               |                |    [7]{}: chunk 0xd82-0xd94 (18)
0x0d80|      42                                       |  B             |      fmt: 1 0xd82-0xd82.2 (0.2)
0x0d80|      42                                       |  B             |      chunk_stream_id: 2 0xd82.2-0xd83 (0.6)
0x0d80|         00 00 01                              |   ...          |      timestamp_delta: 1 0xd83-0xd86 (3)
0x0d80|                  00 00 0a                     |      ...       |      message_length: 10 0xd86-0xd89 (3)
0x0d80|                           04                  |         .      |      message_type_id: "user_control_message" (4) 0xd89-0xd8a (1)
      |                                               |                |      message_stream_id: 0 (previous)
      |                                               |                |      calculated_timestamp: 1
0x0d80|                              00 03 00 00 00 01|          ......|      data: raw bits 0xd8a-0xd94 (10)
0x0d90|00 00 0b b8                                    |....            |
      |                                               |                |    [8]{}: chunk 0xd94-0xdbe (42)
0x0d90|            43                                 |    C           |      fmt: 1 0xd94-0xd94.2 (0.2)
0x0d90|            43                                 |    C           |      chunk_stream_id: 3 0xd94.2-0xd95 (0.6)
0x0d90|               00 00 00                        |     ...        |      timestamp_delta: 0 0xd95-0xd98 (3)
0x0d90|                        00 00 22               |        .."     |      message_length: 34 0xd98-0xd9b (3)
0x0d90|                                 14            |           .    |      message_type_id: "command_message" (20) 0xd9b-0xd9c (1)
      |                                               |                |      message_stream_id: 0 (previous)
      |                                               |                |      calculated_timestamp: 0
0x0d90|                                    02 00 0c 64|            ...d|      data: raw bits 0xd9c-0xdbe (34)
0x0da0|65 6c 65 74 65 53 74 72 65 61 6d 00 40 18 00 00|eleteStream.@...|
0x0db0|00 00 00 00 05 00 3f f0 00 00 00 00 00 00|     |......?.......| |
