$ fq -d rtmp 'dv({array_truncate: 20})' ffmpeg_server_stream
       |00 01 02 03 04 05 06 07 08 09 0a 0b 0c 0d 0e 0f|0123456789abcdef|.{}: ffmpeg_server_stream (rtmp) 0x0-0x1644c.7 (91213)
       |                                               |                |  handshake{}: 0x0-0xc00.7 (3073)
       |                                               |                |    s0{}: 0x0-0x0.7 (1)
0x00000|03                                             |.               |      version: 3 0x0-0x0.7 (1)
       |                                               |                |    s1{}: 0x1-0x600.7 (1536)
0x00000|   00 00 00 00                                 | ....           |      time: 0 0x1-0x4.7 (4)
0x00000|               00 00 00 00                     |     ....       |      zero: 0 0x5-0x8.7 (4)
0x00000|                           39 cf 0b bf 4a 34 14|         9...J4.|      random: raw bits 0x9-0x600.7 (1528)
0x00010|11 65 b1 a2 55 28 d5 69 f0 4f 76 41 25 75 5d 6a|.e..U(.i.OvA%u]j|
*      |until 0x600.7 (1528)                           |                |
       |                                               |                |    s2{}: 0x601-0xc00.7 (1536)
0x00600|   00 00 00 00                                 | ....           |      time: 0 0x601-0x604.7 (4)
0x00600|               00 00 00 00                     |     ....       |      time2: 0 0x605-0x608.7 (4)
0x00600|                           f7 78 55 1e ce ab 8e|         .xU....|      random: raw bits 0x609-0xc00.7 (1528)
0x00610|1e 36 2f 07 c5 86 8a 70 b2 66 d4 02 20 e5 08 61|.6/....p.f.. ..a|
*      |until 0xc00.7 (1528)                           |                |
       |                                               |                |  messages[0:421]: 0xc01-NA (0)
       |00 01 02 03 04 05 06 07 08 09 0a 0b 0c 0d 0e 0f|0123456789abcdef|    [0]{}: message 0x0-0x3.7 (4)
       |                                               |                |      message_stream_id: 0 0x0-NA (0)
       |                                               |                |      message_type_id: "window_acknowledgement_size" (5) 0x0-NA (0)
  0x000|00 26 25 a0|                                   |.&%.|           |      window_size: 2500000 0x0-0x3.7 (4)
       |00 01 02 03 04 05 06 07 08 09 0a 0b 0c 0d 0e 0f|0123456789abcdef|    [1]{}: message 0x0-0x4.7 (5)
       |                                               |                |      message_stream_id: 0 0x0-NA (0)
       |                                               |                |      message_type_id: "set_peer_bandwidth" (6) 0x0-NA (0)
  0x000|00 26 25 a0                                    |.&%.            |      chunk_size: 2500000 0x0-0x3.7 (4)
  0x000|            02|                                |    .|          |      limit_type: "dynamic" (2) 0x4-0x4.7 (1)
       |00 01 02 03 04 05 06 07 08 09 0a 0b 0c 0d 0e 0f|0123456789abcdef|    [2]{}: message 0x0-0x5.7 (6)
       |                                               |                |      message_stream_id: 0 0x0-NA (0)
       |                                               |                |      message_type_id: "user_control_message" (4) 0x0-NA (0)
  0x000|00 00                                          |..              |      type: "stream_begin" (0) 0x0-0x1.7 (2)
  0x000|      00 00 00 00|                             |  ....|         |      stream_id: 0 0x2-0x5.7 (4)
       |00 01 02 03 04 05 06 07 08 09 0a 0b 0c 0d 0e 0f|0123456789abcdef|    [3]{}: message 0x0-0x3.7 (4)
       |                                               |                |      message_stream_id: 0 0x0-NA (0)
       |                                               |                |      message_type_id: "set_chunk_size" (1) 0x0-NA (0)
  0x000|00 00 00 80|                                   |....|           |      size: 128 0x0-0x3.7 (4)
       |00 01 02 03 04 05 06 07 08 09 0a 0b 0c 0d 0e 0f|0123456789abcdef|    [4]{}: message 0x0-0xbd.7 (190)
       |                                               |                |      message_stream_id: 0 0x0-NA (0)
       |                                               |                |      message_type_id: "command_message" (20) 0x0-NA (0)
       |00 01 02 03 04 05 06 07 08 09 0a 0b 0c 0d 0e 0f|0123456789abcdef|      command_name{}: (amf0) 0x0-0x9.7 (10)
  0x000|02                                             |.               |        type: "string" (2) 0x0-0x0.7 (1)
  0x000|   00 07                                       | ..             |        length: 7 0x1-0x2.7 (2)
  0x000|         5f 72 65 73 75 6c 74                  |   _result      |        value: "_result" 0x3-0x9.7 (7)
       |00 01 02 03 04 05 06 07 08 09 0a 0b 0c 0d 0e 0f|0123456789abcdef|      transaction_id{}: (amf0) 0xa-0x12.7 (9)
  0x000|                              00               |          .     |        type: "number" (0) 0xa-0xa.7 (1)
  0x000|                                 3f f0 00 00 00|           ?....|        value: 1 0xb-0x12.7 (8)
  0x001|00 00 00                                       |...             |
       |00 01 02 03 04 05 06 07 08 09 0a 0b 0c 0d 0e 0f|0123456789abcdef|      command_object{}: (amf0) 0x13-0x45.7 (51)
  0x001|         03                                    |   .            |        type: "object" (3) 0x13-0x13.7 (1)
       |                                               |                |        value[0:3]: 0x14-0x45.7 (50)
       |                                               |                |          [0]{}: pair 0x14-0x2b.7 (24)
       |                                               |                |            key{}: 0x14-0x1b.7 (8)
  0x001|            00 06                              |    ..          |              length: 6 0x14-0x15.7 (2)
  0x001|                  66 6d 73 56 65 72            |      fmsVer    |              value: "fmsVer" 0x16-0x1b.7 (6)
       |                                               |                |            value{}: 0x1c-0x2b.7 (16)
  0x001|                                    02         |            .   |              type: "string" (2) 0x1c-0x1c.7 (1)
  0x001|                                       00 0d   |             .. |              length: 13 0x1d-0x1e.7 (2)
  0x001|                                             46|               F|              value: "FMS/3,0,1,123" 0x1f-0x2b.7 (13)
  0x002|4d 53 2f 33 2c 30 2c 31 2c 31 32 33            |MS/3,0,1,123    |
       |                                               |                |          [1]{}: pair 0x2c-0x42.7 (23)
       |                                               |                |            key{}: 0x2c-0x39.7 (14)
  0x002|                                    00 0c      |            ..  |              length: 12 0x2c-0x2d.7 (2)
  0x002|                                          63 61|              ca|              value: "capabilities" 0x2e-0x39.7 (12)
  0x003|70 61 62 69 6c 69 74 69 65 73                  |pabilities      |
       |                                               |                |            value{}: 0x3a-0x42.7 (9)
  0x003|                              00               |          .     |              type: "number" (0) 0x3a-0x3a.7 (1)
  0x003|                                 40 3f 00 00 00|           @?...|              value: 31 0x3b-0x42.7 (8)
  0x004|00 00 00                                       |...             |
       |                                               |                |          [2]{}: pair 0x43-0x45.7 (3)
       |                                               |                |            key{}: 0x43-0x44.7 (2)
  0x004|         00 00                                 |   ..           |              length: 0 0x43-0x44.7 (2)
       |                                               |                |              value: "" 0x45-NA (0)
       |                                               |                |            value{}: 0x45-0x45.7 (1)
  0x004|               09                              |     .          |              type: "object_end" (9) 0x45-0x45.7 (1)
       |                                               |                |      arguments[0:1]: 0x46-0xbd.7 (120)
       |00 01 02 03 04 05 06 07 08 09 0a 0b 0c 0d 0e 0f|0123456789abcdef|        [0]{}: argument (amf0) 0x46-0xbd.7 (120)
  0x004|                  03                           |      .         |          type: "object" (3) 0x46-0x46.7 (1)
       |                                               |                |          value[0:5]: 0x47-0xbd.7 (119)
       |                                               |                |            [0]{}: pair 0x47-0x56.7 (16)
       |                                               |                |              key{}: 0x47-0x4d.7 (7)
  0x004|                     00 05                     |       ..       |                length: 5 0x47-0x48.7 (2)
  0x004|                           6c 65 76 65 6c      |         level  |                value: "level" 0x49-0x4d.7 (5)
       |                                               |                |              value{}: 0x4e-0x56.7 (9)
  0x004|                                          02   |              . |                type: "string" (2) 0x4e-0x4e.7 (1)
  0x004|                                             00|               .|                length: 6 0x4f-0x50.7 (2)
  0x005|06                                             |.               |
  0x005|   73 74 61 74 75 73                           | status         |                value: "status" 0x51-0x56.7 (6)
       |                                               |                |            [1]{}: pair 0x57-0x7c.7 (38)
       |                                               |                |              key{}: 0x57-0x5c.7 (6)
  0x005|                     00 04                     |       ..       |                length: 4 0x57-0x58.7 (2)
  0x005|                           63 6f 64 65         |         code   |                value: "code" 0x59-0x5c.7 (4)
       |                                               |                |              value{}: 0x5d-0x7c.7 (32)
  0x005|                                       02      |             .  |                type: "string" (2) 0x5d-0x5d.7 (1)
  0x005|                                          00 1d|              ..|                length: 29 0x5e-0x5f.7 (2)
  0x006|4e 65 74 43 6f 6e 6e 65 63 74 69 6f 6e 2e 43 6f|NetConnection.Co|                value: "NetConnection.Connect.Success" 0x60-0x7c.7 (29)
  0x007|6e 6e 65 63 74 2e 53 75 63 63 65 73 73         |nnect.Success   |
       |                                               |                |            [2]{}: pair 0x7d-0xa1.7 (37)
       |                                               |                |              key{}: 0x7d-0x89.7 (13)
  0x007|                                       00 0b   |             .. |                length: 11 0x7d-0x7e.7 (2)
  0x007|                                             64|               d|                value: "description" 0x7f-0x89.7 (11)
  0x008|65 73 63 72 69 70 74 69 6f 6e                  |escription      |
       |                                               |                |              value{}: 0x8a-0xa1.7 (24)
  0x008|                              02               |          .     |                type: "string" (2) 0x8a-0x8a.7 (1)
  0x008|                                 00 15         |           ..   |                length: 21 0x8b-0x8c.7 (2)
  0x008|                                       43 6f 6e|             Con|                value: "Connection succeeded." 0x8d-0xa1.7 (21)
  0x009|6e 65 63 74 69 6f 6e 20 73 75 63 63 65 65 64 65|nection succeede|
  0x00a|64 2e                                          |d.              |
       |                                               |                |            [3]{}: pair 0xa2-0xba.7 (25)
       |                                               |                |              key{}: 0xa2-0xb1.7 (16)
  0x00a|      00 0e                                    |  ..            |                length: 14 0xa2-0xa3.7 (2)
  0x00a|            6f 62 6a 65 63 74 45 6e 63 6f 64 69|    objectEncodi|                value: "objectEncoding" 0xa4-0xb1.7 (14)
  0x00b|6e 67                                          |ng              |
       |                                               |                |              value{}: 0xb2-0xba.7 (9)
  0x00b|      00                                       |  .             |                type: "number" (0) 0xb2-0xb2.7 (1)
  0x00b|         00 00 00 00 00 00 00 00               |   ........     |                value: 0 0xb3-0xba.7 (8)
       |                                               |                |            [4]{}: pair 0xbb-0xbd.7 (3)
       |                                               |                |              key{}: 0xbb-0xbc.7 (2)
  0x00b|                                 00 00         |           ..   |                length: 0 0xbb-0xbc.7 (2)
       |                                               |                |                value: "" 0xbd-NA (0)
       |                                               |                |              value{}: 0xbd-0xbd.7 (1)
  0x00b|                                       09|     |             .| |                type: "object_end" (9) 0xbd-0xbd.7 (1)
       |00 01 02 03 04 05 06 07 08 09 0a 0b 0c 0d 0e 0f|0123456789abcdef|    [5]{}: message 0x0-0x1d.7 (30)
       |                                               |                |      message_stream_id: 0 0x0-NA (0)
       |                                               |                |      message_type_id: "command_message" (20) 0x0-NA (0)
       |00 01 02 03 04 05 06 07 08 09 0a 0b 0c 0d 0e 0f|0123456789abcdef|      command_name{}: (amf0) 0x0-0xa.7 (11)
  0x000|02                                             |.               |        type: "string" (2) 0x0-0x0.7 (1)
  0x000|   00 08                                       | ..             |        length: 8 0x1-0x2.7 (2)
  0x000|         6f 6e 42 57 44 6f 6e 65               |   onBWDone     |        value: "onBWDone" 0x3-0xa.7 (8)
       |00 01 02 03 04 05 06 07 08 09 0a 0b 0c 0d 0e 0f|0123456789abcdef|      transaction_id{}: (amf0) 0xb-0x13.7 (9)
  0x000|                                 00            |           .    |        type: "number" (0) 0xb-0xb.7 (1)
  0x000|                                    00 00 00 00|            ....|        value: 0 0xc-0x13.7 (8)
  0x001|00 00 00 00                                    |....            |
       |00 01 02 03 04 05 06 07 08 09 0a 0b 0c 0d 0e 0f|0123456789abcdef|      command_object{}: (amf0) 0x14-0x14.7 (1)
  0x001|            05                                 |    .           |        type: "null" (5) 0x14-0x14.7 (1)
       |                                               |                |        value: null 0x15-NA (0)
       |                                               |                |      arguments[0:1]: 0x15-0x1d.7 (9)
       |00 01 02 03 04 05 06 07 08 09 0a 0b 0c 0d 0e 0f|0123456789abcdef|        [0]{}: argument (amf0) 0x15-0x1d.7 (9)
  0x001|               00                              |     .          |          type: "number" (0) 0x15-0x15.7 (1)
  0x001|                  40 c0 00 00 00 00 00 00|     |      @.......| |          value: 8192 0x16-0x1d.7 (8)
       |00 01 02 03 04 05 06 07 08 09 0a 0b 0c 0d 0e 0f|0123456789abcdef|    [6]{}: message 0x0-0x1c.7 (29)
       |                                               |                |      message_stream_id: 0 0x0-NA (0)
       |                                               |                |      message_type_id: "command_message" (20) 0x0-NA (0)
       |00 01 02 03 04 05 06 07 08 09 0a 0b 0c 0d 0e 0f|0123456789abcdef|      command_name{}: (amf0) 0x0-0x9.7 (10)
  0x000|02                                             |.               |        type: "string" (2) 0x0-0x0.7 (1)
  0x000|   00 07                                       | ..             |        length: 7 0x1-0x2.7 (2)
  0x000|         5f 72 65 73 75 6c 74                  |   _result      |        value: "_result" 0x3-0x9.7 (7)
       |00 01 02 03 04 05 06 07 08 09 0a 0b 0c 0d 0e 0f|0123456789abcdef|      transaction_id{}: (amf0) 0xa-0x12.7 (9)
  0x000|                              00               |          .     |        type: "number" (0) 0xa-0xa.7 (1)
  0x000|                                 40 00 00 00 00|           @....|        value: 2 0xb-0x12.7 (8)
  0x001|00 00 00                                       |...             |
       |00 01 02 03 04 05 06 07 08 09 0a 0b 0c 0d 0e 0f|0123456789abcdef|      command_object{}: (amf0) 0x13-0x13.7 (1)
  0x001|         05                                    |   .            |        type: "null" (5) 0x13-0x13.7 (1)
       |                                               |                |        value: null 0x14-NA (0)
       |                                               |                |      arguments[0:1]: 0x14-0x1c.7 (9)
       |00 01 02 03 04 05 06 07 08 09 0a 0b 0c 0d 0e 0f|0123456789abcdef|        [0]{}: argument (amf0) 0x14-0x1c.7 (9)
  0x001|            00                                 |    .           |          type: "number" (0) 0x14-0x14.7 (1)
  0x001|               3f f0 00 00 00 00 00 00|        |     ?.......|  |          value: 1 0x15-0x1c.7 (8)
       |00 01 02 03 04 05 06 07 08 09 0a 0b 0c 0d 0e 0f|0123456789abcdef|    [7]{}: message 0x0-0x13.7 (20)
       |                                               |                |      message_stream_id: 0 0x0-NA (0)
       |                                               |                |      message_type_id: "command_message" (20) 0x0-NA (0)
       |00 01 02 03 04 05 06 07 08 09 0a 0b 0c 0d 0e 0f|0123456789abcdef|      command_name{}: (amf0) 0x0-0x9.7 (10)
  0x000|02                                             |.               |        type: "string" (2) 0x0-0x0.7 (1)
  0x000|   00 07                                       | ..             |        length: 7 0x1-0x2.7 (2)
  0x000|         5f 72 65 73 75 6c 74                  |   _result      |        value: "_result" 0x3-0x9.7 (7)
       |00 01 02 03 04 05 06 07 08 09 0a 0b 0c 0d 0e 0f|0123456789abcdef|      transaction_id{}: (amf0) 0xa-0x12.7 (9)
  0x000|                              00               |          .     |        type: "number" (0) 0xa-0xa.7 (1)
  0x000|                                 40 08 00 00 00|           @....|        value: 3 0xb-0x12.7 (8)
  0x001|00 00 00                                       |...             |
       |00 01 02 03 04 05 06 07 08 09 0a 0b 0c 0d 0e 0f|0123456789abcdef|      command_object{}: (amf0) 0x13-0x13.7 (1)
  0x001|         05|                                   |   .|           |        type: "null" (5) 0x13-0x13.7 (1)
       |                                               |                |        value: null 0x14-NA (0)
       |                                               |                |      arguments[0:0]: 0x14-NA (0)
       |00 01 02 03 04 05 06 07 08 09 0a 0b 0c 0d 0e 0f|0123456789abcdef|    [8]{}: message 0x0-0x5.7 (6)
       |                                               |                |      message_stream_id: 0 0x0-NA (0)
       |                                               |                |      message_type_id: "user_control_message" (4) 0x0-NA (0)
  0x000|00 00                                          |..              |      type: "stream_begin" (0) 0x0-0x1.7 (2)
  0x000|      00 00 00 01|                             |  ....|         |      stream_id: 1 0x2-0x5.7 (4)
       |00 01 02 03 04 05 06 07 08 09 0a 0b 0c 0d 0e 0f|0123456789abcdef|    [9]{}: message 0x0-0x7a.7 (123)
       |                                               |                |      message_stream_id: 1 0x0-NA (0)
       |                                               |                |      message_type_id: "command_message" (20) 0x0-NA (0)
       |00 01 02 03 04 05 06 07 08 09 0a 0b 0c 0d 0e 0f|0123456789abcdef|      command_name{}: (amf0) 0x0-0xa.7 (11)
  0x000|02                                             |.               |        type: "string" (2) 0x0-0x0.7 (1)
  0x000|   00 08                                       | ..             |        length: 8 0x1-0x2.7 (2)
  0x000|         6f 6e 53 74 61 74 75 73               |   onStatus     |        value: "onStatus" 0x3-0xa.7 (8)
       |00 01 02 03 04 05 06 07 08 09 0a 0b 0c 0d 0e 0f|0123456789abcdef|      transaction_id{}: (amf0) 0xb-0x13.7 (9)
  0x000|                                 00            |           .    |        type: "number" (0) 0xb-0xb.7 (1)
  0x000|                                    00 00 00 00|            ....|        value: 0 0xc-0x13.7 (8)
  0x001|00 00 00 00                                    |....            |
       |00 01 02 03 04 05 06 07 08 09 0a 0b 0c 0d 0e 0f|0123456789abcdef|      command_object{}: (amf0) 0x14-0x14.7 (1)
  0x001|            05                                 |    .           |        type: "null" (5) 0x14-0x14.7 (1)
       |                                               |                |        value: null 0x15-NA (0)
       |                                               |                |      arguments[0:1]: 0x15-0x7a.7 (102)
       |00 01 02 03 04 05 06 07 08 09 0a 0b 0c 0d 0e 0f|0123456789abcdef|        [0]{}: argument (amf0) 0x15-0x7a.7 (102)
  0x001|               03                              |     .          |          type: "object" (3) 0x15-0x15.7 (1)
       |                                               |                |          value[0:5]: 0x16-0x7a.7 (101)
       |                                               |                |            [0]{}: pair 0x16-0x25.7 (16)
       |                                               |                |              key{}: 0x16-0x1c.7 (7)
  0x001|                  00 05                        |      ..        |                length: 5 0x16-0x17.7 (2)
  0x001|                        6c 65 76 65 6c         |        level   |                value: "level" 0x18-0x1c.7 (5)
       |                                               |                |              value{}: 0x1d-0x25.7 (9)
  0x001|                                       02      |             .  |                type: "string" (2) 0x1d-0x1d.7 (1)
  0x001|                                          00 06|              ..|                length: 6 0x1e-0x1f.7 (2)
  0x002|73 74 61 74 75 73                              |status          |                value: "status" 0x20-0x25.7 (6)
       |                                               |                |            [1]{}: pair 0x26-0x42.7 (29)
       |                                               |                |              key{}: 0x26-0x2b.7 (6)
  0x002|                  00 04                        |      ..        |                length: 4 0x26-0x27.7 (2)
  0x002|                        63 6f 64 65            |        code    |                value: "code" 0x28-0x2b.7 (4)
       |                                               |                |              value{}: 0x2c-0x42.7 (23)
  0x002|                                    02         |            .   |                type: "string" (2) 0x2c-0x2c.7 (1)
  0x002|                                       00 14   |             .. |                length: 20 0x2d-0x2e.7 (2)
  0x002|                                             4e|               N|                value: "NetStream.Play.Start" 0x2f-0x42.7 (20)
  0x003|65 74 53 74 72 65 61 6d 2e 50 6c 61 79 2e 53 74|etStream.Play.St|
  0x004|61 72 74                                       |art             |
       |                                               |                |            [2]{}: pair 0x43-0x67.7 (37)
       |                                               |                |              key{}: 0x43-0x4f.7 (13)
  0x004|         00 0b                                 |   ..           |                length: 11 0x43-0x44.7 (2)
  0x004|               64 65 73 63 72 69 70 74 69 6f 6e|     description|                value: "description" 0x45-0x4f.7 (11)
       |                                               |                |              value{}: 0x50-0x67.7 (24)
  0x005|02                                             |.               |                type: "string" (2) 0x50-0x50.7 (1)
  0x005|   00 15                                       | ..             |                length: 21 0x51-0x52.7 (2)
  0x005|         ff ff aa 32 20 69 73 20 6e 6f 77 20 70|   ...2 is now p|                value: "���2 is now published" 0x53-0x67.7 (21)
  0x006|75 62 6c 69 73 68 65 64                        |ublished        |
       |                                               |                |            [3]{}: pair 0x68-0x77.7 (16)
       |                                               |                |              key{}: 0x68-0x70.7 (9)
  0x006|                        00 07                  |        ..      |                length: 7 0x68-0x69.7 (2)
  0x006|                              64 65 74 61 69 6c|          detail|                value: "details" 0x6a-0x70.7 (7)
  0x007|73                                             |s               |
       |                                               |                |              value{}: 0x71-0x77.7 (7)
  0x007|   02                                          | .              |                type: "string" (2) 0x71-0x71.7 (1)
  0x007|      00 04                                    |  ..            |                length: 4 0x72-0x73.7 (2)
  0x007|            ff ff aa 32                        |    ...2        |                value: "���2" 0x74-0x77.7 (4)
       |                                               |                |            [4]{}: pair 0x78-0x7a.7 (3)
       |                                               |                |              key{}: 0x78-0x79.7 (2)
  0x007|                        00 00                  |        ..      |                length: 0 0x78-0x79.7 (2)
       |                                               |                |                value: "" 0x7a-NA (0)
       |                                               |                |              value{}: 0x7a-0x7a.7 (1)
  0x007|                              09|              |          .|    |                type: "object_end" (9) 0x7a-0x7a.7 (1)
       |00 01 02 03 04 05 06 07 08 09 0a 0b 0c 0d 0e 0f|0123456789abcdef|    [10]{}: message 0x0-0xea.7 (235)
       |                                               |                |      message_stream_id: 0 0x0-NA (0)
       |                                               |                |      message_type_id: "data_message" (18) 0x0-NA (0)
       |                                               |                |      messages[0:3]: 0x0-0xea.7 (235)
       |00 01 02 03 04 05 06 07 08 09 0a 0b 0c 0d 0e 0f|0123456789abcdef|        [0]{}: message (amf0) 0x0-0xf.7 (16)
  0x000|02                                             |.               |          type: "string" (2) 0x0-0x0.7 (1)
  0x000|   00 0d                                       | ..             |          length: 13 0x1-0x2.7 (2)
  0x000|         40 73 65 74 44 61 74 61 46 72 61 6d 65|   @setDataFrame|          value: "@setDataFrame" 0x3-0xf.7 (13)
       |00 01 02 03 04 05 06 07 08 09 0a 0b 0c 0d 0e 0f|0123456789abcdef|        [1]{}: message (amf0) 0x10-0x1c.7 (13)
  0x001|02                                             |.               |          type: "string" (2) 0x10-0x10.7 (1)
  0x001|   00 0a                                       | ..             |          length: 10 0x11-0x12.7 (2)
  0x001|         6f 6e 4d 65 74 61 44 61 74 61         |   onMetaData   |          value: "onMetaData" 0x13-0x1c.7 (10)
       |00 01 02 03 04 05 06 07 08 09 0a 0b 0c 0d 0e 0f|0123456789abcdef|        [2]{}: message (amf0) 0x1d-0xea.7 (206)
  0x001|                                       08      |             .  |          type: "ecma_array" (8) 0x1d-0x1d.7 (1)
  0x001|                                          00 00|              ..|          count: 9 0x1e-0x21.7 (4)
  0x002|00 09                                          |..              |
       |                                               |                |          value[0:10]: 0x22-0xea.7 (201)
       |                                               |                |            [0]{}: entry 0x22-0x34.7 (19)
       |                                               |                |              key{}: 0x22-0x2b.7 (10)
  0x002|      00 08                                    |  ..            |                length: 8 0x22-0x23.7 (2)
  0x002|            64 75 72 61 74 69 6f 6e            |    duration    |                value: "duration" 0x24-0x2b.7 (8)
       |                                               |                |              value{}: 0x2c-0x34.7 (9)
  0x002|                                    00         |            .   |                type: "number" (0) 0x2c-0x2c.7 (1)
  0x002|                                       00 00 00|             ...|                value: 0 0x2d-0x34.7 (8)
  0x003|00 00 00 00 00                                 |.....           |
       |                                               |                |            [1]{}: entry 0x35-0x4c.7 (24)
       |                                               |                |              key{}: 0x35-0x43.7 (15)
  0x003|               00 0d                           |     ..         |                length: 13 0x35-0x36.7 (2)
  0x003|                     61 75 64 69 6f 64 61 74 61|       audiodata|                value: "audiodatarate" 0x37-0x43.7 (13)
  0x004|72 61 74 65                                    |rate            |
       |                                               |                |              value{}: 0x44-0x4c.7 (9)
  0x004|            00                                 |    .           |                type: "number" (0) 0x44-0x44.7 (1)
  0x004|               40 5f 40 00 00 00 00 00         |     @_@.....   |                value: 125 0x45-0x4c.7 (8)
       |                                               |                |            [2]{}: entry 0x4d-0x66.7 (26)
       |                                               |                |              key{}: 0x4d-0x5d.7 (17)
  0x004|                                       00 0f   |             .. |                length: 15 0x4d-0x4e.7 (2)
  0x004|                                             61|               a|                value: "audiosamplerate" 0x4f-0x5d.7 (15)
  0x005|75 64 69 6f 73 61 6d 70 6c 65 72 61 74 65      |udiosamplerate  |
       |                                               |                |              value{}: 0x5e-0x66.7 (9)
  0x005|                                          00   |              . |                type: "number" (0) 0x5e-0x5e.7 (1)
  0x005|                                             40|               @|                value: 44100 0x5f-0x66.7 (8)
  0x006|e5 88 80 00 00 00 00                           |.......         |
       |                                               |                |            [3]{}: entry 0x67-0x80.7 (26)
       |                                               |                |              key{}: 0x67-0x77.7 (17)
  0x006|                     00 0f                     |       ..       |                length: 15 0x67-0x68.7 (2)
  0x006|                           61 75 64 69 6f 73 61|         audiosa|                value: "audiosamplesize" 0x69-0x77.7 (15)
  0x007|6d 70 6c 65 73 69 7a 65                        |mplesize        |
       |                                               |                |              value{}: 0x78-0x80.7 (9)
  0x007|                        00                     |        .       |                type: "number" (0) 0x78-0x78.7 (1)
  0x007|                           40 30 00 00 00 00 00|         @0.....|                value: 16 0x79-0x80.7 (8)
  0x008|00                                             |.               |
       |                                               |                |            [4]{}: entry 0x81-0x8a.7 (10)
       |                                               |                |              key{}: 0x81-0x88.7 (8)
  0x008|   00 06                                       | ..             |                length: 6 0x81-0x82.7 (2)
  0x008|         73 74 65 72 65 6f                     |   stereo       |                value: "stereo" 0x83-0x88.7 (6)
       |                                               |                |              value{}: 0x89-0x8a.7 (2)
  0x008|                           01                  |         .      |                type: "boolean" (1) 0x89-0x89.7 (1)
  0x008|                              01               |          .     |                value: 1 0x8a-0x8a.7 (1)
       |                                               |                |            [5]{}: entry 0x8b-0xa1.7 (23)
       |                                               |                |              key{}: 0x8b-0x98.7 (14)
  0x008|                                 00 0c         |           ..   |                length: 12 0x8b-0x8c.7 (2)
  0x008|                                       61 75 64|             aud|                value: "audiocodecid" 0x8d-0x98.7 (12)
  0x009|69 6f 63 6f 64 65 63 69 64                     |iocodecid       |
       |                                               |                |              value{}: 0x99-0xa1.7 (9)
  0x009|                           00                  |         .      |                type: "number" (0) 0x99-0x99.7 (1)
  0x009|                              40 24 00 00 00 00|          @$....|                value: 10 0x9a-0xa1.7 (8)
  0x00a|00 00                                          |..              |
       |                                               |                |            [6]{}: entry 0xa2-0xbb.7 (26)
       |                                               |                |              key{}: 0xa2-0xad.7 (12)
  0x00a|      00 0a                                    |  ..            |                length: 10 0xa2-0xa3.7 (2)
  0x00a|            73 74 72 65 61 6d 4e 61 6d 65      |    streamName  |                value: "streamName" 0xa4-0xad.7 (10)
       |                                               |                |              value{}: 0xae-0xbb.7 (14)
  0x00a|                                          02   |              . |                type: "string" (2) 0xae-0xae.7 (1)
  0x00a|                                             00|               .|                length: 11 0xaf-0xb0.7 (2)
  0x00b|0b                                             |.               |
  0x00b|   74 65 73 74 20 73 74 72 65 61 6d            | test stream    |                value: "test stream" 0xb1-0xbb.7 (11)
       |                                               |                |            [7]{}: entry 0xbc-0xd4.7 (25)
       |                                               |                |              key{}: 0xbc-0xc4.7 (9)
  0x00b|                                    00 07      |            ..  |                length: 7 0xbc-0xbd.7 (2)
  0x00b|                                          65 6e|              en|                value: "encoder" 0xbe-0xc4.7 (7)
  0x00c|63 6f 64 65 72                                 |coder           |
       |                                               |                |              value{}: 0xc5-0xd4.7 (16)
  0x00c|               02                              |     .          |                type: "string" (2) 0xc5-0xc5.7 (1)
  0x00c|                  00 0d                        |      ..        |                length: 13 0xc6-0xc7.7 (2)
  0x00c|                        4c 61 76 66 35 38 2e 37|        Lavf58.7|                value: "Lavf58.76.100" 0xc8-0xd4.7 (13)
  0x00d|36 2e 31 30 30                                 |6.100           |
       |                                               |                |            [8]{}: entry 0xd5-0xe7.7 (19)
       |                                               |                |              key{}: 0xd5-0xde.7 (10)
  0x00d|               00 08                           |     ..         |                length: 8 0xd5-0xd6.7 (2)
  0x00d|                     66 69 6c 65 73 69 7a 65   |       filesize |                value: "filesize" 0xd7-0xde.7 (8)
       |                                               |                |              value{}: 0xdf-0xe7.7 (9)
  0x00d|                                             00|               .|                type: "number" (0) 0xdf-0xdf.7 (1)
  0x00e|00 00 00 00 00 00 00 00                        |........        |                value: 0 0xe0-0xe7.7 (8)
       |                                               |                |            [9]{}: entry 0xe8-0xea.7 (3)
       |                                               |                |              key{}: 0xe8-0xe9.7 (2)
  0x00e|                        00 00                  |        ..      |                length: 0 0xe8-0xe9.7 (2)
       |                                               |                |                value: "" 0xea-NA (0)
       |                                               |                |              value{}: 0xea-0xea.7 (1)
  0x00e|                              09|              |          .|    |                type: "object_end" (9) 0xea-0xea.7 (1)
       |00 01 02 03 04 05 06 07 08 09 0a 0b 0c 0d 0e 0f|0123456789abcdef|    [11]{}: message 0x0-0x6.7 (7)
       |                                               |                |      message_stream_id: 0 0x0-NA (0)
       |                                               |                |      message_type_id: "audio_message" (8) 0x0-NA (0)
  0x000|af                                             |.               |      codec: "aac" (10) 0x0-0x0.3 (0.4)
  0x000|af                                             |.               |      sample_rate: 44100 (3) 0x0.4-0x0.5 (0.2)
  0x000|af                                             |.               |      sample_size: 16 (1) 0x0.6-0x0.6 (0.1)
  0x000|af                                             |.               |      channels: 2 (1) 0x0.7-0x0.7 (0.1)
  0x000|   00                                          | .              |      type: "asc" (0) 0x1-0x1.7 (1)
       |00 01 02 03 04 05 06 07 08 09 0a 0b 0c 0d 0e 0f|0123456789abcdef|      data{}: (mpeg_asc) 0x2-0x6.7 (5)
  0x000|      12                                       |  .             |        object_type: "aac_lc" (2) (AAC Low Complexity) 0x2-0x2.4 (0.5)
  0x000|      12 10                                    |  ..            |        sampling_frequency: 44100 (4) 0x2.5-0x3 (0.4)
  0x000|         10                                    |   .            |        channel_configuration: 2 (front-left, front-right) 0x3.1-0x3.4 (0.4)
  0x000|         10 56 e5 00|                          |   .V..|        |        var_aot_or_byte_align: raw bits 0x3.5-0x6.7 (3.3)
       |00 01 02 03 04 05 06 07 08 09 0a 0b 0c 0d 0e 0f|0123456789abcdef|    [12]{}: message 0x0-0x14f.7 (336)
       |                                               |                |      message_stream_id: 0 0x0-NA (0)
       |                                               |                |      message_type_id: "audio_message" (8) 0x0-NA (0)
  0x000|af                                             |.               |      codec: "aac" (10) 0x0-0x0.3 (0.4)
  0x000|af                                             |.               |      sample_rate: 44100 (3) 0x0.4-0x0.5 (0.2)
  0x000|af                                             |.               |      sample_size: 16 (1) 0x0.6-0x0.6 (0.1)
  0x000|af                                             |.               |      channels: 2 (1) 0x0.7-0x0.7 (0.1)
  0x000|   01                                          | .              |      type: "raw" (1) 0x1-0x1.7 (1)
  0x000|      de 04 00 4c 61 76 63 35 38 2e 31 33 34 2e|  ...Lavc58.134.|      data: raw bits 0x2-0x14f.7 (334)
  0x001|31 30 30 00 42 55 9f ff ff ff e0 01 29 68 a6 43|100.BU......)h.C|
  *    |until 0x14f.7 (end) (334)                      |                |
       |00 01 02 03 04 05 06 07 08 09 0a 0b 0c 0d 0e 0f|0123456789abcdef|    [13]{}: message 0x0-0x13a.7 (315)
       |                                               |                |      message_stream_id: 0 0x0-NA (0)
       |                                               |                |      message_type_id: "audio_message" (8) 0x0-NA (0)
  0x000|af                                             |.               |      codec: "aac" (10) 0x0-0x0.3 (0.4)
  0x000|af                                             |.               |      sample_rate: 44100 (3) 0x0.4-0x0.5 (0.2)
  0x000|af                                             |.               |      sample_size: 16 (1) 0x0.6-0x0.6 (0.1)
  0x000|af                                             |.               |      channels: 2 (1) 0x0.7-0x0.7 (0.1)
  0x000|   01                                          | .              |      type: "raw" (1) 0x1-0x1.7 (1)
  0x000|      21 4c 6c ff 87 fc 7f c7 fc 3f db 6b b2 d5|  !Ll......?.k..|      data: raw bits 0x2-0x13a.7 (313)
  0x001|56 42 80 da 88 88 50 2b c8 c5 82 f8 a7 9e b5 3b|VB....P+.......;|
  *    |until 0x13a.7 (end) (313)                      |                |
       |00 01 02 03 04 05 06 07 08 09 0a 0b 0c 0d 0e 0f|0123456789abcdef|    [14]{}: message 0x0-0x19e.7 (415)
       |                                               |                |      message_stream_id: 0 0x0-NA (0)
       |                                               |                |      message_type_id: "audio_message" (8) 0x0-NA (0)
  0x000|af                                             |.               |      codec: "aac" (10) 0x0-0x0.3 (0.4)
  0x000|af                                             |.               |      sample_rate: 44100 (3) 0x0.4-0x0.5 (0.2)
  0x000|af                                             |.               |      sample_size: 16 (1) 0x0.6-0x0.6 (0.1)
  0x000|af                                             |.               |      channels: 2 (1) 0x0.7-0x0.7 (0.1)
  0x000|   01                                          | .              |      type: "raw" (1) 0x1-0x1.7 (1)
  0x000|      21 7a cf ff ff ff ff 00 7f b9 53 18 e8 60|  !z........S..`|      data: raw bits 0x2-0x19e.7 (413)
  0x001|00 47 15 35 12 d0 00 00 1d 3a 44 69 22 f8 c4 66|.G.5.....:Di"..f|
  *    |until 0x19e.7 (end) (413)                      |                |
       |00 01 02 03 04 05 06 07 08 09 0a 0b 0c 0d 0e 0f|0123456789abcdef|    [15]{}: message 0x0-0xc5.7 (198)
       |                                               |                |      message_stream_id: 0 0x0-NA (0)
       |                                               |                |      message_type_id: "audio_message" (8) 0x0-NA (0)
  0x000|af                                             |.               |      codec: "aac" (10) 0x0-0x0.3 (0.4)
  0x000|af                                             |.               |      sample_rate: 44100 (3) 0x0.4-0x0.5 (0.2)
  0x000|af                                             |.               |      sample_size: 16 (1) 0x0.6-0x0.6 (0.1)
  0x000|af                                             |.               |      channels: 2 (1) 0x0.7-0x0.7 (0.1)
  0x000|   01                                          | .              |      type: "raw" (1) 0x1-0x1.7 (1)
  0x000|      21 1a d3 95 a9 1e 32 76 e7 91 c7 93 59 65|  !.....2v....Ye|      data: raw bits 0x2-0xc5.7 (196)
  0x001|40 2a a9 45 12 a8 be 74 1a 98 46 14 62 91 b7 33|@*.E...t..F.b..3|
  *    |until 0xc5.7 (end) (196)                       |                |
       |00 01 02 03 04 05 06 07 08 09 0a 0b 0c 0d 0e 0f|0123456789abcdef|    [16]{}: message 0x0-0xc5.7 (198)
       |                                               |                |      message_stream_id: 0 0x0-NA (0)
       |                                               |                |      message_type_id: "audio_message" (8) 0x0-NA (0)
  0x000|af                                             |.               |      codec: "aac" (10) 0x0-0x0.3 (0.4)
  0x000|af                                             |.               |      sample_rate: 44100 (3) 0x0.4-0x0.5 (0.2)
  0x000|af                                             |.               |      sample_size: 16 (1) 0x0.6-0x0.6 (0.1)
  0x000|af                                             |.               |      channels: 2 (1) 0x0.7-0x0.7 (0.1)
  0x000|   01                                          | .              |      type: "raw" (1) 0x1-0x1.7 (1)
  0x000|      21 1a cf ff ff ff ff fa 74 b3 b2 d5 23 07|  !.......t...#.|      data: raw bits 0x2-0xc5.7 (196)
  0x001|33 9e 45 f9 97 08 00 55 2a 94 29 54 aa 0d 2d 49|3.E....U*.)T..-I|
  *    |until 0xc5.7 (end) (196)                       |                |
       |00 01 02 03 04 05 06 07 08 09 0a 0b 0c 0d 0e 0f|0123456789abcdef|    [17]{}: message 0x0-0xca.7 (203)
       |                                               |                |      message_stream_id: 0 0x0-NA (0)
       |                                               |                |      message_type_id: "audio_message" (8) 0x0-NA (0)
  0x000|af                                             |.               |      codec: "aac" (10) 0x0-0x0.3 (0.4)
  0x000|af                                             |.               |      sample_rate: 44100 (3) 0x0.4-0x0.5 (0.2)
  0x000|af                                             |.               |      sample_size: 16 (1) 0x0.6-0x0.6 (0.1)
  0x000|af                                             |.               |      channels: 2 (1) 0x0.7-0x0.7 (0.1)
  0x000|   01                                          | .              |      type: "raw" (1) 0x1-0x1.7 (1)
  0x000|      21 1a cf ff ff ff ff f2 74 b3 c1 50 ea 81|  !.......t..P..|      data: raw bits 0x2-0xca.7 (201)
  0x001|66 84 45 a1 73 2b d0 9d 74 84 00 2a 95 4a 14 a7|f.E.s+..t..*.J..|
  *    |until 0xca.7 (end) (201)                       |                |
       |00 01 02 03 04 05 06 07 08 09 0a 0b 0c 0d 0e 0f|0123456789abcdef|    [18]{}: message 0x0-0xc3.7 (196)
       |                                               |                |      message_stream_id: 0 0x0-NA (0)
       |                                               |                |      message_type_id: "audio_message" (8) 0x0-NA (0)
  0x000|af                                             |.               |      codec: "aac" (10) 0x0-0x0.3 (0.4)
  0x000|af                                             |.               |      sample_rate: 44100 (3) 0x0.4-0x0.5 (0.2)
  0x000|af                                             |.               |      sample_size: 16 (1) 0x0.6-0x0.6 (0.1)
  0x000|af                                             |.               |      channels: 2 (1) 0x0.7-0x0.7 (0.1)
  0x000|   01                                          | .              |      type: "raw" (1) 0x1-0x1.7 (1)
  0x000|      21 1a cf ff ff ff ff f2 75 b5 a3 94 42 cd|  !.......u...B.|      data: raw bits 0x2-0xc3.7 (194)
  0x001|08 8b 42 dc 7b 87 9e 22 40 01 55 4a a1 4a 3e 71|..B.{.."@.UJ.J>q|
  *    |until 0xc3.7 (end) (194)                       |                |
       |00 01 02 03 04 05 06 07 08 09 0a 0b 0c 0d 0e 0f|0123456789abcdef|    [19]{}: message 0x0-0xc2.7 (195)
       |                                               |                |      message_stream_id: 0 0x0-NA (0)
       |                                               |                |      message_type_id: "audio_message" (8) 0x0-NA (0)
  0x000|af                                             |.               |      codec: "aac" (10) 0x0-0x0.3 (0.4)
  0x000|af                                             |.               |      sample_rate: 44100 (3) 0x0.4-0x0.5 (0.2)
  0x000|af                                             |.               |      sample_size: 16 (1) 0x0.6-0x0.6 (0.1)
  0x000|af                                             |.               |      channels: 2 (1) 0x0.7-0x0.7 (0.1)
  0x000|   01                                          | .              |      type: "raw" (1) 0x1-0x1.7 (1)
  0x000|      21 1a cf ff ff ff ff fe 75 21 da 15 c3 1d|  !.......u!....|      data: raw bits 0x2-0xc2.7 (193)
  0x001|0b 7a f5 b1 7e d6 ba 40 02 aa 95 42 94 aa 3e 02|.z..~..@...B..>.|
  *    |until 0xc2.7 (end) (193)                       |                |
       |                                               |                |    [20:421]: ...
       |                                               |                |  chunks[0:837]: 0xc01-0x1644c.7 (88140)
       |                                               |                |    [0]{}: chunk 0xc01-0xc10.7 (16)
0x00c00|   02                                          | .              |      fmt: 0 0xc01-0xc01.1 (0.2)
0x00c00|   02                                          | .              |      chunk_stream_id: 2 0xc01.2-0xc01.7 (0.6)
0x00c00|      00 00 00                                 |  ...           |      timestamp: 0 0xc02-0xc04.7 (3)
0x00c00|               00 00 04                        |     ...        |      message_length: 4 0xc05-0xc07.7 (3)
0x00c00|                        05                     |        .       |      message_type_id: "window_acknowledgement_size" (5) 0xc08-0xc08.7 (1)
0x00c00|                           00 00 00 00         |         ....   |      message_stream_id: 0 0xc09-0xc0c.7 (4)
       |                                               |                |      calculated_timestamp: 0 0xc0d-NA (0)
0x00c00|                                       00 26 25|             .&%|      data: raw bits 0xc0d-0xc10.7 (4)
0x00c10|a0                                             |.               |
       |                                               |                |    [1]{}: chunk 0xc11-0xc1d.7 (13)
0x00c10|   42                                          | B              |      fmt: 1 0xc11-0xc11.1 (0.2)
0x00c10|   42                                          | B              |      chunk_stream_id: 2 0xc11.2-0xc11.7 (0.6)
0x00c10|      00 00 00                                 |  ...           |      timestamp_delta: 0 0xc12-0xc14.7 (3)
0x00c10|               00 00 05                        |     ...        |      message_length: 5 0xc15-0xc17.7 (3)
0x00c10|                        06                     |        .       |      message_type_id: "set_peer_bandwidth" (6) 0xc18-0xc18.7 (1)
       |                                               |                |      message_stream_id: 0 (previous) 0xc19-NA (0)
       |                                               |                |      calculated_timestamp: 0 0xc19-NA (0)
0x00c10|                           00 26 25 a0 02      |         .&%..  |      data: raw bits 0xc19-0xc1d.7 (5)
       |                                               |                |    [2]{}: chunk 0xc1e-0xc2b.7 (14)
0x00c10|                                          42   |              B |      fmt: 1 0xc1e-0xc1e.1 (0.2)
0x00c10|                                          42   |              B |      chunk_stream_id: 2 0xc1e.2-0xc1e.7 (0.6)
0x00c10|                                             00|               .|      timestamp_delta: 0 0xc1f-0xc21.7 (3)
0x00c20|00 00                                          |..              |
0x00c20|      00 00 06                                 |  ...           |      message_length: 6 0xc22-0xc24.7 (3)
0x00c20|               04                              |     .          |      message_type_id: "user_control_message" (4) 0xc25-0xc25.7 (1)
       |                                               |                |      message_stream_id: 0 (previous) 0xc26-NA (0)
       |                                               |                |      calculated_timestamp: 0 0xc26-NA (0)
0x00c20|                  00 00 00 00 00 00            |      ......    |      data: raw bits 0xc26-0xc2b.7 (6)
       |                                               |                |    [3]{}: chunk 0xc2c-0xc37.7 (12)
0x00c20|                                    42         |            B   |      fmt: 1 0xc2c-0xc2c.1 (0.2)
0x00c20|                                    42         |            B   |      chunk_stream_id: 2 0xc2c.2-0xc2c.7 (0.6)
0x00c20|                                       00 00 00|             ...|      timestamp_delta: 0 0xc2d-0xc2f.7 (3)
0x00c30|00 00 04                                       |...             |      message_length: 4 0xc30-0xc32.7 (3)
0x00c30|         01                                    |   .            |      message_type_id: "set_chunk_size" (1) 0xc33-0xc33.7 (1)
       |                                               |                |      message_stream_id: 0 (previous) 0xc34-NA (0)
       |                                               |                |      calculated_timestamp: 0 0xc34-NA (0)
0x00c30|            00 00 00 80                        |    ....        |      data: raw bits 0xc34-0xc37.7 (4)
       |                                               |                |    [4]{}: chunk 0xc38-0xcc3.7 (140)
0x00c30|                        03                     |        .       |      fmt: 0 0xc38-0xc38.1 (0.2)
0x00c30|                        03                     |        .       |      chunk_stream_id: 3 0xc38.2-0xc38.7 (0.6)
0x00c30|                           00 00 00            |         ...    |      timestamp: 0 0xc39-0xc3b.7 (3)
0x00c30|                                    00 00 be   |            ... |      message_length: 190 0xc3c-0xc3e.7 (3)
0x00c30|                                             14|               .|      message_type_id: "command_message" (20) 0xc3f-0xc3f.7 (1)
0x00c40|00 00 00 00                                    |....            |      message_stream_id: 0 0xc40-0xc43.7 (4)
       |                                               |                |      calculated_timestamp: 0 0xc44-NA (0)
0x00c40|            02 00 07 5f 72 65 73 75 6c 74 00 3f|    ..._result.?|      data: raw bits 0xc44-0xcc3.7 (128)
0x00c50|f0 00 00 00 00 00 00 03 00 06 66 6d 73 56 65 72|..........fmsVer|
*      |until 0xcc3.7 (128)                            |                |
       |                                               |                |    [5]{}: chunk 0xcc4-0xd02.7 (63)
0x00cc0|            c3                                 |    .           |      fmt: 3 0xcc4-0xcc4.1 (0.2)
0x00cc0|            c3                                 |    .           |      chunk_stream_id: 3 0xcc4.2-0xcc4.7 (0.6)
       |                                               |                |      message_length: 190 (previous) 0xcc5-NA (0)
       |                                               |                |      message_type_id: 20 (previous) 0xcc5-NA (0)
       |                                               |                |      message_stream_id: 0 (previous) 0xcc5-NA (0)
       |                                               |                |      calculated_timestamp: 0 0xcc5-NA (0)
0x00cc0|               65 73 63 72 69 70 74 69 6f 6e 02|     escription.|      data: raw bits 0xcc5-0xd02.7 (62)
0x00cd0|00 15 43 6f 6e 6e 65 63 74 69 6f 6e 20 73 75 63|..Connection suc|
*      |until 0xd02.7 (62)                             |                |
       |                                               |                |    [6]{}: chunk 0xd03-0xd28.7 (38)
0x00d00|         43                                    |   C            |      fmt: 1 0xd03-0xd03.1 (0.2)
0x00d00|         43                                    |   C            |      chunk_stream_id: 3 0xd03.2-0xd03.7 (0.6)
0x00d00|            00 00 00                           |    ...         |      timestamp_delta: 0 0xd04-0xd06.7 (3)
0x00d00|                     00 00 1e                  |       ...      |      message_length: 30 0xd07-0xd09.7 (3)
0x00d00|                              14               |          .     |      message_type_id: "command_message" (20) 0xd0a-0xd0a.7 (1)
       |                                               |                |      message_stream_id: 0 (previous) 0xd0b-NA (0)
       |                                               |                |      calculated_timestamp: 0 0xd0b-NA (0)
0x00d00|                                 02 00 08 6f 6e|           ...on|      data: raw bits 0xd0b-0xd28.7 (30)
0x00d10|42 57 44 6f 6e 65 00 00 00 00 00 00 00 00 00 05|BWDone..........|
0x00d20|00 40 c0 00 00 00 00 00 00                     |.@.......       |
       |                                               |                |    [7]{}: chunk 0xd29-0xd4d.7 (37)
0x00d20|                           43                  |         C      |      fmt: 1 0xd29-0xd29.1 (0.2)
0x00d20|                           43                  |         C      |      chunk_stream_id: 3 0xd29.2-0xd29.7 (0.6)
0x00d20|                              00 00 00         |          ...   |      timestamp_delta: 0 0xd2a-0xd2c.7 (3)
0x00d20|                                       00 00 1d|             ...|      message_length: 29 0xd2d-0xd2f.7 (3)
0x00d30|14                                             |.               |      message_type_id: "command_message" (20) 0xd30-0xd30.7 (1)
       |                                               |                |      message_stream_id: 0 (previous) 0xd31-NA (0)
       |                                               |                |      calculated_timestamp: 0 0xd31-NA (0)
0x00d30|   02 00 07 5f 72 65 73 75 6c 74 00 40 00 00 00| ..._result.@...|      data: raw bits 0xd31-0xd4d.7 (29)
0x00d40|00 00 00 00 05 00 3f f0 00 00 00 00 00 00      |......?.......  |
       |                                               |                |    [8]{}: chunk 0xd4e-0xd69.7 (28)
0x00d40|                                          43   |              C |      fmt: 1 0xd4e-0xd4e.1 (0.2)
0x00d40|                                          43   |              C |      chunk_stream_id: 3 0xd4e.2-0xd4e.7 (0.6)
0x00d40|                                             00|               .|      timestamp_delta: 0 0xd4f-0xd51.7 (3)
0x00d50|00 00                                          |..              |
0x00d50|      00 00 14                                 |  ...           |      message_length: 20 0xd52-0xd54.7 (3)
0x00d50|               14                              |     .          |      message_type_id: "command_message" (20) 0xd55-0xd55.7 (1)
       |                                               |                |      message_stream_id: 0 (previous) 0xd56-NA (0)
       |                                               |                |      calculated_timestamp: 0 0xd56-NA (0)
0x00d50|                  02 00 07 5f 72 65 73 75 6c 74|      ..._result|      data: raw bits 0xd56-0xd69.7 (20)
0x00d60|00 40 08 00 00 00 00 00 00 05                  |.@........      |
       |                                               |                |    [9]{}: chunk 0xd6a-0xd77.7 (14)
0x00d60|                              42               |          B     |      fmt: 1 0xd6a-0xd6a.1 (0.2)
0x00d60|                              42               |          B     |      chunk_stream_id: 2 0xd6a.2-0xd6a.7 (0.6)
0x00d60|                                 00 00 00      |           ...  |      timestamp_delta: 0 0xd6b-0xd6d.7 (3)
0x00d60|                                          00 00|              ..|      message_length: 6 0xd6e-0xd70.7 (3)
0x00d70|06                                             |.               |
0x00d70|   04                                          | .              |      message_type_id: "user_control_message" (4) 0xd71-0xd71.7 (1)
       |                                               |                |      message_stream_id: 0 (previous) 0xd72-NA (0)
       |                                               |                |      calculated_timestamp: 0 0xd72-NA (0)
0x00d70|      00 00 00 00 00 01                        |  ......        |      data: raw bits 0xd72-0xd77.7 (6)
       |                                               |                |    [10]{}: chunk 0xd78-0xdfe.7 (135)
0x00d70|                        03                     |        .       |      fmt: 0 0xd78-0xd78.1 (0.2)
0x00d70|                        03                     |        .       |      chunk_stream_id: 3 0xd78.2-0xd78.7 (0.6)
0x00d70|                           00 00 00            |         ...    |      timestamp: 0 0xd79-0xd7b.7 (3)
0x00d70|                                    00 00 7b   |            ..{ |      message_length: 123 0xd7c-0xd7e.7 (3)
0x00d70|                                             14|               .|      message_type_id: "command_message" (20) 0xd7f-0xd7f.7 (1)
0x00d80|01 00 00 00                                    |....            |      message_stream_id: 1 0xd80-0xd83.7 (4)
       |                                               |                |      calculated_timestamp: 0 0xd84-NA (0)
0x00d80|            02 00 08 6f 6e 53 74 61 74 75 73 00|    ...onStatus.|      data: raw bits 0xd84-0xdfe.7 (123)
0x00d90|00 00 00 00 00 00 00 00 05 03 00 05 6c 65 76 65|............leve|
*      |until 0xdfe.7 (123)                            |                |
       |                                               |                |    [11]{}: chunk 0xdff-0xe8a.7 (140)
0x00df0|                                             04|               .|      fmt: 0 0xdff-0xdff.1 (0.2)
0x00df0|                                             04|               .|      chunk_stream_id: 4 0xdff.2-0xdff.7 (0.6)
0x00e00|00 00 00                                       |...             |      timestamp: 0 0xe00-0xe02.7 (3)
0x00e00|         00 00 eb                              |   ...          |      message_length: 235 0xe03-0xe05.7 (3)
0x00e00|                  12                           |      .         |      message_type_id: "data_message" (18) 0xe06-0xe06.7 (1)
0x00e00|                     00 00 00 00               |       ....     |      message_stream_id: 0 0xe07-0xe0a.7 (4)
       |                                               |                |      calculated_timestamp: 0 0xe0b-NA (0)
0x00e00|                                 02 00 0d 40 73|           ...@s|      data: raw bits 0xe0b-0xe8a.7 (128)
0x00e10|65 74 44 61 74 61 46 72 61 6d 65 02 00 0a 6f 6e|etDataFrame...on|
*      |until 0xe8a.7 (128)                            |                |
       |                                               |                |    [12]{}: chunk 0xe8b-0xef6.7 (108)
0x00e80|                                 c4            |           .    |      fmt: 3 0xe8b-0xe8b.1 (0.2)
0x00e80|                                 c4            |           .    |      chunk_stream_id: 4 0xe8b.2-0xe8b.7 (0.6)
       |                                               |                |      message_length: 235 (previous) 0xe8c-NA (0)
       |                                               |                |      message_type_id: 18 (previous) 0xe8c-NA (0)
       |                                               |                |      message_stream_id: 0 (previous) 0xe8c-NA (0)
       |                                               |                |      calculated_timestamp: 0 0xe8c-NA (0)
0x00e80|                                    00 00 06 73|            ...s|      data: raw bits 0xe8c-0xef6.7 (107)
0x00e90|74 65 72 65 6f 01 01 00 0c 61 75 64 69 6f 63 6f|tereo....audioco|
*      |until 0xef6.7 (107)                            |                |
       |                                               |                |    [13]{}: chunk 0xef7-0xf09.7 (19)
0x00ef0|                     04                        |       .        |      fmt: 0 0xef7-0xef7.1 (0.2)
0x00ef0|                     04                        |       .        |      chunk_stream_id: 4 0xef7.2-0xef7.7 (0.6)
0x00ef0|                        00 00 00               |        ...     |      timestamp: 0 0xef8-0xefa.7 (3)
0x00ef0|                                 00 00 07      |           ...  |      message_length: 7 0xefb-0xefd.7 (3)
0x00ef0|                                          08   |              . |      message_type_id: "audio_message" (8) 0xefe-0xefe.7 (1)
0x00ef0|                                             00|               .|      message_stream_id: 0 0xeff-0xf02.7 (4)
0x00f00|00 00 00                                       |...             |
       |                                               |                |      calculated_timestamp: 0 0xf03-NA (0)
0x00f00|         af 00 12 10 56 e5 00                  |   ....V..      |      data: raw bits 0xf03-0xf09.7 (7)
       |                                               |                |    [14]{}: chunk 0xf0a-0xf95.7 (140)
0x00f00|                              04               |          .     |      fmt: 0 0xf0a-0xf0a.1 (0.2)
0x00f00|                              04               |          .     |      chunk_stream_id: 4 0xf0a.2-0xf0a.7 (0.6)
0x00f00|                                 00 00 00      |           ...  |      timestamp: 0 0xf0b-0xf0d.7 (3)
0x00f00|                                          00 01|              ..|      message_length: 336 0xf0e-0xf10.7 (3)
0x00f10|50                                             |P               |
0x00f10|   08                                          | .              |      message_type_id: "audio_message" (8) 0xf11-0xf11.7 (1)
0x00f10|      00 00 00 00                              |  ....          |      message_stream_id: 0 0xf12-0xf15.7 (4)
       |                                               |                |      calculated_timestamp: 0 0xf16-NA (0)
0x00f10|                  af 01 de 04 00 4c 61 76 63 35|      .....Lavc5|      data: raw bits 0xf16-0xf95.7 (128)
0x00f20|38 2e 31 33 34 2e 31 30 30 00 42 55 9f ff ff ff|8.134.100.BU....|
*      |until 0xf95.7 (128)                            |                |
       |                                               |                |    [15]{}: chunk 0xf96-0x1016.7 (129)
0x00f90|                  c4                           |      .         |      fmt: 3 0xf96-0xf96.1 (0.2)
0x00f90|                  c4                           |      .         |      chunk_stream_id: 4 0xf96.2-0xf96.7 (0.6)
       |                                               |                |      message_length: 336 (previous) 0xf97-NA (0)
       |                                               |                |      message_type_id: 8 (previous) 0xf97-NA (0)
       |                                               |                |      message_stream_id: 0 (previous) 0xf97-NA (0)
       |                                               |                |      calculated_timestamp: 0 0xf97-NA (0)
0x00f90|                     9c cc e9 b3 a6 ce 9a d4 d6|       .........|      data: raw bits 0xf97-0x1016.7 (128)
0x00fa0|a6 ce 9b 3a 6c 66 63 32 54 d9 d3 67 45 9d 16 33|...:lfc2T..gE..3|
*      |until 0x1016.7 (128)                           |                |
       |                                               |                |    [16]{}: chunk 0x1017-0x1067.7 (81)
0x01010|                     c4                        |       .        |      fmt: 3 0x1017-0x1017.1 (0.2)
0x01010|                     c4                        |       .        |      chunk_stream_id: 4 0x1017.2-0x1017.7 (0.6)
       |                                               |                |      message_length: 336 (previous) 0x1018-NA (0)
       |                                               |                |      message_type_id: 8 (previous) 0x1018-NA (0)
       |                                               |                |      message_stream_id: 0 (previous) 0x1018-NA (0)
       |                                               |                |      calculated_timestamp: 0 0x1018-NA (0)
0x01010|                        cb 2c b2 cb 2c b2 cb 2c|        .,..,..,|      data: raw bits 0x1018-0x1067.7 (80)
0x01020|b2 cb 2c b2 cb 2c b2 cb 2c b2 cb 2c b2 cb 2c b2|..,..,..,..,..,.|
*      |until 0x1067.7 (80)                            |                |
       |                                               |                |    [17]{}: chunk 0x1068-0x10ef.7 (136)
0x01060|                        44                     |        D       |      fmt: 1 0x1068-0x1068.1 (0.2)
0x01060|                        44                     |        D       |      chunk_stream_id: 4 0x1068.2-0x1068.7 (0.6)
0x01060|                           00 00 17            |         ...    |      timestamp_delta: 23 0x1069-0x106b.7 (3)
0x01060|                                    00 01 3b   |            ..; |      message_length: 315 0x106c-0x106e.7 (3)
0x01060|                                             08|               .|      message_type_id: "audio_message" (8) 0x106f-0x106f.7 (1)
       |                                               |                |      message_stream_id: 0 (previous) 0x1070-NA (0)
       |                                               |                |      calculated_timestamp: 23 0x1070-NA (0)
0x01070|af 01 21 4c 6c ff 87 fc 7f c7 fc 3f db 6b b2 d5|..!Ll......?.k..|      data: raw bits 0x1070-0x10ef.7 (128)
*      |until 0x10ef.7 (128)                           |                |
       |                                               |                |    [18]{}: chunk 0x10f0-0x1170.7 (129)
0x010f0|c4                                             |.               |      fmt: 3 0x10f0-0x10f0.1 (0.2)
0x010f0|c4                                             |.               |      chunk_stream_id: 4 0x10f0.2-0x10f0.7 (0.6)
       |                                               |                |      message_length: 315 (previous) 0x10f1-NA (0)
       |                                               |                |      message_type_id: 8 (previous) 0x10f1-NA (0)
       |                                               |                |      message_stream_id: 0 (previous) 0x10f1-NA (0)
       |                                               |                |      calculated_timestamp: 46 0x10f1-NA (0)
0x010f0|   8c b1 64 64 d7 6e 38 63 8e 18 e1 85 38 52 ec| ..dd.n8c....8R.|      data: raw bits 0x10f1-0x1170.7 (128)
0x01100|ec ec d5 b3 b3 bb 3b 3b 7f 3d 5e 7e 9e ae 97 aa|......;;.=^~....|
*      |until 0x1170.7 (128)                           |                |
       |                                               |                |    [19]{}: chunk 0x1171-0x11ac.7 (60)
0x01170|   c4                                          | .              |      fmt: 3 0x1171-0x1171.1 (0.2)
0x01170|   c4                                          | .              |      chunk_stream_id: 4 0x1171.2-0x1171.7 (0.6)
       |                                               |                |      message_length: 315 (previous) 0x1172-NA (0)
       |                                               |                |      message_type_id: 8 (previous) 0x1172-NA (0)
       |                                               |                |      message_stream_id: 0 (previous) 0x1172-NA (0)
       |                                               |                |      calculated_timestamp: 69 0x1172-NA (0)
0x01170|      d3 65 59 57 e5 3a 27 44 a5 38 13 76 d1 8c|  .eYW.:'D.8.v..|      data: raw bits 0x1172-0x11ac.7 (59)
0x01180|56 b3 a1 fc 79 d8 3d 7b 1e bd 8f 5e c1 7c 53 cf|V...y.={...^.|S.|
*      |until 0x11ac.7 (59)                            |                |
       |                                               |                |    [20:837]: ...
