$ fq -d aac_frame dv aac_frame
     |00 01 02 03 04 05 06 07 08 09 0a 0b 0c 0d 0e 0f|0123456789abcdef|.[0:4]: aac_frame (aac_frame) 0x0-0x14d (333)
     |                                               |                |  [0]{}: element 0x0-0x11.7 (17.7)
0x000|de                                             |.               |    syntax_element: "FIL" (6) 0x0-0x0.3 (0.3)
     |                                               |                |    cnt{}: 0x0.3-0x1.7 (1.4)
0x000|de                                             |.               |      count: 15 0x0.3-0x0.7 (0.4)
0x000|de 04                                          |..              |      esc_count: 2 0x0.7-0x1.7 (1)
     |                                               |                |    payload_length: 16
     |                                               |                |    extension_payload{}: 0x1.7-0x11.7 (16)
0x000|   04 00                                       | ..             |      extension_type: "EXT_FILL" (0) 0x1.7-0x2.3 (0.4)
0x000|      00                                       |  .             |      fill_nibble: 0 0x2.3-0x2.7 (0.4)
0x000|      00 4c 61 76 63 35 38 2e 31 33 34 2e 31 30|  .Lavc58.134.10|      fill_byte: raw bits 0x2.7-0x11.7 (15)
0x010|30 00                                          |0.              |
     |                                               |                |  [1]{}: element 0x11.7-0x12.7 (1)
0x010|   00 42                                       | .B             |    syntax_element: "CPE" (1) 0x11.7-0x12.2 (0.3)
0x010|      42                                       |  B             |    element_instance_tag: 0 0x12.2-0x12.6 (0.4)
0x010|      42                                       |  B             |    common_window: true 0x12.6-0x12.7 (0.1)
0x010|      42                                       |  B             |  [2]: raw bits byte_align 0x12.7-0x13 (0.1)
0x010|         55 9f ff ff ff c0 01 29 68 a7 33 11 20|   U......)h.3. |  [3]: raw bits data 0x13-0x14d (314)
0x020|02 6a e5 c4 96 89 11 11 04 20 36 76 e1 e2 ee 35|.j....... 6v...5|
*    |until 0x14c.7 (end) (314)                      |                |
