$ fq -d avc_nalu dv avc_nalu_sei_recovery_point
   |00 01 02 03 04 05 06 07 08 09 0a 0b 0c 0d 0e 0f|0123456789abcdef|.{}: avc_nalu_sei_recovery_point (avc_nalu) 0x0-0x5 (5)
0x0|06                                             |.               |  forbidden_zero_bit: false 0x0-0x0.1 (0.1)
0x0|06                                             |.               |  nal_ref_idc: 0 0x0.1-0x0.3 (0.2)
0x0|06                                             |.               |  nal_unit_type: "sei" (6) (Supplemental enhancement information) 0x0.3-0x1 (0.5)
   |                                               |                |  rbsp{}: 0x1-0x5 (4)
0x0|   06                                          | .              |    payload_type: "recovery_point" (6) 0x1-0x2 (1)
0x0|      01                                       |  .             |    payload_size: 1 0x2-0x3 (1)
0x0|         c4                                    |   .            |    recovery_frame_cnt: 0 0x3-0x3.1 (0.1)
0x0|         c4                                    |   .            |    exact_match_flag: true 0x3.1-0x3.2 (0.1)
0x0|         c4                                    |   .            |    broken_link_flag: false 0x3.2-0x3.3 (0.1)
0x0|         c4                                    |   .            |    changing_slice_group_idc: 0 0x3.3-0x3.5 (0.2)
0x0|         c4                                    |   .            |    data: raw bits 0x3.5-0x4 (0.3)
0x0|            80|                                |    .|          |    trailing_bits: raw bits 0x4-0x5 (1)
