# ffmpeg -y -f lavfi -i testsrc -t 10ms -f hevc hevc_annexb
$ fq -d hevc_annexb dv hevc_annexb
      |00 01 02 03 04 05 06 07 08 09 0a 0b 0c 0d 0e 0f|0123456789abcdef|.[0:10]: hevc_annexb (hevc_annexb) 0x0-0x1194 (4500)
0x0000|00 00 00 01                                    |....            |  [0]: raw bits start_code 0x0-0x4 (4)
      |00 01 02 03 04 05 06 07 08 09 0a 0b 0c 0d 0e 0f|0123456789abcdef|  [1]{}: nalu (hevc_nalu) 0x4-0x1b (23)
      |00 01 02 03 04 05 06 07 08 09 0a 0b 0c 0d 0e 0f|0123456789abcdef|    vps{}: (hevc_vps) 0x0-0x13 (19)
  0x00|0c                                             |.               |      vps_video_parameter_set_id: 0 0x0-0x0.4 (0.4)
  0x00|0c                                             |.               |      vps_base_layer_internal_flag: true 0x0.4-0x0.5 (0.1)
  0x00|0c                                             |.               |      vps_base_layer_available_flag: true 0x0.5-0x0.6 (0.1)
  0x00|0c 01                                          |..              |      vps_max_layers_minus1: 0 0x0.6-0x1.4 (0.6)
  0x00|   01                                          | .              |      vps_max_sub_layers_minus1: 0 0x1.4-0x1.7 (0.3)
  0x00|   01                                          | .              |      vps_temporal_id_nesting_flag: true 0x1.7-0x2 (0.1)
  0x00|      ff ff                                    |  ..            |      vps_reserved_0xffff_16bits: 65535 0x2-0x4 (2)
  0x00|            04                                 |    .           |      general_profile_space: 0 0x4-0x4.2 (0.2)
  0x00|            04                                 |    .           |      general_tier_flag: 0 0x4.2-0x4.3 (0.1)
  0x00|            04                                 |    .           |      general_profile_idc: 4 0x4.3-0x5 (0.5)
      |                                               |                |      general_profile_compatibility_flags[0:32]: 0x5-0x9 (4)
  0x00|               08                              |     .          |        [0]: false general_profile_compatibility_flag 0x5-0x5.1 (0.1)
  0x00|               08                              |     .          |        [1]: false general_profile_compatibility_flag 0x5.1-0x5.2 (0.1)
  0x00|               08                              |     .          |        [2]: false general_profile_compatibility_flag 0x5.2-0x5.3 (0.1)
  0x00|               08                              |     .          |        [3]: false general_profile_compatibility_flag 0x5.3-0x5.4 (0.1)
  0x00|               08                              |     .          |        [4]: true general_profile_compatibility_flag 0x5.4-0x5.5 (0.1)
  0x00|               08                              |     .          |        [5]: false general_profile_compatibility_flag 0x5.5-0x5.6 (0.1)
  0x00|               08                              |     .          |        [6]: false general_profile_compatibility_flag 0x5.6-0x5.7 (0.1)
  0x00|               08                              |     .          |        [7]: false general_profile_compatibility_flag 0x5.7-0x6 (0.1)
  0x00|                  00                           |      .         |        [8]: false general_profile_compatibility_flag 0x6-0x6.1 (0.1)
  0x00|                  00                           |      .         |        [9]: false general_profile_compatibility_flag 0x6.1-0x6.2 (0.1)
  0x00|                  00                           |      .         |        [10]: false general_profile_compatibility_flag 0x6.2-0x6.3 (0.1)
  0x00|                  00                           |      .         |        [11]: false general_profile_compatibility_flag 0x6.3-0x6.4 (0.1)
  0x00|                  00                           |      .         |        [12]: false general_profile_compatibility_flag 0x6.4-0x6.5 (0.1)
  0x00|                  00                           |      .         |        [13]: false general_profile_compatibility_flag 0x6.5-0x6.6 (0.1)
  0x00|                  00                           |      .         |        [14]: false general_profile_compatibility_flag 0x6.6-0x6.7 (0.1)
  0x00|                  00                           |      .         |        [15]: false general_profile_compatibility_flag 0x6.7-0x7 (0.1)
  0x00|                     00                        |       .        |        [16]: false general_profile_compatibility_flag 0x7-0x7.1 (0.1)
  0x00|                     00                        |       .        |        [17]: false general_profile_compatibility_flag 0x7.1-0x7.2 (0.1)
  0x00|                     00                        |       .        |        [18]: false general_profile_compatibility_flag 0x7.2-0x7.3 (0.1)
  0x00|                     00                        |       .        |        [19]: false general_profile_compatibility_flag 0x7.3-0x7.4 (0.1)
  0x00|                     00                        |       .        |        [20]: false general_profile_compatibility_flag 0x7.4-0x7.5 (0.1)
  0x00|                     00                        |       .        |        [21]: false general_profile_compatibility_flag 0x7.5-0x7.6 (0.1)
  0x00|                     00                        |       .        |        [22]: false general_profile_compatibility_flag 0x7.6-0x7.7 (0.1)
  0x00|                     00                        |       .        |        [23]: false general_profile_compatibility_flag 0x7.7-0x8 (0.1)
  0x00|                        00                     |        .       |        [24]: false general_profile_compatibility_flag 0x8-0x8.1 (0.1)
  0x00|                        00                     |        .       |        [25]: false general_profile_compatibility_flag 0x8.1-0x8.2 (0.1)
  0x00|                        00                     |        .       |        [26]: false general_profile_compatibility_flag 0x8.2-0x8.3 (0.1)
  0x00|                        00                     |        .       |        [27]: false general_profile_compatibility_flag 0x8.3-0x8.4 (0.1)
  0x00|                        00                     |        .       |        [28]: false general_profile_compatibility_flag 0x8.4-0x8.5 (0.1)
  0x00|                        00                     |        .       |        [29]: false general_profile_compatibility_flag 0x8.5-0x8.6 (0.1)
  0x00|                        00                     |        .       |        [30]: false general_profile_compatibility_flag 0x8.6-0x8.7 (0.1)
  0x00|                        00                     |        .       |        [31]: false general_profile_compatibility_flag 0x8.7-0x9 (0.1)
  0x00|                           9e                  |         .      |      general_progressive_source_flag: true 0x9-0x9.1 (0.1)
  0x00|                           9e                  |         .      |      general_interlaced_source_flag: false 0x9.1-0x9.2 (0.1)
  0x00|                           9e                  |         .      |      general_non_packed_constraint_flag: false 0x9.2-0x9.3 (0.1)
  0x00|                           9e                  |         .      |      general_frame_only_constraint_flag: true 0x9.3-0x9.4 (0.1)
  0x00|                           9e                  |         .      |      general_max_12bit_constraint_flag: true 0x9.4-0x9.5 (0.1)
  0x00|                           9e                  |         .      |      general_max_10bit_constraint_flag: true 0x9.5-0x9.6 (0.1)
  0x00|                           9e                  |         .      |      general_max_8bit_constraint_flag: true 0x9.6-0x9.7 (0.1)
  0x00|                           9e                  |         .      |      general_max_422chroma_constraint_flag: false 0x9.7-0xa (0.1)
  0x00|                              08               |          .     |      general_max_420chroma_constraint_flag: false 0xa-0xa.1 (0.1)
  0x00|                              08               |          .     |      general_max_monochrome_constraint_flag: false 0xa.1-0xa.2 (0.1)
  0x00|                              08               |          .     |      general_intra_constraint_flag: false 0xa.2-0xa.3 (0.1)
  0x00|                              08               |          .     |      general_one_picture_only_constraint_flag: false 0xa.3-0xa.4 (0.1)
  0x00|                              08               |          .     |      general_lower_bit_rate_constraint_flag: true 0xa.4-0xa.5 (0.1)
  0x00|                              08 00 00 00 00   |          ..... |      general_reserved_zero_34bits: 0 0xa.5-0xe.7 (4.2)
  0x00|                                          00   |              . |      general_inbld_flag: false 0xe.7-0xf (0.1)
  0x00|                                             3c|               <|      general_level_idc: 60 0xf-0x10 (1)
      |                                               |                |      sub_layer_presents[0:0]: 0x10-0x10 (0)
      |                                               |                |      sub_layers[0:0]: 0x10-0x10 (0)
  0x01|95                                             |.               |      vps_sub_layer_ordering_info_present_flag: true 0x10-0x10.1 (0.1)
      |                                               |                |      vps_sub_layer_ordering_infos[0:1]: 0x10.1-0x11.6 (1.5)
      |                                               |                |        [0]{}: sps_sub_layer_ordering_info 0x10.1-0x11.6 (1.5)
  0x01|95                                             |.               |          sps_max_dec_pic_buffering_minus1: 4 0x10.1-0x10.6 (0.5)
  0x01|95 98                                          |..              |          sps_max_num_reorder_pics: 2 0x10.6-0x11.1 (0.3)
  0x01|   98                                          | .              |          sps_max_latency_increase_plus1: 5 0x11.1-0x11.6 (0.5)
  0x01|   98 09|                                      | ..|            |      vps_max_layer_id: 0 0x11.6-0x12.4 (0.6)
  0x01|      09|                                      |  .|            |      vps_num_layer_sets_minus1: 0 0x12.4-0x12.5 (0.1)
      |                                               |                |      layer_id_included_sets_flags[0:1]: 0x12.5-0x12.6 (0.1)
      |                                               |                |        [0][0:1]: layer_id_included_sets_flags 0x12.5-0x12.6 (0.1)
  0x01|      09|                                      |  .|            |          [0]: false layer_id_included_flag_sets_flag 0x12.5-0x12.6 (0.1)
  0x01|      09|                                      |  .|            |      vps_timing_info_present_flag: false 0x12.6-0x12.7 (0.1)
  0x01|      09|                                      |  .|            |      gap0: raw bits 0x12.7-0x13 (0.1)
0x0000|            40                                 |    @           |    forbidden_zero_bit: false 0x4-0x4.1 (0.1)
0x0000|            40                                 |    @           |    nal_unit_type: "VPS_NUT" (32) 0x4.1-0x4.7 (0.6)
0x0000|            40 01                              |    @.          |    nuh_layer_id: 0 0x4.7-0x5.5 (0.6)
0x0000|               01                              |     .          |    nuh_temporal_id_plus1: 1 0x5.5-0x6 (0.3)
0x0000|                  0c 01 ff ff 04 08 00 00 03 00|      ..........|    data: raw bits 0x6-0x1b (21)
0x0010|9e 08 00 00 03 00 00 3c 95 98 09               |.......<...     |
0x0010|                                 00 00 00 01   |           .... |  [2]: raw bits start_code 0x1b-0x1f (4)
      |00 01 02 03 04 05 06 07 08 09 0a 0b 0c 0d 0e 0f|0123456789abcdef|  [3]{}: nalu (hevc_nalu) 0x1f-0x4a (43)
      |00 01 02 03 04 05 06 07 08 09 0a 0b 0c 0d 0e 0f|0123456789abcdef|    sps{}: (hevc_sps) 0x0-0x26 (38)
  0x00|01                                             |.               |      sps_video_parameter_set_id: 0 0x0-0x0.4 (0.4)
  0x00|01                                             |.               |      sps_max_sub_layers_minus1: 0 0x0.4-0x0.7 (0.3)
  0x00|01                                             |.               |      sps_temporal_id_nesting_flag: true 0x0.7-0x1 (0.1)
  0x00|   04                                          | .              |      general_profile_space: 0 0x1-0x1.2 (0.2)
  0x00|   04                                          | .              |      general_tier_flag: 0 0x1.2-0x1.3 (0.1)
  0x00|   04                                          | .              |      general_profile_idc: 4 0x1.3-0x2 (0.5)
      |                                               |                |      general_profile_compatibility_flags[0:32]: 0x2-0x6 (4)
  0x00|      08                                       |  .             |        [0]: false general_profile_compatibility_flag 0x2-0x2.1 (0.1)
  0x00|      08                                       |  .             |        [1]: false general_profile_compatibility_flag 0x2.1-0x2.2 (0.1)
  0x00|      08                                       |  .             |        [2]: false general_profile_compatibility_flag 0x2.2-0x2.3 (0.1)
  0x00|      08                                       |  .             |        [3]: false general_profile_compatibility_flag 0x2.3-0x2.4 (0.1)
  0x00|      08                                       |  .             |        [4]: true general_profile_compatibility_flag 0x2.4-0x2.5 (0.1)
  0x00|      08                                       |  .             |        [5]: false general_profile_compatibility_flag 0x2.5-0x2.6 (0.1)
  0x00|      08                                       |  .             |        [6]: false general_profile_compatibility_flag 0x2.6-0x2.7 (0.1)
  0x00|      08                                       |  .             |        [7]: false general_profile_compatibility_flag 0x2.7-0x3 (0.1)
  0x00|         00                                    |   .            |        [8]: false general_profile_compatibility_flag 0x3-0x3.1 (0.1)
  0x00|         00                                    |   .            |        [9]: false general_profile_compatibility_flag 0x3.1-0x3.2 (0.1)
  0x00|         00                                    |   .            |        [10]: false general_profile_compatibility_flag 0x3.2-0x3.3 (0.1)
  0x00|         00                                    |   .            |        [11]: false general_profile_compatibility_flag 0x3.3-0x3.4 (0.1)
  0x00|         00                                    |   .            |        [12]: false general_profile_compatibility_flag 0x3.4-0x3.5 (0.1)
  0x00|         00                                    |   .            |        [13]: false general_profile_compatibility_flag 0x3.5-0x3.6 (0.1)
  0x00|         00                                    |   .            |        [14]: false general_profile_compatibility_flag 0x3.6-0x3.7 (0.1)
  0x00|         00                                    |   .            |        [15]: false general_profile_compatibility_flag 0x3.7-0x4 (0.1)
  0x00|            00                                 |    .           |        [16]: false general_profile_compatibility_flag 0x4-0x4.1 (0.1)
  0x00|            00                                 |    .           |        [17]: false general_profile_compatibility_flag 0x4.1-0x4.2 (0.1)
  0x00|            00                                 |    .           |        [18]: false general_profile_compatibility_flag 0x4.2-0x4.3 (0.1)
  0x00|            00                                 |    .           |        [19]: false general_profile_compatibility_flag 0x4.3-0x4.4 (0.1)
  0x00|            00                                 |    .           |        [20]: false general_profile_compatibility_flag 0x4.4-0x4.5 (0.1)
  0x00|            00                                 |    .           |        [21]: false general_profile_compatibility_flag 0x4.5-0x4.6 (0.1)
  0x00|            00                                 |    .           |        [22]: false general_profile_compatibility_flag 0x4.6-0x4.7 (0.1)
  0x00|            00                                 |    .           |        [23]: false general_profile_compatibility_flag 0x4.7-0x5 (0.1)
  0x00|               00                              |     .          |        [24]: false general_profile_compatibility_flag 0x5-0x5.1 (0.1)
  0x00|               00                              |     .          |        [25]: false general_profile_compatibility_flag 0x5.1-0x5.2 (0.1)
  0x00|               00                              |     .          |        [26]: false general_profile_compatibility_flag 0x5.2-0x5.3 (0.1)
  0x00|               00                              |     .          |        [27]: false general_profile_compatibility_flag 0x5.3-0x5.4 (0.1)
  0x00|               00                              |     .          |        [28]: false general_profile_compatibility_flag 0x5.4-0x5.5 (0.1)
  0x00|               00                              |     .          |        [29]: false general_profile_compatibility_flag 0x5.5-0x5.6 (0.1)
  0x00|               00                              |     .          |        [30]: false general_profile_compatibility_flag 0x5.6-0x5.7 (0.1)
  0x00|               00                              |     .          |        [31]: false general_profile_compatibility_flag 0x5.7-0x6 (0.1)
  0x00|                  9e                           |      .         |      general_progressive_source_flag: true 0x6-0x6.1 (0.1)
  0x00|                  9e                           |      .         |      general_interlaced_source_flag: false 0x6.1-0x6.2 (0.1)
  0x00|                  9e                           |      .         |      general_non_packed_constraint_flag: false 0x6.2-0x6.3 (0.1)
  0x00|                  9e                           |      .         |      general_frame_only_constraint_flag: true 0x6.3-0x6.4 (0.1)
  0x00|                  9e                           |      .         |      general_max_12bit_constraint_flag: true 0x6.4-0x6.5 (0.1)
  0x00|                  9e                           |      .         |      general_max_10bit_constraint_flag: true 0x6.5-0x6.6 (0.1)
  0x00|                  9e                           |      .         |      general_max_8bit_constraint_flag: true 0x6.6-0x6.7 (0.1)
  0x00|                  9e                           |      .         |      general_max_422chroma_constraint_flag: false 0x6.7-0x7 (0.1)
  0x00|                     08                        |       .        |      general_max_420chroma_constraint_flag: false 0x7-0x7.1 (0.1)
  0x00|                     08                        |       .        |      general_max_monochrome_constraint_flag: false 0x7.1-0x7.2 (0.1)
  0x00|                     08                        |       .        |      general_intra_constraint_flag: false 0x7.2-0x7.3 (0.1)
  0x00|                     08                        |       .        |      general_one_picture_only_constraint_flag: false 0x7.3-0x7.4 (0.1)
  0x00|                     08                        |       .        |      general_lower_bit_rate_constraint_flag: true 0x7.4-0x7.5 (0.1)
  0x00|                     08 00 00 00 00            |       .....    |      general_reserved_zero_34bits: 0 0x7.5-0xb.7 (4.2)
  0x00|                                 00            |           .    |      general_inbld_flag: false 0xb.7-0xc (0.1)
  0x00|                                    3c         |            <   |      general_level_idc: 60 0xc-0xd (1)
      |                                               |                |      sub_layer_presents[0:0]: 0xd-0xd (0)
      |                                               |                |      sub_layers[0:0]: 0xd-0xd (0)
  0x00|                                       90      |             .  |      sps_seq_parameter_set_id: 0 0xd-0xd.1 (0.1)
  0x00|                                       90      |             .  |      chroma_format_idc: "4:4:4" (3) 0xd.1-0xd.6 (0.5)
  0x00|                                       90      |             .  |      separate_colour_plane_flag: false 0xd.6-0xd.7 (0.1)
  0x00|                                       90 01 41|             ..A|      pic_width_in_luma_samples: 320 0xd.7-0x10 (2.1)
  0x01|01 e2                                          |..              |      pic_height_in_luma_samples: 240 0x10-0x11.7 (1.7)
  0x01|   e2                                          | .              |      conformance_window_flag: false 0x11.7-0x12 (0.1)
  0x01|      cb                                       |  .             |      bit_depth_luma_minus8: 0 0x12-0x12.1 (0.1)
  0x01|      cb                                       |  .             |      bit_depth_chroma_minus8: 0 0x12.1-0x12.2 (0.1)
  0x01|      cb                                       |  .             |      log2_max_pic_order_cnt_lsb_minus4: 4 0x12.2-0x12.7 (0.5)
  0x01|      cb                                       |  .             |      sps_sub_layer_ordering_info_present_flag: true 0x12.7-0x13 (0.1)
      |                                               |                |      sps_sub_layer_ordering_infos[0:1]: 0x13-0x14.5 (1.5)
      |                                               |                |        [0]{}: sps_sub_layer_ordering_info 0x13-0x14.5 (1.5)
  0x01|         2b                                    |   +            |          sps_max_dec_pic_buffering_minus1: 4 0x13-0x13.5 (0.5)
  0x01|         2b                                    |   +            |          sps_max_num_reorder_pics: 2 0x13.5-0x14 (0.3)
  0x01|            34                                 |    4           |          sps_max_latency_increase_plus1: 5 0x14-0x14.5 (0.5)
  0x01|            34                                 |    4           |      log2_min_luma_coding_block_size_minus3: 0 0x14.5-0x14.6 (0.1)
  0x01|            34 92                              |    4.          |      log2_diff_max_min_luma_coding_block_size: 3 0x14.6-0x15.3 (0.5)
  0x01|               92                              |     .          |      log2_min_luma_transform_block_size_minus2: 0 0x15.3-0x15.4 (0.1)
  0x01|               92 65                           |     .e         |      log2_diff_max_min_luma_transform_block_size: 3 0x15.4-0x16.1 (0.5)
  0x01|                  65                           |      e         |      max_transform_hierarchy_depth_inter: 0 0x16.1-0x16.2 (0.1)
  0x01|                  65                           |      e         |      max_transform_hierarchy_depth_intra: 0 0x16.2-0x16.3 (0.1)
  0x01|                  65                           |      e         |      scaling_list_enabled_flag: false 0x16.3-0x16.4 (0.1)
  0x01|                  65                           |      e         |      amp_enabled_flag: false 0x16.4-0x16.5 (0.1)
  0x01|                  65                           |      e         |      sample_adaptive_offset_enabled_flag: true 0x16.5-0x16.6 (0.1)
  0x01|                  65                           |      e         |      pcm_enabled_flag: false 0x16.6-0x16.7 (0.1)
  0x01|                  65                           |      e         |      num_short_term_ref_pic_sets: 0 0x16.7-0x17 (0.1)
  0x01|                     78                        |       x        |      long_term_ref_pics_present_flag: false 0x17-0x17.1 (0.1)
  0x01|                     78                        |       x        |      sps_temporal_mvp_enabled_flag: true 0x17.1-0x17.2 (0.1)
  0x01|                     78                        |       x        |      strong_intra_smoothing_enabled_flag: true 0x17.2-0x17.3 (0.1)
  0x01|                     78                        |       x        |      vui_parameters_present_flag: true 0x17.3-0x17.4 (0.1)
      |                                               |                |      vui_parameters{}: 0x17.4-0x25.5 (14.1)
  0x01|                     78                        |       x        |        aspect_ratio_info_present_flag: true 0x17.4-0x17.5 (0.1)
  0x01|                     78 0b                     |       x.       |        aspect_ratio_idc: "1:1" (1) 0x17.5-0x18.5 (1)
  0x01|                        0b                     |        .       |        overscan_info_present_flag: false 0x18.5-0x18.6 (0.1)
  0x01|                        0b                     |        .       |        video_signal_type_present_flag: true 0x18.6-0x18.7 (0.1)
  0x01|                        0b 70                  |        .p      |        video_format: "unspecified" (5) 0x18.7-0x19.2 (0.3)
  0x01|                           70                  |         p      |        video_full_range_flag: true 0x19.2-0x19.3 (0.1)
  0x01|                           70                  |         p      |        colour_description_present_flag: true 0x19.3-0x19.4 (0.1)
  0x01|                           70 20               |         p      |        colour_primaries: "unspecified" (2) (Unspecified) 0x19.4-0x1a.4 (1)
  0x01|                              20 20            |                |        transfer_characteristics: "unspecified" (2) (Unspecified) 0x1a.4-0x1b.4 (1)
  0x01|                                 20 00         |            .   |        matrix_coefficients: "rgb" (0) (GBR, IEC 61966-2-1 (sRGB), YZX and ST 428-1) 0x1b.4-0x1c.4 (1)
  0x01|                                    00         |            .   |        chroma_loc_info_present_flag: false 0x1c.4-0x1c.5 (0.1)
  0x01|                                    00         |            .   |        neutral_chroma_indication_flag: false 0x1c.5-0x1c.6 (0.1)
  0x01|                                    00         |            .   |        field_seq_flag: false 0x1c.6-0x1c.7 (0.1)
  0x01|                                    00         |            .   |        frame_field_info_present_flag: false 0x1c.7-0x1d (0.1)
  0x01|                                       40      |             @  |        default_display_window_flag: false 0x1d-0x1d.1 (0.1)
  0x01|                                       40      |             @  |        vui_timing_info_present_flag: true 0x1d.1-0x1d.2 (0.1)
  0x01|                                       40 00 00|             @..|        vui_num_units_in_tick: 1 0x1d.2-0x21.2 (4)
  0x02|00 40                                          |.@              |
  0x02|   40 00 00 06 42|                             | @...B|         |        vui_time_scale: 25 0x21.2-0x25.2 (4)
  0x02|               42|                             |     B|         |        vui_poc_proportional_to_timing_flag: false 0x25.2-0x25.3 (0.1)
  0x02|               42|                             |     B|         |        vui_hrd_parameters_present_flag: false 0x25.3-0x25.4 (0.1)
  0x02|               42|                             |     B|         |        bitstream_restriction_flag: false 0x25.4-0x25.5 (0.1)
  0x02|               42|                             |     B|         |      sps_extension_present_flag: false 0x25.5-0x25.6 (0.1)
  0x02|               42|                             |     B|         |      gap0: raw bits 0x25.6-0x26 (0.2)
0x0010|                                             42|               B|    forbidden_zero_bit: false 0x1f-0x1f.1 (0.1)
0x0010|                                             42|               B|    nal_unit_type: "SPS_NUT" (33) 0x1f.1-0x1f.7 (0.6)
0x0010|                                             42|               B|    nuh_layer_id: 0 0x1f.7-0x20.5 (0.6)
0x0020|01                                             |.               |
0x0020|01                                             |.               |    nuh_temporal_id_plus1: 1 0x20.5-0x21 (0.3)
0x0020|   01 04 08 00 00 03 00 9e 08 00 00 03 00 00 3c| ..............<|    data: raw bits 0x21-0x4a (41)
0x0030|90 01 41 01 e2 cb 2b 34 92 65 78 0b 70 20 20 00|..A...+4.ex.p  .|
0x0040|40 00 00 03 00 40 00 00 06 42                  |@....@...B      |
0x0040|                              00 00 00 01      |          ....  |  [4]: raw bits start_code 0x4a-0x4e (4)
      |00 01 02 03 04 05 06 07 08 09 0a 0b 0c 0d 0e 0f|0123456789abcdef|  [5]{}: nalu (hevc_nalu) 0x4e-0x56 (8)
      |00 01 02 03 04 05 06 07 08 09 0a 0b 0c 0d 0e 0f|0123456789abcdef|    pps{}: (hevc_pps) 0x0-0x6 (6)
  0x00|c1                                             |.               |      pps_pic_parameter_set_id: 0 0x0-0x0.1 (0.1)
  0x00|c1                                             |.               |      pps_seq_parameter_set_id: 0 0x0.1-0x0.2 (0.1)
  0x00|c1                                             |.               |      dependent_slice_segments_enabled_flag: false 0x0.2-0x0.3 (0.1)
  0x00|c1                                             |.               |      output_flag_present_flag: false 0x0.3-0x0.4 (0.1)
  0x00|c1                                             |.               |      num_extra_slice_header_bits: 0 0x0.4-0x0.7 (0.3)
  0x00|c1                                             |.               |      sign_data_hiding_enabled_flag: true 0x0.7-0x1 (0.1)
  0x00|   72                                          | r              |      cabac_init_present_flag: false 0x1-0x1.1 (0.1)
  0x00|   72                                          | r              |      num_ref_idx_l0_default_active_minus1: 0 0x1.1-0x1.2 (0.1)
  0x00|   72                                          | r              |      num_ref_idx_l1_default_active_minus1: 0 0x1.2-0x1.3 (0.1)
  0x00|   72                                          | r              |      init_qp_minus26: 0 0x1.3-0x1.4 (0.1)
  0x00|   72                                          | r              |      constrained_intra_pred_flag: false 0x1.4-0x1.5 (0.1)
  0x00|   72                                          | r              |      transform_skip_enabled_flag: false 0x1.5-0x1.6 (0.1)
  0x00|   72                                          | r              |      cu_qp_delta_enabled_flag: true 0x1.6-0x1.7 (0.1)
  0x00|   72 86                                       | r.             |      diff_cu_qp_delta_depth: 1 0x1.7-0x2.2 (0.3)
  0x00|      86 0c                                    |  ..            |      pps_cb_qp_offset: 6 0x2.2-0x3.1 (0.7)
  0x00|         0c                                    |   .            |      pps_cr_qp_offset: 6 0x3.1-0x4 (0.7)
  0x00|            46                                 |    F           |      pps_slice_chroma_qp_offsets_present_flag: false 0x4-0x4.1 (0.1)
  0x00|            46                                 |    F           |      weighted_pred_flag: true 0x4.1-0x4.2 (0.1)
  0x00|            46                                 |    F           |      weighted_bipred_flag: false 0x4.2-0x4.3 (0.1)
  0x00|            46                                 |    F           |      transquant_bypass_enabled_flag: false 0x4.3-0x4.4 (0.1)
  0x00|            46                                 |    F           |      tiles_enabled_flag: false 0x4.4-0x4.5 (0.1)
  0x00|            46                                 |    F           |      entropy_coding_sync_enabled_flag: true 0x4.5-0x4.6 (0.1)
  0x00|            46                                 |    F           |      pps_loop_filter_across_slices_enabled_flag: true 0x4.6-0x4.7 (0.1)
  0x00|            46                                 |    F           |      deblocking_filter_control_present_flag: false 0x4.7-0x5 (0.1)
  0x00|               24|                             |     $|         |      pps_scaling_list_data_present_flag: false 0x5-0x5.1 (0.1)
  0x00|               24|                             |     $|         |      lists_modification_present_flag: false 0x5.1-0x5.2 (0.1)
  0x00|               24|                             |     $|         |      log2_parallel_merge_level_minus2: 0 0x5.2-0x5.3 (0.1)
  0x00|               24|                             |     $|         |      slice_segment_header_extension_present_flag: false 0x5.3-0x5.4 (0.1)
  0x00|               24|                             |     $|         |      pps_extension_present_flag: false 0x5.4-0x5.5 (0.1)
  0x00|               24|                             |     $|         |      gap0: raw bits 0x5.5-0x6 (0.3)
0x0040|                                          44   |              D |    forbidden_zero_bit: false 0x4e-0x4e.1 (0.1)
0x0040|                                          44   |              D |    nal_unit_type: "PPS_NUT" (34) 0x4e.1-0x4e.7 (0.6)
0x0040|                                          44 01|              D.|    nuh_layer_id: 0 0x4e.7-0x4f.5 (0.6)
0x0040|                                             01|               .|    nuh_temporal_id_plus1: 1 0x4f.5-0x50 (0.3)
0x0050|c1 72 86 0c 46 24                              |.r..F$          |    data: raw bits 0x50-0x56 (6)
0x0050|                  00 00 01                     |      ...       |  [6]: raw bits start_code 0x56-0x59 (3)
      |00 01 02 03 04 05 06 07 08 09 0a 0b 0c 0d 0e 0f|0123456789abcdef|  [7]{}: nalu (hevc_nalu) 0x59-0x940 (2279)
0x0050|                           4e                  |         N      |    forbidden_zero_bit: false 0x59-0x59.1 (0.1)
0x0050|                           4e                  |         N      |    nal_unit_type: "PREFIX_SEI_NUT" (39) 0x59.1-0x59.7 (0.6)
0x0050|                           4e 01               |         N.     |    nuh_layer_id: 0 0x59.7-0x5a.5 (0.6)
0x0050|                              01               |          .     |    nuh_temporal_id_plus1: 1 0x5a.5-0x5b (0.3)
0x0050|                                 05 ff ff ff ff|           .....|    data: raw bits 0x5b-0x940 (2277)
0x0060|ff ff ff ff e2 2c a2 de 09 b5 17 47 db bb 55 a4|.....,.....G..U.|
*     |until 0x93f.7 (2277)                           |                |
0x0940|00 00 01                                       |...             |  [8]: raw bits start_code 0x940-0x943 (3)
      |00 01 02 03 04 05 06 07 08 09 0a 0b 0c 0d 0e 0f|0123456789abcdef|  [9]{}: nalu (hevc_nalu) 0x943-0x1194 (2129)
0x0940|         28                                    |   (            |    forbidden_zero_bit: false 0x943-0x943.1 (0.1)
0x0940|         28                                    |   (            |    nal_unit_type: "IDR_N_LP" (20) 0x943.1-0x943.7 (0.6)
0x0940|         28 01                                 |   (.           |    nuh_layer_id: 0 0x943.7-0x944.5 (0.6)
0x0940|            01                                 |    .           |    nuh_temporal_id_plus1: 1 0x944.5-0x945 (0.3)
0x0940|               af 1d 20 aa 55 b7 88 a0 62 7f ff|     .. .U...b..|    data: raw bits 0x945-0x1194 (2127)
0x0950|fa 2c 46 fd a9 78 83 ff fb 75 6c 0b 3f ff 94 ce|.,F..x...ul.?...|
*     |until 0x1193.7 (end) (2127)                    |                |
