$ fq -d hevc_dcr dv hevc_dcr_regression0
      |00 01 02 03 04 05 06 07 08 09 0a 0b 0c 0d 0e 0f|0123456789abcdef|.{}: hevc_dcr_regression0 (hevc_dcr) 0x0-0x6d (109)
0x0000|01                                             |.               |  configuration_version: 1 0x0-0x1 (1)
0x0000|   01                                          | .              |  general_profile_space: 0 0x1-0x1.2 (0.2)
0x0000|   01                                          | .              |  general_tier_flag: 0 0x1.2-0x1.3 (0.1)
0x0000|   01                                          | .              |  general_profile_idc: 1 0x1.3-0x2 (0.5)
0x0000|      60 00 00 00                              |  `...          |  general_profile_compatibility_flags: 1610612736 0x2-0x6 (4)
0x0000|                  b0 00 00 00 00 00            |      ......    |  general_constraint_indicator_flags: 193514046488576 0x6-0xc (6)
0x0000|                                    7b         |            {   |  general_level_idc: 123 0xc-0xd (1)
0x0000|                                       f0      |             .  |  reserved0: 15 0xd-0xd.4 (0.4)
0x0000|                                       f0 00   |             .. |  min_spatial_segmentation_idc: 0 0xd.4-0xf (1.4)
0x0000|                                             fc|               .|  reserved1: 63 0xf-0xf.6 (0.6)
0x0000|                                             fc|               .|  parallelism_type: 0 0xf.6-0x10 (0.2)
0x0010|fd                                             |.               |  reserved2: 63 0x10-0x10.6 (0.6)
0x0010|fd                                             |.               |  chroma_format_idc: 1 0x10.6-0x11 (0.2)
0x0010|   f8                                          | .              |  reserved3: 31 0x11-0x11.5 (0.5)
0x0010|   f8                                          | .              |  bit_depth_luma: 8 0x11.5-0x12 (0.3)
0x0010|      f8                                       |  .             |  reserved4: 31 0x12-0x12.5 (0.5)
0x0010|      f8                                       |  .             |  bit_depth_chroma: 8 0x12.5-0x13 (0.3)
0x0010|         00 00                                 |   ..           |  avg_frame_rate: 0 0x13-0x15 (2)
0x0010|               0b                              |     .          |  constant_frame_rate: 0 0x15-0x15.2 (0.2)
0x0010|               0b                              |     .          |  num_temporal_layers: 1 0x15.2-0x15.5 (0.3)
0x0010|               0b                              |     .          |  temporal_id_nested: 0 0x15.5-0x15.6 (0.1)
0x0010|               0b                              |     .          |  length_size: 4 0x15.6-0x16 (0.2)
0x0010|                  03                           |      .         |  num_of_arrays: 3 0x16-0x17 (1)
      |                                               |                |  arrays[0:3]: 0x17-0x6d (86)
      |                                               |                |    [0]{}: array 0x17-0x36 (31)
0x0010|                     a0                        |       .        |      array_completeness: 1 0x17-0x17.1 (0.1)
0x0010|                     a0                        |       .        |      reserved0: 0 0x17.1-0x17.2 (0.1)
0x0010|                     a0                        |       .        |      nal_unit_type: "VPS_NUT" (32) 0x17.2-0x18 (0.6)
0x0010|                        00 01                  |        ..      |      num_nalus: 1 0x18-0x1a (2)
      |                                               |                |      nals[0:1]: 0x1a-0x36 (28)
      |                                               |                |        [0]{}: nal 0x1a-0x36 (28)
0x0010|                              00 1a            |          ..    |          nal_unit_length: 26 0x1a-0x1c (2)
      |00 01 02 03 04 05 06 07 08 09 0a 0b 0c 0d 0e 0f|0123456789abcdef|          nal{}: (hevc_nalu) 0x1c-0x36 (26)
      |00 01 02 03 04 05 06 07 08 09 0a 0b 0c 0d 0e 0f|0123456789abcdef|            vps{}: (hevc_vps) 0x0-0x15 (21)
  0x00|0c                                             |.               |              vps_video_parameter_set_id: 0 0x0-0x0.4 (0.4)
  0x00|0c                                             |.               |              vps_base_layer_internal_flag: true 0x0.4-0x0.5 (0.1)
  0x00|0c                                             |.               |              vps_base_layer_available_flag: true 0x0.5-0x0.6 (0.1)
  0x00|0c 02                                          |..              |              vps_max_layers_minus1: 0 0x0.6-0x1.4 (0.6)
  0x00|   02                                          | .              |              vps_max_sub_layers_minus1: 1 0x1.4-0x1.7 (0.3)
  0x00|   02                                          | .              |              vps_temporal_id_nesting_flag: false 0x1.7-0x2 (0.1)
  0x00|      ff ff                                    |  ..            |              vps_reserved_0xffff_16bits: 65535 0x2-0x4 (2)
  0x00|            01                                 |    .           |              general_profile_space: 0 0x4-0x4.2 (0.2)
  0x00|            01                                 |    .           |              general_tier_flag: 0 0x4.2-0x4.3 (0.1)
  0x00|            01                                 |    .           |              general_profile_idc: 1 0x4.3-0x5 (0.5)
      |                                               |                |              general_profile_compatibility_flags[0:32]: 0x5-0x9 (4)
  0x00|               60                              |     `          |                [0]: false general_profile_compatibility_flag 0x5-0x5.1 (0.1)
  0x00|               60                              |     `          |                [1]: true general_profile_compatibility_flag 0x5.1-0x5.2 (0.1)
  0x00|               60                              |     `          |                [2]: true general_profile_compatibility_flag 0x5.2-0x5.3 (0.1)
  0x00|               60                              |     `          |                [3]: false general_profile_compatibility_flag 0x5.3-0x5.4 (0.1)
  0x00|               60                              |     `          |                [4]: false general_profile_compatibility_flag 0x5.4-0x5.5 (0.1)
  0x00|               60                              |     `          |                [5]: false general_profile_compatibility_flag 0x5.5-0x5.6 (0.1)
  0x00|               60                              |     `          |                [6]: false general_profile_compatibility_flag 0x5.6-0x5.7 (0.1)
  0x00|               60                              |     `          |                [7]: false general_profile_compatibility_flag 0x5.7-0x6 (0.1)
  0x00|                  00                           |      .         |                [8]: false general_profile_compatibility_flag 0x6-0x6.1 (0.1)
  0x00|                  00                           |      .         |                [9]: false general_profile_compatibility_flag 0x6.1-0x6.2 (0.1)
  0x00|                  00                           |      .         |                [10]: false general_profile_compatibility_flag 0x6.2-0x6.3 (0.1)
  0x00|                  00                           |      .         |                [11]: false general_profile_compatibility_flag 0x6.3-0x6.4 (0.1)
  0x00|                  00                           |      .         |                [12]: false general_profile_compatibility_flag 0x6.4-0x6.5 (0.1)
  0x00|                  00                           |      .         |                [13]: false general_profile_compatibility_flag 0x6.5-0x6.6 (0.1)
  0x00|                  00                           |      .         |                [14]: false general_profile_compatibility_flag 0x6.6-0x6.7 (0.1)
  0x00|                  00                           |      .         |                [15]: false general_profile_compatibility_flag 0x6.7-0x7 (0.1)
  0x00|                     00                        |       .        |                [16]: false general_profile_compatibility_flag 0x7-0x7.1 (0.1)
  0x00|                     00                        |       .        |                [17]: false general_profile_compatibility_flag 0x7.1-0x7.2 (0.1)
  0x00|                     00                        |       .        |                [18]: false general_profile_compatibility_flag 0x7.2-0x7.3 (0.1)
  0x00|                     00                        |       .        |                [19]: false general_profile_compatibility_flag 0x7.3-0x7.4 (0.1)
  0x00|                     00                        |       .        |                [20]: false general_profile_compatibility_flag 0x7.4-0x7.5 (0.1)
  0x00|                     00                        |       .        |                [21]: false general_profile_compatibility_flag 0x7.5-0x7.6 (0.1)
  0x00|                     00                        |       .        |                [22]: false general_profile_compatibility_flag 0x7.6-0x7.7 (0.1)
  0x00|                     00                        |       .        |                [23]: false general_profile_compatibility_flag 0x7.7-0x8 (0.1)
  0x00|                        00                     |        .       |                [24]: false general_profile_compatibility_flag 0x8-0x8.1 (0.1)
  0x00|                        00                     |        .       |                [25]: false general_profile_compatibility_flag 0x8.1-0x8.2 (0.1)
  0x00|                        00                     |        .       |                [26]: false general_profile_compatibility_flag 0x8.2-0x8.3 (0.1)
  0x00|                        00                     |        .       |                [27]: false general_profile_compatibility_flag 0x8.3-0x8.4 (0.1)
  0x00|                        00                     |        .       |                [28]: false general_profile_compatibility_flag 0x8.4-0x8.5 (0.1)
  0x00|                        00                     |        .       |                [29]: false general_profile_compatibility_flag 0x8.5-0x8.6 (0.1)
  0x00|                        00                     |        .       |                [30]: false general_profile_compatibility_flag 0x8.6-0x8.7 (0.1)
  0x00|                        00                     |        .       |                [31]: false general_profile_compatibility_flag 0x8.7-0x9 (0.1)
  0x00|                           b0                  |         .      |              general_progressive_source_flag: true 0x9-0x9.1 (0.1)
  0x00|                           b0                  |         .      |              general_interlaced_source_flag: false 0x9.1-0x9.2 (0.1)
  0x00|                           b0                  |         .      |              general_non_packed_constraint_flag: true 0x9.2-0x9.3 (0.1)
  0x00|                           b0                  |         .      |              general_frame_only_constraint_flag: true 0x9.3-0x9.4 (0.1)
  0x00|                           b0 00 00 00 00 00   |         ...... |              general_reserved_zero_43bits: 0 0x9.4-0xe.7 (5.3)
  0x00|                                          00   |              . |              general_inbld_flag: false 0xe.7-0xf (0.1)
  0x00|                                             7b|               {|              general_level_idc: 123 0xf-0x10 (1)
      |                                               |                |              sub_layer_presents[0:1]: 0x10-0x10.2 (0.2)
      |                                               |                |                [0]{}: sub_layer_present 0x10-0x10.2 (0.2)
  0x01|00                                             |.               |                  sub_layer_profile_present_flag: false 0x10-0x10.1 (0.1)
  0x01|00                                             |.               |                  sub_layer_level_present_flag: false 0x10.1-0x10.2 (0.1)
      |                                               |                |              reserved_zero_2bits[0:7]: 0x10.2-0x12 (1.6)
  0x01|00                                             |.               |                [0]: 0 reserved_zero_2bits 0x10.2-0x10.4 (0.2)
  0x01|00                                             |.               |                [1]: 0 reserved_zero_2bits 0x10.4-0x10.6 (0.2)
  0x01|00                                             |.               |                [2]: 0 reserved_zero_2bits 0x10.6-0x11 (0.2)
  0x01|   00                                          | .              |                [3]: 0 reserved_zero_2bits 0x11-0x11.2 (0.2)
  0x01|   00                                          | .              |                [4]: 0 reserved_zero_2bits 0x11.2-0x11.4 (0.2)
  0x01|   00                                          | .              |                [5]: 0 reserved_zero_2bits 0x11.4-0x11.6 (0.2)
  0x01|   00                                          | .              |                [6]: 0 reserved_zero_2bits 0x11.6-0x12 (0.2)
      |                                               |                |              sub_layers[0:1]: 0x12-0x12 (0)
      |                                               |                |                [0]{}: sub_layer 0x12-0x12 (0)
  0x01|      15                                       |  .             |              vps_sub_layer_ordering_info_present_flag: false 0x12-0x12.1 (0.1)
      |                                               |                |              vps_sub_layer_ordering_infos[0:1]: 0x12.1-0x13.2 (1.1)
      |                                               |                |                [0]{}: sps_sub_layer_ordering_info 0x12.1-0x13.2 (1.1)
  0x01|      15                                       |  .             |                  sps_max_dec_pic_buffering_minus1: 4 0x12.1-0x12.6 (0.5)
  0x01|      15 c0                                    |  ..            |                  sps_max_num_reorder_pics: 2 0x12.6-0x13.1 (0.3)
  0x01|         c0                                    |   .            |                  sps_max_latency_increase_plus1: 0 0x13.1-0x13.2 (0.1)
  0x01|         c0                                    |   .            |              vps_max_layer_id: 0 0x13.2-0x14 (0.6)
  0x01|            90|                                |    .|          |              vps_num_layer_sets_minus1: 0 0x14-0x14.1 (0.1)
      |                                               |                |              layer_id_included_sets_flags[0:1]: 0x14.1-0x14.2 (0.1)
      |                                               |                |                [0][0:1]: layer_id_included_sets_flags 0x14.1-0x14.2 (0.1)
  0x01|            90|                                |    .|          |                  [0]: false layer_id_included_flag_sets_flag 0x14.1-0x14.2 (0.1)
  0x01|            90|                                |    .|          |              vps_timing_info_present_flag: false 0x14.2-0x14.3 (0.1)
  0x01|            90|                                |    .|          |              gap0: raw bits 0x14.3-0x15 (0.5)
0x0010|                                    40         |            @   |            forbidden_zero_bit: false 0x1c-0x1c.1 (0.1)
0x0010|                                    40         |            @   |            nal_unit_type: "VPS_NUT" (32) 0x1c.1-0x1c.7 (0.6)
0x0010|                                    40 01      |            @.  |            nuh_layer_id: 0 0x1c.7-0x1d.5 (0.6)
0x0010|                                       01      |             .  |            nuh_temporal_id_plus1: 1 0x1d.5-0x1e (0.3)
0x0010|                                          0c 02|              ..|            data: raw bits 0x1e-0x36 (24)
0x0020|ff ff 01 60 00 00 03 00 b0 00 00 03 00 00 03 00|...`............|
0x0030|7b 00 00 15 c0 90                              |{.....          |
      |                                               |                |    [1]{}: array 0x36-0x61 (43)
0x0030|                  a1                           |      .         |      array_completeness: 1 0x36-0x36.1 (0.1)
0x0030|                  a1                           |      .         |      reserved0: 0 0x36.1-0x36.2 (0.1)
0x0030|                  a1                           |      .         |      nal_unit_type: "SPS_NUT" (33) 0x36.2-0x37 (0.6)
0x0030|                     00 01                     |       ..       |      num_nalus: 1 0x37-0x39 (2)
      |                                               |                |      nals[0:1]: 0x39-0x61 (40)
      |                                               |                |        [0]{}: nal 0x39-0x61 (40)
0x0030|                           00 26               |         .&     |          nal_unit_length: 38 0x39-0x3b (2)
      |00 01 02 03 04 05 06 07 08 09 0a 0b 0c 0d 0e 0f|0123456789abcdef|          nal{}: (hevc_nalu) 0x3b-0x61 (38)
      |00 01 02 03 04 05 06 07 08 09 0a 0b 0c 0d 0e 0f|0123456789abcdef|            sps{}: (hevc_sps) 0x0-0x21 (33)
  0x00|02                                             |.               |              sps_video_parameter_set_id: 0 0x0-0x0.4 (0.4)
  0x00|02                                             |.               |              sps_max_sub_layers_minus1: 1 0x0.4-0x0.7 (0.3)
  0x00|02                                             |.               |              sps_temporal_id_nesting_flag: false 0x0.7-0x1 (0.1)
  0x00|   01                                          | .              |              general_profile_space: 0 0x1-0x1.2 (0.2)
  0x00|   01                                          | .              |              general_tier_flag: 0 0x1.2-0x1.3 (0.1)
  0x00|   01                                          | .              |              general_profile_idc: 1 0x1.3-0x2 (0.5)
      |                                               |                |              general_profile_compatibility_flags[0:32]: 0x2-0x6 (4)
  0x00|      60                                       |  `             |                [0]: false general_profile_compatibility_flag 0x2-0x2.1 (0.1)
  0x00|      60                                       |  `             |                [1]: true general_profile_compatibility_flag 0x2.1-0x2.2 (0.1)
  0x00|      60                                       |  `             |                [2]: true general_profile_compatibility_flag 0x2.2-0x2.3 (0.1)
  0x00|      60                                       |  `             |                [3]: false general_profile_compatibility_flag 0x2.3-0x2.4 (0.1)
  0x00|      60                                       |  `             |                [4]: false general_profile_compatibility_flag 0x2.4-0x2.5 (0.1)
  0x00|      60                                       |  `             |                [5]: false general_profile_compatibility_flag 0x2.5-0x2.6 (0.1)
  0x00|      60                                       |  `             |                [6]: false general_profile_compatibility_flag 0x2.6-0x2.7 (0.1)
  0x00|      60                                       |  `             |                [7]: false general_profile_compatibility_flag 0x2.7-0x3 (0.1)
  0x00|         00                                    |   .            |                [8]: false general_profile_compatibility_flag 0x3-0x3.1 (0.1)
  0x00|         00                                    |   .            |                [9]: false general_profile_compatibility_flag 0x3.1-0x3.2 (0.1)
  0x00|         00                                    |   .            |                [10]: false general_profile_compatibility_flag 0x3.2-0x3.3 (0.1)
  0x00|         00                                    |   .            |                [11]: false general_profile_compatibility_flag 0x3.3-0x3.4 (0.1)
  0x00|         00                                    |   .            |                [12]: false general_profile_compatibility_flag 0x3.4-0x3.5 (0.1)
  0x00|         00                                    |   .            |                [13]: false general_profile_compatibility_flag 0x3.5-0x3.6 (0.1)
  0x00|         00                                    |   .            |                [14]: false general_profile_compatibility_flag 0x3.6-0x3.7 (0.1)
  0x00|         00                                    |   .            |                [15]: false general_profile_compatibility_flag 0x3.7-0x4 (0.1)
  0x00|            00                                 |    .           |                [16]: false general_profile_compatibility_flag 0x4-0x4.1 (0.1)
  0x00|            00                                 |    .           |                [17]: false general_profile_compatibility_flag 0x4.1-0x4.2 (0.1)
  0x00|            00                                 |    .           |                [18]: false general_profile_compatibility_flag 0x4.2-0x4.3 (0.1)
  0x00|            00                                 |    .           |                [19]: false general_profile_compatibility_flag 0x4.3-0x4.4 (0.1)
  0x00|            00                                 |    .           |                [20]: false general_profile_compatibility_flag 0x4.4-0x4.5 (0.1)
  0x00|            00                                 |    .           |                [21]: false general_profile_compatibility_flag 0x4.5-0x4.6 (0.1)
  0x00|            00                                 |    .           |                [22]: false general_profile_compatibility_flag 0x4.6-0x4.7 (0.1)
  0x00|            00                                 |    .           |                [23]: false general_profile_compatibility_flag 0x4.7-0x5 (0.1)
  0x00|               00                              |     .          |                [24]: false general_profile_compatibility_flag 0x5-0x5.1 (0.1)
  0x00|               00                              |     .          |                [25]: false general_profile_compatibility_flag 0x5.1-0x5.2 (0.1)
  0x00|               00                              |     .          |                [26]: false general_profile_compatibility_flag 0x5.2-0x5.3 (0.1)
  0x00|               00                              |     .          |                [27]: false general_profile_compatibility_flag 0x5.3-0x5.4 (0.1)
  0x00|               00                              |     .          |                [28]: false general_profile_compatibility_flag 0x5.4-0x5.5 (0.1)
  0x00|               00                              |     .          |                [29]: false general_profile_compatibility_flag 0x5.5-0x5.6 (0.1)
  0x00|               00                              |     .          |                [30]: false general_profile_compatibility_flag 0x5.6-0x5.7 (0.1)
  0x00|               00                              |     .          |                [31]: false general_profile_compatibility_flag 0x5.7-0x6 (0.1)
  0x00|                  b0                           |      .         |              general_progressive_source_flag: true 0x6-0x6.1 (0.1)
  0x00|                  b0                           |      .         |              general_interlaced_source_flag: false 0x6.1-0x6.2 (0.1)
  0x00|                  b0                           |      .         |              general_non_packed_constraint_flag: true 0x6.2-0x6.3 (0.1)
  0x00|                  b0                           |      .         |              general_frame_only_constraint_flag: true 0x6.3-0x6.4 (0.1)
  0x00|                  b0 00 00 00 00 00            |      ......    |              general_reserved_zero_43bits: 0 0x6.4-0xb.7 (5.3)
  0x00|                                 00            |           .    |              general_inbld_flag: false 0xb.7-0xc (0.1)
  0x00|                                    7b         |            {   |              general_level_idc: 123 0xc-0xd (1)
      |                                               |                |              sub_layer_presents[0:1]: 0xd-0xd.2 (0.2)
      |                                               |                |                [0]{}: sub_layer_present 0xd-0xd.2 (0.2)
  0x00|                                       00      |             .  |                  sub_layer_profile_present_flag: false 0xd-0xd.1 (0.1)
  0x00|                                       00      |             .  |                  sub_layer_level_present_flag: false 0xd.1-0xd.2 (0.1)
      |                                               |                |              reserved_zero_2bits[0:7]: 0xd.2-0xf (1.6)
  0x00|                                       00      |             .  |                [0]: 0 reserved_zero_2bits 0xd.2-0xd.4 (0.2)
  0x00|                                       00      |             .  |                [1]: 0 reserved_zero_2bits 0xd.4-0xd.6 (0.2)
  0x00|                                       00      |             .  |                [2]: 0 reserved_zero_2bits 0xd.6-0xe (0.2)
  0x00|                                          00   |              . |                [3]: 0 reserved_zero_2bits 0xe-0xe.2 (0.2)
  0x00|                                          00   |              . |                [4]: 0 reserved_zero_2bits 0xe.2-0xe.4 (0.2)
  0x00|                                          00   |              . |                [5]: 0 reserved_zero_2bits 0xe.4-0xe.6 (0.2)
  0x00|                                          00   |              . |                [6]: 0 reserved_zero_2bits 0xe.6-0xf (0.2)
      |                                               |                |              sub_layers[0:1]: 0xf-0xf (0)
      |                                               |                |                [0]{}: sub_layer 0xf-0xf (0)
  0x00|                                             a0|               .|              sps_seq_parameter_set_id: 0 0xf-0xf.1 (0.1)
  0x00|                                             a0|               .|              chroma_format_idc: "4:2:0" (1) 0xf.1-0xf.4 (0.3)
  0x00|                                             a0|               .|              pic_width_in_luma_samples: 1920 0xf.4-0x12.1 (2.5)
  0x01|03 c0 80                                       |...             |
  0x01|      80 11 07                                 |  ...           |              pic_height_in_luma_samples: 1088 0x12.1-0x14.6 (2.5)
  0x01|            07                                 |    .           |              conformance_window_flag: true 0x14.6-0x14.7 (0.1)
  0x01|            07                                 |    .           |              conf_win_left_offset: 0 0x14.7-0x15 (0.1)
  0x01|               cb                              |     .          |              conf_win_right_offset: 0 0x15-0x15.1 (0.1)
  0x01|               cb                              |     .          |              conf_win_top_offset: 0 0x15.1-0x15.2 (0.1)
  0x01|               cb                              |     .          |              conf_win_bottom_offset: 4 0x15.2-0x15.7 (0.5)
  0x01|               cb                              |     .          |              bit_depth_luma_minus8: 0 0x15.7-0x16 (0.1)
  0x01|                  88                           |      .         |              bit_depth_chroma_minus8: 0 0x16-0x16.1 (0.1)
  0x01|                  88                           |      .         |              log2_max_pic_order_cnt_lsb_minus4: 7 0x16.1-0x17 (0.7)
  0x01|                     15                        |       .        |              sps_sub_layer_ordering_info_present_flag: false 0x17-0x17.1 (0.1)
      |                                               |                |              sps_sub_layer_ordering_infos[0:1]: 0x17.1-0x18.2 (1.1)
      |                                               |                |                [0]{}: sps_sub_layer_ordering_info 0x17.1-0x18.2 (1.1)
  0x01|                     15                        |       .        |                  sps_max_dec_pic_buffering_minus1: 4 0x17.1-0x17.6 (0.5)
  0x01|                     15 ee                     |       ..       |                  sps_max_num_reorder_pics: 2 0x17.6-0x18.1 (0.3)
  0x01|                        ee                     |        .       |                  sps_max_latency_increase_plus1: 0 0x18.1-0x18.2 (0.1)
  0x01|                        ee                     |        .       |              log2_min_luma_coding_block_size_minus3: 0 0x18.2-0x18.3 (0.1)
  0x01|                        ee                     |        .       |              log2_diff_max_min_luma_coding_block_size: 2 0x18.3-0x18.6 (0.3)
  0x01|                        ee                     |        .       |              log2_min_luma_transform_block_size_minus2: 0 0x18.6-0x18.7 (0.1)
  0x01|                        ee 45                  |        .E      |              log2_diff_max_min_luma_transform_block_size: 3 0x18.7-0x19.4 (0.5)
  0x01|                           45                  |         E      |              max_transform_hierarchy_depth_inter: 1 0x19.4-0x19.7 (0.3)
  0x01|                           45                  |         E      |              max_transform_hierarchy_depth_intra: 0 0x19.7-0x1a (0.1)
  0x01|                              95               |          .     |              scaling_list_enabled_flag: true 0x1a-0x1a.1 (0.1)
  0x01|                              95               |          .     |              sps_scaling_list_data_present_flag: false 0x1a.1-0x1a.2 (0.1)
  0x01|                              95               |          .     |              amp_enabled_flag: false 0x1a.2-0x1a.3 (0.1)
  0x01|                              95               |          .     |              sample_adaptive_offset_enabled_flag: true 0x1a.3-0x1a.4 (0.1)
  0x01|                              95               |          .     |              pcm_enabled_flag: false 0x1a.4-0x1a.5 (0.1)
  0x01|                              95               |          .     |              num_short_term_ref_pic_sets: 0 0x1a.5-0x1a.6 (0.1)
  0x01|                              95               |          .     |              long_term_ref_pics_present_flag: false 0x1a.6-0x1a.7 (0.1)
  0x01|                              95               |          .     |              sps_temporal_mvp_enabled_flag: true 0x1a.7-0x1b (0.1)
  0x01|                                 4d            |           M    |              strong_intra_smoothing_enabled_flag: false 0x1b-0x1b.1 (0.1)
  0x01|                                 4d            |           M    |              vui_parameters_present_flag: true 0x1b.1-0x1b.2 (0.1)
      |                                               |                |              vui_parameters{}: 0x1b.2-0x20.1 (4.7)
  0x01|                                 4d            |           M    |                aspect_ratio_info_present_flag: false 0x1b.2-0x1b.3 (0.1)
  0x01|                                 4d            |           M    |                overscan_info_present_flag: false 0x1b.3-0x1b.4 (0.1)
  0x01|                                 4d            |           M    |                video_signal_type_present_flag: true 0x1b.4-0x1b.5 (0.1)
  0x01|                                 4d            |           M    |                video_format: "unspecified" (5) 0x1b.5-0x1c (0.3)
  0x01|                                    40         |            @   |                video_full_range_flag: false 0x1c-0x1c.1 (0.1)
  0x01|                                    40         |            @   |                colour_description_present_flag: true 0x1c.1-0x1c.2 (0.1)
  0x01|                                    40 40      |            @@  |                colour_primaries: "bt709" (1) (ITU-R BT1361 / IEC 61966-2-4 / SMPTE RP 177 Annex B) 0x1c.2-0x1d.2 (1)
  0x01|                                       40 40   |             @@ |                transfer_characteristics: "bt709" (1) (ITU-R BT1361) 0x1d.2-0x1e.2 (1)
  0x01|                                          40 40|              @@|                matrix_coefficients: "bt709" (1) (ITU-R BT1361 / IEC 61966-2-4 xvYCC709 / derived in SMPTE RP 177 Annex B) 0x1e.2-0x1f.2 (1)
  0x01|                                             40|               @|                chroma_loc_info_present_flag: false 0x1f.2-0x1f.3 (0.1)
  0x01|                                             40|               @|                neutral_chroma_indication_flag: false 0x1f.3-0x1f.4 (0.1)
  0x01|                                             40|               @|                field_seq_flag: false 0x1f.4-0x1f.5 (0.1)
  0x01|                                             40|               @|                frame_field_info_present_flag: false 0x1f.5-0x1f.6 (0.1)
  0x01|                                             40|               @|                default_display_window_flag: false 0x1f.6-0x1f.7 (0.1)
  0x01|                                             40|               @|                vui_timing_info_present_flag: false 0x1f.7-0x20 (0.1)
  0x02|20|                                            | |              |                bitstream_restriction_flag: false 0x20-0x20.1 (0.1)
  0x02|20|                                            | |              |              sps_extension_present_flag: false 0x20.1-0x20.2 (0.1)
  0x02|20|                                            | |              |              gap0: raw bits 0x20.2-0x21 (0.6)
0x0030|                                 42            |           B    |            forbidden_zero_bit: false 0x3b-0x3b.1 (0.1)
0x0030|                                 42            |           B    |            nal_unit_type: "SPS_NUT" (33) 0x3b.1-0x3b.7 (0.6)
0x0030|                                 42 01         |           B.   |            nuh_layer_id: 0 0x3b.7-0x3c.5 (0.6)
0x0030|                                    01         |            .   |            nuh_temporal_id_plus1: 1 0x3c.5-0x3d (0.3)
0x0030|                                       02 01 60|             ..`|            data: raw bits 0x3d-0x61 (36)
0x0040|00 00 03 00 b0 00 00 03 00 00 03 00 7b 00 00 a0|............{...|
*     |until 0x60.7 (36)                              |                |
      |                                               |                |    [2]{}: array 0x61-0x6d (12)
0x0060|   a2                                          | .              |      array_completeness: 1 0x61-0x61.1 (0.1)
0x0060|   a2                                          | .              |      reserved0: 0 0x61.1-0x61.2 (0.1)
0x0060|   a2                                          | .              |      nal_unit_type: "PPS_NUT" (34) 0x61.2-0x62 (0.6)
0x0060|      00 01                                    |  ..            |      num_nalus: 1 0x62-0x64 (2)
      |                                               |                |      nals[0:1]: 0x64-0x6d (9)
      |                                               |                |        [0]{}: nal 0x64-0x6d (9)
0x0060|            00 07                              |    ..          |          nal_unit_length: 7 0x64-0x66 (2)
      |00 01 02 03 04 05 06 07 08 09 0a 0b 0c 0d 0e 0f|0123456789abcdef|          nal{}: (hevc_nalu) 0x66-0x6d (7)
      |00 01 02 03 04 05 06 07 08 09 0a 0b 0c 0d 0e 0f|0123456789abcdef|            pps{}: (hevc_pps) 0x0-0x5 (5)
  0x00|c0                                             |.               |              pps_pic_parameter_set_id: 0 0x0-0x0.1 (0.1)
  0x00|c0                                             |.               |              pps_seq_parameter_set_id: 0 0x0.1-0x0.2 (0.1)
  0x00|c0                                             |.               |              dependent_slice_segments_enabled_flag: false 0x0.2-0x0.3 (0.1)
  0x00|c0                                             |.               |              output_flag_present_flag: false 0x0.3-0x0.4 (0.1)
  0x00|c0                                             |.               |              num_extra_slice_header_bits: 0 0x0.4-0x0.7 (0.3)
  0x00|c0                                             |.               |              sign_data_hiding_enabled_flag: false 0x0.7-0x1 (0.1)
  0x00|   2c                                          | ,              |              cabac_init_present_flag: false 0x1-0x1.1 (0.1)
  0x00|   2c                                          | ,              |              num_ref_idx_l0_default_active_minus1: 1 0x1.1-0x1.4 (0.3)
  0x00|   2c                                          | ,              |              num_ref_idx_l1_default_active_minus1: 0 0x1.4-0x1.5 (0.1)
  0x00|   2c                                          | ,              |              init_qp_minus26: 0 0x1.5-0x1.6 (0.1)
  0x00|   2c                                          | ,              |              constrained_intra_pred_flag: false 0x1.6-0x1.7 (0.1)
  0x00|   2c                                          | ,              |              transform_skip_enabled_flag: false 0x1.7-0x2 (0.1)
  0x00|      bc                                       |  .             |              cu_qp_delta_enabled_flag: true 0x2-0x2.1 (0.1)
  0x00|      bc                                       |  .             |              diff_cu_qp_delta_depth: 2 0x2.1-0x2.4 (0.3)
  0x00|      bc                                       |  .             |              pps_cb_qp_offset: 0 0x2.4-0x2.5 (0.1)
  0x00|      bc                                       |  .             |              pps_cr_qp_offset: 0 0x2.5-0x2.6 (0.1)
  0x00|      bc                                       |  .             |              pps_slice_chroma_qp_offsets_present_flag: false 0x2.6-0x2.7 (0.1)
  0x00|      bc                                       |  .             |              weighted_pred_flag: false 0x2.7-0x3 (0.1)
  0x00|         14                                    |   .            |              weighted_bipred_flag: false 0x3-0x3.1 (0.1)
  0x00|         14                                    |   .            |              transquant_bypass_enabled_flag: false 0x3.1-0x3.2 (0.1)
  0x00|         14                                    |   .            |              tiles_enabled_flag: false 0x3.2-0x3.3 (0.1)
  0x00|         14                                    |   .            |              entropy_coding_sync_enabled_flag: true 0x3.3-0x3.4 (0.1)
  0x00|         14                                    |   .            |              pps_loop_filter_across_slices_enabled_flag: false 0x3.4-0x3.5 (0.1)
  0x00|         14                                    |   .            |              deblocking_filter_control_present_flag: true 0x3.5-0x3.6 (0.1)
  0x00|         14                                    |   .            |              deblocking_filter_override_enabled_flag: false 0x3.6-0x3.7 (0.1)
  0x00|         14                                    |   .            |              pps_deblocking_filter_disabled_flag: false 0x3.7-0x4 (0.1)
  0x00|            c9|                                |    .|          |              pps_beta_offset_div2: 0 0x4-0x4.1 (0.1)
  0x00|            c9|                                |    .|          |              pps_tc_offset_div2: 0 0x4.1-0x4.2 (0.1)
  0x00|            c9|                                |    .|          |              pps_scaling_list_data_present_flag: false 0x4.2-0x4.3 (0.1)
  0x00|            c9|                                |    .|          |              lists_modification_present_flag: false 0x4.3-0x4.4 (0.1)
  0x00|            c9|                                |    .|          |              log2_parallel_merge_level_minus2: 0 0x4.4-0x4.5 (0.1)
  0x00|            c9|                                |    .|          |              slice_segment_header_extension_present_flag: false 0x4.5-0x4.6 (0.1)
  0x00|            c9|                                |    .|          |              pps_extension_present_flag: false 0x4.6-0x4.7 (0.1)
  0x00|            c9|                                |    .|          |              gap0: raw bits 0x4.7-0x5 (0.1)
0x0060|                  44                           |      D         |            forbidden_zero_bit: false 0x66-0x66.1 (0.1)
0x0060|                  44                           |      D         |            nal_unit_type: "PPS_NUT" (34) 0x66.1-0x66.7 (0.6)
0x0060|                  44 01                        |      D.        |            nuh_layer_id: 0 0x66.7-0x67.5 (0.6)
0x0060|                     01                        |       .        |            nuh_temporal_id_plus1: 1 0x67.5-0x68 (0.3)
0x0060|                        c0 2c bc 14 c9|        |        .,...|  |            data: raw bits 0x68-0x6d (5)
