$ fq -d mp3_frame dv mp3-frame-128000br-1ch-8000hz
     |00 01 02 03 04 05 06 07 08 09 0a 0b 0c 0d 0e 0f|0123456789abcdef|.{}: mp3-frame-128000br-1ch-8000hz (mp3_frame) 0x0-0x240 (576)
     |                                               |                |  header{}: 0x0-0x4 (4)
0x000|ff e3                                          |..              |    sync: 0b11111111111 (valid) 0x0-0x1.3 (1.3)
0x000|   e3                                          | .              |    mpeg_version: "2.5" (0) (MPEG Version 2.5) 0x1.3-0x1.5 (0.2)
0x000|   e3                                          | .              |    layer: 3 (1) (MPEG Layer 3) 0x1.5-0x1.7 (0.2)
     |                                               |                |    sample_count: 576
0x000|   e3                                          | .              |    protection_absent: true (No CRC) 0x1.7-0x2 (0.1)
0x000|      88                                       |  .             |    bitrate: 64000 (8) 0x2-0x2.4 (0.4)
0x000|      88                                       |  .             |    sample_rate: 8000 (2) 0x2.4-0x2.6 (0.2)
0x000|      88                                       |  .             |    padding: "not_padded" (0b0) 0x2.6-0x2.7 (0.1)
0x000|      88                                       |  .             |    private: 0 0x2.7-0x3 (0.1)
0x000|         c4                                    |   .            |    channels: "mono" (0b11) 0x3-0x3.2 (0.2)
0x000|         c4                                    |   .            |    channel_mode: "none" (0b0) 0x3.2-0x3.4 (0.2)
0x000|         c4                                    |   .            |    copyright: 0 0x3.4-0x3.5 (0.1)
0x000|         c4                                    |   .            |    original: 1 0x3.5-0x3.6 (0.1)
0x000|         c4                                    |   .            |    emphasis: "none" (0b0) 0x3.6-0x4 (0.2)
     |                                               |                |  side_info{}: 0x4-0xd (9)
0x000|            42                                 |    B           |    main_data_begin: 66 0x4-0x5 (1)
0x000|               68                              |     h          |    private_bits: 0 0x5-0x5.1 (0.1)
     |                                               |                |    granules[0:1]: 0x5.1-0xd (7.7)
     |                                               |                |      [0][0:1]: granule 0x5.1-0xd (7.7)
     |                                               |                |        [0]{}: channel 0x5.1-0xd (7.7)
0x000|               68 73                           |     hs         |          part2_3_length: 3342 0x5.1-0x6.5 (1.4)
0x000|                  73 c2                        |      s.        |          big_values: 240 0x6.5-0x7.6 (1.1)
0x000|                     c2 00                     |       ..       |          global_gain: 128 0x7.6-0x8.6 (1)
0x000|                        00 01                  |        ..      |          scalefac_compress: 0 0x8.6-0x9.7 (1.1)
0x000|                           01                  |         .      |          blocksplit_flag: 1 0x9.7-0xa (0.1)
0x000|                              9f               |          .     |          block_type: "3 short windows" (2) 0xa-0xa.2 (0.2)
0x000|                              9f               |          .     |          switch_point: 0 0xa.2-0xa.3 (0.1)
0x000|                              9f               |          .     |          table_select0: 31 0xa.3-0xb (0.5)
0x000|                                 f0            |           .    |          table_select1: 30 0xb-0xb.5 (0.5)
0x000|                                 f0            |           .    |          subblock_gain0: 0 0xb.5-0xc (0.3)
0x000|                                    00         |            .   |          subblock_gain1: 0 0xc-0xc.3 (0.3)
0x000|                                    00         |            .   |          subblock_gain2: 0 0xc.3-0xc.6 (0.3)
0x000|                                    00         |            .   |          scalefac_scale: 0 0xc.6-0xc.7 (0.1)
0x000|                                    00         |            .   |          count1table_select: 0 0xc.7-0xd (0.1)
0x000|                                       bc 62 1d|             .b.|  audio_data: raw bits 0xd-0x240 (563)
0x010|0e 6a 7d 89 33 ec 6a a8 9f dc 60 02 80 74 61 49|.j}.3.j...`..taI|
*    |until 0x23f.7 (end) (563)                      |                |
     |                                               |                |  crc_calculated: "77fa" (raw bits)
