$ fq -d mp3_frame dv mp3-frame-320000br-1ch-48000hz
     |00 01 02 03 04 05 06 07 08 09 0a 0b 0c 0d 0e 0f|0123456789abcdef|.{}: mp3-frame-320000br-1ch-48000hz (mp3_frame) 0x0-0x3c0 (960)
     |                                               |                |  header{}: 0x0-0x4 (4)
0x000|ff fb                                          |..              |    sync: 0b11111111111 (valid) 0x0-0x1.3 (1.3)
0x000|   fb                                          | .              |    mpeg_version: "1" (3) (MPEG Version 1) 0x1.3-0x1.5 (0.2)
0x000|   fb                                          | .              |    layer: 3 (1) (MPEG Layer 3) 0x1.5-0x1.7 (0.2)
     |                                               |                |    sample_count: 1152
0x000|   fb                                          | .              |    protection_absent: true (No CRC) 0x1.7-0x2 (0.1)
0x000|      e4                                       |  .             |    bitrate: 320000 (14) 0x2-0x2.4 (0.4)
0x000|      e4                                       |  .             |    sample_rate: 48000 (1) 0x2.4-0x2.6 (0.2)
0x000|      e4                                       |  .             |    padding: "not_padded" (0b0) 0x2.6-0x2.7 (0.1)
0x000|      e4                                       |  .             |    private: 0 0x2.7-0x3 (0.1)
0x000|         c4                                    |   .            |    channels: "mono" (0b11) 0x3-0x3.2 (0.2)
0x000|         c4                                    |   .            |    channel_mode: "none" (0b0) 0x3.2-0x3.4 (0.2)
0x000|         c4                                    |   .            |    copyright: 0 0x3.4-0x3.5 (0.1)
0x000|         c4                                    |   .            |    original: 1 0x3.5-0x3.6 (0.1)
0x000|         c4                                    |   .            |    emphasis: "none" (0b0) 0x3.6-0x4 (0.2)
     |                                               |                |  side_info{}: 0x4-0x15 (17)
0x000|            00 03                              |    ..          |    main_data_begin: 0 0x4-0x5.1 (1.1)
0x000|               03                              |     .          |    share: 0 0x5.1-0x5.6 (0.5)
0x000|               03 59                           |     .Y         |    scfsi0: 13 0x5.6-0x6.2 (0.4)
     |                                               |                |    granules[0:2]: 0x6.2-0x15 (14.6)
     |                                               |                |      [0][0:1]: granule 0x6.2-0xd.5 (7.3)
     |                                               |                |        [0]{}: channel 0x6.2-0xd.5 (7.3)
0x000|                  59 f1                        |      Y.        |          part2_3_length: 1660 0x6.2-0x7.6 (1.4)
0x000|                     f1 e0                     |       ..       |          big_values: 240 0x7.6-0x8.7 (1.1)
0x000|                        e0 fc                  |        ..      |          global_gain: 126 0x8.7-0x9.7 (1)
0x000|                           fc 1d               |         ..     |          scalefac_compress: 0 0x9.7-0xa.3 (0.4)
0x000|                              1d               |          .     |          blocksplit_flag: 1 0xa.3-0xa.4 (0.1)
0x000|                              1d               |          .     |          block_type: "end" (3) 0xa.4-0xa.6 (0.2)
0x000|                              1d               |          .     |          switch_point: 0 0xa.6-0xa.7 (0.1)
0x000|                              1d f4            |          ..    |          table_select0: 31 0xa.7-0xb.4 (0.5)
0x000|                                 f4 80         |           ..   |          table_select1: 9 0xb.4-0xc.1 (0.5)
0x000|                                    80         |            .   |          subblock_gain0: 0 0xc.1-0xc.4 (0.3)
0x000|                                    80         |            .   |          subblock_gain1: 0 0xc.4-0xc.7 (0.3)
0x000|                                    80 0a      |            ..  |          subblock_gain2: 0 0xc.7-0xd.2 (0.3)
0x000|                                       0a      |             .  |          preflag: 0 0xd.2-0xd.3 (0.1)
0x000|                                       0a      |             .  |          scalefac_scale: 0 0xd.3-0xd.4 (0.1)
0x000|                                       0a      |             .  |          count1table_select: 1 0xd.4-0xd.5 (0.1)
     |                                               |                |      [1][0:1]: granule 0xd.5-0x15 (7.3)
     |                                               |                |        [0]{}: channel 0xd.5-0x15 (7.3)
0x000|                                       0a ad 39|             ..9|          part2_3_length: 1370 0xd.5-0xf.1 (1.4)
0x000|                                             39|               9|          big_values: 230 0xf.1-0x10.2 (1.1)
0x010|a0                                             |.               |
0x010|a0 89                                          |..              |          global_gain: 130 0x10.2-0x11.2 (1)
0x010|   89                                          | .              |          scalefac_compress: 2 0x11.2-0x11.6 (0.4)
0x010|   89                                          | .              |          blocksplit_flag: 0 0x11.6-0x11.7 (0.1)
0x010|   89 f5                                       | ..             |          table_select0: 31 0x11.7-0x12.4 (0.5)
0x010|      f5 8d                                    |  ..            |          table_select1: 11 0x12.4-0x13.1 (0.5)
0x010|         8d                                    |   .            |          table_select2: 3 0x13.1-0x13.6 (0.5)
0x010|         8d f9                                 |   ..           |          region_address1: 7 0x13.6-0x14.2 (0.4)
0x010|            f9                                 |    .           |          region_address2: 7 0x14.2-0x14.5 (0.3)
0x010|            f9                                 |    .           |          preflag: 0 0x14.5-0x14.6 (0.1)
0x010|            f9                                 |    .           |          scalefac_scale: 0 0x14.6-0x14.7 (0.1)
0x010|            f9                                 |    .           |          count1table_select: 1 0x14.7-0x15 (0.1)
0x010|               30 1d c1 22 30 7d c2 d4 30 8e c1|     0.."0}..0..|  audio_data: raw bits 0x15-0x3c0 (939)
0x020|95 30 ed 83 a9 32 7d 2e 9b 3f af f1 90 35 34 4b|.0...2}..?...54K|
*    |until 0x3bf.7 (end) (939)                      |                |
     |                                               |                |  crc_calculated: "12e3" (raw bits)
