$ fq -d mp3_frame dv mp3-frame-8000br-1ch-48000hz
    |00 01 02 03 04 05 06 07 08 09 0a 0b 0c 0d 0e 0f|0123456789abcdef|.{}: mp3-frame-8000br-1ch-48000hz (mp3_frame) 0x0-0x5f.7 (96)
    |                                               |                |  header{}: 0x0-0x3.7 (4)
0x00|ff fb                                          |..              |    sync: 0b11111111111 (valid) 0x0-0x1.2 (1.3)
0x00|   fb                                          | .              |    mpeg_version: "1" (3) (MPEG Version 1) 0x1.3-0x1.4 (0.2)
0x00|   fb                                          | .              |    layer: 3 (1) (MPEG Layer 3) 0x1.5-0x1.6 (0.2)
    |                                               |                |    sample_count: 1152 0x1.7-NA (0)
0x00|   fb                                          | .              |    protection_absent: true (No CRC) 0x1.7-0x1.7 (0.1)
0x00|      14                                       |  .             |    bitrate: 32000 (1) 0x2-0x2.3 (0.4)
0x00|      14                                       |  .             |    sample_rate: 48000 (1) 0x2.4-0x2.5 (0.2)
0x00|      14                                       |  .             |    padding: "not_padded" (0b0) 0x2.6-0x2.6 (0.1)
0x00|      14                                       |  .             |    private: 0 0x2.7-0x2.7 (0.1)
0x00|         c4                                    |   .            |    channels: "mono" (0b11) 0x3-0x3.1 (0.2)
0x00|         c4                                    |   .            |    channel_mode: "none" (0b0) 0x3.2-0x3.3 (0.2)
0x00|         c4                                    |   .            |    copyright: 0 0x3.4-0x3.4 (0.1)
0x00|         c4                                    |   .            |    original: 1 0x3.5-0x3.5 (0.1)
0x00|         c4                                    |   .            |    emphasis: "none" (0b0) 0x3.6-0x3.7 (0.2)
    |                                               |                |  side_info{}: 0x4-0x14.7 (17)
0x00|            00 00                              |    ..          |    main_data_begin: 0 0x4-0x5 (1.1)
0x00|               00                              |     .          |    share: 0 0x5.1-0x5.5 (0.5)
0x00|               00 04                           |     ..         |    scfsi0: 0 0x5.6-0x6.1 (0.4)
    |                                               |                |    granules[0:2]: 0x6.2-0x14.7 (14.6)
    |                                               |                |      [0][0:1]: granule 0x6.2-0xd.4 (7.3)
    |                                               |                |        [0]{}: channel 0x6.2-0xd.4 (7.3)
0x00|                  04 14                        |      ..        |          part2_3_length: 261 0x6.2-0x7.5 (1.4)
0x00|                     14 2f                     |       ./       |          big_values: 23 0x7.6-0x8.6 (1.1)
0x00|                        2f 3a                  |        /:      |          global_gain: 157 0x8.7-0x9.6 (1)
0x00|                           3a 15               |         :.     |          scalefac_compress: 0 0x9.7-0xa.2 (0.4)
0x00|                              15               |          .     |          blocksplit_flag: 1 0xa.3-0xa.3 (0.1)
0x00|                              15               |          .     |          block_type: "start block" (1) 0xa.4-0xa.5 (0.2)
0x00|                              15               |          .     |          switch_point: 0 0xa.6-0xa.6 (0.1)
0x00|                              15 81            |          ..    |          table_select0: 24 0xa.7-0xb.3 (0.5)
0x00|                                 81 80         |           ..   |          table_select1: 3 0xb.4-0xc (0.5)
0x00|                                    80         |            .   |          subblock_gain0: 0 0xc.1-0xc.3 (0.3)
0x00|                                    80         |            .   |          subblock_gain1: 0 0xc.4-0xc.6 (0.3)
0x00|                                    80 08      |            ..  |          subblock_gain2: 0 0xc.7-0xd.1 (0.3)
0x00|                                       08      |             .  |          preflag: 0 0xd.2-0xd.2 (0.1)
0x00|                                       08      |             .  |          scalefac_scale: 0 0xd.3-0xd.3 (0.1)
0x00|                                       08      |             .  |          count1table_select: 1 0xd.4-0xd.4 (0.1)
    |                                               |                |      [1][0:1]: granule 0xd.5-0x14.7 (7.3)
    |                                               |                |        [0]{}: channel 0xd.5-0x14.7 (7.3)
0x00|                                       08 96 8a|             ...|          part2_3_length: 301 0xd.5-0xf (1.4)
0x00|                                             8a|               .|          big_values: 40 0xf.1-0x10.1 (1.1)
0x10|2d                                             |-               |
0x10|2d 13                                          |-.              |          global_gain: 180 0x10.2-0x11.1 (1)
0x10|   13                                          | .              |          scalefac_compress: 4 0x11.2-0x11.5 (0.4)
0x10|   13                                          | .              |          blocksplit_flag: 1 0x11.6-0x11.6 (0.1)
0x10|   13 1e                                       | ..             |          block_type: "3 short windows" (2) 0x11.7-0x12 (0.2)
0x10|      1e                                       |  .             |          switch_point: 0 0x12.1-0x12.1 (0.1)
0x10|      1e                                       |  .             |          table_select0: 15 0x12.2-0x12.6 (0.5)
0x10|      1e 90                                    |  ..            |          table_select1: 9 0x12.7-0x13.3 (0.5)
0x10|         90                                    |   .            |          subblock_gain0: 0 0x13.4-0x13.6 (0.3)
0x10|         90 00                                 |   ..           |          subblock_gain1: 0 0x13.7-0x14.1 (0.3)
0x10|            00                                 |    .           |          subblock_gain2: 0 0x14.2-0x14.4 (0.3)
0x10|            00                                 |    .           |          preflag: 0 0x14.5-0x14.5 (0.1)
0x10|            00                                 |    .           |          scalefac_scale: 0 0x14.6-0x14.6 (0.1)
0x10|            00                                 |    .           |          count1table_select: 0 0x14.7-0x14.7 (0.1)
0x10|               31 8c 0c 34 7f 7d 8b 70 64 51 b1|     1..4.}.pdQ.|  audio_data: raw bits 0x15-0x5f.7 (75)
0x20|86 a2 17 41 d7 95 bb 6e 5b ff 0f c6 e9 ed a2 20|...A...n[...... |
*   |until 0x5f.7 (end) (75)                        |                |
    |                                               |                |  crc_calculated: "19b9" (raw bits) 0x60-NA (0)
