$ fq -d mp3_frame dv mp3-frame-128000br-2ch-8000hz
     |00 01 02 03 04 05 06 07 08 09 0a 0b 0c 0d 0e 0f|0123456789abcdef|.{}: mp3-frame-128000br-2ch-8000hz (mp3_frame) 0x0-0x23f.7 (576)
     |                                               |                |  header{}: 0x0-0x3.7 (4)
0x000|ff e3                                          |..              |    sync: 0b11111111111 (valid) 0x0-0x1.2 (1.3)
0x000|   e3                                          | .              |    mpeg_version: "2.5" (0) (MPEG Version 2.5) 0x1.3-0x1.4 (0.2)
0x000|   e3                                          | .              |    layer: 3 (1) (MPEG Layer 3) 0x1.5-0x1.6 (0.2)
     |                                               |                |    sample_count: 576 0x1.7-NA (0)
0x000|   e3                                          | .              |    protection_absent: true (No CRC) 0x1.7-0x1.7 (0.1)
0x000|      88                                       |  .             |    bitrate: 64000 (8) 0x2-0x2.3 (0.4)
0x000|      88                                       |  .             |    sample_rate: 8000 (2) 0x2.4-0x2.5 (0.2)
0x000|      88                                       |  .             |    padding: "not_padded" (0b0) 0x2.6-0x2.6 (0.1)
0x000|      88                                       |  .             |    private: 0 0x2.7-0x2.7 (0.1)
0x000|         64                                    |   d            |    channels: "joint_stereo" (0b1) 0x3-0x3.1 (0.2)
0x000|         64                                    |   d            |    channel_mode: "ms_stereo" (0b10) 0x3.2-0x3.3 (0.2)
0x000|         64                                    |   d            |    copyright: 0 0x3.4-0x3.4 (0.1)
0x000|         64                                    |   d            |    original: 1 0x3.5-0x3.5 (0.1)
0x000|         64                                    |   d            |    emphasis: "none" (0b0) 0x3.6-0x3.7 (0.2)
     |                                               |                |  side_info{}: 0x4-0x14.7 (17)
0x000|            00                                 |    .           |    main_data_begin: 0 0x4-0x4.7 (1)
0x000|               26                              |     &          |    private_bits: 0 0x5-0x5.1 (0.2)
     |                                               |                |    granules[0:1]: 0x5.2-0x14.7 (15.6)
     |                                               |                |      [0][0:2]: granule 0x5.2-0x14.7 (15.6)
     |                                               |                |        [0]{}: channel 0x5.2-0xd (7.7)
0x000|               26 76                           |     &v         |          part2_3_length: 2461 0x5.2-0x6.5 (1.4)
0x000|                  76 37                        |      v7        |          big_values: 283 0x6.6-0x7.6 (1.1)
0x000|                     37 2a                     |       7*       |          global_gain: 149 0x7.7-0x8.6 (1)
0x000|                        2a 01                  |        *.      |          scalefac_compress: 1 0x8.7-0x9.7 (1.1)
0x000|                              63               |          c     |          blocksplit_flag: 0 0xa-0xa (0.1)
0x000|                              63               |          c     |          table_select0: 24 0xa.1-0xa.5 (0.5)
0x000|                              63 6c            |          cl    |          table_select1: 27 0xa.6-0xb.2 (0.5)
0x000|                                 6c            |           l    |          table_select2: 12 0xb.3-0xb.7 (0.5)
0x000|                                    38         |            8   |          region_address1: 3 0xc-0xc.3 (0.4)
0x000|                                    38         |            8   |          region_address2: 4 0xc.4-0xc.6 (0.3)
0x000|                                    38         |            8   |          scalefac_scale: 0 0xc.7-0xc.7 (0.1)
0x000|                                       00      |             .  |          count1table_select: 0 0xd-0xd (0.1)
     |                                               |                |        [1]{}: channel 0xd.1-0x14.7 (7.7)
0x000|                                       00 00   |             .. |          part2_3_length: 0 0xd.1-0xe.4 (1.4)
0x000|                                          00 03|              ..|          big_values: 0 0xe.5-0xf.5 (1.1)
0x000|                                             03|               .|          global_gain: 210 0xf.6-0x10.5 (1)
0x010|48                                             |H               |
0x010|48 00                                          |H.              |          scalefac_compress: 0 0x10.6-0x11.6 (1.1)
0x010|   00                                          | .              |          blocksplit_flag: 0 0x11.7-0x11.7 (0.1)
0x010|      00                                       |  .             |          table_select0: 0 0x12-0x12.4 (0.5)
0x010|      00 00                                    |  ..            |          table_select1: 0 0x12.5-0x13.1 (0.5)
0x010|         00                                    |   .            |          table_select2: 0 0x13.2-0x13.6 (0.5)
0x010|         00 00                                 |   ..           |          region_address1: 0 0x13.7-0x14.2 (0.4)
0x010|            00                                 |    .           |          region_address2: 0 0x14.3-0x14.5 (0.3)
0x010|            00                                 |    .           |          scalefac_scale: 0 0x14.6-0x14.6 (0.1)
0x010|            00                                 |    .           |          count1table_select: 0 0x14.7-0x14.7 (0.1)
0x010|               81 94 28 6e ef b2 b2 eb 98 46 63|     ..(n.....Fc|  audio_data: raw bits 0x15-0x23f.7 (555)
0x020|09 76 db 7a ef 01 6e 0c 44 33 08 b7 8f 65 b6 90|.v.z..n.D3...e..|
*    |until 0x23f.7 (end) (555)                      |                |
     |                                               |                |  crc_calculated: "eae8" (raw bits) 0x240-NA (0)
