$ fq -d mp3_frame dv mp3-frame-128000br-2ch-44100hz
     |00 01 02 03 04 05 06 07 08 09 0a 0b 0c 0d 0e 0f|0123456789abcdef|.{}: mp3-frame-128000br-2ch-44100hz (mp3_frame) 0x0-0x1a2 (418)
     |                                               |                |  header{}: 0x0-0x4 (4)
0x000|ff fb                                          |..              |    sync: 0b11111111111 (valid) 0x0-0x1.3 (1.3)
0x000|   fb                                          | .              |    mpeg_version: "1" (3) (MPEG Version 1) 0x1.3-0x1.5 (0.2)
0x000|   fb                                          | .              |    layer: 3 (1) (MPEG Layer 3) 0x1.5-0x1.7 (0.2)
     |                                               |                |    sample_count: 1152
0x000|   fb                                          | .              |    protection_absent: true (No CRC) 0x1.7-0x2 (0.1)
0x000|      92                                       |  .             |    bitrate: 128000 (9) 0x2-0x2.4 (0.4)
0x000|      92                                       |  .             |    sample_rate: 44100 (0) 0x2.4-0x2.6 (0.2)
0x000|      92                                       |  .             |    padding: "padded" (0b1) 0x2.6-0x2.7 (0.1)
0x000|      92                                       |  .             |    private: 0 0x2.7-0x3 (0.1)
0x000|         64                                    |   d            |    channels: "joint_stereo" (0b1) 0x3-0x3.2 (0.2)
0x000|         64                                    |   d            |    channel_mode: "ms_stereo" (0b10) 0x3.2-0x3.4 (0.2)
0x000|         64                                    |   d            |    copyright: 0 0x3.4-0x3.5 (0.1)
0x000|         64                                    |   d            |    original: 1 0x3.5-0x3.6 (0.1)
0x000|         64                                    |   d            |    emphasis: "none" (0b0) 0x3.6-0x4 (0.2)
     |                                               |                |  side_info{}: 0x4-0x24 (32)
0x000|            3e 08                              |    >.          |    main_data_begin: 124 0x4-0x5.1 (1.1)
0x000|               08                              |     .          |    share: 0 0x5.1-0x5.4 (0.3)
0x000|               08                              |     .          |    scfsi0: 8 0x5.4-0x6 (0.4)
0x000|                  f3                           |      .         |    scfsi1: 15 0x6-0x6.4 (0.4)
     |                                               |                |    granules[0:2]: 0x6.4-0x24 (29.4)
     |                                               |                |      [0][0:2]: granule 0x6.4-0x15.2 (14.6)
     |                                               |                |        [0]{}: channel 0x6.4-0xd.7 (7.3)
0x000|                  f3 7c                        |      .|        |          part2_3_length: 892 0x6.4-0x8 (1.4)
0x000|                        15 44                  |        .D      |          big_values: 42 0x8-0x9.1 (1.1)
0x000|                           44 37               |         D7     |          global_gain: 136 0x9.1-0xa.1 (1)
0x000|                              37               |          7     |          scalefac_compress: 6 0xa.1-0xa.5 (0.4)
0x000|                              37               |          7     |          blocksplit_flag: 1 0xa.5-0xa.6 (0.1)
0x000|                              37               |          7     |          block_type: "end" (3) 0xa.6-0xb (0.2)
0x000|                                 7c            |           |    |          switch_point: 0 0xb-0xb.1 (0.1)
0x000|                                 7c            |           |    |          table_select0: 31 0xb.1-0xb.6 (0.5)
0x000|                                 7c 40         |           |@   |          table_select1: 2 0xb.6-0xc.3 (0.5)
0x000|                                    40         |            @   |          subblock_gain0: 0 0xc.3-0xc.6 (0.3)
0x000|                                    40 00      |            @.  |          subblock_gain1: 0 0xc.6-0xd.1 (0.3)
0x000|                                       00      |             .  |          subblock_gain2: 0 0xd.1-0xd.4 (0.3)
0x000|                                       00      |             .  |          preflag: 0 0xd.4-0xd.5 (0.1)
0x000|                                       00      |             .  |          scalefac_scale: 0 0xd.5-0xd.6 (0.1)
0x000|                                       00      |             .  |          count1table_select: 0 0xd.6-0xd.7 (0.1)
     |                                               |                |        [1]{}: channel 0xd.7-0x15.2 (7.3)
0x000|                                       00 00 00|             ...|          part2_3_length: 0 0xd.7-0xf.3 (1.4)
0x000|                                             00|               .|          big_values: 0 0xf.3-0x10.4 (1.1)
0x010|0d                                             |.               |
0x010|0d 20                                          |.               |          global_gain: 210 0x10.4-0x11.4 (1)
0x010|   20                                          |                |          scalefac_compress: 0 0x11.4-0x12 (0.4)
0x010|      e0                                       |  .             |          blocksplit_flag: 1 0x12-0x12.1 (0.1)
0x010|      e0                                       |  .             |          block_type: "end" (3) 0x12.1-0x12.3 (0.2)
0x010|      e0                                       |  .             |          switch_point: 0 0x12.3-0x12.4 (0.1)
0x010|      e0 00                                    |  ..            |          table_select0: 0 0x12.4-0x13.1 (0.5)
0x010|         00                                    |   .            |          table_select1: 0 0x13.1-0x13.6 (0.5)
0x010|         00 01                                 |   ..           |          subblock_gain0: 0 0x13.6-0x14.1 (0.3)
0x010|            01                                 |    .           |          subblock_gain1: 0 0x14.1-0x14.4 (0.3)
0x010|            01                                 |    .           |          subblock_gain2: 0 0x14.4-0x14.7 (0.3)
0x010|            01                                 |    .           |          preflag: 1 0x14.7-0x15 (0.1)
0x010|               0e                              |     .          |          scalefac_scale: 0 0x15-0x15.1 (0.1)
0x010|               0e                              |     .          |          count1table_select: 0 0x15.1-0x15.2 (0.1)
     |                                               |                |      [1][0:2]: granule 0x15.2-0x24 (14.6)
     |                                               |                |        [0]{}: channel 0x15.2-0x1c.5 (7.3)
0x010|               0e ec                           |     ..         |          part2_3_length: 955 0x15.2-0x16.6 (1.4)
0x010|                  ec 55                        |      .U        |          big_values: 42 0x16.6-0x17.7 (1.1)
0x010|                     55 0c                     |       U.       |          global_gain: 134 0x17.7-0x18.7 (1)
0x010|                        0c 2f                  |        ./      |          scalefac_compress: 1 0x18.7-0x19.3 (0.4)
0x010|                           2f                  |         /      |          blocksplit_flag: 0 0x19.3-0x19.4 (0.1)
0x010|                           2f ec               |         /.     |          table_select0: 31 0x19.4-0x1a.1 (0.5)
0x010|                              ec               |          .     |          table_select1: 27 0x1a.1-0x1a.6 (0.5)
0x010|                              ec 66            |          .f    |          table_select2: 3 0x1a.6-0x1b.3 (0.5)
0x010|                                 66            |           f    |          region_address1: 3 0x1b.3-0x1b.7 (0.4)
0x010|                                 66 c8         |           f.   |          region_address2: 3 0x1b.7-0x1c.2 (0.3)
0x010|                                    c8         |            .   |          preflag: 0 0x1c.2-0x1c.3 (0.1)
0x010|                                    c8         |            .   |          scalefac_scale: 0 0x1c.3-0x1c.4 (0.1)
0x010|                                    c8         |            .   |          count1table_select: 1 0x1c.4-0x1c.5 (0.1)
     |                                               |                |        [1]{}: channel 0x1c.5-0x24 (7.3)
0x010|                                    c8 00 00   |            ... |          part2_3_length: 0 0x1c.5-0x1e.1 (1.4)
0x010|                                          00 34|              .4|          big_values: 0 0x1e.1-0x1f.2 (1.1)
0x010|                                             34|               4|          global_gain: 210 0x1f.2-0x20.2 (1)
0x020|80                                             |.               |
0x020|80                                             |.               |          scalefac_compress: 0 0x20.2-0x20.6 (0.4)
0x020|80                                             |.               |          blocksplit_flag: 0 0x20.6-0x20.7 (0.1)
0x020|80 00                                          |..              |          table_select0: 0 0x20.7-0x21.4 (0.5)
0x020|   00 00                                       | ..             |          table_select1: 0 0x21.4-0x22.1 (0.5)
0x020|      00                                       |  .             |          table_select2: 0 0x22.1-0x22.6 (0.5)
0x020|      00 04                                    |  ..            |          region_address1: 0 0x22.6-0x23.2 (0.4)
0x020|         04                                    |   .            |          region_address2: 0 0x23.2-0x23.5 (0.3)
0x020|         04                                    |   .            |          preflag: 1 0x23.5-0x23.6 (0.1)
0x020|         04                                    |   .            |          scalefac_scale: 0 0x23.6-0x23.7 (0.1)
0x020|         04                                    |   .            |          count1table_select: 0 0x23.7-0x24 (0.1)
0x020|            e4 c0 d6 04 28 c2 05 0d 44 cd 82 67|    ....(...D..g|  audio_data: raw bits 0x24-0x1a2 (382)
0x030|2c cd 31 0d 4c c2 0e 04 a0 fb f0 4d ee 24 db 9e|,.1.L......M.$..|
*    |until 0x1a1.7 (end) (382)                      |                |
     |                                               |                |  crc_calculated: "af8c" (raw bits)
