$ fq -d mp3_frame dv mp3-frame-320000br-1ch-44100hz
     |00 01 02 03 04 05 06 07 08 09 0a 0b 0c 0d 0e 0f|0123456789abcdef|.{}: mp3-frame-320000br-1ch-44100hz (mp3_frame) 0x0-0x415 (1045)
     |                                               |                |  header{}: 0x0-0x4 (4)
0x000|ff fb                                          |..              |    sync: 0b11111111111 (valid) 0x0-0x1.3 (1.3)
0x000|   fb                                          | .              |    mpeg_version: "1" (3) (MPEG Version 1) 0x1.3-0x1.5 (0.2)
0x000|   fb                                          | .              |    layer: 3 (1) (MPEG Layer 3) 0x1.5-0x1.7 (0.2)
     |                                               |                |    sample_count: 1152
0x000|   fb                                          | .              |    protection_absent: true (No CRC) 0x1.7-0x2 (0.1)
0x000|      e2                                       |  .             |    bitrate: 320000 (14) 0x2-0x2.4 (0.4)
0x000|      e2                                       |  .             |    sample_rate: 44100 (0) 0x2.4-0x2.6 (0.2)
0x000|      e2                                       |  .             |    padding: "padded" (0b1) 0x2.6-0x2.7 (0.1)
0x000|      e2                                       |  .             |    private: 0 0x2.7-0x3 (0.1)
0x000|         c4                                    |   .            |    channels: "mono" (0b11) 0x3-0x3.2 (0.2)
0x000|         c4                                    |   .            |    channel_mode: "none" (0b0) 0x3.2-0x3.4 (0.2)
0x000|         c4                                    |   .            |    copyright: 0 0x3.4-0x3.5 (0.1)
0x000|         c4                                    |   .            |    original: 1 0x3.5-0x3.6 (0.1)
0x000|         c4                                    |   .            |    emphasis: "none" (0b0) 0x3.6-0x4 (0.2)
     |                                               |                |  side_info{}: 0x4-0x15 (17)
0x000|            00 03                              |    ..          |    main_data_begin: 0 0x4-0x5.1 (1.1)
0x000|               03                              |     .          |    share: 0 0x5.1-0x5.6 (0.5)
0x000|               03 54                           |     .T         |    scfsi0: 13 0x5.6-0x6.2 (0.4)
     |                                               |                |    granules[0:2]: 0x6.2-0x15 (14.6)
     |                                               |                |      [0][0:1]: granule 0x6.2-0xd.5 (7.3)
     |                                               |                |        [0]{}: channel 0x6.2-0xd.5 (7.3)
0x000|                  54 9a                        |      T.        |          part2_3_length: 1318 0x6.2-0x7.6 (1.4)
0x000|                     9a 09                     |       ..       |          big_values: 260 0x7.6-0x8.7 (1.1)
0x000|                        09 02                  |        ..      |          global_gain: 129 0x8.7-0x9.7 (1)
0x000|                           02 1d               |         ..     |          scalefac_compress: 0 0x9.7-0xa.3 (0.4)
0x000|                              1d               |          .     |          blocksplit_flag: 1 0xa.3-0xa.4 (0.1)
0x000|                              1d               |          .     |          block_type: "end" (3) 0xa.4-0xa.6 (0.2)
0x000|                              1d               |          .     |          switch_point: 0 0xa.6-0xa.7 (0.1)
0x000|                              1d f2            |          ..    |          table_select0: 31 0xa.7-0xb.4 (0.5)
0x000|                                 f2 80         |           ..   |          table_select1: 5 0xb.4-0xc.1 (0.5)
0x000|                                    80         |            .   |          subblock_gain0: 0 0xc.1-0xc.4 (0.3)
0x000|                                    80         |            .   |          subblock_gain1: 0 0xc.4-0xc.7 (0.3)
0x000|                                    80 02      |            ..  |          subblock_gain2: 0 0xc.7-0xd.2 (0.3)
0x000|                                       02      |             .  |          preflag: 0 0xd.2-0xd.3 (0.1)
0x000|                                       02      |             .  |          scalefac_scale: 0 0xd.3-0xd.4 (0.1)
0x000|                                       02      |             .  |          count1table_select: 0 0xd.4-0xd.5 (0.1)
     |                                               |                |      [1][0:1]: granule 0xd.5-0x15 (7.3)
     |                                               |                |        [0]{}: channel 0xd.5-0x15 (7.3)
0x000|                                       02 9a be|             ...|          part2_3_length: 1333 0xd.5-0xf.1 (1.4)
0x000|                                             be|               .|          big_values: 248 0xf.1-0x10.2 (1.1)
0x010|20                                             |                |
0x010|20 49                                          | I              |          global_gain: 129 0x10.2-0x11.2 (1)
0x010|   49                                          | I              |          scalefac_compress: 2 0x11.2-0x11.6 (0.4)
0x010|   49                                          | I              |          blocksplit_flag: 0 0x11.6-0x11.7 (0.1)
0x010|   49 fe                                       | I.             |          table_select0: 31 0x11.7-0x12.4 (0.5)
0x010|      fe 20                                    |  .             |          table_select1: 28 0x12.4-0x13.1 (0.5)
0x010|         20                                    |                |          table_select2: 8 0x13.1-0x13.6 (0.5)
0x010|         20 d9                                 |    .           |          region_address1: 3 0x13.6-0x14.2 (0.4)
0x010|            d9                                 |    .           |          region_address2: 3 0x14.2-0x14.5 (0.3)
0x010|            d9                                 |    .           |          preflag: 0 0x14.5-0x14.6 (0.1)
0x010|            d9                                 |    .           |          scalefac_scale: 0 0x14.6-0x14.7 (0.1)
0x010|            d9                                 |    .           |          count1table_select: 1 0x14.7-0x15 (0.1)
0x010|               30 1d 80 c5 30 1f 80 c5 30 70 82|     0...0...0p.|  audio_data: raw bits 0x15-0x415 (1024)
0x020|0b 30 15 81 c8 30 39 42 74 37 68 f8 fd 35 d4 8d|.0...09Bt7h..5..|
*    |until 0x414.7 (end) (1024)                     |                |
     |                                               |                |  crc_calculated: "0d7e" (raw bits)
