$ fq -d mp3_frame dv mp3-frame-128000br-1ch-44100hz
     |00 01 02 03 04 05 06 07 08 09 0a 0b 0c 0d 0e 0f|0123456789abcdef|.{}: mp3-frame-128000br-1ch-44100hz (mp3_frame) 0x0-0x1a0.7 (417)
     |                                               |                |  header{}: 0x0-0x3.7 (4)
0x000|ff fb                                          |..              |    sync: 0b11111111111 (valid) 0x0-0x1.2 (1.3)
0x000|   fb                                          | .              |    mpeg_version: "1" (3) (MPEG Version 1) 0x1.3-0x1.4 (0.2)
0x000|   fb                                          | .              |    layer: 3 (1) (MPEG Layer 3) 0x1.5-0x1.6 (0.2)
     |                                               |                |    sample_count: 1152 0x1.7-NA (0)
0x000|   fb                                          | .              |    protection_absent: true (No CRC) 0x1.7-0x1.7 (0.1)
0x000|      90                                       |  .             |    bitrate: 128000 (9) 0x2-0x2.3 (0.4)
0x000|      90                                       |  .             |    sample_rate: 44100 (0) 0x2.4-0x2.5 (0.2)
0x000|      90                                       |  .             |    padding: "not_padded" (0b0) 0x2.6-0x2.6 (0.1)
0x000|      90                                       |  .             |    private: 0 0x2.7-0x2.7 (0.1)
0x000|         c4                                    |   .            |    channels: "mono" (0b11) 0x3-0x3.1 (0.2)
0x000|         c4                                    |   .            |    channel_mode: "none" (0b0) 0x3.2-0x3.3 (0.2)
0x000|         c4                                    |   .            |    copyright: 0 0x3.4-0x3.4 (0.1)
0x000|         c4                                    |   .            |    original: 1 0x3.5-0x3.5 (0.1)
0x000|         c4                                    |   .            |    emphasis: "none" (0b0) 0x3.6-0x3.7 (0.2)
     |                                               |                |  side_info{}: 0x4-0x14.7 (17)
0x000|            00 00                              |    ..          |    main_data_begin: 0 0x4-0x5 (1.1)
0x000|               00                              |     .          |    share: 0 0x5.1-0x5.5 (0.5)
0x000|               00 14                           |     ..         |    scfsi0: 0 0x5.6-0x6.1 (0.4)
     |                                               |                |    granules[0:2]: 0x6.2-0x14.7 (14.6)
     |                                               |                |      [0][0:1]: granule 0x6.2-0xd.4 (7.3)
     |                                               |                |        [0]{}: channel 0x6.2-0xd.4 (7.3)
0x000|                  14 54                        |      .T        |          part2_3_length: 1301 0x6.2-0x7.5 (1.4)
0x000|                     54 95                     |       T.       |          big_values: 74 0x7.6-0x8.6 (1.1)
0x000|                        95 20                  |        .       |          global_gain: 144 0x8.7-0x9.6 (1)
0x000|                           20 55               |          U     |          scalefac_compress: 2 0x9.7-0xa.2 (0.4)
0x000|                              55               |          U     |          blocksplit_flag: 1 0xa.3-0xa.3 (0.1)
0x000|                              55               |          U     |          block_type: "start block" (1) 0xa.4-0xa.5 (0.2)
0x000|                              55               |          U     |          switch_point: 0 0xa.6-0xa.6 (0.1)
0x000|                              55 b7            |          U.    |          table_select0: 27 0xa.7-0xb.3 (0.5)
0x000|                                 b7 80         |           ..   |          table_select1: 15 0xb.4-0xc (0.5)
0x000|                                    80         |            .   |          subblock_gain0: 0 0xc.1-0xc.3 (0.3)
0x000|                                    80         |            .   |          subblock_gain1: 0 0xc.4-0xc.6 (0.3)
0x000|                                    80 0b      |            ..  |          subblock_gain2: 0 0xc.7-0xd.1 (0.3)
0x000|                                       0b      |             .  |          preflag: 0 0xd.2-0xd.2 (0.1)
0x000|                                       0b      |             .  |          scalefac_scale: 0 0xd.3-0xd.3 (0.1)
0x000|                                       0b      |             .  |          count1table_select: 1 0xd.4-0xd.4 (0.1)
     |                                               |                |      [1][0:1]: granule 0xd.5-0x14.7 (7.3)
     |                                               |                |        [0]{}: channel 0xd.5-0x14.7 (7.3)
0x000|                                       0b 4f b3|             .O.|          part2_3_length: 1695 0xd.5-0xf (1.4)
0x000|                                             b3|               .|          big_values: 204 0xf.1-0x10.1 (1.1)
0x010|2e                                             |.               |
0x010|2e 37                                          |.7              |          global_gain: 184 0x10.2-0x11.1 (1)
0x010|   37                                          | 7              |          scalefac_compress: 13 0x11.2-0x11.5 (0.4)
0x010|   37                                          | 7              |          blocksplit_flag: 1 0x11.6-0x11.6 (0.1)
0x010|   37 33                                       | 73             |          block_type: "3 short windows" (2) 0x11.7-0x12 (0.2)
0x010|      33                                       |  3             |          switch_point: 0 0x12.1-0x12.1 (0.1)
0x010|      33                                       |  3             |          table_select0: 25 0x12.2-0x12.6 (0.5)
0x010|      33 82                                    |  3.            |          table_select1: 24 0x12.7-0x13.3 (0.5)
0x010|         82                                    |   .            |          subblock_gain0: 1 0x13.4-0x13.6 (0.3)
0x010|         82 0a                                 |   ..           |          subblock_gain1: 0 0x13.7-0x14.1 (0.3)
0x010|            0a                                 |    .           |          subblock_gain2: 1 0x14.2-0x14.4 (0.3)
0x010|            0a                                 |    .           |          preflag: 0 0x14.5-0x14.5 (0.1)
0x010|            0a                                 |    .           |          scalefac_scale: 1 0x14.6-0x14.6 (0.1)
0x010|            0a                                 |    .           |          count1table_select: 0 0x14.7-0x14.7 (0.1)
0x010|               05 90 13 83 81 37 d7 53 67 51 05|     .....7.SgQ.|  audio_data: raw bits 0x15-0x1a0.7 (396)
0x020|31 98 f2 b1 c1 52 1d d6 11 dd 52 1c 02 61 9d 8a|1....R....R..a..|
*    |until 0x1a0.7 (end) (396)                      |                |
     |                                               |                |  crc_calculated: "2b28" (raw bits) 0x1a1-NA (0)
