$ fq -d mp3_frame dv mp3-frame-8000br-1ch-8000hz
    |00 01 02 03 04 05 06 07 08 09 0a 0b 0c 0d 0e 0f|0123456789abcdef|.{}: mp3-frame-8000br-1ch-8000hz (mp3_frame) 0x0-0x47.7 (72)
    |                                               |                |  header{}: 0x0-0x3.7 (4)
0x00|ff e3                                          |..              |    sync: 0b11111111111 (valid) 0x0-0x1.2 (1.3)
0x00|   e3                                          | .              |    mpeg_version: "2.5" (0) (MPEG Version 2.5) 0x1.3-0x1.4 (0.2)
0x00|   e3                                          | .              |    layer: 3 (1) (MPEG Layer 3) 0x1.5-0x1.6 (0.2)
    |                                               |                |    sample_count: 576
0x00|   e3                                          | .              |    protection_absent: true (No CRC) 0x1.7-0x1.7 (0.1)
0x00|      18                                       |  .             |    bitrate: 8000 (1) 0x2-0x2.3 (0.4)
0x00|      18                                       |  .             |    sample_rate: 8000 (2) 0x2.4-0x2.5 (0.2)
0x00|      18                                       |  .             |    padding: "not_padded" (0b0) 0x2.6-0x2.6 (0.1)
0x00|      18                                       |  .             |    private: 0 0x2.7-0x2.7 (0.1)
0x00|         c4                                    |   .            |    channels: "mono" (0b11) 0x3-0x3.1 (0.2)
0x00|         c4                                    |   .            |    channel_mode: "none" (0b0) 0x3.2-0x3.3 (0.2)
0x00|         c4                                    |   .            |    copyright: 0 0x3.4-0x3.4 (0.1)
0x00|         c4                                    |   .            |    original: 1 0x3.5-0x3.5 (0.1)
0x00|         c4                                    |   .            |    emphasis: "none" (0b0) 0x3.6-0x3.7 (0.2)
    |                                               |                |  side_info{}: 0x4-0xc.7 (9)
0x00|            06                                 |    .           |    main_data_begin: 6 0x4-0x4.7 (1)
0x00|               0e                              |     .          |    private_bits: 0 0x5-0x5 (0.1)
    |                                               |                |    granules[0:1]: 0x5.1-0xc.7 (7.7)
    |                                               |                |      [0][0:1]: granule 0x5.1-0xc.7 (7.7)
    |                                               |                |        [0]{}: channel 0x5.1-0xc.7 (7.7)
0x00|               0e 70                           |     .p         |          part2_3_length: 462 0x5.1-0x6.4 (1.4)
0x00|                  70 f2                        |      p.        |          big_values: 60 0x6.5-0x7.5 (1.1)
0x00|                     f2 94                     |       ..       |          global_gain: 165 0x7.6-0x8.5 (1)
0x00|                        94 01                  |        ..      |          scalefac_compress: 0 0x8.6-0x9.6 (1.1)
0x00|                           01                  |         .      |          blocksplit_flag: 1 0x9.7-0x9.7 (0.1)
0x00|                              94               |          .     |          block_type: "3 short windows" (2) 0xa-0xa.1 (0.2)
0x00|                              94               |          .     |          switch_point: 0 0xa.2-0xa.2 (0.1)
0x00|                              94               |          .     |          table_select0: 20 0xa.3-0xa.7 (0.5)
0x00|                                 50            |           P    |          table_select1: 10 0xb-0xb.4 (0.5)
0x00|                                 50            |           P    |          subblock_gain0: 0 0xb.5-0xb.7 (0.3)
0x00|                                    00         |            .   |          subblock_gain1: 0 0xc-0xc.2 (0.3)
0x00|                                    00         |            .   |          subblock_gain2: 0 0xc.3-0xc.5 (0.3)
0x00|                                    00         |            .   |          scalefac_scale: 0 0xc.6-0xc.6 (0.1)
0x00|                                    00         |            .   |          count1table_select: 0 0xc.7-0xc.7 (0.1)
0x00|                                       e3 9a 2b|             ..+|  audio_data: raw bits 0xd-0x47.7 (59)
0x10|51 ca 10 b7 f8 59 e1 1c 81 de 30 06 3c 24 9c 03|Q....Y....0.<$..|
*   |until 0x47.7 (end) (59)                        |                |
    |                                               |                |  crc_calculated: "57e4" (raw bits)
