$ fq -d mp3_frame dv mp3-frame-8000br-2ch-48000hz
    |00 01 02 03 04 05 06 07 08 09 0a 0b 0c 0d 0e 0f|0123456789abcdef|.{}: mp3-frame-8000br-2ch-48000hz (mp3_frame) 0x0-0x60 (96)
    |                                               |                |  header{}: 0x0-0x4 (4)
0x00|ff fb                                          |..              |    sync: 0b11111111111 (valid) 0x0-0x1.3 (1.3)
0x00|   fb                                          | .              |    mpeg_version: "1" (3) (MPEG Version 1) 0x1.3-0x1.5 (0.2)
0x00|   fb                                          | .              |    layer: 3 (1) (MPEG Layer 3) 0x1.5-0x1.7 (0.2)
    |                                               |                |    sample_count: 1152
0x00|   fb                                          | .              |    protection_absent: true (No CRC) 0x1.7-0x2 (0.1)
0x00|      14                                       |  .             |    bitrate: 32000 (1) 0x2-0x2.4 (0.4)
0x00|      14                                       |  .             |    sample_rate: 48000 (1) 0x2.4-0x2.6 (0.2)
0x00|      14                                       |  .             |    padding: "not_padded" (0b0) 0x2.6-0x2.7 (0.1)
0x00|      14                                       |  .             |    private: 0 0x2.7-0x3 (0.1)
0x00|         64                                    |   d            |    channels: "joint_stereo" (0b1) 0x3-0x3.2 (0.2)
0x00|         64                                    |   d            |    channel_mode: "ms_stereo" (0b10) 0x3.2-0x3.4 (0.2)
0x00|         64                                    |   d            |    copyright: 0 0x3.4-0x3.5 (0.1)
0x00|         64                                    |   d            |    original: 1 0x3.5-0x3.6 (0.1)
0x00|         64                                    |   d            |    emphasis: "none" (0b0) 0x3.6-0x4 (0.2)
    |                                               |                |  side_info{}: 0x4-0x24 (32)
0x00|            08 03                              |    ..          |    main_data_begin: 16 0x4-0x5.1 (1.1)
0x00|               03                              |     .          |    share: 0 0x5.1-0x5.4 (0.3)
0x00|               03                              |     .          |    scfsi0: 3 0x5.4-0x6 (0.4)
0x00|                  f0                           |      .         |    scfsi1: 15 0x6-0x6.4 (0.4)
    |                                               |                |    granules[0:2]: 0x6.4-0x24 (29.4)
    |                                               |                |      [0][0:2]: granule 0x6.4-0x15.2 (14.6)
    |                                               |                |        [0]{}: channel 0x6.4-0xd.7 (7.3)
0x00|                  f0 72                        |      .r        |          part2_3_length: 114 0x6.4-0x8 (1.4)
0x00|                        04 d9                  |        ..      |          big_values: 9 0x8-0x9.1 (1.1)
0x00|                           d9 27               |         .'     |          global_gain: 178 0x9.1-0xa.1 (1)
0x00|                              27               |          '     |          scalefac_compress: 4 0xa.1-0xa.5 (0.4)
0x00|                              27               |          '     |          blocksplit_flag: 1 0xa.5-0xa.6 (0.1)
0x00|                              27               |          '     |          block_type: "end" (3) 0xa.6-0xb (0.2)
0x00|                                 3c            |           <    |          switch_point: 0 0xb-0xb.1 (0.1)
0x00|                                 3c            |           <    |          table_select0: 15 0xb.1-0xb.6 (0.5)
0x00|                                 3c 00         |           <.   |          table_select1: 0 0xb.6-0xc.3 (0.5)
0x00|                                    00         |            .   |          subblock_gain0: 0 0xc.3-0xc.6 (0.3)
0x00|                                    00 0a      |            ..  |          subblock_gain1: 0 0xc.6-0xd.1 (0.3)
0x00|                                       0a      |             .  |          subblock_gain2: 0 0xd.1-0xd.4 (0.3)
0x00|                                       0a      |             .  |          preflag: 1 0xd.4-0xd.5 (0.1)
0x00|                                       0a      |             .  |          scalefac_scale: 0 0xd.5-0xd.6 (0.1)
0x00|                                       0a      |             .  |          count1table_select: 1 0xd.6-0xd.7 (0.1)
    |                                               |                |        [1]{}: channel 0xd.7-0x15.2 (7.3)
0x00|                                       0a 00 00|             ...|          part2_3_length: 0 0xd.7-0xf.3 (1.4)
0x00|                                             00|               .|          big_values: 0 0xf.3-0x10.4 (1.1)
0x10|0d                                             |.               |
0x10|0d 20                                          |.               |          global_gain: 210 0x10.4-0x11.4 (1)
0x10|   20                                          |                |          scalefac_compress: 0 0x11.4-0x12 (0.4)
0x10|      e0                                       |  .             |          blocksplit_flag: 1 0x12-0x12.1 (0.1)
0x10|      e0                                       |  .             |          block_type: "end" (3) 0x12.1-0x12.3 (0.2)
0x10|      e0                                       |  .             |          switch_point: 0 0x12.3-0x12.4 (0.1)
0x10|      e0 00                                    |  ..            |          table_select0: 0 0x12.4-0x13.1 (0.5)
0x10|         00                                    |   .            |          table_select1: 0 0x13.1-0x13.6 (0.5)
0x10|         00 01                                 |   ..           |          subblock_gain0: 0 0x13.6-0x14.1 (0.3)
0x10|            01                                 |    .           |          subblock_gain1: 0 0x14.1-0x14.4 (0.3)
0x10|            01                                 |    .           |          subblock_gain2: 0 0x14.4-0x14.7 (0.3)
0x10|            01                                 |    .           |          preflag: 1 0x14.7-0x15 (0.1)
0x10|               01                              |     .          |          scalefac_scale: 0 0x15-0x15.1 (0.1)
0x10|               01                              |     .          |          count1table_select: 0 0x15.1-0x15.2 (0.1)
    |                                               |                |      [1][0:2]: granule 0x15.2-0x24 (14.6)
    |                                               |                |        [0]{}: channel 0x15.2-0x1c.5 (7.3)
0x10|               01 bc                           |     ..         |          part2_3_length: 111 0x15.2-0x16.6 (1.4)
0x10|                  bc 13                        |      ..        |          big_values: 9 0x16.6-0x17.7 (1.1)
0x10|                     13 44                     |       .D       |          global_gain: 162 0x17.7-0x18.7 (1)
0x10|                        44 01                  |        D.      |          scalefac_compress: 0 0x18.7-0x19.3 (0.4)
0x10|                           01                  |         .      |          blocksplit_flag: 0 0x19.3-0x19.4 (0.1)
0x10|                           01 ef               |         ..     |          table_select0: 3 0x19.4-0x1a.1 (0.5)
0x10|                              ef               |          .     |          table_select1: 27 0x1a.1-0x1a.6 (0.5)
0x10|                              ef 00            |          ..    |          table_select2: 24 0x1a.6-0x1b.3 (0.5)
0x10|                                 00            |           .    |          region_address1: 0 0x1b.3-0x1b.7 (0.4)
0x10|                                 00 68         |           .h   |          region_address2: 1 0x1b.7-0x1c.2 (0.3)
0x10|                                    68         |            h   |          preflag: 1 0x1c.2-0x1c.3 (0.1)
0x10|                                    68         |            h   |          scalefac_scale: 0 0x1c.3-0x1c.4 (0.1)
0x10|                                    68         |            h   |          count1table_select: 1 0x1c.4-0x1c.5 (0.1)
    |                                               |                |        [1]{}: channel 0x1c.5-0x24 (7.3)
0x10|                                    68 00 00   |            h.. |          part2_3_length: 0 0x1c.5-0x1e.1 (1.4)
0x10|                                          00 34|              .4|          big_values: 0 0x1e.1-0x1f.2 (1.1)
0x10|                                             34|               4|          global_gain: 210 0x1f.2-0x20.2 (1)
0x20|80                                             |.               |
0x20|80                                             |.               |          scalefac_compress: 0 0x20.2-0x20.6 (0.4)
0x20|80                                             |.               |          blocksplit_flag: 0 0x20.6-0x20.7 (0.1)
0x20|80 00                                          |..              |          table_select0: 0 0x20.7-0x21.4 (0.5)
0x20|   00 00                                       | ..             |          table_select1: 0 0x21.4-0x22.1 (0.5)
0x20|      00                                       |  .             |          table_select2: 0 0x22.1-0x22.6 (0.5)
0x20|      00 04                                    |  ..            |          region_address1: 0 0x22.6-0x23.2 (0.4)
0x20|         04                                    |   .            |          region_address2: 0 0x23.2-0x23.5 (0.3)
0x20|         04                                    |   .            |          preflag: 1 0x23.5-0x23.6 (0.1)
0x20|         04                                    |   .            |          scalefac_scale: 0 0x23.6-0x23.7 (0.1)
0x20|         04                                    |   .            |          count1table_select: 0 0x23.7-0x24 (0.1)
0x20|            b5 de 00 07 9e 60 d0 f1 61 56 08 84|    .....`..aV..|  audio_data: raw bits 0x24-0x60 (60)
0x30|2a b4 ab c5 58 e4 03 4d 6d 68 44 c0 10 59 0e d8|*...X..MmhD..Y..|
*   |until 0x5f.7 (end) (60)                        |                |
    |                                               |                |  crc_calculated: "75cc" (raw bits)
