$ fq -d mp3_frame dv mp3-frame-8000br-2ch-8000hz
    |00 01 02 03 04 05 06 07 08 09 0a 0b 0c 0d 0e 0f|0123456789abcdef|.{}: mp3-frame-8000br-2ch-8000hz (mp3_frame) 0x0-0x47.7 (72)
    |                                               |                |  header{}: 0x0-0x3.7 (4)
0x00|ff e3                                          |..              |    sync: 0b11111111111 (valid) 0x0-0x1.2 (1.3)
0x00|   e3                                          | .              |    mpeg_version: "2.5" (0) (MPEG Version 2.5) 0x1.3-0x1.4 (0.2)
0x00|   e3                                          | .              |    layer: 3 (1) (MPEG Layer 3) 0x1.5-0x1.6 (0.2)
    |                                               |                |    sample_count: 576
0x00|   e3                                          | .              |    protection_absent: true (No CRC) 0x1.7-0x1.7 (0.1)
0x00|      18                                       |  .             |    bitrate: 8000 (1) 0x2-0x2.3 (0.4)
0x00|      18                                       |  .             |    sample_rate: 8000 (2) 0x2.4-0x2.5 (0.2)
0x00|      18                                       |  .             |    padding: "not_padded" (0b0) 0x2.6-0x2.6 (0.1)
0x00|      18                                       |  .             |    private: 0 0x2.7-0x2.7 (0.1)
0x00|         64                                    |   d            |    channels: "joint_stereo" (0b1) 0x3-0x3.1 (0.2)
0x00|         64                                    |   d            |    channel_mode: "ms_stereo" (0b10) 0x3.2-0x3.3 (0.2)
0x00|         64                                    |   d            |    copyright: 0 0x3.4-0x3.4 (0.1)
0x00|         64                                    |   d            |    original: 1 0x3.5-0x3.5 (0.1)
0x00|         64                                    |   d            |    emphasis: "none" (0b0) 0x3.6-0x3.7 (0.2)
    |                                               |                |  side_info{}: 0x4-0x14.7 (17)
0x00|            16                                 |    .           |    main_data_begin: 22 0x4-0x4.7 (1)
0x00|               06                              |     .          |    private_bits: 0 0x5-0x5.1 (0.2)
    |                                               |                |    granules[0:1]: 0x5.2-0x14.7 (15.6)
    |                                               |                |      [0][0:2]: granule 0x5.2-0x14.7 (15.6)
    |                                               |                |        [0]{}: channel 0x5.2-0xd (7.7)
0x00|               06 34                           |     .4         |          part2_3_length: 397 0x5.2-0x6.5 (1.4)
0x00|                  34 73                        |      4s        |          big_values: 57 0x6.6-0x7.6 (1.1)
0x00|                     73 52                     |       sR       |          global_gain: 169 0x7.7-0x8.6 (1)
0x00|                        52 10                  |        R.      |          scalefac_compress: 16 0x8.7-0x9.7 (1.1)
0x00|                              ca               |          .     |          blocksplit_flag: 1 0xa-0xa (0.1)
0x00|                              ca               |          .     |          block_type: "3 short windows" (2) 0xa.1-0xa.2 (0.2)
0x00|                              ca               |          .     |          switch_point: 0 0xa.3-0xa.3 (0.1)
0x00|                              ca 14            |          ..    |          table_select0: 20 0xa.4-0xb (0.5)
0x00|                                 14            |           .    |          table_select1: 5 0xb.1-0xb.5 (0.5)
0x00|                                 14 00         |           ..   |          subblock_gain0: 0 0xb.6-0xc (0.3)
0x00|                                    00         |            .   |          subblock_gain1: 0 0xc.1-0xc.3 (0.3)
0x00|                                    00         |            .   |          subblock_gain2: 0 0xc.4-0xc.6 (0.3)
0x00|                                    00         |            .   |          scalefac_scale: 0 0xc.7-0xc.7 (0.1)
0x00|                                       00      |             .  |          count1table_select: 0 0xd-0xd (0.1)
    |                                               |                |        [1]{}: channel 0xd.1-0x14.7 (7.7)
0x00|                                       00 00   |             .. |          part2_3_length: 0 0xd.1-0xe.4 (1.4)
0x00|                                          00 03|              ..|          big_values: 0 0xe.5-0xf.5 (1.1)
0x00|                                             03|               .|          global_gain: 210 0xf.6-0x10.5 (1)
0x10|48                                             |H               |
0x10|48 01                                          |H.              |          scalefac_compress: 0 0x10.6-0x11.6 (1.1)
0x10|   01                                          | .              |          blocksplit_flag: 1 0x11.7-0x11.7 (0.1)
0x10|      80                                       |  .             |          block_type: "3 short windows" (2) 0x12-0x12.1 (0.2)
0x10|      80                                       |  .             |          switch_point: 0 0x12.2-0x12.2 (0.1)
0x10|      80                                       |  .             |          table_select0: 0 0x12.3-0x12.7 (0.5)
0x10|         00                                    |   .            |          table_select1: 0 0x13-0x13.4 (0.5)
0x10|         00                                    |   .            |          subblock_gain0: 0 0x13.5-0x13.7 (0.3)
0x10|            00                                 |    .           |          subblock_gain1: 0 0x14-0x14.2 (0.3)
0x10|            00                                 |    .           |          subblock_gain2: 0 0x14.3-0x14.5 (0.3)
0x10|            00                                 |    .           |          scalefac_scale: 0 0x14.6-0x14.6 (0.1)
0x10|            00                                 |    .           |          count1table_select: 0 0x14.7-0x14.7 (0.1)
0x10|               00 56 86 84 a6 06 90 e8 ef 01 40|     .V........@|  audio_data: raw bits 0x15-0x47.7 (51)
0x20|10 04 48 3c 1e ff f2 8a 88 88 82 a7 7f 95 11 1e|..H<............|
*   |until 0x47.7 (end) (51)                        |                |
    |                                               |                |  crc_calculated: "d852" (raw bits)
