# mp3 frame where standard frame size calc had to use used (bitrate*144000)/sample_rate_lsp_adjusted + padding
$ fq -d mp3_frame dv mp3-frame_size_calc
     |00 01 02 03 04 05 06 07 08 09 0a 0b 0c 0d 0e 0f|0123456789abcdef|.{}: mp3-frame_size_calc (mp3_frame) 0x0-0x1f8 (504)
     |                                               |                |  header{}: 0x0-0x4 (4)
0x000|ff fb                                          |..              |    sync: 0b11111111111 (valid) 0x0-0x1.3 (1.3)
0x000|   fb                                          | .              |    mpeg_version: "1" (3) (MPEG Version 1) 0x1.3-0x1.5 (0.2)
0x000|   fb                                          | .              |    layer: 3 (1) (MPEG Layer 3) 0x1.5-0x1.7 (0.2)
     |                                               |                |    sample_count: 1152
0x000|   fb                                          | .              |    protection_absent: true (No CRC) 0x1.7-0x2 (0.1)
0x000|      88                                       |  .             |    bitrate: 112000 (8) 0x2-0x2.4 (0.4)
0x000|      88                                       |  .             |    sample_rate: 32000 (2) 0x2.4-0x2.6 (0.2)
0x000|      88                                       |  .             |    padding: "not_padded" (0b0) 0x2.6-0x2.7 (0.1)
0x000|      88                                       |  .             |    private: 0 0x2.7-0x3 (0.1)
0x000|         64                                    |   d            |    channels: "joint_stereo" (0b1) 0x3-0x3.2 (0.2)
0x000|         64                                    |   d            |    channel_mode: "ms_stereo" (0b10) 0x3.2-0x3.4 (0.2)
0x000|         64                                    |   d            |    copyright: 0 0x3.4-0x3.5 (0.1)
0x000|         64                                    |   d            |    original: 1 0x3.5-0x3.6 (0.1)
0x000|         64                                    |   d            |    emphasis: "none" (0b0) 0x3.6-0x4 (0.2)
     |                                               |                |  side_info{}: 0x4-0x24 (32)
0x000|            00 07                              |    ..          |    main_data_begin: 0 0x4-0x5.1 (1.1)
0x000|               07                              |     .          |    share: 0 0x5.1-0x5.4 (0.3)
0x000|               07                              |     .          |    scfsi0: 7 0x5.4-0x6 (0.4)
0x000|                  f0                           |      .         |    scfsi1: 15 0x6-0x6.4 (0.4)
     |                                               |                |    granules[0:2]: 0x6.4-0x24 (29.4)
     |                                               |                |      [0][0:2]: granule 0x6.4-0x15.2 (14.6)
     |                                               |                |        [0]{}: channel 0x6.4-0xd.7 (7.3)
0x000|                  f0 00                        |      ..        |          part2_3_length: 0 0x6.4-0x8 (1.4)
0x000|                        00 7f                  |        ..      |          big_values: 0 0x8-0x9.1 (1.1)
0x000|                           7f 80               |         ..     |          global_gain: 255 0x9.1-0xa.1 (1)
0x000|                              80               |          .     |          scalefac_compress: 0 0xa.1-0xa.5 (0.4)
0x000|                              80               |          .     |          blocksplit_flag: 0 0xa.5-0xa.6 (0.1)
0x000|                              80 00            |          ..    |          table_select0: 0 0xa.6-0xb.3 (0.5)
0x000|                                 00            |           .    |          table_select1: 0 0xb.3-0xc (0.5)
0x000|                                    00         |            .   |          table_select2: 0 0xc-0xc.5 (0.5)
0x000|                                    00 08      |            ..  |          region_address1: 0 0xc.5-0xd.1 (0.4)
0x000|                                       08      |             .  |          region_address2: 0 0xd.1-0xd.4 (0.3)
0x000|                                       08      |             .  |          preflag: 1 0xd.4-0xd.5 (0.1)
0x000|                                       08      |             .  |          scalefac_scale: 0 0xd.5-0xd.6 (0.1)
0x000|                                       08      |             .  |          count1table_select: 0 0xd.6-0xd.7 (0.1)
     |                                               |                |        [1]{}: channel 0xd.7-0x15.2 (7.3)
0x000|                                       08 00 00|             ...|          part2_3_length: 0 0xd.7-0xf.3 (1.4)
0x000|                                             00|               .|          big_values: 0 0xf.3-0x10.4 (1.1)
0x010|0d                                             |.               |
0x010|0d 20                                          |.               |          global_gain: 210 0x10.4-0x11.4 (1)
0x010|   20                                          |                |          scalefac_compress: 0 0x11.4-0x12 (0.4)
0x010|      00                                       |  .             |          blocksplit_flag: 0 0x12-0x12.1 (0.1)
0x010|      00                                       |  .             |          table_select0: 0 0x12.1-0x12.6 (0.5)
0x010|      00 00                                    |  ..            |          table_select1: 0 0x12.6-0x13.3 (0.5)
0x010|         00                                    |   .            |          table_select2: 0 0x13.3-0x14 (0.5)
0x010|            01                                 |    .           |          region_address1: 0 0x14-0x14.4 (0.4)
0x010|            01                                 |    .           |          region_address2: 0 0x14.4-0x14.7 (0.3)
0x010|            01                                 |    .           |          preflag: 1 0x14.7-0x15 (0.1)
0x010|               00                              |     .          |          scalefac_scale: 0 0x15-0x15.1 (0.1)
0x010|               00                              |     .          |          count1table_select: 0 0x15.1-0x15.2 (0.1)
     |                                               |                |      [1][0:2]: granule 0x15.2-0x24 (14.6)
     |                                               |                |        [0]{}: channel 0x15.2-0x1c.5 (7.3)
0x010|               00 44                           |     .D         |          part2_3_length: 17 0x15.2-0x16.6 (1.4)
0x010|                  44 01                        |      D.        |          big_values: 0 0x16.6-0x17.7 (1.1)
0x010|                     01 32                     |       .2       |          global_gain: 153 0x17.7-0x18.7 (1)
0x010|                        32 a0                  |        2.      |          scalefac_compress: 5 0x18.7-0x19.3 (0.4)
0x010|                           a0                  |         .      |          blocksplit_flag: 0 0x19.3-0x19.4 (0.1)
0x010|                           a0 00               |         ..     |          table_select0: 0 0x19.4-0x1a.1 (0.5)
0x010|                              00               |          .     |          table_select1: 0 0x1a.1-0x1a.6 (0.5)
0x010|                              00 00            |          ..    |          table_select2: 0 0x1a.6-0x1b.3 (0.5)
0x010|                                 00            |           .    |          region_address1: 0 0x1b.3-0x1b.7 (0.4)
0x010|                                 00 28         |           .(   |          region_address2: 0 0x1b.7-0x1c.2 (0.3)
0x010|                                    28         |            (   |          preflag: 1 0x1c.2-0x1c.3 (0.1)
0x010|                                    28         |            (   |          scalefac_scale: 0 0x1c.3-0x1c.4 (0.1)
0x010|                                    28         |            (   |          count1table_select: 1 0x1c.4-0x1c.5 (0.1)
     |                                               |                |        [1]{}: channel 0x1c.5-0x24 (7.3)
0x010|                                    28 00 00   |            (.. |          part2_3_length: 0 0x1c.5-0x1e.1 (1.4)
0x010|                                          00 34|              .4|          big_values: 0 0x1e.1-0x1f.2 (1.1)
0x010|                                             34|               4|          global_gain: 210 0x1f.2-0x20.2 (1)
0x020|80                                             |.               |
0x020|80                                             |.               |          scalefac_compress: 0 0x20.2-0x20.6 (0.4)
0x020|80                                             |.               |          blocksplit_flag: 0 0x20.6-0x20.7 (0.1)
0x020|80 00                                          |..              |          table_select0: 0 0x20.7-0x21.4 (0.5)
0x020|   00 00                                       | ..             |          table_select1: 0 0x21.4-0x22.1 (0.5)
0x020|      00                                       |  .             |          table_select2: 0 0x22.1-0x22.6 (0.5)
0x020|      00 04                                    |  ..            |          region_address1: 0 0x22.6-0x23.2 (0.4)
0x020|         04                                    |   .            |          region_address2: 0 0x23.2-0x23.5 (0.3)
0x020|         04                                    |   .            |          preflag: 1 0x23.5-0x23.6 (0.1)
0x020|         04                                    |   .            |          scalefac_scale: 0 0x23.6-0x23.7 (0.1)
0x020|         04                                    |   .            |          count1table_select: 0 0x23.7-0x24 (0.1)
0x020|            43 b9 aa 4c 41 4d 45 33 2e 31 30 30|    C..LAME3.100|  audio_data: raw bits 0x24-0x1f8 (468)
0x030|aa aa aa aa aa aa aa aa aa aa aa aa aa aa aa aa|................|
*    |until 0x1f7.7 (end) (468)                      |                |
     |                                               |                |  crc_calculated: "b14b" (raw bits)
