$ fq -d mp3_frame dv mp3-frame-128000br-2ch-48000hz
     |00 01 02 03 04 05 06 07 08 09 0a 0b 0c 0d 0e 0f|0123456789abcdef|.{}: mp3-frame-128000br-2ch-48000hz (mp3_frame) 0x0-0x17f.7 (384)
     |                                               |                |  header{}: 0x0-0x3.7 (4)
0x000|ff fb                                          |..              |    sync: 0b11111111111 (valid) 0x0-0x1.2 (1.3)
0x000|   fb                                          | .              |    mpeg_version: "1" (3) (MPEG Version 1) 0x1.3-0x1.4 (0.2)
0x000|   fb                                          | .              |    layer: 3 (1) (MPEG Layer 3) 0x1.5-0x1.6 (0.2)
     |                                               |                |    sample_count: 1152 0x1.7-NA (0)
0x000|   fb                                          | .              |    protection_absent: true (No CRC) 0x1.7-0x1.7 (0.1)
0x000|      94                                       |  .             |    bitrate: 128000 (9) 0x2-0x2.3 (0.4)
0x000|      94                                       |  .             |    sample_rate: 48000 (1) 0x2.4-0x2.5 (0.2)
0x000|      94                                       |  .             |    padding: "not_padded" (0b0) 0x2.6-0x2.6 (0.1)
0x000|      94                                       |  .             |    private: 0 0x2.7-0x2.7 (0.1)
0x000|         64                                    |   d            |    channels: "joint_stereo" (0b1) 0x3-0x3.1 (0.2)
0x000|         64                                    |   d            |    channel_mode: "ms_stereo" (0b10) 0x3.2-0x3.3 (0.2)
0x000|         64                                    |   d            |    copyright: 0 0x3.4-0x3.4 (0.1)
0x000|         64                                    |   d            |    original: 1 0x3.5-0x3.5 (0.1)
0x000|         64                                    |   d            |    emphasis: "none" (0b0) 0x3.6-0x3.7 (0.2)
     |                                               |                |  side_info{}: 0x4-0x23.7 (32)
0x000|            36 8d                              |    6.          |    main_data_begin: 109 0x4-0x5 (1.1)
0x000|               8d                              |     .          |    share: 0 0x5.1-0x5.3 (0.3)
0x000|               8d                              |     .          |    scfsi0: 13 0x5.4-0x5.7 (0.4)
0x000|                  f3                           |      .         |    scfsi1: 15 0x6-0x6.3 (0.4)
     |                                               |                |    granules[0:2]: 0x6.4-0x23.7 (29.4)
     |                                               |                |      [0][0:2]: granule 0x6.4-0x15.1 (14.6)
     |                                               |                |        [0]{}: channel 0x6.4-0xd.6 (7.3)
0x000|                  f3 25                        |      .%        |          part2_3_length: 805 0x6.4-0x7.7 (1.4)
0x000|                        1e c4                  |        ..      |          big_values: 61 0x8-0x9 (1.1)
0x000|                           c4 97               |         ..     |          global_gain: 137 0x9.1-0xa (1)
0x000|                              97               |          .     |          scalefac_compress: 2 0xa.1-0xa.4 (0.4)
0x000|                              97               |          .     |          blocksplit_flag: 1 0xa.5-0xa.5 (0.1)
0x000|                              97               |          .     |          block_type: "end" (3) 0xa.6-0xa.7 (0.2)
0x000|                                 78            |           x    |          switch_point: 0 0xb-0xb (0.1)
0x000|                                 78            |           x    |          table_select0: 30 0xb.1-0xb.5 (0.5)
0x000|                                 78 40         |           x@   |          table_select1: 2 0xb.6-0xc.2 (0.5)
0x000|                                    40         |            @   |          subblock_gain0: 0 0xc.3-0xc.5 (0.3)
0x000|                                    40 00      |            @.  |          subblock_gain1: 0 0xc.6-0xd (0.3)
0x000|                                       00      |             .  |          subblock_gain2: 0 0xd.1-0xd.3 (0.3)
0x000|                                       00      |             .  |          preflag: 0 0xd.4-0xd.4 (0.1)
0x000|                                       00      |             .  |          scalefac_scale: 0 0xd.5-0xd.5 (0.1)
0x000|                                       00      |             .  |          count1table_select: 0 0xd.6-0xd.6 (0.1)
     |                                               |                |        [1]{}: channel 0xd.7-0x15.1 (7.3)
0x000|                                       00 00 00|             ...|          part2_3_length: 0 0xd.7-0xf.2 (1.4)
0x000|                                             00|               .|          big_values: 0 0xf.3-0x10.3 (1.1)
0x010|0d                                             |.               |
0x010|0d 20                                          |.               |          global_gain: 210 0x10.4-0x11.3 (1)
0x010|   20                                          |                |          scalefac_compress: 0 0x11.4-0x11.7 (0.4)
0x010|      e0                                       |  .             |          blocksplit_flag: 1 0x12-0x12 (0.1)
0x010|      e0                                       |  .             |          block_type: "end" (3) 0x12.1-0x12.2 (0.2)
0x010|      e0                                       |  .             |          switch_point: 0 0x12.3-0x12.3 (0.1)
0x010|      e0 00                                    |  ..            |          table_select0: 0 0x12.4-0x13 (0.5)
0x010|         00                                    |   .            |          table_select1: 0 0x13.1-0x13.5 (0.5)
0x010|         00 01                                 |   ..           |          subblock_gain0: 0 0x13.6-0x14 (0.3)
0x010|            01                                 |    .           |          subblock_gain1: 0 0x14.1-0x14.3 (0.3)
0x010|            01                                 |    .           |          subblock_gain2: 0 0x14.4-0x14.6 (0.3)
0x010|            01                                 |    .           |          preflag: 1 0x14.7-0x14.7 (0.1)
0x010|               0b                              |     .          |          scalefac_scale: 0 0x15-0x15 (0.1)
0x010|               0b                              |     .          |          count1table_select: 0 0x15.1-0x15.1 (0.1)
     |                                               |                |      [1][0:2]: granule 0x15.2-0x23.7 (14.6)
     |                                               |                |        [0]{}: channel 0x15.2-0x1c.4 (7.3)
0x010|               0b d8                           |     ..         |          part2_3_length: 758 0x15.2-0x16.5 (1.4)
0x010|                  d8 69                        |      .i        |          big_values: 52 0x16.6-0x17.6 (1.1)
0x010|                     69 12                     |       i.       |          global_gain: 137 0x17.7-0x18.6 (1)
0x010|                        12 4d                  |        .M      |          scalefac_compress: 2 0x18.7-0x19.2 (0.4)
0x010|                           4d                  |         M      |          blocksplit_flag: 0 0x19.3-0x19.3 (0.1)
0x010|                           4d fe               |         M.     |          table_select0: 27 0x19.4-0x1a (0.5)
0x010|                              fe               |          .     |          table_select1: 31 0x1a.1-0x1a.5 (0.5)
0x010|                              fe 82            |          ..    |          table_select2: 20 0x1a.6-0x1b.2 (0.5)
0x010|                                 82            |           .    |          region_address1: 1 0x1b.3-0x1b.6 (0.4)
0x010|                                 82 40         |           .@   |          region_address2: 1 0x1b.7-0x1c.1 (0.3)
0x010|                                    40         |            @   |          preflag: 0 0x1c.2-0x1c.2 (0.1)
0x010|                                    40         |            @   |          scalefac_scale: 0 0x1c.3-0x1c.3 (0.1)
0x010|                                    40         |            @   |          count1table_select: 0 0x1c.4-0x1c.4 (0.1)
     |                                               |                |        [1]{}: channel 0x1c.5-0x23.7 (7.3)
0x010|                                    40 00 00   |            @.. |          part2_3_length: 0 0x1c.5-0x1e (1.4)
0x010|                                          00 34|              .4|          big_values: 0 0x1e.1-0x1f.1 (1.1)
0x010|                                             34|               4|          global_gain: 210 0x1f.2-0x20.1 (1)
0x020|80                                             |.               |
0x020|80                                             |.               |          scalefac_compress: 0 0x20.2-0x20.5 (0.4)
0x020|80                                             |.               |          blocksplit_flag: 0 0x20.6-0x20.6 (0.1)
0x020|80 00                                          |..              |          table_select0: 0 0x20.7-0x21.3 (0.5)
0x020|   00 00                                       | ..             |          table_select1: 0 0x21.4-0x22 (0.5)
0x020|      00                                       |  .             |          table_select2: 0 0x22.1-0x22.5 (0.5)
0x020|      00 04                                    |  ..            |          region_address1: 0 0x22.6-0x23.1 (0.4)
0x020|         04                                    |   .            |          region_address2: 0 0x23.2-0x23.4 (0.3)
0x020|         04                                    |   .            |          preflag: 1 0x23.5-0x23.5 (0.1)
0x020|         04                                    |   .            |          scalefac_scale: 0 0x23.6-0x23.6 (0.1)
0x020|         04                                    |   .            |          count1table_select: 0 0x23.7-0x23.7 (0.1)
0x020|            67 cb 50 61 66 08 c6 6b c4 0b 34 61|    g.Paf..k..4a|  audio_data: raw bits 0x24-0x17f.7 (348)
0x030|8a 01 46 60 72 80 28 07 50 70 18 25 00 18 ac 0c|..F`r.(.Pp.%....|
*    |until 0x17f.7 (end) (348)                      |                |
     |                                               |                |  crc_calculated: "7eca" (raw bits) 0x180-NA (0)
