$ fq -d mp3_frame dv mp3-frame-8000br-1ch-44100hz
    |00 01 02 03 04 05 06 07 08 09 0a 0b 0c 0d 0e 0f|0123456789abcdef|.{}: mp3-frame-8000br-1ch-44100hz (mp3_frame) 0x0-0x69 (105)
    |                                               |                |  header{}: 0x0-0x4 (4)
0x00|ff fb                                          |..              |    sync: 0b11111111111 (valid) 0x0-0x1.3 (1.3)
0x00|   fb                                          | .              |    mpeg_version: "1" (3) (MPEG Version 1) 0x1.3-0x1.5 (0.2)
0x00|   fb                                          | .              |    layer: 3 (1) (MPEG Layer 3) 0x1.5-0x1.7 (0.2)
    |                                               |                |    sample_count: 1152
0x00|   fb                                          | .              |    protection_absent: true (No CRC) 0x1.7-0x2 (0.1)
0x00|      12                                       |  .             |    bitrate: 32000 (1) 0x2-0x2.4 (0.4)
0x00|      12                                       |  .             |    sample_rate: 44100 (0) 0x2.4-0x2.6 (0.2)
0x00|      12                                       |  .             |    padding: "padded" (0b1) 0x2.6-0x2.7 (0.1)
0x00|      12                                       |  .             |    private: 0 0x2.7-0x3 (0.1)
0x00|         c4                                    |   .            |    channels: "mono" (0b11) 0x3-0x3.2 (0.2)
0x00|         c4                                    |   .            |    channel_mode: "none" (0b0) 0x3.2-0x3.4 (0.2)
0x00|         c4                                    |   .            |    copyright: 0 0x3.4-0x3.5 (0.1)
0x00|         c4                                    |   .            |    original: 1 0x3.5-0x3.6 (0.1)
0x00|         c4                                    |   .            |    emphasis: "none" (0b0) 0x3.6-0x4 (0.2)
    |                                               |                |  side_info{}: 0x4-0x15 (17)
0x00|            02 03                              |    ..          |    main_data_begin: 4 0x4-0x5.1 (1.1)
0x00|               03                              |     .          |    share: 0 0x5.1-0x5.6 (0.5)
0x00|               03 c5                           |     ..         |    scfsi0: 15 0x5.6-0x6.2 (0.4)
    |                                               |                |    granules[0:2]: 0x6.2-0x15 (14.6)
    |                                               |                |      [0][0:1]: granule 0x6.2-0xd.5 (7.3)
    |                                               |                |        [0]{}: channel 0x6.2-0xd.5 (7.3)
0x00|                  c5 10                        |      ..        |          part2_3_length: 324 0x6.2-0x7.6 (1.4)
0x00|                     10 1d                     |       ..       |          big_values: 14 0x7.6-0x8.7 (1.1)
0x00|                        1d 22                  |        ."      |          global_gain: 145 0x8.7-0x9.7 (1)
0x00|                           22 1d               |         ".     |          scalefac_compress: 0 0x9.7-0xa.3 (0.4)
0x00|                              1d               |          .     |          blocksplit_flag: 1 0xa.3-0xa.4 (0.1)
0x00|                              1d               |          .     |          block_type: "end" (3) 0xa.4-0xa.6 (0.2)
0x00|                              1d               |          .     |          switch_point: 0 0xa.6-0xa.7 (0.1)
0x00|                              1d e0            |          ..    |          table_select0: 30 0xa.7-0xb.4 (0.5)
0x00|                                 e0 00         |           ..   |          table_select1: 0 0xb.4-0xc.1 (0.5)
0x00|                                    00         |            .   |          subblock_gain0: 0 0xc.1-0xc.4 (0.3)
0x00|                                    00         |            .   |          subblock_gain1: 0 0xc.4-0xc.7 (0.3)
0x00|                                    00 28      |            .(  |          subblock_gain2: 0 0xc.7-0xd.2 (0.3)
0x00|                                       28      |             (  |          preflag: 1 0xd.2-0xd.3 (0.1)
0x00|                                       28      |             (  |          scalefac_scale: 0 0xd.3-0xd.4 (0.1)
0x00|                                       28      |             (  |          count1table_select: 1 0xd.4-0xd.5 (0.1)
    |                                               |                |      [1][0:1]: granule 0xd.5-0x15 (7.3)
    |                                               |                |        [0]{}: channel 0xd.5-0x15 (7.3)
0x00|                                       28 a3 04|             (..|          part2_3_length: 326 0xd.5-0xf.1 (1.4)
0x00|                                             04|               .|          big_values: 16 0xf.1-0x10.2 (1.1)
0x10|22                                             |"               |
0x10|22 c1                                          |".              |          global_gain: 139 0x10.2-0x11.2 (1)
0x10|   c1                                          | .              |          scalefac_compress: 0 0x11.2-0x11.6 (0.4)
0x10|   c1                                          | .              |          blocksplit_flag: 0 0x11.6-0x11.7 (0.1)
0x10|   c1 af                                       | ..             |          table_select0: 26 0x11.7-0x12.4 (0.5)
0x10|      af 68                                    |  .h            |          table_select1: 30 0x12.4-0x13.1 (0.5)
0x10|         68                                    |   h            |          table_select2: 26 0x13.1-0x13.6 (0.5)
0x10|         68 48                                 |   hH           |          region_address1: 1 0x13.6-0x14.2 (0.4)
0x10|            48                                 |    H           |          region_address2: 1 0x14.2-0x14.5 (0.3)
0x10|            48                                 |    H           |          preflag: 0 0x14.5-0x14.6 (0.1)
0x10|            48                                 |    H           |          scalefac_scale: 0 0x14.6-0x14.7 (0.1)
0x10|            48                                 |    H           |          count1table_select: 0 0x14.7-0x15 (0.1)
0x10|               07 00 94 44 03 86 00 20 64 66 ee|     ...D... df.|  audio_data: raw bits 0x15-0x69 (84)
0x20|d8 26 56 83 1e 61 88 0e a6 0a 40 66 60 32 04 c6|.&V..a....@f`2..|
*   |until 0x68.7 (end) (84)                        |                |
    |                                               |                |  crc_calculated: "1a6f" (raw bits)
