$ fq -d mp3_frame dv mp3-frame-320000br-1ch-44100hz
     |00 01 02 03 04 05 06 07 08 09 0a 0b 0c 0d 0e 0f|0123456789abcdef|.{}: mp3-frame-320000br-1ch-44100hz (mp3_frame) 0x0-0x413.7 (1044)
     |                                               |                |  header{}: 0x0-0x3.7 (4)
0x000|ff fb                                          |..              |    sync: 0b11111111111 (valid) 0x0-0x1.2 (1.3)
0x000|   fb                                          | .              |    mpeg_version: "1" (3) (MPEG Version 1) 0x1.3-0x1.4 (0.2)
0x000|   fb                                          | .              |    layer: 3 (1) (MPEG Layer 3) 0x1.5-0x1.6 (0.2)
     |                                               |                |    sample_count: 1152 0x1.7-NA (0)
0x000|   fb                                          | .              |    protection_absent: true (No CRC) 0x1.7-0x1.7 (0.1)
0x000|      e0                                       |  .             |    bitrate: 320000 (14) 0x2-0x2.3 (0.4)
0x000|      e0                                       |  .             |    sample_rate: 44100 (0) 0x2.4-0x2.5 (0.2)
0x000|      e0                                       |  .             |    padding: "not_padded" (0b0) 0x2.6-0x2.6 (0.1)
0x000|      e0                                       |  .             |    private: 0 0x2.7-0x2.7 (0.1)
0x000|         c4                                    |   .            |    channels: "mono" (0b11) 0x3-0x3.1 (0.2)
0x000|         c4                                    |   .            |    channel_mode: "none" (0b0) 0x3.2-0x3.3 (0.2)
0x000|         c4                                    |   .            |    copyright: 0 0x3.4-0x3.4 (0.1)
0x000|         c4                                    |   .            |    original: 1 0x3.5-0x3.5 (0.1)
0x000|         c4                                    |   .            |    emphasis: "none" (0b0) 0x3.6-0x3.7 (0.2)
     |                                               |                |  side_info{}: 0x4-0x14.7 (17)
0x000|            00 00                              |    ..          |    main_data_begin: 0 0x4-0x5 (1.1)
0x000|               00                              |     .          |    share: 0 0x5.1-0x5.5 (0.5)
0x000|               00 33                           |     .3         |    scfsi0: 0 0x5.6-0x6.1 (0.4)
     |                                               |                |    granules[0:2]: 0x6.2-0x14.7 (14.6)
     |                                               |                |      [0][0:1]: granule 0x6.2-0xd.4 (7.3)
     |                                               |                |        [0]{}: channel 0x6.2-0xd.4 (7.3)
0x000|                  33 7a                        |      3z        |          part2_3_length: 3294 0x6.2-0x7.5 (1.4)
0x000|                     7a 0b                     |       z.       |          big_values: 261 0x7.6-0x8.6 (1.1)
0x000|                        0b 06                  |        ..      |          global_gain: 131 0x8.7-0x9.6 (1)
0x000|                           06 75               |         .u     |          scalefac_compress: 3 0x9.7-0xa.2 (0.4)
0x000|                              75               |          u     |          blocksplit_flag: 1 0xa.3-0xa.3 (0.1)
0x000|                              75               |          u     |          block_type: "start block" (1) 0xa.4-0xa.5 (0.2)
0x000|                              75               |          u     |          switch_point: 0 0xa.6-0xa.6 (0.1)
0x000|                              75 ed            |          u.    |          table_select0: 30 0xa.7-0xb.3 (0.5)
0x000|                                 ed 00         |           ..   |          table_select1: 26 0xb.4-0xc (0.5)
0x000|                                    00         |            .   |          subblock_gain0: 0 0xc.1-0xc.3 (0.3)
0x000|                                    00         |            .   |          subblock_gain1: 0 0xc.4-0xc.6 (0.3)
0x000|                                    00 0f      |            ..  |          subblock_gain2: 0 0xc.7-0xd.1 (0.3)
0x000|                                       0f      |             .  |          preflag: 0 0xd.2-0xd.2 (0.1)
0x000|                                       0f      |             .  |          scalefac_scale: 0 0xd.3-0xd.3 (0.1)
0x000|                                       0f      |             .  |          count1table_select: 1 0xd.4-0xd.4 (0.1)
     |                                               |                |      [1][0:1]: granule 0xd.5-0x14.7 (7.3)
     |                                               |                |        [0]{}: channel 0xd.5-0x14.7 (7.3)
0x000|                                       0f c5 c5|             ...|          part2_3_length: 3979 0xd.5-0xf (1.4)
0x000|                                             c5|               .|          big_values: 279 0xf.1-0x10.1 (1.1)
0x010|e3                                             |.               |
0x010|e3 03                                          |..              |          global_gain: 140 0x10.2-0x11.1 (1)
0x010|   03                                          | .              |          scalefac_compress: 0 0x11.2-0x11.5 (0.4)
0x010|   03                                          | .              |          blocksplit_flag: 1 0x11.6-0x11.6 (0.1)
0x010|   03 3d                                       | .=             |          block_type: "3 short windows" (2) 0x11.7-0x12 (0.2)
0x010|      3d                                       |  =             |          switch_point: 0 0x12.1-0x12.1 (0.1)
0x010|      3d                                       |  =             |          table_select0: 30 0x12.2-0x12.6 (0.5)
0x010|      3d b0                                    |  =.            |          table_select1: 27 0x12.7-0x13.3 (0.5)
0x010|         b0                                    |   .            |          subblock_gain0: 0 0x13.4-0x13.6 (0.3)
0x010|         b0 00                                 |   ..           |          subblock_gain1: 0 0x13.7-0x14.1 (0.3)
0x010|            00                                 |    .           |          subblock_gain2: 0 0x14.2-0x14.4 (0.3)
0x010|            00                                 |    .           |          preflag: 0 0x14.5-0x14.5 (0.1)
0x010|            00                                 |    .           |          scalefac_scale: 0 0x14.6-0x14.6 (0.1)
0x010|            00                                 |    .           |          count1table_select: 0 0x14.7-0x14.7 (0.1)
0x010|               01 46 db 6c cd 9c d7 4c d1 cc 6c|     .F.l...L..l|  audio_data: raw bits 0x15-0x413.7 (1023)
0x020|cb 34 94 cc 65 41 9c c4 e0 9b 0c da 10 a0 d2 91|.4..eA..........|
*    |until 0x413.7 (end) (1023)                     |                |
     |                                               |                |  crc_calculated: "8629" (raw bits) 0x414-NA (0)
