# ffmpeg -f lavfi -i sine -t 10ms -f wav pipe:1 | lame - - | fq - '.frames[1] | tobits' > mp3-frame-mono-crc
$ fq -d mp3_frame dv mp3-frame-mono-crc
    |00 01 02 03 04 05 06 07 08 09 0a 0b 0c 0d 0e 0f|0123456789abcdef|.{}: mp3-frame-mono-crc (mp3_frame) 0x0-0xd1 (209)
    |                                               |                |  header{}: 0x0-0x6 (6)
0x00|ff fa                                          |..              |    sync: 0b11111111111 (valid) 0x0-0x1.3 (1.3)
0x00|   fa                                          | .              |    mpeg_version: "1" (3) (MPEG Version 1) 0x1.3-0x1.5 (0.2)
0x00|   fa                                          | .              |    layer: 3 (1) (MPEG Layer 3) 0x1.5-0x1.7 (0.2)
    |                                               |                |    sample_count: 1152
0x00|   fa                                          | .              |    protection_absent: false (Has CRC) 0x1.7-0x2 (0.1)
0x00|      52                                       |  R             |    bitrate: 64000 (5) 0x2-0x2.4 (0.4)
0x00|      52                                       |  R             |    sample_rate: 44100 (0) 0x2.4-0x2.6 (0.2)
0x00|      52                                       |  R             |    padding: "padded" (0b1) 0x2.6-0x2.7 (0.1)
0x00|      52                                       |  R             |    private: 0 0x2.7-0x3 (0.1)
0x00|         c4                                    |   .            |    channels: "mono" (0b11) 0x3-0x3.2 (0.2)
0x00|         c4                                    |   .            |    channel_mode: "none" (0b0) 0x3.2-0x3.4 (0.2)
0x00|         c4                                    |   .            |    copyright: 0 0x3.4-0x3.5 (0.1)
0x00|         c4                                    |   .            |    original: 1 0x3.5-0x3.6 (0.1)
0x00|         c4                                    |   .            |    emphasis: "none" (0b0) 0x3.6-0x4 (0.2)
0x00|            2c b9                              |    ,.          |    crc: 0x2cb9 (valid) 0x4-0x6 (2)
    |                                               |                |  side_info{}: 0x6-0x17 (17)
0x00|                  07 83                        |      ..        |    main_data_begin: 15 0x6-0x7.1 (1.1)
0x00|                     83                        |       .        |    share: 0 0x7.1-0x7.6 (0.5)
0x00|                     83 c9                     |       ..       |    scfsi0: 15 0x7.6-0x8.2 (0.4)
    |                                               |                |    granules[0:2]: 0x8.2-0x17 (14.6)
    |                                               |                |      [0][0:1]: granule 0x8.2-0xf.5 (7.3)
    |                                               |                |        [0]{}: channel 0x8.2-0xf.5 (7.3)
0x00|                        c9 14                  |        ..      |          part2_3_length: 581 0x8.2-0x9.6 (1.4)
0x00|                           14 39               |         .9     |          big_values: 28 0x9.6-0xa.7 (1.1)
0x00|                              39 29            |          9)    |          global_gain: 148 0xa.7-0xb.7 (1)
0x00|                                 29 3c         |           )<   |          scalefac_compress: 9 0xb.7-0xc.3 (0.4)
0x00|                                    3c         |            <   |          blocksplit_flag: 1 0xc.3-0xc.4 (0.1)
0x00|                                    3c         |            <   |          block_type: "end" (3) 0xc.4-0xc.6 (0.2)
0x00|                                    3c         |            <   |          switch_point: 0 0xc.6-0xc.7 (0.1)
0x00|                                    3c c3      |            <.  |          table_select0: 12 0xc.7-0xd.4 (0.5)
0x00|                                       c3 00   |             .. |          table_select1: 6 0xd.4-0xe.1 (0.5)
0x00|                                          00   |              . |          subblock_gain0: 0 0xe.1-0xe.4 (0.3)
0x00|                                          00   |              . |          subblock_gain1: 0 0xe.4-0xe.7 (0.3)
0x00|                                          00 00|              ..|          subblock_gain2: 0 0xe.7-0xf.2 (0.3)
0x00|                                             00|               .|          preflag: 0 0xf.2-0xf.3 (0.1)
0x00|                                             00|               .|          scalefac_scale: 0 0xf.3-0xf.4 (0.1)
0x00|                                             00|               .|          count1table_select: 0 0xf.4-0xf.5 (0.1)
    |                                               |                |      [1][0:1]: granule 0xf.5-0x17 (7.3)
    |                                               |                |        [0]{}: channel 0xf.5-0x17 (7.3)
0x00|                                             00|               .|          part2_3_length: 0 0xf.5-0x11.1 (1.4)
0x10|00 00                                          |..              |
0x10|   00 34                                       | .4             |          big_values: 0 0x11.1-0x12.2 (1.1)
0x10|      34 80                                    |  4.            |          global_gain: 210 0x12.2-0x13.2 (1)
0x10|         80                                    |   .            |          scalefac_compress: 0 0x13.2-0x13.6 (0.4)
0x10|         80                                    |   .            |          blocksplit_flag: 0 0x13.6-0x13.7 (0.1)
0x10|         80 00                                 |   ..           |          table_select0: 0 0x13.7-0x14.4 (0.5)
0x10|            00 00                              |    ..          |          table_select1: 0 0x14.4-0x15.1 (0.5)
0x10|               00                              |     .          |          table_select2: 0 0x15.1-0x15.6 (0.5)
0x10|               00 04                           |     ..         |          region_address1: 0 0x15.6-0x16.2 (0.4)
0x10|                  04                           |      .         |          region_address2: 0 0x16.2-0x16.5 (0.3)
0x10|                  04                           |      .         |          preflag: 1 0x16.5-0x16.6 (0.1)
0x10|                  04                           |      .         |          scalefac_scale: 0 0x16.6-0x16.7 (0.1)
0x10|                  04                           |      .         |          count1table_select: 0 0x16.7-0x17 (0.1)
0x10|                     58 c9 20 d4 29 52 98 c8 c8|       X. .)R...|  audio_data: raw bits 0x17-0xd1 (186)
0x20|f9 13 80 40 24 bc 91 23 42 50 56 0d 18 11 03 41|...@$..#BPV....A|
*   |until 0xd0.7 (end) (186)                       |                |
    |                                               |                |  crc_calculated: "2cb9" (raw bits)
