$ fq -d mp3_frame dv mp3-frame-320000br-2ch-44100hz
     |00 01 02 03 04 05 06 07 08 09 0a 0b 0c 0d 0e 0f|0123456789abcdef|.{}: mp3-frame-320000br-2ch-44100hz (mp3_frame) 0x0-0x414.7 (1045)
     |                                               |                |  header{}: 0x0-0x3.7 (4)
0x000|ff fb                                          |..              |    sync: 0b11111111111 (valid) 0x0-0x1.2 (1.3)
0x000|   fb                                          | .              |    mpeg_version: "1" (3) (MPEG Version 1) 0x1.3-0x1.4 (0.2)
0x000|   fb                                          | .              |    layer: 3 (1) (MPEG Layer 3) 0x1.5-0x1.6 (0.2)
     |                                               |                |    sample_count: 1152 0x1.7-NA (0)
0x000|   fb                                          | .              |    protection_absent: true (No CRC) 0x1.7-0x1.7 (0.1)
0x000|      e2                                       |  .             |    bitrate: 320000 (14) 0x2-0x2.3 (0.4)
0x000|      e2                                       |  .             |    sample_rate: 44100 (0) 0x2.4-0x2.5 (0.2)
0x000|      e2                                       |  .             |    padding: "padded" (0b1) 0x2.6-0x2.6 (0.1)
0x000|      e2                                       |  .             |    private: 0 0x2.7-0x2.7 (0.1)
0x000|         64                                    |   d            |    channels: "joint_stereo" (0b1) 0x3-0x3.1 (0.2)
0x000|         64                                    |   d            |    channel_mode: "ms_stereo" (0b10) 0x3.2-0x3.3 (0.2)
0x000|         64                                    |   d            |    copyright: 0 0x3.4-0x3.4 (0.1)
0x000|         64                                    |   d            |    original: 1 0x3.5-0x3.5 (0.1)
0x000|         64                                    |   d            |    emphasis: "none" (0b0) 0x3.6-0x3.7 (0.2)
     |                                               |                |  side_info{}: 0x4-0x23.7 (32)
0x000|            00 08                              |    ..          |    main_data_begin: 0 0x4-0x5 (1.1)
0x000|               08                              |     .          |    share: 0 0x5.1-0x5.3 (0.3)
0x000|               08                              |     .          |    scfsi0: 8 0x5.4-0x5.7 (0.4)
0x000|                  f5                           |      .         |    scfsi1: 15 0x6-0x6.3 (0.4)
     |                                               |                |    granules[0:2]: 0x6.4-0x23.7 (29.4)
     |                                               |                |      [0][0:2]: granule 0x6.4-0x15.1 (14.6)
     |                                               |                |        [0]{}: channel 0x6.4-0xd.6 (7.3)
0x000|                  f5 bd                        |      ..        |          part2_3_length: 1469 0x6.4-0x7.7 (1.4)
0x000|                        7f c1                  |        ..      |          big_values: 255 0x8-0x9 (1.1)
0x000|                           c1 97               |         ..     |          global_gain: 131 0x9.1-0xa (1)
0x000|                              97               |          .     |          scalefac_compress: 2 0xa.1-0xa.4 (0.4)
0x000|                              97               |          .     |          blocksplit_flag: 1 0xa.5-0xa.5 (0.1)
0x000|                              97               |          .     |          block_type: "end" (3) 0xa.6-0xa.7 (0.2)
0x000|                                 7d            |           }    |          switch_point: 0 0xb-0xb (0.1)
0x000|                                 7d            |           }    |          table_select0: 31 0xb.1-0xb.5 (0.5)
0x000|                                 7d 00         |           }.   |          table_select1: 8 0xb.6-0xc.2 (0.5)
0x000|                                    00         |            .   |          subblock_gain0: 0 0xc.3-0xc.5 (0.3)
0x000|                                    00 02      |            ..  |          subblock_gain1: 0 0xc.6-0xd (0.3)
0x000|                                       02      |             .  |          subblock_gain2: 0 0xd.1-0xd.3 (0.3)
0x000|                                       02      |             .  |          preflag: 0 0xd.4-0xd.4 (0.1)
0x000|                                       02      |             .  |          scalefac_scale: 0 0xd.5-0xd.5 (0.1)
0x000|                                       02      |             .  |          count1table_select: 1 0xd.6-0xd.6 (0.1)
     |                                               |                |        [1]{}: channel 0xd.7-0x15.1 (7.3)
0x000|                                       02 00 00|             ...|          part2_3_length: 0 0xd.7-0xf.2 (1.4)
0x000|                                             00|               .|          big_values: 0 0xf.3-0x10.3 (1.1)
0x010|0d                                             |.               |
0x010|0d 20                                          |.               |          global_gain: 210 0x10.4-0x11.3 (1)
0x010|   20                                          |                |          scalefac_compress: 0 0x11.4-0x11.7 (0.4)
0x010|      e0                                       |  .             |          blocksplit_flag: 1 0x12-0x12 (0.1)
0x010|      e0                                       |  .             |          block_type: "end" (3) 0x12.1-0x12.2 (0.2)
0x010|      e0                                       |  .             |          switch_point: 0 0x12.3-0x12.3 (0.1)
0x010|      e0 00                                    |  ..            |          table_select0: 0 0x12.4-0x13 (0.5)
0x010|         00                                    |   .            |          table_select1: 0 0x13.1-0x13.5 (0.5)
0x010|         00 01                                 |   ..           |          subblock_gain0: 0 0x13.6-0x14 (0.3)
0x010|            01                                 |    .           |          subblock_gain1: 0 0x14.1-0x14.3 (0.3)
0x010|            01                                 |    .           |          subblock_gain2: 0 0x14.4-0x14.6 (0.3)
0x010|            01                                 |    .           |          preflag: 1 0x14.7-0x14.7 (0.1)
0x010|               18                              |     .          |          scalefac_scale: 0 0x15-0x15 (0.1)
0x010|               18                              |     .          |          count1table_select: 0 0x15.1-0x15.1 (0.1)
     |                                               |                |      [1][0:2]: granule 0x15.2-0x23.7 (14.6)
     |                                               |                |        [0]{}: channel 0x15.2-0x1c.4 (7.3)
0x010|               18 fa                           |     ..         |          part2_3_length: 1598 0x15.2-0x16.5 (1.4)
0x010|                  fa 05                        |      ..        |          big_values: 258 0x16.6-0x17.6 (1.1)
0x010|                     05 04                     |       ..       |          global_gain: 130 0x17.7-0x18.6 (1)
0x010|                        04 cf                  |        ..      |          scalefac_compress: 6 0x18.7-0x19.2 (0.4)
0x010|                           cf                  |         .      |          blocksplit_flag: 0 0x19.3-0x19.3 (0.1)
0x010|                           cf f1               |         ..     |          table_select0: 31 0x19.4-0x1a (0.5)
0x010|                              f1               |          .     |          table_select1: 28 0x1a.1-0x1a.5 (0.5)
0x010|                              f1 06            |          ..    |          table_select2: 8 0x1a.6-0x1b.2 (0.5)
0x010|                                 06            |           .    |          region_address1: 3 0x1b.3-0x1b.6 (0.4)
0x010|                                 06 c8         |           ..   |          region_address2: 3 0x1b.7-0x1c.1 (0.3)
0x010|                                    c8         |            .   |          preflag: 0 0x1c.2-0x1c.2 (0.1)
0x010|                                    c8         |            .   |          scalefac_scale: 0 0x1c.3-0x1c.3 (0.1)
0x010|                                    c8         |            .   |          count1table_select: 1 0x1c.4-0x1c.4 (0.1)
     |                                               |                |        [1]{}: channel 0x1c.5-0x23.7 (7.3)
0x010|                                    c8 00 00   |            ... |          part2_3_length: 0 0x1c.5-0x1e (1.4)
0x010|                                          00 34|              .4|          big_values: 0 0x1e.1-0x1f.1 (1.1)
0x010|                                             34|               4|          global_gain: 210 0x1f.2-0x20.1 (1)
0x020|80                                             |.               |
0x020|80                                             |.               |          scalefac_compress: 0 0x20.2-0x20.5 (0.4)
0x020|80                                             |.               |          blocksplit_flag: 0 0x20.6-0x20.6 (0.1)
0x020|80 00                                          |..              |          table_select0: 0 0x20.7-0x21.3 (0.5)
0x020|   00 00                                       | ..             |          table_select1: 0 0x21.4-0x22 (0.5)
0x020|      00                                       |  .             |          table_select2: 0 0x22.1-0x22.5 (0.5)
0x020|      00 04                                    |  ..            |          region_address1: 0 0x22.6-0x23.1 (0.4)
0x020|         04                                    |   .            |          region_address2: 0 0x23.2-0x23.4 (0.3)
0x020|         04                                    |   .            |          preflag: 1 0x23.5-0x23.5 (0.1)
0x020|         04                                    |   .            |          scalefac_scale: 0 0x23.6-0x23.6 (0.1)
0x020|         04                                    |   .            |          count1table_select: 0 0x23.7-0x23.7 (0.1)
0x020|            6a 80 03 01 50 09 33 01 68 09 13 05|    j...P.3.h...|  audio_data: raw bits 0x24-0x414.7 (1009)
0x030|50 18 d3 00 f0 15 83 02 a4 1d c3 5b 56 be b3 47|P..........[V..G|
*    |until 0x414.7 (end) (1009)                     |                |
     |                                               |                |  crc_calculated: "8111" (raw bits) 0x415-NA (0)
