$ fq -d mp3_frame dv mp3-frame-128000br-2ch-8000hz
     |00 01 02 03 04 05 06 07 08 09 0a 0b 0c 0d 0e 0f|0123456789abcdef|.{}: mp3-frame-128000br-2ch-8000hz (mp3_frame) 0x0-0x23f.7 (576)
     |                                               |                |  header{}: 0x0-0x3.7 (4)
0x000|ff e3                                          |..              |    sync: 0b11111111111 (valid) 0x0-0x1.2 (1.3)
0x000|   e3                                          | .              |    mpeg_version: "2.5" (0) (MPEG Version 2.5) 0x1.3-0x1.4 (0.2)
0x000|   e3                                          | .              |    layer: 3 (1) (MPEG Layer 3) 0x1.5-0x1.6 (0.2)
     |                                               |                |    sample_count: 576
0x000|   e3                                          | .              |    protection_absent: true (No CRC) 0x1.7-0x1.7 (0.1)
0x000|      88                                       |  .             |    bitrate: 64000 (8) 0x2-0x2.3 (0.4)
0x000|      88                                       |  .             |    sample_rate: 8000 (2) 0x2.4-0x2.5 (0.2)
0x000|      88                                       |  .             |    padding: "not_padded" (0b0) 0x2.6-0x2.6 (0.1)
0x000|      88                                       |  .             |    private: 0 0x2.7-0x2.7 (0.1)
0x000|         64                                    |   d            |    channels: "joint_stereo" (0b1) 0x3-0x3.1 (0.2)
0x000|         64                                    |   d            |    channel_mode: "ms_stereo" (0b10) 0x3.2-0x3.3 (0.2)
0x000|         64                                    |   d            |    copyright: 0 0x3.4-0x3.4 (0.1)
0x000|         64                                    |   d            |    original: 1 0x3.5-0x3.5 (0.1)
0x000|         64                                    |   d            |    emphasis: "none" (0b0) 0x3.6-0x3.7 (0.2)
     |                                               |                |  side_info{}: 0x4-0x14.7 (17)
0x000|            7a                                 |    z           |    main_data_begin: 122 0x4-0x4.7 (1)
0x000|               34                              |     4          |    private_bits: 0 0x5-0x5.1 (0.2)
     |                                               |                |    granules[0:1]: 0x5.2-0x14.7 (15.6)
     |                                               |                |      [0][0:2]: granule 0x5.2-0x14.7 (15.6)
     |                                               |                |        [0]{}: channel 0x5.2-0xd (7.7)
0x000|               34 a9                           |     4.         |          part2_3_length: 3370 0x5.2-0x6.5 (1.4)
0x000|                  a9 e1                        |      ..        |          big_values: 240 0x6.6-0x7.6 (1.1)
0x000|                     e1 00                     |       ..       |          global_gain: 128 0x7.7-0x8.6 (1)
0x000|                        00 00                  |        ..      |          scalefac_compress: 0 0x8.7-0x9.7 (1.1)
0x000|                              cf               |          .     |          blocksplit_flag: 1 0xa-0xa (0.1)
0x000|                              cf               |          .     |          block_type: "3 short windows" (2) 0xa.1-0xa.2 (0.2)
0x000|                              cf               |          .     |          switch_point: 0 0xa.3-0xa.3 (0.1)
0x000|                              cf f8            |          ..    |          table_select0: 31 0xa.4-0xb (0.5)
0x000|                                 f8            |           .    |          table_select1: 30 0xb.1-0xb.5 (0.5)
0x000|                                 f8 00         |           ..   |          subblock_gain0: 0 0xb.6-0xc (0.3)
0x000|                                    00         |            .   |          subblock_gain1: 0 0xc.1-0xc.3 (0.3)
0x000|                                    00         |            .   |          subblock_gain2: 0 0xc.4-0xc.6 (0.3)
0x000|                                    00         |            .   |          scalefac_scale: 0 0xc.7-0xc.7 (0.1)
0x000|                                       00      |             .  |          count1table_select: 0 0xd-0xd (0.1)
     |                                               |                |        [1]{}: channel 0xd.1-0x14.7 (7.7)
0x000|                                       00 00   |             .. |          part2_3_length: 0 0xd.1-0xe.4 (1.4)
0x000|                                          00 03|              ..|          big_values: 0 0xe.5-0xf.5 (1.1)
0x000|                                             03|               .|          global_gain: 210 0xf.6-0x10.5 (1)
0x010|48                                             |H               |
0x010|48 01                                          |H.              |          scalefac_compress: 0 0x10.6-0x11.6 (1.1)
0x010|   01                                          | .              |          blocksplit_flag: 1 0x11.7-0x11.7 (0.1)
0x010|      80                                       |  .             |          block_type: "3 short windows" (2) 0x12-0x12.1 (0.2)
0x010|      80                                       |  .             |          switch_point: 0 0x12.2-0x12.2 (0.1)
0x010|      80                                       |  .             |          table_select0: 0 0x12.3-0x12.7 (0.5)
0x010|         00                                    |   .            |          table_select1: 0 0x13-0x13.4 (0.5)
0x010|         00                                    |   .            |          subblock_gain0: 0 0x13.5-0x13.7 (0.3)
0x010|            00                                 |    .           |          subblock_gain1: 0 0x14-0x14.2 (0.3)
0x010|            00                                 |    .           |          subblock_gain2: 0 0x14.3-0x14.5 (0.3)
0x010|            00                                 |    .           |          scalefac_scale: 0 0x14.6-0x14.6 (0.1)
0x010|            00                                 |    .           |          count1table_select: 0 0x14.7-0x14.7 (0.1)
0x010|               c3 29 a3 29 52 d4 06 80 12 85 16|     .).)R......|  audio_data: raw bits 0x15-0x23f.7 (555)
0x020|b5 1b 56 62 5f 6d 86 cd 63 85 e3 0e 81 b9 31 d2|..Vb_m..c.....1.|
*    |until 0x23f.7 (end) (555)                      |                |
     |                                               |                |  crc_calculated: "ed86" (raw bits)
