$ fq -d mp3_frame dv mp3-frame-320000br-2ch-48000hz
     |00 01 02 03 04 05 06 07 08 09 0a 0b 0c 0d 0e 0f|0123456789abcdef|.{}: mp3-frame-320000br-2ch-48000hz (mp3_frame) 0x0-0x3c0 (960)
     |                                               |                |  header{}: 0x0-0x4 (4)
0x000|ff fb                                          |..              |    sync: 0b11111111111 (valid) 0x0-0x1.3 (1.3)
0x000|   fb                                          | .              |    mpeg_version: "1" (3) (MPEG Version 1) 0x1.3-0x1.5 (0.2)
0x000|   fb                                          | .              |    layer: 3 (1) (MPEG Layer 3) 0x1.5-0x1.7 (0.2)
     |                                               |                |    sample_count: 1152
0x000|   fb                                          | .              |    protection_absent: true (No CRC) 0x1.7-0x2 (0.1)
0x000|      e4                                       |  .             |    bitrate: 320000 (14) 0x2-0x2.4 (0.4)
0x000|      e4                                       |  .             |    sample_rate: 48000 (1) 0x2.4-0x2.6 (0.2)
0x000|      e4                                       |  .             |    padding: "not_padded" (0b0) 0x2.6-0x2.7 (0.1)
0x000|      e4                                       |  .             |    private: 0 0x2.7-0x3 (0.1)
0x000|         64                                    |   d            |    channels: "joint_stereo" (0b1) 0x3-0x3.2 (0.2)
0x000|         64                                    |   d            |    channel_mode: "ms_stereo" (0b10) 0x3.2-0x3.4 (0.2)
0x000|         64                                    |   d            |    copyright: 0 0x3.4-0x3.5 (0.1)
0x000|         64                                    |   d            |    original: 1 0x3.5-0x3.6 (0.1)
0x000|         64                                    |   d            |    emphasis: "none" (0b0) 0x3.6-0x4 (0.2)
     |                                               |                |  side_info{}: 0x4-0x24 (32)
0x000|            0a 88                              |    ..          |    main_data_begin: 21 0x4-0x5.1 (1.1)
0x000|               88                              |     .          |    share: 0 0x5.1-0x5.4 (0.3)
0x000|               88                              |     .          |    scfsi0: 8 0x5.4-0x6 (0.4)
0x000|                  f7                           |      .         |    scfsi1: 15 0x6-0x6.4 (0.4)
     |                                               |                |    granules[0:2]: 0x6.4-0x24 (29.4)
     |                                               |                |      [0][0:2]: granule 0x6.4-0x15.2 (14.6)
     |                                               |                |        [0]{}: channel 0x6.4-0xd.7 (7.3)
0x000|                  f7 6b                        |      .k        |          part2_3_length: 1899 0x6.4-0x8 (1.4)
0x000|                        79 bf                  |        y.      |          big_values: 243 0x8-0x9.1 (1.1)
0x000|                           bf 07               |         ..     |          global_gain: 126 0x9.1-0xa.1 (1)
0x000|                              07               |          .     |          scalefac_compress: 0 0xa.1-0xa.5 (0.4)
0x000|                              07               |          .     |          blocksplit_flag: 1 0xa.5-0xa.6 (0.1)
0x000|                              07               |          .     |          block_type: "end" (3) 0xa.6-0xb (0.2)
0x000|                                 7d            |           }    |          switch_point: 0 0xb-0xb.1 (0.1)
0x000|                                 7d            |           }    |          table_select0: 31 0xb.1-0xb.6 (0.5)
0x000|                                 7d 20         |           }    |          table_select1: 9 0xb.6-0xc.3 (0.5)
0x000|                                    20         |                |          subblock_gain0: 0 0xc.3-0xc.6 (0.3)
0x000|                                    20 02      |             .  |          subblock_gain1: 0 0xc.6-0xd.1 (0.3)
0x000|                                       02      |             .  |          subblock_gain2: 0 0xd.1-0xd.4 (0.3)
0x000|                                       02      |             .  |          preflag: 0 0xd.4-0xd.5 (0.1)
0x000|                                       02      |             .  |          scalefac_scale: 0 0xd.5-0xd.6 (0.1)
0x000|                                       02      |             .  |          count1table_select: 1 0xd.6-0xd.7 (0.1)
     |                                               |                |        [1]{}: channel 0xd.7-0x15.2 (7.3)
0x000|                                       02 00 00|             ...|          part2_3_length: 0 0xd.7-0xf.3 (1.4)
0x000|                                             00|               .|          big_values: 0 0xf.3-0x10.4 (1.1)
0x010|0d                                             |.               |
0x010|0d 20                                          |.               |          global_gain: 210 0x10.4-0x11.4 (1)
0x010|   20                                          |                |          scalefac_compress: 0 0x11.4-0x12 (0.4)
0x010|      e0                                       |  .             |          blocksplit_flag: 1 0x12-0x12.1 (0.1)
0x010|      e0                                       |  .             |          block_type: "end" (3) 0x12.1-0x12.3 (0.2)
0x010|      e0                                       |  .             |          switch_point: 0 0x12.3-0x12.4 (0.1)
0x010|      e0 00                                    |  ..            |          table_select0: 0 0x12.4-0x13.1 (0.5)
0x010|         00                                    |   .            |          table_select1: 0 0x13.1-0x13.6 (0.5)
0x010|         00 01                                 |   ..           |          subblock_gain0: 0 0x13.6-0x14.1 (0.3)
0x010|            01                                 |    .           |          subblock_gain1: 0 0x14.1-0x14.4 (0.3)
0x010|            01                                 |    .           |          subblock_gain2: 0 0x14.4-0x14.7 (0.3)
0x010|            01                                 |    .           |          preflag: 1 0x14.7-0x15 (0.1)
0x010|               18                              |     .          |          scalefac_scale: 0 0x15-0x15.1 (0.1)
0x010|               18                              |     .          |          count1table_select: 0 0x15.1-0x15.2 (0.1)
     |                                               |                |      [1][0:2]: granule 0x15.2-0x24 (14.6)
     |                                               |                |        [0]{}: channel 0x15.2-0x1c.5 (7.3)
0x010|               18 95                           |     ..         |          part2_3_length: 1573 0x15.2-0x16.6 (1.4)
0x010|                  95 e9                        |      ..        |          big_values: 244 0x16.6-0x17.7 (1.1)
0x010|                     e9 07                     |       ..       |          global_gain: 131 0x17.7-0x18.7 (1)
0x010|                        07 2f                  |        ./      |          scalefac_compress: 9 0x18.7-0x19.3 (0.4)
0x010|                           2f                  |         /      |          blocksplit_flag: 0 0x19.3-0x19.4 (0.1)
0x010|                           2f b0               |         /.     |          table_select0: 31 0x19.4-0x1a.1 (0.5)
0x010|                              b0               |          .     |          table_select1: 12 0x1a.1-0x1a.6 (0.5)
0x010|                              b0 cd            |          ..    |          table_select2: 6 0x1a.6-0x1b.3 (0.5)
0x010|                                 cd            |           .    |          region_address1: 6 0x1b.3-0x1b.7 (0.4)
0x010|                                 cd 80         |           ..   |          region_address2: 6 0x1b.7-0x1c.2 (0.3)
0x010|                                    80         |            .   |          preflag: 0 0x1c.2-0x1c.3 (0.1)
0x010|                                    80         |            .   |          scalefac_scale: 0 0x1c.3-0x1c.4 (0.1)
0x010|                                    80         |            .   |          count1table_select: 0 0x1c.4-0x1c.5 (0.1)
     |                                               |                |        [1]{}: channel 0x1c.5-0x24 (7.3)
0x010|                                    80 00 00   |            ... |          part2_3_length: 0 0x1c.5-0x1e.1 (1.4)
0x010|                                          00 34|              .4|          big_values: 0 0x1e.1-0x1f.2 (1.1)
0x010|                                             34|               4|          global_gain: 210 0x1f.2-0x20.2 (1)
0x020|80                                             |.               |
0x020|80                                             |.               |          scalefac_compress: 0 0x20.2-0x20.6 (0.4)
0x020|80                                             |.               |          blocksplit_flag: 0 0x20.6-0x20.7 (0.1)
0x020|80 00                                          |..              |          table_select0: 0 0x20.7-0x21.4 (0.5)
0x020|   00 00                                       | ..             |          table_select1: 0 0x21.4-0x22.1 (0.5)
0x020|      00                                       |  .             |          table_select2: 0 0x22.1-0x22.6 (0.5)
0x020|      00 04                                    |  ..            |          region_address1: 0 0x22.6-0x23.2 (0.4)
0x020|         04                                    |   .            |          region_address2: 0 0x23.2-0x23.5 (0.3)
0x020|         04                                    |   .            |          preflag: 1 0x23.5-0x23.6 (0.1)
0x020|         04                                    |   .            |          scalefac_scale: 0 0x23.6-0x23.7 (0.1)
0x020|         04                                    |   .            |          count1table_select: 0 0x23.7-0x24 (0.1)
0x020|            af f1 90 35 34 4b 08 31 fa c5 bc 30|    ...54K.1...0|  audio_data: raw bits 0x24-0x3c0 (924)
0x030|9c 41 13 30 2c c1 79 30 9a 82 1f 30 70 01 b5 30|.A.0,.y0...0p..0|
*    |until 0x3bf.7 (end) (924)                      |                |
     |                                               |                |  crc_calculated: "231c" (raw bits)
