$ fq -d mp3_frame dv mp3-frame-8000br-1ch-48000hz
    |00 01 02 03 04 05 06 07 08 09 0a 0b 0c 0d 0e 0f|0123456789abcdef|.{}: mp3-frame-8000br-1ch-48000hz (mp3_frame) 0x0-0x60 (96)
    |                                               |                |  header{}: 0x0-0x4 (4)
0x00|ff fb                                          |..              |    sync: 0b11111111111 (valid) 0x0-0x1.3 (1.3)
0x00|   fb                                          | .              |    mpeg_version: "1" (3) (MPEG Version 1) 0x1.3-0x1.5 (0.2)
0x00|   fb                                          | .              |    layer: 3 (1) (MPEG Layer 3) 0x1.5-0x1.7 (0.2)
    |                                               |                |    sample_count: 1152
0x00|   fb                                          | .              |    protection_absent: true (No CRC) 0x1.7-0x2 (0.1)
0x00|      14                                       |  .             |    bitrate: 32000 (1) 0x2-0x2.4 (0.4)
0x00|      14                                       |  .             |    sample_rate: 48000 (1) 0x2.4-0x2.6 (0.2)
0x00|      14                                       |  .             |    padding: "not_padded" (0b0) 0x2.6-0x2.7 (0.1)
0x00|      14                                       |  .             |    private: 0 0x2.7-0x3 (0.1)
0x00|         c4                                    |   .            |    channels: "mono" (0b11) 0x3-0x3.2 (0.2)
0x00|         c4                                    |   .            |    channel_mode: "none" (0b0) 0x3.2-0x3.4 (0.2)
0x00|         c4                                    |   .            |    copyright: 0 0x3.4-0x3.5 (0.1)
0x00|         c4                                    |   .            |    original: 1 0x3.5-0x3.6 (0.1)
0x00|         c4                                    |   .            |    emphasis: "none" (0b0) 0x3.6-0x4 (0.2)
    |                                               |                |  side_info{}: 0x4-0x15 (17)
0x00|            02 03                              |    ..          |    main_data_begin: 4 0x4-0x5.1 (1.1)
0x00|               03                              |     .          |    share: 0 0x5.1-0x5.6 (0.5)
0x00|               03 c4                           |     ..         |    scfsi0: 15 0x5.6-0x6.2 (0.4)
    |                                               |                |    granules[0:2]: 0x6.2-0x15 (14.6)
    |                                               |                |      [0][0:1]: granule 0x6.2-0xd.5 (7.3)
    |                                               |                |        [0]{}: channel 0x6.2-0xd.5 (7.3)
0x00|                  c4 4c                        |      .L        |          part2_3_length: 275 0x6.2-0x7.6 (1.4)
0x00|                     4c 1d                     |       L.       |          big_values: 14 0x7.6-0x8.7 (1.1)
0x00|                        1d 26                  |        .&      |          global_gain: 147 0x8.7-0x9.7 (1)
0x00|                           26 1d               |         &.     |          scalefac_compress: 0 0x9.7-0xa.3 (0.4)
0x00|                              1d               |          .     |          blocksplit_flag: 1 0xa.3-0xa.4 (0.1)
0x00|                              1d               |          .     |          block_type: "end" (3) 0xa.4-0xa.6 (0.2)
0x00|                              1d               |          .     |          switch_point: 0 0xa.6-0xa.7 (0.1)
0x00|                              1d d0            |          ..    |          table_select0: 29 0xa.7-0xb.4 (0.5)
0x00|                                 d0 00         |           ..   |          table_select1: 0 0xb.4-0xc.1 (0.5)
0x00|                                    00         |            .   |          subblock_gain0: 0 0xc.1-0xc.4 (0.3)
0x00|                                    00         |            .   |          subblock_gain1: 0 0xc.4-0xc.7 (0.3)
0x00|                                    00 20      |            .   |          subblock_gain2: 0 0xc.7-0xd.2 (0.3)
0x00|                                       20      |                |          preflag: 1 0xd.2-0xd.3 (0.1)
0x00|                                       20      |                |          scalefac_scale: 0 0xd.3-0xd.4 (0.1)
0x00|                                       20      |                |          count1table_select: 0 0xd.4-0xd.5 (0.1)
    |                                               |                |      [1][0:1]: granule 0xd.5-0x15 (7.3)
    |                                               |                |        [0]{}: channel 0xd.5-0x15 (7.3)
0x00|                                       20 93 83|              ..|          part2_3_length: 295 0xd.5-0xf.1 (1.4)
0x00|                                             83|               .|          big_values: 15 0xf.1-0x10.2 (1.1)
0x10|e3                                             |.               |
0x10|e3 01                                          |..              |          global_gain: 140 0x10.2-0x11.2 (1)
0x10|   01                                          | .              |          scalefac_compress: 0 0x11.2-0x11.6 (0.4)
0x10|   01                                          | .              |          blocksplit_flag: 0 0x11.6-0x11.7 (0.1)
0x10|   01 bf                                       | ..             |          table_select0: 27 0x11.7-0x12.4 (0.5)
0x10|      bf 64                                    |  .d            |          table_select1: 30 0x12.4-0x13.1 (0.5)
0x10|         64                                    |   d            |          table_select2: 25 0x13.1-0x13.6 (0.5)
0x10|         64 4c                                 |   dL           |          region_address1: 1 0x13.6-0x14.2 (0.4)
0x10|            4c                                 |    L           |          region_address2: 1 0x14.2-0x14.5 (0.3)
0x10|            4c                                 |    L           |          preflag: 1 0x14.5-0x14.6 (0.1)
0x10|            4c                                 |    L           |          scalefac_scale: 0 0x14.6-0x14.7 (0.1)
0x10|            4c                                 |    L           |          count1table_select: 0 0x14.7-0x15 (0.1)
0x10|               20 10 26 61 00 3e 64 25 a6 7e ae|      .&a.>d%.~.|  audio_data: raw bits 0x15-0x60 (75)
0x20|00 69 99 2c 63 28 80 10 0d a1 3c c0 a0 1c c0 00|.i.,c(....<.....|
*   |until 0x5f.7 (end) (75)                        |                |
    |                                               |                |  crc_calculated: "114e" (raw bits)
