$ fq -d mp3_frame dv mp3-frame-8000br-1ch-44100hz
    |00 01 02 03 04 05 06 07 08 09 0a 0b 0c 0d 0e 0f|0123456789abcdef|.{}: mp3-frame-8000br-1ch-44100hz (mp3_frame) 0x0-0x67.7 (104)
    |                                               |                |  header{}: 0x0-0x3.7 (4)
0x00|ff fb                                          |..              |    sync: 0b11111111111 (valid) 0x0-0x1.2 (1.3)
0x00|   fb                                          | .              |    mpeg_version: "1" (3) (MPEG Version 1) 0x1.3-0x1.4 (0.2)
0x00|   fb                                          | .              |    layer: 3 (1) (MPEG Layer 3) 0x1.5-0x1.6 (0.2)
    |                                               |                |    sample_count: 1152 0x1.7-NA (0)
0x00|   fb                                          | .              |    protection_absent: true (No CRC) 0x1.7-0x1.7 (0.1)
0x00|      10                                       |  .             |    bitrate: 32000 (1) 0x2-0x2.3 (0.4)
0x00|      10                                       |  .             |    sample_rate: 44100 (0) 0x2.4-0x2.5 (0.2)
0x00|      10                                       |  .             |    padding: "not_padded" (0b0) 0x2.6-0x2.6 (0.1)
0x00|      10                                       |  .             |    private: 0 0x2.7-0x2.7 (0.1)
0x00|         c4                                    |   .            |    channels: "mono" (0b11) 0x3-0x3.1 (0.2)
0x00|         c4                                    |   .            |    channel_mode: "none" (0b0) 0x3.2-0x3.3 (0.2)
0x00|         c4                                    |   .            |    copyright: 0 0x3.4-0x3.4 (0.1)
0x00|         c4                                    |   .            |    original: 1 0x3.5-0x3.5 (0.1)
0x00|         c4                                    |   .            |    emphasis: "none" (0b0) 0x3.6-0x3.7 (0.2)
    |                                               |                |  side_info{}: 0x4-0x14.7 (17)
0x00|            00 00                              |    ..          |    main_data_begin: 0 0x4-0x5 (1.1)
0x00|               00                              |     .          |    share: 0 0x5.1-0x5.5 (0.5)
0x00|               00 04                           |     ..         |    scfsi0: 0 0x5.6-0x6.1 (0.4)
    |                                               |                |    granules[0:2]: 0x6.2-0x14.7 (14.6)
    |                                               |                |      [0][0:1]: granule 0x6.2-0xd.4 (7.3)
    |                                               |                |        [0]{}: channel 0x6.2-0xd.4 (7.3)
0x00|                  04 80                        |      ..        |          part2_3_length: 288 0x6.2-0x7.5 (1.4)
0x00|                     80 25                     |       .%       |          big_values: 18 0x7.6-0x8.6 (1.1)
0x00|                        25 3c                  |        %<      |          global_gain: 158 0x8.7-0x9.6 (1)
0x00|                           3c 35               |         <5     |          scalefac_compress: 1 0x9.7-0xa.2 (0.4)
0x00|                              35               |          5     |          blocksplit_flag: 1 0xa.3-0xa.3 (0.1)
0x00|                              35               |          5     |          block_type: "start block" (1) 0xa.4-0xa.5 (0.2)
0x00|                              35               |          5     |          switch_point: 0 0xa.6-0xa.6 (0.1)
0x00|                              35 80            |          5.    |          table_select0: 24 0xa.7-0xb.3 (0.5)
0x00|                                 80 80         |           ..   |          table_select1: 1 0xb.4-0xc (0.5)
0x00|                                    80         |            .   |          subblock_gain0: 0 0xc.1-0xc.3 (0.3)
0x00|                                    80         |            .   |          subblock_gain1: 0 0xc.4-0xc.6 (0.3)
0x00|                                    80 18      |            ..  |          subblock_gain2: 0 0xc.7-0xd.1 (0.3)
0x00|                                       18      |             .  |          preflag: 0 0xd.2-0xd.2 (0.1)
0x00|                                       18      |             .  |          scalefac_scale: 1 0xd.3-0xd.3 (0.1)
0x00|                                       18      |             .  |          count1table_select: 1 0xd.4-0xd.4 (0.1)
    |                                               |                |      [1][0:1]: granule 0xd.5-0x14.7 (7.3)
    |                                               |                |        [0]{}: channel 0xd.5-0x14.7 (7.3)
0x00|                                       18 aa 8b|             ...|          part2_3_length: 341 0xd.5-0xf (1.4)
0x00|                                             8b|               .|          big_values: 45 0xf.1-0x10.1 (1.1)
0x10|69                                             |i               |
0x10|69 c3                                          |i.              |          global_gain: 167 0x10.2-0x11.1 (1)
0x10|   c3                                          | .              |          scalefac_compress: 0 0x11.2-0x11.5 (0.4)
0x10|   c3                                          | .              |          blocksplit_flag: 1 0x11.6-0x11.6 (0.1)
0x10|   c3 34                                       | .4             |          block_type: "3 short windows" (2) 0x11.7-0x12 (0.2)
0x10|      34                                       |  4             |          switch_point: 0 0x12.1-0x12.1 (0.1)
0x10|      34                                       |  4             |          table_select0: 26 0x12.2-0x12.6 (0.5)
0x10|      34 80                                    |  4.            |          table_select1: 8 0x12.7-0x13.3 (0.5)
0x10|         80                                    |   .            |          subblock_gain0: 0 0x13.4-0x13.6 (0.3)
0x10|         80 00                                 |   ..           |          subblock_gain1: 0 0x13.7-0x14.1 (0.3)
0x10|            00                                 |    .           |          subblock_gain2: 0 0x14.2-0x14.4 (0.3)
0x10|            00                                 |    .           |          preflag: 0 0x14.5-0x14.5 (0.1)
0x10|            00                                 |    .           |          scalefac_scale: 0 0x14.6-0x14.6 (0.1)
0x10|            00                                 |    .           |          count1table_select: 0 0x14.7-0x14.7 (0.1)
0x10|               40 0b 4e 5c b4 53 79 d6 80 10 46|     @.N\.Sy...F|  audio_data: raw bits 0x15-0x67.7 (83)
0x20|63 19 84 5f 06 9e ff b9 6e 5b ff 0f c6 e9 ed 80|c.._....n[......|
*   |until 0x67.7 (end) (83)                        |                |
    |                                               |                |  crc_calculated: "b723" (raw bits) 0x68-NA (0)
