$ fq -d mp3_frame dv mp3-frame-128000br-1ch-44100hz
     |00 01 02 03 04 05 06 07 08 09 0a 0b 0c 0d 0e 0f|0123456789abcdef|.{}: mp3-frame-128000br-1ch-44100hz (mp3_frame) 0x0-0x1a2 (418)
     |                                               |                |  header{}: 0x0-0x4 (4)
0x000|ff fb                                          |..              |    sync: 0b11111111111 (valid) 0x0-0x1.3 (1.3)
0x000|   fb                                          | .              |    mpeg_version: "1" (3) (MPEG Version 1) 0x1.3-0x1.5 (0.2)
0x000|   fb                                          | .              |    layer: 3 (1) (MPEG Layer 3) 0x1.5-0x1.7 (0.2)
     |                                               |                |    sample_count: 1152
0x000|   fb                                          | .              |    protection_absent: true (No CRC) 0x1.7-0x2 (0.1)
0x000|      92                                       |  .             |    bitrate: 128000 (9) 0x2-0x2.4 (0.4)
0x000|      92                                       |  .             |    sample_rate: 44100 (0) 0x2.4-0x2.6 (0.2)
0x000|      92                                       |  .             |    padding: "padded" (0b1) 0x2.6-0x2.7 (0.1)
0x000|      92                                       |  .             |    private: 0 0x2.7-0x3 (0.1)
0x000|         c4                                    |   .            |    channels: "mono" (0b11) 0x3-0x3.2 (0.2)
0x000|         c4                                    |   .            |    channel_mode: "none" (0b0) 0x3.2-0x3.4 (0.2)
0x000|         c4                                    |   .            |    copyright: 0 0x3.4-0x3.5 (0.1)
0x000|         c4                                    |   .            |    original: 1 0x3.5-0x3.6 (0.1)
0x000|         c4                                    |   .            |    emphasis: "none" (0b0) 0x3.6-0x4 (0.2)
     |                                               |                |  side_info{}: 0x4-0x15 (17)
0x000|            10 83                              |    ..          |    main_data_begin: 33 0x4-0x5.1 (1.1)
0x000|               83                              |     .          |    share: 0 0x5.1-0x5.6 (0.5)
0x000|               83 d5                           |     ..         |    scfsi0: 15 0x5.6-0x6.2 (0.4)
     |                                               |                |    granules[0:2]: 0x6.2-0x15 (14.6)
     |                                               |                |      [0][0:1]: granule 0x6.2-0xd.5 (7.3)
     |                                               |                |        [0]{}: channel 0x6.2-0xd.5 (7.3)
0x000|                  d5 b2                        |      ..        |          part2_3_length: 1388 0x6.2-0x7.6 (1.4)
0x000|                     b2 09                     |       ..       |          big_values: 260 0x7.6-0x8.7 (1.1)
0x000|                        09 00                  |        ..      |          global_gain: 128 0x8.7-0x9.7 (1)
0x000|                           00 1d               |         ..     |          scalefac_compress: 0 0x9.7-0xa.3 (0.4)
0x000|                              1d               |          .     |          blocksplit_flag: 1 0xa.3-0xa.4 (0.1)
0x000|                              1d               |          .     |          block_type: "end" (3) 0xa.4-0xa.6 (0.2)
0x000|                              1d               |          .     |          switch_point: 0 0xa.6-0xa.7 (0.1)
0x000|                              1d f2            |          ..    |          table_select0: 31 0xa.7-0xb.4 (0.5)
0x000|                                 f2 80         |           ..   |          table_select1: 5 0xb.4-0xc.1 (0.5)
0x000|                                    80         |            .   |          subblock_gain0: 0 0xc.1-0xc.4 (0.3)
0x000|                                    80         |            .   |          subblock_gain1: 0 0xc.4-0xc.7 (0.3)
0x000|                                    80 02      |            ..  |          subblock_gain2: 0 0xc.7-0xd.2 (0.3)
0x000|                                       02      |             .  |          preflag: 0 0xd.2-0xd.3 (0.1)
0x000|                                       02      |             .  |          scalefac_scale: 0 0xd.3-0xd.4 (0.1)
0x000|                                       02      |             .  |          count1table_select: 0 0xd.4-0xd.5 (0.1)
     |                                               |                |      [1][0:1]: granule 0xd.5-0x15 (7.3)
     |                                               |                |        [0]{}: channel 0xd.5-0x15 (7.3)
0x000|                                       02 a1 c0|             ...|          part2_3_length: 1347 0xd.5-0xf.1 (1.4)
0x000|                                             c0|               .|          big_values: 256 0xf.1-0x10.2 (1.1)
0x010|20                                             |                |
0x010|20 01                                          | .              |          global_gain: 128 0x10.2-0x11.2 (1)
0x010|   01                                          | .              |          scalefac_compress: 0 0x11.2-0x11.6 (0.4)
0x010|   01                                          | .              |          blocksplit_flag: 0 0x11.6-0x11.7 (0.1)
0x010|   01 fe                                       | ..             |          table_select0: 31 0x11.7-0x12.4 (0.5)
0x010|      fe 0d                                    |  ..            |          table_select1: 28 0x12.4-0x13.1 (0.5)
0x010|         0d                                    |   .            |          table_select2: 3 0x13.1-0x13.6 (0.5)
0x010|         0d 39                                 |   .9           |          region_address1: 4 0x13.6-0x14.2 (0.4)
0x010|            39                                 |    9           |          region_address2: 7 0x14.2-0x14.5 (0.3)
0x010|            39                                 |    9           |          preflag: 0 0x14.5-0x14.6 (0.1)
0x010|            39                                 |    9           |          scalefac_scale: 0 0x14.6-0x14.7 (0.1)
0x010|            39                                 |    9           |          count1table_select: 1 0x14.7-0x15 (0.1)
0x010|               f5 82 c5 30 74 c2 4c 30 85 42 06|     ...0t.L0.B.|  audio_data: raw bits 0x15-0x1a2 (397)
0x020|30 90 41 bc 30 30 c0 b0 46 a6 2e 91 31 59 50 a0|0.A.00..F...1YP.|
*    |until 0x1a1.7 (end) (397)                      |                |
     |                                               |                |  crc_calculated: "e33f" (raw bits)
