$ fq -d mp3_frame dv mp3-frame-8000br-2ch-44100hz
    |00 01 02 03 04 05 06 07 08 09 0a 0b 0c 0d 0e 0f|0123456789abcdef|.{}: mp3-frame-8000br-2ch-44100hz (mp3_frame) 0x0-0x69 (105)
    |                                               |                |  header{}: 0x0-0x4 (4)
0x00|ff fb                                          |..              |    sync: 0b11111111111 (valid) 0x0-0x1.3 (1.3)
0x00|   fb                                          | .              |    mpeg_version: "1" (3) (MPEG Version 1) 0x1.3-0x1.5 (0.2)
0x00|   fb                                          | .              |    layer: 3 (1) (MPEG Layer 3) 0x1.5-0x1.7 (0.2)
    |                                               |                |    sample_count: 1152
0x00|   fb                                          | .              |    protection_absent: true (No CRC) 0x1.7-0x2 (0.1)
0x00|      12                                       |  .             |    bitrate: 32000 (1) 0x2-0x2.4 (0.4)
0x00|      12                                       |  .             |    sample_rate: 44100 (0) 0x2.4-0x2.6 (0.2)
0x00|      12                                       |  .             |    padding: "padded" (0b1) 0x2.6-0x2.7 (0.1)
0x00|      12                                       |  .             |    private: 0 0x2.7-0x3 (0.1)
0x00|         64                                    |   d            |    channels: "joint_stereo" (0b1) 0x3-0x3.2 (0.2)
0x00|         64                                    |   d            |    channel_mode: "ms_stereo" (0b10) 0x3.2-0x3.4 (0.2)
0x00|         64                                    |   d            |    copyright: 0 0x3.4-0x3.5 (0.1)
0x00|         64                                    |   d            |    original: 1 0x3.5-0x3.6 (0.1)
0x00|         64                                    |   d            |    emphasis: "none" (0b0) 0x3.6-0x4 (0.2)
    |                                               |                |  side_info{}: 0x4-0x24 (32)
0x00|            09 83                              |    ..          |    main_data_begin: 19 0x4-0x5.1 (1.1)
0x00|               83                              |     .          |    share: 0 0x5.1-0x5.4 (0.3)
0x00|               83                              |     .          |    scfsi0: 3 0x5.4-0x6 (0.4)
0x00|                  f0                           |      .         |    scfsi1: 15 0x6-0x6.4 (0.4)
    |                                               |                |    granules[0:2]: 0x6.4-0x24 (29.4)
    |                                               |                |      [0][0:2]: granule 0x6.4-0x15.2 (14.6)
    |                                               |                |        [0]{}: channel 0x6.4-0xd.7 (7.3)
0x00|                  f0 8c                        |      ..        |          part2_3_length: 140 0x6.4-0x8 (1.4)
0x00|                        06 d3                  |        ..      |          big_values: 13 0x8-0x9.1 (1.1)
0x00|                           d3 2f               |         ./     |          global_gain: 166 0x9.1-0xa.1 (1)
0x00|                              2f               |          /     |          scalefac_compress: 5 0xa.1-0xa.5 (0.4)
0x00|                              2f               |          /     |          blocksplit_flag: 1 0xa.5-0xa.6 (0.1)
0x00|                              2f               |          /     |          block_type: "end" (3) 0xa.6-0xb (0.2)
0x00|                                 68            |           h    |          switch_point: 0 0xb-0xb.1 (0.1)
0x00|                                 68            |           h    |          table_select0: 26 0xb.1-0xb.6 (0.5)
0x00|                                 68 00         |           h.   |          table_select1: 0 0xb.6-0xc.3 (0.5)
0x00|                                    00         |            .   |          subblock_gain0: 0 0xc.3-0xc.6 (0.3)
0x00|                                    00 08      |            ..  |          subblock_gain1: 0 0xc.6-0xd.1 (0.3)
0x00|                                       08      |             .  |          subblock_gain2: 0 0xd.1-0xd.4 (0.3)
0x00|                                       08      |             .  |          preflag: 1 0xd.4-0xd.5 (0.1)
0x00|                                       08      |             .  |          scalefac_scale: 0 0xd.5-0xd.6 (0.1)
0x00|                                       08      |             .  |          count1table_select: 0 0xd.6-0xd.7 (0.1)
    |                                               |                |        [1]{}: channel 0xd.7-0x15.2 (7.3)
0x00|                                       08 00 00|             ...|          part2_3_length: 0 0xd.7-0xf.3 (1.4)
0x00|                                             00|               .|          big_values: 0 0xf.3-0x10.4 (1.1)
0x10|0d                                             |.               |
0x10|0d 20                                          |.               |          global_gain: 210 0x10.4-0x11.4 (1)
0x10|   20                                          |                |          scalefac_compress: 0 0x11.4-0x12 (0.4)
0x10|      e0                                       |  .             |          blocksplit_flag: 1 0x12-0x12.1 (0.1)
0x10|      e0                                       |  .             |          block_type: "end" (3) 0x12.1-0x12.3 (0.2)
0x10|      e0                                       |  .             |          switch_point: 0 0x12.3-0x12.4 (0.1)
0x10|      e0 00                                    |  ..            |          table_select0: 0 0x12.4-0x13.1 (0.5)
0x10|         00                                    |   .            |          table_select1: 0 0x13.1-0x13.6 (0.5)
0x10|         00 01                                 |   ..           |          subblock_gain0: 0 0x13.6-0x14.1 (0.3)
0x10|            01                                 |    .           |          subblock_gain1: 0 0x14.1-0x14.4 (0.3)
0x10|            01                                 |    .           |          subblock_gain2: 0 0x14.4-0x14.7 (0.3)
0x10|            01                                 |    .           |          preflag: 1 0x14.7-0x15 (0.1)
0x10|               02                              |     .          |          scalefac_scale: 0 0x15-0x15.1 (0.1)
0x10|               02                              |     .          |          count1table_select: 0 0x15.1-0x15.2 (0.1)
    |                                               |                |      [1][0:2]: granule 0x15.2-0x24 (14.6)
    |                                               |                |        [0]{}: channel 0x15.2-0x1c.5 (7.3)
0x10|               02 44                           |     .D         |          part2_3_length: 145 0x15.2-0x16.6 (1.4)
0x10|                  44 1d                        |      D.        |          big_values: 14 0x16.6-0x17.7 (1.1)
0x10|                     1d 56                     |       .V       |          global_gain: 171 0x17.7-0x18.7 (1)
0x10|                        56 80                  |        V.      |          scalefac_compress: 4 0x18.7-0x19.3 (0.4)
0x10|                           80                  |         .      |          blocksplit_flag: 0 0x19.3-0x19.4 (0.1)
0x10|                           80 e1               |         ..     |          table_select0: 1 0x19.4-0x1a.1 (0.5)
0x10|                              e1               |          .     |          table_select1: 24 0x1a.1-0x1a.6 (0.5)
0x10|                              e1 20            |          .     |          table_select2: 9 0x1a.6-0x1b.3 (0.5)
0x10|                                 20            |                |          region_address1: 0 0x1b.3-0x1b.7 (0.4)
0x10|                                 20 e0         |            .   |          region_address2: 3 0x1b.7-0x1c.2 (0.3)
0x10|                                    e0         |            .   |          preflag: 1 0x1c.2-0x1c.3 (0.1)
0x10|                                    e0         |            .   |          scalefac_scale: 0 0x1c.3-0x1c.4 (0.1)
0x10|                                    e0         |            .   |          count1table_select: 0 0x1c.4-0x1c.5 (0.1)
    |                                               |                |        [1]{}: channel 0x1c.5-0x24 (7.3)
0x10|                                    e0 00 00   |            ... |          part2_3_length: 0 0x1c.5-0x1e.1 (1.4)
0x10|                                          00 34|              .4|          big_values: 0 0x1e.1-0x1f.2 (1.1)
0x10|                                             34|               4|          global_gain: 210 0x1f.2-0x20.2 (1)
0x20|80                                             |.               |
0x20|80                                             |.               |          scalefac_compress: 0 0x20.2-0x20.6 (0.4)
0x20|80                                             |.               |          blocksplit_flag: 0 0x20.6-0x20.7 (0.1)
0x20|80 00                                          |..              |          table_select0: 0 0x20.7-0x21.4 (0.5)
0x20|   00 00                                       | ..             |          table_select1: 0 0x21.4-0x22.1 (0.5)
0x20|      00                                       |  .             |          table_select2: 0 0x22.1-0x22.6 (0.5)
0x20|      00 04                                    |  ..            |          region_address1: 0 0x22.6-0x23.2 (0.4)
0x20|         04                                    |   .            |          region_address2: 0 0x23.2-0x23.5 (0.3)
0x20|         04                                    |   .            |          preflag: 1 0x23.5-0x23.6 (0.1)
0x20|         04                                    |   .            |          scalefac_scale: 0 0x23.6-0x23.7 (0.1)
0x20|         04                                    |   .            |          count1table_select: 0 0x23.7-0x24 (0.1)
0x20|            d7 80 04 14 ef e4 4c 01 94 2f b0 ef|    ......L../..|  audio_data: raw bits 0x24-0x69 (69)
0x30|c6 d0 08 d1 e2 69 69 d0 72 21 06 34 4f 03 43 04|.....ii.r!.4O.C.|
*   |until 0x68.7 (end) (69)                        |                |
    |                                               |                |  crc_calculated: "aad7" (raw bits)
