$ fq -d mp3_frame dv mp3-frame-320000br-1ch-48000hz
     |00 01 02 03 04 05 06 07 08 09 0a 0b 0c 0d 0e 0f|0123456789abcdef|.{}: mp3-frame-320000br-1ch-48000hz (mp3_frame) 0x0-0x3bf.7 (960)
     |                                               |                |  header{}: 0x0-0x3.7 (4)
0x000|ff fb                                          |..              |    sync: 0b11111111111 (valid) 0x0-0x1.2 (1.3)
0x000|   fb                                          | .              |    mpeg_version: "1" (3) (MPEG Version 1) 0x1.3-0x1.4 (0.2)
0x000|   fb                                          | .              |    layer: 3 (1) (MPEG Layer 3) 0x1.5-0x1.6 (0.2)
     |                                               |                |    sample_count: 1152 0x1.7-NA (0)
0x000|   fb                                          | .              |    protection_absent: true (No CRC) 0x1.7-0x1.7 (0.1)
0x000|      e4                                       |  .             |    bitrate: 320000 (14) 0x2-0x2.3 (0.4)
0x000|      e4                                       |  .             |    sample_rate: 48000 (1) 0x2.4-0x2.5 (0.2)
0x000|      e4                                       |  .             |    padding: "not_padded" (0b0) 0x2.6-0x2.6 (0.1)
0x000|      e4                                       |  .             |    private: 0 0x2.7-0x2.7 (0.1)
0x000|         c4                                    |   .            |    channels: "mono" (0b11) 0x3-0x3.1 (0.2)
0x000|         c4                                    |   .            |    channel_mode: "none" (0b0) 0x3.2-0x3.3 (0.2)
0x000|         c4                                    |   .            |    copyright: 0 0x3.4-0x3.4 (0.1)
0x000|         c4                                    |   .            |    original: 1 0x3.5-0x3.5 (0.1)
0x000|         c4                                    |   .            |    emphasis: "none" (0b0) 0x3.6-0x3.7 (0.2)
     |                                               |                |  side_info{}: 0x4-0x14.7 (17)
0x000|            00 00                              |    ..          |    main_data_begin: 0 0x4-0x5 (1.1)
0x000|               00                              |     .          |    share: 0 0x5.1-0x5.5 (0.5)
0x000|               00 2d                           |     .-         |    scfsi0: 0 0x5.6-0x6.1 (0.4)
     |                                               |                |    granules[0:2]: 0x6.2-0x14.7 (14.6)
     |                                               |                |      [0][0:1]: granule 0x6.2-0xd.4 (7.3)
     |                                               |                |        [0]{}: channel 0x6.2-0xd.4 (7.3)
0x000|                  2d 85                        |      -.        |          part2_3_length: 2913 0x6.2-0x7.5 (1.4)
0x000|                     85 e3                     |       ..       |          big_values: 241 0x7.6-0x8.6 (1.1)
0x000|                        e3 0a                  |        ..      |          global_gain: 133 0x8.7-0x9.6 (1)
0x000|                           0a 75               |         .u     |          scalefac_compress: 3 0x9.7-0xa.2 (0.4)
0x000|                              75               |          u     |          blocksplit_flag: 1 0xa.3-0xa.3 (0.1)
0x000|                              75               |          u     |          block_type: "start block" (1) 0xa.4-0xa.5 (0.2)
0x000|                              75               |          u     |          switch_point: 0 0xa.6-0xa.6 (0.1)
0x000|                              75 dc            |          u.    |          table_select0: 29 0xa.7-0xb.3 (0.5)
0x000|                                 dc 80         |           ..   |          table_select1: 25 0xb.4-0xc (0.5)
0x000|                                    80         |            .   |          subblock_gain0: 0 0xc.1-0xc.3 (0.3)
0x000|                                    80         |            .   |          subblock_gain1: 0 0xc.4-0xc.6 (0.3)
0x000|                                    80 0f      |            ..  |          subblock_gain2: 0 0xc.7-0xd.1 (0.3)
0x000|                                       0f      |             .  |          preflag: 0 0xd.2-0xd.2 (0.1)
0x000|                                       0f      |             .  |          scalefac_scale: 0 0xd.3-0xd.3 (0.1)
0x000|                                       0f      |             .  |          count1table_select: 1 0xd.4-0xd.4 (0.1)
     |                                               |                |      [1][0:1]: granule 0xd.5-0x14.7 (7.3)
     |                                               |                |        [0]{}: channel 0xd.5-0x14.7 (7.3)
0x000|                                       0f d3 44|             ..D|          part2_3_length: 4006 0xd.5-0xf (1.4)
0x000|                                             44|               D|          big_values: 273 0xf.1-0x10.1 (1.1)
0x010|62                                             |b               |
0x010|62 83                                          |b.              |          global_gain: 138 0x10.2-0x11.1 (1)
0x010|   83                                          | .              |          scalefac_compress: 0 0x11.2-0x11.5 (0.4)
0x010|   83                                          | .              |          blocksplit_flag: 1 0x11.6-0x11.6 (0.1)
0x010|   83 3f                                       | .?             |          block_type: "3 short windows" (2) 0x11.7-0x12 (0.2)
0x010|      3f                                       |  ?             |          switch_point: 0 0x12.1-0x12.1 (0.1)
0x010|      3f                                       |  ?             |          table_select0: 31 0x12.2-0x12.6 (0.5)
0x010|      3f c0                                    |  ?.            |          table_select1: 28 0x12.7-0x13.3 (0.5)
0x010|         c0                                    |   .            |          subblock_gain0: 0 0x13.4-0x13.6 (0.3)
0x010|         c0 00                                 |   ..           |          subblock_gain1: 0 0x13.7-0x14.1 (0.3)
0x010|            00                                 |    .           |          subblock_gain2: 0 0x14.2-0x14.4 (0.3)
0x010|            00                                 |    .           |          preflag: 0 0x14.5-0x14.5 (0.1)
0x010|            00                                 |    .           |          scalefac_scale: 0 0x14.6-0x14.6 (0.1)
0x010|            00                                 |    .           |          count1table_select: 0 0x14.7-0x14.7 (0.1)
0x010|               01 cb 23 90 ed fb 1c e9 79 2c de|     ..#.....y,.|  audio_data: raw bits 0x15-0x3bf.7 (939)
0x020|15 34 c7 52 e0 da 69 a8 f0 ad f0 fb ae f8 f8 4c|.4.R..i........L|
*    |until 0x3bf.7 (end) (939)                      |                |
     |                                               |                |  crc_calculated: "b64d" (raw bits) 0x3c0-NA (0)
