$ fq -d mp3_frame dv mp3-frame-8000br-1ch-8000hz
    |00 01 02 03 04 05 06 07 08 09 0a 0b 0c 0d 0e 0f|0123456789abcdef|.{}: mp3-frame-8000br-1ch-8000hz (mp3_frame) 0x0-0x47.7 (72)
    |                                               |                |  header{}: 0x0-0x3.7 (4)
0x00|ff e3                                          |..              |    sync: 0b11111111111 (valid) 0x0-0x1.2 (1.3)
0x00|   e3                                          | .              |    mpeg_version: "2.5" (0) (MPEG Version 2.5) 0x1.3-0x1.4 (0.2)
0x00|   e3                                          | .              |    layer: 3 (1) (MPEG Layer 3) 0x1.5-0x1.6 (0.2)
    |                                               |                |    sample_count: 576 0x1.7-NA (0)
0x00|   e3                                          | .              |    protection_absent: true (No CRC) 0x1.7-0x1.7 (0.1)
0x00|      18                                       |  .             |    bitrate: 8000 (1) 0x2-0x2.3 (0.4)
0x00|      18                                       |  .             |    sample_rate: 8000 (2) 0x2.4-0x2.5 (0.2)
0x00|      18                                       |  .             |    padding: "not_padded" (0b0) 0x2.6-0x2.6 (0.1)
0x00|      18                                       |  .             |    private: 0 0x2.7-0x2.7 (0.1)
0x00|         c4                                    |   .            |    channels: "mono" (0b11) 0x3-0x3.1 (0.2)
0x00|         c4                                    |   .            |    channel_mode: "none" (0b0) 0x3.2-0x3.3 (0.2)
0x00|         c4                                    |   .            |    copyright: 0 0x3.4-0x3.4 (0.1)
0x00|         c4                                    |   .            |    original: 1 0x3.5-0x3.5 (0.1)
0x00|         c4                                    |   .            |    emphasis: "none" (0b0) 0x3.6-0x3.7 (0.2)
    |                                               |                |  side_info{}: 0x4-0xc.7 (9)
0x00|            00                                 |    .           |    main_data_begin: 0 0x4-0x4.7 (1)
0x00|               0c                              |     .          |    private_bits: 0 0x5-0x5 (0.1)
    |                                               |                |    granules[0:1]: 0x5.1-0xc.7 (7.7)
    |                                               |                |      [0][0:1]: granule 0x5.1-0xc.7 (7.7)
    |                                               |                |        [0]{}: channel 0x5.1-0xc.7 (7.7)
0x00|               0c 90                           |     ..         |          part2_3_length: 402 0x5.1-0x6.4 (1.4)
0x00|                  90 8e                        |      ..        |          big_values: 35 0x6.5-0x7.5 (1.1)
0x00|                     8e c1                     |       ..       |          global_gain: 176 0x7.6-0x8.5 (1)
0x00|                        c1 b8                  |        ..      |          scalefac_compress: 220 0x8.6-0x9.6 (1.1)
0x00|                           b8                  |         .      |          blocksplit_flag: 0 0x9.7-0x9.7 (0.1)
0x00|                              08               |          .     |          table_select0: 1 0xa-0xa.4 (0.5)
0x00|                              08 4c            |          .L    |          table_select1: 1 0xa.5-0xb.1 (0.5)
0x00|                                 4c            |           L    |          table_select2: 6 0xb.2-0xb.6 (0.5)
0x00|                                 4c 0c         |           L.   |          region_address1: 0 0xb.7-0xc.2 (0.4)
0x00|                                    0c         |            .   |          region_address2: 3 0xc.3-0xc.5 (0.3)
0x00|                                    0c         |            .   |          scalefac_scale: 0 0xc.6-0xc.6 (0.1)
0x00|                                    0c         |            .   |          count1table_select: 0 0xc.7-0xc.7 (0.1)
0x00|                                       64 00 9d|             d..|  audio_data: raw bits 0xd-0x47.7 (59)
0x10|db fe 1f 98 df 20 03 e6 3f 31 81 19 e4 c0 64 d3|..... ..?1....d.|
*   |until 0x47.7 (end) (59)                        |                |
    |                                               |                |  crc_calculated: "8213" (raw bits) 0x48-NA (0)
