$ fq -d mp3_frame dv mp3-frame-128000br-1ch-8000hz
     |00 01 02 03 04 05 06 07 08 09 0a 0b 0c 0d 0e 0f|0123456789abcdef|.{}: mp3-frame-128000br-1ch-8000hz (mp3_frame) 0x0-0x23f.7 (576)
     |                                               |                |  header{}: 0x0-0x3.7 (4)
0x000|ff e3                                          |..              |    sync: 0b11111111111 (valid) 0x0-0x1.2 (1.3)
0x000|   e3                                          | .              |    mpeg_version: "2.5" (0) (MPEG Version 2.5) 0x1.3-0x1.4 (0.2)
0x000|   e3                                          | .              |    layer: 3 (1) (MPEG Layer 3) 0x1.5-0x1.6 (0.2)
     |                                               |                |    sample_count: 576 0x1.7-NA (0)
0x000|   e3                                          | .              |    protection_absent: true (No CRC) 0x1.7-0x1.7 (0.1)
0x000|      88                                       |  .             |    bitrate: 64000 (8) 0x2-0x2.3 (0.4)
0x000|      88                                       |  .             |    sample_rate: 8000 (2) 0x2.4-0x2.5 (0.2)
0x000|      88                                       |  .             |    padding: "not_padded" (0b0) 0x2.6-0x2.6 (0.1)
0x000|      88                                       |  .             |    private: 0 0x2.7-0x2.7 (0.1)
0x000|         c4                                    |   .            |    channels: "mono" (0b11) 0x3-0x3.1 (0.2)
0x000|         c4                                    |   .            |    channel_mode: "none" (0b0) 0x3.2-0x3.3 (0.2)
0x000|         c4                                    |   .            |    copyright: 0 0x3.4-0x3.4 (0.1)
0x000|         c4                                    |   .            |    original: 1 0x3.5-0x3.5 (0.1)
0x000|         c4                                    |   .            |    emphasis: "none" (0b0) 0x3.6-0x3.7 (0.2)
     |                                               |                |  side_info{}: 0x4-0xc.7 (9)
0x000|            00                                 |    .           |    main_data_begin: 0 0x4-0x4.7 (1)
0x000|               71                              |     q          |    private_bits: 0 0x5-0x5 (0.1)
     |                                               |                |    granules[0:1]: 0x5.1-0xc.7 (7.7)
     |                                               |                |      [0][0:1]: granule 0x5.1-0xc.7 (7.7)
     |                                               |                |        [0]{}: channel 0x5.1-0xc.7 (7.7)
0x000|               71 ec                           |     q.         |          part2_3_length: 3645 0x5.1-0x6.4 (1.4)
0x000|                  ec 6e                        |      .n        |          big_values: 283 0x6.5-0x7.5 (1.1)
0x000|                     6e 30                     |       n0       |          global_gain: 140 0x7.6-0x8.5 (1)
0x000|                        30 00                  |        0.      |          scalefac_compress: 0 0x8.6-0x9.6 (1.1)
0x000|                           00                  |         .      |          blocksplit_flag: 0 0x9.7-0x9.7 (0.1)
0x000|                              d7               |          .     |          table_select0: 26 0xa-0xa.4 (0.5)
0x000|                              d7 72            |          .r    |          table_select1: 29 0xa.5-0xb.1 (0.5)
0x000|                                 72            |           r    |          table_select2: 25 0xb.2-0xb.6 (0.5)
0x000|                                 72 68         |           rh   |          region_address1: 3 0xb.7-0xc.2 (0.4)
0x000|                                    68         |            h   |          region_address2: 2 0xc.3-0xc.5 (0.3)
0x000|                                    68         |            h   |          scalefac_scale: 0 0xc.6-0xc.6 (0.1)
0x000|                                    68         |            h   |          count1table_select: 0 0xc.7-0xc.7 (0.1)
0x000|                                       39 f0 cd|             9..|  audio_data: raw bits 0xd-0x23f.7 (563)
0x010|79 70 30 b3 06 4c d1 b5 38 32 4e 5c 53 6e 94 30|yp0..L..82N\Sn.0|
*    |until 0x23f.7 (end) (563)                      |                |
     |                                               |                |  crc_calculated: "a6be" (raw bits) 0x240-NA (0)
