$ fq -d mp4 dv mp4-he-aac-hierarchical-signalling
      |00 01 02 03 04 05 06 07 08 09 0a 0b 0c 0d 0e 0f|0123456789abcdef|.{}: mp4-he-aac-hierarchical-signalling (mp4) 0x0-0x4a0e (18958)
      |                                               |                |  boxes[0:5]: 0x0-0x4a0e (18958)
      |                                               |                |    [0]{}: box 0x0-0x24 (36)
0x0000|00 00 00 24                                    |...$            |      size: 36 0x0-0x4 (4)
0x0000|            66 74 79 70                        |    ftyp        |      type: "ftyp" (File type and compatibility) 0x4-0x8 (4)
0x0000|                        6d 70 34 31            |        mp41    |      major_brand: "mp41" 0x8-0xc (4)
0x0000|                                    00 00 00 00|            ....|      minor_version: 0 0xc-0x10 (4)
      |                                               |                |      brands[0:5]: 0x10-0x24 (20)
0x0010|69 73 6f 38                                    |iso8            |        [0]: "iso8" brand (MP4 Base Media v8) 0x10-0x14 (4)
0x0010|            69 73 6f 6d                        |    isom        |        [1]: "isom" brand (All files based on the ISO Base Media File Format) 0x14-0x18 (4)
0x0010|                        6d 70 34 31            |        mp41    |        [2]: "mp41" brand (MP4 version 1) 0x18-0x1c (4)
0x0010|                                    64 61 73 68|            dash|        [3]: "dash" brand (ISO base media file format file specifically designed for DASH including movie fragments and Segment Index) 0x1c-0x20 (4)
0x0020|63 6d 66 63                                    |cmfc            |        [4]: "cmfc" brand (CMAF Track Format) 0x20-0x24 (4)
      |                                               |                |    [1]{}: box 0x24-0x338 (788)
0x0020|            00 00 03 14                        |    ....        |      size: 788 0x24-0x28 (4)
0x0020|                        6d 6f 6f 76            |        moov    |      type: "moov" (Container for all the meta-data) 0x28-0x2c (4)
      |                                               |                |      boxes[0:4]: 0x2c-0x338 (780)
      |                                               |                |        [0]{}: box 0x2c-0x98 (108)
0x0020|                                    00 00 00 6c|            ...l|          size: 108 0x2c-0x30 (4)
0x0030|6d 76 68 64                                    |mvhd            |          type: "mvhd" (Movie header, overall declarations) 0x30-0x34 (4)
0x0030|            00                                 |    .           |          version: 0 0x34-0x35 (1)
0x0030|               00 00 00                        |     ...        |          flags: 0 0x35-0x38 (3)
0x0030|                        e4 da fa 22            |        ..."    |          creation_time: 3839556130 (2025-09-01T07:22:10Z) 0x38-0x3c (4)
0x0030|                                    e4 da fa 22|            ..."|          modification_time: 3839556130 (2025-09-01T07:22:10Z) 0x3c-0x40 (4)
0x0040|00 00 ac 44                                    |...D            |          time_scale: 44100 0x40-0x44 (4)
0x0040|            00 00 00 00                        |    ....        |          duration: 0 0x44-0x48 (4)
0x0040|                        00 01 00 00            |        ....    |          preferred_rate: 1 0x48-0x4c (4)
0x0040|                                    01 00      |            ..  |          preferred_volume: 1 0x4c-0x4e (2)
0x0040|                                          00 00|              ..|          reserved: "\x00\x00\x00\x00\x00\x00\x00\x00\x00\x00" 0x4e-0x58 (10)
0x0050|00 00 00 00 00 00 00 00                        |........        |
      |                                               |                |          matrix_structure{}: 0x58-0x7c (36)
0x0050|                        00 01 00 00            |        ....    |            a: 1 0x58-0x5c (4)
0x0050|                                    00 00 00 00|            ....|            b: 0 0x5c-0x60 (4)
0x0060|00 00 00 00                                    |....            |            u: 0 0x60-0x64 (4)
0x0060|            00 00 00 00                        |    ....        |            c: 0 0x64-0x68 (4)
0x0060|                        00 01 00 00            |        ....    |            d: 1 0x68-0x6c (4)
0x0060|                                    00 00 00 00|            ....|            v: 0 0x6c-0x70 (4)
0x0070|00 00 00 00                                    |....            |            x: 0 0x70-0x74 (4)
0x0070|            00 00 00 00                        |    ....        |            y: 0 0x74-0x78 (4)
0x0070|                        40 00 00 00            |        @...    |            w: 1 0x78-0x7c (4)
0x0070|                                    00 00 00 00|            ....|          preview_time: 0 0x7c-0x80 (4)
0x0080|00 00 00 00                                    |....            |          preview_duration: 0 0x80-0x84 (4)
0x0080|            00 00 00 00                        |    ....        |          poster_time: 0 0x84-0x88 (4)
0x0080|                        00 00 00 00            |        ....    |          selection_time: 0 0x88-0x8c (4)
0x0080|                                    00 00 00 00|            ....|          selection_duration: 0 0x8c-0x90 (4)
0x0090|00 00 00 00                                    |....            |          current_time: 0 0x90-0x94 (4)
0x0090|            00 00 00 02                        |    ....        |          next_track_id: 2 0x94-0x98 (4)
      |                                               |                |        [1]{}: box 0x98-0x124 (140)
0x0090|                        00 00 00 8c            |        ....    |          size: 140 0x98-0x9c (4)
0x0090|                                    6d 65 74 61|            meta|          type: "meta" (Metadata container) 0x9c-0xa0 (4)
0x00a0|00 00 00 00                                    |....            |          maybe_flags: 0 0xa0-0xa4 (4)
      |                                               |                |          boxes[0:2]: 0xa4-0x124 (128)
      |                                               |                |            [0]{}: box 0xa4-0xc4 (32)
0x00a0|            00 00 00 20                        |    ...         |              size: 32 0xa4-0xa8 (4)
0x00a0|                        68 64 6c 72            |        hdlr    |              type: "hdlr" (Handler, declares the media (handler) type) 0xa8-0xac (4)
0x00a0|                                    00         |            .   |              version: 0 0xac-0xad (1)
0x00a0|                                       00 00 00|             ...|              flags: 0 0xad-0xb0 (3)
0x00b0|00 00 00 00                                    |....            |              component_type: "" 0xb0-0xb4 (4)
0x00b0|            49 44 33 32                        |    ID32        |              component_subtype: "ID32" 0xb4-0xb8 (4)
0x00b0|                        00 00 00 00            |        ....    |              component_manufacturer: "" 0xb8-0xbc (4)
0x00b0|                                    00 00 00 00|            ....|              component_flags: 0 0xbc-0xc0 (4)
0x00c0|00 00 00 00                                    |....            |              component_flags_mask: 0 0xc0-0xc4 (4)
      |                                               |                |              component_name: "" 0xc4-0xc4 (0)
      |                                               |                |            [1]{}: box 0xc4-0x124 (96)
0x00c0|            00 00 00 60                        |    ...`        |              size: 96 0xc4-0xc8 (4)
0x00c0|                        49 44 33 32            |        ID32    |              type: "ID32" (ID3 version 2 container) 0xc8-0xcc (4)
0x00c0|                                    00         |            .   |              version: 0 0xcc-0xcd (1)
0x00c0|                                       00 00 00|             ...|              flags: 0 0xcd-0xd0 (3)
0x00d0|15                                             |.               |              pad: 0 0xd0-0xd0.1 (0.1)
0x00d0|15 c7                                          |..              |              language: "eng" 0xd0.1-0xd2 (1.7)
      |00 01 02 03 04 05 06 07 08 09 0a 0b 0c 0d 0e 0f|0123456789abcdef|              data{}: (id3v2) 0xd2-0x124 (82)
      |                                               |                |                header{}: 0xd2-0xdc (10)
0x00d0|      49 44 33                                 |  ID3           |                  magic: "ID3" (valid) 0xd2-0xd5 (3)
0x00d0|               04                              |     .          |                  version: 4 (valid) 0xd5-0xd6 (1)
0x00d0|                  00                           |      .         |                  revision: 0 0xd6-0xd7 (1)
      |                                               |                |                  flags{}: 0xd7-0xd8 (1)
0x00d0|                     00                        |       .        |                    unsynchronisation: false 0xd7-0xd7.1 (0.1)
0x00d0|                     00                        |       .        |                    extended_header: false 0xd7.1-0xd7.2 (0.1)
0x00d0|                     00                        |       .        |                    experimental_indicator: false 0xd7.2-0xd7.3 (0.1)
0x00d0|                     00                        |       .        |                    unused: 0 0xd7.3-0xd8 (0.5)
0x00d0|                        00 00 00 48            |        ...H    |                  size: 72 0xd8-0xdc (4)
      |                                               |                |                frames[0:1]: 0xdc-0x124 (72)
      |                                               |                |                  [0]{}: frame 0xdc-0x124 (72)
0x00d0|                                    50 52 49 56|            PRIV|                    id: "PRIV" (Private frame) 0xdc-0xe0 (4)
0x00e0|00 00 00 3e                                    |...>            |                    size: 62 0xe0-0xe4 (4)
      |                                               |                |                    flags{}: 0xe4-0xe6 (2)
0x00e0|            00                                 |    .           |                      unused0: 0 0xe4-0xe4.1 (0.1)
0x00e0|            00                                 |    .           |                      tag_alter_preservation: false 0xe4.1-0xe4.2 (0.1)
0x00e0|            00                                 |    .           |                      file_alter_preservation: false 0xe4.2-0xe4.3 (0.1)
0x00e0|            00                                 |    .           |                      read_only: false 0xe4.3-0xe4.4 (0.1)
0x00e0|            00 00                              |    ..          |                      unused1: 0 0xe4.4-0xe5.1 (0.5)
0x00e0|               00                              |     .          |                      grouping_identity: false 0xe5.1-0xe5.2 (0.1)
0x00e0|               00                              |     .          |                      unused2: 0 0xe5.2-0xe5.4 (0.2)
0x00e0|               00                              |     .          |                      compression: false 0xe5.4-0xe5.5 (0.1)
0x00e0|               00                              |     .          |                      encryption: false 0xe5.5-0xe5.6 (0.1)
0x00e0|               00                              |     .          |                      unsync: false 0xe5.6-0xe5.7 (0.1)
0x00e0|               00                              |     .          |                      data_length_indicator: false 0xe5.7-0xe6 (0.1)
0x00e0|                  68 74 74 70 73 3a 2f 2f 67 69|      https://gi|                    owner: "https://github.com/shaka-project/shaka-packager" 0xe6-0x116 (48)
0x00f0|74 68 75 62 2e 63 6f 6d 2f 73 68 61 6b 61 2d 70|thub.com/shaka-p|
*     |until 0x115.7 (48)                             |                |
0x0110|                  76 33 2e 32 2e 30 2d 72 65 6c|      v3.2.0-rel|                    data: raw bits 0x116-0x124 (14)
0x0120|65 61 73 65                                    |ease            |
      |                                               |                |        [2]{}: box 0x124-0x300 (476)
0x0120|            00 00 01 dc                        |    ....        |          size: 476 0x124-0x128 (4)
0x0120|                        74 72 61 6b            |        trak    |          type: "trak" (Container for an individual track or stream) 0x128-0x12c (4)
      |                                               |                |          boxes[0:3]: 0x12c-0x300 (468)
      |                                               |                |            [0]{}: box 0x12c-0x188 (92)
0x0120|                                    00 00 00 5c|            ...\|              size: 92 0x12c-0x130 (4)
0x0130|74 6b 68 64                                    |tkhd            |              type: "tkhd" (Track header, overall information about the track) 0x130-0x134 (4)
0x0130|            00                                 |    .           |              version: 0 0x134-0x135 (1)
      |                                               |                |              flags{}: 0x135-0x138 (3)
0x0130|               00 00 07                        |     ...        |                unused: 0 0x135-0x137.4 (2.4)
0x0130|                     07                        |       .        |                size_is_aspect_ratio: false 0x137.4-0x137.5 (0.1)
0x0130|                     07                        |       .        |                in_preview: true 0x137.5-0x137.6 (0.1)
0x0130|                     07                        |       .        |                in_movie: true 0x137.6-0x137.7 (0.1)
0x0130|                     07                        |       .        |                enabled: true 0x137.7-0x138 (0.1)
0x0130|                        e4 da fa 22            |        ..."    |              creation_time: 3839556130 (2025-09-01T07:22:10Z) 0x138-0x13c (4)
0x0130|                                    e4 da fa 22|            ..."|              modification_time: 3839556130 (2025-09-01T07:22:10Z) 0x13c-0x140 (4)
0x0140|00 00 00 01                                    |....            |              track_id: 1 0x140-0x144 (4)
0x0140|            00 00 00 00                        |    ....        |              reserved1: 0 0x144-0x148 (4)
0x0140|                        00 00 00 00            |        ....    |              duration: 0 0x148-0x14c (4)
0x0140|                                    00 00 00 00|            ....|              reserved2: raw bits 0x14c-0x154 (8)
0x0150|00 00 00 00                                    |....            |
0x0150|            00 00                              |    ..          |              layer: 0 0x154-0x156 (2)
0x0150|                  00 00                        |      ..        |              alternate_group: 0 0x156-0x158 (2)
0x0150|                        01 00                  |        ..      |              volume: 1 0x158-0x15a (2)
0x0150|                              00 00            |          ..    |              reserved3: 0 0x15a-0x15c (2)
      |                                               |                |              matrix_structure{}: 0x15c-0x180 (36)
0x0150|                                    00 01 00 00|            ....|                a: 1 0x15c-0x160 (4)
0x0160|00 00 00 00                                    |....            |                b: 0 0x160-0x164 (4)
0x0160|            00 00 00 00                        |    ....        |                u: 0 0x164-0x168 (4)
0x0160|                        00 00 00 00            |        ....    |                c: 0 0x168-0x16c (4)
0x0160|                                    00 01 00 00|            ....|                d: 1 0x16c-0x170 (4)
0x0170|00 00 00 00                                    |....            |                v: 0 0x170-0x174 (4)
0x0170|            00 00 00 00                        |    ....        |                x: 0 0x174-0x178 (4)
0x0170|                        00 00 00 00            |        ....    |                y: 0 0x178-0x17c (4)
0x0170|                                    40 00 00 00|            @...|                w: 1 0x17c-0x180 (4)
0x0180|00 00 00 00                                    |....            |              track_width: 0 0x180-0x184 (4)
0x0180|            00 00 00 00                        |    ....        |              track_height: 0 0x184-0x188 (4)
      |                                               |                |            [1]{}: box 0x188-0x2dc (340)
0x0180|                        00 00 01 54            |        ...T    |              size: 340 0x188-0x18c (4)
0x0180|                                    6d 64 69 61|            mdia|              type: "mdia" (Container for the media information in a track) 0x18c-0x190 (4)
      |                                               |                |              boxes[0:3]: 0x190-0x2dc (332)
      |                                               |                |                [0]{}: box 0x190-0x1b0 (32)
0x0190|00 00 00 20                                    |...             |                  size: 32 0x190-0x194 (4)
0x0190|            6d 64 68 64                        |    mdhd        |                  type: "mdhd" (Media header, overall information about the media) 0x194-0x198 (4)
0x0190|                        00                     |        .       |                  version: 0 0x198-0x199 (1)
0x0190|                           00 00 00            |         ...    |                  flags: 0 0x199-0x19c (3)
0x0190|                                    e4 da fa 22|            ..."|                  creation_time: 3839556130 (2025-09-01T07:22:10Z) 0x19c-0x1a0 (4)
0x01a0|e4 da fa 22                                    |..."            |                  modification_time: 3839556130 (2025-09-01T07:22:10Z) 0x1a0-0x1a4 (4)
0x01a0|            00 00 ac 44                        |    ...D        |                  time_scale: 44100 0x1a4-0x1a8 (4)
0x01a0|                        00 00 00 00            |        ....    |                  duration: 0 0x1a8-0x1ac (4)
0x01a0|                                    55 c4      |            U.  |                  language: "und" 0x1ac-0x1ae (2)
0x01a0|                                          00 00|              ..|                  quality: 0 0x1ae-0x1b0 (2)
      |                                               |                |                [1]{}: box 0x1b0-0x1dd (45)
0x01b0|00 00 00 2d                                    |...-            |                  size: 45 0x1b0-0x1b4 (4)
0x01b0|            68 64 6c 72                        |    hdlr        |                  type: "hdlr" (Handler, declares the media (handler) type) 0x1b4-0x1b8 (4)
0x01b0|                        00                     |        .       |                  version: 0 0x1b8-0x1b9 (1)
0x01b0|                           00 00 00            |         ...    |                  flags: 0 0x1b9-0x1bc (3)
0x01b0|                                    00 00 00 00|            ....|                  component_type: "" 0x1bc-0x1c0 (4)
0x01c0|73 6f 75 6e                                    |soun            |                  component_subtype: "soun" (Audio Track) 0x1c0-0x1c4 (4)
0x01c0|            00 00 00 00                        |    ....        |                  component_manufacturer: "" 0x1c4-0x1c8 (4)
0x01c0|                        00 00 00 00            |        ....    |                  component_flags: 0 0x1c8-0x1cc (4)
0x01c0|                                    00 00 00 00|            ....|                  component_flags_mask: 0 0x1cc-0x1d0 (4)
0x01d0|53 6f 75 6e 64 48 61 6e 64 6c 65 72 00         |SoundHandler.   |                  component_name: "SoundHandler" 0x1d0-0x1dd (13)
      |                                               |                |                [2]{}: box 0x1dd-0x2dc (255)
0x01d0|                                       00 00 00|             ...|                  size: 255 0x1dd-0x1e1 (4)
0x01e0|ff                                             |.               |
0x01e0|   6d 69 6e 66                                 | minf           |                  type: "minf" (Media information container) 0x1e1-0x1e5 (4)
      |                                               |                |                  boxes[0:3]: 0x1e5-0x2dc (247)
      |                                               |                |                    [0]{}: box 0x1e5-0x209 (36)
0x01e0|               00 00 00 24                     |     ...$       |                      size: 36 0x1e5-0x1e9 (4)
0x01e0|                           64 69 6e 66         |         dinf   |                      type: "dinf" (Data information box, container) 0x1e9-0x1ed (4)
      |                                               |                |                      boxes[0:1]: 0x1ed-0x209 (28)
      |                                               |                |                        [0]{}: box 0x1ed-0x209 (28)
0x01e0|                                       00 00 00|             ...|                          size: 28 0x1ed-0x1f1 (4)
0x01f0|1c                                             |.               |
0x01f0|   64 72 65 66                                 | dref           |                          type: "dref" (Data reference box, declares source(s) of media data in track) 0x1f1-0x1f5 (4)
0x01f0|               00                              |     .          |                          version: 0 0x1f5-0x1f6 (1)
0x01f0|                  00 00 00                     |      ...       |                          flags: 0 0x1f6-0x1f9 (3)
0x01f0|                           00 00 00 01         |         ....   |                          entry_count: 1 0x1f9-0x1fd (4)
      |                                               |                |                          boxes[0:1]: 0x1fd-0x209 (12)
      |                                               |                |                            [0]{}: box 0x1fd-0x209 (12)
0x01f0|                                       00 00 00|             ...|                              size: 12 0x1fd-0x201 (4)
0x0200|0c                                             |.               |
0x0200|   75 72 6c 20                                 | url            |                              type: "url" 0x201-0x205 (4)
0x0200|               00                              |     .          |                              version: 0 0x205-0x206 (1)
0x0200|                  00 00 01                     |      ...       |                              flags: 1 0x206-0x209 (3)
      |                                               |                |                              data: "" 0x209-0x209 (0)
      |                                               |                |                    [1]{}: box 0x209-0x2cc (195)
0x0200|                           00 00 00 c3         |         ....   |                      size: 195 0x209-0x20d (4)
0x0200|                                       73 74 62|             stb|                      type: "stbl" (Sample table box, container for the time/space map) 0x20d-0x211 (4)
0x0210|6c                                             |l               |
      |                                               |                |                      boxes[0:6]: 0x211-0x2cc (187)
      |                                               |                |                        [0]{}: box 0x211-0x26e (93)
0x0210|   00 00 00 5d                                 | ...]           |                          size: 93 0x211-0x215 (4)
0x0210|               73 74 73 64                     |     stsd       |                          type: "stsd" (Sample descriptions (codec types, initialization etc.)) 0x215-0x219 (4)
0x0210|                           00                  |         .      |                          version: 0 0x219-0x21a (1)
0x0210|                              00 00 00         |          ...   |                          flags: 0 0x21a-0x21d (3)
0x0210|                                       00 00 00|             ...|                          entry_count: 1 0x21d-0x221 (4)
0x0220|01                                             |.               |
      |                                               |                |                          boxes[0:1]: 0x221-0x26e (77)
      |                                               |                |                            [0]{}: box 0x221-0x26e (77)
0x0220|   00 00 00 4d                                 | ...M           |                              size: 77 0x221-0x225 (4)
0x0220|               6d 70 34 61                     |     mp4a       |                              type: "mp4a" (MPEG-4 Audio) 0x225-0x229 (4)
0x0220|                           00 00 00 00 00 00   |         ...... |                              reserved: raw bits 0x229-0x22f (6)
0x0220|                                             00|               .|                              data_reference_index: 1 0x22f-0x231 (2)
0x0230|01                                             |.               |
0x0230|   00 00                                       | ..             |                              version: 0 0x231-0x233 (2)
0x0230|         00 00                                 |   ..           |                              revision_level: 0 0x233-0x235 (2)
0x0230|               00 00 00 00                     |     ....       |                              max_packet_size: 0 0x235-0x239 (4)
0x0230|                           00 02               |         ..     |                              num_audio_channels: 2 0x239-0x23b (2)
0x0230|                                 00 10         |           ..   |                              sample_size: 16 0x23b-0x23d (2)
0x0230|                                       00 00   |             .. |                              compression_id: 0 0x23d-0x23f (2)
0x0230|                                             00|               .|                              packet_size: 0 0x23f-0x241 (2)
0x0240|00                                             |.               |
0x0240|   ac 44 00 00                                 | .D..           |                              sample_rate: 44100 0x241-0x245 (4)
      |                                               |                |                              boxes[0:1]: 0x245-0x26e (41)
      |                                               |                |                                [0]{}: box 0x245-0x26e (41)
0x0240|               00 00 00 29                     |     ...)       |                                  size: 41 0x245-0x249 (4)
0x0240|                           65 73 64 73         |         esds   |                                  type: "esds" (Elementary stream descriptor) 0x249-0x24d (4)
0x0240|                                       00 00 00|             ...|                                  version: 0 0x24d-0x251 (4)
0x0250|00                                             |.               |
      |00 01 02 03 04 05 06 07 08 09 0a 0b 0c 0d 0e 0f|0123456789abcdef|                                  descriptor{}: (mpeg_es) 0x251-0x26e (29)
0x0250|   03                                          | .              |                                    tag_id: "ES_DescrTag" (3) 0x251-0x252 (1)
0x0250|      1b                                       |  .             |                                    length: 27 0x252-0x253 (1)
0x0250|         00 00                                 |   ..           |                                    es_id: 0 0x253-0x255 (2)
0x0250|               00                              |     .          |                                    stream_dependency_flag: false 0x255-0x255.1 (0.1)
0x0250|               00                              |     .          |                                    url_flag: false 0x255.1-0x255.2 (0.1)
0x0250|               00                              |     .          |                                    ocr_stream_flag: false 0x255.2-0x255.3 (0.1)
0x0250|               00                              |     .          |                                    stream_priority: 0 0x255.3-0x256 (0.5)
      |                                               |                |                                    dec_config_descr{}: 0x256-0x26b (21)
0x0250|                  04                           |      .         |                                      tag_id: "DecoderConfigDescrTag" (4) 0x256-0x257 (1)
0x0250|                     13                        |       .        |                                      length: 19 0x257-0x258 (1)
0x0250|                        40                     |        @       |                                      object_type_indication: "MPEGObjectTypeAAC" (64) 0x258-0x259 (1)
0x0250|                           15                  |         .      |                                      stream_type: "AudioStream" (5) 0x259-0x259.6 (0.6)
0x0250|                           15                  |         .      |                                      upstream: false 0x259.6-0x259.7 (0.1)
0x0250|                           15                  |         .      |                                      specific_info_flag: true 0x259.7-0x25a (0.1)
0x0250|                              00 00 00         |          ...   |                                      buffer_size_db: 0 0x25a-0x25d (3)
0x0250|                                       00 01 02|             ...|                                      max_bit_rate: 66261 0x25d-0x261 (4)
0x0260|d5                                             |.               |
0x0260|   00 01 02 d5                                 | ....           |                                      avg_bit_rate: 66261 0x261-0x265 (4)
      |                                               |                |                                      decoder_specific_info{}: 0x265-0x26b (6)
0x0260|               05                              |     .          |                                        tag_id: "DecSpecificInfoTag" (5) 0x265-0x266 (1)
0x0260|                  04                           |      .         |                                        length: 4 0x266-0x267 (1)
      |00 01 02 03 04 05 06 07 08 09 0a 0b 0c 0d 0e 0f|0123456789abcdef|                                        audio_specific_config{}: (mpeg_asc) 0x267-0x26b (4)
0x0260|                     2b                        |       +        |                                          object_type: "sbr" (5) (Spectral Band Replication) 0x267-0x267.5 (0.5)
0x0260|                     2b 92                     |       +.       |                                          sampling_frequency: 22050 (7) 0x267.5-0x268.1 (0.4)
0x0260|                        92                     |        .       |                                          channel_configuration: 2 (front-left, front-right) 0x268.1-0x268.5 (0.4)
0x0260|                        92 08                  |        ..      |                                          extension_sampling_frequency: 44100 (4) 0x268.5-0x269.1 (0.4)
0x0260|                           08                  |         .      |                                          inner_object_type: "aac_lc" (2) (AAC Low Complexity) 0x269.1-0x269.6 (0.5)
0x0260|                           08 00               |         ..     |                                          var_aot_or_byte_align: raw bits 0x269.6-0x26b (1.2)
      |                                               |                |                                    sl_config_descr{}: 0x26b-0x26e (3)
0x0260|                                 06            |           .    |                                      tag_id: "SLConfigDescrTag" (6) 0x26b-0x26c (1)
0x0260|                                    01         |            .   |                                      length: 1 0x26c-0x26d (1)
0x0260|                                       02      |             .  |                                      data: raw bits 0x26d-0x26e (1)
      |                                               |                |                        [1]{}: box 0x26e-0x27e (16)
0x0260|                                          00 00|              ..|                          size: 16 0x26e-0x272 (4)
0x0270|00 10                                          |..              |
0x0270|      73 74 74 73                              |  stts          |                          type: "stts" (Sample time-to-sample) 0x272-0x276 (4)
0x0270|                  00                           |      .         |                          version: 0 0x276-0x277 (1)
0x0270|                     00 00 00                  |       ...      |                          flags: 0 0x277-0x27a (3)
0x0270|                              00 00 00 00      |          ....  |                          entry_count: 0 0x27a-0x27e (4)
      |                                               |                |                          entries[0:0]: 0x27e-0x27e (0)
      |                                               |                |                        [2]{}: box 0x27e-0x28e (16)
0x0270|                                          00 00|              ..|                          size: 16 0x27e-0x282 (4)
0x0280|00 10                                          |..              |
0x0280|      73 74 73 63                              |  stsc          |                          type: "stsc" (Sample-to-chunk, partial data-offset information) 0x282-0x286 (4)
0x0280|                  00                           |      .         |                          version: 0 0x286-0x287 (1)
0x0280|                     00 00 00                  |       ...      |                          flags: 0 0x287-0x28a (3)
0x0280|                              00 00 00 00      |          ....  |                          entry_count: 0 0x28a-0x28e (4)
      |                                               |                |                          entries[0:0]: 0x28e-0x28e (0)
      |                                               |                |                        [3]{}: box 0x28e-0x2a2 (20)
0x0280|                                          00 00|              ..|                          size: 20 0x28e-0x292 (4)
0x0290|00 14                                          |..              |
0x0290|      73 74 73 7a                              |  stsz          |                          type: "stsz" (Sample sizes (framing)) 0x292-0x296 (4)
0x0290|                  00                           |      .         |                          version: 0 0x296-0x297 (1)
0x0290|                     00 00 00                  |       ...      |                          flags: 0 0x297-0x29a (3)
0x0290|                              00 00 00 00      |          ....  |                          sample_size: 0 0x29a-0x29e (4)
0x0290|                                          00 00|              ..|                          entry_count: 0 0x29e-0x2a2 (4)
0x02a0|00 00                                          |..              |
      |                                               |                |                          entries[0:0]: 0x2a2-0x2a2 (0)
      |                                               |                |                        [4]{}: box 0x2a2-0x2b2 (16)
0x02a0|      00 00 00 10                              |  ....          |                          size: 16 0x2a2-0x2a6 (4)
0x02a0|                  73 74 63 6f                  |      stco      |                          type: "stco" (Chunk offset, partial data-offset information) 0x2a6-0x2aa (4)
0x02a0|                              00               |          .     |                          version: 0 0x2aa-0x2ab (1)
0x02a0|                                 00 00 00      |           ...  |                          flags: 0 0x2ab-0x2ae (3)
0x02a0|                                          00 00|              ..|                          entry_count: 0 0x2ae-0x2b2 (4)
0x02b0|00 00                                          |..              |
      |                                               |                |                          entries[0:0]: 0x2b2-0x2b2 (0)
      |                                               |                |                        [5]{}: box 0x2b2-0x2cc (26)
0x02b0|      00 00 00 1a                              |  ....          |                          size: 26 0x2b2-0x2b6 (4)
0x02b0|                  73 67 70 64                  |      sgpd      |                          type: "sgpd" (Sample group definition box) 0x2b6-0x2ba (4)
0x02b0|                              01               |          .     |                          version: 1 0x2ba-0x2bb (1)
0x02b0|                                 00 00 00      |           ...  |                          flags: 0 0x2bb-0x2be (3)
0x02b0|                                          72 6f|              ro|                          grouping_type: "roll" 0x2be-0x2c2 (4)
0x02c0|6c 6c                                          |ll              |
0x02c0|      00 00 00 02                              |  ....          |                          default_length: 2 0x2c2-0x2c6 (4)
0x02c0|                  00 00 00 01                  |      ....      |                          entry_count: 1 0x2c6-0x2ca (4)
      |                                               |                |                          entries[0:1]: 0x2ca-0x2cc (2)
      |                                               |                |                            [0]{}: entry 0x2ca-0x2cc (2)
0x02c0|                              ff ff            |          ..    |                              roll_distance: 65535 0x2ca-0x2cc (2)
      |                                               |                |                    [2]{}: box 0x2cc-0x2dc (16)
0x02c0|                                    00 00 00 10|            ....|                      size: 16 0x2cc-0x2d0 (4)
0x02d0|73 6d 68 64                                    |smhd            |                      type: "smhd" (Sound media header, overall information (sound track only)) 0x2d0-0x2d4 (4)
0x02d0|            00                                 |    .           |                      version: 0 0x2d4-0x2d5 (1)
0x02d0|               00 00 00                        |     ...        |                      flags: 0 0x2d5-0x2d8 (3)
0x02d0|                        00 00                  |        ..      |                      balance: 0 0x2d8-0x2da (2)
0x02d0|                              00 00            |          ..    |                      reserved: 0 0x2da-0x2dc (2)
      |                                               |                |            [2]{}: box 0x2dc-0x300 (36)
0x02d0|                                    00 00 00 24|            ...$|              size: 36 0x2dc-0x2e0 (4)
0x02e0|65 64 74 73                                    |edts            |              type: "edts" (Edit list container) 0x2e0-0x2e4 (4)
      |                                               |                |              boxes[0:1]: 0x2e4-0x300 (28)
      |                                               |                |                [0]{}: box 0x2e4-0x300 (28)
0x02e0|            00 00 00 1c                        |    ....        |                  size: 28 0x2e4-0x2e8 (4)
0x02e0|                        65 6c 73 74            |        elst    |                  type: "elst" (An edit list) 0x2e8-0x2ec (4)
0x02e0|                                    00         |            .   |                  version: 0 0x2ec-0x2ed (1)
0x02e0|                                       00 00 00|             ...|                  flags: 0 0x2ed-0x2f0 (3)
0x02f0|00 00 00 01                                    |....            |                  entry_count: 1 0x2f0-0x2f4 (4)
      |                                               |                |                  entries[0:1]: 0x2f4-0x300 (12)
      |                                               |                |                    [0]{}: entry 0x2f4-0x300 (12)
0x02f0|            00 00 00 00                        |    ....        |                      segment_duration: 0 0x2f4-0x2f8 (4)
0x02f0|                        00 00 13 c2            |        ....    |                      media_time: 5058 0x2f8-0x2fc (4)
0x02f0|                                    00 01 00 00|            ....|                      media_rate: 1 0x2fc-0x300 (4)
      |                                               |                |        [3]{}: box 0x300-0x338 (56)
0x0300|00 00 00 38                                    |...8            |          size: 56 0x300-0x304 (4)
0x0300|            6d 76 65 78                        |    mvex        |          type: "mvex" (Movie extends box) 0x304-0x308 (4)
      |                                               |                |          boxes[0:2]: 0x308-0x338 (48)
      |                                               |                |            [0]{}: box 0x308-0x318 (16)
0x0300|                        00 00 00 10            |        ....    |              size: 16 0x308-0x30c (4)
0x0300|                                    6d 65 68 64|            mehd|              type: "mehd" (Movie extends header box) 0x30c-0x310 (4)
0x0310|00                                             |.               |              version: 0 0x310-0x311 (1)
0x0310|   00 00 00                                    | ...            |              flags: 0 0x311-0x314 (3)
0x0310|            00 18 bb 82                        |    ....        |              fragment_duration: 1620866 0x314-0x318 (4)
      |                                               |                |            [1]{}: box 0x318-0x338 (32)
0x0310|                        00 00 00 20            |        ...     |              size: 32 0x318-0x31c (4)
0x0310|                                    74 72 65 78|            trex|              type: "trex" (Track extends defaults) 0x31c-0x320 (4)
0x0320|00                                             |.               |              version: 0 0x320-0x321 (1)
0x0320|   00 00 00                                    | ...            |              flags: 0 0x321-0x324 (3)
0x0320|            00 00 00 01                        |    ....        |              track_id: 1 0x324-0x328 (4)
0x0320|                        00 00 00 01            |        ....    |              default_sample_description_index: 1 0x328-0x32c (4)
0x0320|                                    00 00 08 00|            ....|              default_sample_duration: 2048 0x32c-0x330 (4)
0x0330|00 00 00 00                                    |....            |              default_sample_size: 0 0x330-0x334 (4)
      |                                               |                |              default_sample_flags{}: 0x334-0x338 (4)
0x0330|            00                                 |    .           |                reserved0: 0 0x334-0x334.4 (0.4)
0x0330|            00                                 |    .           |                is_leading: 0 0x334.4-0x334.6 (0.2)
0x0330|            00                                 |    .           |                sample_depends_on: "unknown" (0) 0x334.6-0x335 (0.2)
0x0330|               00                              |     .          |                sample_is_depended_on: "unknown" (0) 0x335-0x335.2 (0.2)
0x0330|               00                              |     .          |                sample_has_redundancy: "unknown" (0) 0x335.2-0x335.4 (0.2)
0x0330|               00                              |     .          |                sample_padding_value: 0 0x335.4-0x335.7 (0.3)
0x0330|               00                              |     .          |                sample_is_non_sync_sample: 0 0x335.7-0x336 (0.1)
0x0330|                  00 00                        |      ..        |                sample_degradation_priority: 0 0x336-0x338 (2)
      |                                               |                |    [2]{}: box 0x338-0x43c (260)
0x0330|                        00 00 01 04            |        ....    |      size: 260 0x338-0x33c (4)
0x0330|                                    73 69 64 78|            sidx|      type: "sidx" (Segment Index Box) 0x33c-0x340 (4)
0x0340|00                                             |.               |      version: 0 0x340-0x341 (1)
0x0340|   00 00 00                                    | ...            |      flags: 0 0x341-0x344 (3)
0x0340|            00 00 00 01                        |    ....        |      reference_id: 1 0x344-0x348 (4)
0x0340|                        00 00 ac 44            |        ...D    |      timescale: 44100 0x348-0x34c (4)
0x0340|                                    00 00 00 00|            ....|      pts: 0 0x34c-0x350 (4)
0x0350|00 00 00 00                                    |....            |      offset: 0 0x350-0x354 (4)
0x0350|            00 00                              |    ..          |      reserved: 0 0x354-0x356 (2)
0x0350|                  00 13                        |      ..        |      entry_count: 19 0x356-0x358 (2)
      |                                               |                |      entries[0:19]: 0x358-0x43c (228)
      |                                               |                |        [0]{}: entry 0x358-0x364 (12)
0x0350|                        00                     |        .       |          reference_type: 0 0x358-0x358.1 (0.1)
0x0350|                        00 00 45 d2            |        ..E.    |          size: 17874 0x358.1-0x35c (3.7)
0x0350|                                    00 01 5c 3e|            ..\>|          duration: 89150 0x35c-0x360 (4)
0x0360|90                                             |.               |          starts_with_sap: 1 0x360-0x360.1 (0.1)
0x0360|90                                             |.               |          sap_type: 1 0x360.1-0x360.4 (0.3)
0x0360|90 00 00 00                                    |....            |          sap_delta_time: 0 0x360.4-0x364 (3.4)
      |                                               |                |        [1]{}: entry 0x364-0x370 (12)
0x0360|            00                                 |    .           |          reference_type: 0 0x364-0x364.1 (0.1)
0x0360|            00 00 41 3c                        |    ..A<        |          size: 16700 0x364.1-0x368 (3.7)
0x0360|                        00 01 58 00            |        ..X.    |          duration: 88064 0x368-0x36c (4)
0x0360|                                    90         |            .   |          starts_with_sap: 1 0x36c-0x36c.1 (0.1)
0x0360|                                    90         |            .   |          sap_type: 1 0x36c.1-0x36c.4 (0.3)
0x0360|                                    90 00 00 00|            ....|          sap_delta_time: 0 0x36c.4-0x370 (3.4)
      |                                               |                |        [2]{}: entry 0x370-0x37c (12)
0x0370|00                                             |.               |          reference_type: 0 0x370-0x370.1 (0.1)
0x0370|00 00 41 1a                                    |..A.            |          size: 16666 0x370.1-0x374 (3.7)
0x0370|            00 01 58 00                        |    ..X.        |          duration: 88064 0x374-0x378 (4)
0x0370|                        90                     |        .       |          starts_with_sap: 1 0x378-0x378.1 (0.1)
0x0370|                        90                     |        .       |          sap_type: 1 0x378.1-0x378.4 (0.3)
0x0370|                        90 00 00 00            |        ....    |          sap_delta_time: 0 0x378.4-0x37c (3.4)
      |                                               |                |        [3]{}: entry 0x37c-0x388 (12)
0x0370|                                    00         |            .   |          reference_type: 0 0x37c-0x37c.1 (0.1)
0x0370|                                    00 00 43 1f|            ..C.|          size: 17183 0x37c.1-0x380 (3.7)
0x0380|00 01 58 00                                    |..X.            |          duration: 88064 0x380-0x384 (4)
0x0380|            90                                 |    .           |          starts_with_sap: 1 0x384-0x384.1 (0.1)
0x0380|            90                                 |    .           |          sap_type: 1 0x384.1-0x384.4 (0.3)
0x0380|            90 00 00 00                        |    ....        |          sap_delta_time: 0 0x384.4-0x388 (3.4)
      |                                               |                |        [4]{}: entry 0x388-0x394 (12)
0x0380|                        00                     |        .       |          reference_type: 0 0x388-0x388.1 (0.1)
0x0380|                        00 00 41 ac            |        ..A.    |          size: 16812 0x388.1-0x38c (3.7)
0x0380|                                    00 01 58 00|            ..X.|          duration: 88064 0x38c-0x390 (4)
0x0390|90                                             |.               |          starts_with_sap: 1 0x390-0x390.1 (0.1)
0x0390|90                                             |.               |          sap_type: 1 0x390.1-0x390.4 (0.3)
0x0390|90 00 00 00                                    |....            |          sap_delta_time: 0 0x390.4-0x394 (3.4)
      |                                               |                |        [5]{}: entry 0x394-0x3a0 (12)
0x0390|            00                                 |    .           |          reference_type: 0 0x394-0x394.1 (0.1)
0x0390|            00 00 40 78                        |    ..@x        |          size: 16504 0x394.1-0x398 (3.7)
0x0390|                        00 01 58 00            |        ..X.    |          duration: 88064 0x398-0x39c (4)
0x0390|                                    90         |            .   |          starts_with_sap: 1 0x39c-0x39c.1 (0.1)
0x0390|                                    90         |            .   |          sap_type: 1 0x39c.1-0x39c.4 (0.3)
0x0390|                                    90 00 00 00|            ....|          sap_delta_time: 0 0x39c.4-0x3a0 (3.4)
      |                                               |                |        [6]{}: entry 0x3a0-0x3ac (12)
0x03a0|00                                             |.               |          reference_type: 0 0x3a0-0x3a0.1 (0.1)
0x03a0|00 00 40 f3                                    |..@.            |          size: 16627 0x3a0.1-0x3a4 (3.7)
0x03a0|            00 01 58 00                        |    ..X.        |          duration: 88064 0x3a4-0x3a8 (4)
0x03a0|                        90                     |        .       |          starts_with_sap: 1 0x3a8-0x3a8.1 (0.1)
0x03a0|                        90                     |        .       |          sap_type: 1 0x3a8.1-0x3a8.4 (0.3)
0x03a0|                        90 00 00 00            |        ....    |          sap_delta_time: 0 0x3a8.4-0x3ac (3.4)
      |                                               |                |        [7]{}: entry 0x3ac-0x3b8 (12)
0x03a0|                                    00         |            .   |          reference_type: 0 0x3ac-0x3ac.1 (0.1)
0x03a0|                                    00 00 43 36|            ..C6|          size: 17206 0x3ac.1-0x3b0 (3.7)
0x03b0|00 01 60 00                                    |..`.            |          duration: 90112 0x3b0-0x3b4 (4)
0x03b0|            90                                 |    .           |          starts_with_sap: 1 0x3b4-0x3b4.1 (0.1)
0x03b0|            90                                 |    .           |          sap_type: 1 0x3b4.1-0x3b4.4 (0.3)
0x03b0|            90 00 00 00                        |    ....        |          sap_delta_time: 0 0x3b4.4-0x3b8 (3.4)
      |                                               |                |        [8]{}: entry 0x3b8-0x3c4 (12)
0x03b0|                        00                     |        .       |          reference_type: 0 0x3b8-0x3b8.1 (0.1)
0x03b0|                        00 00 42 03            |        ..B.    |          size: 16899 0x3b8.1-0x3bc (3.7)
0x03b0|                                    00 01 58 00|            ..X.|          duration: 88064 0x3bc-0x3c0 (4)
0x03c0|90                                             |.               |          starts_with_sap: 1 0x3c0-0x3c0.1 (0.1)
0x03c0|90                                             |.               |          sap_type: 1 0x3c0.1-0x3c0.4 (0.3)
0x03c0|90 00 00 00                                    |....            |          sap_delta_time: 0 0x3c0.4-0x3c4 (3.4)
      |                                               |                |        [9]{}: entry 0x3c4-0x3d0 (12)
0x03c0|            00                                 |    .           |          reference_type: 0 0x3c4-0x3c4.1 (0.1)
0x03c0|            00 00 41 64                        |    ..Ad        |          size: 16740 0x3c4.1-0x3c8 (3.7)
0x03c0|                        00 01 58 00            |        ..X.    |          duration: 88064 0x3c8-0x3cc (4)
0x03c0|                                    90         |            .   |          starts_with_sap: 1 0x3cc-0x3cc.1 (0.1)
0x03c0|                                    90         |            .   |          sap_type: 1 0x3cc.1-0x3cc.4 (0.3)
0x03c0|                                    90 00 00 00|            ....|          sap_delta_time: 0 0x3cc.4-0x3d0 (3.4)
      |                                               |                |        [10]{}: entry 0x3d0-0x3dc (12)
0x03d0|00                                             |.               |          reference_type: 0 0x3d0-0x3d0.1 (0.1)
0x03d0|00 00 44 71                                    |..Dq            |          size: 17521 0x3d0.1-0x3d4 (3.7)
0x03d0|            00 01 58 00                        |    ..X.        |          duration: 88064 0x3d4-0x3d8 (4)
0x03d0|                        90                     |        .       |          starts_with_sap: 1 0x3d8-0x3d8.1 (0.1)
0x03d0|                        90                     |        .       |          sap_type: 1 0x3d8.1-0x3d8.4 (0.3)
0x03d0|                        90 00 00 00            |        ....    |          sap_delta_time: 0 0x3d8.4-0x3dc (3.4)
      |                                               |                |        [11]{}: entry 0x3dc-0x3e8 (12)
0x03d0|                                    00         |            .   |          reference_type: 0 0x3dc-0x3dc.1 (0.1)
0x03d0|                                    00 00 42 b1|            ..B.|          size: 17073 0x3dc.1-0x3e0 (3.7)
0x03e0|00 01 58 00                                    |..X.            |          duration: 88064 0x3e0-0x3e4 (4)
0x03e0|            90                                 |    .           |          starts_with_sap: 1 0x3e4-0x3e4.1 (0.1)
0x03e0|            90                                 |    .           |          sap_type: 1 0x3e4.1-0x3e4.4 (0.3)
0x03e0|            90 00 00 00                        |    ....        |          sap_delta_time: 0 0x3e4.4-0x3e8 (3.4)
      |                                               |                |        [12]{}: entry 0x3e8-0x3f4 (12)
0x03e0|                        00                     |        .       |          reference_type: 0 0x3e8-0x3e8.1 (0.1)
0x03e0|                        00 00 43 71            |        ..Cq    |          size: 17265 0x3e8.1-0x3ec (3.7)
0x03e0|                                    00 01 58 00|            ..X.|          duration: 88064 0x3ec-0x3f0 (4)
0x03f0|90                                             |.               |          starts_with_sap: 1 0x3f0-0x3f0.1 (0.1)
0x03f0|90                                             |.               |          sap_type: 1 0x3f0.1-0x3f0.4 (0.3)
0x03f0|90 00 00 00                                    |....            |          sap_delta_time: 0 0x3f0.4-0x3f4 (3.4)
      |                                               |                |        [13]{}: entry 0x3f4-0x400 (12)
0x03f0|            00                                 |    .           |          reference_type: 0 0x3f4-0x3f4.1 (0.1)
0x03f0|            00 00 40 51                        |    ..@Q        |          size: 16465 0x3f4.1-0x3f8 (3.7)
0x03f0|                        00 01 58 00            |        ..X.    |          duration: 88064 0x3f8-0x3fc (4)
0x03f0|                                    90         |            .   |          starts_with_sap: 1 0x3fc-0x3fc.1 (0.1)
0x03f0|                                    90         |            .   |          sap_type: 1 0x3fc.1-0x3fc.4 (0.3)
0x03f0|                                    90 00 00 00|            ....|          sap_delta_time: 0 0x3fc.4-0x400 (3.4)
      |                                               |                |        [14]{}: entry 0x400-0x40c (12)
0x0400|00                                             |.               |          reference_type: 0 0x400-0x400.1 (0.1)
0x0400|00 00 40 21                                    |..@!            |          size: 16417 0x400.1-0x404 (3.7)
0x0400|            00 01 58 00                        |    ..X.        |          duration: 88064 0x404-0x408 (4)
0x0400|                        90                     |        .       |          starts_with_sap: 1 0x408-0x408.1 (0.1)
0x0400|                        90                     |        .       |          sap_type: 1 0x408.1-0x408.4 (0.3)
0x0400|                        90 00 00 00            |        ....    |          sap_delta_time: 0 0x408.4-0x40c (3.4)
      |                                               |                |        [15]{}: entry 0x40c-0x418 (12)
0x0400|                                    00         |            .   |          reference_type: 0 0x40c-0x40c.1 (0.1)
0x0400|                                    00 00 42 c8|            ..B.|          size: 17096 0x40c.1-0x410 (3.7)
0x0410|00 01 58 00                                    |..X.            |          duration: 88064 0x410-0x414 (4)
0x0410|            90                                 |    .           |          starts_with_sap: 1 0x414-0x414.1 (0.1)
0x0410|            90                                 |    .           |          sap_type: 1 0x414.1-0x414.4 (0.3)
0x0410|            90 00 00 00                        |    ....        |          sap_delta_time: 0 0x414.4-0x418 (3.4)
      |                                               |                |        [16]{}: entry 0x418-0x424 (12)
0x0410|                        00                     |        .       |          reference_type: 0 0x418-0x418.1 (0.1)
0x0410|                        00 00 42 7e            |        ..B~    |          size: 17022 0x418.1-0x41c (3.7)
0x0410|                                    00 01 58 00|            ..X.|          duration: 88064 0x41c-0x420 (4)
0x0420|90                                             |.               |          starts_with_sap: 1 0x420-0x420.1 (0.1)
0x0420|90                                             |.               |          sap_type: 1 0x420.1-0x420.4 (0.3)
0x0420|90 00 00 00                                    |....            |          sap_delta_time: 0 0x420.4-0x424 (3.4)
      |                                               |                |        [17]{}: entry 0x424-0x430 (12)
0x0420|            00                                 |    .           |          reference_type: 0 0x424-0x424.1 (0.1)
0x0420|            00 00 41 d3                        |    ..A.        |          size: 16851 0x424.1-0x428 (3.7)
0x0420|                        00 01 58 00            |        ..X.    |          duration: 88064 0x428-0x42c (4)
0x0420|                                    90         |            .   |          starts_with_sap: 1 0x42c-0x42c.1 (0.1)
0x0420|                                    90         |            .   |          sap_type: 1 0x42c.1-0x42c.4 (0.3)
0x0420|                                    90 00 00 00|            ....|          sap_delta_time: 0 0x42c.4-0x430 (3.4)
      |                                               |                |        [18]{}: entry 0x430-0x43c (12)
0x0430|00                                             |.               |          reference_type: 0 0x430-0x430.1 (0.1)
0x0430|00 00 14 6f                                    |...o            |          size: 5231 0x430.1-0x434 (3.7)
0x0430|            00 00 6b 82                        |    ..k.        |          duration: 27522 0x434-0x438 (4)
0x0430|                        90                     |        .       |          starts_with_sap: 1 0x438-0x438.1 (0.1)
0x0430|                        90                     |        .       |          sap_type: 1 0x438.1-0x438.4 (0.3)
0x0430|                        90 00 00 00            |        ....    |          sap_delta_time: 0 0x438.4-0x43c (3.4)
      |                                               |                |    [3]{}: box 0x43c-0x570 (308)
0x0430|                                    00 00 01 34|            ...4|      size: 308 0x43c-0x440 (4)
0x0440|6d 6f 6f 66                                    |moof            |      type: "moof" (Movie fragment) 0x440-0x444 (4)
      |                                               |                |      boxes[0:2]: 0x444-0x570 (300)
      |                                               |                |        [0]{}: box 0x444-0x454 (16)
0x0440|            00 00 00 10                        |    ....        |          size: 16 0x444-0x448 (4)
0x0440|                        6d 66 68 64            |        mfhd    |          type: "mfhd" (Movie fragment header) 0x448-0x44c (4)
0x0440|                                    00         |            .   |          version: 0 0x44c-0x44d (1)
0x0440|                                       00 00 00|             ...|          flags: 0 0x44d-0x450 (3)
0x0450|00 00 00 01                                    |....            |          sequence_number: 1 0x450-0x454 (4)
      |                                               |                |        [1]{}: box 0x454-0x570 (284)
0x0450|            00 00 01 1c                        |    ....        |          size: 284 0x454-0x458 (4)
0x0450|                        74 72 61 66            |        traf    |          type: "traf" (Track fragment) 0x458-0x45c (4)
      |                                               |                |          boxes[0:4]: 0x45c-0x570 (276)
      |                                               |                |            [0]{}: box 0x45c-0x478 (28)
0x0450|                                    00 00 00 1c|            ....|              size: 28 0x45c-0x460 (4)
0x0460|74 66 68 64                                    |tfhd            |              type: "tfhd" (Track fragment header) 0x460-0x464 (4)
0x0460|            00                                 |    .           |              version: 0 0x464-0x465 (1)
      |                                               |                |              flags{}: 0x465-0x468 (3)
0x0460|               02                              |     .          |                unused0: 1 0x465-0x465.7 (0.7)
0x0460|               02                              |     .          |                duration_is_empty: false 0x465.7-0x466 (0.1)
0x0460|                  00 2a                        |      .*        |                unused1: 0 0x466-0x467.2 (1.2)
0x0460|                     2a                        |       *        |                default_sample_flags_present: true 0x467.2-0x467.3 (0.1)
0x0460|                     2a                        |       *        |                default_sample_size_present: false 0x467.3-0x467.4 (0.1)
0x0460|                     2a                        |       *        |                default_sample_duration_present: true 0x467.4-0x467.5 (0.1)
0x0460|                     2a                        |       *        |                unused2: 0 0x467.5-0x467.6 (0.1)
0x0460|                     2a                        |       *        |                sample_description_index_present: true 0x467.6-0x467.7 (0.1)
0x0460|                     2a                        |       *        |                base_data_offset_present: false 0x467.7-0x468 (0.1)
0x0460|                        00 00 00 01            |        ....    |              track_id: 1 0x468-0x46c (4)
0x0460|                                    00 00 00 01|            ....|              sample_description_index: 1 0x46c-0x470 (4)
0x0470|00 00 08 00                                    |....            |              default_sample_duration: 2048 0x470-0x474 (4)
      |                                               |                |              default_sample_flags{}: 0x474-0x478 (4)
0x0470|            00                                 |    .           |                reserved0: 0 0x474-0x474.4 (0.4)
0x0470|            00                                 |    .           |                is_leading: 0 0x474.4-0x474.6 (0.2)
0x0470|            00                                 |    .           |                sample_depends_on: "unknown" (0) 0x474.6-0x475 (0.2)
0x0470|               00                              |     .          |                sample_is_depended_on: "unknown" (0) 0x475-0x475.2 (0.2)
0x0470|               00                              |     .          |                sample_has_redundancy: "unknown" (0) 0x475.2-0x475.4 (0.2)
0x0470|               00                              |     .          |                sample_padding_value: 0 0x475.4-0x475.7 (0.3)
0x0470|               00                              |     .          |                sample_is_non_sync_sample: 0 0x475.7-0x476 (0.1)
0x0470|                  00 00                        |      ..        |                sample_degradation_priority: 0 0x476-0x478 (2)
      |                                               |                |            [1]{}: box 0x478-0x488 (16)
0x0470|                        00 00 00 10            |        ....    |              size: 16 0x478-0x47c (4)
0x0470|                                    74 66 64 74|            tfdt|              type: "tfdt" (Track fragment decode time) 0x47c-0x480 (4)
0x0480|00                                             |.               |              version: 0 0x480-0x481 (1)
0x0480|   00 00 00                                    | ...            |              flags: 0 0x481-0x484 (3)
0x0480|            00 00 00 00                        |    ....        |              start_time: 0 0x484-0x488 (4)
      |                                               |                |            [2]{}: box 0x488-0x554 (204)
0x0480|                        00 00 00 cc            |        ....    |              size: 204 0x488-0x48c (4)
0x0480|                                    74 72 75 6e|            trun|              type: "trun" (Track fragment run) 0x48c-0x490 (4)
0x0490|00                                             |.               |              version: 0 0x490-0x491 (1)
      |                                               |                |              flags{}: 0x491-0x494 (3)
0x0490|   00 02                                       | ..             |                unused0: 0 0x491-0x492.4 (1.4)
0x0490|      02                                       |  .             |                sample_composition_time_offsets_present: false 0x492.4-0x492.5 (0.1)
0x0490|      02                                       |  .             |                sample_flags_present: false 0x492.5-0x492.6 (0.1)
0x0490|      02                                       |  .             |                sample_size_present: true 0x492.6-0x492.7 (0.1)
0x0490|      02                                       |  .             |                sample_duration_present: false 0x492.7-0x493 (0.1)
0x0490|         01                                    |   .            |                unused1: 0 0x493-0x493.5 (0.5)
0x0490|         01                                    |   .            |                first_sample_flags_present: false 0x493.5-0x493.6 (0.1)
0x0490|         01                                    |   .            |                unused2: 0 0x493.6-0x493.7 (0.1)
0x0490|         01                                    |   .            |                data_offset_present: true 0x493.7-0x494 (0.1)
0x0490|            00 00 00 2e                        |    ....        |              sample_count: 46 0x494-0x498 (4)
0x0490|                        00 00 01 3c            |        ...<    |              data_offset: 316 0x498-0x49c (4)
      |                                               |                |              samples[0:46]: 0x49c-0x554 (184)
      |                                               |                |                [0]{}: sample 0x49c-0x4a0 (4)
0x0490|                                    00 00 00 1b|            ....|                  sample_size: 27 0x49c-0x4a0 (4)
      |                                               |                |                [1]{}: sample 0x4a0-0x4a4 (4)
0x04a0|00 00 04 23                                    |...#            |                  sample_size: 1059 0x4a0-0x4a4 (4)
      |                                               |                |                [2]{}: sample 0x4a4-0x4a8 (4)
0x04a0|            00 00 01 6e                        |    ...n        |                  sample_size: 366 0x4a4-0x4a8 (4)
      |                                               |                |                [3]{}: sample 0x4a8-0x4ac (4)
0x04a0|                        00 00 01 85            |        ....    |                  sample_size: 389 0x4a8-0x4ac (4)
      |                                               |                |                [4]{}: sample 0x4ac-0x4b0 (4)
0x04a0|                                    00 00 01 71|            ...q|                  sample_size: 369 0x4ac-0x4b0 (4)
      |                                               |                |                [5]{}: sample 0x4b0-0x4b4 (4)
0x04b0|00 00 01 83                                    |....            |                  sample_size: 387 0x4b0-0x4b4 (4)
      |                                               |                |                [6]{}: sample 0x4b4-0x4b8 (4)
0x04b0|            00 00 01 7d                        |    ...}        |                  sample_size: 381 0x4b4-0x4b8 (4)
      |                                               |                |                [7]{}: sample 0x4b8-0x4bc (4)
0x04b0|                        00 00 01 9b            |        ....    |                  sample_size: 411 0x4b8-0x4bc (4)
      |                                               |                |                [8]{}: sample 0x4bc-0x4c0 (4)
0x04b0|                                    00 00 01 62|            ...b|                  sample_size: 354 0x4bc-0x4c0 (4)
      |                                               |                |                [9]{}: sample 0x4c0-0x4c4 (4)
0x04c0|00 00 01 5d                                    |...]            |                  sample_size: 349 0x4c0-0x4c4 (4)
      |                                               |                |                [10]{}: sample 0x4c4-0x4c8 (4)
0x04c0|            00 00 01 77                        |    ...w        |                  sample_size: 375 0x4c4-0x4c8 (4)
      |                                               |                |                [11]{}: sample 0x4c8-0x4cc (4)
0x04c0|                        00 00 01 5f            |        ..._    |                  sample_size: 351 0x4c8-0x4cc (4)
      |                                               |                |                [12]{}: sample 0x4cc-0x4d0 (4)
0x04c0|                                    00 00 01 6e|            ...n|                  sample_size: 366 0x4cc-0x4d0 (4)
      |                                               |                |                [13]{}: sample 0x4d0-0x4d4 (4)
0x04d0|00 00 01 5a                                    |...Z            |                  sample_size: 346 0x4d0-0x4d4 (4)
      |                                               |                |                [14]{}: sample 0x4d4-0x4d8 (4)
0x04d0|            00 00 01 6d                        |    ...m        |                  sample_size: 365 0x4d4-0x4d8 (4)
      |                                               |                |                [15]{}: sample 0x4d8-0x4dc (4)
0x04d0|                        00 00 01 75            |        ...u    |                  sample_size: 373 0x4d8-0x4dc (4)
      |                                               |                |                [16]{}: sample 0x4dc-0x4e0 (4)
0x04d0|                                    00 00 01 5c|            ...\|                  sample_size: 348 0x4dc-0x4e0 (4)
      |                                               |                |                [17]{}: sample 0x4e0-0x4e4 (4)
0x04e0|00 00 01 6a                                    |...j            |                  sample_size: 362 0x4e0-0x4e4 (4)
      |                                               |                |                [18]{}: sample 0x4e4-0x4e8 (4)
0x04e0|            00 00 01 6f                        |    ...o        |                  sample_size: 367 0x4e4-0x4e8 (4)
      |                                               |                |                [19]{}: sample 0x4e8-0x4ec (4)
0x04e0|                        00 00 01 85            |        ....    |                  sample_size: 389 0x4e8-0x4ec (4)
      |                                               |                |                [20]{}: sample 0x4ec-0x4f0 (4)
0x04e0|                                    00 00 01 99|            ....|                  sample_size: 409 0x4ec-0x4f0 (4)
      |                                               |                |                [21]{}: sample 0x4f0-0x4f4 (4)
0x04f0|00 00 01 66                                    |...f            |                  sample_size: 358 0x4f0-0x4f4 (4)
      |                                               |                |                [22]{}: sample 0x4f4-0x4f8 (4)
0x04f0|            00 00 01 82                        |    ....        |                  sample_size: 386 0x4f4-0x4f8 (4)
      |                                               |                |                [23]{}: sample 0x4f8-0x4fc (4)
0x04f0|                        00 00 01 7d            |        ...}    |                  sample_size: 381 0x4f8-0x4fc (4)
      |                                               |                |                [24]{}: sample 0x4fc-0x500 (4)
0x04f0|                                    00 00 01 8c|            ....|                  sample_size: 396 0x4fc-0x500 (4)
      |                                               |                |                [25]{}: sample 0x500-0x504 (4)
0x0500|00 00 01 91                                    |....            |                  sample_size: 401 0x500-0x504 (4)
      |                                               |                |                [26]{}: sample 0x504-0x508 (4)
0x0500|            00 00 01 98                        |    ....        |                  sample_size: 408 0x504-0x508 (4)
      |                                               |                |                [27]{}: sample 0x508-0x50c (4)
0x0500|                        00 00 01 99            |        ....    |                  sample_size: 409 0x508-0x50c (4)
      |                                               |                |                [28]{}: sample 0x50c-0x510 (4)
0x0500|                                    00 00 01 89|            ....|                  sample_size: 393 0x50c-0x510 (4)
      |                                               |                |                [29]{}: sample 0x510-0x514 (4)
0x0510|00 00 01 72                                    |...r            |                  sample_size: 370 0x510-0x514 (4)
      |                                               |                |                [30]{}: sample 0x514-0x518 (4)
0x0510|            00 00 01 6f                        |    ...o        |                  sample_size: 367 0x514-0x518 (4)
      |                                               |                |                [31]{}: sample 0x518-0x51c (4)
0x0510|                        00 00 01 59            |        ...Y    |                  sample_size: 345 0x518-0x51c (4)
      |                                               |                |                [32]{}: sample 0x51c-0x520 (4)
0x0510|                                    00 00 01 52|            ...R|                  sample_size: 338 0x51c-0x520 (4)
      |                                               |                |                [33]{}: sample 0x520-0x524 (4)
0x0520|00 00 01 56                                    |...V            |                  sample_size: 342 0x520-0x524 (4)
      |                                               |                |                [34]{}: sample 0x524-0x528 (4)
0x0520|            00 00 01 66                        |    ...f        |                  sample_size: 358 0x524-0x528 (4)
      |                                               |                |                [35]{}: sample 0x528-0x52c (4)
0x0520|                        00 00 01 79            |        ...y    |                  sample_size: 377 0x528-0x52c (4)
      |                                               |                |                [36]{}: sample 0x52c-0x530 (4)
0x0520|                                    00 00 01 66|            ...f|                  sample_size: 358 0x52c-0x530 (4)
      |                                               |                |                [37]{}: sample 0x530-0x534 (4)
0x0530|00 00 01 75                                    |...u            |                  sample_size: 373 0x530-0x534 (4)
      |                                               |                |                [38]{}: sample 0x534-0x538 (4)
0x0530|            00 00 01 5f                        |    ..._        |                  sample_size: 351 0x534-0x538 (4)
      |                                               |                |                [39]{}: sample 0x538-0x53c (4)
0x0530|                        00 00 01 70            |        ...p    |                  sample_size: 368 0x538-0x53c (4)
      |                                               |                |                [40]{}: sample 0x53c-0x540 (4)
0x0530|                                    00 00 01 7b|            ...{|                  sample_size: 379 0x53c-0x540 (4)
      |                                               |                |                [41]{}: sample 0x540-0x544 (4)
0x0540|00 00 01 ad                                    |....            |                  sample_size: 429 0x540-0x544 (4)
      |                                               |                |                [42]{}: sample 0x544-0x548 (4)
0x0540|            00 00 01 a0                        |    ....        |                  sample_size: 416 0x544-0x548 (4)
      |                                               |                |                [43]{}: sample 0x548-0x54c (4)
0x0540|                        00 00 01 79            |        ...y    |                  sample_size: 377 0x548-0x54c (4)
      |                                               |                |                [44]{}: sample 0x54c-0x550 (4)
0x0540|                                    00 00 01 76|            ...v|                  sample_size: 374 0x54c-0x550 (4)
      |                                               |                |                [45]{}: sample 0x550-0x554 (4)
0x0550|00 00 01 69                                    |...i            |                  sample_size: 361 0x550-0x554 (4)
      |                                               |                |            [3]{}: box 0x554-0x570 (28)
0x0550|            00 00 00 1c                        |    ....        |              size: 28 0x554-0x558 (4)
0x0550|                        73 62 67 70            |        sbgp    |              type: "sbgp" (Sample to Group box) 0x558-0x55c (4)
0x0550|                                    00         |            .   |              version: 0 0x55c-0x55d (1)
0x0550|                                       00 00 00|             ...|              flags: 0 0x55d-0x560 (3)
0x0560|72 6f 6c 6c                                    |roll            |              grouping_type: "roll" 0x560-0x564 (4)
0x0560|            00 00 00 01                        |    ....        |              entry_count: 1 0x564-0x568 (4)
      |                                               |                |              entries[0:1]: 0x568-0x570 (8)
      |                                               |                |                [0]{}: entry 0x568-0x570 (8)
0x0560|                        00 00 00 2e            |        ....    |                  sample_count: 46 0x568-0x56c (4)
0x0560|                                    00 00 00 01|            ....|                  group_description_index: 1 0x56c-0x570 (4)
      |                                               |                |    [4]{}: box 0x570-0x4a0e (17566)
0x0570|00 00 44 9e                                    |..D.            |      size: 17566 0x570-0x574 (4)
0x0570|            6d 64 61 74                        |    mdat        |      type: "mdat" (Media data container) 0x574-0x578 (4)
0x0570|                        21 21 45 00 14 50 01 46|        !!E..P.F|      data: raw bits 0x578-0x4a0e (17558)
0x0580|f0 3d fb 01 3c 08 40 00 00 00 00 00 00 00 00 07|.=..<.@.........|
*     |until 0x4a0d.7 (end) (17558)                   |                |
      |                                               |                |  tracks[0:1]: 0x578-0x4a0e (17558)
      |                                               |                |    [0]{}: track 0x578-0x4a0e (17558)
      |                                               |                |      samples[0:46]: 0x578-0x4a0e (17558)
      |00 01 02 03 04 05 06 07 08 09 0a 0b 0c 0d 0e 0f|0123456789abcdef|        [0][0:2]: sample (aac_frame) 0x578-0x593 (27)
      |                                               |                |          [0]{}: element 0x578-0x579 (1)
0x0570|                        21                     |        !       |            syntax_element: "CPE" (1) 0x578-0x578.3 (0.3)
0x0570|                        21                     |        !       |            element_instance_tag: 0 0x578.3-0x578.7 (0.4)
0x0570|                        21                     |        !       |            common_window: true 0x578.7-0x579 (0.1)
0x0570|                           21 45 00 14 50 01 46|         !E..P.F|          [1]: raw bits data 0x579-0x593 (26)
0x0580|f0 3d fb 01 3c 08 40 00 00 00 00 00 00 00 00 07|.=..<.@.........|
0x0590|0e 00 0e                                       |...             |
      |00 01 02 03 04 05 06 07 08 09 0a 0b 0c 0d 0e 0f|0123456789abcdef|        [1][0:2]: sample (aac_frame) 0x593-0x9b6 (1059)
      |                                               |                |          [0]{}: element 0x593-0x594 (1)
0x0590|         21                                    |   !            |            syntax_element: "CPE" (1) 0x593-0x593.3 (0.3)
0x0590|         21                                    |   !            |            element_instance_tag: 0 0x593.3-0x593.7 (0.4)
0x0590|         21                                    |   !            |            common_window: true 0x593.7-0x594 (0.1)
0x0590|            4f cc 80 00 f7 ff ff ff 8f f3 c8 7e|    O..........~|          [1]: raw bits data 0x594-0x9b6 (1058)
0x05a0|6f f0 e6 ff 37 f9 0e 84 60 fe 9f e9 ff a1 55 e4|o...7...`.....U.|
*     |until 0x9b5.7 (1058)                           |                |
      |00 01 02 03 04 05 06 07 08 09 0a 0b 0c 0d 0e 0f|0123456789abcdef|        [2][0:2]: sample (aac_frame) 0x9b6-0xb24 (366)
      |                                               |                |          [0]{}: element 0x9b6-0x9b7 (1)
0x09b0|                  21                           |      !         |            syntax_element: "CPE" (1) 0x9b6-0x9b6.3 (0.3)
0x09b0|                  21                           |      !         |            element_instance_tag: 0 0x9b6.3-0x9b6.7 (0.4)
0x09b0|                  21                           |      !         |            common_window: true 0x9b6.7-0x9b7 (0.1)
0x09b0|                     7b 55 45 3d 92 86 17 9a 2a|       {UE=....*|          [1]: raw bits data 0x9b7-0xb24 (365)
0x09c0|f5 0a 8e 40 73 18 00 8b d6 2e d8 11 a9 ed 5b d2|...@s.........[.|
*     |until 0xb23.7 (365)                            |                |
      |00 01 02 03 04 05 06 07 08 09 0a 0b 0c 0d 0e 0f|0123456789abcdef|        [3][0:2]: sample (aac_frame) 0xb24-0xca9 (389)
      |                                               |                |          [0]{}: element 0xb24-0xb25 (1)
0x0b20|            21                                 |    !           |            syntax_element: "CPE" (1) 0xb24-0xb24.3 (0.3)
0x0b20|            21                                 |    !           |            element_instance_tag: 0 0xb24.3-0xb24.7 (0.4)
0x0b20|            21                                 |    !           |            common_window: true 0xb24.7-0xb25 (0.1)
0x0b20|               1b 54 f5 b6 0a a7 25 1a 92 6e 91|     .T....%..n.|          [1]: raw bits data 0xb25-0xca9 (388)
0x0b30|50 3c 2b 2f 00 01 03 56 cd 2c 21 94 45 19 c7 14|P<+/...V.,!.E...|
*     |until 0xca8.7 (388)                            |                |
      |00 01 02 03 04 05 06 07 08 09 0a 0b 0c 0d 0e 0f|0123456789abcdef|        [4][0:2]: sample (aac_frame) 0xca9-0xe1a (369)
      |                                               |                |          [0]{}: element 0xca9-0xcaa (1)
0x0ca0|                           21                  |         !      |            syntax_element: "CPE" (1) 0xca9-0xca9.3 (0.3)
0x0ca0|                           21                  |         !      |            element_instance_tag: 0 0xca9.3-0xca9.7 (0.4)
0x0ca0|                           21                  |         !      |            common_window: true 0xca9.7-0xcaa (0.1)
0x0ca0|                              1b 55 0d 96 13 64|          .U...d|          [1]: raw bits data 0xcaa-0xe1a (368)
0x0cb0|62 a1 46 28 a3 1a b6 e8 60 39 50 16 1a 6a 84 b0|b.F(....`9P..j..|
*     |until 0xe19.7 (368)                            |                |
      |00 01 02 03 04 05 06 07 08 09 0a 0b 0c 0d 0e 0f|0123456789abcdef|        [5][0:2]: sample (aac_frame) 0xe1a-0xf9d (387)
      |                                               |                |          [0]{}: element 0xe1a-0xe1b (1)
0x0e10|                              21               |          !     |            syntax_element: "CPE" (1) 0xe1a-0xe1a.3 (0.3)
0x0e10|                              21               |          !     |            element_instance_tag: 0 0xe1a.3-0xe1a.7 (0.4)
0x0e10|                              21               |          !     |            common_window: true 0xe1a.7-0xe1b (0.1)
0x0e10|                                 1b 54 dd 9e 8f|           .T...|          [1]: raw bits data 0xe1b-0xf9d (386)
0x0e20|61 64 22 04 84 41 1a 04 44 06 77 d3 37 29 4a c1|ad"..A..D.w.7)J.|
*     |until 0xf9c.7 (386)                            |                |
      |00 01 02 03 04 05 06 07 08 09 0a 0b 0c 0d 0e 0f|0123456789abcdef|        [6][0:2]: sample (aac_frame) 0xf9d-0x111a (381)
      |                                               |                |          [0]{}: element 0xf9d-0xf9e (1)
0x0f90|                                       21      |             !  |            syntax_element: "CPE" (1) 0xf9d-0xf9d.3 (0.3)
0x0f90|                                       21      |             !  |            element_instance_tag: 0 0xf9d.3-0xf9d.7 (0.4)
0x0f90|                                       21      |             !  |            common_window: true 0xf9d.7-0xf9e (0.1)
0x0f90|                                          1b 4e|              .N|          [1]: raw bits data 0xf9e-0x111a (380)
0x0fa0|e4 95 bf ff ff e8 6d b2 56 1a 8d 08 31 2a 05 0c|......m.V...1*..|
*     |until 0x1119.7 (380)                           |                |
      |00 01 02 03 04 05 06 07 08 09 0a 0b 0c 0d 0e 0f|0123456789abcdef|        [7][0:2]: sample (aac_frame) 0x111a-0x12b5 (411)
      |                                               |                |          [0]{}: element 0x111a-0x111b (1)
0x1110|                              21               |          !     |            syntax_element: "CPE" (1) 0x111a-0x111a.3 (0.3)
0x1110|                              21               |          !     |            element_instance_tag: 0 0x111a.3-0x111a.7 (0.4)
0x1110|                              21               |          !     |            common_window: true 0x111a.7-0x111b (0.1)
0x1110|                                 1b 4d c6 b1 bb|           .M...|          [1]: raw bits data 0x111b-0x12b5 (410)
0x1120|bf ff e6 ed 10 6b 0c 18 42 c2 42 8c 00 e5 4d ea|.....k..B.B...M.|
*     |until 0x12b4.7 (410)                           |                |
      |00 01 02 03 04 05 06 07 08 09 0a 0b 0c 0d 0e 0f|0123456789abcdef|        [8][0:2]: sample (aac_frame) 0x12b5-0x1417 (354)
      |                                               |                |          [0]{}: element 0x12b5-0x12b6 (1)
0x12b0|               21                              |     !          |            syntax_element: "CPE" (1) 0x12b5-0x12b5.3 (0.3)
0x12b0|               21                              |     !          |            element_instance_tag: 0 0x12b5.3-0x12b5.7 (0.4)
0x12b0|               21                              |     !          |            common_window: true 0x12b5.7-0x12b6 (0.1)
0x12b0|                  1b 4c 64 e5 fb ff ff e7 6d 10|      .Ld.....m.|          [1]: raw bits data 0x12b6-0x1417 (353)
0x12c0|d4 49 bc 2a a3 b5 94 39 5e 28 c0 04 0d 64 cb 06|.I.*...9^(...d..|
*     |until 0x1416.7 (353)                           |                |
      |00 01 02 03 04 05 06 07 08 09 0a 0b 0c 0d 0e 0f|0123456789abcdef|        [9][0:2]: sample (aac_frame) 0x1417-0x1574 (349)
      |                                               |                |          [0]{}: element 0x1417-0x1418 (1)
0x1410|                     21                        |       !        |            syntax_element: "CPE" (1) 0x1417-0x1417.3 (0.3)
0x1410|                     21                        |       !        |            element_instance_tag: 0 0x1417.3-0x1417.7 (0.4)
0x1410|                     21                        |       !        |            common_window: true 0x1417.7-0x1418 (0.1)
0x1410|                        1b 4e 67 fd 73 fd ff 67|        .Ng.s..g|          [1]: raw bits data 0x1418-0x1574 (348)
0x1420|6c b0 d5 61 bd 4f 19 e6 ea a0 6e 9e 20 c0 00 8b|l..a.O....n. ...|
*     |until 0x1573.7 (348)                           |                |
      |00 01 02 03 04 05 06 07 08 09 0a 0b 0c 0d 0e 0f|0123456789abcdef|        [10][0:2]: sample (aac_frame) 0x1574-0x16eb (375)
      |                                               |                |          [0]{}: element 0x1574-0x1575 (1)
0x1570|            21                                 |    !           |            syntax_element: "CPE" (1) 0x1574-0x1574.3 (0.3)
0x1570|            21                                 |    !           |            element_instance_tag: 0 0x1574.3-0x1574.7 (0.4)
0x1570|            21                                 |    !           |            common_window: true 0x1574.7-0x1575 (0.1)
0x1570|               1b 54 e5 9a 98 89 39 19 58 ad 14|     .T....9.X..|          [1]: raw bits data 0x1575-0x16eb (374)
0x1580|a8 ad a9 ba a8 00 82 1a ac 01 86 1e 13 23 d3 4e|.............#.N|
*     |until 0x16ea.7 (374)                           |                |
      |00 01 02 03 04 05 06 07 08 09 0a 0b 0c 0d 0e 0f|0123456789abcdef|        [11][0:2]: sample (aac_frame) 0x16eb-0x184a (351)
      |                                               |                |          [0]{}: element 0x16eb-0x16ec (1)
0x16e0|                                 21            |           !    |            syntax_element: "CPE" (1) 0x16eb-0x16eb.3 (0.3)
0x16e0|                                 21            |           !    |            element_instance_tag: 0 0x16eb.3-0x16eb.7 (0.4)
0x16e0|                                 21            |           !    |            common_window: true 0x16eb.7-0x16ec (0.1)
0x16e0|                                    1b 55 1d 96|            .U..|          [1]: raw bits data 0x16ec-0x184a (350)
0x16f0|90 ca 31 0d 02 06 83 78 8d 9b 18 02 c5 8d 6c 01|..1....x......l.|
*     |until 0x1849.7 (350)                           |                |
      |00 01 02 03 04 05 06 07 08 09 0a 0b 0c 0d 0e 0f|0123456789abcdef|        [12][0:2]: sample (aac_frame) 0x184a-0x19b8 (366)
      |                                               |                |          [0]{}: element 0x184a-0x184b (1)
0x1840|                              21               |          !     |            syntax_element: "CPE" (1) 0x184a-0x184a.3 (0.3)
0x1840|                              21               |          !     |            element_instance_tag: 0 0x184a.3-0x184a.7 (0.4)
0x1840|                              21               |          !     |            common_window: true 0x184a.7-0x184b (0.1)
0x1840|                                 1b 4f 07 b1 7f|           .O...|          [1]: raw bits data 0x184b-0x19b8 (365)
0x1850|f7 ff e8 6d 50 85 78 b0 1a 53 76 c3 1b be 53 11|...mP.x..Sv...S.|
*     |until 0x19b7.7 (365)                           |                |
      |00 01 02 03 04 05 06 07 08 09 0a 0b 0c 0d 0e 0f|0123456789abcdef|        [13][0:2]: sample (aac_frame) 0x19b8-0x1b12 (346)
      |                                               |                |          [0]{}: element 0x19b8-0x19b9 (1)
0x19b0|                        21                     |        !       |            syntax_element: "CPE" (1) 0x19b8-0x19b8.3 (0.3)
0x19b0|                        21                     |        !       |            element_instance_tag: 0 0x19b8.3-0x19b8.7 (0.4)
0x19b0|                        21                     |        !       |            common_window: true 0x19b8.7-0x19b9 (0.1)
0x19b0|                           1b 55 15 b2 10 a3 21|         .U....!|          [1]: raw bits data 0x19b9-0x1b12 (345)
0x19c0|29 c5 ab aa b5 81 3b 29 b3 60 40 55 9a 0c 06 f3|).....;).`@U....|
*     |until 0x1b11.7 (345)                           |                |
      |00 01 02 03 04 05 06 07 08 09 0a 0b 0c 0d 0e 0f|0123456789abcdef|        [14][0:2]: sample (aac_frame) 0x1b12-0x1c7f (365)
      |                                               |                |          [0]{}: element 0x1b12-0x1b13 (1)
0x1b10|      21                                       |  !             |            syntax_element: "CPE" (1) 0x1b12-0x1b12.3 (0.3)
0x1b10|      21                                       |  !             |            element_instance_tag: 0 0x1b12.3-0x1b12.7 (0.4)
0x1b10|      21                                       |  !             |            common_window: true 0x1b12.7-0x1b13 (0.1)
0x1b10|         1b 55 05 9a 90 ca 23 19 08 26 a4 50 d0|   .U....#..&.P.|          [1]: raw bits data 0x1b13-0x1c7f (364)
0x1b20|47 6a e6 af 60 a0 1a 20 84 06 d8 2a cd 89 1e 2d|Gj..`.. ...*...-|
*     |until 0x1c7e.7 (364)                           |                |
      |00 01 02 03 04 05 06 07 08 09 0a 0b 0c 0d 0e 0f|0123456789abcdef|        [15][0:2]: sample (aac_frame) 0x1c7f-0x1df4 (373)
      |                                               |                |          [0]{}: element 0x1c7f-0x1c80 (1)
0x1c70|                                             21|               !|            syntax_element: "CPE" (1) 0x1c7f-0x1c7f.3 (0.3)
0x1c70|                                             21|               !|            element_instance_tag: 0 0x1c7f.3-0x1c7f.7 (0.4)
0x1c70|                                             21|               !|            common_window: true 0x1c7f.7-0x1c80 (0.1)
0x1c80|1b 4f 64 f0 7f 7f f7 e7 2d 70 86 2a 90 c8 2a 31|.Od.....-p.*..*1|          [1]: raw bits data 0x1c80-0x1df4 (372)
*     |until 0x1df3.7 (372)                           |                |
      |00 01 02 03 04 05 06 07 08 09 0a 0b 0c 0d 0e 0f|0123456789abcdef|        [16][0:2]: sample (aac_frame) 0x1df4-0x1f50 (348)
      |                                               |                |          [0]{}: element 0x1df4-0x1df5 (1)
0x1df0|            21                                 |    !           |            syntax_element: "CPE" (1) 0x1df4-0x1df4.3 (0.3)
0x1df0|            21                                 |    !           |            element_instance_tag: 0 0x1df4.3-0x1df4.7 (0.4)
0x1df0|            21                                 |    !           |            common_window: true 0x1df4.7-0x1df5 (0.1)
0x1df0|               1b 4f ee 71 3f ff f7 e7 ad f2 45|     .O.q?.....E|          [1]: raw bits data 0x1df5-0x1f50 (347)
0x1e00|58 b0 82 22 45 51 56 4a f0 d9 88 a0 00 4b 93 6e|X.."EQVJ.....K.n|
*     |until 0x1f4f.7 (347)                           |                |
      |00 01 02 03 04 05 06 07 08 09 0a 0b 0c 0d 0e 0f|0123456789abcdef|        [17][0:2]: sample (aac_frame) 0x1f50-0x20ba (362)
      |                                               |                |          [0]{}: element 0x1f50-0x1f51 (1)
0x1f50|21                                             |!               |            syntax_element: "CPE" (1) 0x1f50-0x1f50.3 (0.3)
0x1f50|21                                             |!               |            element_instance_tag: 0 0x1f50.3-0x1f50.7 (0.4)
0x1f50|21                                             |!               |            common_window: true 0x1f50.7-0x1f51 (0.1)
0x1f50|   1b 4e e6 f4 6f ff f7 e6 ad 90 5a 0a a8 5c 63| .N..o.....Z..\c|          [1]: raw bits data 0x1f51-0x20ba (361)
0x1f60|03 0e 43 dc 15 74 a8 a0 2c 42 e0 0d 50 72 cf 38|..C..t..,B..Pr.8|
*     |until 0x20b9.7 (361)                           |                |
      |00 01 02 03 04 05 06 07 08 09 0a 0b 0c 0d 0e 0f|0123456789abcdef|        [18][0:2]: sample (aac_frame) 0x20ba-0x2229 (367)
      |                                               |                |          [0]{}: element 0x20ba-0x20bb (1)
0x20b0|                              21               |          !     |            syntax_element: "CPE" (1) 0x20ba-0x20ba.3 (0.3)
0x20b0|                              21               |          !     |            element_instance_tag: 0 0x20ba.3-0x20ba.7 (0.4)
0x20b0|                              21               |          !     |            common_window: true 0x20ba.7-0x20bb (0.1)
0x20b0|                                 1b 4f e0 95 7f|           .O...|          [1]: raw bits data 0x20bb-0x2229 (366)
0x20c0|ff ff e6 ed 90 65 71 10 52 00 c3 75 b5 65 00 a0|.....eq.R..u.e..|
*     |until 0x2228.7 (366)                           |                |
      |00 01 02 03 04 05 06 07 08 09 0a 0b 0c 0d 0e 0f|0123456789abcdef|        [19][0:2]: sample (aac_frame) 0x2229-0x23ae (389)
      |                                               |                |          [0]{}: element 0x2229-0x222a (1)
0x2220|                           21                  |         !      |            syntax_element: "CPE" (1) 0x2229-0x2229.3 (0.3)
0x2220|                           21                  |         !      |            element_instance_tag: 0 0x2229.3-0x2229.7 (0.4)
0x2220|                           21                  |         !      |            common_window: true 0x2229.7-0x222a (0.1)
0x2220|                              1b 54 f5 14 03 49|          .T...I|          [1]: raw bits data 0x222a-0x23ae (388)
0x2230|63 c0 55 44 21 52 53 22 ac 1e 1d ea ab 8d d4 a0|c.UD!RS"........|
*     |until 0x23ad.7 (388)                           |                |
      |00 01 02 03 04 05 06 07 08 09 0a 0b 0c 0d 0e 0f|0123456789abcdef|        [20][0:2]: sample (aac_frame) 0x23ae-0x2547 (409)
      |                                               |                |          [0]{}: element 0x23ae-0x23af (1)
0x23a0|                                          21   |              ! |            syntax_element: "CPE" (1) 0x23ae-0x23ae.3 (0.3)
0x23a0|                                          21   |              ! |            element_instance_tag: 0 0x23ae.3-0x23ae.7 (0.4)
0x23a0|                                          21   |              ! |            common_window: true 0x23ae.7-0x23af (0.1)
0x23a0|                                             1b|               .|          [1]: raw bits data 0x23af-0x2547 (408)
0x23b0|54 c5 96 94 c6 45 19 45 21 b7 7a 09 db 18 1b b6|T....E.E!.z.....|
*     |until 0x2546.7 (408)                           |                |
      |00 01 02 03 04 05 06 07 08 09 0a 0b 0c 0d 0e 0f|0123456789abcdef|        [21][0:2]: sample (aac_frame) 0x2547-0x26ad (358)
      |                                               |                |          [0]{}: element 0x2547-0x2548 (1)
0x2540|                     21                        |       !        |            syntax_element: "CPE" (1) 0x2547-0x2547.3 (0.3)
0x2540|                     21                        |       !        |            element_instance_tag: 0 0x2547.3-0x2547.7 (0.4)
0x2540|                     21                        |       !        |            common_window: true 0x2547.7-0x2548 (0.1)
0x2540|                        1b 55 2d 9e 1c a8 18 34|        .U-....4|          [1]: raw bits data 0x2548-0x26ad (357)
0x2550|82 8b a8 c3 91 86 00 40 b5 97 80 d8 1e 77 1c e8|.......@.....w..|
*     |until 0x26ac.7 (357)                           |                |
      |00 01 02 03 04 05 06 07 08 09 0a 0b 0c 0d 0e 0f|0123456789abcdef|        [22][0:2]: sample (aac_frame) 0x26ad-0x282f (386)
      |                                               |                |          [0]{}: element 0x26ad-0x26ae (1)
0x26a0|                                       21      |             !  |            syntax_element: "CPE" (1) 0x26ad-0x26ad.3 (0.3)
0x26a0|                                       21      |             !  |            element_instance_tag: 0 0x26ad.3-0x26ad.7 (0.4)
0x26a0|                                       21      |             !  |            common_window: true 0x26ad.7-0x26ae (0.1)
0x26a0|                                          1b 4f|              .O|          [1]: raw bits data 0x26ae-0x282f (385)
0x26b0|82 20 7f 7f df e8 6c 74 a8 42 9c 92 81 13 8b 44|. ....lt.B.....D|
*     |until 0x282e.7 (385)                           |                |
      |00 01 02 03 04 05 06 07 08 09 0a 0b 0c 0d 0e 0f|0123456789abcdef|        [23][0:2]: sample (aac_frame) 0x282f-0x29ac (381)
      |                                               |                |          [0]{}: element 0x282f-0x2830 (1)
0x2820|                                             21|               !|            syntax_element: "CPE" (1) 0x282f-0x282f.3 (0.3)
0x2820|                                             21|               !|            element_instance_tag: 0 0x282f.3-0x282f.7 (0.4)
0x2820|                                             21|               !|            common_window: true 0x282f.7-0x2830 (0.1)
0x2830|1b 4f 86 85 7b ff df e7 ad 30 c7 32 0c 5e 08 66|.O..{....0.2.^.f|          [1]: raw bits data 0x2830-0x29ac (380)
*     |until 0x29ab.7 (380)                           |                |
      |00 01 02 03 04 05 06 07 08 09 0a 0b 0c 0d 0e 0f|0123456789abcdef|        [24][0:2]: sample (aac_frame) 0x29ac-0x2b38 (396)
      |                                               |                |          [0]{}: element 0x29ac-0x29ad (1)
0x29a0|                                    21         |            !   |            syntax_element: "CPE" (1) 0x29ac-0x29ac.3 (0.3)
0x29a0|                                    21         |            !   |            element_instance_tag: 0 0x29ac.3-0x29ac.7 (0.4)
0x29a0|                                    21         |            !   |            common_window: true 0x29ac.7-0x29ad (0.1)
0x29a0|                                       1b 4f 26|             .O&|          [1]: raw bits data 0x29ad-0x2b38 (395)
0x29b0|b1 6f ff ff e8 2d 30 a4 29 a4 58 3c 8c c6 e5 4d|.o...-0.).X<...M|
*     |until 0x2b37.7 (395)                           |                |
      |00 01 02 03 04 05 06 07 08 09 0a 0b 0c 0d 0e 0f|0123456789abcdef|        [25][0:2]: sample (aac_frame) 0x2b38-0x2cc9 (401)
      |                                               |                |          [0]{}: element 0x2b38-0x2b39 (1)
0x2b30|                        21                     |        !       |            syntax_element: "CPE" (1) 0x2b38-0x2b38.3 (0.3)
0x2b30|                        21                     |        !       |            element_instance_tag: 0 0x2b38.3-0x2b38.7 (0.4)
0x2b30|                        21                     |        !       |            common_window: true 0x2b38.7-0x2b39 (0.1)
0x2b30|                           1b 4f 2e f5 5f ff df|         .O.._..|          [1]: raw bits data 0x2b39-0x2cc9 (400)
0x2b40|e7 2d 34 57 32 b0 4a 41 13 a8 a2 b4 15 f9 2b 5c|.-4W2.JA......+\|
*     |until 0x2cc8.7 (400)                           |                |
      |00 01 02 03 04 05 06 07 08 09 0a 0b 0c 0d 0e 0f|0123456789abcdef|        [26][0:2]: sample (aac_frame) 0x2cc9-0x2e61 (408)
      |                                               |                |          [0]{}: element 0x2cc9-0x2cca (1)
0x2cc0|                           21                  |         !      |            syntax_element: "CPE" (1) 0x2cc9-0x2cc9.3 (0.3)
0x2cc0|                           21                  |         !      |            element_instance_tag: 0 0x2cc9.3-0x2cc9.7 (0.4)
0x2cc0|                           21                  |         !      |            common_window: true 0x2cc9.7-0x2cca (0.1)
0x2cc0|                              1b 4f 26 f5 7f df|          .O&...|          [1]: raw bits data 0x2cca-0x2e61 (407)
0x2cd0|ff e6 ec d4 b7 12 14 c6 83 16 18 d5 55 45 56 95|............UEV.|
*     |until 0x2e60.7 (407)                           |                |
      |00 01 02 03 04 05 06 07 08 09 0a 0b 0c 0d 0e 0f|0123456789abcdef|        [27][0:2]: sample (aac_frame) 0x2e61-0x2ffa (409)
      |                                               |                |          [0]{}: element 0x2e61-0x2e62 (1)
0x2e60|   21                                          | !              |            syntax_element: "CPE" (1) 0x2e61-0x2e61.3 (0.3)
0x2e60|   21                                          | !              |            element_instance_tag: 0 0x2e61.3-0x2e61.7 (0.4)
0x2e60|   21                                          | !              |            common_window: true 0x2e61.7-0x2e62 (0.1)
0x2e60|      1b 4f e7 25 77 ff ff a7 6c d4 98 32 0d 56|  .O.%w...l..2.V|          [1]: raw bits data 0x2e62-0x2ffa (408)
0x2e70|29 50 81 02 8f 5c 85 bb 80 2c 04 17 40 1e 87 41|)P...\...,..@..A|
*     |until 0x2ff9.7 (408)                           |                |
      |00 01 02 03 04 05 06 07 08 09 0a 0b 0c 0d 0e 0f|0123456789abcdef|        [28][0:2]: sample (aac_frame) 0x2ffa-0x3183 (393)
      |                                               |                |          [0]{}: element 0x2ffa-0x2ffb (1)
0x2ff0|                              21               |          !     |            syntax_element: "CPE" (1) 0x2ffa-0x2ffa.3 (0.3)
0x2ff0|                              21               |          !     |            element_instance_tag: 0 0x2ffa.3-0x2ffa.7 (0.4)
0x2ff0|                              21               |          !     |            common_window: true 0x2ffa.7-0x2ffb (0.1)
0x2ff0|                                 1b 4f ef 64 bf|           .O.d.|          [1]: raw bits data 0x2ffb-0x3183 (392)
0x3000|d7 ff e6 ac d4 77 32 15 56 2a 72 50 56 8e f9 c0|.....w2.V*rPV...|
*     |until 0x3182.7 (392)                           |                |
      |00 01 02 03 04 05 06 07 08 09 0a 0b 0c 0d 0e 0f|0123456789abcdef|        [29][0:2]: sample (aac_frame) 0x3183-0x32f5 (370)
      |                                               |                |          [0]{}: element 0x3183-0x3184 (1)
0x3180|         21                                    |   !            |            syntax_element: "CPE" (1) 0x3183-0x3183.3 (0.3)
0x3180|         21                                    |   !            |            element_instance_tag: 0 0x3183.3-0x3183.7 (0.4)
0x3180|         21                                    |   !            |            common_window: true 0x3183.7-0x3184 (0.1)
0x3180|            1b 4e e7 74 7f 97 ff e6 ec b4 98 39|    .N.t.......9|          [1]: raw bits data 0x3184-0x32f5 (369)
0x3190|e1 43 98 54 46 78 0a 6e 29 48 82 05 80 35 ba 63|.C.TFx.n)H...5.c|
*     |until 0x32f4.7 (369)                           |                |
      |00 01 02 03 04 05 06 07 08 09 0a 0b 0c 0d 0e 0f|0123456789abcdef|        [30][0:2]: sample (aac_frame) 0x32f5-0x3464 (367)
      |                                               |                |          [0]{}: element 0x32f5-0x32f6 (1)
0x32f0|               21                              |     !          |            syntax_element: "CPE" (1) 0x32f5-0x32f5.3 (0.3)
0x32f0|               21                              |     !          |            element_instance_tag: 0 0x32f5.3-0x32f5.7 (0.4)
0x32f0|               21                              |     !          |            common_window: true 0x32f5.7-0x32f6 (0.1)
0x32f0|                  1b 4e 66 f5 77 df ff e8 6d d0|      .Nf.w...m.|          [1]: raw bits data 0x32f6-0x3464 (366)
0x3300|44 32 98 5e bc 52 33 57 51 f3 52 a5 5b 31 28 04|D2.^.R3WQ.R.[1(.|
*     |until 0x3463.7 (366)                           |                |
      |00 01 02 03 04 05 06 07 08 09 0a 0b 0c 0d 0e 0f|0123456789abcdef|        [31][0:2]: sample (aac_frame) 0x3464-0x35bd (345)
      |                                               |                |          [0]{}: element 0x3464-0x3465 (1)
0x3460|            21                                 |    !           |            syntax_element: "CPE" (1) 0x3464-0x3464.3 (0.3)
0x3460|            21                                 |    !           |            element_instance_tag: 0 0x3464.3-0x3464.7 (0.4)
0x3460|            21                                 |    !           |            common_window: true 0x3464.7-0x3465 (0.1)
0x3460|               1b 55 35 16 20 83 1a b9 e1 64 57|     .U5. ....dW|          [1]: raw bits data 0x3465-0x35bd (344)
0x3470|12 fb d8 51 8b ec 10 40 82 c4 50 6f dc b3 fc dd|...Q...@..Po....|
*     |until 0x35bc.7 (344)                           |                |
      |00 01 02 03 04 05 06 07 08 09 0a 0b 0c 0d 0e 0f|0123456789abcdef|        [32][0:2]: sample (aac_frame) 0x35bd-0x370f (338)
      |                                               |                |          [0]{}: element 0x35bd-0x35be (1)
0x35b0|                                       21      |             !  |            syntax_element: "CPE" (1) 0x35bd-0x35bd.3 (0.3)
0x35b0|                                       21      |             !  |            element_instance_tag: 0 0x35bd.3-0x35bd.7 (0.4)
0x35b0|                                       21      |             !  |            common_window: true 0x35bd.7-0x35be (0.1)
0x35b0|                                          1b 55|              .U|          [1]: raw bits data 0x35be-0x370f (337)
0x35c0|0d ae 14 a9 37 80 05 32 a1 1c d1 42 8b 04 2a ea|....7..2...B..*.|
*     |until 0x370e.7 (337)                           |                |
      |00 01 02 03 04 05 06 07 08 09 0a 0b 0c 0d 0e 0f|0123456789abcdef|        [33][0:2]: sample (aac_frame) 0x370f-0x3865 (342)
      |                                               |                |          [0]{}: element 0x370f-0x3710 (1)
0x3700|                                             21|               !|            syntax_element: "CPE" (1) 0x370f-0x370f.3 (0.3)
0x3700|                                             21|               !|            element_instance_tag: 0 0x370f.3-0x370f.7 (0.4)
0x3700|                                             21|               !|            common_window: true 0x370f.7-0x3710 (0.1)
0x3710|1b 55 0d 9a 96 c6 52 9a 45 08 9b 29 5a 21 8a 6c|.U....R.E..)Z!.l|          [1]: raw bits data 0x3710-0x3865 (341)
*     |until 0x3864.7 (341)                           |                |
      |00 01 02 03 04 05 06 07 08 09 0a 0b 0c 0d 0e 0f|0123456789abcdef|        [34][0:2]: sample (aac_frame) 0x3865-0x39cb (358)
      |                                               |                |          [0]{}: element 0x3865-0x3866 (1)
0x3860|               21                              |     !          |            syntax_element: "CPE" (1) 0x3865-0x3865.3 (0.3)
0x3860|               21                              |     !          |            element_instance_tag: 0 0x3865.3-0x3865.7 (0.4)
0x3860|               21                              |     !          |            common_window: true 0x3865.7-0x3866 (0.1)
0x3860|                  1b 54 d5 b6 06 c7 23 20 45 ec|      .T....# E.|          [1]: raw bits data 0x3866-0x39cb (357)
0x3870|a0 16 3d 52 95 8a 5b 60 80 83 54 07 ad bd 52 e3|..=R..[`..T...R.|
*     |until 0x39ca.7 (357)                           |                |
      |00 01 02 03 04 05 06 07 08 09 0a 0b 0c 0d 0e 0f|0123456789abcdef|        [35][0:2]: sample (aac_frame) 0x39cb-0x3b44 (377)
      |                                               |                |          [0]{}: element 0x39cb-0x39cc (1)
0x39c0|                                 21            |           !    |            syntax_element: "CPE" (1) 0x39cb-0x39cb.3 (0.3)
0x39c0|                                 21            |           !    |            element_instance_tag: 0 0x39cb.3-0x39cb.7 (0.4)
0x39c0|                                 21            |           !    |            common_window: true 0x39cb.7-0x39cc (0.1)
0x39c0|                                    1b 4f e2 76|            .O.v|          [1]: raw bits data 0x39cc-0x3b44 (376)
0x39d0|7b e7 ff e6 ac ae 3b 0c 31 08 26 41 8a cd f7 a0|{.....;.1.&A....|
*     |until 0x3b43.7 (376)                           |                |
      |00 01 02 03 04 05 06 07 08 09 0a 0b 0c 0d 0e 0f|0123456789abcdef|        [36][0:2]: sample (aac_frame) 0x3b44-0x3caa (358)
      |                                               |                |          [0]{}: element 0x3b44-0x3b45 (1)
0x3b40|            21                                 |    !           |            syntax_element: "CPE" (1) 0x3b44-0x3b44.3 (0.3)
0x3b40|            21                                 |    !           |            element_instance_tag: 0 0x3b44.3-0x3b44.7 (0.4)
0x3b40|            21                                 |    !           |            common_window: true 0x3b44.7-0x3b45 (0.1)
0x3b40|               1b 4f 66 df bb d7 df e6 ad d0 75|     .Of.......u|          [1]: raw bits data 0x3b45-0x3caa (357)
0x3b50|59 b5 46 54 2b 0f 12 29 0f 0c b2 02 02 2c 08 a8|Y.FT+..).....,..|
*     |until 0x3ca9.7 (357)                           |                |
      |00 01 02 03 04 05 06 07 08 09 0a 0b 0c 0d 0e 0f|0123456789abcdef|        [37][0:2]: sample (aac_frame) 0x3caa-0x3e1f (373)
      |                                               |                |          [0]{}: element 0x3caa-0x3cab (1)
0x3ca0|                              21               |          !     |            syntax_element: "CPE" (1) 0x3caa-0x3caa.3 (0.3)
0x3ca0|                              21               |          !     |            element_instance_tag: 0 0x3caa.3-0x3caa.7 (0.4)
0x3ca0|                              21               |          !     |            common_window: true 0x3caa.7-0x3cab (0.1)
0x3ca0|                                 1b 4f e6 7b b8|           .O.{.|          [1]: raw bits data 0x3cab-0x3e1f (372)
0x3cb0|ff bf e6 ed 14 78 22 9c 54 81 14 0f 0e 8a a8 73|.....x".T......s|
*     |until 0x3e1e.7 (372)                           |                |
      |00 01 02 03 04 05 06 07 08 09 0a 0b 0c 0d 0e 0f|0123456789abcdef|        [38][0:2]: sample (aac_frame) 0x3e1f-0x3f7e (351)
      |                                               |                |          [0]{}: element 0x3e1f-0x3e20 (1)
0x3e10|                                             21|               !|            syntax_element: "CPE" (1) 0x3e1f-0x3e1f.3 (0.3)
0x3e10|                                             21|               !|            element_instance_tag: 0 0x3e1f.3-0x3e1f.7 (0.4)
0x3e10|                                             21|               !|            common_window: true 0x3e1f.7-0x3e20 (0.1)
0x3e20|1b 4e e4 df 99 df 7f e7 ac d0 7b 0c 11 8a 87 17|.N........{.....|          [1]: raw bits data 0x3e20-0x3f7e (350)
*     |until 0x3f7d.7 (350)                           |                |
      |00 01 02 03 04 05 06 07 08 09 0a 0b 0c 0d 0e 0f|0123456789abcdef|        [39][0:2]: sample (aac_frame) 0x3f7e-0x40ee (368)
      |                                               |                |          [0]{}: element 0x3f7e-0x3f7f (1)
0x3f70|                                          21   |              ! |            syntax_element: "CPE" (1) 0x3f7e-0x3f7e.3 (0.3)
0x3f70|                                          21   |              ! |            element_instance_tag: 0 0x3f7e.3-0x3f7e.7 (0.4)
0x3f70|                                          21   |              ! |            common_window: true 0x3f7e.7-0x3f7f (0.1)
0x3f70|                                             1b|               .|          [1]: raw bits data 0x3f7f-0x40ee (367)
0x3f80|4d e0 0f db ff 7f e6 e9 b6 18 3a a4 4a 81 14 a8|M.........:.J...|
*     |until 0x40ed.7 (367)                           |                |
      |00 01 02 03 04 05 06 07 08 09 0a 0b 0c 0d 0e 0f|0123456789abcdef|        [40][0:2]: sample (aac_frame) 0x40ee-0x4269 (379)
      |                                               |                |          [0]{}: element 0x40ee-0x40ef (1)
0x40e0|                                          21   |              ! |            syntax_element: "CPE" (1) 0x40ee-0x40ee.3 (0.3)
0x40e0|                                          21   |              ! |            element_instance_tag: 0 0x40ee.3-0x40ee.7 (0.4)
0x40e0|                                          21   |              ! |            common_window: true 0x40ee.7-0x40ef (0.1)
0x40e0|                                             1b|               .|          [1]: raw bits data 0x40ef-0x4269 (378)
0x40f0|4f e6 5b 93 fb bf e8 29 b6 16 59 9d 02 2c 52 ac|O.[....)..Y..,R.|
*     |until 0x4268.7 (378)                           |                |
      |00 01 02 03 04 05 06 07 08 09 0a 0b 0c 0d 0e 0f|0123456789abcdef|        [41][0:2]: sample (aac_frame) 0x4269-0x4416 (429)
      |                                               |                |          [0]{}: element 0x4269-0x426a (1)
0x4260|                           21                  |         !      |            syntax_element: "CPE" (1) 0x4269-0x4269.3 (0.3)
0x4260|                           21                  |         !      |            element_instance_tag: 0 0x4269.3-0x4269.7 (0.4)
0x4260|                           21                  |         !      |            common_window: true 0x4269.7-0x426a (0.1)
0x4260|                              1b 55 25 9e 16 8f|          .U%...|          [1]: raw bits data 0x426a-0x4416 (428)
0x4270|22 20 48 46 51 12 ca ab 36 d9 75 58 cb 25 2c 58|" HFQ...6.uX.%,X|
*     |until 0x4415.7 (428)                           |                |
      |00 01 02 03 04 05 06 07 08 09 0a 0b 0c 0d 0e 0f|0123456789abcdef|        [42][0:2]: sample (aac_frame) 0x4416-0x45b6 (416)
      |                                               |                |          [0]{}: element 0x4416-0x4417 (1)
0x4410|                  21                           |      !         |            syntax_element: "CPE" (1) 0x4416-0x4416.3 (0.3)
0x4410|                  21                           |      !         |            element_instance_tag: 0 0x4416.3-0x4416.7 (0.4)
0x4410|                  21                           |      !         |            common_window: true 0x4416.7-0x4417 (0.1)
0x4410|                     1b 4f e2 5b 7b 7f ff e8 2d|       .O.[{...-|          [1]: raw bits data 0x4417-0x45b6 (415)
0x4420|10 5b 0c 0d 96 46 50 8a 8b 5a ce c0 72 e5 54 02|.[...FP..Z..r.T.|
*     |until 0x45b5.7 (415)                           |                |
      |00 01 02 03 04 05 06 07 08 09 0a 0b 0c 0d 0e 0f|0123456789abcdef|        [43][0:2]: sample (aac_frame) 0x45b6-0x472f (377)
      |                                               |                |          [0]{}: element 0x45b6-0x45b7 (1)
0x45b0|                  21                           |      !         |            syntax_element: "CPE" (1) 0x45b6-0x45b6.3 (0.3)
0x45b0|                  21                           |      !         |            element_instance_tag: 0 0x45b6.3-0x45b6.7 (0.4)
0x45b0|                  21                           |      !         |            common_window: true 0x45b6.7-0x45b7 (0.1)
0x45b0|                     1b 4f c3 db 71 ff df e7 6d|       .O..q...m|          [1]: raw bits data 0x45b7-0x472f (376)
0x45c0|10 77 1b 19 0c 2f 00 85 3c 60 61 cc ad 62 54 59|.w.../..<`a..bTY|
*     |until 0x472e.7 (376)                           |                |
      |00 01 02 03 04 05 06 07 08 09 0a 0b 0c 0d 0e 0f|0123456789abcdef|        [44][0:2]: sample (aac_frame) 0x472f-0x48a5 (374)
      |                                               |                |          [0]{}: element 0x472f-0x4730 (1)
0x4720|                                             21|               !|            syntax_element: "CPE" (1) 0x472f-0x472f.3 (0.3)
0x4720|                                             21|               !|            element_instance_tag: 0 0x472f.3-0x472f.7 (0.4)
0x4720|                                             21|               !|            common_window: true 0x472f.7-0x4730 (0.1)
0x4730|1b 4f e3 13 bf ff ff e7 ad d0 44 14 05 52 2f 39|.O........D..R/9|          [1]: raw bits data 0x4730-0x48a5 (373)
*     |until 0x48a4.7 (373)                           |                |
      |00 01 02 03 04 05 06 07 08 09 0a 0b 0c 0d 0e 0f|0123456789abcdef|        [45][0:2]: sample (aac_frame) 0x48a5-0x4a0e (361)
      |                                               |                |          [0]{}: element 0x48a5-0x48a6 (1)
0x48a0|               21                              |     !          |            syntax_element: "CPE" (1) 0x48a5-0x48a5.3 (0.3)
0x48a0|               21                              |     !          |            element_instance_tag: 0 0x48a5.3-0x48a5.7 (0.4)
0x48a0|               21                              |     !          |            common_window: true 0x48a5.7-0x48a6 (0.1)
0x48a0|                  1b 4f e7 1b 55 ff ff e7 28 e0|      .O..U...(.|          [1]: raw bits data 0x48a6-0x4a0e (360)
0x48b0|1a 14 2d 4e 24 40 8b 0a ca ab 8e 68 a2 9c b0 80|..-N$@.....h....|
*     |until 0x4a0d.7 (end) (360)                     |                |
      |                                               |                |      id: 1
      |                                               |                |      data_format: "mp4a" (MPEG-4 Audio)
