$ fq -d midi dv midi/format-2.mid
     |00 01 02 03 04 05 06 07 08 09 0a 0b 0c 0d 0e 0f|0123456789abcdef|.{}: midi/format-2.mid (midi) 0x0-0x227 (551)
     |                                               |                |  header{}: 0x0-0xe (14)
     |                                               |                |    header[0:5]: 0x0-0xe (14)
0x000|4d 54 68 64                                    |MThd            |      [0]: "MThd" tag 0x0-0x4 (4)
0x000|            00 00 00 06                        |    ....        |      [1]: 6 length 0x4-0x8 (4)
0x000|                        00 02                  |        ..      |      [2]: 2 format 0x8-0xa (2)
0x000|                              00 02            |          ..    |      [3]: 2 tracks 0xa-0xc (2)
0x000|                                    01 e0      |            ..  |      [4]: 480 divisions 0xc-0xe (2)
     |                                               |                |  tracks[0:2]: 0xe-0x227 (537)
     |                                               |                |    [0]{}: track 0xe-0x11a (268)
0x000|                                          4d 54|              MT|      tag: "MTrk" 0xe-0x12 (4)
0x010|72 6b                                          |rk              |
0x010|      00 00 01 04                              |  ....          |      length: 260 0x12-0x16 (4)
     |                                               |                |      events[0:34]: 0x16-0x11a (260)
     |                                               |                |        [0]{}: metaevent 0x16-0x1c (6)
     |                                               |                |          time{}: 0x16-0x17 (1)
0x010|                  00                           |      .         |            delta: 0 0x16-0x17 (1)
     |                                               |                |            tick: 0
0x010|                     ff                        |       .        |          status: 255 0x17-0x18 (1)
0x010|                        00                     |        .       |          event: "sequence_number" (0) 0x18-0x19 (1)
0x010|                           02                  |         .      |          length: 2 0x19-0x1a (1)
0x010|                              00 17            |          ..    |          sequence_number: 23 0x1a-0x1c (2)
     |                                               |                |        [1]{}: metaevent 0x1c-0x2d (17)
     |                                               |                |          time{}: 0x1c-0x1d (1)
0x010|                                    00         |            .   |            delta: 0 0x1c-0x1d (1)
     |                                               |                |            tick: 0
0x010|                                       ff      |             .  |          status: 255 0x1d-0x1e (1)
0x010|                                          01   |              . |          event: "text" (1) 0x1e-0x1f (1)
0x010|                                             0d|               .|          text: "This and That" 0x1f-0x2d (14)
0x020|54 68 69 73 20 61 6e 64 20 54 68 61 74         |This and That   |
     |                                               |                |        [2]{}: metaevent 0x2d-0x35 (8)
     |                                               |                |          time{}: 0x2d-0x2e (1)
0x020|                                       00      |             .  |            delta: 0 0x2d-0x2e (1)
     |                                               |                |            tick: 0
0x020|                                          ff   |              . |          status: 255 0x2e-0x2f (1)
0x020|                                             02|               .|          event: "copyright" (2) 0x2f-0x30 (1)
0x030|04 54 68 65 6d                                 |.Them           |          copyright: "Them" 0x30-0x35 (5)
     |                                               |                |        [3]{}: metaevent 0x35-0x43 (14)
     |                                               |                |          time{}: 0x35-0x36 (1)
0x030|               00                              |     .          |            delta: 0 0x35-0x36 (1)
     |                                               |                |            tick: 0
0x030|                  ff                           |      .         |          status: 255 0x36-0x37 (1)
0x030|                     03                        |       .        |          event: "track_name" (3) 0x37-0x38 (1)
0x030|                        0a 4c 65 66 74 20 54 72|        .Left Tr|          track_name: "Left Track" 0x38-0x43 (11)
0x040|61 63 6b                                       |ack             |
     |                                               |                |        [4]{}: metaevent 0x43-0x51 (14)
     |                                               |                |          time{}: 0x43-0x44 (1)
0x040|         00                                    |   .            |            delta: 0 0x43-0x44 (1)
     |                                               |                |            tick: 0
0x040|            ff                                 |    .           |          status: 255 0x44-0x45 (1)
0x040|               04                              |     .          |          event: "instrument_name" (4) 0x45-0x46 (1)
0x040|                  0a 44 69 64 67 65 72 69 64 6f|      .Didgerido|          instrument_name: "Didgeridoo" 0x46-0x51 (11)
0x050|6f                                             |o               |
     |                                               |                |        [5]{}: metaevent 0x51-0x5d (12)
     |                                               |                |          time{}: 0x51-0x52 (1)
0x050|   00                                          | .              |            delta: 0 0x51-0x52 (1)
     |                                               |                |            tick: 0
0x050|      ff                                       |  .             |          status: 255 0x52-0x53 (1)
0x050|         05                                    |   .            |          event: "lyric" (5) 0x53-0x54 (1)
0x050|            08 4c 61 2d 6c 61 2d 6c 61         |    .La-la-la   |          lyric: "La-la-la" 0x54-0x5d (9)
     |                                               |                |        [6]{}: metaevent 0x5d-0x70 (19)
     |                                               |                |          time{}: 0x5d-0x5e (1)
0x050|                                       00      |             .  |            delta: 0 0x5d-0x5e (1)
     |                                               |                |            tick: 0
0x050|                                          ff   |              . |          status: 255 0x5e-0x5f (1)
0x050|                                             06|               .|          event: "marker" (6) 0x5f-0x60 (1)
0x060|0f 48 65 72 65 20 42 65 20 44 72 61 67 6f 6e 73|.Here Be Dragons|          marker: "Here Be Dragons" 0x60-0x70 (16)
     |                                               |                |        [7]{}: metaevent 0x70-0x80 (16)
     |                                               |                |          time{}: 0x70-0x71 (1)
0x070|00                                             |.               |            delta: 0 0x70-0x71 (1)
     |                                               |                |            tick: 0
0x070|   ff                                          | .              |          status: 255 0x71-0x72 (1)
0x070|      07                                       |  .             |          event: "cue_point" (7) 0x72-0x73 (1)
0x070|         0c 4d 6f 72 65 20 63 6f 77 62 65 6c 6c|   .More cowbell|          cue_point: "More cowbell" 0x73-0x80 (13)
     |                                               |                |        [8]{}: metaevent 0x80-0x8a (10)
     |                                               |                |          time{}: 0x80-0x81 (1)
0x080|00                                             |.               |            delta: 0 0x80-0x81 (1)
     |                                               |                |            tick: 0
0x080|   ff                                          | .              |          status: 255 0x81-0x82 (1)
0x080|      08                                       |  .             |          event: "program_name" (8) 0x82-0x83 (1)
0x080|         06 45 73 63 61 70 65                  |   .Escape      |          program_name: "Escape" 0x83-0x8a (7)
     |                                               |                |        [9]{}: metaevent 0x8a-0x96 (12)
     |                                               |                |          time{}: 0x8a-0x8b (1)
0x080|                              00               |          .     |            delta: 0 0x8a-0x8b (1)
     |                                               |                |            tick: 0
0x080|                                 ff            |           .    |          status: 255 0x8b-0x8c (1)
0x080|                                    09         |            .   |          event: "device_name" (9) 0x8c-0x8d (1)
0x080|                                       08 54 68|             .Th|          device_name: "TheThing" 0x8d-0x96 (9)
0x090|65 54 68 69 6e 67                              |eThing          |
     |                                               |                |        [10]{}: metaevent 0x96-0x9b (5)
     |                                               |                |          time{}: 0x96-0x97 (1)
0x090|                  00                           |      .         |            delta: 0 0x96-0x97 (1)
     |                                               |                |            tick: 0
0x090|                     ff                        |       .        |          status: 255 0x97-0x98 (1)
0x090|                        20                     |                |          event: "midi_channel_prefix" (32) 0x98-0x99 (1)
0x090|                           01                  |         .      |          length: 1 0x99-0x9a (1)
0x090|                              0d               |          .     |          midi_channel_prefix: 13 0x9a-0x9b (1)
     |                                               |                |        [11]{}: metaevent 0x9b-0xa0 (5)
     |                                               |                |          time{}: 0x9b-0x9c (1)
0x090|                                 00            |           .    |            delta: 0 0x9b-0x9c (1)
     |                                               |                |            tick: 0
0x090|                                    ff         |            .   |          status: 255 0x9c-0x9d (1)
0x090|                                       21      |             !  |          event: "midi_port" (33) 0x9d-0x9e (1)
0x090|                                          01   |              . |          length: 1 0x9e-0x9f (1)
0x090|                                             70|               p|          midi_port: 112 0x9f-0xa0 (1)
     |                                               |                |        [12]{}: metaevent 0xa0-0xa7 (7)
     |                                               |                |          time{}: 0xa0-0xa1 (1)
0x0a0|00                                             |.               |            delta: 0 0xa0-0xa1 (1)
     |                                               |                |            tick: 0
0x0a0|   ff                                          | .              |          status: 255 0xa1-0xa2 (1)
0x0a0|      51                                       |  Q             |          event: "tempo" (81) 0xa2-0xa3 (1)
0x0a0|         03                                    |   .            |          length: 3 0xa3-0xa4 (1)
0x0a0|            07 a1 20                           |    ..          |          tempo: 500000 0xa4-0xa7 (3)
     |                                               |                |        [13]{}: metaevent 0xa7-0xb0 (9)
     |                                               |                |          time{}: 0xa7-0xa8 (1)
0x0a0|                     00                        |       .        |            delta: 0 0xa7-0xa8 (1)
     |                                               |                |            tick: 0
0x0a0|                        ff                     |        .       |          status: 255 0xa8-0xa9 (1)
0x0a0|                           54                  |         T      |          event: "smpte_offset" (84) 0xa9-0xaa (1)
0x0a0|                              05               |          .     |          length: 5 0xaa-0xab (1)
     |                                               |                |          smpte_offset{}: 0xab-0xb0 (5)
0x0a0|                                 4d            |           M    |            framerate: 25 (1) 0xab-0xab.2 (0.2)
0x0a0|                                 4d            |           M    |            hour: 13 0xab.2-0xac (0.6)
0x0a0|                                    2d         |            -   |            minute: 45 0xac-0xad (1)
0x0a0|                                       3b      |             ;  |            second: 59 0xad-0xae (1)
0x0a0|                                          07   |              . |            frames: 7 0xae-0xaf (1)
0x0a0|                                             27|               '|            fractions: 39 0xaf-0xb0 (1)
     |                                               |                |        [14]{}: metaevent 0xb0-0xb8 (8)
     |                                               |                |          time{}: 0xb0-0xb1 (1)
0x0b0|00                                             |.               |            delta: 0 0xb0-0xb1 (1)
     |                                               |                |            tick: 0
0x0b0|   ff                                          | .              |          status: 255 0xb1-0xb2 (1)
0x0b0|      58                                       |  X             |          event: "time_signature" (88) 0xb2-0xb3 (1)
0x0b0|         04                                    |   .            |          length: 4 0xb3-0xb4 (1)
     |                                               |                |          time_signature{}: 0xb4-0xb8 (4)
0x0b0|            04                                 |    .           |            numerator: 4 0xb4-0xb5 (1)
0x0b0|               02                              |     .          |            denominator: 4 0xb5-0xb6 (1)
0x0b0|                  18                           |      .         |            ticks_per_click: 24 0xb6-0xb7 (1)
0x0b0|                     08                        |       .        |            thirty_seconds_per_quarter: 8 0xb7-0xb8 (1)
     |                                               |                |        [15]{}: metaevent 0xb8-0xbe (6)
     |                                               |                |          time{}: 0xb8-0xb9 (1)
0x0b0|                        00                     |        .       |            delta: 0 0xb8-0xb9 (1)
     |                                               |                |            tick: 0
0x0b0|                           ff                  |         .      |          status: 255 0xb9-0xba (1)
0x0b0|                              59               |          Y     |          event: "key_signature" (89) 0xba-0xbb (1)
0x0b0|                                 02            |           .    |          length: 2 0xbb-0xbc (1)
0x0b0|                                    00 01      |            ..  |          key_signature: "A minor" (1) 0xbc-0xbe (2)
     |                                               |                |        [16]{}: metaevent 0xbe-0xc8 (10)
     |                                               |                |          time{}: 0xbe-0xbf (1)
0x0b0|                                          00   |              . |            delta: 0 0xbe-0xbf (1)
     |                                               |                |            tick: 0
0x0b0|                                             ff|               .|          status: 255 0xbf-0xc0 (1)
0x0c0|7f                                             |.               |          event: "sequencer_specific_event" (127) 0xc0-0xc1 (1)
0x0c0|   06                                          | .              |          length: 6 0xc1-0xc2 (1)
     |                                               |                |          sequencer_specific_event{}: 0xc2-0xc8 (6)
0x0c0|      00 00 3b                                 |  ..;           |            manufacturer: "Mark Of The Unicorn (MOTU)" (59) 0xc2-0xc5 (3)
0x0c0|               3a 4c 5e                        |     :L^        |            data: raw bits 0xc5-0xc8 (3)
     |                                               |                |        [17]{}: midievent 0xc8-0xcd (5)
     |                                               |                |          time{}: 0xc8-0xca (2)
0x0c0|                        83 60                  |        .`      |            delta: 480 0xc8-0xca (2)
     |                                               |                |            tick: 0
     |                                               |                |          event: "note_off" (128)
0x0c0|                              80               |          .     |          channel: 0 0xca-0xcb (1)
     |                                               |                |          note{}: 0xcb-0xcd (2)
0x0c0|                                 30            |           0    |            note: "C3" (48) 0xcb-0xcc (1)
0x0c0|                                    40         |            @   |            velocity: 64 0xcc-0xcd (1)
     |                                               |                |        [18]{}: midievent 0xcd-0xd1 (4)
     |                                               |                |          time{}: 0xcd-0xce (1)
0x0c0|                                       00      |             .  |            delta: 0 0xcd-0xce (1)
     |                                               |                |            tick: 480
     |                                               |                |          event: "note_on" (144)
0x0c0|                                          90   |              . |          channel: 0 0xce-0xcf (1)
     |                                               |                |          note{}: 0xcf-0xd1 (2)
0x0c0|                                             30|               0|            note: "C3" (48) 0xcf-0xd0 (1)
0x0d0|48                                             |H               |            velocity: 72 0xd0-0xd1 (1)
     |                                               |                |        [19]{}: midievent 0xd1-0xd5 (4)
     |                                               |                |          time{}: 0xd1-0xd2 (1)
0x0d0|   00                                          | .              |            delta: 0 0xd1-0xd2 (1)
     |                                               |                |            tick: 480
     |                                               |                |          event: "note_on" (144)
0x0d0|      92                                       |  .             |          channel: 2 0xd2-0xd3 (1)
     |                                               |                |          note{}: 0xd3-0xd5 (2)
0x0d0|         31                                    |   1            |            note: "C♯3/D♭3" (49) 0xd3-0xd4 (1)
0x0d0|            48                                 |    H           |            velocity: 72 0xd4-0xd5 (1)
     |                                               |                |        [20]{}: midievent 0xd5-0xd8 (3)
     |                                               |                |          time{}: 0xd5-0xd6 (1)
0x0d0|               00                              |     .          |            delta: 0 0xd5-0xd6 (1)
     |                                               |                |            tick: 480
     |                                               |                |          event: "note_on" (144)
     |                                               |                |          channel: 2 0xd6-0xd6 (0)
     |                                               |                |          note{}: 0xd6-0xd8 (2)
0x0d0|                  30                           |      0         |            note: "C3" (48) 0xd6-0xd7 (1)
0x0d0|                     64                        |       d        |            velocity: 100 0xd7-0xd8 (1)
     |                                               |                |        [21]{}: midievent 0xd8-0xdb (3)
     |                                               |                |          time{}: 0xd8-0xd9 (1)
0x0d0|                        00                     |        .       |            delta: 0 0xd8-0xd9 (1)
     |                                               |                |            tick: 480
     |                                               |                |          event: "polyphonic_pressure" (160)
0x0d0|                           a0                  |         .      |          channel: 0 0xd9-0xda (1)
0x0d0|                              64               |          d     |          polyphonic_pressure: 100 0xda-0xdb (1)
     |                                               |                |        [22]{}: midievent 0xdb-0xdf (4)
     |                                               |                |          time{}: 0xdb-0xdc (1)
0x0d0|                                 00            |           .    |            delta: 0 0xdb-0xdc (1)
     |                                               |                |            tick: 480
     |                                               |                |          event: "controller" (176)
0x0d0|                                    b0         |            .   |          channel: 0 0xdc-0xdd (1)
     |                                               |                |          controller{}: 0xdd-0xdf (2)
0x0d0|                                       00      |             .  |            controller: "Bank Select (MSB)" (0) 0xdd-0xde (1)
0x0d0|                                          05   |              . |            value: 5 0xde-0xdf (1)
     |                                               |                |        [23]{}: midievent 0xdf-0xe3 (4)
     |                                               |                |          time{}: 0xdf-0xe0 (1)
0x0d0|                                             00|               .|            delta: 0 0xdf-0xe0 (1)
     |                                               |                |            tick: 480
     |                                               |                |          event: "controller" (176)
0x0e0|b0                                             |.               |          channel: 0 0xe0-0xe1 (1)
     |                                               |                |          controller{}: 0xe1-0xe3 (2)
0x0e0|   20                                          |                |            controller: "Bank Select (LSB)" (32) 0xe1-0xe2 (1)
0x0e0|      21                                       |  !             |            value: 33 0xe2-0xe3 (1)
     |                                               |                |        [24]{}: midievent 0xe3-0xe7 (4)
     |                                               |                |          time{}: 0xe3-0xe4 (1)
0x0e0|         00                                    |   .            |            delta: 0 0xe3-0xe4 (1)
     |                                               |                |            tick: 480
     |                                               |                |          event: "controller" (176)
0x0e0|            b0                                 |    .           |          channel: 0 0xe4-0xe5 (1)
     |                                               |                |          controller{}: 0xe5-0xe7 (2)
0x0e0|               65                              |     e          |            controller: "Registered Parameter Number (MSB)" (101) 0xe5-0xe6 (1)
0x0e0|                  00                           |      .         |            value: 0 0xe6-0xe7 (1)
     |                                               |                |        [25]{}: midievent 0xe7-0xea (3)
     |                                               |                |          time{}: 0xe7-0xe8 (1)
0x0e0|                     00                        |       .        |            delta: 0 0xe7-0xe8 (1)
     |                                               |                |            tick: 480
     |                                               |                |          event: "program_change" (192)
0x0e0|                        c0                     |        .       |          channel: 0 0xe8-0xe9 (1)
0x0e0|                           19                  |         .      |          program_change: 25 0xe9-0xea (1)
     |                                               |                |        [26]{}: midievent 0xea-0xed (3)
     |                                               |                |          time{}: 0xea-0xeb (1)
0x0e0|                              00               |          .     |            delta: 0 0xea-0xeb (1)
     |                                               |                |            tick: 480
     |                                               |                |          event: "channel_pressure" (208)
0x0e0|                                 d0            |           .    |          channel: 0 0xeb-0xec (1)
0x0e0|                                    07         |            .   |          channel_pressure: 7 0xec-0xed (1)
     |                                               |                |        [27]{}: midievent 0xed-0xf2 (5)
     |                                               |                |          time{}: 0xed-0xef (2)
0x0e0|                                       81 70   |             .p |            delta: 240 0xed-0xef (2)
     |                                               |                |            tick: 480
     |                                               |                |          event: "pitch_bend" (224)
0x0e0|                                             e0|               .|          channel: 0 0xef-0xf0 (1)
0x0f0|00 08                                          |..              |          pitch_bend: -8184 0xf0-0xf2 (2)
     |                                               |                |        [28]{}: sysex_message 0xf2-0xfa (8)
     |                                               |                |          time{}: 0xf2-0xf3 (1)
0x0f0|      00                                       |  .             |            delta: 0 0xf2-0xf3 (1)
     |                                               |                |            tick: 720
0x0f0|         f0                                    |   .            |          event: "sysex_message" (240) 0xf3-0xf4 (1)
0x0f0|            05 7e 00 09 01 f7                  |    .~....      |          bytes: "[126 0 9 1 247]" 0xf4-0xfa (6)
     |                                               |                |          manufacturer: "Non-RealTime Extensions" (126)
     |                                               |                |          data: "[0 9 1]"
     |                                               |                |        [29]{}: sysex_message 0xfa-0x100 (6)
     |                                               |                |          time{}: 0xfa-0xfb (1)
0x0f0|                              00               |          .     |            delta: 0 0xfa-0xfb (1)
     |                                               |                |            tick: 720
0x0f0|                                 f0            |           .    |          event: "sysex_message" (240) 0xfb-0xfc (1)
0x0f0|                                    03 43 12 00|            .C..|          bytes: "[67 18 0]" 0xfc-0x100 (4)
     |                                               |                |          manufacturer: "Yamaha" (67)
     |                                               |                |          data: "[18 0]"
     |                                               |                |          continued: true
     |                                               |                |        [30]{}: sysex_continuation 0x100-0x10a (10)
     |                                               |                |          time{}: 0x100-0x102 (2)
0x100|81 48                                          |.H              |            delta: 200 0x100-0x102 (2)
     |                                               |                |            tick: 720
0x100|      f7                                       |  .             |          event: "sysex_continuation" (33015) 0x102-0x103 (1)
0x100|         06 43 12 00 43 12 00                  |   .C..C..      |          bytes: "[67 18 0 67 18 0]" 0x103-0x10a (7)
0x100|         06 43 12 00 43 12 00                  |   .C..C..      |          data: "[67 18 0 67 18 0]" 0x103-0x10a (7)
     |                                               |                |        [31]{}: sysex_continuation 0x10a-0x111 (7)
     |                                               |                |          time{}: 0x10a-0x10b (1)
0x100|                              64               |          d     |            delta: 100 0x10a-0x10b (1)
     |                                               |                |            tick: 920
0x100|                                 f7            |           .    |          event: "sysex_continuation" (33015) 0x10b-0x10c (1)
0x100|                                    04 43 12 00|            .C..|          bytes: "[67 18 0 247]" 0x10c-0x111 (5)
0x110|f7                                             |.               |
0x100|                                    04 43 12 00|            .C..|          data: "[67 18 0]" 0x10c-0x111 (5)
0x110|f7                                             |.               |
     |                                               |                |        [32]{}: sysex_escape 0x111-0x116 (5)
     |                                               |                |          time{}: 0x111-0x112 (1)
0x110|   00                                          | .              |            delta: 0 0x111-0x112 (1)
     |                                               |                |            tick: 1020
0x110|      f7                                       |  .             |          event: "sysex_escape" (247) 0x112-0x113 (1)
0x110|         02 f3 01                              |   ...          |          bytes: "[243 1]" 0x113-0x116 (3)
0x110|         02 f3 01                              |   ...          |          data: "[243 1]" 0x113-0x116 (3)
     |                                               |                |        [33]{}: metaevent 0x116-0x11a (4)
     |                                               |                |          time{}: 0x116-0x117 (1)
0x110|                  00                           |      .         |            delta: 0 0x116-0x117 (1)
     |                                               |                |            tick: 1020
0x110|                     ff                        |       .        |          status: 255 0x117-0x118 (1)
0x110|                        2f                     |        /       |          event: "end_of_track" (47) 0x118-0x119 (1)
0x110|                           00                  |         .      |          length: 0 0x119-0x11a (1)
     |                                               |                |    [1]{}: track 0x11a-0x227 (269)
0x110|                              4d 54 72 6b      |          MTrk  |      tag: "MTrk" 0x11a-0x11e (4)
0x110|                                          00 00|              ..|      length: 261 0x11e-0x122 (4)
0x120|01 05                                          |..              |
     |                                               |                |      events[0:34]: 0x122-0x227 (261)
     |                                               |                |        [0]{}: sysex_message 0x122-0x12a (8)
     |                                               |                |          time{}: 0x122-0x123 (1)
0x120|      00                                       |  .             |            delta: 0 0x122-0x123 (1)
     |                                               |                |            tick: 0
0x120|         f0                                    |   .            |          event: "sysex_message" (240) 0x123-0x124 (1)
0x120|            05 7e 00 09 01 f7                  |    .~....      |          bytes: "[126 0 9 1 247]" 0x124-0x12a (6)
     |                                               |                |          manufacturer: "Non-RealTime Extensions" (126)
     |                                               |                |          data: "[0 9 1]"
     |                                               |                |        [1]{}: sysex_message 0x12a-0x130 (6)
     |                                               |                |          time{}: 0x12a-0x12b (1)
0x120|                              00               |          .     |            delta: 0 0x12a-0x12b (1)
     |                                               |                |            tick: 0
0x120|                                 f0            |           .    |          event: "sysex_message" (240) 0x12b-0x12c (1)
0x120|                                    03 43 12 00|            .C..|          bytes: "[67 18 0]" 0x12c-0x130 (4)
     |                                               |                |          manufacturer: "Yamaha" (67)
     |                                               |                |          data: "[18 0]"
     |                                               |                |          continued: true
     |                                               |                |        [2]{}: sysex_continuation 0x130-0x13a (10)
     |                                               |                |          time{}: 0x130-0x132 (2)
0x130|81 48                                          |.H              |            delta: 200 0x130-0x132 (2)
     |                                               |                |            tick: 0
0x130|      f7                                       |  .             |          event: "sysex_continuation" (33015) 0x132-0x133 (1)
0x130|         06 43 12 00 43 12 00                  |   .C..C..      |          bytes: "[67 18 0 67 18 0]" 0x133-0x13a (7)
0x130|         06 43 12 00 43 12 00                  |   .C..C..      |          data: "[67 18 0 67 18 0]" 0x133-0x13a (7)
     |                                               |                |        [3]{}: sysex_continuation 0x13a-0x141 (7)
     |                                               |                |          time{}: 0x13a-0x13b (1)
0x130|                              64               |          d     |            delta: 100 0x13a-0x13b (1)
     |                                               |                |            tick: 200
0x130|                                 f7            |           .    |          event: "sysex_continuation" (33015) 0x13b-0x13c (1)
0x130|                                    04 43 12 00|            .C..|          bytes: "[67 18 0 247]" 0x13c-0x141 (5)
0x140|f7                                             |.               |
0x130|                                    04 43 12 00|            .C..|          data: "[67 18 0]" 0x13c-0x141 (5)
0x140|f7                                             |.               |
     |                                               |                |        [4]{}: sysex_escape 0x141-0x146 (5)
     |                                               |                |          time{}: 0x141-0x142 (1)
0x140|   00                                          | .              |            delta: 0 0x141-0x142 (1)
     |                                               |                |            tick: 300
0x140|      f7                                       |  .             |          event: "sysex_escape" (247) 0x142-0x143 (1)
0x140|         02 f3 01                              |   ...          |          bytes: "[243 1]" 0x143-0x146 (3)
0x140|         02 f3 01                              |   ...          |          data: "[243 1]" 0x143-0x146 (3)
     |                                               |                |        [5]{}: midievent 0x146-0x14b (5)
     |                                               |                |          time{}: 0x146-0x148 (2)
0x140|                  81 70                        |      .p        |            delta: 240 0x146-0x148 (2)
     |                                               |                |            tick: 300
     |                                               |                |          event: "pitch_bend" (224)
0x140|                        e0                     |        .       |          channel: 0 0x148-0x149 (1)
0x140|                           00 08               |         ..     |          pitch_bend: -8184 0x149-0x14b (2)
     |                                               |                |        [6]{}: midievent 0x14b-0x14e (3)
     |                                               |                |          time{}: 0x14b-0x14c (1)
0x140|                                 00            |           .    |            delta: 0 0x14b-0x14c (1)
     |                                               |                |            tick: 540
     |                                               |                |          event: "channel_pressure" (208)
0x140|                                    d0         |            .   |          channel: 0 0x14c-0x14d (1)
0x140|                                       07      |             .  |          channel_pressure: 7 0x14d-0x14e (1)
     |                                               |                |        [7]{}: midievent 0x14e-0x151 (3)
     |                                               |                |          time{}: 0x14e-0x14f (1)
0x140|                                          00   |              . |            delta: 0 0x14e-0x14f (1)
     |                                               |                |            tick: 540
     |                                               |                |          event: "program_change" (192)
0x140|                                             c0|               .|          channel: 0 0x14f-0x150 (1)
0x150|19                                             |.               |          program_change: 25 0x150-0x151 (1)
     |                                               |                |        [8]{}: midievent 0x151-0x155 (4)
     |                                               |                |          time{}: 0x151-0x152 (1)
0x150|   00                                          | .              |            delta: 0 0x151-0x152 (1)
     |                                               |                |            tick: 540
     |                                               |                |          event: "controller" (176)
0x150|      b0                                       |  .             |          channel: 0 0x152-0x153 (1)
     |                                               |                |          controller{}: 0x153-0x155 (2)
0x150|         65                                    |   e            |            controller: "Registered Parameter Number (MSB)" (101) 0x153-0x154 (1)
0x150|            00                                 |    .           |            value: 0 0x154-0x155 (1)
     |                                               |                |        [9]{}: midievent 0x155-0x159 (4)
     |                                               |                |          time{}: 0x155-0x156 (1)
0x150|               00                              |     .          |            delta: 0 0x155-0x156 (1)
     |                                               |                |            tick: 540
     |                                               |                |          event: "controller" (176)
0x150|                  b0                           |      .         |          channel: 0 0x156-0x157 (1)
     |                                               |                |          controller{}: 0x157-0x159 (2)
0x150|                     20                        |                |            controller: "Bank Select (LSB)" (32) 0x157-0x158 (1)
0x150|                        21                     |        !       |            value: 33 0x158-0x159 (1)
     |                                               |                |        [10]{}: midievent 0x159-0x15d (4)
     |                                               |                |          time{}: 0x159-0x15a (1)
0x150|                           00                  |         .      |            delta: 0 0x159-0x15a (1)
     |                                               |                |            tick: 540
     |                                               |                |          event: "controller" (176)
0x150|                              b0               |          .     |          channel: 0 0x15a-0x15b (1)
     |                                               |                |          controller{}: 0x15b-0x15d (2)
0x150|                                 00            |           .    |            controller: "Bank Select (MSB)" (0) 0x15b-0x15c (1)
0x150|                                    05         |            .   |            value: 5 0x15c-0x15d (1)
     |                                               |                |        [11]{}: midievent 0x15d-0x160 (3)
     |                                               |                |          time{}: 0x15d-0x15e (1)
0x150|                                       00      |             .  |            delta: 0 0x15d-0x15e (1)
     |                                               |                |            tick: 540
     |                                               |                |          event: "polyphonic_pressure" (160)
0x150|                                          a0   |              . |          channel: 0 0x15e-0x15f (1)
0x150|                                             64|               d|          polyphonic_pressure: 100 0x15f-0x160 (1)
     |                                               |                |        [12]{}: midievent 0x160-0x164 (4)
     |                                               |                |          time{}: 0x160-0x161 (1)
0x160|00                                             |.               |            delta: 0 0x160-0x161 (1)
     |                                               |                |            tick: 540
     |                                               |                |          event: "note_on" (144)
0x160|   90                                          | .              |          channel: 0 0x161-0x162 (1)
     |                                               |                |          note{}: 0x162-0x164 (2)
0x160|      30                                       |  0             |            note: "C3" (48) 0x162-0x163 (1)
0x160|         48                                    |   H            |            velocity: 72 0x163-0x164 (1)
     |                                               |                |        [13]{}: midievent 0x164-0x168 (4)
     |                                               |                |          time{}: 0x164-0x165 (1)
0x160|            00                                 |    .           |            delta: 0 0x164-0x165 (1)
     |                                               |                |            tick: 540
     |                                               |                |          event: "note_on" (144)
0x160|               92                              |     .          |          channel: 2 0x165-0x166 (1)
     |                                               |                |          note{}: 0x166-0x168 (2)
0x160|                  31                           |      1         |            note: "C♯3/D♭3" (49) 0x166-0x167 (1)
0x160|                     48                        |       H        |            velocity: 72 0x167-0x168 (1)
     |                                               |                |        [14]{}: midievent 0x168-0x16b (3)
     |                                               |                |          time{}: 0x168-0x169 (1)
0x160|                        00                     |        .       |            delta: 0 0x168-0x169 (1)
     |                                               |                |            tick: 540
     |                                               |                |          event: "note_on" (144)
     |                                               |                |          channel: 2 0x169-0x169 (0)
     |                                               |                |          note{}: 0x169-0x16b (2)
0x160|                           30                  |         0      |            note: "C3" (48) 0x169-0x16a (1)
0x160|                              64               |          d     |            velocity: 100 0x16a-0x16b (1)
     |                                               |                |        [15]{}: midievent 0x16b-0x170 (5)
     |                                               |                |          time{}: 0x16b-0x16d (2)
0x160|                                 83 60         |           .`   |            delta: 480 0x16b-0x16d (2)
     |                                               |                |            tick: 540
     |                                               |                |          event: "note_off" (128)
0x160|                                       80      |             .  |          channel: 0 0x16d-0x16e (1)
     |                                               |                |          note{}: 0x16e-0x170 (2)
0x160|                                          30   |              0 |            note: "C3" (48) 0x16e-0x16f (1)
0x160|                                             40|               @|            velocity: 64 0x16f-0x170 (1)
     |                                               |                |        [16]{}: metaevent 0x170-0x17a (10)
     |                                               |                |          time{}: 0x170-0x171 (1)
0x170|00                                             |.               |            delta: 0 0x170-0x171 (1)
     |                                               |                |            tick: 1020
0x170|   ff                                          | .              |          status: 255 0x171-0x172 (1)
0x170|      7f                                       |  .             |          event: "sequencer_specific_event" (127) 0x172-0x173 (1)
0x170|         06                                    |   .            |          length: 6 0x173-0x174 (1)
     |                                               |                |          sequencer_specific_event{}: 0x174-0x17a (6)
0x170|            00 00 3b                           |    ..;         |            manufacturer: "Mark Of The Unicorn (MOTU)" (59) 0x174-0x177 (3)
0x170|                     3a 4c 5e                  |       :L^      |            data: raw bits 0x177-0x17a (3)
     |                                               |                |        [17]{}: metaevent 0x17a-0x180 (6)
     |                                               |                |          time{}: 0x17a-0x17b (1)
0x170|                              00               |          .     |            delta: 0 0x17a-0x17b (1)
     |                                               |                |            tick: 1020
0x170|                                 ff            |           .    |          status: 255 0x17b-0x17c (1)
0x170|                                    59         |            Y   |          event: "key_signature" (89) 0x17c-0x17d (1)
0x170|                                       02      |             .  |          length: 2 0x17d-0x17e (1)
0x170|                                          00 01|              ..|          key_signature: "A minor" (1) 0x17e-0x180 (2)
     |                                               |                |        [18]{}: metaevent 0x180-0x188 (8)
     |                                               |                |          time{}: 0x180-0x181 (1)
0x180|00                                             |.               |            delta: 0 0x180-0x181 (1)
     |                                               |                |            tick: 1020
0x180|   ff                                          | .              |          status: 255 0x181-0x182 (1)
0x180|      58                                       |  X             |          event: "time_signature" (88) 0x182-0x183 (1)
0x180|         04                                    |   .            |          length: 4 0x183-0x184 (1)
     |                                               |                |          time_signature{}: 0x184-0x188 (4)
0x180|            04                                 |    .           |            numerator: 4 0x184-0x185 (1)
0x180|               02                              |     .          |            denominator: 4 0x185-0x186 (1)
0x180|                  18                           |      .         |            ticks_per_click: 24 0x186-0x187 (1)
0x180|                     08                        |       .        |            thirty_seconds_per_quarter: 8 0x187-0x188 (1)
     |                                               |                |        [19]{}: metaevent 0x188-0x191 (9)
     |                                               |                |          time{}: 0x188-0x189 (1)
0x180|                        00                     |        .       |            delta: 0 0x188-0x189 (1)
     |                                               |                |            tick: 1020
0x180|                           ff                  |         .      |          status: 255 0x189-0x18a (1)
0x180|                              54               |          T     |          event: "smpte_offset" (84) 0x18a-0x18b (1)
0x180|                                 05            |           .    |          length: 5 0x18b-0x18c (1)
     |                                               |                |          smpte_offset{}: 0x18c-0x191 (5)
0x180|                                    4d         |            M   |            framerate: 25 (1) 0x18c-0x18c.2 (0.2)
0x180|                                    4d         |            M   |            hour: 13 0x18c.2-0x18d (0.6)
0x180|                                       2d      |             -  |            minute: 45 0x18d-0x18e (1)
0x180|                                          3b   |              ; |            second: 59 0x18e-0x18f (1)
0x180|                                             07|               .|            frames: 7 0x18f-0x190 (1)
0x190|27                                             |'               |            fractions: 39 0x190-0x191 (1)
     |                                               |                |        [20]{}: metaevent 0x191-0x198 (7)
     |                                               |                |          time{}: 0x191-0x192 (1)
0x190|   00                                          | .              |            delta: 0 0x191-0x192 (1)
     |                                               |                |            tick: 1020
0x190|      ff                                       |  .             |          status: 255 0x192-0x193 (1)
0x190|         51                                    |   Q            |          event: "tempo" (81) 0x193-0x194 (1)
0x190|            03                                 |    .           |          length: 3 0x194-0x195 (1)
0x190|               07 a1 20                        |     ..         |          tempo: 500000 0x195-0x198 (3)
     |                                               |                |        [21]{}: metaevent 0x198-0x19d (5)
     |                                               |                |          time{}: 0x198-0x199 (1)
0x190|                        00                     |        .       |            delta: 0 0x198-0x199 (1)
     |                                               |                |            tick: 1020
0x190|                           ff                  |         .      |          status: 255 0x199-0x19a (1)
0x190|                              21               |          !     |          event: "midi_port" (33) 0x19a-0x19b (1)
0x190|                                 01            |           .    |          length: 1 0x19b-0x19c (1)
0x190|                                    70         |            p   |          midi_port: 112 0x19c-0x19d (1)
     |                                               |                |        [22]{}: metaevent 0x19d-0x1a2 (5)
     |                                               |                |          time{}: 0x19d-0x19e (1)
0x190|                                       00      |             .  |            delta: 0 0x19d-0x19e (1)
     |                                               |                |            tick: 1020
0x190|                                          ff   |              . |          status: 255 0x19e-0x19f (1)
0x190|                                             20|                |          event: "midi_channel_prefix" (32) 0x19f-0x1a0 (1)
0x1a0|01                                             |.               |          length: 1 0x1a0-0x1a1 (1)
0x1a0|   0d                                          | .              |          midi_channel_prefix: 13 0x1a1-0x1a2 (1)
     |                                               |                |        [23]{}: metaevent 0x1a2-0x1ae (12)
     |                                               |                |          time{}: 0x1a2-0x1a3 (1)
0x1a0|      00                                       |  .             |            delta: 0 0x1a2-0x1a3 (1)
     |                                               |                |            tick: 1020
0x1a0|         ff                                    |   .            |          status: 255 0x1a3-0x1a4 (1)
0x1a0|            09                                 |    .           |          event: "device_name" (9) 0x1a4-0x1a5 (1)
0x1a0|               08 54 68 65 54 68 69 6e 67      |     .TheThing  |          device_name: "TheThing" 0x1a5-0x1ae (9)
     |                                               |                |        [24]{}: metaevent 0x1ae-0x1b8 (10)
     |                                               |                |          time{}: 0x1ae-0x1af (1)
0x1a0|                                          00   |              . |            delta: 0 0x1ae-0x1af (1)
     |                                               |                |            tick: 1020
0x1a0|                                             ff|               .|          status: 255 0x1af-0x1b0 (1)
0x1b0|08                                             |.               |          event: "program_name" (8) 0x1b0-0x1b1 (1)
0x1b0|   06 45 73 63 61 70 65                        | .Escape        |          program_name: "Escape" 0x1b1-0x1b8 (7)
     |                                               |                |        [25]{}: metaevent 0x1b8-0x1c8 (16)
     |                                               |                |          time{}: 0x1b8-0x1b9 (1)
0x1b0|                        00                     |        .       |            delta: 0 0x1b8-0x1b9 (1)
     |                                               |                |            tick: 1020
0x1b0|                           ff                  |         .      |          status: 255 0x1b9-0x1ba (1)
0x1b0|                              07               |          .     |          event: "cue_point" (7) 0x1ba-0x1bb (1)
0x1b0|                                 0c 4d 6f 72 65|           .More|          cue_point: "More cowbell" 0x1bb-0x1c8 (13)
0x1c0|20 63 6f 77 62 65 6c 6c                        | cowbell        |
     |                                               |                |        [26]{}: metaevent 0x1c8-0x1db (19)
     |                                               |                |          time{}: 0x1c8-0x1c9 (1)
0x1c0|                        00                     |        .       |            delta: 0 0x1c8-0x1c9 (1)
     |                                               |                |            tick: 1020
0x1c0|                           ff                  |         .      |          status: 255 0x1c9-0x1ca (1)
0x1c0|                              06               |          .     |          event: "marker" (6) 0x1ca-0x1cb (1)
0x1c0|                                 0f 48 65 72 65|           .Here|          marker: "Here Be Dragons" 0x1cb-0x1db (16)
0x1d0|20 42 65 20 44 72 61 67 6f 6e 73               | Be Dragons     |
     |                                               |                |        [27]{}: metaevent 0x1db-0x1e7 (12)
     |                                               |                |          time{}: 0x1db-0x1dc (1)
0x1d0|                                 00            |           .    |            delta: 0 0x1db-0x1dc (1)
     |                                               |                |            tick: 1020
0x1d0|                                    ff         |            .   |          status: 255 0x1dc-0x1dd (1)
0x1d0|                                       05      |             .  |          event: "lyric" (5) 0x1dd-0x1de (1)
0x1d0|                                          08 4c|              .L|          lyric: "La-la-la" 0x1de-0x1e7 (9)
0x1e0|61 2d 6c 61 2d 6c 61                           |a-la-la         |
     |                                               |                |        [28]{}: metaevent 0x1e7-0x1f5 (14)
     |                                               |                |          time{}: 0x1e7-0x1e8 (1)
0x1e0|                     00                        |       .        |            delta: 0 0x1e7-0x1e8 (1)
     |                                               |                |            tick: 1020
0x1e0|                        ff                     |        .       |          status: 255 0x1e8-0x1e9 (1)
0x1e0|                           04                  |         .      |          event: "instrument_name" (4) 0x1e9-0x1ea (1)
0x1e0|                              0a 44 69 64 67 65|          .Didge|          instrument_name: "Didgeridoo" 0x1ea-0x1f5 (11)
0x1f0|72 69 64 6f 6f                                 |ridoo           |
     |                                               |                |        [29]{}: metaevent 0x1f5-0x204 (15)
     |                                               |                |          time{}: 0x1f5-0x1f6 (1)
0x1f0|               00                              |     .          |            delta: 0 0x1f5-0x1f6 (1)
     |                                               |                |            tick: 1020
0x1f0|                  ff                           |      .         |          status: 255 0x1f6-0x1f7 (1)
0x1f0|                     03                        |       .        |          event: "track_name" (3) 0x1f7-0x1f8 (1)
0x1f0|                        0b 52 69 67 68 74 20 54|        .Right T|          track_name: "Right Track" 0x1f8-0x204 (12)
0x200|72 61 63 6b                                    |rack            |
     |                                               |                |        [30]{}: metaevent 0x204-0x20c (8)
     |                                               |                |          time{}: 0x204-0x205 (1)
0x200|            00                                 |    .           |            delta: 0 0x204-0x205 (1)
     |                                               |                |            tick: 1020
0x200|               ff                              |     .          |          status: 255 0x205-0x206 (1)
0x200|                  02                           |      .         |          event: "copyright" (2) 0x206-0x207 (1)
0x200|                     04 54 68 65 6d            |       .Them    |          copyright: "Them" 0x207-0x20c (5)
     |                                               |                |        [31]{}: metaevent 0x20c-0x21d (17)
     |                                               |                |          time{}: 0x20c-0x20d (1)
0x200|                                    00         |            .   |            delta: 0 0x20c-0x20d (1)
     |                                               |                |            tick: 1020
0x200|                                       ff      |             .  |          status: 255 0x20d-0x20e (1)
0x200|                                          01   |              . |          event: "text" (1) 0x20e-0x20f (1)
0x200|                                             0d|               .|          text: "This and That" 0x20f-0x21d (14)
0x210|54 68 69 73 20 61 6e 64 20 54 68 61 74         |This and That   |
     |                                               |                |        [32]{}: metaevent 0x21d-0x223 (6)
     |                                               |                |          time{}: 0x21d-0x21e (1)
0x210|                                       00      |             .  |            delta: 0 0x21d-0x21e (1)
     |                                               |                |            tick: 1020
0x210|                                          ff   |              . |          status: 255 0x21e-0x21f (1)
0x210|                                             00|               .|          event: "sequence_number" (0) 0x21f-0x220 (1)
0x220|02                                             |.               |          length: 2 0x220-0x221 (1)
0x220|   00 17                                       | ..             |          sequence_number: 23 0x221-0x223 (2)
     |                                               |                |        [33]{}: metaevent 0x223-0x227 (4)
     |                                               |                |          time{}: 0x223-0x224 (1)
0x220|         00                                    |   .            |            delta: 0 0x223-0x224 (1)
     |                                               |                |            tick: 1020
0x220|            ff                                 |    .           |          status: 255 0x224-0x225 (1)
0x220|               2f                              |     /          |          event: "end_of_track" (47) 0x225-0x226 (1)
0x220|                  00|                          |      .|        |          length: 0 0x226-0x227 (1)
