$ fq -d midi dv midi/format-0-extra-tracks.mid
    |00 01 02 03 04 05 06 07 08 09 0a 0b 0c 0d 0e 0f|0123456789abcdef|.{}: midi/format-0-extra-tracks.mid (midi) 0x0-0x3e (62)
    |                                               |                |  header{}: 0x0-0xe (14)
0x00|4d 54 68 64                                    |MThd            |    tag: "MThd" 0x0-0x4 (4)
0x00|            00 00 00 06                        |    ....        |    length: 6 0x4-0x8 (4)
0x00|                        00 00                  |        ..      |    format: 0 0x8-0xa (2)
0x00|                              00 01            |          ..    |    tracks: 1 0xa-0xc (2)
    |                                               |                |    division{}: 0xc-0xe (2)
0x00|                                    01 e0      |            ..  |      ppqn: 480 0xc-0xe (2)
    |                                               |                |  content[0:2]: 0xe-0x3e (48)
    |                                               |                |    [0]{}: track 0xe-0x26 (24)
0x00|                                          4d 54|              MT|      tag: "MTrk" 0xe-0x12 (4)
0x10|72 6b                                          |rk              |
0x10|      00 00 00 10                              |  ....          |      length: 16 0x12-0x16 (4)
    |                                               |                |      events[0:2]: 0x16-0x26 (16)
    |                                               |                |        [0]{}: meta_event 0x16-0x22 (12)
    |                                               |                |          time{}: 0x16-0x17 (1)
0x10|                  00                           |      .         |            delta: 0 0x16-0x17 (1)
    |                                               |                |            tick: 0
0x10|                     ff                        |       .        |          status: 255 0x17-0x18 (1)
0x10|                        03                     |        .       |          event: "track_name" (3) 0x18-0x19 (1)
0x10|                           08 54 72 61 63 6b 20|         .Track |          track_name: "Track 01" 0x19-0x22 (9)
0x20|30 31                                          |01              |
    |                                               |                |        [1]{}: meta_event 0x22-0x26 (4)
    |                                               |                |          time{}: 0x22-0x23 (1)
0x20|      00                                       |  .             |            delta: 0 0x22-0x23 (1)
    |                                               |                |            tick: 0
0x20|         ff                                    |   .            |          status: 255 0x23-0x24 (1)
0x20|            2f                                 |    /           |          event: "end_of_track" (47) 0x24-0x25 (1)
0x20|               00                              |     .          |          length: 0 0x25-0x26 (1)
    |                                               |                |    [1]{}: other 0x26-0x3e (24)
0x20|                  4d 54 72 6b                  |      MTrk      |      tag: "MTrk" 0x26-0x2a (4)
0x20|                              00 00 00 10      |          ....  |      length: 16 0x2a-0x2e (4)
0x20|                                          00 ff|              ..|      data: raw bits 0x2e-0x3e (16)
0x30|03 08 54 72 61 63 6b 20 30 32 00 ff 2f 00|     |..Track 02../.| |
