$ fq -d midi dv midi/format-0.mid
     |00 01 02 03 04 05 06 07 08 09 0a 0b 0c 0d 0e 0f|0123456789abcdef|.{}: midi/format-0.mid (midi) 0x0-0x118 (280)
     |                                               |                |  header{}: 0x0-0xe (14)
     |                                               |                |    header[0:5]: 0x0-0xe (14)
0x000|4d 54 68 64                                    |MThd            |      [0]: "MThd" tag 0x0-0x4 (4)
0x000|            00 00 00 06                        |    ....        |      [1]: 6 length 0x4-0x8 (4)
0x000|                        00 00                  |        ..      |      [2]: 0 format 0x8-0xa (2)
0x000|                              00 01            |          ..    |      [3]: 1 tracks 0xa-0xc (2)
0x000|                                    01 e0      |            ..  |      [4]: 480 divisions 0xc-0xe (2)
     |                                               |                |  tracks[0:1]: 0xe-0x118 (266)
     |                                               |                |    [0]{}: track 0xe-0x118 (266)
0x000|                                          4d 54|              MT|      tag: "MTrk" 0xe-0x12 (4)
0x010|72 6b                                          |rk              |
0x010|      00 00 01 02                              |  ....          |      length: 258 0x12-0x16 (4)
     |                                               |                |      events[0:34]: 0x16-0x118 (258)
     |                                               |                |        [0]{}: metaevent 0x16-0x1c (6)
     |                                               |                |          time{}: 0x16-0x17 (1)
0x010|                  00                           |      .         |            delta: 0 0x16-0x17 (1)
     |                                               |                |            tick: 0
0x010|                     ff                        |       .        |          status: 255 0x17-0x18 (1)
0x010|                        00                     |        .       |          event: "sequence_number" (0) 0x18-0x19 (1)
0x010|                           02                  |         .      |          length: 2 0x19-0x1a (1)
0x010|                              00 17            |          ..    |          sequence_number: 23 0x1a-0x1c (2)
     |                                               |                |        [1]{}: metaevent 0x1c-0x2d (17)
     |                                               |                |          time{}: 0x1c-0x1d (1)
0x010|                                    00         |            .   |            delta: 0 0x1c-0x1d (1)
     |                                               |                |            tick: 0
0x010|                                       ff      |             .  |          status: 255 0x1d-0x1e (1)
0x010|                                          01   |              . |          event: "text" (1) 0x1e-0x1f (1)
0x010|                                             0d|               .|          text: "This and That" 0x1f-0x2d (14)
0x020|54 68 69 73 20 61 6e 64 20 54 68 61 74         |This and That   |
     |                                               |                |        [2]{}: metaevent 0x2d-0x35 (8)
     |                                               |                |          time{}: 0x2d-0x2e (1)
0x020|                                       00      |             .  |            delta: 0 0x2d-0x2e (1)
     |                                               |                |            tick: 0
0x020|                                          ff   |              . |          status: 255 0x2e-0x2f (1)
0x020|                                             02|               .|          event: "copyright" (2) 0x2f-0x30 (1)
0x030|04 54 68 65 6d                                 |.Them           |          copyright: "Them" 0x30-0x35 (5)
     |                                               |                |        [3]{}: metaevent 0x35-0x41 (12)
     |                                               |                |          time{}: 0x35-0x36 (1)
0x030|               00                              |     .          |            delta: 0 0x35-0x36 (1)
     |                                               |                |            tick: 0
0x030|                  ff                           |      .         |          status: 255 0x36-0x37 (1)
0x030|                     03                        |       .        |          event: "track_name" (3) 0x37-0x38 (1)
0x030|                        08 46 6f 72 6d 61 74 20|        .Format |          track_name: "Format 0" 0x38-0x41 (9)
0x040|30                                             |0               |
     |                                               |                |        [4]{}: metaevent 0x41-0x4f (14)
     |                                               |                |          time{}: 0x41-0x42 (1)
0x040|   00                                          | .              |            delta: 0 0x41-0x42 (1)
     |                                               |                |            tick: 0
0x040|      ff                                       |  .             |          status: 255 0x42-0x43 (1)
0x040|         04                                    |   .            |          event: "instrument_name" (4) 0x43-0x44 (1)
0x040|            0a 44 69 64 67 65 72 69 64 6f 6f   |    .Didgeridoo |          instrument_name: "Didgeridoo" 0x44-0x4f (11)
     |                                               |                |        [5]{}: metaevent 0x4f-0x5b (12)
     |                                               |                |          time{}: 0x4f-0x50 (1)
0x040|                                             00|               .|            delta: 0 0x4f-0x50 (1)
     |                                               |                |            tick: 0
0x050|ff                                             |.               |          status: 255 0x50-0x51 (1)
0x050|   05                                          | .              |          event: "lyric" (5) 0x51-0x52 (1)
0x050|      08 4c 61 2d 6c 61 2d 6c 61               |  .La-la-la     |          lyric: "La-la-la" 0x52-0x5b (9)
     |                                               |                |        [6]{}: metaevent 0x5b-0x6e (19)
     |                                               |                |          time{}: 0x5b-0x5c (1)
0x050|                                 00            |           .    |            delta: 0 0x5b-0x5c (1)
     |                                               |                |            tick: 0
0x050|                                    ff         |            .   |          status: 255 0x5c-0x5d (1)
0x050|                                       06      |             .  |          event: "marker" (6) 0x5d-0x5e (1)
0x050|                                          0f 48|              .H|          marker: "Here Be Dragons" 0x5e-0x6e (16)
0x060|65 72 65 20 42 65 20 44 72 61 67 6f 6e 73      |ere Be Dragons  |
     |                                               |                |        [7]{}: metaevent 0x6e-0x7e (16)
     |                                               |                |          time{}: 0x6e-0x6f (1)
0x060|                                          00   |              . |            delta: 0 0x6e-0x6f (1)
     |                                               |                |            tick: 0
0x060|                                             ff|               .|          status: 255 0x6f-0x70 (1)
0x070|07                                             |.               |          event: "cue_point" (7) 0x70-0x71 (1)
0x070|   0c 4d 6f 72 65 20 63 6f 77 62 65 6c 6c      | .More cowbell  |          cue_point: "More cowbell" 0x71-0x7e (13)
     |                                               |                |        [8]{}: metaevent 0x7e-0x88 (10)
     |                                               |                |          time{}: 0x7e-0x7f (1)
0x070|                                          00   |              . |            delta: 0 0x7e-0x7f (1)
     |                                               |                |            tick: 0
0x070|                                             ff|               .|          status: 255 0x7f-0x80 (1)
0x080|08                                             |.               |          event: "program_name" (8) 0x80-0x81 (1)
0x080|   06 45 73 63 61 70 65                        | .Escape        |          program_name: "Escape" 0x81-0x88 (7)
     |                                               |                |        [9]{}: metaevent 0x88-0x94 (12)
     |                                               |                |          time{}: 0x88-0x89 (1)
0x080|                        00                     |        .       |            delta: 0 0x88-0x89 (1)
     |                                               |                |            tick: 0
0x080|                           ff                  |         .      |          status: 255 0x89-0x8a (1)
0x080|                              09               |          .     |          event: "device_name" (9) 0x8a-0x8b (1)
0x080|                                 08 54 68 65 54|           .TheT|          device_name: "TheThing" 0x8b-0x94 (9)
0x090|68 69 6e 67                                    |hing            |
     |                                               |                |        [10]{}: metaevent 0x94-0x99 (5)
     |                                               |                |          time{}: 0x94-0x95 (1)
0x090|            00                                 |    .           |            delta: 0 0x94-0x95 (1)
     |                                               |                |            tick: 0
0x090|               ff                              |     .          |          status: 255 0x95-0x96 (1)
0x090|                  20                           |                |          event: "midi_channel_prefix" (32) 0x96-0x97 (1)
0x090|                     01                        |       .        |          length: 1 0x97-0x98 (1)
0x090|                        0d                     |        .       |          midi_channel_prefix: 13 0x98-0x99 (1)
     |                                               |                |        [11]{}: metaevent 0x99-0x9e (5)
     |                                               |                |          time{}: 0x99-0x9a (1)
0x090|                           00                  |         .      |            delta: 0 0x99-0x9a (1)
     |                                               |                |            tick: 0
0x090|                              ff               |          .     |          status: 255 0x9a-0x9b (1)
0x090|                                 21            |           !    |          event: "midi_port" (33) 0x9b-0x9c (1)
0x090|                                    01         |            .   |          length: 1 0x9c-0x9d (1)
0x090|                                       70      |             p  |          midi_port: 112 0x9d-0x9e (1)
     |                                               |                |        [12]{}: metaevent 0x9e-0xa5 (7)
     |                                               |                |          time{}: 0x9e-0x9f (1)
0x090|                                          00   |              . |            delta: 0 0x9e-0x9f (1)
     |                                               |                |            tick: 0
0x090|                                             ff|               .|          status: 255 0x9f-0xa0 (1)
0x0a0|51                                             |Q               |          event: "tempo" (81) 0xa0-0xa1 (1)
0x0a0|   03                                          | .              |          length: 3 0xa1-0xa2 (1)
0x0a0|      07 a1 20                                 |  ..            |          tempo: 500000 0xa2-0xa5 (3)
     |                                               |                |        [13]{}: metaevent 0xa5-0xae (9)
     |                                               |                |          time{}: 0xa5-0xa6 (1)
0x0a0|               00                              |     .          |            delta: 0 0xa5-0xa6 (1)
     |                                               |                |            tick: 0
0x0a0|                  ff                           |      .         |          status: 255 0xa6-0xa7 (1)
0x0a0|                     54                        |       T        |          event: "smpte_offset" (84) 0xa7-0xa8 (1)
0x0a0|                        05                     |        .       |          length: 5 0xa8-0xa9 (1)
     |                                               |                |          smpte_offset{}: 0xa9-0xae (5)
0x0a0|                           4d                  |         M      |            framerate: 25 (1) 0xa9-0xa9.2 (0.2)
0x0a0|                           4d                  |         M      |            hour: 13 0xa9.2-0xaa (0.6)
0x0a0|                              2d               |          -     |            minute: 45 0xaa-0xab (1)
0x0a0|                                 3b            |           ;    |            second: 59 0xab-0xac (1)
0x0a0|                                    07         |            .   |            frames: 7 0xac-0xad (1)
0x0a0|                                       27      |             '  |            fractions: 39 0xad-0xae (1)
     |                                               |                |        [14]{}: metaevent 0xae-0xb6 (8)
     |                                               |                |          time{}: 0xae-0xaf (1)
0x0a0|                                          00   |              . |            delta: 0 0xae-0xaf (1)
     |                                               |                |            tick: 0
0x0a0|                                             ff|               .|          status: 255 0xaf-0xb0 (1)
0x0b0|58                                             |X               |          event: "time_signature" (88) 0xb0-0xb1 (1)
0x0b0|   04                                          | .              |          length: 4 0xb1-0xb2 (1)
     |                                               |                |          time_signature{}: 0xb2-0xb6 (4)
0x0b0|      04                                       |  .             |            numerator: 4 0xb2-0xb3 (1)
0x0b0|         02                                    |   .            |            denominator: 4 0xb3-0xb4 (1)
0x0b0|            18                                 |    .           |            ticks_per_click: 24 0xb4-0xb5 (1)
0x0b0|               08                              |     .          |            thirty_seconds_per_quarter: 8 0xb5-0xb6 (1)
     |                                               |                |        [15]{}: metaevent 0xb6-0xbc (6)
     |                                               |                |          time{}: 0xb6-0xb7 (1)
0x0b0|                  00                           |      .         |            delta: 0 0xb6-0xb7 (1)
     |                                               |                |            tick: 0
0x0b0|                     ff                        |       .        |          status: 255 0xb7-0xb8 (1)
0x0b0|                        59                     |        Y       |          event: "key_signature" (89) 0xb8-0xb9 (1)
0x0b0|                           02                  |         .      |          length: 2 0xb9-0xba (1)
0x0b0|                              00 01            |          ..    |          key_signature: "A minor" (1) 0xba-0xbc (2)
     |                                               |                |        [16]{}: metaevent 0xbc-0xc6 (10)
     |                                               |                |          time{}: 0xbc-0xbd (1)
0x0b0|                                    00         |            .   |            delta: 0 0xbc-0xbd (1)
     |                                               |                |            tick: 0
0x0b0|                                       ff      |             .  |          status: 255 0xbd-0xbe (1)
0x0b0|                                          7f   |              . |          event: "sequencer_specific_event" (127) 0xbe-0xbf (1)
0x0b0|                                             06|               .|          length: 6 0xbf-0xc0 (1)
     |                                               |                |          sequencer_specific_event{}: 0xc0-0xc6 (6)
0x0c0|00 00 3b                                       |..;             |            manufacturer: "Mark Of The Unicorn (MOTU)" (59) 0xc0-0xc3 (3)
0x0c0|         3a 4c 5e                              |   :L^          |            data: raw bits 0xc3-0xc6 (3)
     |                                               |                |        [17]{}: midievent 0xc6-0xcb (5)
     |                                               |                |          time{}: 0xc6-0xc8 (2)
0x0c0|                  83 60                        |      .`        |            delta: 480 0xc6-0xc8 (2)
     |                                               |                |            tick: 0
     |                                               |                |          event: "note_off" (128)
0x0c0|                        80                     |        .       |          channel: 0 0xc8-0xc9 (1)
     |                                               |                |          note{}: 0xc9-0xcb (2)
0x0c0|                           30                  |         0      |            note: "C3" (48) 0xc9-0xca (1)
0x0c0|                              40               |          @     |            velocity: 64 0xca-0xcb (1)
     |                                               |                |        [18]{}: midievent 0xcb-0xcf (4)
     |                                               |                |          time{}: 0xcb-0xcc (1)
0x0c0|                                 00            |           .    |            delta: 0 0xcb-0xcc (1)
     |                                               |                |            tick: 480
     |                                               |                |          event: "note_on" (144)
0x0c0|                                    90         |            .   |          channel: 0 0xcc-0xcd (1)
     |                                               |                |          note{}: 0xcd-0xcf (2)
0x0c0|                                       30      |             0  |            note: "C3" (48) 0xcd-0xce (1)
0x0c0|                                          48   |              H |            velocity: 72 0xce-0xcf (1)
     |                                               |                |        [19]{}: midievent 0xcf-0xd3 (4)
     |                                               |                |          time{}: 0xcf-0xd0 (1)
0x0c0|                                             00|               .|            delta: 0 0xcf-0xd0 (1)
     |                                               |                |            tick: 480
     |                                               |                |          event: "note_on" (144)
0x0d0|92                                             |.               |          channel: 2 0xd0-0xd1 (1)
     |                                               |                |          note{}: 0xd1-0xd3 (2)
0x0d0|   31                                          | 1              |            note: "C♯3/D♭3" (49) 0xd1-0xd2 (1)
0x0d0|      48                                       |  H             |            velocity: 72 0xd2-0xd3 (1)
     |                                               |                |        [20]{}: midievent 0xd3-0xd6 (3)
     |                                               |                |          time{}: 0xd3-0xd4 (1)
0x0d0|         00                                    |   .            |            delta: 0 0xd3-0xd4 (1)
     |                                               |                |            tick: 480
     |                                               |                |          event: "note_on" (144)
     |                                               |                |          channel: 2 0xd4-0xd4 (0)
     |                                               |                |          note{}: 0xd4-0xd6 (2)
0x0d0|            30                                 |    0           |            note: "C3" (48) 0xd4-0xd5 (1)
0x0d0|               64                              |     d          |            velocity: 100 0xd5-0xd6 (1)
     |                                               |                |        [21]{}: midievent 0xd6-0xd9 (3)
     |                                               |                |          time{}: 0xd6-0xd7 (1)
0x0d0|                  00                           |      .         |            delta: 0 0xd6-0xd7 (1)
     |                                               |                |            tick: 480
     |                                               |                |          event: "polyphonic_pressure" (160)
0x0d0|                     a0                        |       .        |          channel: 0 0xd7-0xd8 (1)
0x0d0|                        64                     |        d       |          polyphonic_pressure: 100 0xd8-0xd9 (1)
     |                                               |                |        [22]{}: midievent 0xd9-0xdd (4)
     |                                               |                |          time{}: 0xd9-0xda (1)
0x0d0|                           00                  |         .      |            delta: 0 0xd9-0xda (1)
     |                                               |                |            tick: 480
     |                                               |                |          event: "controller" (176)
0x0d0|                              b0               |          .     |          channel: 0 0xda-0xdb (1)
     |                                               |                |          controller{}: 0xdb-0xdd (2)
0x0d0|                                 00            |           .    |            controller: "Bank Select (MSB)" (0) 0xdb-0xdc (1)
0x0d0|                                    05         |            .   |            value: 5 0xdc-0xdd (1)
     |                                               |                |        [23]{}: midievent 0xdd-0xe1 (4)
     |                                               |                |          time{}: 0xdd-0xde (1)
0x0d0|                                       00      |             .  |            delta: 0 0xdd-0xde (1)
     |                                               |                |            tick: 480
     |                                               |                |          event: "controller" (176)
0x0d0|                                          b0   |              . |          channel: 0 0xde-0xdf (1)
     |                                               |                |          controller{}: 0xdf-0xe1 (2)
0x0d0|                                             20|                |            controller: "Bank Select (LSB)" (32) 0xdf-0xe0 (1)
0x0e0|21                                             |!               |            value: 33 0xe0-0xe1 (1)
     |                                               |                |        [24]{}: midievent 0xe1-0xe5 (4)
     |                                               |                |          time{}: 0xe1-0xe2 (1)
0x0e0|   00                                          | .              |            delta: 0 0xe1-0xe2 (1)
     |                                               |                |            tick: 480
     |                                               |                |          event: "controller" (176)
0x0e0|      b0                                       |  .             |          channel: 0 0xe2-0xe3 (1)
     |                                               |                |          controller{}: 0xe3-0xe5 (2)
0x0e0|         65                                    |   e            |            controller: "Registered Parameter Number (MSB)" (101) 0xe3-0xe4 (1)
0x0e0|            00                                 |    .           |            value: 0 0xe4-0xe5 (1)
     |                                               |                |        [25]{}: midievent 0xe5-0xe8 (3)
     |                                               |                |          time{}: 0xe5-0xe6 (1)
0x0e0|               00                              |     .          |            delta: 0 0xe5-0xe6 (1)
     |                                               |                |            tick: 480
     |                                               |                |          event: "program_change" (192)
0x0e0|                  c0                           |      .         |          channel: 0 0xe6-0xe7 (1)
0x0e0|                     19                        |       .        |          program_change: 25 0xe7-0xe8 (1)
     |                                               |                |        [26]{}: midievent 0xe8-0xeb (3)
     |                                               |                |          time{}: 0xe8-0xe9 (1)
0x0e0|                        00                     |        .       |            delta: 0 0xe8-0xe9 (1)
     |                                               |                |            tick: 480
     |                                               |                |          event: "channel_pressure" (208)
0x0e0|                           d0                  |         .      |          channel: 0 0xe9-0xea (1)
0x0e0|                              07               |          .     |          channel_pressure: 7 0xea-0xeb (1)
     |                                               |                |        [27]{}: midievent 0xeb-0xf0 (5)
     |                                               |                |          time{}: 0xeb-0xed (2)
0x0e0|                                 81 70         |           .p   |            delta: 240 0xeb-0xed (2)
     |                                               |                |            tick: 480
     |                                               |                |          event: "pitch_bend" (224)
0x0e0|                                       e0      |             .  |          channel: 0 0xed-0xee (1)
0x0e0|                                          00 08|              ..|          pitch_bend: -8184 0xee-0xf0 (2)
     |                                               |                |        [28]{}: sysex_message 0xf0-0xf8 (8)
     |                                               |                |          time{}: 0xf0-0xf1 (1)
0x0f0|00                                             |.               |            delta: 0 0xf0-0xf1 (1)
     |                                               |                |            tick: 720
0x0f0|   f0                                          | .              |          event: "sysex_message" (240) 0xf1-0xf2 (1)
0x0f0|      05 7e 00 09 01 f7                        |  .~....        |          bytes: "[126 0 9 1 247]" 0xf2-0xf8 (6)
     |                                               |                |          manufacturer: "Non-RealTime Extensions" (126)
     |                                               |                |          data: "[0 9 1]"
     |                                               |                |        [29]{}: sysex_message 0xf8-0xfe (6)
     |                                               |                |          time{}: 0xf8-0xf9 (1)
0x0f0|                        00                     |        .       |            delta: 0 0xf8-0xf9 (1)
     |                                               |                |            tick: 720
0x0f0|                           f0                  |         .      |          event: "sysex_message" (240) 0xf9-0xfa (1)
0x0f0|                              03 43 12 00      |          .C..  |          bytes: "[67 18 0]" 0xfa-0xfe (4)
     |                                               |                |          manufacturer: "Yamaha" (67)
     |                                               |                |          data: "[18 0]"
     |                                               |                |          continued: true
     |                                               |                |        [30]{}: sysex_continuation 0xfe-0x108 (10)
     |                                               |                |          time{}: 0xfe-0x100 (2)
0x0f0|                                          81 48|              .H|            delta: 200 0xfe-0x100 (2)
     |                                               |                |            tick: 720
0x100|f7                                             |.               |          event: "sysex_continuation" (33015) 0x100-0x101 (1)
0x100|   06 43 12 00 43 12 00                        | .C..C..        |          bytes: "[67 18 0 67 18 0]" 0x101-0x108 (7)
0x100|   06 43 12 00 43 12 00                        | .C..C..        |          data: "[67 18 0 67 18 0]" 0x101-0x108 (7)
     |                                               |                |        [31]{}: sysex_continuation 0x108-0x10f (7)
     |                                               |                |          time{}: 0x108-0x109 (1)
0x100|                        64                     |        d       |            delta: 100 0x108-0x109 (1)
     |                                               |                |            tick: 920
0x100|                           f7                  |         .      |          event: "sysex_continuation" (33015) 0x109-0x10a (1)
0x100|                              04 43 12 00 f7   |          .C... |          bytes: "[67 18 0 247]" 0x10a-0x10f (5)
0x100|                              04 43 12 00 f7   |          .C... |          data: "[67 18 0]" 0x10a-0x10f (5)
     |                                               |                |        [32]{}: sysex_escape 0x10f-0x114 (5)
     |                                               |                |          time{}: 0x10f-0x110 (1)
0x100|                                             00|               .|            delta: 0 0x10f-0x110 (1)
     |                                               |                |            tick: 1020
0x110|f7                                             |.               |          event: "sysex_escape" (247) 0x110-0x111 (1)
0x110|   02 f3 01                                    | ...            |          bytes: "[243 1]" 0x111-0x114 (3)
0x110|   02 f3 01                                    | ...            |          data: "[243 1]" 0x111-0x114 (3)
     |                                               |                |        [33]{}: metaevent 0x114-0x118 (4)
     |                                               |                |          time{}: 0x114-0x115 (1)
0x110|            00                                 |    .           |            delta: 0 0x114-0x115 (1)
     |                                               |                |            tick: 1020
0x110|               ff                              |     .          |          status: 255 0x115-0x116 (1)
0x110|                  2f                           |      /         |          event: "end_of_track" (47) 0x116-0x117 (1)
0x110|                     00|                       |       .|       |          length: 0 0x117-0x118 (1)
