$ fq -d midi dv events/sequence-number.mid
    |00 01 02 03 04 05 06 07 08 09 0a 0b 0c 0d 0e 0f|0123456789abcdef|.{}: events/sequence-number.mid (midi) 0x0-0x1c (28)
    |                                               |                |  header{}: 0x0-0xe (14)
0x00|4d 54 68 64                                    |MThd            |    tag: "MThd" 0x0-0x4 (4)
0x00|            00 00 00 06                        |    ....        |    length: 6 0x4-0x8 (4)
0x00|                        00 01                  |        ..      |    format: 1 0x8-0xa (2)
0x00|                              00 01            |          ..    |    tracks: 1 0xa-0xc (2)
    |                                               |                |    division{}: 0xc-0xe (2)
0x00|                                    01 e0      |            ..  |      ppqn: 480 0xc-0xe (2)
    |                                               |                |  content[0:1]: 0xe-0x1c (14)
    |                                               |                |    [0]{}: track 0xe-0x1c (14)
0x00|                                          4d 54|              MT|      tag: "MTrk" 0xe-0x12 (4)
0x10|72 6b                                          |rk              |
0x10|      00 00 00 06                              |  ....          |      length: 6 0x12-0x16 (4)
    |                                               |                |      events[0:1]: 0x16-0x1c (6)
    |                                               |                |        [0]{}: meta_event 0x16-0x1c (6)
    |                                               |                |          time{}: 0x16-0x17 (1)
0x10|                  00                           |      .         |            delta: 0 0x16-0x17 (1)
    |                                               |                |            tick: 0
0x10|                     ff                        |       .        |          status: 255 0x17-0x18 (1)
0x10|                        00                     |        .       |          event: "sequence_number" (0) 0x18-0x19 (1)
0x10|                           02                  |         .      |          length: 2 0x19-0x1a (1)
0x10|                              00 17|           |          ..|   |          sequence_number: 23 0x1a-0x1c (2)
$ fq -d midi dv events/text.mid
    |00 01 02 03 04 05 06 07 08 09 0a 0b 0c 0d 0e 0f|0123456789abcdef|.{}: events/text.mid (midi) 0x0-0x27 (39)
    |                                               |                |  header{}: 0x0-0xe (14)
0x00|4d 54 68 64                                    |MThd            |    tag: "MThd" 0x0-0x4 (4)
0x00|            00 00 00 06                        |    ....        |    length: 6 0x4-0x8 (4)
0x00|                        00 01                  |        ..      |    format: 1 0x8-0xa (2)
0x00|                              00 01            |          ..    |    tracks: 1 0xa-0xc (2)
    |                                               |                |    division{}: 0xc-0xe (2)
0x00|                                    01 e0      |            ..  |      ppqn: 480 0xc-0xe (2)
    |                                               |                |  content[0:1]: 0xe-0x27 (25)
    |                                               |                |    [0]{}: track 0xe-0x27 (25)
0x00|                                          4d 54|              MT|      tag: "MTrk" 0xe-0x12 (4)
0x10|72 6b                                          |rk              |
0x10|      00 00 00 11                              |  ....          |      length: 17 0x12-0x16 (4)
    |                                               |                |      events[0:1]: 0x16-0x27 (17)
    |                                               |                |        [0]{}: meta_event 0x16-0x27 (17)
    |                                               |                |          time{}: 0x16-0x17 (1)
0x10|                  00                           |      .         |            delta: 0 0x16-0x17 (1)
    |                                               |                |            tick: 0
0x10|                     ff                        |       .        |          status: 255 0x17-0x18 (1)
0x10|                        01                     |        .       |          event: "text" (1) 0x18-0x19 (1)
0x10|                           0d 54 68 69 73 20 61|         .This a|          text: "This and That" 0x19-0x27 (14)
0x20|6e 64 20 54 68 61 74|                          |nd That|        |
$ fq -d midi dv events/copyright.mid
    |00 01 02 03 04 05 06 07 08 09 0a 0b 0c 0d 0e 0f|0123456789abcdef|.{}: events/copyright.mid (midi) 0x0-0x1e (30)
    |                                               |                |  header{}: 0x0-0xe (14)
0x00|4d 54 68 64                                    |MThd            |    tag: "MThd" 0x0-0x4 (4)
0x00|            00 00 00 06                        |    ....        |    length: 6 0x4-0x8 (4)
0x00|                        00 01                  |        ..      |    format: 1 0x8-0xa (2)
0x00|                              00 01            |          ..    |    tracks: 1 0xa-0xc (2)
    |                                               |                |    division{}: 0xc-0xe (2)
0x00|                                    01 e0      |            ..  |      ppqn: 480 0xc-0xe (2)
    |                                               |                |  content[0:1]: 0xe-0x1e (16)
    |                                               |                |    [0]{}: track 0xe-0x1e (16)
0x00|                                          4d 54|              MT|      tag: "MTrk" 0xe-0x12 (4)
0x10|72 6b                                          |rk              |
0x10|      00 00 00 08                              |  ....          |      length: 8 0x12-0x16 (4)
    |                                               |                |      events[0:1]: 0x16-0x1e (8)
    |                                               |                |        [0]{}: meta_event 0x16-0x1e (8)
    |                                               |                |          time{}: 0x16-0x17 (1)
0x10|                  00                           |      .         |            delta: 0 0x16-0x17 (1)
    |                                               |                |            tick: 0
0x10|                     ff                        |       .        |          status: 255 0x17-0x18 (1)
0x10|                        02                     |        .       |          event: "copyright" (2) 0x18-0x19 (1)
0x10|                           04 54 68 65 6d|     |         .Them| |          copyright: "Them" 0x19-0x1e (5)
$ fq -d midi dv events/track-name.mid
    |00 01 02 03 04 05 06 07 08 09 0a 0b 0c 0d 0e 0f|0123456789abcdef|.{}: events/track-name.mid (midi) 0x0-0x29 (41)
    |                                               |                |  header{}: 0x0-0xe (14)
0x00|4d 54 68 64                                    |MThd            |    tag: "MThd" 0x0-0x4 (4)
0x00|            00 00 00 06                        |    ....        |    length: 6 0x4-0x8 (4)
0x00|                        00 01                  |        ..      |    format: 1 0x8-0xa (2)
0x00|                              00 01            |          ..    |    tracks: 1 0xa-0xc (2)
    |                                               |                |    division{}: 0xc-0xe (2)
0x00|                                    01 e0      |            ..  |      ppqn: 480 0xc-0xe (2)
    |                                               |                |  content[0:1]: 0xe-0x29 (27)
    |                                               |                |    [0]{}: track 0xe-0x29 (27)
0x00|                                          4d 54|              MT|      tag: "MTrk" 0xe-0x12 (4)
0x10|72 6b                                          |rk              |
0x10|      00 00 00 13                              |  ....          |      length: 19 0x12-0x16 (4)
    |                                               |                |      events[0:1]: 0x16-0x29 (19)
    |                                               |                |        [0]{}: meta_event 0x16-0x29 (19)
    |                                               |                |          time{}: 0x16-0x17 (1)
0x10|                  00                           |      .         |            delta: 0 0x16-0x17 (1)
    |                                               |                |            tick: 0
0x10|                     ff                        |       .        |          status: 255 0x17-0x18 (1)
0x10|                        03                     |        .       |          event: "track_name" (3) 0x18-0x19 (1)
0x10|                           0f 41 63 6f 75 73 74|         .Acoust|          track_name: "Acoustic Guitar" 0x19-0x29 (16)
0x20|69 63 20 47 75 69 74 61 72|                    |ic Guitar|      |
$ fq -d midi dv events/instrument-name.mid
    |00 01 02 03 04 05 06 07 08 09 0a 0b 0c 0d 0e 0f|0123456789abcdef|.{}: events/instrument-name.mid (midi) 0x0-0x24 (36)
    |                                               |                |  header{}: 0x0-0xe (14)
0x00|4d 54 68 64                                    |MThd            |    tag: "MThd" 0x0-0x4 (4)
0x00|            00 00 00 06                        |    ....        |    length: 6 0x4-0x8 (4)
0x00|                        00 01                  |        ..      |    format: 1 0x8-0xa (2)
0x00|                              00 01            |          ..    |    tracks: 1 0xa-0xc (2)
    |                                               |                |    division{}: 0xc-0xe (2)
0x00|                                    01 e0      |            ..  |      ppqn: 480 0xc-0xe (2)
    |                                               |                |  content[0:1]: 0xe-0x24 (22)
    |                                               |                |    [0]{}: track 0xe-0x24 (22)
0x00|                                          4d 54|              MT|      tag: "MTrk" 0xe-0x12 (4)
0x10|72 6b                                          |rk              |
0x10|      00 00 00 0e                              |  ....          |      length: 14 0x12-0x16 (4)
    |                                               |                |      events[0:1]: 0x16-0x24 (14)
    |                                               |                |        [0]{}: meta_event 0x16-0x24 (14)
    |                                               |                |          time{}: 0x16-0x17 (1)
0x10|                  00                           |      .         |            delta: 0 0x16-0x17 (1)
    |                                               |                |            tick: 0
0x10|                     ff                        |       .        |          status: 255 0x17-0x18 (1)
0x10|                        04                     |        .       |          event: "instrument_name" (4) 0x18-0x19 (1)
0x10|                           0a 44 69 64 67 65 72|         .Didger|          instrument_name: "Didgeridoo" 0x19-0x24 (11)
0x20|69 64 6f 6f|                                   |idoo|           |
$ fq -d midi dv events/lyric.mid
    |00 01 02 03 04 05 06 07 08 09 0a 0b 0c 0d 0e 0f|0123456789abcdef|.{}: events/lyric.mid (midi) 0x0-0x22 (34)
    |                                               |                |  header{}: 0x0-0xe (14)
0x00|4d 54 68 64                                    |MThd            |    tag: "MThd" 0x0-0x4 (4)
0x00|            00 00 00 06                        |    ....        |    length: 6 0x4-0x8 (4)
0x00|                        00 01                  |        ..      |    format: 1 0x8-0xa (2)
0x00|                              00 01            |          ..    |    tracks: 1 0xa-0xc (2)
    |                                               |                |    division{}: 0xc-0xe (2)
0x00|                                    01 e0      |            ..  |      ppqn: 480 0xc-0xe (2)
    |                                               |                |  content[0:1]: 0xe-0x22 (20)
    |                                               |                |    [0]{}: track 0xe-0x22 (20)
0x00|                                          4d 54|              MT|      tag: "MTrk" 0xe-0x12 (4)
0x10|72 6b                                          |rk              |
0x10|      00 00 00 0c                              |  ....          |      length: 12 0x12-0x16 (4)
    |                                               |                |      events[0:1]: 0x16-0x22 (12)
    |                                               |                |        [0]{}: meta_event 0x16-0x22 (12)
    |                                               |                |          time{}: 0x16-0x17 (1)
0x10|                  00                           |      .         |            delta: 0 0x16-0x17 (1)
    |                                               |                |            tick: 0
0x10|                     ff                        |       .        |          status: 255 0x17-0x18 (1)
0x10|                        05                     |        .       |          event: "lyric" (5) 0x18-0x19 (1)
0x10|                           08 4c 61 2d 6c 61 2d|         .La-la-|          lyric: "La-la-la" 0x19-0x22 (9)
0x20|6c 61|                                         |la|             |
$ fq -d midi dv events/marker.mid
    |00 01 02 03 04 05 06 07 08 09 0a 0b 0c 0d 0e 0f|0123456789abcdef|.{}: events/marker.mid (midi) 0x0-0x29 (41)
    |                                               |                |  header{}: 0x0-0xe (14)
0x00|4d 54 68 64                                    |MThd            |    tag: "MThd" 0x0-0x4 (4)
0x00|            00 00 00 06                        |    ....        |    length: 6 0x4-0x8 (4)
0x00|                        00 01                  |        ..      |    format: 1 0x8-0xa (2)
0x00|                              00 01            |          ..    |    tracks: 1 0xa-0xc (2)
    |                                               |                |    division{}: 0xc-0xe (2)
0x00|                                    01 e0      |            ..  |      ppqn: 480 0xc-0xe (2)
    |                                               |                |  content[0:1]: 0xe-0x29 (27)
    |                                               |                |    [0]{}: track 0xe-0x29 (27)
0x00|                                          4d 54|              MT|      tag: "MTrk" 0xe-0x12 (4)
0x10|72 6b                                          |rk              |
0x10|      00 00 00 13                              |  ....          |      length: 19 0x12-0x16 (4)
    |                                               |                |      events[0:1]: 0x16-0x29 (19)
    |                                               |                |        [0]{}: meta_event 0x16-0x29 (19)
    |                                               |                |          time{}: 0x16-0x17 (1)
0x10|                  00                           |      .         |            delta: 0 0x16-0x17 (1)
    |                                               |                |            tick: 0
0x10|                     ff                        |       .        |          status: 255 0x17-0x18 (1)
0x10|                        06                     |        .       |          event: "marker" (6) 0x18-0x19 (1)
0x10|                           0f 48 65 72 65 20 42|         .Here B|          marker: "Here Be Dragons" 0x19-0x29 (16)
0x20|65 20 44 72 61 67 6f 6e 73|                    |e Dragons|      |
$ fq -d midi dv events/cuepoint.mid
    |00 01 02 03 04 05 06 07 08 09 0a 0b 0c 0d 0e 0f|0123456789abcdef|.{}: events/cuepoint.mid (midi) 0x0-0x26 (38)
    |                                               |                |  header{}: 0x0-0xe (14)
0x00|4d 54 68 64                                    |MThd            |    tag: "MThd" 0x0-0x4 (4)
0x00|            00 00 00 06                        |    ....        |    length: 6 0x4-0x8 (4)
0x00|                        00 01                  |        ..      |    format: 1 0x8-0xa (2)
0x00|                              00 02            |          ..    |    tracks: 2 0xa-0xc (2)
    |                                               |                |    division{}: 0xc-0xe (2)
0x00|                                    01 e0      |            ..  |      ppqn: 480 0xc-0xe (2)
    |                                               |                |  content[0:1]: 0xe-0x26 (24)
    |                                               |                |    [0]{}: track 0xe-0x26 (24)
0x00|                                          4d 54|              MT|      tag: "MTrk" 0xe-0x12 (4)
0x10|72 6b                                          |rk              |
0x10|      00 00 00 10                              |  ....          |      length: 16 0x12-0x16 (4)
    |                                               |                |      events[0:1]: 0x16-0x26 (16)
    |                                               |                |        [0]{}: meta_event 0x16-0x26 (16)
    |                                               |                |          time{}: 0x16-0x17 (1)
0x10|                  00                           |      .         |            delta: 0 0x16-0x17 (1)
    |                                               |                |            tick: 0
0x10|                     ff                        |       .        |          status: 255 0x17-0x18 (1)
0x10|                        07                     |        .       |          event: "cue_point" (7) 0x18-0x19 (1)
0x10|                           0c 4d 6f 72 65 20 63|         .More c|          cue_point: "More cowbell" 0x19-0x26 (13)
0x20|6f 77 62 65 6c 6c|                             |owbell|         |
$ fq -d midi dv events/program-name.mid
    |00 01 02 03 04 05 06 07 08 09 0a 0b 0c 0d 0e 0f|0123456789abcdef|.{}: events/program-name.mid (midi) 0x0-0x20 (32)
    |                                               |                |  header{}: 0x0-0xe (14)
0x00|4d 54 68 64                                    |MThd            |    tag: "MThd" 0x0-0x4 (4)
0x00|            00 00 00 06                        |    ....        |    length: 6 0x4-0x8 (4)
0x00|                        00 01                  |        ..      |    format: 1 0x8-0xa (2)
0x00|                              00 01            |          ..    |    tracks: 1 0xa-0xc (2)
    |                                               |                |    division{}: 0xc-0xe (2)
0x00|                                    01 e0      |            ..  |      ppqn: 480 0xc-0xe (2)
    |                                               |                |  content[0:1]: 0xe-0x20 (18)
    |                                               |                |    [0]{}: track 0xe-0x20 (18)
0x00|                                          4d 54|              MT|      tag: "MTrk" 0xe-0x12 (4)
0x10|72 6b                                          |rk              |
0x10|      00 00 00 0a                              |  ....          |      length: 10 0x12-0x16 (4)
    |                                               |                |      events[0:1]: 0x16-0x20 (10)
    |                                               |                |        [0]{}: meta_event 0x16-0x20 (10)
    |                                               |                |          time{}: 0x16-0x17 (1)
0x10|                  00                           |      .         |            delta: 0 0x16-0x17 (1)
    |                                               |                |            tick: 0
0x10|                     ff                        |       .        |          status: 255 0x17-0x18 (1)
0x10|                        08                     |        .       |          event: "program_name" (8) 0x18-0x19 (1)
0x10|                           06 45 73 63 61 70 65|         .Escape|          program_name: "Escape" 0x19-0x20 (7)
$ fq -d midi dv events/device-name.mid
    |00 01 02 03 04 05 06 07 08 09 0a 0b 0c 0d 0e 0f|0123456789abcdef|.{}: events/device-name.mid (midi) 0x0-0x22 (34)
    |                                               |                |  header{}: 0x0-0xe (14)
0x00|4d 54 68 64                                    |MThd            |    tag: "MThd" 0x0-0x4 (4)
0x00|            00 00 00 06                        |    ....        |    length: 6 0x4-0x8 (4)
0x00|                        00 01                  |        ..      |    format: 1 0x8-0xa (2)
0x00|                              00 01            |          ..    |    tracks: 1 0xa-0xc (2)
    |                                               |                |    division{}: 0xc-0xe (2)
0x00|                                    01 e0      |            ..  |      ppqn: 480 0xc-0xe (2)
    |                                               |                |  content[0:1]: 0xe-0x22 (20)
    |                                               |                |    [0]{}: track 0xe-0x22 (20)
0x00|                                          4d 54|              MT|      tag: "MTrk" 0xe-0x12 (4)
0x10|72 6b                                          |rk              |
0x10|      00 00 00 0c                              |  ....          |      length: 12 0x12-0x16 (4)
    |                                               |                |      events[0:1]: 0x16-0x22 (12)
    |                                               |                |        [0]{}: meta_event 0x16-0x22 (12)
    |                                               |                |          time{}: 0x16-0x17 (1)
0x10|                  00                           |      .         |            delta: 0 0x16-0x17 (1)
    |                                               |                |            tick: 0
0x10|                     ff                        |       .        |          status: 255 0x17-0x18 (1)
0x10|                        09                     |        .       |          event: "device_name" (9) 0x18-0x19 (1)
0x10|                           08 54 68 65 54 68 69|         .TheThi|          device_name: "TheThing" 0x19-0x22 (9)
0x20|6e 67|                                         |ng|             |
$ fq -d midi dv events/midi-channel-prefix.mid
    |00 01 02 03 04 05 06 07 08 09 0a 0b 0c 0d 0e 0f|0123456789abcdef|.{}: events/midi-channel-prefix.mid (midi) 0x0-0x1b (27)
    |                                               |                |  header{}: 0x0-0xe (14)
0x00|4d 54 68 64                                    |MThd            |    tag: "MThd" 0x0-0x4 (4)
0x00|            00 00 00 06                        |    ....        |    length: 6 0x4-0x8 (4)
0x00|                        00 01                  |        ..      |    format: 1 0x8-0xa (2)
0x00|                              00 01            |          ..    |    tracks: 1 0xa-0xc (2)
    |                                               |                |    division{}: 0xc-0xe (2)
0x00|                                    01 e0      |            ..  |      ppqn: 480 0xc-0xe (2)
    |                                               |                |  content[0:1]: 0xe-0x1b (13)
    |                                               |                |    [0]{}: track 0xe-0x1b (13)
0x00|                                          4d 54|              MT|      tag: "MTrk" 0xe-0x12 (4)
0x10|72 6b                                          |rk              |
0x10|      00 00 00 05                              |  ....          |      length: 5 0x12-0x16 (4)
    |                                               |                |      events[0:1]: 0x16-0x1b (5)
    |                                               |                |        [0]{}: meta_event 0x16-0x1b (5)
    |                                               |                |          time{}: 0x16-0x17 (1)
0x10|                  00                           |      .         |            delta: 0 0x16-0x17 (1)
    |                                               |                |            tick: 0
0x10|                     ff                        |       .        |          status: 255 0x17-0x18 (1)
0x10|                        20                     |                |          event: "midi_channel_prefix" (32) 0x18-0x19 (1)
0x10|                           01                  |         .      |          length: 1 0x19-0x1a (1)
0x10|                              0d|              |          .|    |          midi_channel_prefix: 13 0x1a-0x1b (1)
$ fq -d midi dv events/midi-port.mid
    |00 01 02 03 04 05 06 07 08 09 0a 0b 0c 0d 0e 0f|0123456789abcdef|.{}: events/midi-port.mid (midi) 0x0-0x1b (27)
    |                                               |                |  header{}: 0x0-0xe (14)
0x00|4d 54 68 64                                    |MThd            |    tag: "MThd" 0x0-0x4 (4)
0x00|            00 00 00 06                        |    ....        |    length: 6 0x4-0x8 (4)
0x00|                        00 01                  |        ..      |    format: 1 0x8-0xa (2)
0x00|                              00 01            |          ..    |    tracks: 1 0xa-0xc (2)
    |                                               |                |    division{}: 0xc-0xe (2)
0x00|                                    01 e0      |            ..  |      ppqn: 480 0xc-0xe (2)
    |                                               |                |  content[0:1]: 0xe-0x1b (13)
    |                                               |                |    [0]{}: track 0xe-0x1b (13)
0x00|                                          4d 54|              MT|      tag: "MTrk" 0xe-0x12 (4)
0x10|72 6b                                          |rk              |
0x10|      00 00 00 05                              |  ....          |      length: 5 0x12-0x16 (4)
    |                                               |                |      events[0:1]: 0x16-0x1b (5)
    |                                               |                |        [0]{}: meta_event 0x16-0x1b (5)
    |                                               |                |          time{}: 0x16-0x17 (1)
0x10|                  00                           |      .         |            delta: 0 0x16-0x17 (1)
    |                                               |                |            tick: 0
0x10|                     ff                        |       .        |          status: 255 0x17-0x18 (1)
0x10|                        21                     |        !       |          event: "midi_port" (33) 0x18-0x19 (1)
0x10|                           01                  |         .      |          length: 1 0x19-0x1a (1)
0x10|                              70|              |          p|    |          midi_port: 112 0x1a-0x1b (1)
$ fq -d midi dv events/tempo.mid
    |00 01 02 03 04 05 06 07 08 09 0a 0b 0c 0d 0e 0f|0123456789abcdef|.{}: events/tempo.mid (midi) 0x0-0x1d (29)
    |                                               |                |  header{}: 0x0-0xe (14)
0x00|4d 54 68 64                                    |MThd            |    tag: "MThd" 0x0-0x4 (4)
0x00|            00 00 00 06                        |    ....        |    length: 6 0x4-0x8 (4)
0x00|                        00 01                  |        ..      |    format: 1 0x8-0xa (2)
0x00|                              00 02            |          ..    |    tracks: 2 0xa-0xc (2)
    |                                               |                |    division{}: 0xc-0xe (2)
0x00|                                    01 e0      |            ..  |      ppqn: 480 0xc-0xe (2)
    |                                               |                |  content[0:1]: 0xe-0x1d (15)
    |                                               |                |    [0]{}: track 0xe-0x1d (15)
0x00|                                          4d 54|              MT|      tag: "MTrk" 0xe-0x12 (4)
0x10|72 6b                                          |rk              |
0x10|      00 00 00 07                              |  ....          |      length: 7 0x12-0x16 (4)
    |                                               |                |      events[0:1]: 0x16-0x1d (7)
    |                                               |                |        [0]{}: meta_event 0x16-0x1d (7)
    |                                               |                |          time{}: 0x16-0x17 (1)
0x10|                  00                           |      .         |            delta: 0 0x16-0x17 (1)
    |                                               |                |            tick: 0
0x10|                     ff                        |       .        |          status: 255 0x17-0x18 (1)
0x10|                        51                     |        Q       |          event: "tempo" (81) 0x18-0x19 (1)
0x10|                           03                  |         .      |          length: 3 0x19-0x1a (1)
0x10|                              07 a1 20|        |          .. |  |          tempo: 500000 0x1a-0x1d (3)
$ fq -d midi dv events/smpte-offset.mid
    |00 01 02 03 04 05 06 07 08 09 0a 0b 0c 0d 0e 0f|0123456789abcdef|.{}: events/smpte-offset.mid (midi) 0x0-0x1f (31)
    |                                               |                |  header{}: 0x0-0xe (14)
0x00|4d 54 68 64                                    |MThd            |    tag: "MThd" 0x0-0x4 (4)
0x00|            00 00 00 06                        |    ....        |    length: 6 0x4-0x8 (4)
0x00|                        00 01                  |        ..      |    format: 1 0x8-0xa (2)
0x00|                              00 01            |          ..    |    tracks: 1 0xa-0xc (2)
    |                                               |                |    division{}: 0xc-0xe (2)
0x00|                                    01 e0      |            ..  |      ppqn: 480 0xc-0xe (2)
    |                                               |                |  content[0:1]: 0xe-0x1f (17)
    |                                               |                |    [0]{}: track 0xe-0x1f (17)
0x00|                                          4d 54|              MT|      tag: "MTrk" 0xe-0x12 (4)
0x10|72 6b                                          |rk              |
0x10|      00 00 00 09                              |  ....          |      length: 9 0x12-0x16 (4)
    |                                               |                |      events[0:1]: 0x16-0x1f (9)
    |                                               |                |        [0]{}: meta_event 0x16-0x1f (9)
    |                                               |                |          time{}: 0x16-0x17 (1)
0x10|                  00                           |      .         |            delta: 0 0x16-0x17 (1)
    |                                               |                |            tick: 0
0x10|                     ff                        |       .        |          status: 255 0x17-0x18 (1)
0x10|                        54                     |        T       |          event: "smpte_offset" (84) 0x18-0x19 (1)
0x10|                           05                  |         .      |          length: 5 0x19-0x1a (1)
    |                                               |                |          smpte_offset{}: 0x1a-0x1f (5)
0x10|                              4d               |          M     |            framerate: "29.97 FPS DF" (2) 0x1a-0x1a.3 (0.3)
0x10|                              4d               |          M     |            hour: 13 0x1a.3-0x1b (0.5)
0x10|                                 2d            |           -    |            minute: 45 0x1b-0x1c (1)
0x10|                                    3b         |            ;   |            second: 59 0x1c-0x1d (1)
0x10|                                       07      |             .  |            frames: 7 0x1d-0x1e (1)
0x10|                                          27|  |              '||            fractions: 39 0x1e-0x1f (1)
$ fq -d midi dv events/time-signature.mid
    |00 01 02 03 04 05 06 07 08 09 0a 0b 0c 0d 0e 0f|0123456789abcdef|.{}: events/time-signature.mid (midi) 0x0-0x1e (30)
    |                                               |                |  header{}: 0x0-0xe (14)
0x00|4d 54 68 64                                    |MThd            |    tag: "MThd" 0x0-0x4 (4)
0x00|            00 00 00 06                        |    ....        |    length: 6 0x4-0x8 (4)
0x00|                        00 01                  |        ..      |    format: 1 0x8-0xa (2)
0x00|                              00 01            |          ..    |    tracks: 1 0xa-0xc (2)
    |                                               |                |    division{}: 0xc-0xe (2)
0x00|                                    01 e0      |            ..  |      ppqn: 480 0xc-0xe (2)
    |                                               |                |  content[0:1]: 0xe-0x1e (16)
    |                                               |                |    [0]{}: track 0xe-0x1e (16)
0x00|                                          4d 54|              MT|      tag: "MTrk" 0xe-0x12 (4)
0x10|72 6b                                          |rk              |
0x10|      00 00 00 08                              |  ....          |      length: 8 0x12-0x16 (4)
    |                                               |                |      events[0:1]: 0x16-0x1e (8)
    |                                               |                |        [0]{}: meta_event 0x16-0x1e (8)
    |                                               |                |          time{}: 0x16-0x17 (1)
0x10|                  00                           |      .         |            delta: 0 0x16-0x17 (1)
    |                                               |                |            tick: 0
0x10|                     ff                        |       .        |          status: 255 0x17-0x18 (1)
0x10|                        58                     |        X       |          event: "time_signature" (88) 0x18-0x19 (1)
0x10|                           04                  |         .      |          length: 4 0x19-0x1a (1)
    |                                               |                |          time_signature{}: 0x1a-0x1e (4)
0x10|                              04               |          .     |            numerator: 4 0x1a-0x1b (1)
0x10|                                 02            |           .    |            denominator: 4 0x1b-0x1c (1)
0x10|                                    18         |            .   |            ticks_per_click: 24 0x1c-0x1d (1)
0x10|                                       08|     |             .| |            thirty_seconds_per_quarter: 8 0x1d-0x1e (1)
$ fq -d midi dv events/key-signature.mid
    |00 01 02 03 04 05 06 07 08 09 0a 0b 0c 0d 0e 0f|0123456789abcdef|.{}: events/key-signature.mid (midi) 0x0-0x1c (28)
    |                                               |                |  header{}: 0x0-0xe (14)
0x00|4d 54 68 64                                    |MThd            |    tag: "MThd" 0x0-0x4 (4)
0x00|            00 00 00 06                        |    ....        |    length: 6 0x4-0x8 (4)
0x00|                        00 01                  |        ..      |    format: 1 0x8-0xa (2)
0x00|                              00 02            |          ..    |    tracks: 2 0xa-0xc (2)
    |                                               |                |    division{}: 0xc-0xe (2)
0x00|                                    01 e0      |            ..  |      ppqn: 480 0xc-0xe (2)
    |                                               |                |  content[0:1]: 0xe-0x1c (14)
    |                                               |                |    [0]{}: track 0xe-0x1c (14)
0x00|                                          4d 54|              MT|      tag: "MTrk" 0xe-0x12 (4)
0x10|72 6b                                          |rk              |
0x10|      00 00 00 06                              |  ....          |      length: 6 0x12-0x16 (4)
    |                                               |                |      events[0:1]: 0x16-0x1c (6)
    |                                               |                |        [0]{}: meta_event 0x16-0x1c (6)
    |                                               |                |          time{}: 0x16-0x17 (1)
0x10|                  00                           |      .         |            delta: 0 0x16-0x17 (1)
    |                                               |                |            tick: 0
0x10|                     ff                        |       .        |          status: 255 0x17-0x18 (1)
0x10|                        59                     |        Y       |          event: "key_signature" (89) 0x18-0x19 (1)
0x10|                           02                  |         .      |          length: 2 0x19-0x1a (1)
0x10|                              00 01|           |          ..|   |          key_signature: "A minor" (1) 0x1a-0x1c (2)
$ fq -d midi dv events/end-of-track.mid
    |00 01 02 03 04 05 06 07 08 09 0a 0b 0c 0d 0e 0f|0123456789abcdef|.{}: events/end-of-track.mid (midi) 0x0-0x1a (26)
    |                                               |                |  header{}: 0x0-0xe (14)
0x00|4d 54 68 64                                    |MThd            |    tag: "MThd" 0x0-0x4 (4)
0x00|            00 00 00 06                        |    ....        |    length: 6 0x4-0x8 (4)
0x00|                        00 01                  |        ..      |    format: 1 0x8-0xa (2)
0x00|                              00 01            |          ..    |    tracks: 1 0xa-0xc (2)
    |                                               |                |    division{}: 0xc-0xe (2)
0x00|                                    01 e0      |            ..  |      ppqn: 480 0xc-0xe (2)
    |                                               |                |  content[0:1]: 0xe-0x1a (12)
    |                                               |                |    [0]{}: track 0xe-0x1a (12)
0x00|                                          4d 54|              MT|      tag: "MTrk" 0xe-0x12 (4)
0x10|72 6b                                          |rk              |
0x10|      00 00 00 04                              |  ....          |      length: 4 0x12-0x16 (4)
    |                                               |                |      events[0:1]: 0x16-0x1a (4)
    |                                               |                |        [0]{}: meta_event 0x16-0x1a (4)
    |                                               |                |          time{}: 0x16-0x17 (1)
0x10|                  00                           |      .         |            delta: 0 0x16-0x17 (1)
    |                                               |                |            tick: 0
0x10|                     ff                        |       .        |          status: 255 0x17-0x18 (1)
0x10|                        2f                     |        /       |          event: "end_of_track" (47) 0x18-0x19 (1)
0x10|                           00|                 |         .|     |          length: 0 0x19-0x1a (1)
$ fq -d midi dv events/sequencer-specific-event.mid
    |00 01 02 03 04 05 06 07 08 09 0a 0b 0c 0d 0e 0f|0123456789abcdef|.{}: events/sequencer-specific-event.mid (midi) 0x0-0x20 (32)
    |                                               |                |  header{}: 0x0-0xe (14)
0x00|4d 54 68 64                                    |MThd            |    tag: "MThd" 0x0-0x4 (4)
0x00|            00 00 00 06                        |    ....        |    length: 6 0x4-0x8 (4)
0x00|                        00 01                  |        ..      |    format: 1 0x8-0xa (2)
0x00|                              00 01            |          ..    |    tracks: 1 0xa-0xc (2)
    |                                               |                |    division{}: 0xc-0xe (2)
0x00|                                    01 e0      |            ..  |      ppqn: 480 0xc-0xe (2)
    |                                               |                |  content[0:1]: 0xe-0x20 (18)
    |                                               |                |    [0]{}: track 0xe-0x20 (18)
0x00|                                          4d 54|              MT|      tag: "MTrk" 0xe-0x12 (4)
0x10|72 6b                                          |rk              |
0x10|      00 00 00 0a                              |  ....          |      length: 10 0x12-0x16 (4)
    |                                               |                |      events[0:1]: 0x16-0x20 (10)
    |                                               |                |        [0]{}: meta_event 0x16-0x20 (10)
    |                                               |                |          time{}: 0x16-0x17 (1)
0x10|                  00                           |      .         |            delta: 0 0x16-0x17 (1)
    |                                               |                |            tick: 0
0x10|                     ff                        |       .        |          status: 255 0x17-0x18 (1)
0x10|                        7f                     |        .       |          event: "sequencer_specific_event" (127) 0x18-0x19 (1)
0x10|                           06                  |         .      |          length: 6 0x19-0x1a (1)
    |                                               |                |          sequencer_specific_event{}: 0x1a-0x20 (6)
0x10|                              00 00 3b         |          ..;   |            manufacturer: "Mark Of The Unicorn (MOTU)" (59) 0x1a-0x1d (3)
0x10|                                       3a 4c 5e|             :L^|            data: raw bits 0x1d-0x20 (3)
