$ fq -d midi dv events/note-off.mid
    |00 01 02 03 04 05 06 07 08 09 0a 0b 0c 0d 0e 0f|0123456789abcdef|.{}: events/note-off.mid (midi) 0x0-0x1d (29)
    |                                               |                |  header{}: 0x0-0xe (14)
0x00|4d 54 68 64                                    |MThd            |    tag: "MThd" 0x0-0x4 (4)
0x00|            00 00 00 06                        |    ....        |    length: 6 0x4-0x8 (4)
0x00|                        00 01                  |        ..      |    format: 1 0x8-0xa (2)
0x00|                              00 01            |          ..    |    tracks: 1 0xa-0xc (2)
    |                                               |                |    division{}: 0xc-0xe (2)
0x00|                                    01 e0      |            ..  |      ppqn: 480 0xc-0xe (2)
    |                                               |                |  content[0:1]: 0xe-0x1d (15)
    |                                               |                |    [0]{}: track 0xe-0x1d (15)
0x00|                                          4d 54|              MT|      tag: "MTrk" 0xe-0x12 (4)
0x10|72 6b                                          |rk              |
0x10|      00 00 00 07                              |  ....          |      length: 7 0x12-0x16 (4)
    |                                               |                |      events[0:2]: 0x16-0x1d (7)
    |                                               |                |        [0]{}: midi_event 0x16-0x1a (4)
    |                                               |                |          time{}: 0x16-0x17 (1)
0x10|                  00                           |      .         |            delta: 0 0x16-0x17 (1)
    |                                               |                |            tick: 0
0x10|                     81                        |       .        |          event: "note_off" (128) 0x17-0x17.4 (0.4)
0x10|                     81                        |       .        |          channel: 1 0x17.4-0x18 (0.4)
    |                                               |                |          note_off{}: 0x18-0x1a (2)
0x10|                        70                     |        p       |            note: "E8" (112) 0x18-0x19 (1)
0x10|                           60                  |         `      |            velocity: 96 0x19-0x1a (1)
    |                                               |                |        [1]{}: midi_event 0x1a-0x1d (3)
    |                                               |                |          time{}: 0x1a-0x1b (1)
0x10|                              64               |          d     |            delta: 100 0x1a-0x1b (1)
    |                                               |                |            tick: 100
    |                                               |                |          event: "note_off" (128)
    |                                               |                |          channel: 1
    |                                               |                |          note_off{}: 0x1b-0x1d (2)
0x10|                                 71            |           q    |            note: "F8" (113) 0x1b-0x1c (1)
0x10|                                    48|        |            H|  |            velocity: 72 0x1c-0x1d (1)
$ fq -d midi dv events/note-on.mid
    |00 01 02 03 04 05 06 07 08 09 0a 0b 0c 0d 0e 0f|0123456789abcdef|.{}: events/note-on.mid (midi) 0x0-0x1d (29)
    |                                               |                |  header{}: 0x0-0xe (14)
0x00|4d 54 68 64                                    |MThd            |    tag: "MThd" 0x0-0x4 (4)
0x00|            00 00 00 06                        |    ....        |    length: 6 0x4-0x8 (4)
0x00|                        00 01                  |        ..      |    format: 1 0x8-0xa (2)
0x00|                              00 01            |          ..    |    tracks: 1 0xa-0xc (2)
    |                                               |                |    division{}: 0xc-0xe (2)
0x00|                                    01 e0      |            ..  |      ppqn: 480 0xc-0xe (2)
    |                                               |                |  content[0:1]: 0xe-0x1d (15)
    |                                               |                |    [0]{}: track 0xe-0x1d (15)
0x00|                                          4d 54|              MT|      tag: "MTrk" 0xe-0x12 (4)
0x10|72 6b                                          |rk              |
0x10|      00 00 00 07                              |  ....          |      length: 7 0x12-0x16 (4)
    |                                               |                |      events[0:2]: 0x16-0x1d (7)
    |                                               |                |        [0]{}: midi_event 0x16-0x1a (4)
    |                                               |                |          time{}: 0x16-0x17 (1)
0x10|                  00                           |      .         |            delta: 0 0x16-0x17 (1)
    |                                               |                |            tick: 0
0x10|                     92                        |       .        |          event: "note_on" (144) 0x17-0x17.4 (0.4)
0x10|                     92                        |       .        |          channel: 2 0x17.4-0x18 (0.4)
    |                                               |                |          note_on{}: 0x18-0x1a (2)
0x10|                        30                     |        0       |            note: "C3" (48) 0x18-0x19 (1)
0x10|                           48                  |         H      |            velocity: 72 0x19-0x1a (1)
    |                                               |                |        [1]{}: midi_event 0x1a-0x1d (3)
    |                                               |                |          time{}: 0x1a-0x1b (1)
0x10|                              40               |          @     |            delta: 64 0x1a-0x1b (1)
    |                                               |                |            tick: 64
    |                                               |                |          event: "note_on" (144)
    |                                               |                |          channel: 2
    |                                               |                |          note_on{}: 0x1b-0x1d (2)
0x10|                                 32            |           2    |            note: "D3" (50) 0x1b-0x1c (1)
0x10|                                    48|        |            H|  |            velocity: 72 0x1c-0x1d (1)
$ fq -d midi dv events/polyphonic-pressure.mid
    |00 01 02 03 04 05 06 07 08 09 0a 0b 0c 0d 0e 0f|0123456789abcdef|.{}: events/polyphonic-pressure.mid (midi) 0x0-0x1b (27)
    |                                               |                |  header{}: 0x0-0xe (14)
0x00|4d 54 68 64                                    |MThd            |    tag: "MThd" 0x0-0x4 (4)
0x00|            00 00 00 06                        |    ....        |    length: 6 0x4-0x8 (4)
0x00|                        00 01                  |        ..      |    format: 1 0x8-0xa (2)
0x00|                              00 01            |          ..    |    tracks: 1 0xa-0xc (2)
    |                                               |                |    division{}: 0xc-0xe (2)
0x00|                                    01 e0      |            ..  |      ppqn: 480 0xc-0xe (2)
    |                                               |                |  content[0:1]: 0xe-0x1b (13)
    |                                               |                |    [0]{}: track 0xe-0x1b (13)
0x00|                                          4d 54|              MT|      tag: "MTrk" 0xe-0x12 (4)
0x10|72 6b                                          |rk              |
0x10|      00 00 00 05                              |  ....          |      length: 5 0x12-0x16 (4)
    |                                               |                |      events[0:2]: 0x16-0x1b (5)
    |                                               |                |        [0]{}: midi_event 0x16-0x19 (3)
    |                                               |                |          time{}: 0x16-0x17 (1)
0x10|                  00                           |      .         |            delta: 0 0x16-0x17 (1)
    |                                               |                |            tick: 0
0x10|                     a0                        |       .        |          event: "polyphonic_pressure" (160) 0x17-0x17.4 (0.4)
0x10|                     a0                        |       .        |          channel: 0 0x17.4-0x18 (0.4)
0x10|                        64                     |        d       |          polyphonic_pressure: 100 0x18-0x19 (1)
    |                                               |                |        [1]{}: midi_event 0x19-0x1b (2)
    |                                               |                |          time{}: 0x19-0x1a (1)
0x10|                           40                  |         @      |            delta: 64 0x19-0x1a (1)
    |                                               |                |            tick: 64
    |                                               |                |          event: "polyphonic_pressure" (160)
    |                                               |                |          channel: 0
0x10|                              64|              |          d|    |          polyphonic_pressure: 100 0x1a-0x1b (1)
$ fq -d midi dv events/controller.mid
    |00 01 02 03 04 05 06 07 08 09 0a 0b 0c 0d 0e 0f|0123456789abcdef|.{}: events/controller.mid (midi) 0x0-0x1d (29)
    |                                               |                |  header{}: 0x0-0xe (14)
0x00|4d 54 68 64                                    |MThd            |    tag: "MThd" 0x0-0x4 (4)
0x00|            00 00 00 06                        |    ....        |    length: 6 0x4-0x8 (4)
0x00|                        00 01                  |        ..      |    format: 1 0x8-0xa (2)
0x00|                              00 01            |          ..    |    tracks: 1 0xa-0xc (2)
    |                                               |                |    division{}: 0xc-0xe (2)
0x00|                                    01 e0      |            ..  |      ppqn: 480 0xc-0xe (2)
    |                                               |                |  content[0:1]: 0xe-0x1d (15)
    |                                               |                |    [0]{}: track 0xe-0x1d (15)
0x00|                                          4d 54|              MT|      tag: "MTrk" 0xe-0x12 (4)
0x10|72 6b                                          |rk              |
0x10|      00 00 00 07                              |  ....          |      length: 7 0x12-0x16 (4)
    |                                               |                |      events[0:2]: 0x16-0x1d (7)
    |                                               |                |        [0]{}: midi_event 0x16-0x1a (4)
    |                                               |                |          time{}: 0x16-0x17 (1)
0x10|                  00                           |      .         |            delta: 0 0x16-0x17 (1)
    |                                               |                |            tick: 0
0x10|                     b0                        |       .        |          event: "controller" (176) 0x17-0x17.4 (0.4)
0x10|                     b0                        |       .        |          channel: 0 0x17.4-0x18 (0.4)
    |                                               |                |          controller{}: 0x18-0x1a (2)
0x10|                        20                     |                |            controller: "Bank Select (LSB)" (32) 0x18-0x19 (1)
0x10|                           21                  |         !      |            value: 33 0x19-0x1a (1)
    |                                               |                |        [1]{}: midi_event 0x1a-0x1d (3)
    |                                               |                |          time{}: 0x1a-0x1b (1)
0x10|                              40               |          @     |            delta: 64 0x1a-0x1b (1)
    |                                               |                |            tick: 64
    |                                               |                |          event: "controller" (176)
    |                                               |                |          channel: 0
    |                                               |                |          controller{}: 0x1b-0x1d (2)
0x10|                                 20            |                |            controller: "Bank Select (LSB)" (32) 0x1b-0x1c (1)
0x10|                                    22|        |            "|  |            value: 34 0x1c-0x1d (1)
$ fq -d midi dv events/program-change.mid
    |00 01 02 03 04 05 06 07 08 09 0a 0b 0c 0d 0e 0f|0123456789abcdef|.{}: events/program-change.mid (midi) 0x0-0x1b (27)
    |                                               |                |  header{}: 0x0-0xe (14)
0x00|4d 54 68 64                                    |MThd            |    tag: "MThd" 0x0-0x4 (4)
0x00|            00 00 00 06                        |    ....        |    length: 6 0x4-0x8 (4)
0x00|                        00 01                  |        ..      |    format: 1 0x8-0xa (2)
0x00|                              00 01            |          ..    |    tracks: 1 0xa-0xc (2)
    |                                               |                |    division{}: 0xc-0xe (2)
0x00|                                    01 e0      |            ..  |      ppqn: 480 0xc-0xe (2)
    |                                               |                |  content[0:1]: 0xe-0x1b (13)
    |                                               |                |    [0]{}: track 0xe-0x1b (13)
0x00|                                          4d 54|              MT|      tag: "MTrk" 0xe-0x12 (4)
0x10|72 6b                                          |rk              |
0x10|      00 00 00 05                              |  ....          |      length: 5 0x12-0x16 (4)
    |                                               |                |      events[0:2]: 0x16-0x1b (5)
    |                                               |                |        [0]{}: midi_event 0x16-0x19 (3)
    |                                               |                |          time{}: 0x16-0x17 (1)
0x10|                  00                           |      .         |            delta: 0 0x16-0x17 (1)
    |                                               |                |            tick: 0
0x10|                     c0                        |       .        |          event: "program_change" (192) 0x17-0x17.4 (0.4)
0x10|                     c0                        |       .        |          channel: 0 0x17.4-0x18 (0.4)
0x10|                        19                     |        .       |          program_change: 25 0x18-0x19 (1)
    |                                               |                |        [1]{}: midi_event 0x19-0x1b (2)
    |                                               |                |          time{}: 0x19-0x1a (1)
0x10|                           40                  |         @      |            delta: 64 0x19-0x1a (1)
    |                                               |                |            tick: 64
    |                                               |                |          event: "program_change" (192)
    |                                               |                |          channel: 0
0x10|                              20|              |           |    |          program_change: 32 0x1a-0x1b (1)
$ fq -d midi dv events/channel-pressure.mid
    |00 01 02 03 04 05 06 07 08 09 0a 0b 0c 0d 0e 0f|0123456789abcdef|.{}: events/channel-pressure.mid (midi) 0x0-0x1b (27)
    |                                               |                |  header{}: 0x0-0xe (14)
0x00|4d 54 68 64                                    |MThd            |    tag: "MThd" 0x0-0x4 (4)
0x00|            00 00 00 06                        |    ....        |    length: 6 0x4-0x8 (4)
0x00|                        00 01                  |        ..      |    format: 1 0x8-0xa (2)
0x00|                              00 01            |          ..    |    tracks: 1 0xa-0xc (2)
    |                                               |                |    division{}: 0xc-0xe (2)
0x00|                                    01 e0      |            ..  |      ppqn: 480 0xc-0xe (2)
    |                                               |                |  content[0:1]: 0xe-0x1b (13)
    |                                               |                |    [0]{}: track 0xe-0x1b (13)
0x00|                                          4d 54|              MT|      tag: "MTrk" 0xe-0x12 (4)
0x10|72 6b                                          |rk              |
0x10|      00 00 00 05                              |  ....          |      length: 5 0x12-0x16 (4)
    |                                               |                |      events[0:2]: 0x16-0x1b (5)
    |                                               |                |        [0]{}: midi_event 0x16-0x19 (3)
    |                                               |                |          time{}: 0x16-0x17 (1)
0x10|                  00                           |      .         |            delta: 0 0x16-0x17 (1)
    |                                               |                |            tick: 0
0x10|                     d0                        |       .        |          event: "channel_pressure" (208) 0x17-0x17.4 (0.4)
0x10|                     d0                        |       .        |          channel: 0 0x17.4-0x18 (0.4)
0x10|                        07                     |        .       |          channel_pressure: 7 0x18-0x19 (1)
    |                                               |                |        [1]{}: midi_event 0x19-0x1b (2)
    |                                               |                |          time{}: 0x19-0x1a (1)
0x10|                           40                  |         @      |            delta: 64 0x19-0x1a (1)
    |                                               |                |            tick: 64
    |                                               |                |          event: "channel_pressure" (208)
    |                                               |                |          channel: 0
0x10|                              48|              |          H|    |          channel_pressure: 72 0x1a-0x1b (1)
$ fq -d midi dv events/pitch-bend.mid
    |00 01 02 03 04 05 06 07 08 09 0a 0b 0c 0d 0e 0f|0123456789abcdef|.{}: events/pitch-bend.mid (midi) 0x0-0x20 (32)
    |                                               |                |  header{}: 0x0-0xe (14)
0x00|4d 54 68 64                                    |MThd            |    tag: "MThd" 0x0-0x4 (4)
0x00|            00 00 00 06                        |    ....        |    length: 6 0x4-0x8 (4)
0x00|                        00 01                  |        ..      |    format: 1 0x8-0xa (2)
0x00|                              00 01            |          ..    |    tracks: 1 0xa-0xc (2)
    |                                               |                |    division{}: 0xc-0xe (2)
0x00|                                    01 e0      |            ..  |      ppqn: 480 0xc-0xe (2)
    |                                               |                |  content[0:1]: 0xe-0x20 (18)
    |                                               |                |    [0]{}: track 0xe-0x20 (18)
0x00|                                          4d 54|              MT|      tag: "MTrk" 0xe-0x12 (4)
0x10|72 6b                                          |rk              |
0x10|      00 00 00 0a                              |  ....          |      length: 10 0x12-0x16 (4)
    |                                               |                |      events[0:3]: 0x16-0x20 (10)
    |                                               |                |        [0]{}: midi_event 0x16-0x1a (4)
    |                                               |                |          time{}: 0x16-0x17 (1)
0x10|                  00                           |      .         |            delta: 0 0x16-0x17 (1)
    |                                               |                |            tick: 0
0x10|                     e5                        |       .        |          event: "pitch_bend" (224) 0x17-0x17.4 (0.4)
0x10|                     e5                        |       .        |          channel: 5 0x17.4-0x18 (0.4)
0x10|                        40 00                  |        @.      |          pitch_bend: 0 0x18-0x1a (2)
    |                                               |                |        [1]{}: midi_event 0x1a-0x1d (3)
    |                                               |                |          time{}: 0x1a-0x1b (1)
0x10|                              20               |                |            delta: 32 0x1a-0x1b (1)
    |                                               |                |            tick: 32
    |                                               |                |          event: "pitch_bend" (224)
    |                                               |                |          channel: 5
0x10|                                 60 00         |           `.   |          pitch_bend: 4096 0x1b-0x1d (2)
    |                                               |                |        [2]{}: midi_event 0x1d-0x20 (3)
    |                                               |                |          time{}: 0x1d-0x1e (1)
0x10|                                       40      |             @  |            delta: 64 0x1d-0x1e (1)
    |                                               |                |            tick: 96
    |                                               |                |          event: "pitch_bend" (224)
    |                                               |                |          channel: 5
0x10|                                          20 00|               .|          pitch_bend: -4096 0x1e-0x20 (2)
