$ fq -d midi dv reference.mid
     |00 01 02 03 04 05 06 07 08 09 0a 0b 0c 0d 0e 0f|0123456789abcdef|.{}: reference.mid (midi) 0x0-0x12b (299)
     |                                               |                |  header{}: 0x0-0xe (14)
0x000|4d 54 68 64                                    |MThd            |    tag: "MThd" 0x0-0x4 (4)
0x000|            00 00 00 06                        |    ....        |    length: 6 0x4-0x8 (4)
0x000|                        00 01                  |        ..      |    format: 1 0x8-0xa (2)
0x000|                              00 02            |          ..    |    tracks: 2 0xa-0xc (2)
     |                                               |                |    division{}: 0xc-0xe (2)
0x000|                                    01 e0      |            ..  |      ppqn: 480 0xc-0xe (2)
     |                                               |                |  content[0:2]: 0xe-0x12b (285)
     |                                               |                |    [0]{}: track 0xe-0x1a (12)
0x000|                                          4d 54|              MT|      tag: "MTrk" 0xe-0x12 (4)
0x010|72 6b                                          |rk              |
0x010|      00 00 00 04                              |  ....          |      length: 4 0x12-0x16 (4)
     |                                               |                |      events[0:1]: 0x16-0x1a (4)
     |                                               |                |        [0]{}: meta_event 0x16-0x1a (4)
     |                                               |                |          time{}: 0x16-0x17 (1)
0x010|                  00                           |      .         |            delta: 0 0x16-0x17 (1)
     |                                               |                |            tick: 0
0x010|                     ff                        |       .        |          status: 255 0x17-0x18 (1)
0x010|                        2f                     |        /       |          event: "end_of_track" (47) 0x18-0x19 (1)
0x010|                           00                  |         .      |          length: 0 0x19-0x1a (1)
     |                                               |                |    [1]{}: track 0x1a-0x12b (273)
0x010|                              4d 54 72 6b      |          MTrk  |      tag: "MTrk" 0x1a-0x1e (4)
0x010|                                          00 00|              ..|      length: 265 0x1e-0x22 (4)
0x020|01 09                                          |..              |
     |                                               |                |      events[0:34]: 0x22-0x12b (265)
     |                                               |                |        [0]{}: meta_event 0x22-0x28 (6)
     |                                               |                |          time{}: 0x22-0x23 (1)
0x020|      00                                       |  .             |            delta: 0 0x22-0x23 (1)
     |                                               |                |            tick: 0
0x020|         ff                                    |   .            |          status: 255 0x23-0x24 (1)
0x020|            00                                 |    .           |          event: "sequence_number" (0) 0x24-0x25 (1)
0x020|               02                              |     .          |          length: 2 0x25-0x26 (1)
0x020|                  00 17                        |      ..        |          sequence_number: 23 0x26-0x28 (2)
     |                                               |                |        [1]{}: meta_event 0x28-0x39 (17)
     |                                               |                |          time{}: 0x28-0x29 (1)
0x020|                        00                     |        .       |            delta: 0 0x28-0x29 (1)
     |                                               |                |            tick: 0
0x020|                           ff                  |         .      |          status: 255 0x29-0x2a (1)
0x020|                              01               |          .     |          event: "text" (1) 0x2a-0x2b (1)
0x020|                                 0d 54 68 69 73|           .This|          text: "This and That" 0x2b-0x39 (14)
0x030|20 61 6e 64 20 54 68 61 74                     | and That       |
     |                                               |                |        [2]{}: meta_event 0x39-0x41 (8)
     |                                               |                |          time{}: 0x39-0x3a (1)
0x030|                           00                  |         .      |            delta: 0 0x39-0x3a (1)
     |                                               |                |            tick: 0
0x030|                              ff               |          .     |          status: 255 0x3a-0x3b (1)
0x030|                                 02            |           .    |          event: "copyright" (2) 0x3b-0x3c (1)
0x030|                                    04 54 68 65|            .The|          copyright: "Them" 0x3c-0x41 (5)
0x040|6d                                             |m               |
     |                                               |                |        [3]{}: meta_event 0x41-0x54 (19)
     |                                               |                |          time{}: 0x41-0x42 (1)
0x040|   00                                          | .              |            delta: 0 0x41-0x42 (1)
     |                                               |                |            tick: 0
0x040|      ff                                       |  .             |          status: 255 0x42-0x43 (1)
0x040|         03                                    |   .            |          event: "track_name" (3) 0x43-0x44 (1)
0x040|            0f 41 63 6f 75 73 74 69 63 20 47 75|    .Acoustic Gu|          track_name: "Acoustic Guitar" 0x44-0x54 (16)
0x050|69 74 61 72                                    |itar            |
     |                                               |                |        [4]{}: meta_event 0x54-0x62 (14)
     |                                               |                |          time{}: 0x54-0x55 (1)
0x050|            00                                 |    .           |            delta: 0 0x54-0x55 (1)
     |                                               |                |            tick: 0
0x050|               ff                              |     .          |          status: 255 0x55-0x56 (1)
0x050|                  04                           |      .         |          event: "instrument_name" (4) 0x56-0x57 (1)
0x050|                     0a 44 69 64 67 65 72 69 64|       .Didgerid|          instrument_name: "Didgeridoo" 0x57-0x62 (11)
0x060|6f 6f                                          |oo              |
     |                                               |                |        [5]{}: meta_event 0x62-0x6e (12)
     |                                               |                |          time{}: 0x62-0x63 (1)
0x060|      00                                       |  .             |            delta: 0 0x62-0x63 (1)
     |                                               |                |            tick: 0
0x060|         ff                                    |   .            |          status: 255 0x63-0x64 (1)
0x060|            05                                 |    .           |          event: "lyric" (5) 0x64-0x65 (1)
0x060|               08 4c 61 2d 6c 61 2d 6c 61      |     .La-la-la  |          lyric: "La-la-la" 0x65-0x6e (9)
     |                                               |                |        [6]{}: meta_event 0x6e-0x81 (19)
     |                                               |                |          time{}: 0x6e-0x6f (1)
0x060|                                          00   |              . |            delta: 0 0x6e-0x6f (1)
     |                                               |                |            tick: 0
0x060|                                             ff|               .|          status: 255 0x6f-0x70 (1)
0x070|06                                             |.               |          event: "marker" (6) 0x70-0x71 (1)
0x070|   0f 48 65 72 65 20 42 65 20 44 72 61 67 6f 6e| .Here Be Dragon|          marker: "Here Be Dragons" 0x71-0x81 (16)
0x080|73                                             |s               |
     |                                               |                |        [7]{}: meta_event 0x81-0x91 (16)
     |                                               |                |          time{}: 0x81-0x82 (1)
0x080|   00                                          | .              |            delta: 0 0x81-0x82 (1)
     |                                               |                |            tick: 0
0x080|      ff                                       |  .             |          status: 255 0x82-0x83 (1)
0x080|         07                                    |   .            |          event: "cue_point" (7) 0x83-0x84 (1)
0x080|            0c 4d 6f 72 65 20 63 6f 77 62 65 6c|    .More cowbel|          cue_point: "More cowbell" 0x84-0x91 (13)
0x090|6c                                             |l               |
     |                                               |                |        [8]{}: meta_event 0x91-0x9b (10)
     |                                               |                |          time{}: 0x91-0x92 (1)
0x090|   00                                          | .              |            delta: 0 0x91-0x92 (1)
     |                                               |                |            tick: 0
0x090|      ff                                       |  .             |          status: 255 0x92-0x93 (1)
0x090|         08                                    |   .            |          event: "program_name" (8) 0x93-0x94 (1)
0x090|            06 45 73 63 61 70 65               |    .Escape     |          program_name: "Escape" 0x94-0x9b (7)
     |                                               |                |        [9]{}: meta_event 0x9b-0xa7 (12)
     |                                               |                |          time{}: 0x9b-0x9c (1)
0x090|                                 00            |           .    |            delta: 0 0x9b-0x9c (1)
     |                                               |                |            tick: 0
0x090|                                    ff         |            .   |          status: 255 0x9c-0x9d (1)
0x090|                                       09      |             .  |          event: "device_name" (9) 0x9d-0x9e (1)
0x090|                                          08 54|              .T|          device_name: "TheThing" 0x9e-0xa7 (9)
0x0a0|68 65 54 68 69 6e 67                           |heThing         |
     |                                               |                |        [10]{}: meta_event 0xa7-0xac (5)
     |                                               |                |          time{}: 0xa7-0xa8 (1)
0x0a0|                     00                        |       .        |            delta: 0 0xa7-0xa8 (1)
     |                                               |                |            tick: 0
0x0a0|                        ff                     |        .       |          status: 255 0xa8-0xa9 (1)
0x0a0|                           20                  |                |          event: "midi_channel_prefix" (32) 0xa9-0xaa (1)
0x0a0|                              01               |          .     |          length: 1 0xaa-0xab (1)
0x0a0|                                 0d            |           .    |          midi_channel_prefix: 13 0xab-0xac (1)
     |                                               |                |        [11]{}: meta_event 0xac-0xb1 (5)
     |                                               |                |          time{}: 0xac-0xad (1)
0x0a0|                                    00         |            .   |            delta: 0 0xac-0xad (1)
     |                                               |                |            tick: 0
0x0a0|                                       ff      |             .  |          status: 255 0xad-0xae (1)
0x0a0|                                          21   |              ! |          event: "midi_port" (33) 0xae-0xaf (1)
0x0a0|                                             01|               .|          length: 1 0xaf-0xb0 (1)
0x0b0|70                                             |p               |          midi_port: 112 0xb0-0xb1 (1)
     |                                               |                |        [12]{}: meta_event 0xb1-0xb5 (4)
     |                                               |                |          time{}: 0xb1-0xb2 (1)
0x0b0|   00                                          | .              |            delta: 0 0xb1-0xb2 (1)
     |                                               |                |            tick: 0
0x0b0|      ff                                       |  .             |          status: 255 0xb2-0xb3 (1)
0x0b0|         2f                                    |   /            |          event: "end_of_track" (47) 0xb3-0xb4 (1)
0x0b0|            00                                 |    .           |          length: 0 0xb4-0xb5 (1)
     |                                               |                |        [13]{}: meta_event 0xb5-0xbc (7)
     |                                               |                |          time{}: 0xb5-0xb6 (1)
0x0b0|               00                              |     .          |            delta: 0 0xb5-0xb6 (1)
     |                                               |                |            tick: 0
0x0b0|                  ff                           |      .         |          status: 255 0xb6-0xb7 (1)
0x0b0|                     51                        |       Q        |          event: "tempo" (81) 0xb7-0xb8 (1)
0x0b0|                        03                     |        .       |          length: 3 0xb8-0xb9 (1)
0x0b0|                           07 a1 20            |         ..     |          tempo: 500000 0xb9-0xbc (3)
     |                                               |                |        [14]{}: meta_event 0xbc-0xc5 (9)
     |                                               |                |          time{}: 0xbc-0xbd (1)
0x0b0|                                    00         |            .   |            delta: 0 0xbc-0xbd (1)
     |                                               |                |            tick: 0
0x0b0|                                       ff      |             .  |          status: 255 0xbd-0xbe (1)
0x0b0|                                          54   |              T |          event: "smpte_offset" (84) 0xbe-0xbf (1)
0x0b0|                                             05|               .|          length: 5 0xbf-0xc0 (1)
     |                                               |                |          smpte_offset{}: 0xc0-0xc5 (5)
0x0c0|4d                                             |M               |            framerate: "29.97 FPS DF" (2) 0xc0-0xc0.3 (0.3)
0x0c0|4d                                             |M               |            hour: 13 0xc0.3-0xc1 (0.5)
0x0c0|   2d                                          | -              |            minute: 45 0xc1-0xc2 (1)
0x0c0|      3b                                       |  ;             |            second: 59 0xc2-0xc3 (1)
0x0c0|         07                                    |   .            |            frames: 7 0xc3-0xc4 (1)
0x0c0|            27                                 |    '           |            fractions: 39 0xc4-0xc5 (1)
     |                                               |                |        [15]{}: meta_event 0xc5-0xcd (8)
     |                                               |                |          time{}: 0xc5-0xc6 (1)
0x0c0|               00                              |     .          |            delta: 0 0xc5-0xc6 (1)
     |                                               |                |            tick: 0
0x0c0|                  ff                           |      .         |          status: 255 0xc6-0xc7 (1)
0x0c0|                     58                        |       X        |          event: "time_signature" (88) 0xc7-0xc8 (1)
0x0c0|                        04                     |        .       |          length: 4 0xc8-0xc9 (1)
     |                                               |                |          time_signature{}: 0xc9-0xcd (4)
0x0c0|                           04                  |         .      |            numerator: 4 0xc9-0xca (1)
0x0c0|                              02               |          .     |            denominator: 4 0xca-0xcb (1)
0x0c0|                                 18            |           .    |            ticks_per_click: 24 0xcb-0xcc (1)
0x0c0|                                    08         |            .   |            thirty_seconds_per_quarter: 8 0xcc-0xcd (1)
     |                                               |                |        [16]{}: meta_event 0xcd-0xd3 (6)
     |                                               |                |          time{}: 0xcd-0xce (1)
0x0c0|                                       00      |             .  |            delta: 0 0xcd-0xce (1)
     |                                               |                |            tick: 0
0x0c0|                                          ff   |              . |          status: 255 0xce-0xcf (1)
0x0c0|                                             59|               Y|          event: "key_signature" (89) 0xcf-0xd0 (1)
0x0d0|02                                             |.               |          length: 2 0xd0-0xd1 (1)
0x0d0|   00 01                                       | ..             |          key_signature: "A minor" (1) 0xd1-0xd3 (2)
     |                                               |                |        [17]{}: meta_event 0xd3-0xdd (10)
     |                                               |                |          time{}: 0xd3-0xd4 (1)
0x0d0|         00                                    |   .            |            delta: 0 0xd3-0xd4 (1)
     |                                               |                |            tick: 0
0x0d0|            ff                                 |    .           |          status: 255 0xd4-0xd5 (1)
0x0d0|               7f                              |     .          |          event: "sequencer_specific_event" (127) 0xd5-0xd6 (1)
0x0d0|                  06                           |      .         |          length: 6 0xd6-0xd7 (1)
     |                                               |                |          sequencer_specific_event{}: 0xd7-0xdd (6)
0x0d0|                     00 00 3b                  |       ..;      |            manufacturer: "Mark Of The Unicorn (MOTU)" (59) 0xd7-0xda (3)
0x0d0|                              3a 4c 5e         |          :L^   |            data: raw bits 0xda-0xdd (3)
     |                                               |                |        [18]{}: midi_event 0xdd-0xe2 (5)
     |                                               |                |          time{}: 0xdd-0xdf (2)
0x0d0|                                       83 60   |             .` |            delta: 480 0xdd-0xdf (2)
     |                                               |                |            tick: 480
0x0d0|                                             80|               .|          event: "note_off" (128) 0xdf-0xdf.4 (0.4)
0x0d0|                                             80|               .|          channel: 0 0xdf.4-0xe0 (0.4)
     |                                               |                |          note_off{}: 0xe0-0xe2 (2)
0x0e0|30                                             |0               |            note: "C3" (48) 0xe0-0xe1 (1)
0x0e0|   40                                          | @              |            velocity: 64 0xe1-0xe2 (1)
     |                                               |                |        [19]{}: midi_event 0xe2-0xe6 (4)
     |                                               |                |          time{}: 0xe2-0xe3 (1)
0x0e0|      00                                       |  .             |            delta: 0 0xe2-0xe3 (1)
     |                                               |                |            tick: 480
0x0e0|         90                                    |   .            |          event: "note_on" (144) 0xe3-0xe3.4 (0.4)
0x0e0|         90                                    |   .            |          channel: 0 0xe3.4-0xe4 (0.4)
     |                                               |                |          note_on{}: 0xe4-0xe6 (2)
0x0e0|            30                                 |    0           |            note: "C3" (48) 0xe4-0xe5 (1)
0x0e0|               48                              |     H          |            velocity: 72 0xe5-0xe6 (1)
     |                                               |                |        [20]{}: midi_event 0xe6-0xea (4)
     |                                               |                |          time{}: 0xe6-0xe7 (1)
0x0e0|                  00                           |      .         |            delta: 0 0xe6-0xe7 (1)
     |                                               |                |            tick: 480
0x0e0|                     92                        |       .        |          event: "note_on" (144) 0xe7-0xe7.4 (0.4)
0x0e0|                     92                        |       .        |          channel: 2 0xe7.4-0xe8 (0.4)
     |                                               |                |          note_on{}: 0xe8-0xea (2)
0x0e0|                        31                     |        1       |            note: "C♯3/D♭3" (49) 0xe8-0xe9 (1)
0x0e0|                           48                  |         H      |            velocity: 72 0xe9-0xea (1)
     |                                               |                |        [21]{}: midi_event 0xea-0xed (3)
     |                                               |                |          time{}: 0xea-0xeb (1)
0x0e0|                              00               |          .     |            delta: 0 0xea-0xeb (1)
     |                                               |                |            tick: 480
     |                                               |                |          event: "note_on" (144)
     |                                               |                |          channel: 2
     |                                               |                |          note_on{}: 0xeb-0xed (2)
0x0e0|                                 30            |           0    |            note: "C3" (48) 0xeb-0xec (1)
0x0e0|                                    64         |            d   |            velocity: 100 0xec-0xed (1)
     |                                               |                |        [22]{}: midi_event 0xed-0xf0 (3)
     |                                               |                |          time{}: 0xed-0xee (1)
0x0e0|                                       00      |             .  |            delta: 0 0xed-0xee (1)
     |                                               |                |            tick: 480
0x0e0|                                          a0   |              . |          event: "polyphonic_pressure" (160) 0xee-0xee.4 (0.4)
0x0e0|                                          a0   |              . |          channel: 0 0xee.4-0xef (0.4)
0x0e0|                                             64|               d|          polyphonic_pressure: 100 0xef-0xf0 (1)
     |                                               |                |        [23]{}: midi_event 0xf0-0xf4 (4)
     |                                               |                |          time{}: 0xf0-0xf1 (1)
0x0f0|00                                             |.               |            delta: 0 0xf0-0xf1 (1)
     |                                               |                |            tick: 480
0x0f0|   b0                                          | .              |          event: "controller" (176) 0xf1-0xf1.4 (0.4)
0x0f0|   b0                                          | .              |          channel: 0 0xf1.4-0xf2 (0.4)
     |                                               |                |          controller{}: 0xf2-0xf4 (2)
0x0f0|      00                                       |  .             |            controller: "Bank Select (MSB)" (0) 0xf2-0xf3 (1)
0x0f0|         05                                    |   .            |            value: 5 0xf3-0xf4 (1)
     |                                               |                |        [24]{}: midi_event 0xf4-0xf8 (4)
     |                                               |                |          time{}: 0xf4-0xf5 (1)
0x0f0|            00                                 |    .           |            delta: 0 0xf4-0xf5 (1)
     |                                               |                |            tick: 480
0x0f0|               b0                              |     .          |          event: "controller" (176) 0xf5-0xf5.4 (0.4)
0x0f0|               b0                              |     .          |          channel: 0 0xf5.4-0xf6 (0.4)
     |                                               |                |          controller{}: 0xf6-0xf8 (2)
0x0f0|                  20                           |                |            controller: "Bank Select (LSB)" (32) 0xf6-0xf7 (1)
0x0f0|                     21                        |       !        |            value: 33 0xf7-0xf8 (1)
     |                                               |                |        [25]{}: midi_event 0xf8-0xfc (4)
     |                                               |                |          time{}: 0xf8-0xf9 (1)
0x0f0|                        00                     |        .       |            delta: 0 0xf8-0xf9 (1)
     |                                               |                |            tick: 480
0x0f0|                           b0                  |         .      |          event: "controller" (176) 0xf9-0xf9.4 (0.4)
0x0f0|                           b0                  |         .      |          channel: 0 0xf9.4-0xfa (0.4)
     |                                               |                |          controller{}: 0xfa-0xfc (2)
0x0f0|                              65               |          e     |            controller: "Registered Parameter Number (MSB)" (101) 0xfa-0xfb (1)
0x0f0|                                 00            |           .    |            value: 0 0xfb-0xfc (1)
     |                                               |                |        [26]{}: midi_event 0xfc-0xff (3)
     |                                               |                |          time{}: 0xfc-0xfd (1)
0x0f0|                                    00         |            .   |            delta: 0 0xfc-0xfd (1)
     |                                               |                |            tick: 480
0x0f0|                                       c0      |             .  |          event: "program_change" (192) 0xfd-0xfd.4 (0.4)
0x0f0|                                       c0      |             .  |          channel: 0 0xfd.4-0xfe (0.4)
0x0f0|                                          19   |              . |          program_change: 25 0xfe-0xff (1)
     |                                               |                |        [27]{}: midi_event 0xff-0x102 (3)
     |                                               |                |          time{}: 0xff-0x100 (1)
0x0f0|                                             00|               .|            delta: 0 0xff-0x100 (1)
     |                                               |                |            tick: 480
0x100|d0                                             |.               |          event: "channel_pressure" (208) 0x100-0x100.4 (0.4)
0x100|d0                                             |.               |          channel: 0 0x100.4-0x101 (0.4)
0x100|   07                                          | .              |          channel_pressure: 7 0x101-0x102 (1)
     |                                               |                |        [28]{}: midi_event 0x102-0x107 (5)
     |                                               |                |          time{}: 0x102-0x104 (2)
0x100|      81 70                                    |  .p            |            delta: 240 0x102-0x104 (2)
     |                                               |                |            tick: 720
0x100|            e0                                 |    .           |          event: "pitch_bend" (224) 0x104-0x104.4 (0.4)
0x100|            e0                                 |    .           |          channel: 0 0x104.4-0x105 (0.4)
0x100|               00 08                           |     ..         |          pitch_bend: -8184 0x105-0x107 (2)
     |                                               |                |        [29]{}: sysex_event 0x107-0x10f (8)
     |                                               |                |          time{}: 0x107-0x108 (1)
0x100|                     00                        |       .        |            delta: 0 0x107-0x108 (1)
     |                                               |                |            tick: 720
0x100|                        f0                     |        .       |          event: "sysex_message" (240) 0x108-0x109 (1)
0x100|                           05                  |         .      |          length: 5 0x109-0x10a (1)
     |                                               |                |          message{}: 0x10a-0x10f (5)
0x100|                              7e               |          ~     |            manufacturer: "Non-RealTime Extensions" (126) 0x10a-0x10b (1)
0x100|                                 00 09 01      |           ...  |            data: raw bits 0x10b-0x10e (3)
0x100|                                          f7   |              . |            end_of_message: 247 0x10e-0x10f (1)
     |                                               |                |        [30]{}: sysex_event 0x10f-0x115 (6)
     |                                               |                |          time{}: 0x10f-0x110 (1)
0x100|                                             00|               .|            delta: 0 0x10f-0x110 (1)
     |                                               |                |            tick: 720
0x110|f0                                             |.               |          event: "sysex_message" (240) 0x110-0x111 (1)
0x110|   03                                          | .              |          length: 3 0x111-0x112 (1)
     |                                               |                |          message{}: 0x112-0x115 (3)
0x110|      43                                       |  C             |            manufacturer: "Yamaha" (67) 0x112-0x113 (1)
0x110|         12 00                                 |   ..           |            data: raw bits 0x113-0x115 (2)
     |                                               |                |            continued: true
     |                                               |                |        [31]{}: sysex_event 0x115-0x11f (10)
     |                                               |                |          time{}: 0x115-0x117 (2)
0x110|               81 48                           |     .H         |            delta: 200 0x115-0x117 (2)
     |                                               |                |            tick: 920
0x110|                     f7                        |       .        |          event: "sysex_continuation" (247) 0x117-0x118 (1)
0x110|                        06                     |        .       |          length: 6 0x118-0x119 (1)
     |                                               |                |          continuation{}: 0x119-0x11f (6)
0x110|                           43 12 00 43 12 00   |         C..C.. |            data: raw bits 0x119-0x11f (6)
     |                                               |                |            continued: true
     |                                               |                |        [32]{}: sysex_event 0x11f-0x126 (7)
     |                                               |                |          time{}: 0x11f-0x120 (1)
0x110|                                             64|               d|            delta: 100 0x11f-0x120 (1)
     |                                               |                |            tick: 1020
0x120|f7                                             |.               |          event: "sysex_continuation" (247) 0x120-0x121 (1)
0x120|   04                                          | .              |          length: 4 0x121-0x122 (1)
     |                                               |                |          continuation{}: 0x122-0x126 (4)
0x120|      43 12 00                                 |  C..           |            data: raw bits 0x122-0x125 (3)
0x120|               f7                              |     .          |            end_of_message: 247 0x125-0x126 (1)
     |                                               |                |        [33]{}: sysex_event 0x126-0x12b (5)
     |                                               |                |          time{}: 0x126-0x127 (1)
0x120|                  00                           |      .         |            delta: 0 0x126-0x127 (1)
     |                                               |                |            tick: 1020
0x120|                     f7                        |       .        |          event: "sysex_escape" (247) 0x127-0x128 (1)
0x120|                        02                     |        .       |          length: 2 0x128-0x129 (1)
     |                                               |                |          escape{}: 0x129-0x12b (2)
0x120|                           f3 01|              |         ..|    |            data: raw bits 0x129-0x12b (2)
