$ fq -d midi dv midi/smpte-timecode-30.mid
    |00 01 02 03 04 05 06 07 08 09 0a 0b 0c 0d 0e 0f|0123456789abcdef|.{}: midi/smpte-timecode-30.mid (midi) 0x0-0x2f (47)
    |                                               |                |  header{}: 0x0-0xe (14)
0x00|4d 54 68 64                                    |MThd            |    tag: "MThd" 0x0-0x4 (4)
0x00|            00 00 00 06                        |    ....        |    length: 6 0x4-0x8 (4)
0x00|                        00 00                  |        ..      |    format: 0 0x8-0xa (2)
0x00|                              00 01            |          ..    |    tracks: 1 0xa-0xc (2)
    |                                               |                |    division{}: 0xc-0xe (2)
0x00|                                    e2         |            .   |      fps: "SMPTE 30 FPS" (-30) 0xc-0xd (1)
0x00|                                       50      |             P  |      resolution: 80 0xd-0xe (1)
    |                                               |                |  content[0:1]: 0xe-0x2f (33)
    |                                               |                |    [0]{}: track 0xe-0x2f (33)
0x00|                                          4d 54|              MT|      tag: "MTrk" 0xe-0x12 (4)
0x10|72 6b                                          |rk              |
0x10|      00 00 00 19                              |  ....          |      length: 25 0x12-0x16 (4)
    |                                               |                |      events[0:3]: 0x16-0x2f (25)
    |                                               |                |        [0]{}: meta_event 0x16-0x22 (12)
    |                                               |                |          time{}: 0x16-0x17 (1)
0x10|                  00                           |      .         |            delta: 0 0x16-0x17 (1)
    |                                               |                |            tick: 0
0x10|                     ff                        |       .        |          status: 255 0x17-0x18 (1)
0x10|                        03                     |        .       |          event: "track_name" (3) 0x18-0x19 (1)
0x10|                           08 53 4d 50 54 45 20|         .SMPTE |          track_name: "SMPTE 30" 0x19-0x22 (9)
0x20|33 30                                          |30              |
    |                                               |                |        [1]{}: meta_event 0x22-0x2b (9)
    |                                               |                |          time{}: 0x22-0x23 (1)
0x20|      00                                       |  .             |            delta: 0 0x22-0x23 (1)
    |                                               |                |            tick: 0
0x20|         ff                                    |   .            |          status: 255 0x23-0x24 (1)
0x20|            54                                 |    T           |          event: "smpte_offset" (84) 0x24-0x25 (1)
0x20|               05                              |     .          |          length: 5 0x25-0x26 (1)
    |                                               |                |          smpte_offset{}: 0x26-0x2b (5)
0x20|                  6d                           |      m         |            framerate: "30 FPS" (3) 0x26-0x26.3 (0.3)
0x20|                  6d                           |      m         |            hour: 13 0x26.3-0x27 (0.5)
0x20|                     2d                        |       -        |            minute: 45 0x27-0x28 (1)
0x20|                        3b                     |        ;       |            second: 59 0x28-0x29 (1)
0x20|                           07                  |         .      |            frames: 7 0x29-0x2a (1)
0x20|                              27               |          '     |            fractions: 39 0x2a-0x2b (1)
    |                                               |                |        [2]{}: meta_event 0x2b-0x2f (4)
    |                                               |                |          time{}: 0x2b-0x2c (1)
0x20|                                 00            |           .    |            delta: 0 0x2b-0x2c (1)
    |                                               |                |            tick: 0
0x20|                                    ff         |            .   |          status: 255 0x2c-0x2d (1)
0x20|                                       2f      |             /  |          event: "end_of_track" (47) 0x2d-0x2e (1)
0x20|                                          00|  |              .||          length: 0 0x2e-0x2f (1)
