$ fq -d midi dv events/sysex-message.mid
    |00 01 02 03 04 05 06 07 08 09 0a 0b 0c 0d 0e 0f|0123456789abcdef|.{}: events/sysex-message.mid (midi) 0x0-0x1e (30)
    |                                               |                |  header{}: 0x0-0xe (14)
0x00|4d 54 68 64                                    |MThd            |    tag: "MThd" 0x0-0x4 (4)
0x00|            00 00 00 06                        |    ....        |    length: 6 0x4-0x8 (4)
0x00|                        00 01                  |        ..      |    format: 1 0x8-0xa (2)
0x00|                              00 01            |          ..    |    tracks: 1 0xa-0xc (2)
    |                                               |                |    division{}: 0xc-0xe (2)
0x00|                                    01 e0      |            ..  |      ppqn: 480 0xc-0xe (2)
    |                                               |                |  content[0:1]: 0xe-0x1e (16)
    |                                               |                |    [0]{}: track 0xe-0x1e (16)
0x00|                                          4d 54|              MT|      tag: "MTrk" 0xe-0x12 (4)
0x10|72 6b                                          |rk              |
0x10|      00 00 00 08                              |  ....          |      length: 8 0x12-0x16 (4)
    |                                               |                |      events[0:1]: 0x16-0x1e (8)
    |                                               |                |        [0]{}: sysex_event 0x16-0x1e (8)
    |                                               |                |          time{}: 0x16-0x17 (1)
0x10|                  00                           |      .         |            delta: 0 0x16-0x17 (1)
    |                                               |                |            tick: 0
0x10|                     f0                        |       .        |          event: "sysex_message" (240) 0x17-0x18 (1)
0x10|                        05                     |        .       |          length: 5 0x18-0x19 (1)
    |                                               |                |          message{}: 0x19-0x1e (5)
0x10|                           7e                  |         ~      |            manufacturer: "Non-RealTime Extensions" (126) 0x19-0x1a (1)
0x10|                              00 09 01         |          ...   |            data: raw bits 0x1a-0x1d (3)
0x10|                                       f7|     |             .| |            end_of_message: 247 0x1d-0x1e (1)
$ fq -d midi dv events/sysex-continuation.mid
    |00 01 02 03 04 05 06 07 08 09 0a 0b 0c 0d 0e 0f|0123456789abcdef|.{}: events/sysex-continuation.mid (midi) 0x0-0x2c (44)
    |                                               |                |  header{}: 0x0-0xe (14)
0x00|4d 54 68 64                                    |MThd            |    tag: "MThd" 0x0-0x4 (4)
0x00|            00 00 00 06                        |    ....        |    length: 6 0x4-0x8 (4)
0x00|                        00 01                  |        ..      |    format: 1 0x8-0xa (2)
0x00|                              00 01            |          ..    |    tracks: 1 0xa-0xc (2)
    |                                               |                |    division{}: 0xc-0xe (2)
0x00|                                    01 e0      |            ..  |      ppqn: 480 0xc-0xe (2)
    |                                               |                |  content[0:1]: 0xe-0x2c (30)
    |                                               |                |    [0]{}: track 0xe-0x2c (30)
0x00|                                          4d 54|              MT|      tag: "MTrk" 0xe-0x12 (4)
0x10|72 6b                                          |rk              |
0x10|      00 00 00 16                              |  ....          |      length: 22 0x12-0x16 (4)
    |                                               |                |      events[0:3]: 0x16-0x2c (22)
    |                                               |                |        [0]{}: sysex_event 0x16-0x1c (6)
    |                                               |                |          time{}: 0x16-0x17 (1)
0x10|                  00                           |      .         |            delta: 0 0x16-0x17 (1)
    |                                               |                |            tick: 0
0x10|                     f0                        |       .        |          event: "sysex_message" (240) 0x17-0x18 (1)
0x10|                        03                     |        .       |          length: 3 0x18-0x19 (1)
    |                                               |                |          message{}: 0x19-0x1c (3)
0x10|                           43                  |         C      |            manufacturer: "Yamaha" (67) 0x19-0x1a (1)
0x10|                              01 23            |          .#    |            data: raw bits 0x1a-0x1c (2)
    |                                               |                |            continued: true
    |                                               |                |        [1]{}: sysex_event 0x1c-0x25 (9)
    |                                               |                |          time{}: 0x1c-0x1d (1)
0x10|                                    00         |            .   |            delta: 0 0x1c-0x1d (1)
    |                                               |                |            tick: 0
0x10|                                       f7      |             .  |          event: "sysex_continuation" (247) 0x1d-0x1e (1)
0x10|                                          06   |              . |          length: 6 0x1e-0x1f (1)
    |                                               |                |          continuation{}: 0x1f-0x25 (6)
0x10|                                             45|               E|            data: raw bits 0x1f-0x25 (6)
0x20|67 89 ab cd ef                                 |g....           |
    |                                               |                |            continued: true
    |                                               |                |        [2]{}: sysex_event 0x25-0x2c (7)
    |                                               |                |          time{}: 0x25-0x26 (1)
0x20|               00                              |     .          |            delta: 0 0x25-0x26 (1)
    |                                               |                |            tick: 0
0x20|                  f7                           |      .         |          event: "sysex_continuation" (247) 0x26-0x27 (1)
0x20|                     04                        |       .        |          length: 4 0x27-0x28 (1)
    |                                               |                |          continuation{}: 0x28-0x2c (4)
0x20|                        01 23 45               |        .#E     |            data: raw bits 0x28-0x2b (3)
0x20|                                 f7|           |           .|   |            end_of_message: 247 0x2b-0x2c (1)
$ fq -d midi dv events/sysex-escape.mid
    |00 01 02 03 04 05 06 07 08 09 0a 0b 0c 0d 0e 0f|0123456789abcdef|.{}: events/sysex-escape.mid (midi) 0x0-0x1b (27)
    |                                               |                |  header{}: 0x0-0xe (14)
0x00|4d 54 68 64                                    |MThd            |    tag: "MThd" 0x0-0x4 (4)
0x00|            00 00 00 06                        |    ....        |    length: 6 0x4-0x8 (4)
0x00|                        00 01                  |        ..      |    format: 1 0x8-0xa (2)
0x00|                              00 01            |          ..    |    tracks: 1 0xa-0xc (2)
    |                                               |                |    division{}: 0xc-0xe (2)
0x00|                                    01 e0      |            ..  |      ppqn: 480 0xc-0xe (2)
    |                                               |                |  content[0:1]: 0xe-0x1b (13)
    |                                               |                |    [0]{}: track 0xe-0x1b (13)
0x00|                                          4d 54|              MT|      tag: "MTrk" 0xe-0x12 (4)
0x10|72 6b                                          |rk              |
0x10|      00 00 00 05                              |  ....          |      length: 5 0x12-0x16 (4)
    |                                               |                |      events[0:1]: 0x16-0x1b (5)
    |                                               |                |        [0]{}: sysex_event 0x16-0x1b (5)
    |                                               |                |          time{}: 0x16-0x17 (1)
0x10|                  00                           |      .         |            delta: 0 0x16-0x17 (1)
    |                                               |                |            tick: 0
0x10|                     f7                        |       .        |          event: "sysex_escape" (247) 0x17-0x18 (1)
0x10|                        02                     |        .       |          length: 2 0x18-0x19 (1)
    |                                               |                |          escape{}: 0x19-0x1b (2)
0x10|                           f3 01|              |         ..|    |            data: raw bits 0x19-0x1b (2)
