$ fq -d midi '.. | select(.event=="track_name")?.track_name' midi/twinkle.mid
    |00 01 02 03 04 05 06 07 08 09 0a 0b 0c 0d 0e 0f|0123456789abcdef|
0x20|                        07 30 35 37 4b 69 72 61|        .057Kira|.content[0].events[2].track_name: "057Kira"
    |00 01 02 03 04 05 06 07 08 09 0a 0b 0c 0d 0e 0f|0123456789abcdef|
0xe0|      0e 41 63 6f 75 73 74 69 63 20 50 69 61 6e|  .Acoustic Pian|.content[1].events[0].track_name: "Acoustic Piano"
0xf0|6f                                             |o               |
     |00 01 02 03 04 05 06 07 08 09 0a 0b 0c 0d 0e 0f|0123456789abcdef|
0x380|                        0e 41 63 6f 75 73 74 69|        .Acousti|.content[2].events[0].track_name: "Acoustic Piano"
0x390|63 20 50 69 61 6e 6f                           |c Piano         |
     |00 01 02 03 04 05 06 07 08 09 0a 0b 0c 0d 0e 0f|0123456789abcdef|
0x3b0|                                 0e 41 63 6f 75|           .Acou|.content[3].events[0].track_name: "Acoustic Piano"
0x3c0|73 74 69 63 20 50 69 61 6e 6f                  |stic Piano      |
     |00 01 02 03 04 05 06 07 08 09 0a 0b 0c 0d 0e 0f|0123456789abcdef|
0x530|                                    0e 41 63 6f|            .Aco|.content[4].events[0].track_name: "Acoustic Piano"
0x540|75 73 74 69 63 20 50 69 61 6e 6f               |ustic Piano     |
     |00 01 02 03 04 05 06 07 08 09 0a 0b 0c 0d 0e 0f|0123456789abcdef|
0x6b0|                                 0d 45 6c 65 63|           .Elec|.content[5].events[0].track_name: "Electric Bass"
0x6c0|74 72 69 63 20 42 61 73 73                     |tric Bass       |
     |00 01 02 03 04 05 06 07 08 09 0a 0b 0c 0d 0e 0f|0123456789abcdef|
0x9e0|         06 56 69 6f 6c 69 6e                  |   .Violin      |.content[6].events[0].track_name: "Violin"
     |00 01 02 03 04 05 06 07 08 09 0a 0b 0c 0d 0e 0f|0123456789abcdef|
0xea0|               06 56 69 6f 6c 69 6e            |     .Violin    |.content[7].events[0].track_name: "Violin"
     |00 01 02 03 04 05 06 07 08 09 0a 0b 0c 0d 0e 0f|0123456789abcdef|
0xf90|0c 53 74 65 65 6c 20 47 75 69 74 61 72         |.Steel Guitar   |.content[8].events[0].track_name: "Steel Guitar"
      |00 01 02 03 04 05 06 07 08 09 0a 0b 0c 0d 0e 0f|0123456789abcdef|
0x16f0|                           07 44 72 75 6d 6b 69|         .Drumki|.content[9].events[0].track_name: "Drumkit"
0x1700|74                                             |t               |
      |00 01 02 03 04 05 06 07 08 09 0a 0b 0c 0d 0e 0f|0123456789abcdef|
0x2070|                                       05 46 6c|             .Fl|.content[10].events[0].track_name: "Flute"
0x2080|75 74 65                                       |ute             |
      |00 01 02 03 04 05 06 07 08 09 0a 0b 0c 0d 0e 0f|0123456789abcdef|
0x2280|         04 4f 62 6f 65                        |   .Oboe        |.content[11].events[0].track_name: "Oboe"
      |00 01 02 03 04 05 06 07 08 09 0a 0b 0c 0d 0e 0f|0123456789abcdef|
0x2440|                              12 53 6f 70 72 61|          .Sopra|.content[12].events[0].track_name: "Soprano Clarinet C"
0x2450|6e 6f 20 43 6c 61 72 69 6e 65 74 20 43         |no Clarinet C   |
      |00 01 02 03 04 05 06 07 08 09 0a 0b 0c 0d 0e 0f|0123456789abcdef|
0x25e0|         0b 46 72 65 6e 63 68 20 48 6f 72 6e   |   .French Horn |.content[13].events[0].track_name: "French Horn"
      |00 01 02 03 04 05 06 07 08 09 0a 0b 0c 0d 0e 0f|0123456789abcdef|
0x2850|      0c 47 6c 6f 63 6b 65 6e 73 70 69 65 6c   |  .Glockenspiel |.content[14].events[0].track_name: "Glockenspiel"
