$ fq -d midi dv midi/unknown-chunks.mid
    |00 01 02 03 04 05 06 07 08 09 0a 0b 0c 0d 0e 0f|0123456789abcdef|.{}: midi/unknown-chunks.mid (midi) 0x0-0x56 (86)
    |                                               |                |  header{}: 0x0-0xe (14)
0x00|4d 54 68 64                                    |MThd            |    tag: "MThd" 0x0-0x4 (4)
0x00|            00 00 00 06                        |    ....        |    length: 6 0x4-0x8 (4)
0x00|                        00 01                  |        ..      |    format: 1 0x8-0xa (2)
0x00|                              00 02            |          ..    |    tracks: 2 0xa-0xc (2)
    |                                               |                |    division{}: 0xc-0xe (2)
0x00|                                    01 e0      |            ..  |      ppqn: 480 0xc-0xe (2)
    |                                               |                |  content[0:5]: 0xe-0x56 (72)
    |                                               |                |    [0]{}: other 0xe-0x1e (16)
0x00|                                          4d 54|              MT|      tag: "MTrx" 0xe-0x12 (4)
0x10|72 78                                          |rx              |
0x10|      00 00 00 08                              |  ....          |      length: 8 0x12-0x16 (4)
0x10|                  01 23 45 67 89 ab cd ef      |      .#Eg....  |      data: raw bits 0x16-0x1e (8)
    |                                               |                |    [1]{}: track 0x1e-0x2a (12)
0x10|                                          4d 54|              MT|      tag: "MTrk" 0x1e-0x22 (4)
0x20|72 6b                                          |rk              |
0x20|      00 00 00 04                              |  ....          |      length: 4 0x22-0x26 (4)
    |                                               |                |      events[0:1]: 0x26-0x2a (4)
    |                                               |                |        [0]{}: meta_event 0x26-0x2a (4)
    |                                               |                |          time{}: 0x26-0x27 (1)
0x20|                  00                           |      .         |            delta: 0 0x26-0x27 (1)
    |                                               |                |            tick: 0
0x20|                     ff                        |       .        |          status: 255 0x27-0x28 (1)
0x20|                        2f                     |        /       |          event: "end_of_track" (47) 0x28-0x29 (1)
0x20|                           00                  |         .      |          length: 0 0x29-0x2a (1)
    |                                               |                |    [2]{}: other 0x2a-0x3a (16)
0x20|                              4d 54 72 78      |          MTrx  |      tag: "MTrx" 0x2a-0x2e (4)
0x20|                                          00 00|              ..|      length: 8 0x2e-0x32 (4)
0x30|00 08                                          |..              |
0x30|      fe dc ba 98 76 54 32 10                  |  ....vT2.      |      data: raw bits 0x32-0x3a (8)
    |                                               |                |    [3]{}: track 0x3a-0x46 (12)
0x30|                              4d 54 72 6b      |          MTrk  |      tag: "MTrk" 0x3a-0x3e (4)
0x30|                                          00 00|              ..|      length: 4 0x3e-0x42 (4)
0x40|00 04                                          |..              |
    |                                               |                |      events[0:1]: 0x42-0x46 (4)
    |                                               |                |        [0]{}: meta_event 0x42-0x46 (4)
    |                                               |                |          time{}: 0x42-0x43 (1)
0x40|      00                                       |  .             |            delta: 0 0x42-0x43 (1)
    |                                               |                |            tick: 0
0x40|         ff                                    |   .            |          status: 255 0x43-0x44 (1)
0x40|            2f                                 |    /           |          event: "end_of_track" (47) 0x44-0x45 (1)
0x40|               00                              |     .          |          length: 0 0x45-0x46 (1)
    |                                               |                |    [4]{}: other 0x46-0x56 (16)
0x40|                  4d 54 72 78                  |      MTrx      |      tag: "MTrx" 0x46-0x4a (4)
0x40|                              00 00 00 08      |          ....  |      length: 8 0x4a-0x4e (4)
0x40|                                          01 23|              .#|      data: raw bits 0x4e-0x56 (8)
0x50|45 67 89 ab cd ef|                             |Eg....|         |
