$ fq -d safetensors dv test.safetensors
     |00 01 02 03 04 05 06 07 08 09 0a 0b 0c 0d 0e 0f|0123456789abcdef|.{}: test.safetensors (safetensors) 0x0-0x1d0 (464)
0x000|08 01 00 00 00 00 00 00                        |........        |  header size: 264 0x0-0x8 (8)
     |00 01 02 03 04 05 06 07 08 09 0a 0b 0c 0d 0e 0f|0123456789abcdef|
0x000|                        7b 22 77 65 69 67 68 74|        {"weight|  header: {} (json) 0x8-0x110 (264)
0x010|32 22 3a 7b 22 64 74 79 70 65 22 3a 22 49 36 34|2":{"dtype":"I64|
*    |until 0x10f.7 (264)                            |                |
     |                                               |                |  tensors{}: 0x110-0x1d0 (192)
     |                                               |                |    weight1{}: 0x110-0x1a0 (144)
     |                                               |                |      shape[0:1]: 0x110-0x110 (0)
     |                                               |                |        [0]: 12 dim
     |                                               |                |      data[0:12]: 0x170-0x1a0 (48)
0x170|00 00 00 00                                    |....            |        [0]: 0 x 0x170-0x174 (4)
0x170|            00 00 80 3f                        |    ...?        |        [1]: 1 x 0x174-0x178 (4)
0x170|                        00 00 00 40            |        ...@    |        [2]: 2 x 0x178-0x17c (4)
0x170|                                    00 00 40 40|            ..@@|        [3]: 3 x 0x17c-0x180 (4)
0x180|00 00 80 40                                    |...@            |        [4]: 4 x 0x180-0x184 (4)
0x180|            00 00 a0 40                        |    ...@        |        [5]: 5 x 0x184-0x188 (4)
0x180|                        00 00 c0 40            |        ...@    |        [6]: 6 x 0x188-0x18c (4)
0x180|                                    00 00 e0 40|            ...@|        [7]: 7 x 0x18c-0x190 (4)
0x190|00 00 00 41                                    |...A            |        [8]: 8 x 0x190-0x194 (4)
0x190|            00 00 10 41                        |    ...A        |        [9]: 9 x 0x194-0x198 (4)
0x190|                        00 00 20 41            |        .. A    |        [10]: 10 x 0x198-0x19c (4)
0x190|                                    00 00 30 41|            ..0A|        [11]: 11 x 0x19c-0x1a0 (4)
     |                                               |                |    weight2{}: 0x110-0x170 (96)
     |                                               |                |      shape[0:2]: 0x110-0x110 (0)
     |                                               |                |        [0]: 3 dim
     |                                               |                |        [1]: 4 dim
     |                                               |                |      data[0:3]: 0x110-0x170 (96)
     |                                               |                |        [0][0:4]: data 0x110-0x130 (32)
0x110|00 00 00 00 00 00 00 00                        |........        |          [0]: 0 x 0x110-0x118 (8)
0x110|                        01 00 00 00 00 00 00 00|        ........|          [1]: 1 x 0x118-0x120 (8)
0x120|02 00 00 00 00 00 00 00                        |........        |          [2]: 2 x 0x120-0x128 (8)
0x120|                        03 00 00 00 00 00 00 00|        ........|          [3]: 3 x 0x128-0x130 (8)
     |                                               |                |        [1][0:4]: data 0x130-0x150 (32)
0x130|04 00 00 00 00 00 00 00                        |........        |          [0]: 4 x 0x130-0x138 (8)
0x130|                        05 00 00 00 00 00 00 00|        ........|          [1]: 5 x 0x138-0x140 (8)
0x140|06 00 00 00 00 00 00 00                        |........        |          [2]: 6 x 0x140-0x148 (8)
0x140|                        07 00 00 00 00 00 00 00|        ........|          [3]: 7 x 0x148-0x150 (8)
     |                                               |                |        [2][0:4]: data 0x150-0x170 (32)
0x150|08 00 00 00 00 00 00 00                        |........        |          [0]: 8 x 0x150-0x158 (8)
0x150|                        09 00 00 00 00 00 00 00|        ........|          [1]: 9 x 0x158-0x160 (8)
0x160|0a 00 00 00 00 00 00 00                        |........        |          [2]: 10 x 0x160-0x168 (8)
0x160|                        0b 00 00 00 00 00 00 00|        ........|          [3]: 11 x 0x168-0x170 (8)
     |                                               |                |    weight3{}: 0x110-0x1d0 (192)
     |                                               |                |      shape[0:3]: 0x110-0x110 (0)
     |                                               |                |        [0]: 2 dim
     |                                               |                |        [1]: 2 dim
     |                                               |                |        [2]: 3 dim
     |                                               |                |      data[0:2]: 0x1b8-0x1d0 (24)
     |                                               |                |        [0][0:2]: data 0x1b8-0x1c4 (12)
     |                                               |                |          [0][0:3]: data 0x1b8-0x1be (6)
0x1b0|                        00 00                  |        ..      |            [0]: 0 x 0x1b8-0x1ba (2)
0x1b0|                              00 3c            |          .<    |            [1]: 1 x 0x1ba-0x1bc (2)
0x1b0|                                    00 40      |            .@  |            [2]: 2 x 0x1bc-0x1be (2)
     |                                               |                |          [1][0:3]: data 0x1be-0x1c4 (6)
0x1b0|                                          00 42|              .B|            [0]: 3 x 0x1be-0x1c0 (2)
0x1c0|00 44                                          |.D              |            [1]: 4 x 0x1c0-0x1c2 (2)
0x1c0|      00 45                                    |  .E            |            [2]: 5 x 0x1c2-0x1c4 (2)
     |                                               |                |        [1][0:2]: data 0x1c4-0x1d0 (12)
     |                                               |                |          [0][0:3]: data 0x1c4-0x1ca (6)
0x1c0|            00 46                              |    .F          |            [0]: 6 x 0x1c4-0x1c6 (2)
0x1c0|                  00 47                        |      .G        |            [1]: 7 x 0x1c6-0x1c8 (2)
0x1c0|                        00 48                  |        .H      |            [2]: 8 x 0x1c8-0x1ca (2)
     |                                               |                |          [1][0:3]: data 0x1ca-0x1d0 (6)
0x1c0|                              80 48            |          .H    |            [0]: 9 x 0x1ca-0x1cc (2)
0x1c0|                                    00 49      |            .I  |            [1]: 10 x 0x1cc-0x1ce (2)
0x1c0|                                          80 49|              .I|            [2]: 11 x 0x1ce-0x1d0 (2)
     |                                               |                |    weight4{}: 0x110-0x1b8 (168)
     |                                               |                |      shape[0:2]: 0x110-0x110 (0)
     |                                               |                |        [0]: 4 dim
     |                                               |                |        [1]: 3 dim
     |                                               |                |      data[0:4]: 0x1a0-0x1b8 (24)
     |                                               |                |        [0][0:3]: data 0x1a0-0x1a6 (6)
0x1a0|00 00                                          |..              |          [0]: 0 x 0x1a0-0x1a2 (2)
0x1a0|      80 3f                                    |  .?            |          [1]: 1 x 0x1a2-0x1a4 (2)
0x1a0|            00 40                              |    .@          |          [2]: 2 x 0x1a4-0x1a6 (2)
     |                                               |                |        [1][0:3]: data 0x1a6-0x1ac (6)
0x1a0|                  40 40                        |      @@        |          [0]: 3 x 0x1a6-0x1a8 (2)
0x1a0|                        80 40                  |        .@      |          [1]: 4 x 0x1a8-0x1aa (2)
0x1a0|                              a0 40            |          .@    |          [2]: 5 x 0x1aa-0x1ac (2)
     |                                               |                |        [2][0:3]: data 0x1ac-0x1b2 (6)
0x1a0|                                    c0 40      |            .@  |          [0]: 6 x 0x1ac-0x1ae (2)
0x1a0|                                          e0 40|              .@|          [1]: 7 x 0x1ae-0x1b0 (2)
0x1b0|00 41                                          |.A              |          [2]: 8 x 0x1b0-0x1b2 (2)
     |                                               |                |        [3][0:3]: data 0x1b2-0x1b8 (6)
0x1b0|      10 41                                    |  .A            |          [0]: 9 x 0x1b2-0x1b4 (2)
0x1b0|            20 41                              |     A          |          [1]: 10 x 0x1b4-0x1b6 (2)
0x1b0|                  30 41                        |      0A        |          [2]: 11 x 0x1b6-0x1b8 (2)
