# gm convert -size 4x4 'xc:#000' 4x4.tiff
$ fq -d tiff dv 4x4.tiff
     |00 01 02 03 04 05 06 07 08 09 0a 0b 0c 0d 0e 0f|0123456789abcdef|.{}: 4x4.tiff (tiff) 0x0-0x108 (264)
0x000|49 49 2a 00                                    |II*.            |  endian: "little-endian" (0x49492a00) 0x0-0x4 (4)
0x000|49 49                                          |II              |  order: "II" (valid) 0x0-0x2 (2)
0x000|      2a 00                                    |  *.            |  integer_42: 42 (valid) 0x2-0x4 (2)
0x000|            0c 00 00 00                        |    ....        |  first_ifd: 12 0x4-0x8 (4)
     |                                               |                |  strips[0:1]: 0x8-0xc (4)
0x000|                        f0 f0 f0 f0            |        ....    |    [0]: raw bits strip 0x8-0xc (4)
     |                                               |                |  ifds[0:1]: 0xc-0x108 (252)
     |                                               |                |    [0]{}: ifd 0xc-0x108 (252)
0x000|                                    0e 00      |            ..  |      number_of_field: 14 0xc-0xe (2)
     |                                               |                |      entries[0:14]: 0xe-0x108 (250)
     |                                               |                |        [0]{}: entry 0xe-0x1a (12)
0x000|                                          00 01|              ..|          tag: "ImageWidth" (0x100) 0xe-0x10 (2)
0x010|03 00                                          |..              |          type: "SHORT" (3) 0x10-0x12 (2)
0x010|      01 00 00 00                              |  ....          |          count: 1 0x12-0x16 (4)
0x010|                  04 00 00 00                  |      ....      |          value_offset: 4 0x16-0x1a (4)
     |                                               |                |          values[0:1]: 0x16-0x18 (2)
0x010|                  04 00                        |      ..        |            [0]: 4 value 0x16-0x18 (2)
     |                                               |                |        [1]{}: entry 0x1a-0x26 (12)
0x010|                              01 01            |          ..    |          tag: "ImageLength" (0x101) 0x1a-0x1c (2)
0x010|                                    03 00      |            ..  |          type: "SHORT" (3) 0x1c-0x1e (2)
0x010|                                          01 00|              ..|          count: 1 0x1e-0x22 (4)
0x020|00 00                                          |..              |
0x020|      04 00 00 00                              |  ....          |          value_offset: 4 0x22-0x26 (4)
     |                                               |                |          values[0:1]: 0x22-0x24 (2)
0x020|      04 00                                    |  ..            |            [0]: 4 value 0x22-0x24 (2)
     |                                               |                |        [2]{}: entry 0x26-0x32 (12)
0x020|                  02 01                        |      ..        |          tag: "BitsPerSample" (0x102) 0x26-0x28 (2)
0x020|                        03 00                  |        ..      |          type: "SHORT" (3) 0x28-0x2a (2)
0x020|                              01 00 00 00      |          ....  |          count: 1 0x2a-0x2e (4)
0x020|                                          01 00|              ..|          value_offset: 1 0x2e-0x32 (4)
0x030|00 00                                          |..              |
     |                                               |                |          values[0:1]: 0x2e-0x30 (2)
0x020|                                          01 00|              ..|            [0]: 1 value 0x2e-0x30 (2)
     |                                               |                |        [3]{}: entry 0x32-0x3e (12)
0x030|      03 01                                    |  ..            |          tag: "Compression" (0x103) 0x32-0x34 (2)
0x030|            03 00                              |    ..          |          type: "SHORT" (3) 0x34-0x36 (2)
0x030|                  01 00 00 00                  |      ....      |          count: 1 0x36-0x3a (4)
0x030|                              01 00 00 00      |          ....  |          value_offset: 1 0x3a-0x3e (4)
     |                                               |                |          values[0:1]: 0x3a-0x3c (2)
0x030|                              01 00            |          ..    |            [0]: 1 value 0x3a-0x3c (2)
     |                                               |                |        [4]{}: entry 0x3e-0x4a (12)
0x030|                                          06 01|              ..|          tag: "PhotometricInterpretation" (0x106) 0x3e-0x40 (2)
0x040|03 00                                          |..              |          type: "SHORT" (3) 0x40-0x42 (2)
0x040|      01 00 00 00                              |  ....          |          count: 1 0x42-0x46 (4)
0x040|                  00 00 00 00                  |      ....      |          value_offset: 0 0x46-0x4a (4)
     |                                               |                |          values[0:1]: 0x46-0x48 (2)
0x040|                  00 00                        |      ..        |            [0]: 0 value 0x46-0x48 (2)
     |                                               |                |        [5]{}: entry 0x4a-0xc3 (121)
0x040|                              0d 01            |          ..    |          tag: "DocumentName" (0x10d) 0x4a-0x4c (2)
0x040|                                    02 00      |            ..  |          type: "ASCII" (2) 0x4c-0x4e (2)
0x040|                                          09 00|              ..|          count: 9 0x4e-0x52 (4)
0x050|00 00                                          |..              |
0x050|      ba 00 00 00                              |  ....          |          value_offset: 186 0x52-0x56 (4)
     |                                               |                |          values[0:1]: 0xba-0xc3 (9)
0x0b0|                              34 78 34 2e 74 69|          4x4.ti|            [0]: "4x4.tiff" value 0xba-0xc3 (9)
0x0c0|66 66 00                                       |ff.             |
     |                                               |                |        [6]{}: entry 0x56-0x62 (12)
0x050|                  11 01                        |      ..        |          tag: "StripOffsets" (0x111) 0x56-0x58 (2)
0x050|                        04 00                  |        ..      |          type: "LONG" (4) 0x58-0x5a (2)
0x050|                              01 00 00 00      |          ....  |          count: 1 0x5a-0x5e (4)
0x050|                                          08 00|              ..|          value_offset: 8 0x5e-0x62 (4)
0x060|00 00                                          |..              |
     |                                               |                |          values[0:1]: 0x5e-0x62 (4)
0x050|                                          08 00|              ..|            [0]: 8 value 0x5e-0x62 (4)
0x060|00 00                                          |..              |
     |                                               |                |        [7]{}: entry 0x62-0x6e (12)
0x060|      15 01                                    |  ..            |          tag: "SamplesPerPixel" (0x115) 0x62-0x64 (2)
0x060|            03 00                              |    ..          |          type: "SHORT" (3) 0x64-0x66 (2)
0x060|                  01 00 00 00                  |      ....      |          count: 1 0x66-0x6a (4)
0x060|                              01 00 00 00      |          ....  |          value_offset: 1 0x6a-0x6e (4)
     |                                               |                |          values[0:1]: 0x6a-0x6c (2)
0x060|                              01 00            |          ..    |            [0]: 1 value 0x6a-0x6c (2)
     |                                               |                |        [8]{}: entry 0x6e-0x7a (12)
0x060|                                          16 01|              ..|          tag: "RowsPerStrip" (0x116) 0x6e-0x70 (2)
0x070|03 00                                          |..              |          type: "SHORT" (3) 0x70-0x72 (2)
0x070|      01 00 00 00                              |  ....          |          count: 1 0x72-0x76 (4)
0x070|                  04 00 00 00                  |      ....      |          value_offset: 4 0x76-0x7a (4)
     |                                               |                |          values[0:1]: 0x76-0x78 (2)
0x070|                  04 00                        |      ..        |            [0]: 4 value 0x76-0x78 (2)
     |                                               |                |        [9]{}: entry 0x7a-0x86 (12)
0x070|                              17 01            |          ..    |          tag: "StripByteCounts" (0x117) 0x7a-0x7c (2)
0x070|                                    04 00      |            ..  |          type: "LONG" (4) 0x7c-0x7e (2)
0x070|                                          01 00|              ..|          count: 1 0x7e-0x82 (4)
0x080|00 00                                          |..              |
0x080|      04 00 00 00                              |  ....          |          value_offset: 4 0x82-0x86 (4)
     |                                               |                |          values[0:1]: 0x82-0x86 (4)
0x080|      04 00 00 00                              |  ....          |            [0]: 4 value 0x82-0x86 (4)
     |                                               |                |        [10]{}: entry 0x86-0x92 (12)
0x080|                  1c 01                        |      ..        |          tag: "PlanarConfiguration" (0x11c) 0x86-0x88 (2)
0x080|                        03 00                  |        ..      |          type: "SHORT" (3) 0x88-0x8a (2)
0x080|                              01 00 00 00      |          ....  |          count: 1 0x8a-0x8e (4)
0x080|                                          01 00|              ..|          value_offset: 1 0x8e-0x92 (4)
0x090|00 00                                          |..              |
     |                                               |                |          values[0:1]: 0x8e-0x90 (2)
0x080|                                          01 00|              ..|            [0]: 1 value 0x8e-0x90 (2)
     |                                               |                |        [11]{}: entry 0x92-0x9e (12)
0x090|      29 01                                    |  ).            |          tag: "PageNumber" (0x129) 0x92-0x94 (2)
0x090|            03 00                              |    ..          |          type: "SHORT" (3) 0x94-0x96 (2)
0x090|                  02 00 00 00                  |      ....      |          count: 2 0x96-0x9a (4)
0x090|                              00 00 01 00      |          ....  |          value_offset: 65536 0x9a-0x9e (4)
     |                                               |                |          values[0:2]: 0x9a-0x9e (4)
0x090|                              00 00            |          ..    |            [0]: 0 value 0x9a-0x9c (2)
0x090|                                    01 00      |            ..  |            [1]: 1 value 0x9c-0x9e (2)
     |                                               |                |        [12]{}: entry 0x9e-0x108 (106)
0x090|                                          31 01|              1.|          tag: "Software" (0x131) 0x9e-0xa0 (2)
0x0a0|02 00                                          |..              |          type: "ASCII" (2) 0xa0-0xa2 (2)
0x0a0|      44 00 00 00                              |  D...          |          count: 68 0xa2-0xa6 (4)
0x0a0|                  c4 00 00 00                  |      ....      |          value_offset: 196 0xa6-0xaa (4)
     |                                               |                |          values[0:1]: 0xc4-0x108 (68)
0x0c0|            47 72 61 70 68 69 63 73 4d 61 67 69|    GraphicsMagi|            [0]: "GraphicsMagick 1.3.35 2020-02-23 Q16 http://www.GraphicsMagick.org/" value 0xc4-0x108 (68)
0x0d0|63 6b 20 31 2e 33 2e 33 35 20 32 30 32 30 2d 30|ck 1.3.35 2020-0|
*    |until 0x107.7 (end) (68)                       |                |
     |                                               |                |        [13]{}: entry 0xaa-0xb6 (12)
0x0a0|                              53 01            |          S.    |          tag: "SampleFormat" (0x153) 0xaa-0xac (2)
0x0a0|                                    03 00      |            ..  |          type: "SHORT" (3) 0xac-0xae (2)
0x0a0|                                          01 00|              ..|          count: 1 0xae-0xb2 (4)
0x0b0|00 00                                          |..              |
0x0b0|      01 00 00 00                              |  ....          |          value_offset: 1 0xb2-0xb6 (4)
     |                                               |                |          values[0:1]: 0xb2-0xb4 (2)
0x0b0|      01 00                                    |  ..            |            [0]: 1 value 0xb2-0xb4 (2)
0x0b0|                  00 00 00 00                  |      ....      |      next_ifd: 0x0 0xb6-0xba (4)
0x0c0|         00                                    |   .            |  gap0: raw bits 0xc3-0xc4 (1)
