$ fq dv a_static
       |00 01 02 03 04 05 06 07 08 09 0a 0b 0c 0d 0e 0f|0123456789abcdef|.{}: a_static (macho_fat) 0x0-0x1c375 (115573)
       |                                               |                |  fat_header{}: 0x0-0x30 (48)
0x00000|ca fe ba be                                    |....            |    magic: 0xcafebabe (valid) 0x0-0x4 (4)
0x00000|            00 00 00 02                        |    ....        |    narchs: 2 0x4-0x8 (4)
       |                                               |                |    archs[0:2]: 0x8-0x30 (40)
       |                                               |                |      [0]{}: arch 0x8-0x1c (20)
0x00000|                        01 00 00 07            |        ....    |        cputype: "x86_64" (0x1000007) 0x8-0xc (4)
0x00000|                                    00 00 00 03|            ....|        cpusubtype: 0x3 0xc-0x10 (4)
0x00010|00 00 40 00                                    |..@.            |        offset: 0x4000 0x10-0x14 (4)
0x00010|            00 00 81 38                        |    ...8        |        size: 33080 0x14-0x18 (4)
0x00010|                        00 00 00 0e            |        ....    |        align: 14 0x18-0x1c (4)
       |                                               |                |      [1]{}: arch 0x1c-0x30 (20)
0x00010|                                    01 00 00 0c|            ....|        cputype: "arm64" (0x100000c) 0x1c-0x20 (4)
0x00020|00 00 00 00                                    |....            |        cpusubtype: 0x0 0x20-0x24 (4)
0x00020|            00 01 00 00                        |    ....        |        offset: 0x10000 0x24-0x28 (4)
0x00020|                        00 00 c3 75            |        ...u    |        size: 50037 0x28-0x2c (4)
0x00020|                                    00 00 00 0e|            ....|        align: 14 0x2c-0x30 (4)
0x00030|00 00 00 00 00 00 00 00 00 00 00 00 00 00 00 00|................|  gap0: raw bits 0x30-0x4000 (16336)
*      |until 0x3fff.7 (16336)                         |                |
       |                                               |                |  files[0:2]: 0x4000-0x1c158 (98648)
       |00 01 02 03 04 05 06 07 08 09 0a 0b 0c 0d 0e 0f|0123456789abcdef|    [0]{}: file (macho) 0x4000-0xc138 (33080)
       |                                               |                |      header{}: 0x4000-0x4020 (32)
       |                                               |                |        arch_bits: 64
0x04000|cf fa ed fe                                    |....            |        magic: "64le" (0xfeedfacf) (64-bit little endian) 0x4000-0x4004 (4)
       |                                               |                |        bits: 64
0x04000|            07 00 00 01                        |    ....        |        cputype: "x86_64" (0x1000007) 0x4004-0x4008 (4)
0x04000|                        03 00 00 00            |        ....    |        cpusubtype: 0x3 0x4008-0x400c (4)
0x04000|                                    02 00 00 00|            ....|        filetype: "execute" (2) 0x400c-0x4010 (4)
0x04010|0f 00 00 00                                    |....            |        ncdms: 15 0x4010-0x4014 (4)
0x04010|            00 05 00 00                        |    ....        |        sizeofncdms: 1280 0x4014-0x4018 (4)
       |                                               |                |        flags{}: 0x4018-0x401c (4)
0x04010|                        85                     |        .       |          twolevel: true 0x4018-0x4018.1 (0.1)
0x04010|                        85                     |        .       |          lazy_init: false 0x4018.1-0x4018.2 (0.1)
0x04010|                        85                     |        .       |          split_segs: false 0x4018.2-0x4018.3 (0.1)
0x04010|                        85                     |        .       |          prebound: false 0x4018.3-0x4018.4 (0.1)
0x04010|                        85                     |        .       |          bindatload: false 0x4018.4-0x4018.5 (0.1)
0x04010|                        85                     |        .       |          dyldlink: true 0x4018.5-0x4018.6 (0.1)
0x04010|                        85                     |        .       |          incrlink: false 0x4018.6-0x4018.7 (0.1)
0x04010|                        85                     |        .       |          noundefs: true 0x4018.7-0x4019 (0.1)
0x04010|                           00                  |         .      |          weak_defines: false 0x4019-0x4019.1 (0.1)
0x04010|                           00                  |         .      |          canonical: false 0x4019.1-0x4019.2 (0.1)
0x04010|                           00                  |         .      |          subsections_via_symbols: false 0x4019.2-0x4019.3 (0.1)
0x04010|                           00                  |         .      |          allmodsbound: false 0x4019.3-0x4019.4 (0.1)
0x04010|                           00                  |         .      |          prebindable: false 0x4019.4-0x4019.5 (0.1)
0x04010|                           00                  |         .      |          nofixprebinding: false 0x4019.5-0x4019.6 (0.1)
0x04010|                           00                  |         .      |          nomultidefs: false 0x4019.6-0x4019.7 (0.1)
0x04010|                           00                  |         .      |          force_flat: false 0x4019.7-0x401a (0.1)
0x04010|                              20               |                |          has_tlv_descriptors: false 0x401a-0x401a.1 (0.1)
0x04010|                              20               |                |          dead_strippable_dylib: false 0x401a.1-0x401a.2 (0.1)
0x04010|                              20               |                |          pie: true 0x401a.2-0x401a.3 (0.1)
0x04010|                              20               |                |          no_reexported_dylibs: false 0x401a.3-0x401a.4 (0.1)
0x04010|                              20               |                |          setuid_safe: false 0x401a.4-0x401a.5 (0.1)
0x04010|                              20               |                |          root_safe: false 0x401a.5-0x401a.6 (0.1)
0x04010|                              20               |                |          allow_stack_execution: false 0x401a.6-0x401a.7 (0.1)
0x04010|                              20               |                |          binds_to_weak: false 0x401a.7-0x401b (0.1)
0x04010|                                 00            |           .    |          reserved: raw bits 0x401b-0x401b.6 (0.6)
0x04010|                                 00            |           .    |          app_extension_safe: false 0x401b.6-0x401b.7 (0.1)
0x04010|                                 00            |           .    |          no_heap_execution: false 0x401b.7-0x401c (0.1)
0x04010|                                    00 00 00 00|            ....|        reserved: raw bits (all zero) 0x401c-0x4020 (4)
       |                                               |                |      load_commands[0:15]: 0x4020-0xc138 (33048)
       |                                               |                |        [0]{}: load_command 0x4020-0x4068 (72)
0x04020|19 00 00 00                                    |....            |          cmd: "segment_64" (0x19) 0x4020-0x4024 (4)
0x04020|            48 00 00 00                        |    H...        |          cmdsize: 72 0x4024-0x4028 (4)
       |                                               |                |          segment_command{}: 0x4028-0x4068 (64)
       |                                               |                |            arch_bits: 64
0x04020|                        5f 5f 50 41 47 45 5a 45|        __PAGEZE|            segname: "__PAGEZERO" 0x4028-0x4038 (16)
0x04030|52 4f 00 00 00 00 00 00                        |RO......        |
0x04030|                        00 00 00 00 00 00 00 00|        ........|            vmaddr: 0x0 0x4038-0x4040 (8)
0x04040|00 00 00 00 01 00 00 00                        |........        |            vmsize: 4294967296 0x4040-0x4048 (8)
0x04040|                        00 00 00 00 00 00 00 00|        ........|            fileoff: 0x0 0x4048-0x4050 (8)
0x04050|00 00 00 00 00 00 00 00                        |........        |            tfilesize: 0 0x4050-0x4058 (8)
0x04050|                        00 00 00 00            |        ....    |            initprot: 0 0x4058-0x405c (4)
0x04050|                                    00 00 00 00|            ....|            maxprot: 0 0x405c-0x4060 (4)
0x04060|00 00 00 00                                    |....            |            nsects: 0 0x4060-0x4064 (4)
       |                                               |                |            flags{}: 0x4064-0x4068 (4)
0x04060|            00                                 |    .           |              reserved0: raw bits 0x4064-0x4064.4 (0.4)
0x04060|            00                                 |    .           |              protected_version_1: false 0x4064.4-0x4064.5 (0.1)
0x04060|            00                                 |    .           |              noreloc: false 0x4064.5-0x4064.6 (0.1)
0x04060|            00                                 |    .           |              fvmlib: false 0x4064.6-0x4064.7 (0.1)
0x04060|            00                                 |    .           |              highvm: false 0x4064.7-0x4065 (0.1)
0x04060|               00 00 00                        |     ...        |              reserved1: raw bits 0x4065-0x4068 (3)
       |                                               |                |          sections[0:0]: 0x4068-0x4068 (0)
       |                                               |                |        [1]{}: load_command 0x4068-0x8000 (16280)
0x04060|                        19 00 00 00            |        ....    |          cmd: "segment_64" (0x19) 0x4068-0x406c (4)
0x04060|                                    d8 01 00 00|            ....|          cmdsize: 472 0x406c-0x4070 (4)
       |                                               |                |          segment_command{}: 0x4070-0x40b0 (64)
       |                                               |                |            arch_bits: 64
0x04070|5f 5f 54 45 58 54 00 00 00 00 00 00 00 00 00 00|__TEXT..........|            segname: "__TEXT" 0x4070-0x4080 (16)
0x04080|00 00 00 00 01 00 00 00                        |........        |            vmaddr: 0x100000000 0x4080-0x4088 (8)
0x04080|                        00 40 00 00 00 00 00 00|        .@......|            vmsize: 16384 0x4088-0x4090 (8)
0x04090|00 00 00 00 00 00 00 00                        |........        |            fileoff: 0x0 0x4090-0x4098 (8)
0x04090|                        00 40 00 00 00 00 00 00|        .@......|            tfilesize: 16384 0x4098-0x40a0 (8)
0x040a0|05 00 00 00                                    |....            |            initprot: 5 0x40a0-0x40a4 (4)
0x040a0|            05 00 00 00                        |    ....        |            maxprot: 5 0x40a4-0x40a8 (4)
0x040a0|                        05 00 00 00            |        ....    |            nsects: 5 0x40a8-0x40ac (4)
       |                                               |                |            flags{}: 0x40ac-0x40b0 (4)
0x040a0|                                    00         |            .   |              reserved0: raw bits 0x40ac-0x40ac.4 (0.4)
0x040a0|                                    00         |            .   |              protected_version_1: false 0x40ac.4-0x40ac.5 (0.1)
0x040a0|                                    00         |            .   |              noreloc: false 0x40ac.5-0x40ac.6 (0.1)
0x040a0|                                    00         |            .   |              fvmlib: false 0x40ac.6-0x40ac.7 (0.1)
0x040a0|                                    00         |            .   |              highvm: false 0x40ac.7-0x40ad (0.1)
0x040a0|                                       00 00 00|             ...|              reserved1: raw bits 0x40ad-0x40b0 (3)
       |                                               |                |          sections[0:5]: 0x40b0-0x8000 (16208)
       |                                               |                |            [0]{}: section 0x40b0-0x7f84 (16084)
0x040b0|5f 5f 74 65 78 74 00 00 00 00 00 00 00 00 00 00|__text..........|              sectname: "__text" 0x40b0-0x40c0 (16)
0x040c0|5f 5f 54 45 58 54 00 00 00 00 00 00 00 00 00 00|__TEXT..........|              segname: "__TEXT" 0x40c0-0x40d0 (16)
0x040d0|30 3f 00 00 01 00 00 00                        |0?......        |              address: 0x100003f30 0x40d0-0x40d8 (8)
0x040d0|                        54 00 00 00 00 00 00 00|        T.......|              size: 84 0x40d8-0x40e0 (8)
0x040e0|30 3f 00 00                                    |0?..            |              offset: 0x3f30 0x40e0-0x40e4 (4)
0x040e0|            04 00 00 00                        |    ....        |              align: 4 0x40e4-0x40e8 (4)
0x040e0|                        00 00 00 00            |        ....    |              reloff: 0 0x40e8-0x40ec (4)
0x040e0|                                    00 00 00 00|            ....|              nreloc: 0 0x40ec-0x40f0 (4)
       |                                               |                |              flags{}: 0x40f0-0x40f4 (4)
0x040f0|00                                             |.               |                type: "regular" (0) 0x40f0-0x40f1 (1)
0x040f0|   04                                          | .              |                reserved2: raw bits 0x40f1-0x40f1.5 (0.5)
0x040f0|   04                                          | .              |                attr_some_instructions: true 0x40f1.5-0x40f1.6 (0.1)
0x040f0|   04                                          | .              |                attr_ext_reloc: false 0x40f1.6-0x40f1.7 (0.1)
0x040f0|   04                                          | .              |                attr_loc_reloc: false 0x40f1.7-0x40f2 (0.1)
0x040f0|      00                                       |  .             |                reserved1: raw bits 0x40f2-0x40f3 (1)
0x040f0|         80                                    |   .            |                attr_pure_instructions: true 0x40f3-0x40f3.1 (0.1)
0x040f0|         80                                    |   .            |                attr_no_toc: false 0x40f3.1-0x40f3.2 (0.1)
0x040f0|         80                                    |   .            |                attr_strip_static_syms: false 0x40f3.2-0x40f3.3 (0.1)
0x040f0|         80                                    |   .            |                attr_no_dead_strip: false 0x40f3.3-0x40f3.4 (0.1)
0x040f0|         80                                    |   .            |                attr_live_support: false 0x40f3.4-0x40f3.5 (0.1)
0x040f0|         80                                    |   .            |                attr_self_modifying_code: false 0x40f3.5-0x40f3.6 (0.1)
0x040f0|         80                                    |   .            |                attr_debug: false 0x40f3.6-0x40f3.7 (0.1)
0x040f0|         80                                    |   .            |                reserved0: raw bits 0x40f3.7-0x40f4 (0.1)
0x040f0|            00 00 00 00                        |    ....        |              reserved1: 0 0x40f4-0x40f8 (4)
0x040f0|                        00 00 00 00            |        ....    |              reserved2: 0 0x40f8-0x40fc (4)
0x040f0|                                    00 00 00 00|            ....|              reserved3: 0 0x40fc-0x4100 (4)
0x07f30|55 48 89 e5 48 8d 3d 6b 00 00 00 b0 00 e8 42 00|UH..H.=k......B.|              data: raw bits 0x7f30-0x7f84 (84)
*      |until 0x7f83.7 (84)                            |                |
       |                                               |                |            [1]{}: section 0x4100-0x7f8a (16010)
0x04100|5f 5f 73 74 75 62 73 00 00 00 00 00 00 00 00 00|__stubs.........|              sectname: "__stubs" 0x4100-0x4110 (16)
0x04110|5f 5f 54 45 58 54 00 00 00 00 00 00 00 00 00 00|__TEXT..........|              segname: "__TEXT" 0x4110-0x4120 (16)
0x04120|84 3f 00 00 01 00 00 00                        |.?......        |              address: 0x100003f84 0x4120-0x4128 (8)
0x04120|                        06 00 00 00 00 00 00 00|        ........|              size: 6 0x4128-0x4130 (8)
0x04130|84 3f 00 00                                    |.?..            |              offset: 0x3f84 0x4130-0x4134 (4)
0x04130|            01 00 00 00                        |    ....        |              align: 1 0x4134-0x4138 (4)
0x04130|                        00 00 00 00            |        ....    |              reloff: 0 0x4138-0x413c (4)
0x04130|                                    00 00 00 00|            ....|              nreloc: 0 0x413c-0x4140 (4)
       |                                               |                |              flags{}: 0x4140-0x4144 (4)
0x04140|08                                             |.               |                type: "symbol_stubs" (8) 0x4140-0x4141 (1)
0x04140|   04                                          | .              |                reserved2: raw bits 0x4141-0x4141.5 (0.5)
0x04140|   04                                          | .              |                attr_some_instructions: true 0x4141.5-0x4141.6 (0.1)
0x04140|   04                                          | .              |                attr_ext_reloc: false 0x4141.6-0x4141.7 (0.1)
0x04140|   04                                          | .              |                attr_loc_reloc: false 0x4141.7-0x4142 (0.1)
0x04140|      00                                       |  .             |                reserved1: raw bits 0x4142-0x4143 (1)
0x04140|         80                                    |   .            |                attr_pure_instructions: true 0x4143-0x4143.1 (0.1)
0x04140|         80                                    |   .            |                attr_no_toc: false 0x4143.1-0x4143.2 (0.1)
0x04140|         80                                    |   .            |                attr_strip_static_syms: false 0x4143.2-0x4143.3 (0.1)
0x04140|         80                                    |   .            |                attr_no_dead_strip: false 0x4143.3-0x4143.4 (0.1)
0x04140|         80                                    |   .            |                attr_live_support: false 0x4143.4-0x4143.5 (0.1)
0x04140|         80                                    |   .            |                attr_self_modifying_code: false 0x4143.5-0x4143.6 (0.1)
0x04140|         80                                    |   .            |                attr_debug: false 0x4143.6-0x4143.7 (0.1)
0x04140|         80                                    |   .            |                reserved0: raw bits 0x4143.7-0x4144 (0.1)
0x04140|            00 00 00 00                        |    ....        |              reserved1: 0 0x4144-0x4148 (4)
0x04140|                        06 00 00 00            |        ....    |              reserved2: 6 0x4148-0x414c (4)
0x04140|                                    00 00 00 00|            ....|              reserved3: 0 0x414c-0x4150 (4)
0x07f80|            ff 25 86 00 00 00                  |    .%....      |              data: raw bits 0x7f84-0x7f8a (6)
       |                                               |                |            [2]{}: section 0x4150-0x7fa6 (15958)
0x04150|5f 5f 73 74 75 62 5f 68 65 6c 70 65 72 00 00 00|__stub_helper...|              sectname: "__stub_helper" 0x4150-0x4160 (16)
0x04160|5f 5f 54 45 58 54 00 00 00 00 00 00 00 00 00 00|__TEXT..........|              segname: "__TEXT" 0x4160-0x4170 (16)
0x04170|8c 3f 00 00 01 00 00 00                        |.?......        |              address: 0x100003f8c 0x4170-0x4178 (8)
0x04170|                        1a 00 00 00 00 00 00 00|        ........|              size: 26 0x4178-0x4180 (8)
0x04180|8c 3f 00 00                                    |.?..            |              offset: 0x3f8c 0x4180-0x4184 (4)
0x04180|            02 00 00 00                        |    ....        |              align: 2 0x4184-0x4188 (4)
0x04180|                        00 00 00 00            |        ....    |              reloff: 0 0x4188-0x418c (4)
0x04180|                                    00 00 00 00|            ....|              nreloc: 0 0x418c-0x4190 (4)
       |                                               |                |              flags{}: 0x4190-0x4194 (4)
0x04190|00                                             |.               |                type: "regular" (0) 0x4190-0x4191 (1)
0x04190|   04                                          | .              |                reserved2: raw bits 0x4191-0x4191.5 (0.5)
0x04190|   04                                          | .              |                attr_some_instructions: true 0x4191.5-0x4191.6 (0.1)
0x04190|   04                                          | .              |                attr_ext_reloc: false 0x4191.6-0x4191.7 (0.1)
0x04190|   04                                          | .              |                attr_loc_reloc: false 0x4191.7-0x4192 (0.1)
0x04190|      00                                       |  .             |                reserved1: raw bits 0x4192-0x4193 (1)
0x04190|         80                                    |   .            |                attr_pure_instructions: true 0x4193-0x4193.1 (0.1)
0x04190|         80                                    |   .            |                attr_no_toc: false 0x4193.1-0x4193.2 (0.1)
0x04190|         80                                    |   .            |                attr_strip_static_syms: false 0x4193.2-0x4193.3 (0.1)
0x04190|         80                                    |   .            |                attr_no_dead_strip: false 0x4193.3-0x4193.4 (0.1)
0x04190|         80                                    |   .            |                attr_live_support: false 0x4193.4-0x4193.5 (0.1)
0x04190|         80                                    |   .            |                attr_self_modifying_code: false 0x4193.5-0x4193.6 (0.1)
0x04190|         80                                    |   .            |                attr_debug: false 0x4193.6-0x4193.7 (0.1)
0x04190|         80                                    |   .            |                reserved0: raw bits 0x4193.7-0x4194 (0.1)
0x04190|            00 00 00 00                        |    ....        |              reserved1: 0 0x4194-0x4198 (4)
0x04190|                        00 00 00 00            |        ....    |              reserved2: 0 0x4198-0x419c (4)
0x04190|                                    00 00 00 00|            ....|              reserved3: 0 0x419c-0x41a0 (4)
0x07f80|                                    4c 8d 1d 6d|            L..m|              data: raw bits 0x7f8c-0x7fa6 (26)
0x07f90|00 00 00 41 53 ff 25 6d 00 00 00 90 68 00 00 00|...AS.%m....h...|
0x07fa0|00 e9 e6 ff ff ff                              |......          |
       |                                               |                |            [3]{}: section 0x41a0-0x7fb7 (15895)
0x041a0|5f 5f 63 73 74 72 69 6e 67 00 00 00 00 00 00 00|__cstring.......|              sectname: "__cstring" 0x41a0-0x41b0 (16)
0x041b0|5f 5f 54 45 58 54 00 00 00 00 00 00 00 00 00 00|__TEXT..........|              segname: "__TEXT" 0x41b0-0x41c0 (16)
0x041c0|a6 3f 00 00 01 00 00 00                        |.?......        |              address: 0x100003fa6 0x41c0-0x41c8 (8)
0x041c0|                        11 00 00 00 00 00 00 00|        ........|              size: 17 0x41c8-0x41d0 (8)
0x041d0|a6 3f 00 00                                    |.?..            |              offset: 0x3fa6 0x41d0-0x41d4 (4)
0x041d0|            00 00 00 00                        |    ....        |              align: 0 0x41d4-0x41d8 (4)
0x041d0|                        00 00 00 00            |        ....    |              reloff: 0 0x41d8-0x41dc (4)
0x041d0|                                    00 00 00 00|            ....|              nreloc: 0 0x41dc-0x41e0 (4)
       |                                               |                |              flags{}: 0x41e0-0x41e4 (4)
0x041e0|02                                             |.               |                type: "cstring_literals" (2) 0x41e0-0x41e1 (1)
0x041e0|   00                                          | .              |                reserved2: raw bits 0x41e1-0x41e1.5 (0.5)
0x041e0|   00                                          | .              |                attr_some_instructions: false 0x41e1.5-0x41e1.6 (0.1)
0x041e0|   00                                          | .              |                attr_ext_reloc: false 0x41e1.6-0x41e1.7 (0.1)
0x041e0|   00                                          | .              |                attr_loc_reloc: false 0x41e1.7-0x41e2 (0.1)
0x041e0|      00                                       |  .             |                reserved1: raw bits 0x41e2-0x41e3 (1)
0x041e0|         00                                    |   .            |                attr_pure_instructions: false 0x41e3-0x41e3.1 (0.1)
0x041e0|         00                                    |   .            |                attr_no_toc: false 0x41e3.1-0x41e3.2 (0.1)
0x041e0|         00                                    |   .            |                attr_strip_static_syms: false 0x41e3.2-0x41e3.3 (0.1)
0x041e0|         00                                    |   .            |                attr_no_dead_strip: false 0x41e3.3-0x41e3.4 (0.1)
0x041e0|         00                                    |   .            |                attr_live_support: false 0x41e3.4-0x41e3.5 (0.1)
0x041e0|         00                                    |   .            |                attr_self_modifying_code: false 0x41e3.5-0x41e3.6 (0.1)
0x041e0|         00                                    |   .            |                attr_debug: false 0x41e3.6-0x41e3.7 (0.1)
0x041e0|         00                                    |   .            |                reserved0: raw bits 0x41e3.7-0x41e4 (0.1)
0x041e0|            00 00 00 00                        |    ....        |              reserved1: 0 0x41e4-0x41e8 (4)
0x041e0|                        00 00 00 00            |        ....    |              reserved2: 0 0x41e8-0x41ec (4)
0x041e0|                                    00 00 00 00|            ....|              reserved3: 0 0x41ec-0x41f0 (4)
       |                                               |                |              cstrings[0:2]: 0x7fa6-0x7fb7 (17)
0x07fa0|                  61 61 61 0a 00               |      aaa..     |                [0]: "aaa\n" cstring 0x7fa6-0x7fab (5)
0x07fa0|                                 6c 69 62 62 62|           libbb|                [1]: "libbbb_bbb\n" cstring 0x7fab-0x7fb7 (12)
0x07fb0|62 5f 62 62 62 0a 00                           |b_bbb..         |
       |                                               |                |            [4]{}: section 0x41f0-0x8000 (15888)
0x041f0|5f 5f 75 6e 77 69 6e 64 5f 69 6e 66 6f 00 00 00|__unwind_info...|              sectname: "__unwind_info" 0x41f0-0x4200 (16)
0x04200|5f 5f 54 45 58 54 00 00 00 00 00 00 00 00 00 00|__TEXT..........|              segname: "__TEXT" 0x4200-0x4210 (16)
0x04210|b8 3f 00 00 01 00 00 00                        |.?......        |              address: 0x100003fb8 0x4210-0x4218 (8)
0x04210|                        48 00 00 00 00 00 00 00|        H.......|              size: 72 0x4218-0x4220 (8)
0x04220|b8 3f 00 00                                    |.?..            |              offset: 0x3fb8 0x4220-0x4224 (4)
0x04220|            02 00 00 00                        |    ....        |              align: 2 0x4224-0x4228 (4)
0x04220|                        00 00 00 00            |        ....    |              reloff: 0 0x4228-0x422c (4)
0x04220|                                    00 00 00 00|            ....|              nreloc: 0 0x422c-0x4230 (4)
       |                                               |                |              flags{}: 0x4230-0x4234 (4)
0x04230|00                                             |.               |                type: "regular" (0) 0x4230-0x4231 (1)
0x04230|   00                                          | .              |                reserved2: raw bits 0x4231-0x4231.5 (0.5)
0x04230|   00                                          | .              |                attr_some_instructions: false 0x4231.5-0x4231.6 (0.1)
0x04230|   00                                          | .              |                attr_ext_reloc: false 0x4231.6-0x4231.7 (0.1)
0x04230|   00                                          | .              |                attr_loc_reloc: false 0x4231.7-0x4232 (0.1)
0x04230|      00                                       |  .             |                reserved1: raw bits 0x4232-0x4233 (1)
0x04230|         00                                    |   .            |                attr_pure_instructions: false 0x4233-0x4233.1 (0.1)
0x04230|         00                                    |   .            |                attr_no_toc: false 0x4233.1-0x4233.2 (0.1)
0x04230|         00                                    |   .            |                attr_strip_static_syms: false 0x4233.2-0x4233.3 (0.1)
0x04230|         00                                    |   .            |                attr_no_dead_strip: false 0x4233.3-0x4233.4 (0.1)
0x04230|         00                                    |   .            |                attr_live_support: false 0x4233.4-0x4233.5 (0.1)
0x04230|         00                                    |   .            |                attr_self_modifying_code: false 0x4233.5-0x4233.6 (0.1)
0x04230|         00                                    |   .            |                attr_debug: false 0x4233.6-0x4233.7 (0.1)
0x04230|         00                                    |   .            |                reserved0: raw bits 0x4233.7-0x4234 (0.1)
0x04230|            00 00 00 00                        |    ....        |              reserved1: 0 0x4234-0x4238 (4)
0x04230|                        00 00 00 00            |        ....    |              reserved2: 0 0x4238-0x423c (4)
0x04230|                                    00 00 00 00|            ....|              reserved3: 0 0x423c-0x4240 (4)
0x07fb0|                        01 00 00 00 1c 00 00 00|        ........|              data: raw bits 0x7fb8-0x8000 (72)
0x07fc0|00 00 00 00 1c 00 00 00 00 00 00 00 1c 00 00 00|................|
*      |until 0x7fff.7 (72)                            |                |
       |                                               |                |        [2]{}: load_command 0x4240-0x8018 (15832)
0x04240|19 00 00 00                                    |....            |          cmd: "segment_64" (0x19) 0x4240-0x4244 (4)
0x04240|            38 01 00 00                        |    8...        |          cmdsize: 312 0x4244-0x4248 (4)
       |                                               |                |          segment_command{}: 0x4248-0x4288 (64)
       |                                               |                |            arch_bits: 64
0x04240|                        5f 5f 44 41 54 41 00 00|        __DATA..|            segname: "__DATA" 0x4248-0x4258 (16)
0x04250|00 00 00 00 00 00 00 00                        |........        |
0x04250|                        00 40 00 00 01 00 00 00|        .@......|            vmaddr: 0x100004000 0x4258-0x4260 (8)
0x04260|00 40 00 00 00 00 00 00                        |.@......        |            vmsize: 16384 0x4260-0x4268 (8)
0x04260|                        00 40 00 00 00 00 00 00|        .@......|            fileoff: 0x4000 0x4268-0x4270 (8)
0x04270|00 40 00 00 00 00 00 00                        |.@......        |            tfilesize: 16384 0x4270-0x4278 (8)
0x04270|                        03 00 00 00            |        ....    |            initprot: 3 0x4278-0x427c (4)
0x04270|                                    03 00 00 00|            ....|            maxprot: 3 0x427c-0x4280 (4)
0x04280|03 00 00 00                                    |....            |            nsects: 3 0x4280-0x4284 (4)
       |                                               |                |            flags{}: 0x4284-0x4288 (4)
0x04280|            00                                 |    .           |              reserved0: raw bits 0x4284-0x4284.4 (0.4)
0x04280|            00                                 |    .           |              protected_version_1: false 0x4284.4-0x4284.5 (0.1)
0x04280|            00                                 |    .           |              noreloc: false 0x4284.5-0x4284.6 (0.1)
0x04280|            00                                 |    .           |              fvmlib: false 0x4284.6-0x4284.7 (0.1)
0x04280|            00                                 |    .           |              highvm: false 0x4284.7-0x4285 (0.1)
0x04280|               00 00 00                        |     ...        |              reserved1: raw bits 0x4285-0x4288 (3)
       |                                               |                |          sections[0:3]: 0x4288-0x8018 (15760)
       |                                               |                |            [0]{}: section 0x4288-0x8008 (15744)
0x04280|                        5f 5f 6e 6c 5f 73 79 6d|        __nl_sym|              sectname: "__nl_symbol_ptr" 0x4288-0x4298 (16)
0x04290|62 6f 6c 5f 70 74 72 00                        |bol_ptr.        |
0x04290|                        5f 5f 44 41 54 41 00 00|        __DATA..|              segname: "__DATA" 0x4298-0x42a8 (16)
0x042a0|00 00 00 00 00 00 00 00                        |........        |
0x042a0|                        00 40 00 00 01 00 00 00|        .@......|              address: 0x100004000 0x42a8-0x42b0 (8)
0x042b0|08 00 00 00 00 00 00 00                        |........        |              size: 8 0x42b0-0x42b8 (8)
0x042b0|                        00 40 00 00            |        .@..    |              offset: 0x4000 0x42b8-0x42bc (4)
0x042b0|                                    03 00 00 00|            ....|              align: 3 0x42bc-0x42c0 (4)
0x042c0|00 00 00 00                                    |....            |              reloff: 0 0x42c0-0x42c4 (4)
0x042c0|            00 00 00 00                        |    ....        |              nreloc: 0 0x42c4-0x42c8 (4)
       |                                               |                |              flags{}: 0x42c8-0x42cc (4)
0x042c0|                        06                     |        .       |                type: "non_lazy_symbol_pointers" (6) 0x42c8-0x42c9 (1)
0x042c0|                           00                  |         .      |                reserved2: raw bits 0x42c9-0x42c9.5 (0.5)
0x042c0|                           00                  |         .      |                attr_some_instructions: false 0x42c9.5-0x42c9.6 (0.1)
0x042c0|                           00                  |         .      |                attr_ext_reloc: false 0x42c9.6-0x42c9.7 (0.1)
0x042c0|                           00                  |         .      |                attr_loc_reloc: false 0x42c9.7-0x42ca (0.1)
0x042c0|                              00               |          .     |                reserved1: raw bits 0x42ca-0x42cb (1)
0x042c0|                                 00            |           .    |                attr_pure_instructions: false 0x42cb-0x42cb.1 (0.1)
0x042c0|                                 00            |           .    |                attr_no_toc: false 0x42cb.1-0x42cb.2 (0.1)
0x042c0|                                 00            |           .    |                attr_strip_static_syms: false 0x42cb.2-0x42cb.3 (0.1)
0x042c0|                                 00            |           .    |                attr_no_dead_strip: false 0x42cb.3-0x42cb.4 (0.1)
0x042c0|                                 00            |           .    |                attr_live_support: false 0x42cb.4-0x42cb.5 (0.1)
0x042c0|                                 00            |           .    |                attr_self_modifying_code: false 0x42cb.5-0x42cb.6 (0.1)
0x042c0|                                 00            |           .    |                attr_debug: false 0x42cb.6-0x42cb.7 (0.1)
0x042c0|                                 00            |           .    |                reserved0: raw bits 0x42cb.7-0x42cc (0.1)
0x042c0|                                    01 00 00 00|            ....|              reserved1: 1 0x42cc-0x42d0 (4)
0x042d0|00 00 00 00                                    |....            |              reserved2: 0 0x42d0-0x42d4 (4)
0x042d0|            00 00 00 00                        |    ....        |              reserved3: 0 0x42d4-0x42d8 (4)
0x08000|00 00 00 00 00 00 00 00                        |........        |              data: raw bits 0x8000-0x8008 (8)
       |                                               |                |            [1]{}: section 0x42d8-0x8010 (15672)
0x042d0|                        5f 5f 67 6f 74 00 00 00|        __got...|              sectname: "__got" 0x42d8-0x42e8 (16)
0x042e0|00 00 00 00 00 00 00 00                        |........        |
0x042e0|                        5f 5f 44 41 54 41 00 00|        __DATA..|              segname: "__DATA" 0x42e8-0x42f8 (16)
0x042f0|00 00 00 00 00 00 00 00                        |........        |
0x042f0|                        08 40 00 00 01 00 00 00|        .@......|              address: 0x100004008 0x42f8-0x4300 (8)
0x04300|08 00 00 00 00 00 00 00                        |........        |              size: 8 0x4300-0x4308 (8)
0x04300|                        08 40 00 00            |        .@..    |              offset: 0x4008 0x4308-0x430c (4)
0x04300|                                    03 00 00 00|            ....|              align: 3 0x430c-0x4310 (4)
0x04310|00 00 00 00                                    |....            |              reloff: 0 0x4310-0x4314 (4)
0x04310|            00 00 00 00                        |    ....        |              nreloc: 0 0x4314-0x4318 (4)
       |                                               |                |              flags{}: 0x4318-0x431c (4)
0x04310|                        06                     |        .       |                type: "non_lazy_symbol_pointers" (6) 0x4318-0x4319 (1)
0x04310|                           00                  |         .      |                reserved2: raw bits 0x4319-0x4319.5 (0.5)
0x04310|                           00                  |         .      |                attr_some_instructions: false 0x4319.5-0x4319.6 (0.1)
0x04310|                           00                  |         .      |                attr_ext_reloc: false 0x4319.6-0x4319.7 (0.1)
0x04310|                           00                  |         .      |                attr_loc_reloc: false 0x4319.7-0x431a (0.1)
0x04310|                              00               |          .     |                reserved1: raw bits 0x431a-0x431b (1)
0x04310|                                 00            |           .    |                attr_pure_instructions: false 0x431b-0x431b.1 (0.1)
0x04310|                                 00            |           .    |                attr_no_toc: false 0x431b.1-0x431b.2 (0.1)
0x04310|                                 00            |           .    |                attr_strip_static_syms: false 0x431b.2-0x431b.3 (0.1)
0x04310|                                 00            |           .    |                attr_no_dead_strip: false 0x431b.3-0x431b.4 (0.1)
0x04310|                                 00            |           .    |                attr_live_support: false 0x431b.4-0x431b.5 (0.1)
0x04310|                                 00            |           .    |                attr_self_modifying_code: false 0x431b.5-0x431b.6 (0.1)
0x04310|                                 00            |           .    |                attr_debug: false 0x431b.6-0x431b.7 (0.1)
0x04310|                                 00            |           .    |                reserved0: raw bits 0x431b.7-0x431c (0.1)
0x04310|                                    02 00 00 00|            ....|              reserved1: 2 0x431c-0x4320 (4)
0x04320|00 00 00 00                                    |....            |              reserved2: 0 0x4320-0x4324 (4)
0x04320|            00 00 00 00                        |    ....        |              reserved3: 0 0x4324-0x4328 (4)
0x08000|                        00 00 00 00 00 00 00 00|        ........|              data: raw bits 0x8008-0x8010 (8)
       |                                               |                |            [2]{}: section 0x4328-0x8018 (15600)
0x04320|                        5f 5f 6c 61 5f 73 79 6d|        __la_sym|              sectname: "__la_symbol_ptr" 0x4328-0x4338 (16)
0x04330|62 6f 6c 5f 70 74 72 00                        |bol_ptr.        |
0x04330|                        5f 5f 44 41 54 41 00 00|        __DATA..|              segname: "__DATA" 0x4338-0x4348 (16)
0x04340|00 00 00 00 00 00 00 00                        |........        |
0x04340|                        10 40 00 00 01 00 00 00|        .@......|              address: 0x100004010 0x4348-0x4350 (8)
0x04350|08 00 00 00 00 00 00 00                        |........        |              size: 8 0x4350-0x4358 (8)
0x04350|                        10 40 00 00            |        .@..    |              offset: 0x4010 0x4358-0x435c (4)
0x04350|                                    03 00 00 00|            ....|              align: 3 0x435c-0x4360 (4)
0x04360|00 00 00 00                                    |....            |              reloff: 0 0x4360-0x4364 (4)
0x04360|            00 00 00 00                        |    ....        |              nreloc: 0 0x4364-0x4368 (4)
       |                                               |                |              flags{}: 0x4368-0x436c (4)
0x04360|                        07                     |        .       |                type: "lazy_symbol_pointers" (7) 0x4368-0x4369 (1)
0x04360|                           00                  |         .      |                reserved2: raw bits 0x4369-0x4369.5 (0.5)
0x04360|                           00                  |         .      |                attr_some_instructions: false 0x4369.5-0x4369.6 (0.1)
0x04360|                           00                  |         .      |                attr_ext_reloc: false 0x4369.6-0x4369.7 (0.1)
0x04360|                           00                  |         .      |                attr_loc_reloc: false 0x4369.7-0x436a (0.1)
0x04360|                              00               |          .     |                reserved1: raw bits 0x436a-0x436b (1)
0x04360|                                 00            |           .    |                attr_pure_instructions: false 0x436b-0x436b.1 (0.1)
0x04360|                                 00            |           .    |                attr_no_toc: false 0x436b.1-0x436b.2 (0.1)
0x04360|                                 00            |           .    |                attr_strip_static_syms: false 0x436b.2-0x436b.3 (0.1)
0x04360|                                 00            |           .    |                attr_no_dead_strip: false 0x436b.3-0x436b.4 (0.1)
0x04360|                                 00            |           .    |                attr_live_support: false 0x436b.4-0x436b.5 (0.1)
0x04360|                                 00            |           .    |                attr_self_modifying_code: false 0x436b.5-0x436b.6 (0.1)
0x04360|                                 00            |           .    |                attr_debug: false 0x436b.6-0x436b.7 (0.1)
0x04360|                                 00            |           .    |                reserved0: raw bits 0x436b.7-0x436c (0.1)
0x04360|                                    03 00 00 00|            ....|              reserved1: 3 0x436c-0x4370 (4)
0x04370|00 00 00 00                                    |....            |              reserved2: 0 0x4370-0x4374 (4)
0x04370|            00 00 00 00                        |    ....        |              reserved3: 0 0x4374-0x4378 (4)
0x08010|9c 3f 00 00 01 00 00 00                        |.?......        |              data: raw bits 0x8010-0x8018 (8)
       |                                               |                |        [3]{}: load_command 0x4378-0x43c0 (72)
0x04370|                        19 00 00 00            |        ....    |          cmd: "segment_64" (0x19) 0x4378-0x437c (4)
0x04370|                                    48 00 00 00|            H...|          cmdsize: 72 0x437c-0x4380 (4)
       |                                               |                |          segment_command{}: 0x4380-0x43c0 (64)
       |                                               |                |            arch_bits: 64
0x04380|5f 5f 4c 49 4e 4b 45 44 49 54 00 00 00 00 00 00|__LINKEDIT......|            segname: "__LINKEDIT" 0x4380-0x4390 (16)
0x04390|00 80 00 00 01 00 00 00                        |........        |            vmaddr: 0x100008000 0x4390-0x4398 (8)
0x04390|                        00 40 00 00 00 00 00 00|        .@......|            vmsize: 16384 0x4398-0x43a0 (8)
0x043a0|00 80 00 00 00 00 00 00                        |........        |            fileoff: 0x8000 0x43a0-0x43a8 (8)
0x043a0|                        38 01 00 00 00 00 00 00|        8.......|            tfilesize: 312 0x43a8-0x43b0 (8)
0x043b0|01 00 00 00                                    |....            |            initprot: 1 0x43b0-0x43b4 (4)
0x043b0|            01 00 00 00                        |    ....        |            maxprot: 1 0x43b4-0x43b8 (4)
0x043b0|                        00 00 00 00            |        ....    |            nsects: 0 0x43b8-0x43bc (4)
       |                                               |                |            flags{}: 0x43bc-0x43c0 (4)
0x043b0|                                    00         |            .   |              reserved0: raw bits 0x43bc-0x43bc.4 (0.4)
0x043b0|                                    00         |            .   |              protected_version_1: false 0x43bc.4-0x43bc.5 (0.1)
0x043b0|                                    00         |            .   |              noreloc: false 0x43bc.5-0x43bc.6 (0.1)
0x043b0|                                    00         |            .   |              fvmlib: false 0x43bc.6-0x43bc.7 (0.1)
0x043b0|                                    00         |            .   |              highvm: false 0x43bc.7-0x43bd (0.1)
0x043b0|                                       00 00 00|             ...|              reserved1: raw bits 0x43bd-0x43c0 (3)
       |                                               |                |          sections[0:0]: 0x43c0-0x43c0 (0)
       |                                               |                |        [4]{}: load_command 0x43c0-0x43f0 (48)
0x043c0|22 00 00 80                                    |"...            |          cmd: "dyld_info_only" (0x80000022) 0x43c0-0x43c4 (4)
0x043c0|            30 00 00 00                        |    0...        |          cmdsize: 48 0x43c4-0x43c8 (4)
       |                                               |                |          dyld_info{}: 0x43c8-0x43f0 (40)
0x043c0|                        00 80 00 00            |        ....    |            rebase_off: 0x8000 0x43c8-0x43cc (4)
0x043c0|                                    08 00 00 00|            ....|            rebase_size: 8 0x43cc-0x43d0 (4)
0x043d0|08 80 00 00                                    |....            |            bind_off: 0x8008 0x43d0-0x43d4 (4)
0x043d0|            18 00 00 00                        |    ....        |            bind_size: 24 0x43d4-0x43d8 (4)
0x043d0|                        00 00 00 00            |        ....    |            weak_bind_off: 0x0 0x43d8-0x43dc (4)
0x043d0|                                    00 00 00 00|            ....|            weak_bind_size: 0 0x43dc-0x43e0 (4)
0x043e0|20 80 00 00                                    | ...            |            lazy_bind_off: 0x8020 0x43e0-0x43e4 (4)
0x043e0|            10 00 00 00                        |    ....        |            lazy_bind_size: 16 0x43e4-0x43e8 (4)
0x043e0|                        30 80 00 00            |        0...    |            export_off: 0x8030 0x43e8-0x43ec (4)
0x043e0|                                    48 00 00 00|            H...|            export_size: 72 0x43ec-0x43f0 (4)
       |                                               |                |        [5]{}: load_command 0x43f0-0xc138 (32072)
0x043f0|02 00 00 00                                    |....            |          cmd: "symtab" (0x2) 0x43f0-0x43f4 (4)
0x043f0|            18 00 00 00                        |    ....        |          cmdsize: 24 0x43f4-0x43f8 (4)
0x043f0|                        80 80 00 00            |        ....    |          symoff: 32896 0x43f8-0x43fc (4)
0x043f0|                                    06 00 00 00|            ....|          nsyms: 6 0x43fc-0x4400 (4)
0x04400|f0 80 00 00                                    |....            |          stroff: 33008 0x4400-0x4404 (4)
0x04400|            48 00 00 00                        |    H...        |          strsize: 72 0x4404-0x4408 (4)
       |                                               |                |          symbols[0:6]: 0xc080-0xc0e0 (96)
       |                                               |                |            [0]{}: symbol 0xc080-0xc090 (16)
0x0c080|02 00 00 00                                    |....            |              strx: "__mh_execute_header" (2) 0xc080-0xc084 (4)
       |                                               |                |              type{}: 0xc084-0xc085 (1)
0x0c080|            0f                                 |    .           |                stab: 0 0xc084-0xc084.3 (0.3)
0x0c080|            0f                                 |    .           |                pext: 0 0xc084.3-0xc084.4 (0.1)
0x0c080|            0f                                 |    .           |                type: "sect" (7) 0xc084.4-0xc084.7 (0.3)
0x0c080|            0f                                 |    .           |                ext: 1 0xc084.7-0xc085 (0.1)
0x0c080|               01                              |     .          |              sect: 1 0xc085-0xc086 (1)
0x0c080|                  10 00                        |      ..        |              desc: 16 0xc086-0xc088 (2)
0x0c080|                        00 00 00 00 01 00 00 00|        ........|              value: 0x100000000 0xc088-0xc090 (8)
       |                                               |                |            [1]{}: symbol 0xc090-0xc0a0 (16)
0x0c090|16 00 00 00                                    |....            |              strx: "_aaa" (22) 0xc090-0xc094 (4)
       |                                               |                |              type{}: 0xc094-0xc095 (1)
0x0c090|            0f                                 |    .           |                stab: 0 0xc094-0xc094.3 (0.3)
0x0c090|            0f                                 |    .           |                pext: 0 0xc094.3-0xc094.4 (0.1)
0x0c090|            0f                                 |    .           |                type: "sect" (7) 0xc094.4-0xc094.7 (0.3)
0x0c090|            0f                                 |    .           |                ext: 1 0xc094.7-0xc095 (0.1)
0x0c090|               01                              |     .          |              sect: 1 0xc095-0xc096 (1)
0x0c090|                  00 00                        |      ..        |              desc: 0 0xc096-0xc098 (2)
0x0c090|                        30 3f 00 00 01 00 00 00|        0?......|              value: 0x100003f30 0xc098-0xc0a0 (8)
       |                                               |                |            [2]{}: symbol 0xc0a0-0xc0b0 (16)
0x0c0a0|1b 00 00 00                                    |....            |              strx: "_libbbb_bbb" (27) 0xc0a0-0xc0a4 (4)
       |                                               |                |              type{}: 0xc0a4-0xc0a5 (1)
0x0c0a0|            0f                                 |    .           |                stab: 0 0xc0a4-0xc0a4.3 (0.3)
0x0c0a0|            0f                                 |    .           |                pext: 0 0xc0a4.3-0xc0a4.4 (0.1)
0x0c0a0|            0f                                 |    .           |                type: "sect" (7) 0xc0a4.4-0xc0a4.7 (0.3)
0x0c0a0|            0f                                 |    .           |                ext: 1 0xc0a4.7-0xc0a5 (0.1)
0x0c0a0|               01                              |     .          |              sect: 1 0xc0a5-0xc0a6 (1)
0x0c0a0|                  00 00                        |      ..        |              desc: 0 0xc0a6-0xc0a8 (2)
0x0c0a0|                        70 3f 00 00 01 00 00 00|        p?......|              value: 0x100003f70 0xc0a8-0xc0b0 (8)
       |                                               |                |            [3]{}: symbol 0xc0b0-0xc0c0 (16)
0x0c0b0|27 00 00 00                                    |'...            |              strx: "_main" (39) 0xc0b0-0xc0b4 (4)
       |                                               |                |              type{}: 0xc0b4-0xc0b5 (1)
0x0c0b0|            0f                                 |    .           |                stab: 0 0xc0b4-0xc0b4.3 (0.3)
0x0c0b0|            0f                                 |    .           |                pext: 0 0xc0b4.3-0xc0b4.4 (0.1)
0x0c0b0|            0f                                 |    .           |                type: "sect" (7) 0xc0b4.4-0xc0b4.7 (0.3)
0x0c0b0|            0f                                 |    .           |                ext: 1 0xc0b4.7-0xc0b5 (0.1)
0x0c0b0|               01                              |     .          |              sect: 1 0xc0b5-0xc0b6 (1)
0x0c0b0|                  00 00                        |      ..        |              desc: 0 0xc0b6-0xc0b8 (2)
0x0c0b0|                        50 3f 00 00 01 00 00 00|        P?......|              value: 0x100003f50 0xc0b8-0xc0c0 (8)
       |                                               |                |            [4]{}: symbol 0xc0c0-0xc0d0 (16)
0x0c0c0|2d 00 00 00                                    |-...            |              strx: "_printf" (45) 0xc0c0-0xc0c4 (4)
       |                                               |                |              type{}: 0xc0c4-0xc0c5 (1)
0x0c0c0|            01                                 |    .           |                stab: 0 0xc0c4-0xc0c4.3 (0.3)
0x0c0c0|            01                                 |    .           |                pext: 0 0xc0c4.3-0xc0c4.4 (0.1)
0x0c0c0|            01                                 |    .           |                type: "undef" (0) 0xc0c4.4-0xc0c4.7 (0.3)
0x0c0c0|            01                                 |    .           |                ext: 1 0xc0c4.7-0xc0c5 (0.1)
0x0c0c0|               00                              |     .          |              sect: 0 0xc0c5-0xc0c6 (1)
0x0c0c0|                  00 01                        |      ..        |              desc: 256 0xc0c6-0xc0c8 (2)
0x0c0c0|                        00 00 00 00 00 00 00 00|        ........|              value: 0x0 0xc0c8-0xc0d0 (8)
       |                                               |                |            [5]{}: symbol 0xc0d0-0xc0e0 (16)
0x0c0d0|35 00 00 00                                    |5...            |              strx: "dyld_stub_binder" (53) 0xc0d0-0xc0d4 (4)
       |                                               |                |              type{}: 0xc0d4-0xc0d5 (1)
0x0c0d0|            01                                 |    .           |                stab: 0 0xc0d4-0xc0d4.3 (0.3)
0x0c0d0|            01                                 |    .           |                pext: 0 0xc0d4.3-0xc0d4.4 (0.1)
0x0c0d0|            01                                 |    .           |                type: "undef" (0) 0xc0d4.4-0xc0d4.7 (0.3)
0x0c0d0|            01                                 |    .           |                ext: 1 0xc0d4.7-0xc0d5 (0.1)
0x0c0d0|               00                              |     .          |              sect: 0 0xc0d5-0xc0d6 (1)
0x0c0d0|                  00 01                        |      ..        |              desc: 256 0xc0d6-0xc0d8 (2)
0x0c0d0|                        00 00 00 00 00 00 00 00|        ........|              value: 0x0 0xc0d8-0xc0e0 (8)
0x0c0f0|20 00 5f 5f 6d 68 5f 65 78 65 63 75 74 65 5f 68| .__mh_execute_h|          str_table: raw bits 0xc0f0-0xc138 (72)
*      |until 0xc137.7 (72)                            |                |
       |                                               |                |        [6]{}: load_command 0x4408-0x4458 (80)
0x04400|                        0b 00 00 00            |        ....    |          cmd: "dysymtab" (0xb) 0x4408-0x440c (4)
0x04400|                                    50 00 00 00|            P...|          cmdsize: 80 0x440c-0x4410 (4)
0x04410|00 00 00 00                                    |....            |          ilocalsym: 0 0x4410-0x4414 (4)
0x04410|            00 00 00 00                        |    ....        |          nlocalsym: 0 0x4414-0x4418 (4)
0x04410|                        00 00 00 00            |        ....    |          iextdefsym: 0 0x4418-0x441c (4)
0x04410|                                    04 00 00 00|            ....|          nextdefsym: 4 0x441c-0x4420 (4)
0x04420|04 00 00 00                                    |....            |          iundefsym: 4 0x4420-0x4424 (4)
0x04420|            02 00 00 00                        |    ....        |          nundefsym: 2 0x4424-0x4428 (4)
0x04420|                        00 00 00 00            |        ....    |          tocoff: 0 0x4428-0x442c (4)
0x04420|                                    00 00 00 00|            ....|          ntoc: 0 0x442c-0x4430 (4)
0x04430|00 00 00 00                                    |....            |          modtaboff: 0 0x4430-0x4434 (4)
0x04430|            00 00 00 00                        |    ....        |          nmodtab: 0 0x4434-0x4438 (4)
0x04430|                        00 00 00 00            |        ....    |          extrefsymoff: 0 0x4438-0x443c (4)
0x04430|                                    00 00 00 00|            ....|          nextrefsyms: 0 0x443c-0x4440 (4)
0x04440|e0 80 00 00                                    |....            |          indirectsymoff: 32992 0x4440-0x4444 (4)
0x04440|            04 00 00 00                        |    ....        |          nindirectsyms: 4 0x4444-0x4448 (4)
0x04440|                        00 00 00 00            |        ....    |          extreloff: 0 0x4448-0x444c (4)
0x04440|                                    00 00 00 00|            ....|          nextrel: 0 0x444c-0x4450 (4)
0x04450|00 00 00 00                                    |....            |          locreloff: 0 0x4450-0x4454 (4)
0x04450|            00 00 00 00                        |    ....        |          nlocrel: 0 0x4454-0x4458 (4)
       |                                               |                |        [7]{}: load_command 0x4458-0x4478 (32)
0x04450|                        0e 00 00 00            |        ....    |          cmd: "load_dylinker" (0xe) 0x4458-0x445c (4)
0x04450|                                    20 00 00 00|             ...|          cmdsize: 32 0x445c-0x4460 (4)
0x04460|0c 00 00 00                                    |....            |          offset: 0xc 0x4460-0x4464 (4)
0x04460|            2f 75 73 72 2f 6c 69 62 2f 64 79 6c|    /usr/lib/dyl|          name: "/usr/lib/dyld" 0x4464-0x4478 (20)
0x04470|64 00 00 00 00 00 00 00                        |d.......        |
       |                                               |                |        [8]{}: load_command 0x4478-0x4490 (24)
0x04470|                        1b 00 00 00            |        ....    |          cmd: "uuid" (0x1b) 0x4478-0x447c (4)
0x04470|                                    18 00 00 00|            ....|          cmdsize: 24 0x447c-0x4480 (4)
       |                                               |                |          uuid_command{}: 0x4480-0x4490 (16)
0x04480|fb af d5 be 09 f4 34 7e ae 30 62 38 f2 3d 65 83|......4~.0b8.=e.|            uuid: raw bits 0x4480-0x4490 (16)
       |                                               |                |        [9]{}: load_command 0x4490-0x44a0 (16)
0x04490|24 00 00 00                                    |$...            |          cmd: "version_min_macosx" (0x24) 0x4490-0x4494 (4)
0x04490|            10 00 00 00                        |    ....        |          cmdsize: 16 0x4494-0x4498 (4)
0x04490|                        00 0c 0a 00            |        ....    |          version: 658432 0x4498-0x449c (4)
0x04490|                                    00 01 0c 00|            ....|          sdk: 786688 0x449c-0x44a0 (4)
       |                                               |                |        [10]{}: load_command 0x44a0-0x44b0 (16)
0x044a0|2a 00 00 00                                    |*...            |          cmd: "source_version" (0x2a) 0x44a0-0x44a4 (4)
0x044a0|            10 00 00 00                        |    ....        |          cmdsize: 16 0x44a4-0x44a8 (4)
       |                                               |                |          source_version_tag{}: 0x44a8-0x44b0 (8)
0x044a0|                        00 00 00 00 00 00 00 00|        ........|            tag: 0 0x44a8-0x44b0 (8)
       |                                               |                |        [11]{}: load_command 0x44b0-0x44c8 (24)
0x044b0|28 00 00 80                                    |(...            |          cmd: "main" (0x80000028) 0x44b0-0x44b4 (4)
0x044b0|            18 00 00 00                        |    ....        |          cmdsize: 24 0x44b4-0x44b8 (4)
       |                                               |                |          entrypoint{}: 0x44b8-0x44c8 (16)
0x044b0|                        50 3f 00 00 00 00 00 00|        P?......|            entryoff: 0x3f50 0x44b8-0x44c0 (8)
0x044c0|00 00 00 00 00 00 00 00                        |........        |            stacksize: 0 0x44c0-0x44c8 (8)
       |                                               |                |        [12]{}: load_command 0x44c8-0x4500 (56)
0x044c0|                        0c 00 00 00            |        ....    |          cmd: "load_dylib" (0xc) 0x44c8-0x44cc (4)
0x044c0|                                    38 00 00 00|            8...|          cmdsize: 56 0x44cc-0x44d0 (4)
       |                                               |                |          dylib_command{}: 0x44d0-0x4500 (48)
0x044d0|18 00 00 00                                    |....            |            offset: 0x18 0x44d0-0x44d4 (4)
0x044d0|            02 00 00 00                        |    ....        |            timestamp: 2 (1970-01-01T00:00:02Z) 0x44d4-0x44d8 (4)
0x044d0|                        00 00 1f 05            |        ....    |            current_version: 85917696 0x44d8-0x44dc (4)
0x044d0|                                    00 00 01 00|            ....|            compatibility_version: 65536 0x44dc-0x44e0 (4)
0x044e0|2f 75 73 72 2f 6c 69 62 2f 6c 69 62 53 79 73 74|/usr/lib/libSyst|            name: "/usr/lib/libSystem.B.dylib" 0x44e0-0x4500 (32)
0x044f0|65 6d 2e 42 2e 64 79 6c 69 62 00 00 00 00 00 00|em.B.dylib......|
       |                                               |                |        [13]{}: load_command 0x4500-0x4510 (16)
0x04500|26 00 00 00                                    |&...            |          cmd: "function_starts" (0x26) 0x4500-0x4504 (4)
0x04500|            10 00 00 00                        |    ....        |          cmdsize: 16 0x4504-0x4508 (4)
       |                                               |                |          linkedit_data{}: 0x4508-0x4510 (8)
0x04500|                        78 80 00 00            |        x...    |            off: 32888 0x4508-0x450c (4)
0x04500|                                    08 00 00 00|            ....|            size: 8 0x450c-0x4510 (4)
       |                                               |                |        [14]{}: load_command 0x4510-0x4520 (16)
0x04510|29 00 00 00                                    |)...            |          cmd: "data_in_code" (0x29) 0x4510-0x4514 (4)
0x04510|            10 00 00 00                        |    ....        |          cmdsize: 16 0x4514-0x4518 (4)
       |                                               |                |          linkedit_data{}: 0x4518-0x4520 (8)
0x04510|                        80 80 00 00            |        ....    |            off: 32896 0x4518-0x451c (4)
0x04510|                                    00 00 00 00|            ....|            size: 0 0x451c-0x4520 (4)
       |00 01 02 03 04 05 06 07 08 09 0a 0b 0c 0d 0e 0f|0123456789abcdef|    [1]{}: file (macho) 0x10000-0x1c158 (49496)
       |                                               |                |      header{}: 0x10000-0x10020 (32)
       |                                               |                |        arch_bits: 64
0x10000|cf fa ed fe                                    |....            |        magic: "64le" (0xfeedfacf) (64-bit little endian) 0x10000-0x10004 (4)
       |                                               |                |        bits: 64
0x10000|            0c 00 00 01                        |    ....        |        cputype: "arm64" (0x100000c) 0x10004-0x10008 (4)
0x10000|                        00 00 00 00            |        ....    |        cpusubtype: 0x0 0x10008-0x1000c (4)
0x10000|                                    02 00 00 00|            ....|        filetype: "execute" (2) 0x1000c-0x10010 (4)
0x10010|11 00 00 00                                    |....            |        ncdms: 17 0x10010-0x10014 (4)
0x10010|            68 05 00 00                        |    h...        |        sizeofncdms: 1384 0x10014-0x10018 (4)
       |                                               |                |        flags{}: 0x10018-0x1001c (4)
0x10010|                        85                     |        .       |          twolevel: true 0x10018-0x10018.1 (0.1)
0x10010|                        85                     |        .       |          lazy_init: false 0x10018.1-0x10018.2 (0.1)
0x10010|                        85                     |        .       |          split_segs: false 0x10018.2-0x10018.3 (0.1)
0x10010|                        85                     |        .       |          prebound: false 0x10018.3-0x10018.4 (0.1)
0x10010|                        85                     |        .       |          bindatload: false 0x10018.4-0x10018.5 (0.1)
0x10010|                        85                     |        .       |          dyldlink: true 0x10018.5-0x10018.6 (0.1)
0x10010|                        85                     |        .       |          incrlink: false 0x10018.6-0x10018.7 (0.1)
0x10010|                        85                     |        .       |          noundefs: true 0x10018.7-0x10019 (0.1)
0x10010|                           00                  |         .      |          weak_defines: false 0x10019-0x10019.1 (0.1)
0x10010|                           00                  |         .      |          canonical: false 0x10019.1-0x10019.2 (0.1)
0x10010|                           00                  |         .      |          subsections_via_symbols: false 0x10019.2-0x10019.3 (0.1)
0x10010|                           00                  |         .      |          allmodsbound: false 0x10019.3-0x10019.4 (0.1)
0x10010|                           00                  |         .      |          prebindable: false 0x10019.4-0x10019.5 (0.1)
0x10010|                           00                  |         .      |          nofixprebinding: false 0x10019.5-0x10019.6 (0.1)
0x10010|                           00                  |         .      |          nomultidefs: false 0x10019.6-0x10019.7 (0.1)
0x10010|                           00                  |         .      |          force_flat: false 0x10019.7-0x1001a (0.1)
0x10010|                              20               |                |          has_tlv_descriptors: false 0x1001a-0x1001a.1 (0.1)
0x10010|                              20               |                |          dead_strippable_dylib: false 0x1001a.1-0x1001a.2 (0.1)
0x10010|                              20               |                |          pie: true 0x1001a.2-0x1001a.3 (0.1)
0x10010|                              20               |                |          no_reexported_dylibs: false 0x1001a.3-0x1001a.4 (0.1)
0x10010|                              20               |                |          setuid_safe: false 0x1001a.4-0x1001a.5 (0.1)
0x10010|                              20               |                |          root_safe: false 0x1001a.5-0x1001a.6 (0.1)
0x10010|                              20               |                |          allow_stack_execution: false 0x1001a.6-0x1001a.7 (0.1)
0x10010|                              20               |                |          binds_to_weak: false 0x1001a.7-0x1001b (0.1)
0x10010|                                 00            |           .    |          reserved: raw bits 0x1001b-0x1001b.6 (0.6)
0x10010|                                 00            |           .    |          app_extension_safe: false 0x1001b.6-0x1001b.7 (0.1)
0x10010|                                 00            |           .    |          no_heap_execution: false 0x1001b.7-0x1001c (0.1)
0x10010|                                    00 00 00 00|            ....|        reserved: raw bits (all zero) 0x1001c-0x10020 (4)
       |                                               |                |      load_commands[0:17]: 0x10020-0x1c158 (49464)
       |                                               |                |        [0]{}: load_command 0x10020-0x10068 (72)
0x10020|19 00 00 00                                    |....            |          cmd: "segment_64" (0x19) 0x10020-0x10024 (4)
0x10020|            48 00 00 00                        |    H...        |          cmdsize: 72 0x10024-0x10028 (4)
       |                                               |                |          segment_command{}: 0x10028-0x10068 (64)
       |                                               |                |            arch_bits: 64
0x10020|                        5f 5f 50 41 47 45 5a 45|        __PAGEZE|            segname: "__PAGEZERO" 0x10028-0x10038 (16)
0x10030|52 4f 00 00 00 00 00 00                        |RO......        |
0x10030|                        00 00 00 00 00 00 00 00|        ........|            vmaddr: 0x0 0x10038-0x10040 (8)
0x10040|00 00 00 00 01 00 00 00                        |........        |            vmsize: 4294967296 0x10040-0x10048 (8)
0x10040|                        00 00 00 00 00 00 00 00|        ........|            fileoff: 0x0 0x10048-0x10050 (8)
0x10050|00 00 00 00 00 00 00 00                        |........        |            tfilesize: 0 0x10050-0x10058 (8)
0x10050|                        00 00 00 00            |        ....    |            initprot: 0 0x10058-0x1005c (4)
0x10050|                                    00 00 00 00|            ....|            maxprot: 0 0x1005c-0x10060 (4)
0x10060|00 00 00 00                                    |....            |            nsects: 0 0x10060-0x10064 (4)
       |                                               |                |            flags{}: 0x10064-0x10068 (4)
0x10060|            00                                 |    .           |              reserved0: raw bits 0x10064-0x10064.4 (0.4)
0x10060|            00                                 |    .           |              protected_version_1: false 0x10064.4-0x10064.5 (0.1)
0x10060|            00                                 |    .           |              noreloc: false 0x10064.5-0x10064.6 (0.1)
0x10060|            00                                 |    .           |              fvmlib: false 0x10064.6-0x10064.7 (0.1)
0x10060|            00                                 |    .           |              highvm: false 0x10064.7-0x10065 (0.1)
0x10060|               00 00 00                        |     ...        |              reserved1: raw bits 0x10065-0x10068 (3)
       |                                               |                |          sections[0:0]: 0x10068-0x10068 (0)
       |                                               |                |        [1]{}: load_command 0x10068-0x14000 (16280)
0x10060|                        19 00 00 00            |        ....    |          cmd: "segment_64" (0x19) 0x10068-0x1006c (4)
0x10060|                                    d8 01 00 00|            ....|          cmdsize: 472 0x1006c-0x10070 (4)
       |                                               |                |          segment_command{}: 0x10070-0x100b0 (64)
       |                                               |                |            arch_bits: 64
0x10070|5f 5f 54 45 58 54 00 00 00 00 00 00 00 00 00 00|__TEXT..........|            segname: "__TEXT" 0x10070-0x10080 (16)
0x10080|00 00 00 00 01 00 00 00                        |........        |            vmaddr: 0x100000000 0x10080-0x10088 (8)
0x10080|                        00 40 00 00 00 00 00 00|        .@......|            vmsize: 16384 0x10088-0x10090 (8)
0x10090|00 00 00 00 00 00 00 00                        |........        |            fileoff: 0x0 0x10090-0x10098 (8)
0x10090|                        00 40 00 00 00 00 00 00|        .@......|            tfilesize: 16384 0x10098-0x100a0 (8)
0x100a0|05 00 00 00                                    |....            |            initprot: 5 0x100a0-0x100a4 (4)
0x100a0|            05 00 00 00                        |    ....        |            maxprot: 5 0x100a4-0x100a8 (4)
0x100a0|                        05 00 00 00            |        ....    |            nsects: 5 0x100a8-0x100ac (4)
       |                                               |                |            flags{}: 0x100ac-0x100b0 (4)
0x100a0|                                    00         |            .   |              reserved0: raw bits 0x100ac-0x100ac.4 (0.4)
0x100a0|                                    00         |            .   |              protected_version_1: false 0x100ac.4-0x100ac.5 (0.1)
0x100a0|                                    00         |            .   |              noreloc: false 0x100ac.5-0x100ac.6 (0.1)
0x100a0|                                    00         |            .   |              fvmlib: false 0x100ac.6-0x100ac.7 (0.1)
0x100a0|                                    00         |            .   |              highvm: false 0x100ac.7-0x100ad (0.1)
0x100a0|                                       00 00 00|             ...|              reserved1: raw bits 0x100ad-0x100b0 (3)
       |                                               |                |          sections[0:5]: 0x100b0-0x14000 (16208)
       |                                               |                |            [0]{}: section 0x100b0-0x13f74 (16068)
0x100b0|5f 5f 74 65 78 74 00 00 00 00 00 00 00 00 00 00|__text..........|              sectname: "__text" 0x100b0-0x100c0 (16)
0x100c0|5f 5f 54 45 58 54 00 00 00 00 00 00 00 00 00 00|__TEXT..........|              segname: "__TEXT" 0x100c0-0x100d0 (16)
0x100d0|20 3f 00 00 01 00 00 00                        | ?......        |              address: 0x100003f20 0x100d0-0x100d8 (8)
0x100d0|                        54 00 00 00 00 00 00 00|        T.......|              size: 84 0x100d8-0x100e0 (8)
0x100e0|20 3f 00 00                                    | ?..            |              offset: 0x3f20 0x100e0-0x100e4 (4)
0x100e0|            02 00 00 00                        |    ....        |              align: 2 0x100e4-0x100e8 (4)
0x100e0|                        00 00 00 00            |        ....    |              reloff: 0 0x100e8-0x100ec (4)
0x100e0|                                    00 00 00 00|            ....|              nreloc: 0 0x100ec-0x100f0 (4)
       |                                               |                |              flags{}: 0x100f0-0x100f4 (4)
0x100f0|00                                             |.               |                type: "regular" (0) 0x100f0-0x100f1 (1)
0x100f0|   04                                          | .              |                reserved2: raw bits 0x100f1-0x100f1.5 (0.5)
0x100f0|   04                                          | .              |                attr_some_instructions: true 0x100f1.5-0x100f1.6 (0.1)
0x100f0|   04                                          | .              |                attr_ext_reloc: false 0x100f1.6-0x100f1.7 (0.1)
0x100f0|   04                                          | .              |                attr_loc_reloc: false 0x100f1.7-0x100f2 (0.1)
0x100f0|      00                                       |  .             |                reserved1: raw bits 0x100f2-0x100f3 (1)
0x100f0|         80                                    |   .            |                attr_pure_instructions: true 0x100f3-0x100f3.1 (0.1)
0x100f0|         80                                    |   .            |                attr_no_toc: false 0x100f3.1-0x100f3.2 (0.1)
0x100f0|         80                                    |   .            |                attr_strip_static_syms: false 0x100f3.2-0x100f3.3 (0.1)
0x100f0|         80                                    |   .            |                attr_no_dead_strip: false 0x100f3.3-0x100f3.4 (0.1)
0x100f0|         80                                    |   .            |                attr_live_support: false 0x100f3.4-0x100f3.5 (0.1)
0x100f0|         80                                    |   .            |                attr_self_modifying_code: false 0x100f3.5-0x100f3.6 (0.1)
0x100f0|         80                                    |   .            |                attr_debug: false 0x100f3.6-0x100f3.7 (0.1)
0x100f0|         80                                    |   .            |                reserved0: raw bits 0x100f3.7-0x100f4 (0.1)
0x100f0|            00 00 00 00                        |    ....        |              reserved1: 0 0x100f4-0x100f8 (4)
0x100f0|                        00 00 00 00            |        ....    |              reserved2: 0 0x100f8-0x100fc (4)
0x100f0|                                    00 00 00 00|            ....|              reserved3: 0 0x100fc-0x10100 (4)
0x13f20|fd 7b bf a9 fd 03 00 91 00 00 00 90 00 90 3e 91|.{............>.|              data: raw bits 0x13f20-0x13f74 (84)
*      |until 0x13f73.7 (84)                           |                |
       |                                               |                |            [1]{}: section 0x10100-0x13f80 (16000)
0x10100|5f 5f 73 74 75 62 73 00 00 00 00 00 00 00 00 00|__stubs.........|              sectname: "__stubs" 0x10100-0x10110 (16)
0x10110|5f 5f 54 45 58 54 00 00 00 00 00 00 00 00 00 00|__TEXT..........|              segname: "__TEXT" 0x10110-0x10120 (16)
0x10120|74 3f 00 00 01 00 00 00                        |t?......        |              address: 0x100003f74 0x10120-0x10128 (8)
0x10120|                        0c 00 00 00 00 00 00 00|        ........|              size: 12 0x10128-0x10130 (8)
0x10130|74 3f 00 00                                    |t?..            |              offset: 0x3f74 0x10130-0x10134 (4)
0x10130|            02 00 00 00                        |    ....        |              align: 2 0x10134-0x10138 (4)
0x10130|                        00 00 00 00            |        ....    |              reloff: 0 0x10138-0x1013c (4)
0x10130|                                    00 00 00 00|            ....|              nreloc: 0 0x1013c-0x10140 (4)
       |                                               |                |              flags{}: 0x10140-0x10144 (4)
0x10140|08                                             |.               |                type: "symbol_stubs" (8) 0x10140-0x10141 (1)
0x10140|   04                                          | .              |                reserved2: raw bits 0x10141-0x10141.5 (0.5)
0x10140|   04                                          | .              |                attr_some_instructions: true 0x10141.5-0x10141.6 (0.1)
0x10140|   04                                          | .              |                attr_ext_reloc: false 0x10141.6-0x10141.7 (0.1)
0x10140|   04                                          | .              |                attr_loc_reloc: false 0x10141.7-0x10142 (0.1)
0x10140|      00                                       |  .             |                reserved1: raw bits 0x10142-0x10143 (1)
0x10140|         80                                    |   .            |                attr_pure_instructions: true 0x10143-0x10143.1 (0.1)
0x10140|         80                                    |   .            |                attr_no_toc: false 0x10143.1-0x10143.2 (0.1)
0x10140|         80                                    |   .            |                attr_strip_static_syms: false 0x10143.2-0x10143.3 (0.1)
0x10140|         80                                    |   .            |                attr_no_dead_strip: false 0x10143.3-0x10143.4 (0.1)
0x10140|         80                                    |   .            |                attr_live_support: false 0x10143.4-0x10143.5 (0.1)
0x10140|         80                                    |   .            |                attr_self_modifying_code: false 0x10143.5-0x10143.6 (0.1)
0x10140|         80                                    |   .            |                attr_debug: false 0x10143.6-0x10143.7 (0.1)
0x10140|         80                                    |   .            |                reserved0: raw bits 0x10143.7-0x10144 (0.1)
0x10140|            00 00 00 00                        |    ....        |              reserved1: 0 0x10144-0x10148 (4)
0x10140|                        0c 00 00 00            |        ....    |              reserved2: 12 0x10148-0x1014c (4)
0x10140|                                    00 00 00 00|            ....|              reserved3: 0 0x1014c-0x10150 (4)
0x13f70|            1f 20 03 d5 50 04 02 58 00 02 1f d6|    . ..P..X....|              data: raw bits 0x13f74-0x13f80 (12)
       |                                               |                |            [2]{}: section 0x10150-0x13fa4 (15956)
0x10150|5f 5f 73 74 75 62 5f 68 65 6c 70 65 72 00 00 00|__stub_helper...|              sectname: "__stub_helper" 0x10150-0x10160 (16)
0x10160|5f 5f 54 45 58 54 00 00 00 00 00 00 00 00 00 00|__TEXT..........|              segname: "__TEXT" 0x10160-0x10170 (16)
0x10170|80 3f 00 00 01 00 00 00                        |.?......        |              address: 0x100003f80 0x10170-0x10178 (8)
0x10170|                        24 00 00 00 00 00 00 00|        $.......|              size: 36 0x10178-0x10180 (8)
0x10180|80 3f 00 00                                    |.?..            |              offset: 0x3f80 0x10180-0x10184 (4)
0x10180|            02 00 00 00                        |    ....        |              align: 2 0x10184-0x10188 (4)
0x10180|                        00 00 00 00            |        ....    |              reloff: 0 0x10188-0x1018c (4)
0x10180|                                    00 00 00 00|            ....|              nreloc: 0 0x1018c-0x10190 (4)
       |                                               |                |              flags{}: 0x10190-0x10194 (4)
0x10190|00                                             |.               |                type: "regular" (0) 0x10190-0x10191 (1)
0x10190|   04                                          | .              |                reserved2: raw bits 0x10191-0x10191.5 (0.5)
0x10190|   04                                          | .              |                attr_some_instructions: true 0x10191.5-0x10191.6 (0.1)
0x10190|   04                                          | .              |                attr_ext_reloc: false 0x10191.6-0x10191.7 (0.1)
0x10190|   04                                          | .              |                attr_loc_reloc: false 0x10191.7-0x10192 (0.1)
0x10190|      00                                       |  .             |                reserved1: raw bits 0x10192-0x10193 (1)
0x10190|         80                                    |   .            |                attr_pure_instructions: true 0x10193-0x10193.1 (0.1)
0x10190|         80                                    |   .            |                attr_no_toc: false 0x10193.1-0x10193.2 (0.1)
0x10190|         80                                    |   .            |                attr_strip_static_syms: false 0x10193.2-0x10193.3 (0.1)
0x10190|         80                                    |   .            |                attr_no_dead_strip: false 0x10193.3-0x10193.4 (0.1)
0x10190|         80                                    |   .            |                attr_live_support: false 0x10193.4-0x10193.5 (0.1)
0x10190|         80                                    |   .            |                attr_self_modifying_code: false 0x10193.5-0x10193.6 (0.1)
0x10190|         80                                    |   .            |                attr_debug: false 0x10193.6-0x10193.7 (0.1)
0x10190|         80                                    |   .            |                reserved0: raw bits 0x10193.7-0x10194 (0.1)
0x10190|            00 00 00 00                        |    ....        |              reserved1: 0 0x10194-0x10198 (4)
0x10190|                        00 00 00 00            |        ....    |              reserved2: 0 0x10198-0x1019c (4)
0x10190|                                    00 00 00 00|            ....|              reserved3: 0 0x1019c-0x101a0 (4)
0x13f80|51 04 02 10 1f 20 03 d5 f0 47 bf a9 1f 20 03 d5|Q.... ...G... ..|              data: raw bits 0x13f80-0x13fa4 (36)
*      |until 0x13fa3.7 (36)                           |                |
       |                                               |                |            [3]{}: section 0x101a0-0x13fb5 (15893)
0x101a0|5f 5f 63 73 74 72 69 6e 67 00 00 00 00 00 00 00|__cstring.......|              sectname: "__cstring" 0x101a0-0x101b0 (16)
0x101b0|5f 5f 54 45 58 54 00 00 00 00 00 00 00 00 00 00|__TEXT..........|              segname: "__TEXT" 0x101b0-0x101c0 (16)
0x101c0|a4 3f 00 00 01 00 00 00                        |.?......        |              address: 0x100003fa4 0x101c0-0x101c8 (8)
0x101c0|                        11 00 00 00 00 00 00 00|        ........|              size: 17 0x101c8-0x101d0 (8)
0x101d0|a4 3f 00 00                                    |.?..            |              offset: 0x3fa4 0x101d0-0x101d4 (4)
0x101d0|            00 00 00 00                        |    ....        |              align: 0 0x101d4-0x101d8 (4)
0x101d0|                        00 00 00 00            |        ....    |              reloff: 0 0x101d8-0x101dc (4)
0x101d0|                                    00 00 00 00|            ....|              nreloc: 0 0x101dc-0x101e0 (4)
       |                                               |                |              flags{}: 0x101e0-0x101e4 (4)
0x101e0|02                                             |.               |                type: "cstring_literals" (2) 0x101e0-0x101e1 (1)
0x101e0|   00                                          | .              |                reserved2: raw bits 0x101e1-0x101e1.5 (0.5)
0x101e0|   00                                          | .              |                attr_some_instructions: false 0x101e1.5-0x101e1.6 (0.1)
0x101e0|   00                                          | .              |                attr_ext_reloc: false 0x101e1.6-0x101e1.7 (0.1)
0x101e0|   00                                          | .              |                attr_loc_reloc: false 0x101e1.7-0x101e2 (0.1)
0x101e0|      00                                       |  .             |                reserved1: raw bits 0x101e2-0x101e3 (1)
0x101e0|         00                                    |   .            |                attr_pure_instructions: false 0x101e3-0x101e3.1 (0.1)
0x101e0|         00                                    |   .            |                attr_no_toc: false 0x101e3.1-0x101e3.2 (0.1)
0x101e0|         00                                    |   .            |                attr_strip_static_syms: false 0x101e3.2-0x101e3.3 (0.1)
0x101e0|         00                                    |   .            |                attr_no_dead_strip: false 0x101e3.3-0x101e3.4 (0.1)
0x101e0|         00                                    |   .            |                attr_live_support: false 0x101e3.4-0x101e3.5 (0.1)
0x101e0|         00                                    |   .            |                attr_self_modifying_code: false 0x101e3.5-0x101e3.6 (0.1)
0x101e0|         00                                    |   .            |                attr_debug: false 0x101e3.6-0x101e3.7 (0.1)
0x101e0|         00                                    |   .            |                reserved0: raw bits 0x101e3.7-0x101e4 (0.1)
0x101e0|            00 00 00 00                        |    ....        |              reserved1: 0 0x101e4-0x101e8 (4)
0x101e0|                        00 00 00 00            |        ....    |              reserved2: 0 0x101e8-0x101ec (4)
0x101e0|                                    00 00 00 00|            ....|              reserved3: 0 0x101ec-0x101f0 (4)
       |                                               |                |              cstrings[0:2]: 0x13fa4-0x13fb5 (17)
0x13fa0|            61 61 61 0a 00                     |    aaa..       |                [0]: "aaa\n" cstring 0x13fa4-0x13fa9 (5)
0x13fa0|                           6c 69 62 62 62 62 5f|         libbbb_|                [1]: "libbbb_bbb\n" cstring 0x13fa9-0x13fb5 (12)
0x13fb0|62 62 62 0a 00                                 |bbb..           |
       |                                               |                |            [4]{}: section 0x101f0-0x14000 (15888)
0x101f0|5f 5f 75 6e 77 69 6e 64 5f 69 6e 66 6f 00 00 00|__unwind_info...|              sectname: "__unwind_info" 0x101f0-0x10200 (16)
0x10200|5f 5f 54 45 58 54 00 00 00 00 00 00 00 00 00 00|__TEXT..........|              segname: "__TEXT" 0x10200-0x10210 (16)
0x10210|b8 3f 00 00 01 00 00 00                        |.?......        |              address: 0x100003fb8 0x10210-0x10218 (8)
0x10210|                        48 00 00 00 00 00 00 00|        H.......|              size: 72 0x10218-0x10220 (8)
0x10220|b8 3f 00 00                                    |.?..            |              offset: 0x3fb8 0x10220-0x10224 (4)
0x10220|            02 00 00 00                        |    ....        |              align: 2 0x10224-0x10228 (4)
0x10220|                        00 00 00 00            |        ....    |              reloff: 0 0x10228-0x1022c (4)
0x10220|                                    00 00 00 00|            ....|              nreloc: 0 0x1022c-0x10230 (4)
       |                                               |                |              flags{}: 0x10230-0x10234 (4)
0x10230|00                                             |.               |                type: "regular" (0) 0x10230-0x10231 (1)
0x10230|   00                                          | .              |                reserved2: raw bits 0x10231-0x10231.5 (0.5)
0x10230|   00                                          | .              |                attr_some_instructions: false 0x10231.5-0x10231.6 (0.1)
0x10230|   00                                          | .              |                attr_ext_reloc: false 0x10231.6-0x10231.7 (0.1)
0x10230|   00                                          | .              |                attr_loc_reloc: false 0x10231.7-0x10232 (0.1)
0x10230|      00                                       |  .             |                reserved1: raw bits 0x10232-0x10233 (1)
0x10230|         00                                    |   .            |                attr_pure_instructions: false 0x10233-0x10233.1 (0.1)
0x10230|         00                                    |   .            |                attr_no_toc: false 0x10233.1-0x10233.2 (0.1)
0x10230|         00                                    |   .            |                attr_strip_static_syms: false 0x10233.2-0x10233.3 (0.1)
0x10230|         00                                    |   .            |                attr_no_dead_strip: false 0x10233.3-0x10233.4 (0.1)
0x10230|         00                                    |   .            |                attr_live_support: false 0x10233.4-0x10233.5 (0.1)
0x10230|         00                                    |   .            |                attr_self_modifying_code: false 0x10233.5-0x10233.6 (0.1)
0x10230|         00                                    |   .            |                attr_debug: false 0x10233.6-0x10233.7 (0.1)
0x10230|         00                                    |   .            |                reserved0: raw bits 0x10233.7-0x10234 (0.1)
0x10230|            00 00 00 00                        |    ....        |              reserved1: 0 0x10234-0x10238 (4)
0x10230|                        00 00 00 00            |        ....    |              reserved2: 0 0x10238-0x1023c (4)
0x10230|                                    00 00 00 00|            ....|              reserved3: 0 0x1023c-0x10240 (4)
0x13fb0|                        01 00 00 00 1c 00 00 00|        ........|              data: raw bits 0x13fb8-0x14000 (72)
0x13fc0|00 00 00 00 1c 00 00 00 00 00 00 00 1c 00 00 00|................|
*      |until 0x13fff.7 (72)                           |                |
       |                                               |                |        [2]{}: load_command 0x10240-0x14008 (15816)
0x10240|19 00 00 00                                    |....            |          cmd: "segment_64" (0x19) 0x10240-0x10244 (4)
0x10240|            98 00 00 00                        |    ....        |          cmdsize: 152 0x10244-0x10248 (4)
       |                                               |                |          segment_command{}: 0x10248-0x10288 (64)
       |                                               |                |            arch_bits: 64
0x10240|                        5f 5f 44 41 54 41 5f 43|        __DATA_C|            segname: "__DATA_CONST" 0x10248-0x10258 (16)
0x10250|4f 4e 53 54 00 00 00 00                        |ONST....        |
0x10250|                        00 40 00 00 01 00 00 00|        .@......|            vmaddr: 0x100004000 0x10258-0x10260 (8)
0x10260|00 40 00 00 00 00 00 00                        |.@......        |            vmsize: 16384 0x10260-0x10268 (8)
0x10260|                        00 40 00 00 00 00 00 00|        .@......|            fileoff: 0x4000 0x10268-0x10270 (8)
0x10270|00 40 00 00 00 00 00 00                        |.@......        |            tfilesize: 16384 0x10270-0x10278 (8)
0x10270|                        03 00 00 00            |        ....    |            initprot: 3 0x10278-0x1027c (4)
0x10270|                                    03 00 00 00|            ....|            maxprot: 3 0x1027c-0x10280 (4)
0x10280|01 00 00 00                                    |....            |            nsects: 1 0x10280-0x10284 (4)
       |                                               |                |            flags{}: 0x10284-0x10288 (4)
0x10280|            10                                 |    .           |              reserved0: raw bits 0x10284-0x10284.4 (0.4)
0x10280|            10                                 |    .           |              protected_version_1: false 0x10284.4-0x10284.5 (0.1)
0x10280|            10                                 |    .           |              noreloc: false 0x10284.5-0x10284.6 (0.1)
0x10280|            10                                 |    .           |              fvmlib: false 0x10284.6-0x10284.7 (0.1)
0x10280|            10                                 |    .           |              highvm: false 0x10284.7-0x10285 (0.1)
0x10280|               00 00 00                        |     ...        |              reserved1: raw bits 0x10285-0x10288 (3)
       |                                               |                |          sections[0:1]: 0x10288-0x14008 (15744)
       |                                               |                |            [0]{}: section 0x10288-0x14008 (15744)
0x10280|                        5f 5f 67 6f 74 00 00 00|        __got...|              sectname: "__got" 0x10288-0x10298 (16)
0x10290|00 00 00 00 00 00 00 00                        |........        |
0x10290|                        5f 5f 44 41 54 41 5f 43|        __DATA_C|              segname: "__DATA_CONST" 0x10298-0x102a8 (16)
0x102a0|4f 4e 53 54 00 00 00 00                        |ONST....        |
0x102a0|                        00 40 00 00 01 00 00 00|        .@......|              address: 0x100004000 0x102a8-0x102b0 (8)
0x102b0|08 00 00 00 00 00 00 00                        |........        |              size: 8 0x102b0-0x102b8 (8)
0x102b0|                        00 40 00 00            |        .@..    |              offset: 0x4000 0x102b8-0x102bc (4)
0x102b0|                                    03 00 00 00|            ....|              align: 3 0x102bc-0x102c0 (4)
0x102c0|00 00 00 00                                    |....            |              reloff: 0 0x102c0-0x102c4 (4)
0x102c0|            00 00 00 00                        |    ....        |              nreloc: 0 0x102c4-0x102c8 (4)
       |                                               |                |              flags{}: 0x102c8-0x102cc (4)
0x102c0|                        06                     |        .       |                type: "non_lazy_symbol_pointers" (6) 0x102c8-0x102c9 (1)
0x102c0|                           00                  |         .      |                reserved2: raw bits 0x102c9-0x102c9.5 (0.5)
0x102c0|                           00                  |         .      |                attr_some_instructions: false 0x102c9.5-0x102c9.6 (0.1)
0x102c0|                           00                  |         .      |                attr_ext_reloc: false 0x102c9.6-0x102c9.7 (0.1)
0x102c0|                           00                  |         .      |                attr_loc_reloc: false 0x102c9.7-0x102ca (0.1)
0x102c0|                              00               |          .     |                reserved1: raw bits 0x102ca-0x102cb (1)
0x102c0|                                 00            |           .    |                attr_pure_instructions: false 0x102cb-0x102cb.1 (0.1)
0x102c0|                                 00            |           .    |                attr_no_toc: false 0x102cb.1-0x102cb.2 (0.1)
0x102c0|                                 00            |           .    |                attr_strip_static_syms: false 0x102cb.2-0x102cb.3 (0.1)
0x102c0|                                 00            |           .    |                attr_no_dead_strip: false 0x102cb.3-0x102cb.4 (0.1)
0x102c0|                                 00            |           .    |                attr_live_support: false 0x102cb.4-0x102cb.5 (0.1)
0x102c0|                                 00            |           .    |                attr_self_modifying_code: false 0x102cb.5-0x102cb.6 (0.1)
0x102c0|                                 00            |           .    |                attr_debug: false 0x102cb.6-0x102cb.7 (0.1)
0x102c0|                                 00            |           .    |                reserved0: raw bits 0x102cb.7-0x102cc (0.1)
0x102c0|                                    01 00 00 00|            ....|              reserved1: 1 0x102cc-0x102d0 (4)
0x102d0|00 00 00 00                                    |....            |              reserved2: 0 0x102d0-0x102d4 (4)
0x102d0|            00 00 00 00                        |    ....        |              reserved3: 0 0x102d4-0x102d8 (4)
0x14000|00 00 00 00 00 00 00 00                        |........        |              data: raw bits 0x14000-0x14008 (8)
       |                                               |                |        [3]{}: load_command 0x102d8-0x18010 (32056)
0x102d0|                        19 00 00 00            |        ....    |          cmd: "segment_64" (0x19) 0x102d8-0x102dc (4)
0x102d0|                                    e8 00 00 00|            ....|          cmdsize: 232 0x102dc-0x102e0 (4)
       |                                               |                |          segment_command{}: 0x102e0-0x10320 (64)
       |                                               |                |            arch_bits: 64
0x102e0|5f 5f 44 41 54 41 00 00 00 00 00 00 00 00 00 00|__DATA..........|            segname: "__DATA" 0x102e0-0x102f0 (16)
0x102f0|00 80 00 00 01 00 00 00                        |........        |            vmaddr: 0x100008000 0x102f0-0x102f8 (8)
0x102f0|                        00 40 00 00 00 00 00 00|        .@......|            vmsize: 16384 0x102f8-0x10300 (8)
0x10300|00 80 00 00 00 00 00 00                        |........        |            fileoff: 0x8000 0x10300-0x10308 (8)
0x10300|                        00 40 00 00 00 00 00 00|        .@......|            tfilesize: 16384 0x10308-0x10310 (8)
0x10310|03 00 00 00                                    |....            |            initprot: 3 0x10310-0x10314 (4)
0x10310|            03 00 00 00                        |    ....        |            maxprot: 3 0x10314-0x10318 (4)
0x10310|                        02 00 00 00            |        ....    |            nsects: 2 0x10318-0x1031c (4)
       |                                               |                |            flags{}: 0x1031c-0x10320 (4)
0x10310|                                    00         |            .   |              reserved0: raw bits 0x1031c-0x1031c.4 (0.4)
0x10310|                                    00         |            .   |              protected_version_1: false 0x1031c.4-0x1031c.5 (0.1)
0x10310|                                    00         |            .   |              noreloc: false 0x1031c.5-0x1031c.6 (0.1)
0x10310|                                    00         |            .   |              fvmlib: false 0x1031c.6-0x1031c.7 (0.1)
0x10310|                                    00         |            .   |              highvm: false 0x1031c.7-0x1031d (0.1)
0x10310|                                       00 00 00|             ...|              reserved1: raw bits 0x1031d-0x10320 (3)
       |                                               |                |          sections[0:2]: 0x10320-0x18010 (31984)
       |                                               |                |            [0]{}: section 0x10320-0x18008 (31976)
0x10320|5f 5f 6c 61 5f 73 79 6d 62 6f 6c 5f 70 74 72 00|__la_symbol_ptr.|              sectname: "__la_symbol_ptr" 0x10320-0x10330 (16)
0x10330|5f 5f 44 41 54 41 00 00 00 00 00 00 00 00 00 00|__DATA..........|              segname: "__DATA" 0x10330-0x10340 (16)
0x10340|00 80 00 00 01 00 00 00                        |........        |              address: 0x100008000 0x10340-0x10348 (8)
0x10340|                        08 00 00 00 00 00 00 00|        ........|              size: 8 0x10348-0x10350 (8)
0x10350|00 80 00 00                                    |....            |              offset: 0x8000 0x10350-0x10354 (4)
0x10350|            03 00 00 00                        |    ....        |              align: 3 0x10354-0x10358 (4)
0x10350|                        00 00 00 00            |        ....    |              reloff: 0 0x10358-0x1035c (4)
0x10350|                                    00 00 00 00|            ....|              nreloc: 0 0x1035c-0x10360 (4)
       |                                               |                |              flags{}: 0x10360-0x10364 (4)
0x10360|07                                             |.               |                type: "lazy_symbol_pointers" (7) 0x10360-0x10361 (1)
0x10360|   00                                          | .              |                reserved2: raw bits 0x10361-0x10361.5 (0.5)
0x10360|   00                                          | .              |                attr_some_instructions: false 0x10361.5-0x10361.6 (0.1)
0x10360|   00                                          | .              |                attr_ext_reloc: false 0x10361.6-0x10361.7 (0.1)
0x10360|   00                                          | .              |                attr_loc_reloc: false 0x10361.7-0x10362 (0.1)
0x10360|      00                                       |  .             |                reserved1: raw bits 0x10362-0x10363 (1)
0x10360|         00                                    |   .            |                attr_pure_instructions: false 0x10363-0x10363.1 (0.1)
0x10360|         00                                    |   .            |                attr_no_toc: false 0x10363.1-0x10363.2 (0.1)
0x10360|         00                                    |   .            |                attr_strip_static_syms: false 0x10363.2-0x10363.3 (0.1)
0x10360|         00                                    |   .            |                attr_no_dead_strip: false 0x10363.3-0x10363.4 (0.1)
0x10360|         00                                    |   .            |                attr_live_support: false 0x10363.4-0x10363.5 (0.1)
0x10360|         00                                    |   .            |                attr_self_modifying_code: false 0x10363.5-0x10363.6 (0.1)
0x10360|         00                                    |   .            |                attr_debug: false 0x10363.6-0x10363.7 (0.1)
0x10360|         00                                    |   .            |                reserved0: raw bits 0x10363.7-0x10364 (0.1)
0x10360|            02 00 00 00                        |    ....        |              reserved1: 2 0x10364-0x10368 (4)
0x10360|                        00 00 00 00            |        ....    |              reserved2: 0 0x10368-0x1036c (4)
0x10360|                                    00 00 00 00|            ....|              reserved3: 0 0x1036c-0x10370 (4)
0x18000|98 3f 00 00 01 00 00 00                        |.?......        |              data: raw bits 0x18000-0x18008 (8)
       |                                               |                |            [1]{}: section 0x10370-0x18010 (31904)
0x10370|5f 5f 64 61 74 61 00 00 00 00 00 00 00 00 00 00|__data..........|              sectname: "__data" 0x10370-0x10380 (16)
0x10380|5f 5f 44 41 54 41 00 00 00 00 00 00 00 00 00 00|__DATA..........|              segname: "__DATA" 0x10380-0x10390 (16)
0x10390|08 80 00 00 01 00 00 00                        |........        |              address: 0x100008008 0x10390-0x10398 (8)
0x10390|                        08 00 00 00 00 00 00 00|        ........|              size: 8 0x10398-0x103a0 (8)
0x103a0|08 80 00 00                                    |....            |              offset: 0x8008 0x103a0-0x103a4 (4)
0x103a0|            03 00 00 00                        |    ....        |              align: 3 0x103a4-0x103a8 (4)
0x103a0|                        00 00 00 00            |        ....    |              reloff: 0 0x103a8-0x103ac (4)
0x103a0|                                    00 00 00 00|            ....|              nreloc: 0 0x103ac-0x103b0 (4)
       |                                               |                |              flags{}: 0x103b0-0x103b4 (4)
0x103b0|00                                             |.               |                type: "regular" (0) 0x103b0-0x103b1 (1)
0x103b0|   00                                          | .              |                reserved2: raw bits 0x103b1-0x103b1.5 (0.5)
0x103b0|   00                                          | .              |                attr_some_instructions: false 0x103b1.5-0x103b1.6 (0.1)
0x103b0|   00                                          | .              |                attr_ext_reloc: false 0x103b1.6-0x103b1.7 (0.1)
0x103b0|   00                                          | .              |                attr_loc_reloc: false 0x103b1.7-0x103b2 (0.1)
0x103b0|      00                                       |  .             |                reserved1: raw bits 0x103b2-0x103b3 (1)
0x103b0|         00                                    |   .            |                attr_pure_instructions: false 0x103b3-0x103b3.1 (0.1)
0x103b0|         00                                    |   .            |                attr_no_toc: false 0x103b3.1-0x103b3.2 (0.1)
0x103b0|         00                                    |   .            |                attr_strip_static_syms: false 0x103b3.2-0x103b3.3 (0.1)
0x103b0|         00                                    |   .            |                attr_no_dead_strip: false 0x103b3.3-0x103b3.4 (0.1)
0x103b0|         00                                    |   .            |                attr_live_support: false 0x103b3.4-0x103b3.5 (0.1)
0x103b0|         00                                    |   .            |                attr_self_modifying_code: false 0x103b3.5-0x103b3.6 (0.1)
0x103b0|         00                                    |   .            |                attr_debug: false 0x103b3.6-0x103b3.7 (0.1)
0x103b0|         00                                    |   .            |                reserved0: raw bits 0x103b3.7-0x103b4 (0.1)
0x103b0|            00 00 00 00                        |    ....        |              reserved1: 0 0x103b4-0x103b8 (4)
0x103b0|                        00 00 00 00            |        ....    |              reserved2: 0 0x103b8-0x103bc (4)
0x103b0|                                    00 00 00 00|            ....|              reserved3: 0 0x103bc-0x103c0 (4)
0x18000|                        00 00 00 00 00 00 00 00|        ........|              data: raw bits 0x18008-0x18010 (8)
       |                                               |                |        [4]{}: load_command 0x103c0-0x10408 (72)
0x103c0|19 00 00 00                                    |....            |          cmd: "segment_64" (0x19) 0x103c0-0x103c4 (4)
0x103c0|            48 00 00 00                        |    H...        |          cmdsize: 72 0x103c4-0x103c8 (4)
       |                                               |                |          segment_command{}: 0x103c8-0x10408 (64)
       |                                               |                |            arch_bits: 64
0x103c0|                        5f 5f 4c 49 4e 4b 45 44|        __LINKED|            segname: "__LINKEDIT" 0x103c8-0x103d8 (16)
0x103d0|49 54 00 00 00 00 00 00                        |IT......        |
0x103d0|                        00 c0 00 00 01 00 00 00|        ........|            vmaddr: 0x10000c000 0x103d8-0x103e0 (8)
0x103e0|00 40 00 00 00 00 00 00                        |.@......        |            vmsize: 16384 0x103e0-0x103e8 (8)
0x103e0|                        00 c0 00 00 00 00 00 00|        ........|            fileoff: 0xc000 0x103e8-0x103f0 (8)
0x103f0|75 03 00 00 00 00 00 00                        |u.......        |            tfilesize: 885 0x103f0-0x103f8 (8)
0x103f0|                        01 00 00 00            |        ....    |            initprot: 1 0x103f8-0x103fc (4)
0x103f0|                                    01 00 00 00|            ....|            maxprot: 1 0x103fc-0x10400 (4)
0x10400|00 00 00 00                                    |....            |            nsects: 0 0x10400-0x10404 (4)
       |                                               |                |            flags{}: 0x10404-0x10408 (4)
0x10400|            00                                 |    .           |              reserved0: raw bits 0x10404-0x10404.4 (0.4)
0x10400|            00                                 |    .           |              protected_version_1: false 0x10404.4-0x10404.5 (0.1)
0x10400|            00                                 |    .           |              noreloc: false 0x10404.5-0x10404.6 (0.1)
0x10400|            00                                 |    .           |              fvmlib: false 0x10404.6-0x10404.7 (0.1)
0x10400|            00                                 |    .           |              highvm: false 0x10404.7-0x10405 (0.1)
0x10400|               00 00 00                        |     ...        |              reserved1: raw bits 0x10405-0x10408 (3)
       |                                               |                |          sections[0:0]: 0x10408-0x10408 (0)
       |                                               |                |        [5]{}: load_command 0x10408-0x10438 (48)
0x10400|                        22 00 00 80            |        "...    |          cmd: "dyld_info_only" (0x80000022) 0x10408-0x1040c (4)
0x10400|                                    30 00 00 00|            0...|          cmdsize: 48 0x1040c-0x10410 (4)
       |                                               |                |          dyld_info{}: 0x10410-0x10438 (40)
0x10410|00 c0 00 00                                    |....            |            rebase_off: 0xc000 0x10410-0x10414 (4)
0x10410|            08 00 00 00                        |    ....        |            rebase_size: 8 0x10414-0x10418 (4)
0x10410|                        08 c0 00 00            |        ....    |            bind_off: 0xc008 0x10418-0x1041c (4)
0x10410|                                    18 00 00 00|            ....|            bind_size: 24 0x1041c-0x10420 (4)
0x10420|00 00 00 00                                    |....            |            weak_bind_off: 0x0 0x10420-0x10424 (4)
0x10420|            00 00 00 00                        |    ....        |            weak_bind_size: 0 0x10424-0x10428 (4)
0x10420|                        20 c0 00 00            |         ...    |            lazy_bind_off: 0xc020 0x10428-0x1042c (4)
0x10420|                                    10 00 00 00|            ....|            lazy_bind_size: 16 0x1042c-0x10430 (4)
0x10430|30 c0 00 00                                    |0...            |            export_off: 0xc030 0x10430-0x10434 (4)
0x10430|            48 00 00 00                        |    H...        |            export_size: 72 0x10434-0x10438 (4)
       |                                               |                |        [6]{}: load_command 0x10438-0x1c158 (48416)
0x10430|                        02 00 00 00            |        ....    |          cmd: "symtab" (0x2) 0x10438-0x1043c (4)
0x10430|                                    18 00 00 00|            ....|          cmdsize: 24 0x1043c-0x10440 (4)
0x10440|80 c0 00 00                                    |....            |          symoff: 49280 0x10440-0x10444 (4)
0x10440|            07 00 00 00                        |    ....        |          nsyms: 7 0x10444-0x10448 (4)
0x10440|                        00 c1 00 00            |        ....    |          stroff: 49408 0x10448-0x1044c (4)
0x10440|                                    58 00 00 00|            X...|          strsize: 88 0x1044c-0x10450 (4)
       |                                               |                |          symbols[0:7]: 0x1c080-0x1c0f0 (112)
       |                                               |                |            [0]{}: symbol 0x1c080-0x1c090 (16)
0x1c080|46 00 00 00                                    |F...            |              strx: "__dyld_private" (70) 0x1c080-0x1c084 (4)
       |                                               |                |              type{}: 0x1c084-0x1c085 (1)
0x1c080|            0e                                 |    .           |                stab: 0 0x1c084-0x1c084.3 (0.3)
0x1c080|            0e                                 |    .           |                pext: 0 0x1c084.3-0x1c084.4 (0.1)
0x1c080|            0e                                 |    .           |                type: "sect" (7) 0x1c084.4-0x1c084.7 (0.3)
0x1c080|            0e                                 |    .           |                ext: 0 0x1c084.7-0x1c085 (0.1)
0x1c080|               08                              |     .          |              sect: 8 0x1c085-0x1c086 (1)
0x1c080|                  00 00                        |      ..        |              desc: 0 0x1c086-0x1c088 (2)
0x1c080|                        08 80 00 00 01 00 00 00|        ........|              value: 0x100008008 0x1c088-0x1c090 (8)
       |                                               |                |            [1]{}: symbol 0x1c090-0x1c0a0 (16)
0x1c090|02 00 00 00                                    |....            |              strx: "__mh_execute_header" (2) 0x1c090-0x1c094 (4)
       |                                               |                |              type{}: 0x1c094-0x1c095 (1)
0x1c090|            0f                                 |    .           |                stab: 0 0x1c094-0x1c094.3 (0.3)
0x1c090|            0f                                 |    .           |                pext: 0 0x1c094.3-0x1c094.4 (0.1)
0x1c090|            0f                                 |    .           |                type: "sect" (7) 0x1c094.4-0x1c094.7 (0.3)
0x1c090|            0f                                 |    .           |                ext: 1 0x1c094.7-0x1c095 (0.1)
0x1c090|               01                              |     .          |              sect: 1 0x1c095-0x1c096 (1)
0x1c090|                  10 00                        |      ..        |              desc: 16 0x1c096-0x1c098 (2)
0x1c090|                        00 00 00 00 01 00 00 00|        ........|              value: 0x100000000 0x1c098-0x1c0a0 (8)
       |                                               |                |            [2]{}: symbol 0x1c0a0-0x1c0b0 (16)
0x1c0a0|16 00 00 00                                    |....            |              strx: "_aaa" (22) 0x1c0a0-0x1c0a4 (4)
       |                                               |                |              type{}: 0x1c0a4-0x1c0a5 (1)
0x1c0a0|            0f                                 |    .           |                stab: 0 0x1c0a4-0x1c0a4.3 (0.3)
0x1c0a0|            0f                                 |    .           |                pext: 0 0x1c0a4.3-0x1c0a4.4 (0.1)
0x1c0a0|            0f                                 |    .           |                type: "sect" (7) 0x1c0a4.4-0x1c0a4.7 (0.3)
0x1c0a0|            0f                                 |    .           |                ext: 1 0x1c0a4.7-0x1c0a5 (0.1)
0x1c0a0|               01                              |     .          |              sect: 1 0x1c0a5-0x1c0a6 (1)
0x1c0a0|                  00 00                        |      ..        |              desc: 0 0x1c0a6-0x1c0a8 (2)
0x1c0a0|                        20 3f 00 00 01 00 00 00|         ?......|              value: 0x100003f20 0x1c0a8-0x1c0b0 (8)
       |                                               |                |            [3]{}: symbol 0x1c0b0-0x1c0c0 (16)
0x1c0b0|1b 00 00 00                                    |....            |              strx: "_libbbb_bbb" (27) 0x1c0b0-0x1c0b4 (4)
       |                                               |                |              type{}: 0x1c0b4-0x1c0b5 (1)
0x1c0b0|            0f                                 |    .           |                stab: 0 0x1c0b4-0x1c0b4.3 (0.3)
0x1c0b0|            0f                                 |    .           |                pext: 0 0x1c0b4.3-0x1c0b4.4 (0.1)
0x1c0b0|            0f                                 |    .           |                type: "sect" (7) 0x1c0b4.4-0x1c0b4.7 (0.3)
0x1c0b0|            0f                                 |    .           |                ext: 1 0x1c0b4.7-0x1c0b5 (0.1)
0x1c0b0|               01                              |     .          |              sect: 1 0x1c0b5-0x1c0b6 (1)
0x1c0b0|                  00 00                        |      ..        |              desc: 0 0x1c0b6-0x1c0b8 (2)
0x1c0b0|                        58 3f 00 00 01 00 00 00|        X?......|              value: 0x100003f58 0x1c0b8-0x1c0c0 (8)
       |                                               |                |            [4]{}: symbol 0x1c0c0-0x1c0d0 (16)
0x1c0c0|27 00 00 00                                    |'...            |              strx: "_main" (39) 0x1c0c0-0x1c0c4 (4)
       |                                               |                |              type{}: 0x1c0c4-0x1c0c5 (1)
0x1c0c0|            0f                                 |    .           |                stab: 0 0x1c0c4-0x1c0c4.3 (0.3)
0x1c0c0|            0f                                 |    .           |                pext: 0 0x1c0c4.3-0x1c0c4.4 (0.1)
0x1c0c0|            0f                                 |    .           |                type: "sect" (7) 0x1c0c4.4-0x1c0c4.7 (0.3)
0x1c0c0|            0f                                 |    .           |                ext: 1 0x1c0c4.7-0x1c0c5 (0.1)
0x1c0c0|               01                              |     .          |              sect: 1 0x1c0c5-0x1c0c6 (1)
0x1c0c0|                  00 00                        |      ..        |              desc: 0 0x1c0c6-0x1c0c8 (2)
0x1c0c0|                        3c 3f 00 00 01 00 00 00|        <?......|              value: 0x100003f3c 0x1c0c8-0x1c0d0 (8)
       |                                               |                |            [5]{}: symbol 0x1c0d0-0x1c0e0 (16)
0x1c0d0|2d 00 00 00                                    |-...            |              strx: "_printf" (45) 0x1c0d0-0x1c0d4 (4)
       |                                               |                |              type{}: 0x1c0d4-0x1c0d5 (1)
0x1c0d0|            01                                 |    .           |                stab: 0 0x1c0d4-0x1c0d4.3 (0.3)
0x1c0d0|            01                                 |    .           |                pext: 0 0x1c0d4.3-0x1c0d4.4 (0.1)
0x1c0d0|            01                                 |    .           |                type: "undef" (0) 0x1c0d4.4-0x1c0d4.7 (0.3)
0x1c0d0|            01                                 |    .           |                ext: 1 0x1c0d4.7-0x1c0d5 (0.1)
0x1c0d0|               00                              |     .          |              sect: 0 0x1c0d5-0x1c0d6 (1)
0x1c0d0|                  00 01                        |      ..        |              desc: 256 0x1c0d6-0x1c0d8 (2)
0x1c0d0|                        00 00 00 00 00 00 00 00|        ........|              value: 0x0 0x1c0d8-0x1c0e0 (8)
       |                                               |                |            [6]{}: symbol 0x1c0e0-0x1c0f0 (16)
0x1c0e0|35 00 00 00                                    |5...            |              strx: "dyld_stub_binder" (53) 0x1c0e0-0x1c0e4 (4)
       |                                               |                |              type{}: 0x1c0e4-0x1c0e5 (1)
0x1c0e0|            01                                 |    .           |                stab: 0 0x1c0e4-0x1c0e4.3 (0.3)
0x1c0e0|            01                                 |    .           |                pext: 0 0x1c0e4.3-0x1c0e4.4 (0.1)
0x1c0e0|            01                                 |    .           |                type: "undef" (0) 0x1c0e4.4-0x1c0e4.7 (0.3)
0x1c0e0|            01                                 |    .           |                ext: 1 0x1c0e4.7-0x1c0e5 (0.1)
0x1c0e0|               00                              |     .          |              sect: 0 0x1c0e5-0x1c0e6 (1)
0x1c0e0|                  00 01                        |      ..        |              desc: 256 0x1c0e6-0x1c0e8 (2)
0x1c0e0|                        00 00 00 00 00 00 00 00|        ........|              value: 0x0 0x1c0e8-0x1c0f0 (8)
0x1c100|20 00 5f 5f 6d 68 5f 65 78 65 63 75 74 65 5f 68| .__mh_execute_h|          str_table: raw bits 0x1c100-0x1c158 (88)
*      |until 0x1c157.7 (88)                           |                |
       |                                               |                |        [7]{}: load_command 0x10450-0x104a0 (80)
0x10450|0b 00 00 00                                    |....            |          cmd: "dysymtab" (0xb) 0x10450-0x10454 (4)
0x10450|            50 00 00 00                        |    P...        |          cmdsize: 80 0x10454-0x10458 (4)
0x10450|                        00 00 00 00            |        ....    |          ilocalsym: 0 0x10458-0x1045c (4)
0x10450|                                    01 00 00 00|            ....|          nlocalsym: 1 0x1045c-0x10460 (4)
0x10460|01 00 00 00                                    |....            |          iextdefsym: 1 0x10460-0x10464 (4)
0x10460|            04 00 00 00                        |    ....        |          nextdefsym: 4 0x10464-0x10468 (4)
0x10460|                        05 00 00 00            |        ....    |          iundefsym: 5 0x10468-0x1046c (4)
0x10460|                                    02 00 00 00|            ....|          nundefsym: 2 0x1046c-0x10470 (4)
0x10470|00 00 00 00                                    |....            |          tocoff: 0 0x10470-0x10474 (4)
0x10470|            00 00 00 00                        |    ....        |          ntoc: 0 0x10474-0x10478 (4)
0x10470|                        00 00 00 00            |        ....    |          modtaboff: 0 0x10478-0x1047c (4)
0x10470|                                    00 00 00 00|            ....|          nmodtab: 0 0x1047c-0x10480 (4)
0x10480|00 00 00 00                                    |....            |          extrefsymoff: 0 0x10480-0x10484 (4)
0x10480|            00 00 00 00                        |    ....        |          nextrefsyms: 0 0x10484-0x10488 (4)
0x10480|                        f0 c0 00 00            |        ....    |          indirectsymoff: 49392 0x10488-0x1048c (4)
0x10480|                                    03 00 00 00|            ....|          nindirectsyms: 3 0x1048c-0x10490 (4)
0x10490|00 00 00 00                                    |....            |          extreloff: 0 0x10490-0x10494 (4)
0x10490|            00 00 00 00                        |    ....        |          nextrel: 0 0x10494-0x10498 (4)
0x10490|                        00 00 00 00            |        ....    |          locreloff: 0 0x10498-0x1049c (4)
0x10490|                                    00 00 00 00|            ....|          nlocrel: 0 0x1049c-0x104a0 (4)
       |                                               |                |        [8]{}: load_command 0x104a0-0x104c0 (32)
0x104a0|0e 00 00 00                                    |....            |          cmd: "load_dylinker" (0xe) 0x104a0-0x104a4 (4)
0x104a0|            20 00 00 00                        |     ...        |          cmdsize: 32 0x104a4-0x104a8 (4)
0x104a0|                        0c 00 00 00            |        ....    |          offset: 0xc 0x104a8-0x104ac (4)
0x104a0|                                    2f 75 73 72|            /usr|          name: "/usr/lib/dyld" 0x104ac-0x104c0 (20)
0x104b0|2f 6c 69 62 2f 64 79 6c 64 00 00 00 00 00 00 00|/lib/dyld.......|
       |                                               |                |        [9]{}: load_command 0x104c0-0x104d8 (24)
0x104c0|1b 00 00 00                                    |....            |          cmd: "uuid" (0x1b) 0x104c0-0x104c4 (4)
0x104c0|            18 00 00 00                        |    ....        |          cmdsize: 24 0x104c4-0x104c8 (4)
       |                                               |                |          uuid_command{}: 0x104c8-0x104d8 (16)
0x104c0|                        a8 20 9f ff 52 b7 35 f9|        . ..R.5.|            uuid: raw bits 0x104c8-0x104d8 (16)
0x104d0|bb c4 e4 cd 80 88 20 6e                        |...... n        |
       |                                               |                |        [10]{}: load_command 0x104d8-0x104f8 (32)
0x104d0|                        32 00 00 00            |        2...    |          cmd: "build_version" (0x32) 0x104d8-0x104dc (4)
0x104d0|                                    20 00 00 00|             ...|          cmdsize: 32 0x104dc-0x104e0 (4)
0x104e0|01 00 00 00                                    |....            |          platform: 1 0x104e0-0x104e4 (4)
0x104e0|            00 00 0b 00                        |    ....        |          minos: 720896 0x104e4-0x104e8 (4)
0x104e0|                        00 00 0b 00            |        ....    |          sdk: 720896 0x104e8-0x104ec (4)
0x104e0|                                    01 00 00 00|            ....|          ntools: 1 0x104ec-0x104f0 (4)
       |                                               |                |          tools[0:1]: 0x104f0-0x104f8 (8)
       |                                               |                |            [0]{}: tool 0x104f0-0x104f8 (8)
0x104f0|03 00 00 00                                    |....            |              tool: 3 0x104f0-0x104f4 (4)
0x104f0|            00 00 c7 02                        |    ....        |              version: 46596096 0x104f4-0x104f8 (4)
       |                                               |                |        [11]{}: load_command 0x104f8-0x10508 (16)
0x104f0|                        2a 00 00 00            |        *...    |          cmd: "source_version" (0x2a) 0x104f8-0x104fc (4)
0x104f0|                                    10 00 00 00|            ....|          cmdsize: 16 0x104fc-0x10500 (4)
       |                                               |                |          source_version_tag{}: 0x10500-0x10508 (8)
0x10500|00 00 00 00 00 00 00 00                        |........        |            tag: 0 0x10500-0x10508 (8)
       |                                               |                |        [12]{}: load_command 0x10508-0x10520 (24)
0x10500|                        28 00 00 80            |        (...    |          cmd: "main" (0x80000028) 0x10508-0x1050c (4)
0x10500|                                    18 00 00 00|            ....|          cmdsize: 24 0x1050c-0x10510 (4)
       |                                               |                |          entrypoint{}: 0x10510-0x10520 (16)
0x10510|3c 3f 00 00 00 00 00 00                        |<?......        |            entryoff: 0x3f3c 0x10510-0x10518 (8)
0x10510|                        00 00 00 00 00 00 00 00|        ........|            stacksize: 0 0x10518-0x10520 (8)
       |                                               |                |        [13]{}: load_command 0x10520-0x10558 (56)
0x10520|0c 00 00 00                                    |....            |          cmd: "load_dylib" (0xc) 0x10520-0x10524 (4)
0x10520|            38 00 00 00                        |    8...        |          cmdsize: 56 0x10524-0x10528 (4)
       |                                               |                |          dylib_command{}: 0x10528-0x10558 (48)
0x10520|                        18 00 00 00            |        ....    |            offset: 0x18 0x10528-0x1052c (4)
0x10520|                                    02 00 00 00|            ....|            timestamp: 2 (1970-01-01T00:00:02Z) 0x1052c-0x10530 (4)
0x10530|05 64 0c 05                                    |.d..            |            current_version: 84698117 0x10530-0x10534 (4)
0x10530|            00 00 01 00                        |    ....        |            compatibility_version: 65536 0x10534-0x10538 (4)
0x10530|                        2f 75 73 72 2f 6c 69 62|        /usr/lib|            name: "/usr/lib/libSystem.B.dylib" 0x10538-0x10558 (32)
0x10540|2f 6c 69 62 53 79 73 74 65 6d 2e 42 2e 64 79 6c|/libSystem.B.dyl|
0x10550|69 62 00 00 00 00 00 00                        |ib......        |
       |                                               |                |        [14]{}: load_command 0x10558-0x10568 (16)
0x10550|                        26 00 00 00            |        &...    |          cmd: "function_starts" (0x26) 0x10558-0x1055c (4)
0x10550|                                    10 00 00 00|            ....|          cmdsize: 16 0x1055c-0x10560 (4)
       |                                               |                |          linkedit_data{}: 0x10560-0x10568 (8)
0x10560|78 c0 00 00                                    |x...            |            off: 49272 0x10560-0x10564 (4)
0x10560|            08 00 00 00                        |    ....        |            size: 8 0x10564-0x10568 (4)
       |                                               |                |        [15]{}: load_command 0x10568-0x10578 (16)
0x10560|                        29 00 00 00            |        )...    |          cmd: "data_in_code" (0x29) 0x10568-0x1056c (4)
0x10560|                                    10 00 00 00|            ....|          cmdsize: 16 0x1056c-0x10570 (4)
       |                                               |                |          linkedit_data{}: 0x10570-0x10578 (8)
0x10570|80 c0 00 00                                    |....            |            off: 49280 0x10570-0x10574 (4)
0x10570|            00 00 00 00                        |    ....        |            size: 0 0x10574-0x10578 (4)
       |                                               |                |        [16]{}: load_command 0x10578-0x10588 (16)
0x10570|                        1d 00 00 00            |        ....    |          cmd: "code_signature" (0x1d) 0x10578-0x1057c (4)
0x10570|                                    10 00 00 00|            ....|          cmdsize: 16 0x1057c-0x10580 (4)
       |                                               |                |          linkedit_data{}: 0x10580-0x10588 (8)
0x10580|60 c1 00 00                                    |`...            |            off: 49504 0x10580-0x10584 (4)
0x10580|            15 02 00 00                        |    ....        |            size: 533 0x10584-0x10588 (4)
0x04520|00 00 00 00 00 00 00 00 00 00 00 00 00 00 00 00|................|  gap1: raw bits 0x4520-0x7f30 (14864)
*      |until 0x7f2f.7 (14864)                         |                |
0x07f80|                              00 00            |          ..    |  gap2: raw bits 0x7f8a-0x7f8c (2)
0x07fb0|                     00                        |       .        |  gap3: raw bits 0x7fb7-0x7fb8 (1)
0x08010|                        00 00 00 00 00 00 00 00|        ........|  gap4: raw bits 0x8018-0xc080 (16488)
0x08020|00 00 00 00 00 00 00 00 00 00 00 00 00 00 00 00|................|
*      |until 0xc07f.7 (16488)                         |                |
0x0c0e0|04 00 00 00 00 00 00 40 05 00 00 00 04 00 00 00|.......@........|  gap5: raw bits 0xc0e0-0xc0f0 (16)
0x0c130|                        00 00 00 00 00 00 00 00|        ........|  gap6: raw bits 0xc138-0x10000 (16072)
0x0c140|00 00 00 00 00 00 00 00 00 00 00 00 00 00 00 00|................|
*      |until 0xffff.7 (16072)                         |                |
0x10580|                        00 00 00 00 00 00 00 00|        ........|  gap7: raw bits 0x10588-0x13f20 (14744)
0x10590|00 00 00 00 00 00 00 00 00 00 00 00 00 00 00 00|................|
*      |until 0x13f1f.7 (14744)                        |                |
0x13fb0|               00 00 00                        |     ...        |  gap8: raw bits 0x13fb5-0x13fb8 (3)
0x14000|                        00 00 00 00 00 00 00 00|        ........|  gap9: raw bits 0x14008-0x18000 (16376)
0x14010|00 00 00 00 00 00 00 00 00 00 00 00 00 00 00 00|................|
*      |until 0x17fff.7 (16376)                        |                |
0x18010|00 00 00 00 00 00 00 00 00 00 00 00 00 00 00 00|................|  gap10: raw bits 0x18010-0x1c080 (16496)
*      |until 0x1c07f.7 (16496)                        |                |
0x1c0f0|05 00 00 00 06 00 00 00 05 00 00 00 00 00 00 00|................|  gap11: raw bits 0x1c0f0-0x1c100 (16)
0x1c150|                        00 00 00 00 00 00 00 00|        ........|  gap12: raw bits 0x1c158-0x1c375 (541)
0x1c160|fa de 0c c0 00 00 02 15 00 00 00 01 00 00 00 00|................|
*      |until 0x1c374.7 (end) (541)                    |                |
