$ fq dv libbbb.so
       |00 01 02 03 04 05 06 07 08 09 0a 0b 0c 0d 0e 0f|0123456789abcdef|.{}: libbbb.so (macho_fat) 0x0-0x1c2f6 (115446)
       |                                               |                |  fat_header{}: 0x0-0x30 (48)
0x00000|ca fe ba be                                    |....            |    magic: 0xcafebabe (valid) 0x0-0x4 (4)
0x00000|            00 00 00 02                        |    ....        |    narchs: 2 0x4-0x8 (4)
       |                                               |                |    archs[0:2]: 0x8-0x30 (40)
       |                                               |                |      [0]{}: arch 0x8-0x1c (20)
0x00000|                        01 00 00 07            |        ....    |        cputype: "x86_64" (0x1000007) 0x8-0xc (4)
0x00000|                                    00 00 00 03|            ....|        cpusubtype: 0x3 0xc-0x10 (4)
0x00010|00 00 40 00                                    |..@.            |        offset: 0x4000 0x10-0x14 (4)
0x00010|            00 00 80 b8                        |    ....        |        size: 32952 0x14-0x18 (4)
0x00010|                        00 00 00 0e            |        ....    |        align: 14 0x18-0x1c (4)
       |                                               |                |      [1]{}: arch 0x1c-0x30 (20)
0x00010|                                    01 00 00 0c|            ....|        cputype: "arm64" (0x100000c) 0x1c-0x20 (4)
0x00020|00 00 00 00                                    |....            |        cpusubtype: 0x0 0x20-0x24 (4)
0x00020|            00 01 00 00                        |    ....        |        offset: 0x10000 0x24-0x28 (4)
0x00020|                        00 00 c2 f6            |        ....    |        size: 49910 0x28-0x2c (4)
0x00020|                                    00 00 00 0e|            ....|        align: 14 0x2c-0x30 (4)
0x00030|00 00 00 00 00 00 00 00 00 00 00 00 00 00 00 00|................|  gap0: raw bits 0x30-0x4000 (16336)
*      |until 0x3fff.7 (16336)                         |                |
       |                                               |                |  files[0:2]: 0x4000-0x1c0d8 (98520)
       |00 01 02 03 04 05 06 07 08 09 0a 0b 0c 0d 0e 0f|0123456789abcdef|    [0]{}: file (macho) 0x4000-0xc0b8 (32952)
       |                                               |                |      header{}: 0x4000-0x4020 (32)
       |                                               |                |        arch_bits: 64
0x04000|cf fa ed fe                                    |....            |        magic: "64le" (0xfeedfacf) (64-bit little endian) 0x4000-0x4004 (4)
       |                                               |                |        bits: 64
0x04000|            07 00 00 01                        |    ....        |        cputype: "x86_64" (0x1000007) 0x4004-0x4008 (4)
0x04000|                        03 00 00 00            |        ....    |        cpusubtype: 0x3 0x4008-0x400c (4)
0x04000|                                    06 00 00 00|            ....|        filetype: "dylib" (6) 0x400c-0x4010 (4)
0x04010|0d 00 00 00                                    |....            |        ncdms: 13 0x4010-0x4014 (4)
0x04010|            a8 04 00 00                        |    ....        |        sizeofncdms: 1192 0x4014-0x4018 (4)
       |                                               |                |        flags{}: 0x4018-0x401c (4)
0x04010|                        85                     |        .       |          reserved: raw bits 0x4018-0x4018.6 (0.6)
0x04010|                        85                     |        .       |          app_extension_safe: false 0x4018.6-0x4018.7 (0.1)
0x04010|                        85                     |        .       |          no_heap_execution: true 0x4018.7-0x4019 (0.1)
0x04010|                           00                  |         .      |          has_tlv_descriptors: false 0x4019-0x4019.1 (0.1)
0x04010|                           00                  |         .      |          dead_strippable_dylib: false 0x4019.1-0x4019.2 (0.1)
0x04010|                           00                  |         .      |          pie: false 0x4019.2-0x4019.3 (0.1)
0x04010|                           00                  |         .      |          no_reexported_dylibs: false 0x4019.3-0x4019.4 (0.1)
0x04010|                           00                  |         .      |          setuid_safe: false 0x4019.4-0x4019.5 (0.1)
0x04010|                           00                  |         .      |          root_safe: false 0x4019.5-0x4019.6 (0.1)
0x04010|                           00                  |         .      |          allow_stack_execution: false 0x4019.6-0x4019.7 (0.1)
0x04010|                           00                  |         .      |          binds_to_weak: false 0x4019.7-0x401a (0.1)
0x04010|                              10               |          .     |          weak_defines: false 0x401a-0x401a.1 (0.1)
0x04010|                              10               |          .     |          canonical: false 0x401a.1-0x401a.2 (0.1)
0x04010|                              10               |          .     |          subsections_via_symbols: false 0x401a.2-0x401a.3 (0.1)
0x04010|                              10               |          .     |          allmodsbound: true 0x401a.3-0x401a.4 (0.1)
0x04010|                              10               |          .     |          prebindable: false 0x401a.4-0x401a.5 (0.1)
0x04010|                              10               |          .     |          nofixprebinding: false 0x401a.5-0x401a.6 (0.1)
0x04010|                              10               |          .     |          nomultidefs: false 0x401a.6-0x401a.7 (0.1)
0x04010|                              10               |          .     |          force_flat: false 0x401a.7-0x401b (0.1)
0x04010|                                 00            |           .    |          twolevel: false 0x401b-0x401b.1 (0.1)
0x04010|                                 00            |           .    |          lazy_init: false 0x401b.1-0x401b.2 (0.1)
0x04010|                                 00            |           .    |          split_segs: false 0x401b.2-0x401b.3 (0.1)
0x04010|                                 00            |           .    |          prebound: false 0x401b.3-0x401b.4 (0.1)
0x04010|                                 00            |           .    |          bindatload: false 0x401b.4-0x401b.5 (0.1)
0x04010|                                 00            |           .    |          dyldlink: false 0x401b.5-0x401b.6 (0.1)
0x04010|                                 00            |           .    |          incrlink: false 0x401b.6-0x401b.7 (0.1)
0x04010|                                 00            |           .    |          noundefs: false 0x401b.7-0x401c (0.1)
0x04010|                                    00 00 00 00|            ....|        reserved: raw bits (all zero) 0x401c-0x4020 (4)
       |                                               |                |      load_commands[0:13]: 0x4020-0xc0b8 (32920)
       |                                               |                |        [0]{}: load_command 0x4020-0x7ffc (16348)
0x04020|19 00 00 00                                    |....            |          cmd: "segment_64" (0x19) 0x4020-0x4024 (4)
0x04020|            d8 01 00 00                        |    ....        |          cmdsize: 472 0x4024-0x4028 (4)
       |                                               |                |          segment_command{}: 0x4028-0x4068 (64)
       |                                               |                |            arch_bits: 64
0x04020|                        5f 5f 54 45 58 54 00 00|        __TEXT..|            segname: "__TEXT" 0x4028-0x4038 (16)
0x04030|00 00 00 00 00 00 00 00                        |........        |
0x04030|                        00 00 00 00 00 00 00 00|        ........|            vmaddr: 0x0 0x4038-0x4040 (8)
0x04040|00 40 00 00 00 00 00 00                        |.@......        |            vmsize: 16384 0x4040-0x4048 (8)
0x04040|                        00 00 00 00 00 00 00 00|        ........|            fileoff: 0x0 0x4048-0x4050 (8)
0x04050|00 40 00 00 00 00 00 00                        |.@......        |            tfilesize: 16384 0x4050-0x4058 (8)
0x04050|                        05 00 00 00            |        ....    |            initprot: 5 0x4058-0x405c (4)
0x04050|                                    05 00 00 00|            ....|            maxprot: 5 0x405c-0x4060 (4)
0x04060|05 00 00 00                                    |....            |            nsects: 5 0x4060-0x4064 (4)
       |                                               |                |            flags{}: 0x4064-0x4068 (4)
0x04060|            00 00 00 00                        |    ....        |              reserved: raw bits 0x4064-0x4067.4 (3.4)
0x04060|                     00                        |       .        |              protected_version_1: false 0x4067.4-0x4067.5 (0.1)
0x04060|                     00                        |       .        |              noreloc: false 0x4067.5-0x4067.6 (0.1)
0x04060|                     00                        |       .        |              fvmlib: false 0x4067.6-0x4067.7 (0.1)
0x04060|                     00                        |       .        |              highvm: false 0x4067.7-0x4068 (0.1)
       |                                               |                |          sections[0:5]: 0x4068-0x7ffc (16276)
       |                                               |                |            [0]{}: section 0x4068-0x7f84 (16156)
0x04060|                        5f 5f 74 65 78 74 00 00|        __text..|              sectname: "__text" 0x4068-0x4078 (16)
0x04070|00 00 00 00 00 00 00 00                        |........        |
0x04070|                        5f 5f 54 45 58 54 00 00|        __TEXT..|              segname: "__TEXT" 0x4078-0x4088 (16)
0x04080|00 00 00 00 00 00 00 00                        |........        |
0x04080|                        70 3f 00 00 00 00 00 00|        p?......|              address: 0x3f70 0x4088-0x4090 (8)
0x04090|14 00 00 00 00 00 00 00                        |........        |              size: 20 0x4090-0x4098 (8)
0x04090|                        70 3f 00 00            |        p?..    |              offset: 0x3f70 0x4098-0x409c (4)
0x04090|                                    04 00 00 00|            ....|              align: 4 0x409c-0x40a0 (4)
0x040a0|00 00 00 00                                    |....            |              reloff: 0 0x40a0-0x40a4 (4)
0x040a0|            00 00 00 00                        |    ....        |              nreloc: 0 0x40a4-0x40a8 (4)
       |                                               |                |              flags{}: 0x40a8-0x40ab (3)
0x040a0|                        00                     |        .       |                attr_pure_instructions: false 0x40a8-0x40a8.1 (0.1)
0x040a0|                        00                     |        .       |                attr_no_toc: false 0x40a8.1-0x40a8.2 (0.1)
0x040a0|                        00                     |        .       |                attr_strip_static_syms: false 0x40a8.2-0x40a8.3 (0.1)
0x040a0|                        00                     |        .       |                attr_no_dead_strip: false 0x40a8.3-0x40a8.4 (0.1)
0x040a0|                        00                     |        .       |                attr_live_support: false 0x40a8.4-0x40a8.5 (0.1)
0x040a0|                        00                     |        .       |                attr_self_modifying_code: false 0x40a8.5-0x40a8.6 (0.1)
0x040a0|                        00                     |        .       |                attr_debug: false 0x40a8.6-0x40a8.7 (0.1)
0x040a0|                        00 04 00               |        ...     |                reserved: raw bits 0x40a8.7-0x40aa.5 (1.6)
0x040a0|                              00               |          .     |                attr_some_instructions: false 0x40aa.5-0x40aa.6 (0.1)
0x040a0|                              00               |          .     |                attr_ext_reloc: false 0x40aa.6-0x40aa.7 (0.1)
0x040a0|                              00               |          .     |                attr_loc_reloc: false 0x40aa.7-0x40ab (0.1)
0x040a0|                                 80            |           .    |              type: 128 0x40ab-0x40ac (1)
0x040a0|                                    00 00 00 00|            ....|              reserved1: 0 0x40ac-0x40b0 (4)
0x040b0|00 00 00 00                                    |....            |              reserved2: 0 0x40b0-0x40b4 (4)
0x040b0|            00 00 00 00                        |    ....        |              reserved3: 0 0x40b4-0x40b8 (4)
0x07f70|55 48 89 e5 48 8d 3d 2b 00 00 00 b0 00 e8 02 00|UH..H.=+........|              data: raw bits 0x7f70-0x7f84 (20)
0x07f80|00 00 5d c3                                    |..].            |
       |                                               |                |            [1]{}: section 0x40b8-0x7f8a (16082)
0x040b0|                        5f 5f 73 74 75 62 73 00|        __stubs.|              sectname: "__stubs" 0x40b8-0x40c8 (16)
0x040c0|00 00 00 00 00 00 00 00                        |........        |
0x040c0|                        5f 5f 54 45 58 54 00 00|        __TEXT..|              segname: "__TEXT" 0x40c8-0x40d8 (16)
0x040d0|00 00 00 00 00 00 00 00                        |........        |
0x040d0|                        84 3f 00 00 00 00 00 00|        .?......|              address: 0x3f84 0x40d8-0x40e0 (8)
0x040e0|06 00 00 00 00 00 00 00                        |........        |              size: 6 0x40e0-0x40e8 (8)
0x040e0|                        84 3f 00 00            |        .?..    |              offset: 0x3f84 0x40e8-0x40ec (4)
0x040e0|                                    01 00 00 00|            ....|              align: 1 0x40ec-0x40f0 (4)
0x040f0|00 00 00 00                                    |....            |              reloff: 0 0x40f0-0x40f4 (4)
0x040f0|            00 00 00 00                        |    ....        |              nreloc: 0 0x40f4-0x40f8 (4)
       |                                               |                |              flags{}: 0x40f8-0x40fb (3)
0x040f0|                        08                     |        .       |                attr_pure_instructions: false 0x40f8-0x40f8.1 (0.1)
0x040f0|                        08                     |        .       |                attr_no_toc: false 0x40f8.1-0x40f8.2 (0.1)
0x040f0|                        08                     |        .       |                attr_strip_static_syms: false 0x40f8.2-0x40f8.3 (0.1)
0x040f0|                        08                     |        .       |                attr_no_dead_strip: false 0x40f8.3-0x40f8.4 (0.1)
0x040f0|                        08                     |        .       |                attr_live_support: true 0x40f8.4-0x40f8.5 (0.1)
0x040f0|                        08                     |        .       |                attr_self_modifying_code: false 0x40f8.5-0x40f8.6 (0.1)
0x040f0|                        08                     |        .       |                attr_debug: false 0x40f8.6-0x40f8.7 (0.1)
0x040f0|                        08 04 00               |        ...     |                reserved: raw bits 0x40f8.7-0x40fa.5 (1.6)
0x040f0|                              00               |          .     |                attr_some_instructions: false 0x40fa.5-0x40fa.6 (0.1)
0x040f0|                              00               |          .     |                attr_ext_reloc: false 0x40fa.6-0x40fa.7 (0.1)
0x040f0|                              00               |          .     |                attr_loc_reloc: false 0x40fa.7-0x40fb (0.1)
0x040f0|                                 80            |           .    |              type: 128 0x40fb-0x40fc (1)
0x040f0|                                    00 00 00 00|            ....|              reserved1: 0 0x40fc-0x4100 (4)
0x04100|06 00 00 00                                    |....            |              reserved2: 6 0x4100-0x4104 (4)
0x04100|            00 00 00 00                        |    ....        |              reserved3: 0 0x4104-0x4108 (4)
0x07f80|            ff 25 86 00 00 00                  |    .%....      |              data: raw bits 0x7f84-0x7f8a (6)
       |                                               |                |            [2]{}: section 0x4108-0x7fa6 (16030)
0x04100|                        5f 5f 73 74 75 62 5f 68|        __stub_h|              sectname: "__stub_helper" 0x4108-0x4118 (16)
0x04110|65 6c 70 65 72 00 00 00                        |elper...        |
0x04110|                        5f 5f 54 45 58 54 00 00|        __TEXT..|              segname: "__TEXT" 0x4118-0x4128 (16)
0x04120|00 00 00 00 00 00 00 00                        |........        |
0x04120|                        8c 3f 00 00 00 00 00 00|        .?......|              address: 0x3f8c 0x4128-0x4130 (8)
0x04130|1a 00 00 00 00 00 00 00                        |........        |              size: 26 0x4130-0x4138 (8)
0x04130|                        8c 3f 00 00            |        .?..    |              offset: 0x3f8c 0x4138-0x413c (4)
0x04130|                                    02 00 00 00|            ....|              align: 2 0x413c-0x4140 (4)
0x04140|00 00 00 00                                    |....            |              reloff: 0 0x4140-0x4144 (4)
0x04140|            00 00 00 00                        |    ....        |              nreloc: 0 0x4144-0x4148 (4)
       |                                               |                |              flags{}: 0x4148-0x414b (3)
0x04140|                        00                     |        .       |                attr_pure_instructions: false 0x4148-0x4148.1 (0.1)
0x04140|                        00                     |        .       |                attr_no_toc: false 0x4148.1-0x4148.2 (0.1)
0x04140|                        00                     |        .       |                attr_strip_static_syms: false 0x4148.2-0x4148.3 (0.1)
0x04140|                        00                     |        .       |                attr_no_dead_strip: false 0x4148.3-0x4148.4 (0.1)
0x04140|                        00                     |        .       |                attr_live_support: false 0x4148.4-0x4148.5 (0.1)
0x04140|                        00                     |        .       |                attr_self_modifying_code: false 0x4148.5-0x4148.6 (0.1)
0x04140|                        00                     |        .       |                attr_debug: false 0x4148.6-0x4148.7 (0.1)
0x04140|                        00 04 00               |        ...     |                reserved: raw bits 0x4148.7-0x414a.5 (1.6)
0x04140|                              00               |          .     |                attr_some_instructions: false 0x414a.5-0x414a.6 (0.1)
0x04140|                              00               |          .     |                attr_ext_reloc: false 0x414a.6-0x414a.7 (0.1)
0x04140|                              00               |          .     |                attr_loc_reloc: false 0x414a.7-0x414b (0.1)
0x04140|                                 80            |           .    |              type: 128 0x414b-0x414c (1)
0x04140|                                    00 00 00 00|            ....|              reserved1: 0 0x414c-0x4150 (4)
0x04150|00 00 00 00                                    |....            |              reserved2: 0 0x4150-0x4154 (4)
0x04150|            00 00 00 00                        |    ....        |              reserved3: 0 0x4154-0x4158 (4)
0x07f80|                                    4c 8d 1d 6d|            L..m|              data: raw bits 0x7f8c-0x7fa6 (26)
0x07f90|00 00 00 41 53 ff 25 6d 00 00 00 90 68 00 00 00|...AS.%m....h...|
0x07fa0|00 e9 e6 ff ff ff                              |......          |
       |                                               |                |            [3]{}: section 0x4158-0x7fb2 (15962)
0x04150|                        5f 5f 63 73 74 72 69 6e|        __cstrin|              sectname: "__cstring" 0x4158-0x4168 (16)
0x04160|67 00 00 00 00 00 00 00                        |g.......        |
0x04160|                        5f 5f 54 45 58 54 00 00|        __TEXT..|              segname: "__TEXT" 0x4168-0x4178 (16)
0x04170|00 00 00 00 00 00 00 00                        |........        |
0x04170|                        a6 3f 00 00 00 00 00 00|        .?......|              address: 0x3fa6 0x4178-0x4180 (8)
0x04180|0c 00 00 00 00 00 00 00                        |........        |              size: 12 0x4180-0x4188 (8)
0x04180|                        a6 3f 00 00            |        .?..    |              offset: 0x3fa6 0x4188-0x418c (4)
0x04180|                                    00 00 00 00|            ....|              align: 0 0x418c-0x4190 (4)
0x04190|00 00 00 00                                    |....            |              reloff: 0 0x4190-0x4194 (4)
0x04190|            00 00 00 00                        |    ....        |              nreloc: 0 0x4194-0x4198 (4)
       |                                               |                |              flags{}: 0x4198-0x419b (3)
0x04190|                        02                     |        .       |                attr_pure_instructions: false 0x4198-0x4198.1 (0.1)
0x04190|                        02                     |        .       |                attr_no_toc: false 0x4198.1-0x4198.2 (0.1)
0x04190|                        02                     |        .       |                attr_strip_static_syms: false 0x4198.2-0x4198.3 (0.1)
0x04190|                        02                     |        .       |                attr_no_dead_strip: false 0x4198.3-0x4198.4 (0.1)
0x04190|                        02                     |        .       |                attr_live_support: false 0x4198.4-0x4198.5 (0.1)
0x04190|                        02                     |        .       |                attr_self_modifying_code: false 0x4198.5-0x4198.6 (0.1)
0x04190|                        02                     |        .       |                attr_debug: true 0x4198.6-0x4198.7 (0.1)
0x04190|                        02 00 00               |        ...     |                reserved: raw bits 0x4198.7-0x419a.5 (1.6)
0x04190|                              00               |          .     |                attr_some_instructions: false 0x419a.5-0x419a.6 (0.1)
0x04190|                              00               |          .     |                attr_ext_reloc: false 0x419a.6-0x419a.7 (0.1)
0x04190|                              00               |          .     |                attr_loc_reloc: false 0x419a.7-0x419b (0.1)
0x04190|                                 00            |           .    |              type: "regular" (0) 0x419b-0x419c (1)
0x04190|                                    00 00 00 00|            ....|              reserved1: 0 0x419c-0x41a0 (4)
0x041a0|00 00 00 00                                    |....            |              reserved2: 0 0x41a0-0x41a4 (4)
0x041a0|            00 00 00 00                        |    ....        |              reserved3: 0 0x41a4-0x41a8 (4)
       |                                               |                |              cstrings[0:1]: 0x7fa6-0x7fb2 (12)
0x07fa0|                  6c 69 62 62 62 62 5f 62 62 62|      libbbb_bbb|                [0]: "libbbb_bbb\n" cstring 0x7fa6-0x7fb2 (12)
0x07fb0|0a 00                                          |..              |
       |                                               |                |            [4]{}: section 0x41a8-0x7ffc (15956)
0x041a0|                        5f 5f 75 6e 77 69 6e 64|        __unwind|              sectname: "__unwind_info" 0x41a8-0x41b8 (16)
0x041b0|5f 69 6e 66 6f 00 00 00                        |_info...        |
0x041b0|                        5f 5f 54 45 58 54 00 00|        __TEXT..|              segname: "__TEXT" 0x41b8-0x41c8 (16)
0x041c0|00 00 00 00 00 00 00 00                        |........        |
0x041c0|                        b4 3f 00 00 00 00 00 00|        .?......|              address: 0x3fb4 0x41c8-0x41d0 (8)
0x041d0|48 00 00 00 00 00 00 00                        |H.......        |              size: 72 0x41d0-0x41d8 (8)
0x041d0|                        b4 3f 00 00            |        .?..    |              offset: 0x3fb4 0x41d8-0x41dc (4)
0x041d0|                                    02 00 00 00|            ....|              align: 2 0x41dc-0x41e0 (4)
0x041e0|00 00 00 00                                    |....            |              reloff: 0 0x41e0-0x41e4 (4)
0x041e0|            00 00 00 00                        |    ....        |              nreloc: 0 0x41e4-0x41e8 (4)
       |                                               |                |              flags{}: 0x41e8-0x41eb (3)
0x041e0|                        00                     |        .       |                attr_pure_instructions: false 0x41e8-0x41e8.1 (0.1)
0x041e0|                        00                     |        .       |                attr_no_toc: false 0x41e8.1-0x41e8.2 (0.1)
0x041e0|                        00                     |        .       |                attr_strip_static_syms: false 0x41e8.2-0x41e8.3 (0.1)
0x041e0|                        00                     |        .       |                attr_no_dead_strip: false 0x41e8.3-0x41e8.4 (0.1)
0x041e0|                        00                     |        .       |                attr_live_support: false 0x41e8.4-0x41e8.5 (0.1)
0x041e0|                        00                     |        .       |                attr_self_modifying_code: false 0x41e8.5-0x41e8.6 (0.1)
0x041e0|                        00                     |        .       |                attr_debug: false 0x41e8.6-0x41e8.7 (0.1)
0x041e0|                        00 00 00               |        ...     |                reserved: raw bits 0x41e8.7-0x41ea.5 (1.6)
0x041e0|                              00               |          .     |                attr_some_instructions: false 0x41ea.5-0x41ea.6 (0.1)
0x041e0|                              00               |          .     |                attr_ext_reloc: false 0x41ea.6-0x41ea.7 (0.1)
0x041e0|                              00               |          .     |                attr_loc_reloc: false 0x41ea.7-0x41eb (0.1)
0x041e0|                                 00            |           .    |              type: "regular" (0) 0x41eb-0x41ec (1)
0x041e0|                                    00 00 00 00|            ....|              reserved1: 0 0x41ec-0x41f0 (4)
0x041f0|00 00 00 00                                    |....            |              reserved2: 0 0x41f0-0x41f4 (4)
0x041f0|            00 00 00 00                        |    ....        |              reserved3: 0 0x41f4-0x41f8 (4)
0x07fb0|            01 00 00 00 1c 00 00 00 00 00 00 00|    ............|              data: raw bits 0x7fb4-0x7ffc (72)
0x07fc0|1c 00 00 00 00 00 00 00 1c 00 00 00 02 00 00 00|................|
*      |until 0x7ffb.7 (72)                            |                |
       |                                               |                |        [1]{}: load_command 0x41f8-0x8018 (15904)
0x041f0|                        19 00 00 00            |        ....    |          cmd: "segment_64" (0x19) 0x41f8-0x41fc (4)
0x041f0|                                    38 01 00 00|            8...|          cmdsize: 312 0x41fc-0x4200 (4)
       |                                               |                |          segment_command{}: 0x4200-0x4240 (64)
       |                                               |                |            arch_bits: 64
0x04200|5f 5f 44 41 54 41 00 00 00 00 00 00 00 00 00 00|__DATA..........|            segname: "__DATA" 0x4200-0x4210 (16)
0x04210|00 40 00 00 00 00 00 00                        |.@......        |            vmaddr: 0x4000 0x4210-0x4218 (8)
0x04210|                        00 40 00 00 00 00 00 00|        .@......|            vmsize: 16384 0x4218-0x4220 (8)
0x04220|00 40 00 00 00 00 00 00                        |.@......        |            fileoff: 0x4000 0x4220-0x4228 (8)
0x04220|                        00 40 00 00 00 00 00 00|        .@......|            tfilesize: 16384 0x4228-0x4230 (8)
0x04230|03 00 00 00                                    |....            |            initprot: 3 0x4230-0x4234 (4)
0x04230|            03 00 00 00                        |    ....        |            maxprot: 3 0x4234-0x4238 (4)
0x04230|                        03 00 00 00            |        ....    |            nsects: 3 0x4238-0x423c (4)
       |                                               |                |            flags{}: 0x423c-0x4240 (4)
0x04230|                                    00 00 00 00|            ....|              reserved: raw bits 0x423c-0x423f.4 (3.4)
0x04230|                                             00|               .|              protected_version_1: false 0x423f.4-0x423f.5 (0.1)
0x04230|                                             00|               .|              noreloc: false 0x423f.5-0x423f.6 (0.1)
0x04230|                                             00|               .|              fvmlib: false 0x423f.6-0x423f.7 (0.1)
0x04230|                                             00|               .|              highvm: false 0x423f.7-0x4240 (0.1)
       |                                               |                |          sections[0:3]: 0x4240-0x8018 (15832)
       |                                               |                |            [0]{}: section 0x4240-0x8008 (15816)
0x04240|5f 5f 6e 6c 5f 73 79 6d 62 6f 6c 5f 70 74 72 00|__nl_symbol_ptr.|              sectname: "__nl_symbol_ptr" 0x4240-0x4250 (16)
0x04250|5f 5f 44 41 54 41 00 00 00 00 00 00 00 00 00 00|__DATA..........|              segname: "__DATA" 0x4250-0x4260 (16)
0x04260|00 40 00 00 00 00 00 00                        |.@......        |              address: 0x4000 0x4260-0x4268 (8)
0x04260|                        08 00 00 00 00 00 00 00|        ........|              size: 8 0x4268-0x4270 (8)
0x04270|00 40 00 00                                    |.@..            |              offset: 0x4000 0x4270-0x4274 (4)
0x04270|            03 00 00 00                        |    ....        |              align: 3 0x4274-0x4278 (4)
0x04270|                        00 00 00 00            |        ....    |              reloff: 0 0x4278-0x427c (4)
0x04270|                                    00 00 00 00|            ....|              nreloc: 0 0x427c-0x4280 (4)
       |                                               |                |              flags{}: 0x4280-0x4283 (3)
0x04280|06                                             |.               |                attr_pure_instructions: false 0x4280-0x4280.1 (0.1)
0x04280|06                                             |.               |                attr_no_toc: false 0x4280.1-0x4280.2 (0.1)
0x04280|06                                             |.               |                attr_strip_static_syms: false 0x4280.2-0x4280.3 (0.1)
0x04280|06                                             |.               |                attr_no_dead_strip: false 0x4280.3-0x4280.4 (0.1)
0x04280|06                                             |.               |                attr_live_support: false 0x4280.4-0x4280.5 (0.1)
0x04280|06                                             |.               |                attr_self_modifying_code: true 0x4280.5-0x4280.6 (0.1)
0x04280|06                                             |.               |                attr_debug: true 0x4280.6-0x4280.7 (0.1)
0x04280|06 00 00                                       |...             |                reserved: raw bits 0x4280.7-0x4282.5 (1.6)
0x04280|      00                                       |  .             |                attr_some_instructions: false 0x4282.5-0x4282.6 (0.1)
0x04280|      00                                       |  .             |                attr_ext_reloc: false 0x4282.6-0x4282.7 (0.1)
0x04280|      00                                       |  .             |                attr_loc_reloc: false 0x4282.7-0x4283 (0.1)
0x04280|         00                                    |   .            |              type: "regular" (0) 0x4283-0x4284 (1)
0x04280|            01 00 00 00                        |    ....        |              reserved1: 1 0x4284-0x4288 (4)
0x04280|                        00 00 00 00            |        ....    |              reserved2: 0 0x4288-0x428c (4)
0x04280|                                    00 00 00 00|            ....|              reserved3: 0 0x428c-0x4290 (4)
0x08000|00 00 00 00 00 00 00 00                        |........        |              data: raw bits 0x8000-0x8008 (8)
       |                                               |                |            [1]{}: section 0x4290-0x8010 (15744)
0x04290|5f 5f 67 6f 74 00 00 00 00 00 00 00 00 00 00 00|__got...........|              sectname: "__got" 0x4290-0x42a0 (16)
0x042a0|5f 5f 44 41 54 41 00 00 00 00 00 00 00 00 00 00|__DATA..........|              segname: "__DATA" 0x42a0-0x42b0 (16)
0x042b0|08 40 00 00 00 00 00 00                        |.@......        |              address: 0x4008 0x42b0-0x42b8 (8)
0x042b0|                        08 00 00 00 00 00 00 00|        ........|              size: 8 0x42b8-0x42c0 (8)
0x042c0|08 40 00 00                                    |.@..            |              offset: 0x4008 0x42c0-0x42c4 (4)
0x042c0|            03 00 00 00                        |    ....        |              align: 3 0x42c4-0x42c8 (4)
0x042c0|                        00 00 00 00            |        ....    |              reloff: 0 0x42c8-0x42cc (4)
0x042c0|                                    00 00 00 00|            ....|              nreloc: 0 0x42cc-0x42d0 (4)
       |                                               |                |              flags{}: 0x42d0-0x42d3 (3)
0x042d0|06                                             |.               |                attr_pure_instructions: false 0x42d0-0x42d0.1 (0.1)
0x042d0|06                                             |.               |                attr_no_toc: false 0x42d0.1-0x42d0.2 (0.1)
0x042d0|06                                             |.               |                attr_strip_static_syms: false 0x42d0.2-0x42d0.3 (0.1)
0x042d0|06                                             |.               |                attr_no_dead_strip: false 0x42d0.3-0x42d0.4 (0.1)
0x042d0|06                                             |.               |                attr_live_support: false 0x42d0.4-0x42d0.5 (0.1)
0x042d0|06                                             |.               |                attr_self_modifying_code: true 0x42d0.5-0x42d0.6 (0.1)
0x042d0|06                                             |.               |                attr_debug: true 0x42d0.6-0x42d0.7 (0.1)
0x042d0|06 00 00                                       |...             |                reserved: raw bits 0x42d0.7-0x42d2.5 (1.6)
0x042d0|      00                                       |  .             |                attr_some_instructions: false 0x42d2.5-0x42d2.6 (0.1)
0x042d0|      00                                       |  .             |                attr_ext_reloc: false 0x42d2.6-0x42d2.7 (0.1)
0x042d0|      00                                       |  .             |                attr_loc_reloc: false 0x42d2.7-0x42d3 (0.1)
0x042d0|         00                                    |   .            |              type: "regular" (0) 0x42d3-0x42d4 (1)
0x042d0|            02 00 00 00                        |    ....        |              reserved1: 2 0x42d4-0x42d8 (4)
0x042d0|                        00 00 00 00            |        ....    |              reserved2: 0 0x42d8-0x42dc (4)
0x042d0|                                    00 00 00 00|            ....|              reserved3: 0 0x42dc-0x42e0 (4)
0x08000|                        00 00 00 00 00 00 00 00|        ........|              data: raw bits 0x8008-0x8010 (8)
       |                                               |                |            [2]{}: section 0x42e0-0x8018 (15672)
0x042e0|5f 5f 6c 61 5f 73 79 6d 62 6f 6c 5f 70 74 72 00|__la_symbol_ptr.|              sectname: "__la_symbol_ptr" 0x42e0-0x42f0 (16)
0x042f0|5f 5f 44 41 54 41 00 00 00 00 00 00 00 00 00 00|__DATA..........|              segname: "__DATA" 0x42f0-0x4300 (16)
0x04300|10 40 00 00 00 00 00 00                        |.@......        |              address: 0x4010 0x4300-0x4308 (8)
0x04300|                        08 00 00 00 00 00 00 00|        ........|              size: 8 0x4308-0x4310 (8)
0x04310|10 40 00 00                                    |.@..            |              offset: 0x4010 0x4310-0x4314 (4)
0x04310|            03 00 00 00                        |    ....        |              align: 3 0x4314-0x4318 (4)
0x04310|                        00 00 00 00            |        ....    |              reloff: 0 0x4318-0x431c (4)
0x04310|                                    00 00 00 00|            ....|              nreloc: 0 0x431c-0x4320 (4)
       |                                               |                |              flags{}: 0x4320-0x4323 (3)
0x04320|07                                             |.               |                attr_pure_instructions: false 0x4320-0x4320.1 (0.1)
0x04320|07                                             |.               |                attr_no_toc: false 0x4320.1-0x4320.2 (0.1)
0x04320|07                                             |.               |                attr_strip_static_syms: false 0x4320.2-0x4320.3 (0.1)
0x04320|07                                             |.               |                attr_no_dead_strip: false 0x4320.3-0x4320.4 (0.1)
0x04320|07                                             |.               |                attr_live_support: false 0x4320.4-0x4320.5 (0.1)
0x04320|07                                             |.               |                attr_self_modifying_code: true 0x4320.5-0x4320.6 (0.1)
0x04320|07                                             |.               |                attr_debug: true 0x4320.6-0x4320.7 (0.1)
0x04320|07 00 00                                       |...             |                reserved: raw bits 0x4320.7-0x4322.5 (1.6)
0x04320|      00                                       |  .             |                attr_some_instructions: false 0x4322.5-0x4322.6 (0.1)
0x04320|      00                                       |  .             |                attr_ext_reloc: false 0x4322.6-0x4322.7 (0.1)
0x04320|      00                                       |  .             |                attr_loc_reloc: false 0x4322.7-0x4323 (0.1)
0x04320|         00                                    |   .            |              type: "regular" (0) 0x4323-0x4324 (1)
0x04320|            03 00 00 00                        |    ....        |              reserved1: 3 0x4324-0x4328 (4)
0x04320|                        00 00 00 00            |        ....    |              reserved2: 0 0x4328-0x432c (4)
0x04320|                                    00 00 00 00|            ....|              reserved3: 0 0x432c-0x4330 (4)
0x08010|9c 3f 00 00 00 00 00 00                        |.?......        |              data: raw bits 0x8010-0x8018 (8)
       |                                               |                |        [2]{}: load_command 0x4330-0x4378 (72)
0x04330|19 00 00 00                                    |....            |          cmd: "segment_64" (0x19) 0x4330-0x4334 (4)
0x04330|            48 00 00 00                        |    H...        |          cmdsize: 72 0x4334-0x4338 (4)
       |                                               |                |          segment_command{}: 0x4338-0x4378 (64)
       |                                               |                |            arch_bits: 64
0x04330|                        5f 5f 4c 49 4e 4b 45 44|        __LINKED|            segname: "__LINKEDIT" 0x4338-0x4348 (16)
0x04340|49 54 00 00 00 00 00 00                        |IT......        |
0x04340|                        00 80 00 00 00 00 00 00|        ........|            vmaddr: 0x8000 0x4348-0x4350 (8)
0x04350|00 40 00 00 00 00 00 00                        |.@......        |            vmsize: 16384 0x4350-0x4358 (8)
0x04350|                        00 80 00 00 00 00 00 00|        ........|            fileoff: 0x8000 0x4358-0x4360 (8)
0x04360|b8 00 00 00 00 00 00 00                        |........        |            tfilesize: 184 0x4360-0x4368 (8)
0x04360|                        01 00 00 00            |        ....    |            initprot: 1 0x4368-0x436c (4)
0x04360|                                    01 00 00 00|            ....|            maxprot: 1 0x436c-0x4370 (4)
0x04370|00 00 00 00                                    |....            |            nsects: 0 0x4370-0x4374 (4)
       |                                               |                |            flags{}: 0x4374-0x4378 (4)
0x04370|            00 00 00 00                        |    ....        |              reserved: raw bits 0x4374-0x4377.4 (3.4)
0x04370|                     00                        |       .        |              protected_version_1: false 0x4377.4-0x4377.5 (0.1)
0x04370|                     00                        |       .        |              noreloc: false 0x4377.5-0x4377.6 (0.1)
0x04370|                     00                        |       .        |              fvmlib: false 0x4377.6-0x4377.7 (0.1)
0x04370|                     00                        |       .        |              highvm: false 0x4377.7-0x4378 (0.1)
       |                                               |                |          sections[0:0]: 0x4378-0x4378 (0)
       |                                               |                |        [3]{}: load_command 0x4378-0x43a0 (40)
0x04370|                        0d 00 00 00            |        ....    |          cmd: "id_dylib" (0xd) 0x4378-0x437c (4)
0x04370|                                    28 00 00 00|            (...|          cmdsize: 40 0x437c-0x4380 (4)
       |                                               |                |          dylib_command{}: 0x4380-0x43a0 (32)
0x04380|18 00 00 00                                    |....            |            offset: 0x18 0x4380-0x4384 (4)
0x04380|            01 00 00 00                        |    ....        |            timestamp: "1970-01-01 00:00:00.001 +0000 UTC" (1) 0x4384-0x4388 (4)
0x04380|                        00 00 00 00            |        ....    |            current_version: 0 0x4388-0x438c (4)
0x04380|                                    00 00 00 00|            ....|            compatibility_version: 0 0x438c-0x4390 (4)
0x04390|6c 69 62 62 62 62 2e 73 6f 00 00 00 00 00 00 00|libbbb.so.......|            name: "libbbb.so" 0x4390-0x43a0 (16)
       |                                               |                |        [4]{}: load_command 0x43a0-0x43d0 (48)
0x043a0|22 00 00 80                                    |"...            |          cmd: "dyld_info_only" (0x80000022) 0x43a0-0x43a4 (4)
0x043a0|            30 00 00 00                        |    0...        |          cmdsize: 48 0x43a4-0x43a8 (4)
       |                                               |                |          dyld_info{}: 0x43a8-0x43d0 (40)
0x043a0|                        00 80 00 00            |        ....    |            rebase_off: 0x8000 0x43a8-0x43ac (4)
0x043a0|                                    08 00 00 00|            ....|            rebase_size: 8 0x43ac-0x43b0 (4)
0x043b0|08 80 00 00                                    |....            |            bind_off: 0x8008 0x43b0-0x43b4 (4)
0x043b0|            18 00 00 00                        |    ....        |            bind_size: 24 0x43b4-0x43b8 (4)
0x043b0|                        00 00 00 00            |        ....    |            weak_bind_off: 0x0 0x43b8-0x43bc (4)
0x043b0|                                    00 00 00 00|            ....|            weak_bind_size: 0 0x43bc-0x43c0 (4)
0x043c0|20 80 00 00                                    | ...            |            lazy_bind_off: 0x8020 0x43c0-0x43c4 (4)
0x043c0|            10 00 00 00                        |    ....        |            lazy_bind_size: 16 0x43c4-0x43c8 (4)
0x043c0|                        30 80 00 00            |        0...    |            export_off: 0x8030 0x43c8-0x43cc (4)
0x043c0|                                    18 00 00 00|            ....|            export_size: 24 0x43cc-0x43d0 (4)
       |                                               |                |        [5]{}: load_command 0x43d0-0xc0b8 (31976)
0x043d0|02 00 00 00                                    |....            |          cmd: "symtab" (0x2) 0x43d0-0x43d4 (4)
0x043d0|            18 00 00 00                        |    ....        |          cmdsize: 24 0x43d4-0x43d8 (4)
0x043d0|                        50 80 00 00            |        P...    |          symoff: 32848 0x43d8-0x43dc (4)
0x043d0|                                    03 00 00 00|            ....|          nsyms: 3 0x43dc-0x43e0 (4)
0x043e0|90 80 00 00                                    |....            |          stroff: 32912 0x43e0-0x43e4 (4)
0x043e0|            28 00 00 00                        |    (...        |          strsize: 40 0x43e4-0x43e8 (4)
       |                                               |                |          symbols[0:3]: 0xc050-0xc080 (48)
       |                                               |                |            [0]{}: symbol 0xc050-0xc060 (16)
0x0c050|02 00 00 00                                    |....            |              strx: "_libbbb_bbb" (2) 0xc050-0xc054 (4)
       |                                               |                |              type{}: 0xc054-0xc055 (1)
0x0c050|            0f                                 |    .           |                stab: 0 0xc054-0xc054.3 (0.3)
0x0c050|            0f                                 |    .           |                pext: 0 0xc054.3-0xc054.4 (0.1)
0x0c050|            0f                                 |    .           |                type: "sect" (7) 0xc054.4-0xc054.7 (0.3)
0x0c050|            0f                                 |    .           |                ext: 1 0xc054.7-0xc055 (0.1)
0x0c050|               01                              |     .          |              sect: 1 0xc055-0xc056 (1)
0x0c050|                  00 00                        |      ..        |              desc: 0 0xc056-0xc058 (2)
0x0c050|                        70 3f 00 00 00 00 00 00|        p?......|              value: 0x3f70 0xc058-0xc060 (8)
       |                                               |                |            [1]{}: symbol 0xc060-0xc070 (16)
0x0c060|0e 00 00 00                                    |....            |              strx: "_printf" (14) 0xc060-0xc064 (4)
       |                                               |                |              type{}: 0xc064-0xc065 (1)
0x0c060|            01                                 |    .           |                stab: 0 0xc064-0xc064.3 (0.3)
0x0c060|            01                                 |    .           |                pext: 0 0xc064.3-0xc064.4 (0.1)
0x0c060|            01                                 |    .           |                type: "undef" (0) 0xc064.4-0xc064.7 (0.3)
0x0c060|            01                                 |    .           |                ext: 1 0xc064.7-0xc065 (0.1)
0x0c060|               00                              |     .          |              sect: 0 0xc065-0xc066 (1)
0x0c060|                  00 01                        |      ..        |              desc: 256 0xc066-0xc068 (2)
0x0c060|                        00 00 00 00 00 00 00 00|        ........|              value: 0x0 0xc068-0xc070 (8)
       |                                               |                |            [2]{}: symbol 0xc070-0xc080 (16)
0x0c070|16 00 00 00                                    |....            |              strx: "dyld_stub_binder" (22) 0xc070-0xc074 (4)
       |                                               |                |              type{}: 0xc074-0xc075 (1)
0x0c070|            01                                 |    .           |                stab: 0 0xc074-0xc074.3 (0.3)
0x0c070|            01                                 |    .           |                pext: 0 0xc074.3-0xc074.4 (0.1)
0x0c070|            01                                 |    .           |                type: "undef" (0) 0xc074.4-0xc074.7 (0.3)
0x0c070|            01                                 |    .           |                ext: 1 0xc074.7-0xc075 (0.1)
0x0c070|               00                              |     .          |              sect: 0 0xc075-0xc076 (1)
0x0c070|                  00 01                        |      ..        |              desc: 256 0xc076-0xc078 (2)
0x0c070|                        00 00 00 00 00 00 00 00|        ........|              value: 0x0 0xc078-0xc080 (8)
0x0c090|20 00 5f 6c 69 62 62 62 62 5f 62 62 62 00 5f 70| ._libbbb_bbb._p|          str_table: raw bits 0xc090-0xc0b8 (40)
*      |until 0xc0b7.7 (40)                            |                |
       |                                               |                |        [6]{}: load_command 0x43e8-0x4438 (80)
0x043e0|                        0b 00 00 00            |        ....    |          cmd: "dysymtab" (0xb) 0x43e8-0x43ec (4)
0x043e0|                                    50 00 00 00|            P...|          cmdsize: 80 0x43ec-0x43f0 (4)
0x043f0|00 00 00 00                                    |....            |          ilocalsym: 0 0x43f0-0x43f4 (4)
0x043f0|            00 00 00 00                        |    ....        |          nlocalsym: 0 0x43f4-0x43f8 (4)
0x043f0|                        00 00 00 00            |        ....    |          iextdefsym: 0 0x43f8-0x43fc (4)
0x043f0|                                    01 00 00 00|            ....|          nextdefsym: 1 0x43fc-0x4400 (4)
0x04400|01 00 00 00                                    |....            |          iundefsym: 1 0x4400-0x4404 (4)
0x04400|            02 00 00 00                        |    ....        |          nundefsym: 2 0x4404-0x4408 (4)
0x04400|                        00 00 00 00            |        ....    |          tocoff: 0 0x4408-0x440c (4)
0x04400|                                    00 00 00 00|            ....|          ntoc: 0 0x440c-0x4410 (4)
0x04410|00 00 00 00                                    |....            |          modtaboff: 0 0x4410-0x4414 (4)
0x04410|            00 00 00 00                        |    ....        |          nmodtab: 0 0x4414-0x4418 (4)
0x04410|                        00 00 00 00            |        ....    |          extrefsymoff: 0 0x4418-0x441c (4)
0x04410|                                    00 00 00 00|            ....|          nextrefsyms: 0 0x441c-0x4420 (4)
0x04420|80 80 00 00                                    |....            |          indirectsymoff: 32896 0x4420-0x4424 (4)
0x04420|            04 00 00 00                        |    ....        |          nindirectsyms: 4 0x4424-0x4428 (4)
0x04420|                        00 00 00 00            |        ....    |          extreloff: 0 0x4428-0x442c (4)
0x04420|                                    00 00 00 00|            ....|          nextrel: 0 0x442c-0x4430 (4)
0x04430|00 00 00 00                                    |....            |          locreloff: 0 0x4430-0x4434 (4)
0x04430|            00 00 00 00                        |    ....        |          nlocrel: 0 0x4434-0x4438 (4)
       |                                               |                |        [7]{}: load_command 0x4438-0x4450 (24)
0x04430|                        1b 00 00 00            |        ....    |          cmd: "uuid" (0x1b) 0x4438-0x443c (4)
0x04430|                                    18 00 00 00|            ....|          cmdsize: 24 0x443c-0x4440 (4)
       |                                               |                |          uuid_command{}: 0x4440-0x4450 (16)
0x04440|ba 44 d8 2a d6 94 39 2a b5 6d 01 5b 7e ab 7f 67|.D.*..9*.m.[~..g|            uuid: raw bits 0x4440-0x4450 (16)
       |                                               |                |        [8]{}: load_command 0x4450-0x4460 (16)
0x04450|24 00 00 00                                    |$...            |          cmd: "version_min_macosx" (0x24) 0x4450-0x4454 (4)
0x04450|            10 00 00 00                        |    ....        |          cmdsize: 16 0x4454-0x4458 (4)
0x04450|                        00 0c 0a 00            |        ....    |          version: 658432 0x4458-0x445c (4)
0x04450|                                    00 01 0c 00|            ....|          sdk: 786688 0x445c-0x4460 (4)
       |                                               |                |        [9]{}: load_command 0x4460-0x4470 (16)
0x04460|2a 00 00 00                                    |*...            |          cmd: "source_version" (0x2a) 0x4460-0x4464 (4)
0x04460|            10 00 00 00                        |    ....        |          cmdsize: 16 0x4464-0x4468 (4)
       |                                               |                |          source_version_tag{}: 0x4468-0x4470 (8)
0x04460|                        00 00 00 00 00 00 00 00|        ........|            tag: 0 0x4468-0x4470 (8)
       |                                               |                |        [10]{}: load_command 0x4470-0x44a8 (56)
0x04470|0c 00 00 00                                    |....            |          cmd: "load_dylib" (0xc) 0x4470-0x4474 (4)
0x04470|            38 00 00 00                        |    8...        |          cmdsize: 56 0x4474-0x4478 (4)
       |                                               |                |          dylib_command{}: 0x4478-0x44a8 (48)
0x04470|                        18 00 00 00            |        ....    |            offset: 0x18 0x4478-0x447c (4)
0x04470|                                    02 00 00 00|            ....|            timestamp: "1970-01-01 00:00:00.002 +0000 UTC" (2) 0x447c-0x4480 (4)
0x04480|00 00 1f 05                                    |....            |            current_version: 85917696 0x4480-0x4484 (4)
0x04480|            00 00 01 00                        |    ....        |            compatibility_version: 65536 0x4484-0x4488 (4)
0x04480|                        2f 75 73 72 2f 6c 69 62|        /usr/lib|            name: "/usr/lib/libSystem.B.dylib" 0x4488-0x44a8 (32)
0x04490|2f 6c 69 62 53 79 73 74 65 6d 2e 42 2e 64 79 6c|/libSystem.B.dyl|
0x044a0|69 62 00 00 00 00 00 00                        |ib......        |
       |                                               |                |        [11]{}: load_command 0x44a8-0x44b8 (16)
0x044a0|                        26 00 00 00            |        &...    |          cmd: "function_starts" (0x26) 0x44a8-0x44ac (4)
0x044a0|                                    10 00 00 00|            ....|          cmdsize: 16 0x44ac-0x44b0 (4)
       |                                               |                |          linkedit_data{}: 0x44b0-0x44b8 (8)
0x044b0|48 80 00 00                                    |H...            |            off: 32840 0x44b0-0x44b4 (4)
0x044b0|            08 00 00 00                        |    ....        |            size: 8 0x44b4-0x44b8 (4)
       |                                               |                |        [12]{}: load_command 0x44b8-0x44c8 (16)
0x044b0|                        29 00 00 00            |        )...    |          cmd: "data_in_code" (0x29) 0x44b8-0x44bc (4)
0x044b0|                                    10 00 00 00|            ....|          cmdsize: 16 0x44bc-0x44c0 (4)
       |                                               |                |          linkedit_data{}: 0x44c0-0x44c8 (8)
0x044c0|50 80 00 00                                    |P...            |            off: 32848 0x44c0-0x44c4 (4)
0x044c0|            00 00 00 00                        |    ....        |            size: 0 0x44c4-0x44c8 (4)
       |00 01 02 03 04 05 06 07 08 09 0a 0b 0c 0d 0e 0f|0123456789abcdef|    [1]{}: file (macho) 0x10000-0x1c0d8 (49368)
       |                                               |                |      header{}: 0x10000-0x10020 (32)
       |                                               |                |        arch_bits: 64
0x10000|cf fa ed fe                                    |....            |        magic: "64le" (0xfeedfacf) (64-bit little endian) 0x10000-0x10004 (4)
       |                                               |                |        bits: 64
0x10000|            0c 00 00 01                        |    ....        |        cputype: "arm64" (0x100000c) 0x10004-0x10008 (4)
0x10000|                        00 00 00 00            |        ....    |        cpusubtype: 0x0 0x10008-0x1000c (4)
0x10000|                                    06 00 00 00|            ....|        filetype: "dylib" (6) 0x1000c-0x10010 (4)
0x10010|0f 00 00 00                                    |....            |        ncdms: 15 0x10010-0x10014 (4)
0x10010|            10 05 00 00                        |    ....        |        sizeofncdms: 1296 0x10014-0x10018 (4)
       |                                               |                |        flags{}: 0x10018-0x1001c (4)
0x10010|                        85                     |        .       |          reserved: raw bits 0x10018-0x10018.6 (0.6)
0x10010|                        85                     |        .       |          app_extension_safe: false 0x10018.6-0x10018.7 (0.1)
0x10010|                        85                     |        .       |          no_heap_execution: true 0x10018.7-0x10019 (0.1)
0x10010|                           00                  |         .      |          has_tlv_descriptors: false 0x10019-0x10019.1 (0.1)
0x10010|                           00                  |         .      |          dead_strippable_dylib: false 0x10019.1-0x10019.2 (0.1)
0x10010|                           00                  |         .      |          pie: false 0x10019.2-0x10019.3 (0.1)
0x10010|                           00                  |         .      |          no_reexported_dylibs: false 0x10019.3-0x10019.4 (0.1)
0x10010|                           00                  |         .      |          setuid_safe: false 0x10019.4-0x10019.5 (0.1)
0x10010|                           00                  |         .      |          root_safe: false 0x10019.5-0x10019.6 (0.1)
0x10010|                           00                  |         .      |          allow_stack_execution: false 0x10019.6-0x10019.7 (0.1)
0x10010|                           00                  |         .      |          binds_to_weak: false 0x10019.7-0x1001a (0.1)
0x10010|                              10               |          .     |          weak_defines: false 0x1001a-0x1001a.1 (0.1)
0x10010|                              10               |          .     |          canonical: false 0x1001a.1-0x1001a.2 (0.1)
0x10010|                              10               |          .     |          subsections_via_symbols: false 0x1001a.2-0x1001a.3 (0.1)
0x10010|                              10               |          .     |          allmodsbound: true 0x1001a.3-0x1001a.4 (0.1)
0x10010|                              10               |          .     |          prebindable: false 0x1001a.4-0x1001a.5 (0.1)
0x10010|                              10               |          .     |          nofixprebinding: false 0x1001a.5-0x1001a.6 (0.1)
0x10010|                              10               |          .     |          nomultidefs: false 0x1001a.6-0x1001a.7 (0.1)
0x10010|                              10               |          .     |          force_flat: false 0x1001a.7-0x1001b (0.1)
0x10010|                                 00            |           .    |          twolevel: false 0x1001b-0x1001b.1 (0.1)
0x10010|                                 00            |           .    |          lazy_init: false 0x1001b.1-0x1001b.2 (0.1)
0x10010|                                 00            |           .    |          split_segs: false 0x1001b.2-0x1001b.3 (0.1)
0x10010|                                 00            |           .    |          prebound: false 0x1001b.3-0x1001b.4 (0.1)
0x10010|                                 00            |           .    |          bindatload: false 0x1001b.4-0x1001b.5 (0.1)
0x10010|                                 00            |           .    |          dyldlink: false 0x1001b.5-0x1001b.6 (0.1)
0x10010|                                 00            |           .    |          incrlink: false 0x1001b.6-0x1001b.7 (0.1)
0x10010|                                 00            |           .    |          noundefs: false 0x1001b.7-0x1001c (0.1)
0x10010|                                    00 00 00 00|            ....|        reserved: raw bits (all zero) 0x1001c-0x10020 (4)
       |                                               |                |      load_commands[0:15]: 0x10020-0x1c0d8 (49336)
       |                                               |                |        [0]{}: load_command 0x10020-0x14000 (16352)
0x10020|19 00 00 00                                    |....            |          cmd: "segment_64" (0x19) 0x10020-0x10024 (4)
0x10020|            d8 01 00 00                        |    ....        |          cmdsize: 472 0x10024-0x10028 (4)
       |                                               |                |          segment_command{}: 0x10028-0x10068 (64)
       |                                               |                |            arch_bits: 64
0x10020|                        5f 5f 54 45 58 54 00 00|        __TEXT..|            segname: "__TEXT" 0x10028-0x10038 (16)
0x10030|00 00 00 00 00 00 00 00                        |........        |
0x10030|                        00 00 00 00 00 00 00 00|        ........|            vmaddr: 0x0 0x10038-0x10040 (8)
0x10040|00 40 00 00 00 00 00 00                        |.@......        |            vmsize: 16384 0x10040-0x10048 (8)
0x10040|                        00 00 00 00 00 00 00 00|        ........|            fileoff: 0x0 0x10048-0x10050 (8)
0x10050|00 40 00 00 00 00 00 00                        |.@......        |            tfilesize: 16384 0x10050-0x10058 (8)
0x10050|                        05 00 00 00            |        ....    |            initprot: 5 0x10058-0x1005c (4)
0x10050|                                    05 00 00 00|            ....|            maxprot: 5 0x1005c-0x10060 (4)
0x10060|05 00 00 00                                    |....            |            nsects: 5 0x10060-0x10064 (4)
       |                                               |                |            flags{}: 0x10064-0x10068 (4)
0x10060|            00 00 00 00                        |    ....        |              reserved: raw bits 0x10064-0x10067.4 (3.4)
0x10060|                     00                        |       .        |              protected_version_1: false 0x10067.4-0x10067.5 (0.1)
0x10060|                     00                        |       .        |              noreloc: false 0x10067.5-0x10067.6 (0.1)
0x10060|                     00                        |       .        |              fvmlib: false 0x10067.6-0x10067.7 (0.1)
0x10060|                     00                        |       .        |              highvm: false 0x10067.7-0x10068 (0.1)
       |                                               |                |          sections[0:5]: 0x10068-0x14000 (16280)
       |                                               |                |            [0]{}: section 0x10068-0x13f7c (16148)
0x10060|                        5f 5f 74 65 78 74 00 00|        __text..|              sectname: "__text" 0x10068-0x10078 (16)
0x10070|00 00 00 00 00 00 00 00                        |........        |
0x10070|                        5f 5f 54 45 58 54 00 00|        __TEXT..|              segname: "__TEXT" 0x10078-0x10088 (16)
0x10080|00 00 00 00 00 00 00 00                        |........        |
0x10080|                        60 3f 00 00 00 00 00 00|        `?......|              address: 0x3f60 0x10088-0x10090 (8)
0x10090|1c 00 00 00 00 00 00 00                        |........        |              size: 28 0x10090-0x10098 (8)
0x10090|                        60 3f 00 00            |        `?..    |              offset: 0x3f60 0x10098-0x1009c (4)
0x10090|                                    02 00 00 00|            ....|              align: 2 0x1009c-0x100a0 (4)
0x100a0|00 00 00 00                                    |....            |              reloff: 0 0x100a0-0x100a4 (4)
0x100a0|            00 00 00 00                        |    ....        |              nreloc: 0 0x100a4-0x100a8 (4)
       |                                               |                |              flags{}: 0x100a8-0x100ab (3)
0x100a0|                        00                     |        .       |                attr_pure_instructions: false 0x100a8-0x100a8.1 (0.1)
0x100a0|                        00                     |        .       |                attr_no_toc: false 0x100a8.1-0x100a8.2 (0.1)
0x100a0|                        00                     |        .       |                attr_strip_static_syms: false 0x100a8.2-0x100a8.3 (0.1)
0x100a0|                        00                     |        .       |                attr_no_dead_strip: false 0x100a8.3-0x100a8.4 (0.1)
0x100a0|                        00                     |        .       |                attr_live_support: false 0x100a8.4-0x100a8.5 (0.1)
0x100a0|                        00                     |        .       |                attr_self_modifying_code: false 0x100a8.5-0x100a8.6 (0.1)
0x100a0|                        00                     |        .       |                attr_debug: false 0x100a8.6-0x100a8.7 (0.1)
0x100a0|                        00 04 00               |        ...     |                reserved: raw bits 0x100a8.7-0x100aa.5 (1.6)
0x100a0|                              00               |          .     |                attr_some_instructions: false 0x100aa.5-0x100aa.6 (0.1)
0x100a0|                              00               |          .     |                attr_ext_reloc: false 0x100aa.6-0x100aa.7 (0.1)
0x100a0|                              00               |          .     |                attr_loc_reloc: false 0x100aa.7-0x100ab (0.1)
0x100a0|                                 80            |           .    |              type: 128 0x100ab-0x100ac (1)
0x100a0|                                    00 00 00 00|            ....|              reserved1: 0 0x100ac-0x100b0 (4)
0x100b0|00 00 00 00                                    |....            |              reserved2: 0 0x100b0-0x100b4 (4)
0x100b0|            00 00 00 00                        |    ....        |              reserved3: 0 0x100b4-0x100b8 (4)
0x13f60|fd 7b bf a9 fd 03 00 91 00 00 00 90 00 b0 3e 91|.{............>.|              data: raw bits 0x13f60-0x13f7c (28)
0x13f70|03 00 00 94 fd 7b c1 a8 c0 03 5f d6            |.....{...._.    |
       |                                               |                |            [1]{}: section 0x100b8-0x13f88 (16080)
0x100b0|                        5f 5f 73 74 75 62 73 00|        __stubs.|              sectname: "__stubs" 0x100b8-0x100c8 (16)
0x100c0|00 00 00 00 00 00 00 00                        |........        |
0x100c0|                        5f 5f 54 45 58 54 00 00|        __TEXT..|              segname: "__TEXT" 0x100c8-0x100d8 (16)
0x100d0|00 00 00 00 00 00 00 00                        |........        |
0x100d0|                        7c 3f 00 00 00 00 00 00|        |?......|              address: 0x3f7c 0x100d8-0x100e0 (8)
0x100e0|0c 00 00 00 00 00 00 00                        |........        |              size: 12 0x100e0-0x100e8 (8)
0x100e0|                        7c 3f 00 00            |        |?..    |              offset: 0x3f7c 0x100e8-0x100ec (4)
0x100e0|                                    02 00 00 00|            ....|              align: 2 0x100ec-0x100f0 (4)
0x100f0|00 00 00 00                                    |....            |              reloff: 0 0x100f0-0x100f4 (4)
0x100f0|            00 00 00 00                        |    ....        |              nreloc: 0 0x100f4-0x100f8 (4)
       |                                               |                |              flags{}: 0x100f8-0x100fb (3)
0x100f0|                        08                     |        .       |                attr_pure_instructions: false 0x100f8-0x100f8.1 (0.1)
0x100f0|                        08                     |        .       |                attr_no_toc: false 0x100f8.1-0x100f8.2 (0.1)
0x100f0|                        08                     |        .       |                attr_strip_static_syms: false 0x100f8.2-0x100f8.3 (0.1)
0x100f0|                        08                     |        .       |                attr_no_dead_strip: false 0x100f8.3-0x100f8.4 (0.1)
0x100f0|                        08                     |        .       |                attr_live_support: true 0x100f8.4-0x100f8.5 (0.1)
0x100f0|                        08                     |        .       |                attr_self_modifying_code: false 0x100f8.5-0x100f8.6 (0.1)
0x100f0|                        08                     |        .       |                attr_debug: false 0x100f8.6-0x100f8.7 (0.1)
0x100f0|                        08 04 00               |        ...     |                reserved: raw bits 0x100f8.7-0x100fa.5 (1.6)
0x100f0|                              00               |          .     |                attr_some_instructions: false 0x100fa.5-0x100fa.6 (0.1)
0x100f0|                              00               |          .     |                attr_ext_reloc: false 0x100fa.6-0x100fa.7 (0.1)
0x100f0|                              00               |          .     |                attr_loc_reloc: false 0x100fa.7-0x100fb (0.1)
0x100f0|                                 80            |           .    |              type: 128 0x100fb-0x100fc (1)
0x100f0|                                    00 00 00 00|            ....|              reserved1: 0 0x100fc-0x10100 (4)
0x10100|0c 00 00 00                                    |....            |              reserved2: 12 0x10100-0x10104 (4)
0x10100|            00 00 00 00                        |    ....        |              reserved3: 0 0x10104-0x10108 (4)
0x13f70|                                    1f 20 03 d5|            . ..|              data: raw bits 0x13f7c-0x13f88 (12)
0x13f80|10 04 02 58 00 02 1f d6                        |...X....        |
       |                                               |                |            [2]{}: section 0x10108-0x13fac (16036)
0x10100|                        5f 5f 73 74 75 62 5f 68|        __stub_h|              sectname: "__stub_helper" 0x10108-0x10118 (16)
0x10110|65 6c 70 65 72 00 00 00                        |elper...        |
0x10110|                        5f 5f 54 45 58 54 00 00|        __TEXT..|              segname: "__TEXT" 0x10118-0x10128 (16)
0x10120|00 00 00 00 00 00 00 00                        |........        |
0x10120|                        88 3f 00 00 00 00 00 00|        .?......|              address: 0x3f88 0x10128-0x10130 (8)
0x10130|24 00 00 00 00 00 00 00                        |$.......        |              size: 36 0x10130-0x10138 (8)
0x10130|                        88 3f 00 00            |        .?..    |              offset: 0x3f88 0x10138-0x1013c (4)
0x10130|                                    02 00 00 00|            ....|              align: 2 0x1013c-0x10140 (4)
0x10140|00 00 00 00                                    |....            |              reloff: 0 0x10140-0x10144 (4)
0x10140|            00 00 00 00                        |    ....        |              nreloc: 0 0x10144-0x10148 (4)
       |                                               |                |              flags{}: 0x10148-0x1014b (3)
0x10140|                        00                     |        .       |                attr_pure_instructions: false 0x10148-0x10148.1 (0.1)
0x10140|                        00                     |        .       |                attr_no_toc: false 0x10148.1-0x10148.2 (0.1)
0x10140|                        00                     |        .       |                attr_strip_static_syms: false 0x10148.2-0x10148.3 (0.1)
0x10140|                        00                     |        .       |                attr_no_dead_strip: false 0x10148.3-0x10148.4 (0.1)
0x10140|                        00                     |        .       |                attr_live_support: false 0x10148.4-0x10148.5 (0.1)
0x10140|                        00                     |        .       |                attr_self_modifying_code: false 0x10148.5-0x10148.6 (0.1)
0x10140|                        00                     |        .       |                attr_debug: false 0x10148.6-0x10148.7 (0.1)
0x10140|                        00 04 00               |        ...     |                reserved: raw bits 0x10148.7-0x1014a.5 (1.6)
0x10140|                              00               |          .     |                attr_some_instructions: false 0x1014a.5-0x1014a.6 (0.1)
0x10140|                              00               |          .     |                attr_ext_reloc: false 0x1014a.6-0x1014a.7 (0.1)
0x10140|                              00               |          .     |                attr_loc_reloc: false 0x1014a.7-0x1014b (0.1)
0x10140|                                 80            |           .    |              type: 128 0x1014b-0x1014c (1)
0x10140|                                    00 00 00 00|            ....|              reserved1: 0 0x1014c-0x10150 (4)
0x10150|00 00 00 00                                    |....            |              reserved2: 0 0x10150-0x10154 (4)
0x10150|            00 00 00 00                        |    ....        |              reserved3: 0 0x10154-0x10158 (4)
0x13f80|                        11 04 02 10 1f 20 03 d5|        ..... ..|              data: raw bits 0x13f88-0x13fac (36)
0x13f90|f0 47 bf a9 1f 20 03 d5 50 03 00 58 00 02 1f d6|.G... ..P..X....|
0x13fa0|50 00 00 18 f9 ff ff 17 00 00 00 00            |P...........    |
       |                                               |                |            [3]{}: section 0x10158-0x13fb8 (15968)
0x10150|                        5f 5f 63 73 74 72 69 6e|        __cstrin|              sectname: "__cstring" 0x10158-0x10168 (16)
0x10160|67 00 00 00 00 00 00 00                        |g.......        |
0x10160|                        5f 5f 54 45 58 54 00 00|        __TEXT..|              segname: "__TEXT" 0x10168-0x10178 (16)
0x10170|00 00 00 00 00 00 00 00                        |........        |
0x10170|                        ac 3f 00 00 00 00 00 00|        .?......|              address: 0x3fac 0x10178-0x10180 (8)
0x10180|0c 00 00 00 00 00 00 00                        |........        |              size: 12 0x10180-0x10188 (8)
0x10180|                        ac 3f 00 00            |        .?..    |              offset: 0x3fac 0x10188-0x1018c (4)
0x10180|                                    00 00 00 00|            ....|              align: 0 0x1018c-0x10190 (4)
0x10190|00 00 00 00                                    |....            |              reloff: 0 0x10190-0x10194 (4)
0x10190|            00 00 00 00                        |    ....        |              nreloc: 0 0x10194-0x10198 (4)
       |                                               |                |              flags{}: 0x10198-0x1019b (3)
0x10190|                        02                     |        .       |                attr_pure_instructions: false 0x10198-0x10198.1 (0.1)
0x10190|                        02                     |        .       |                attr_no_toc: false 0x10198.1-0x10198.2 (0.1)
0x10190|                        02                     |        .       |                attr_strip_static_syms: false 0x10198.2-0x10198.3 (0.1)
0x10190|                        02                     |        .       |                attr_no_dead_strip: false 0x10198.3-0x10198.4 (0.1)
0x10190|                        02                     |        .       |                attr_live_support: false 0x10198.4-0x10198.5 (0.1)
0x10190|                        02                     |        .       |                attr_self_modifying_code: false 0x10198.5-0x10198.6 (0.1)
0x10190|                        02                     |        .       |                attr_debug: true 0x10198.6-0x10198.7 (0.1)
0x10190|                        02 00 00               |        ...     |                reserved: raw bits 0x10198.7-0x1019a.5 (1.6)
0x10190|                              00               |          .     |                attr_some_instructions: false 0x1019a.5-0x1019a.6 (0.1)
0x10190|                              00               |          .     |                attr_ext_reloc: false 0x1019a.6-0x1019a.7 (0.1)
0x10190|                              00               |          .     |                attr_loc_reloc: false 0x1019a.7-0x1019b (0.1)
0x10190|                                 00            |           .    |              type: "regular" (0) 0x1019b-0x1019c (1)
0x10190|                                    00 00 00 00|            ....|              reserved1: 0 0x1019c-0x101a0 (4)
0x101a0|00 00 00 00                                    |....            |              reserved2: 0 0x101a0-0x101a4 (4)
0x101a0|            00 00 00 00                        |    ....        |              reserved3: 0 0x101a4-0x101a8 (4)
       |                                               |                |              cstrings[0:1]: 0x13fac-0x13fb8 (12)
0x13fa0|                                    6c 69 62 62|            libb|                [0]: "libbbb_bbb\n" cstring 0x13fac-0x13fb8 (12)
0x13fb0|62 62 5f 62 62 62 0a 00                        |bb_bbb..        |
       |                                               |                |            [4]{}: section 0x101a8-0x14000 (15960)
0x101a0|                        5f 5f 75 6e 77 69 6e 64|        __unwind|              sectname: "__unwind_info" 0x101a8-0x101b8 (16)
0x101b0|5f 69 6e 66 6f 00 00 00                        |_info...        |
0x101b0|                        5f 5f 54 45 58 54 00 00|        __TEXT..|              segname: "__TEXT" 0x101b8-0x101c8 (16)
0x101c0|00 00 00 00 00 00 00 00                        |........        |
0x101c0|                        b8 3f 00 00 00 00 00 00|        .?......|              address: 0x3fb8 0x101c8-0x101d0 (8)
0x101d0|48 00 00 00 00 00 00 00                        |H.......        |              size: 72 0x101d0-0x101d8 (8)
0x101d0|                        b8 3f 00 00            |        .?..    |              offset: 0x3fb8 0x101d8-0x101dc (4)
0x101d0|                                    02 00 00 00|            ....|              align: 2 0x101dc-0x101e0 (4)
0x101e0|00 00 00 00                                    |....            |              reloff: 0 0x101e0-0x101e4 (4)
0x101e0|            00 00 00 00                        |    ....        |              nreloc: 0 0x101e4-0x101e8 (4)
       |                                               |                |              flags{}: 0x101e8-0x101eb (3)
0x101e0|                        00                     |        .       |                attr_pure_instructions: false 0x101e8-0x101e8.1 (0.1)
0x101e0|                        00                     |        .       |                attr_no_toc: false 0x101e8.1-0x101e8.2 (0.1)
0x101e0|                        00                     |        .       |                attr_strip_static_syms: false 0x101e8.2-0x101e8.3 (0.1)
0x101e0|                        00                     |        .       |                attr_no_dead_strip: false 0x101e8.3-0x101e8.4 (0.1)
0x101e0|                        00                     |        .       |                attr_live_support: false 0x101e8.4-0x101e8.5 (0.1)
0x101e0|                        00                     |        .       |                attr_self_modifying_code: false 0x101e8.5-0x101e8.6 (0.1)
0x101e0|                        00                     |        .       |                attr_debug: false 0x101e8.6-0x101e8.7 (0.1)
0x101e0|                        00 00 00               |        ...     |                reserved: raw bits 0x101e8.7-0x101ea.5 (1.6)
0x101e0|                              00               |          .     |                attr_some_instructions: false 0x101ea.5-0x101ea.6 (0.1)
0x101e0|                              00               |          .     |                attr_ext_reloc: false 0x101ea.6-0x101ea.7 (0.1)
0x101e0|                              00               |          .     |                attr_loc_reloc: false 0x101ea.7-0x101eb (0.1)
0x101e0|                                 00            |           .    |              type: "regular" (0) 0x101eb-0x101ec (1)
0x101e0|                                    00 00 00 00|            ....|              reserved1: 0 0x101ec-0x101f0 (4)
0x101f0|00 00 00 00                                    |....            |              reserved2: 0 0x101f0-0x101f4 (4)
0x101f0|            00 00 00 00                        |    ....        |              reserved3: 0 0x101f4-0x101f8 (4)
0x13fb0|                        01 00 00 00 1c 00 00 00|        ........|              data: raw bits 0x13fb8-0x14000 (72)
0x13fc0|00 00 00 00 1c 00 00 00 00 00 00 00 1c 00 00 00|................|
*      |until 0x13fff.7 (72)                           |                |
       |                                               |                |        [1]{}: load_command 0x101f8-0x14008 (15888)
0x101f0|                        19 00 00 00            |        ....    |          cmd: "segment_64" (0x19) 0x101f8-0x101fc (4)
0x101f0|                                    98 00 00 00|            ....|          cmdsize: 152 0x101fc-0x10200 (4)
       |                                               |                |          segment_command{}: 0x10200-0x10240 (64)
       |                                               |                |            arch_bits: 64
0x10200|5f 5f 44 41 54 41 5f 43 4f 4e 53 54 00 00 00 00|__DATA_CONST....|            segname: "__DATA_CONST" 0x10200-0x10210 (16)
0x10210|00 40 00 00 00 00 00 00                        |.@......        |            vmaddr: 0x4000 0x10210-0x10218 (8)
0x10210|                        00 40 00 00 00 00 00 00|        .@......|            vmsize: 16384 0x10218-0x10220 (8)
0x10220|00 40 00 00 00 00 00 00                        |.@......        |            fileoff: 0x4000 0x10220-0x10228 (8)
0x10220|                        00 40 00 00 00 00 00 00|        .@......|            tfilesize: 16384 0x10228-0x10230 (8)
0x10230|03 00 00 00                                    |....            |            initprot: 3 0x10230-0x10234 (4)
0x10230|            03 00 00 00                        |    ....        |            maxprot: 3 0x10234-0x10238 (4)
0x10230|                        01 00 00 00            |        ....    |            nsects: 1 0x10238-0x1023c (4)
       |                                               |                |            flags{}: 0x1023c-0x10240 (4)
0x10230|                                    10 00 00 00|            ....|              reserved: raw bits 0x1023c-0x1023f.4 (3.4)
0x10230|                                             00|               .|              protected_version_1: false 0x1023f.4-0x1023f.5 (0.1)
0x10230|                                             00|               .|              noreloc: false 0x1023f.5-0x1023f.6 (0.1)
0x10230|                                             00|               .|              fvmlib: false 0x1023f.6-0x1023f.7 (0.1)
0x10230|                                             00|               .|              highvm: false 0x1023f.7-0x10240 (0.1)
       |                                               |                |          sections[0:1]: 0x10240-0x14008 (15816)
       |                                               |                |            [0]{}: section 0x10240-0x14008 (15816)
0x10240|5f 5f 67 6f 74 00 00 00 00 00 00 00 00 00 00 00|__got...........|              sectname: "__got" 0x10240-0x10250 (16)
0x10250|5f 5f 44 41 54 41 5f 43 4f 4e 53 54 00 00 00 00|__DATA_CONST....|              segname: "__DATA_CONST" 0x10250-0x10260 (16)
0x10260|00 40 00 00 00 00 00 00                        |.@......        |              address: 0x4000 0x10260-0x10268 (8)
0x10260|                        08 00 00 00 00 00 00 00|        ........|              size: 8 0x10268-0x10270 (8)
0x10270|00 40 00 00                                    |.@..            |              offset: 0x4000 0x10270-0x10274 (4)
0x10270|            03 00 00 00                        |    ....        |              align: 3 0x10274-0x10278 (4)
0x10270|                        00 00 00 00            |        ....    |              reloff: 0 0x10278-0x1027c (4)
0x10270|                                    00 00 00 00|            ....|              nreloc: 0 0x1027c-0x10280 (4)
       |                                               |                |              flags{}: 0x10280-0x10283 (3)
0x10280|06                                             |.               |                attr_pure_instructions: false 0x10280-0x10280.1 (0.1)
0x10280|06                                             |.               |                attr_no_toc: false 0x10280.1-0x10280.2 (0.1)
0x10280|06                                             |.               |                attr_strip_static_syms: false 0x10280.2-0x10280.3 (0.1)
0x10280|06                                             |.               |                attr_no_dead_strip: false 0x10280.3-0x10280.4 (0.1)
0x10280|06                                             |.               |                attr_live_support: false 0x10280.4-0x10280.5 (0.1)
0x10280|06                                             |.               |                attr_self_modifying_code: true 0x10280.5-0x10280.6 (0.1)
0x10280|06                                             |.               |                attr_debug: true 0x10280.6-0x10280.7 (0.1)
0x10280|06 00 00                                       |...             |                reserved: raw bits 0x10280.7-0x10282.5 (1.6)
0x10280|      00                                       |  .             |                attr_some_instructions: false 0x10282.5-0x10282.6 (0.1)
0x10280|      00                                       |  .             |                attr_ext_reloc: false 0x10282.6-0x10282.7 (0.1)
0x10280|      00                                       |  .             |                attr_loc_reloc: false 0x10282.7-0x10283 (0.1)
0x10280|         00                                    |   .            |              type: "regular" (0) 0x10283-0x10284 (1)
0x10280|            01 00 00 00                        |    ....        |              reserved1: 1 0x10284-0x10288 (4)
0x10280|                        00 00 00 00            |        ....    |              reserved2: 0 0x10288-0x1028c (4)
0x10280|                                    00 00 00 00|            ....|              reserved3: 0 0x1028c-0x10290 (4)
0x14000|00 00 00 00 00 00 00 00                        |........        |              data: raw bits 0x14000-0x14008 (8)
       |                                               |                |        [2]{}: load_command 0x10290-0x18010 (32128)
0x10290|19 00 00 00                                    |....            |          cmd: "segment_64" (0x19) 0x10290-0x10294 (4)
0x10290|            e8 00 00 00                        |    ....        |          cmdsize: 232 0x10294-0x10298 (4)
       |                                               |                |          segment_command{}: 0x10298-0x102d8 (64)
       |                                               |                |            arch_bits: 64
0x10290|                        5f 5f 44 41 54 41 00 00|        __DATA..|            segname: "__DATA" 0x10298-0x102a8 (16)
0x102a0|00 00 00 00 00 00 00 00                        |........        |
0x102a0|                        00 80 00 00 00 00 00 00|        ........|            vmaddr: 0x8000 0x102a8-0x102b0 (8)
0x102b0|00 40 00 00 00 00 00 00                        |.@......        |            vmsize: 16384 0x102b0-0x102b8 (8)
0x102b0|                        00 80 00 00 00 00 00 00|        ........|            fileoff: 0x8000 0x102b8-0x102c0 (8)
0x102c0|00 40 00 00 00 00 00 00                        |.@......        |            tfilesize: 16384 0x102c0-0x102c8 (8)
0x102c0|                        03 00 00 00            |        ....    |            initprot: 3 0x102c8-0x102cc (4)
0x102c0|                                    03 00 00 00|            ....|            maxprot: 3 0x102cc-0x102d0 (4)
0x102d0|02 00 00 00                                    |....            |            nsects: 2 0x102d0-0x102d4 (4)
       |                                               |                |            flags{}: 0x102d4-0x102d8 (4)
0x102d0|            00 00 00 00                        |    ....        |              reserved: raw bits 0x102d4-0x102d7.4 (3.4)
0x102d0|                     00                        |       .        |              protected_version_1: false 0x102d7.4-0x102d7.5 (0.1)
0x102d0|                     00                        |       .        |              noreloc: false 0x102d7.5-0x102d7.6 (0.1)
0x102d0|                     00                        |       .        |              fvmlib: false 0x102d7.6-0x102d7.7 (0.1)
0x102d0|                     00                        |       .        |              highvm: false 0x102d7.7-0x102d8 (0.1)
       |                                               |                |          sections[0:2]: 0x102d8-0x18010 (32056)
       |                                               |                |            [0]{}: section 0x102d8-0x18008 (32048)
0x102d0|                        5f 5f 6c 61 5f 73 79 6d|        __la_sym|              sectname: "__la_symbol_ptr" 0x102d8-0x102e8 (16)
0x102e0|62 6f 6c 5f 70 74 72 00                        |bol_ptr.        |
0x102e0|                        5f 5f 44 41 54 41 00 00|        __DATA..|              segname: "__DATA" 0x102e8-0x102f8 (16)
0x102f0|00 00 00 00 00 00 00 00                        |........        |
0x102f0|                        00 80 00 00 00 00 00 00|        ........|              address: 0x8000 0x102f8-0x10300 (8)
0x10300|08 00 00 00 00 00 00 00                        |........        |              size: 8 0x10300-0x10308 (8)
0x10300|                        00 80 00 00            |        ....    |              offset: 0x8000 0x10308-0x1030c (4)
0x10300|                                    03 00 00 00|            ....|              align: 3 0x1030c-0x10310 (4)
0x10310|00 00 00 00                                    |....            |              reloff: 0 0x10310-0x10314 (4)
0x10310|            00 00 00 00                        |    ....        |              nreloc: 0 0x10314-0x10318 (4)
       |                                               |                |              flags{}: 0x10318-0x1031b (3)
0x10310|                        07                     |        .       |                attr_pure_instructions: false 0x10318-0x10318.1 (0.1)
0x10310|                        07                     |        .       |                attr_no_toc: false 0x10318.1-0x10318.2 (0.1)
0x10310|                        07                     |        .       |                attr_strip_static_syms: false 0x10318.2-0x10318.3 (0.1)
0x10310|                        07                     |        .       |                attr_no_dead_strip: false 0x10318.3-0x10318.4 (0.1)
0x10310|                        07                     |        .       |                attr_live_support: false 0x10318.4-0x10318.5 (0.1)
0x10310|                        07                     |        .       |                attr_self_modifying_code: true 0x10318.5-0x10318.6 (0.1)
0x10310|                        07                     |        .       |                attr_debug: true 0x10318.6-0x10318.7 (0.1)
0x10310|                        07 00 00               |        ...     |                reserved: raw bits 0x10318.7-0x1031a.5 (1.6)
0x10310|                              00               |          .     |                attr_some_instructions: false 0x1031a.5-0x1031a.6 (0.1)
0x10310|                              00               |          .     |                attr_ext_reloc: false 0x1031a.6-0x1031a.7 (0.1)
0x10310|                              00               |          .     |                attr_loc_reloc: false 0x1031a.7-0x1031b (0.1)
0x10310|                                 00            |           .    |              type: "regular" (0) 0x1031b-0x1031c (1)
0x10310|                                    02 00 00 00|            ....|              reserved1: 2 0x1031c-0x10320 (4)
0x10320|00 00 00 00                                    |....            |              reserved2: 0 0x10320-0x10324 (4)
0x10320|            00 00 00 00                        |    ....        |              reserved3: 0 0x10324-0x10328 (4)
0x18000|a0 3f 00 00 00 00 00 00                        |.?......        |              data: raw bits 0x18000-0x18008 (8)
       |                                               |                |            [1]{}: section 0x10328-0x18010 (31976)
0x10320|                        5f 5f 64 61 74 61 00 00|        __data..|              sectname: "__data" 0x10328-0x10338 (16)
0x10330|00 00 00 00 00 00 00 00                        |........        |
0x10330|                        5f 5f 44 41 54 41 00 00|        __DATA..|              segname: "__DATA" 0x10338-0x10348 (16)
0x10340|00 00 00 00 00 00 00 00                        |........        |
0x10340|                        08 80 00 00 00 00 00 00|        ........|              address: 0x8008 0x10348-0x10350 (8)
0x10350|08 00 00 00 00 00 00 00                        |........        |              size: 8 0x10350-0x10358 (8)
0x10350|                        08 80 00 00            |        ....    |              offset: 0x8008 0x10358-0x1035c (4)
0x10350|                                    03 00 00 00|            ....|              align: 3 0x1035c-0x10360 (4)
0x10360|00 00 00 00                                    |....            |              reloff: 0 0x10360-0x10364 (4)
0x10360|            00 00 00 00                        |    ....        |              nreloc: 0 0x10364-0x10368 (4)
       |                                               |                |              flags{}: 0x10368-0x1036b (3)
0x10360|                        00                     |        .       |                attr_pure_instructions: false 0x10368-0x10368.1 (0.1)
0x10360|                        00                     |        .       |                attr_no_toc: false 0x10368.1-0x10368.2 (0.1)
0x10360|                        00                     |        .       |                attr_strip_static_syms: false 0x10368.2-0x10368.3 (0.1)
0x10360|                        00                     |        .       |                attr_no_dead_strip: false 0x10368.3-0x10368.4 (0.1)
0x10360|                        00                     |        .       |                attr_live_support: false 0x10368.4-0x10368.5 (0.1)
0x10360|                        00                     |        .       |                attr_self_modifying_code: false 0x10368.5-0x10368.6 (0.1)
0x10360|                        00                     |        .       |                attr_debug: false 0x10368.6-0x10368.7 (0.1)
0x10360|                        00 00 00               |        ...     |                reserved: raw bits 0x10368.7-0x1036a.5 (1.6)
0x10360|                              00               |          .     |                attr_some_instructions: false 0x1036a.5-0x1036a.6 (0.1)
0x10360|                              00               |          .     |                attr_ext_reloc: false 0x1036a.6-0x1036a.7 (0.1)
0x10360|                              00               |          .     |                attr_loc_reloc: false 0x1036a.7-0x1036b (0.1)
0x10360|                                 00            |           .    |              type: "regular" (0) 0x1036b-0x1036c (1)
0x10360|                                    00 00 00 00|            ....|              reserved1: 0 0x1036c-0x10370 (4)
0x10370|00 00 00 00                                    |....            |              reserved2: 0 0x10370-0x10374 (4)
0x10370|            00 00 00 00                        |    ....        |              reserved3: 0 0x10374-0x10378 (4)
0x18000|                        00 00 00 00 00 00 00 00|        ........|              data: raw bits 0x18008-0x18010 (8)
       |                                               |                |        [3]{}: load_command 0x10378-0x103c0 (72)
0x10370|                        19 00 00 00            |        ....    |          cmd: "segment_64" (0x19) 0x10378-0x1037c (4)
0x10370|                                    48 00 00 00|            H...|          cmdsize: 72 0x1037c-0x10380 (4)
       |                                               |                |          segment_command{}: 0x10380-0x103c0 (64)
       |                                               |                |            arch_bits: 64
0x10380|5f 5f 4c 49 4e 4b 45 44 49 54 00 00 00 00 00 00|__LINKEDIT......|            segname: "__LINKEDIT" 0x10380-0x10390 (16)
0x10390|00 c0 00 00 00 00 00 00                        |........        |            vmaddr: 0xc000 0x10390-0x10398 (8)
0x10390|                        00 40 00 00 00 00 00 00|        .@......|            vmsize: 16384 0x10398-0x103a0 (8)
0x103a0|00 c0 00 00 00 00 00 00                        |........        |            fileoff: 0xc000 0x103a0-0x103a8 (8)
0x103a0|                        f6 02 00 00 00 00 00 00|        ........|            tfilesize: 758 0x103a8-0x103b0 (8)
0x103b0|01 00 00 00                                    |....            |            initprot: 1 0x103b0-0x103b4 (4)
0x103b0|            01 00 00 00                        |    ....        |            maxprot: 1 0x103b4-0x103b8 (4)
0x103b0|                        00 00 00 00            |        ....    |            nsects: 0 0x103b8-0x103bc (4)
       |                                               |                |            flags{}: 0x103bc-0x103c0 (4)
0x103b0|                                    00 00 00 00|            ....|              reserved: raw bits 0x103bc-0x103bf.4 (3.4)
0x103b0|                                             00|               .|              protected_version_1: false 0x103bf.4-0x103bf.5 (0.1)
0x103b0|                                             00|               .|              noreloc: false 0x103bf.5-0x103bf.6 (0.1)
0x103b0|                                             00|               .|              fvmlib: false 0x103bf.6-0x103bf.7 (0.1)
0x103b0|                                             00|               .|              highvm: false 0x103bf.7-0x103c0 (0.1)
       |                                               |                |          sections[0:0]: 0x103c0-0x103c0 (0)
       |                                               |                |        [4]{}: load_command 0x103c0-0x103e8 (40)
0x103c0|0d 00 00 00                                    |....            |          cmd: "id_dylib" (0xd) 0x103c0-0x103c4 (4)
0x103c0|            28 00 00 00                        |    (...        |          cmdsize: 40 0x103c4-0x103c8 (4)
       |                                               |                |          dylib_command{}: 0x103c8-0x103e8 (32)
0x103c0|                        18 00 00 00            |        ....    |            offset: 0x18 0x103c8-0x103cc (4)
0x103c0|                                    01 00 00 00|            ....|            timestamp: "1970-01-01 00:00:00.001 +0000 UTC" (1) 0x103cc-0x103d0 (4)
0x103d0|00 00 00 00                                    |....            |            current_version: 0 0x103d0-0x103d4 (4)
0x103d0|            00 00 00 00                        |    ....        |            compatibility_version: 0 0x103d4-0x103d8 (4)
0x103d0|                        6c 69 62 62 62 62 2e 73|        libbbb.s|            name: "libbbb.so" 0x103d8-0x103e8 (16)
0x103e0|6f 00 00 00 00 00 00 00                        |o.......        |
       |                                               |                |        [5]{}: load_command 0x103e8-0x10418 (48)
0x103e0|                        22 00 00 80            |        "...    |          cmd: "dyld_info_only" (0x80000022) 0x103e8-0x103ec (4)
0x103e0|                                    30 00 00 00|            0...|          cmdsize: 48 0x103ec-0x103f0 (4)
       |                                               |                |          dyld_info{}: 0x103f0-0x10418 (40)
0x103f0|00 c0 00 00                                    |....            |            rebase_off: 0xc000 0x103f0-0x103f4 (4)
0x103f0|            08 00 00 00                        |    ....        |            rebase_size: 8 0x103f4-0x103f8 (4)
0x103f0|                        08 c0 00 00            |        ....    |            bind_off: 0xc008 0x103f8-0x103fc (4)
0x103f0|                                    18 00 00 00|            ....|            bind_size: 24 0x103fc-0x10400 (4)
0x10400|00 00 00 00                                    |....            |            weak_bind_off: 0x0 0x10400-0x10404 (4)
0x10400|            00 00 00 00                        |    ....        |            weak_bind_size: 0 0x10404-0x10408 (4)
0x10400|                        20 c0 00 00            |         ...    |            lazy_bind_off: 0xc020 0x10408-0x1040c (4)
0x10400|                                    10 00 00 00|            ....|            lazy_bind_size: 16 0x1040c-0x10410 (4)
0x10410|30 c0 00 00                                    |0...            |            export_off: 0xc030 0x10410-0x10414 (4)
0x10410|            18 00 00 00                        |    ....        |            export_size: 24 0x10414-0x10418 (4)
       |                                               |                |        [6]{}: load_command 0x10418-0x1c0d8 (48320)
0x10410|                        02 00 00 00            |        ....    |          cmd: "symtab" (0x2) 0x10418-0x1041c (4)
0x10410|                                    18 00 00 00|            ....|          cmdsize: 24 0x1041c-0x10420 (4)
0x10420|50 c0 00 00                                    |P...            |          symoff: 49232 0x10420-0x10424 (4)
0x10420|            04 00 00 00                        |    ....        |          nsyms: 4 0x10424-0x10428 (4)
0x10420|                        a0 c0 00 00            |        ....    |          stroff: 49312 0x10428-0x1042c (4)
0x10420|                                    38 00 00 00|            8...|          strsize: 56 0x1042c-0x10430 (4)
       |                                               |                |          symbols[0:4]: 0x1c050-0x1c090 (64)
       |                                               |                |            [0]{}: symbol 0x1c050-0x1c060 (16)
0x1c050|27 00 00 00                                    |'...            |              strx: "__dyld_private" (39) 0x1c050-0x1c054 (4)
       |                                               |                |              type{}: 0x1c054-0x1c055 (1)
0x1c050|            0e                                 |    .           |                stab: 0 0x1c054-0x1c054.3 (0.3)
0x1c050|            0e                                 |    .           |                pext: 0 0x1c054.3-0x1c054.4 (0.1)
0x1c050|            0e                                 |    .           |                type: "sect" (7) 0x1c054.4-0x1c054.7 (0.3)
0x1c050|            0e                                 |    .           |                ext: 0 0x1c054.7-0x1c055 (0.1)
0x1c050|               08                              |     .          |              sect: 8 0x1c055-0x1c056 (1)
0x1c050|                  00 00                        |      ..        |              desc: 0 0x1c056-0x1c058 (2)
0x1c050|                        08 80 00 00 00 00 00 00|        ........|              value: 0x8008 0x1c058-0x1c060 (8)
       |                                               |                |            [1]{}: symbol 0x1c060-0x1c070 (16)
0x1c060|02 00 00 00                                    |....            |              strx: "_libbbb_bbb" (2) 0x1c060-0x1c064 (4)
       |                                               |                |              type{}: 0x1c064-0x1c065 (1)
0x1c060|            0f                                 |    .           |                stab: 0 0x1c064-0x1c064.3 (0.3)
0x1c060|            0f                                 |    .           |                pext: 0 0x1c064.3-0x1c064.4 (0.1)
0x1c060|            0f                                 |    .           |                type: "sect" (7) 0x1c064.4-0x1c064.7 (0.3)
0x1c060|            0f                                 |    .           |                ext: 1 0x1c064.7-0x1c065 (0.1)
0x1c060|               01                              |     .          |              sect: 1 0x1c065-0x1c066 (1)
0x1c060|                  00 00                        |      ..        |              desc: 0 0x1c066-0x1c068 (2)
0x1c060|                        60 3f 00 00 00 00 00 00|        `?......|              value: 0x3f60 0x1c068-0x1c070 (8)
       |                                               |                |            [2]{}: symbol 0x1c070-0x1c080 (16)
0x1c070|0e 00 00 00                                    |....            |              strx: "_printf" (14) 0x1c070-0x1c074 (4)
       |                                               |                |              type{}: 0x1c074-0x1c075 (1)
0x1c070|            01                                 |    .           |                stab: 0 0x1c074-0x1c074.3 (0.3)
0x1c070|            01                                 |    .           |                pext: 0 0x1c074.3-0x1c074.4 (0.1)
0x1c070|            01                                 |    .           |                type: "undef" (0) 0x1c074.4-0x1c074.7 (0.3)
0x1c070|            01                                 |    .           |                ext: 1 0x1c074.7-0x1c075 (0.1)
0x1c070|               00                              |     .          |              sect: 0 0x1c075-0x1c076 (1)
0x1c070|                  00 01                        |      ..        |              desc: 256 0x1c076-0x1c078 (2)
0x1c070|                        00 00 00 00 00 00 00 00|        ........|              value: 0x0 0x1c078-0x1c080 (8)
       |                                               |                |            [3]{}: symbol 0x1c080-0x1c090 (16)
0x1c080|16 00 00 00                                    |....            |              strx: "dyld_stub_binder" (22) 0x1c080-0x1c084 (4)
       |                                               |                |              type{}: 0x1c084-0x1c085 (1)
0x1c080|            01                                 |    .           |                stab: 0 0x1c084-0x1c084.3 (0.3)
0x1c080|            01                                 |    .           |                pext: 0 0x1c084.3-0x1c084.4 (0.1)
0x1c080|            01                                 |    .           |                type: "undef" (0) 0x1c084.4-0x1c084.7 (0.3)
0x1c080|            01                                 |    .           |                ext: 1 0x1c084.7-0x1c085 (0.1)
0x1c080|               00                              |     .          |              sect: 0 0x1c085-0x1c086 (1)
0x1c080|                  00 01                        |      ..        |              desc: 256 0x1c086-0x1c088 (2)
0x1c080|                        00 00 00 00 00 00 00 00|        ........|              value: 0x0 0x1c088-0x1c090 (8)
0x1c0a0|20 00 5f 6c 69 62 62 62 62 5f 62 62 62 00 5f 70| ._libbbb_bbb._p|          str_table: raw bits 0x1c0a0-0x1c0d8 (56)
*      |until 0x1c0d7.7 (56)                           |                |
       |                                               |                |        [7]{}: load_command 0x10430-0x10480 (80)
0x10430|0b 00 00 00                                    |....            |          cmd: "dysymtab" (0xb) 0x10430-0x10434 (4)
0x10430|            50 00 00 00                        |    P...        |          cmdsize: 80 0x10434-0x10438 (4)
0x10430|                        00 00 00 00            |        ....    |          ilocalsym: 0 0x10438-0x1043c (4)
0x10430|                                    01 00 00 00|            ....|          nlocalsym: 1 0x1043c-0x10440 (4)
0x10440|01 00 00 00                                    |....            |          iextdefsym: 1 0x10440-0x10444 (4)
0x10440|            01 00 00 00                        |    ....        |          nextdefsym: 1 0x10444-0x10448 (4)
0x10440|                        02 00 00 00            |        ....    |          iundefsym: 2 0x10448-0x1044c (4)
0x10440|                                    02 00 00 00|            ....|          nundefsym: 2 0x1044c-0x10450 (4)
0x10450|00 00 00 00                                    |....            |          tocoff: 0 0x10450-0x10454 (4)
0x10450|            00 00 00 00                        |    ....        |          ntoc: 0 0x10454-0x10458 (4)
0x10450|                        00 00 00 00            |        ....    |          modtaboff: 0 0x10458-0x1045c (4)
0x10450|                                    00 00 00 00|            ....|          nmodtab: 0 0x1045c-0x10460 (4)
0x10460|00 00 00 00                                    |....            |          extrefsymoff: 0 0x10460-0x10464 (4)
0x10460|            00 00 00 00                        |    ....        |          nextrefsyms: 0 0x10464-0x10468 (4)
0x10460|                        90 c0 00 00            |        ....    |          indirectsymoff: 49296 0x10468-0x1046c (4)
0x10460|                                    03 00 00 00|            ....|          nindirectsyms: 3 0x1046c-0x10470 (4)
0x10470|00 00 00 00                                    |....            |          extreloff: 0 0x10470-0x10474 (4)
0x10470|            00 00 00 00                        |    ....        |          nextrel: 0 0x10474-0x10478 (4)
0x10470|                        00 00 00 00            |        ....    |          locreloff: 0 0x10478-0x1047c (4)
0x10470|                                    00 00 00 00|            ....|          nlocrel: 0 0x1047c-0x10480 (4)
       |                                               |                |        [8]{}: load_command 0x10480-0x10498 (24)
0x10480|1b 00 00 00                                    |....            |          cmd: "uuid" (0x1b) 0x10480-0x10484 (4)
0x10480|            18 00 00 00                        |    ....        |          cmdsize: 24 0x10484-0x10488 (4)
       |                                               |                |          uuid_command{}: 0x10488-0x10498 (16)
0x10480|                        56 9f 49 cc 85 16 33 eb|        V.I...3.|            uuid: raw bits 0x10488-0x10498 (16)
0x10490|aa b2 ff 2b 60 cb b1 a2                        |...+`...        |
       |                                               |                |        [9]{}: load_command 0x10498-0x104b8 (32)
0x10490|                        32 00 00 00            |        2...    |          cmd: "build_version" (0x32) 0x10498-0x1049c (4)
0x10490|                                    20 00 00 00|             ...|          cmdsize: 32 0x1049c-0x104a0 (4)
0x104a0|01 00 00 00                                    |....            |          platform: 1 0x104a0-0x104a4 (4)
0x104a0|            00 00 0b 00                        |    ....        |          minos: 720896 0x104a4-0x104a8 (4)
0x104a0|                        00 00 0b 00            |        ....    |          sdk: 720896 0x104a8-0x104ac (4)
0x104a0|                                    01 00 00 00|            ....|          ntools: 1 0x104ac-0x104b0 (4)
       |                                               |                |          tools[0:1]: 0x104b0-0x104b8 (8)
       |                                               |                |            [0]{}: tool 0x104b0-0x104b8 (8)
0x104b0|03 00 00 00                                    |....            |              tool: 3 0x104b0-0x104b4 (4)
0x104b0|            00 00 c7 02                        |    ....        |              version: 46596096 0x104b4-0x104b8 (4)
       |                                               |                |        [10]{}: load_command 0x104b8-0x104c8 (16)
0x104b0|                        2a 00 00 00            |        *...    |          cmd: "source_version" (0x2a) 0x104b8-0x104bc (4)
0x104b0|                                    10 00 00 00|            ....|          cmdsize: 16 0x104bc-0x104c0 (4)
       |                                               |                |          source_version_tag{}: 0x104c0-0x104c8 (8)
0x104c0|00 00 00 00 00 00 00 00                        |........        |            tag: 0 0x104c0-0x104c8 (8)
       |                                               |                |        [11]{}: load_command 0x104c8-0x10500 (56)
0x104c0|                        0c 00 00 00            |        ....    |          cmd: "load_dylib" (0xc) 0x104c8-0x104cc (4)
0x104c0|                                    38 00 00 00|            8...|          cmdsize: 56 0x104cc-0x104d0 (4)
       |                                               |                |          dylib_command{}: 0x104d0-0x10500 (48)
0x104d0|18 00 00 00                                    |....            |            offset: 0x18 0x104d0-0x104d4 (4)
0x104d0|            02 00 00 00                        |    ....        |            timestamp: "1970-01-01 00:00:00.002 +0000 UTC" (2) 0x104d4-0x104d8 (4)
0x104d0|                        05 64 0c 05            |        .d..    |            current_version: 84698117 0x104d8-0x104dc (4)
0x104d0|                                    00 00 01 00|            ....|            compatibility_version: 65536 0x104dc-0x104e0 (4)
0x104e0|2f 75 73 72 2f 6c 69 62 2f 6c 69 62 53 79 73 74|/usr/lib/libSyst|            name: "/usr/lib/libSystem.B.dylib" 0x104e0-0x10500 (32)
0x104f0|65 6d 2e 42 2e 64 79 6c 69 62 00 00 00 00 00 00|em.B.dylib......|
       |                                               |                |        [12]{}: load_command 0x10500-0x10510 (16)
0x10500|26 00 00 00                                    |&...            |          cmd: "function_starts" (0x26) 0x10500-0x10504 (4)
0x10500|            10 00 00 00                        |    ....        |          cmdsize: 16 0x10504-0x10508 (4)
       |                                               |                |          linkedit_data{}: 0x10508-0x10510 (8)
0x10500|                        48 c0 00 00            |        H...    |            off: 49224 0x10508-0x1050c (4)
0x10500|                                    08 00 00 00|            ....|            size: 8 0x1050c-0x10510 (4)
       |                                               |                |        [13]{}: load_command 0x10510-0x10520 (16)
0x10510|29 00 00 00                                    |)...            |          cmd: "data_in_code" (0x29) 0x10510-0x10514 (4)
0x10510|            10 00 00 00                        |    ....        |          cmdsize: 16 0x10514-0x10518 (4)
       |                                               |                |          linkedit_data{}: 0x10518-0x10520 (8)
0x10510|                        50 c0 00 00            |        P...    |            off: 49232 0x10518-0x1051c (4)
0x10510|                                    00 00 00 00|            ....|            size: 0 0x1051c-0x10520 (4)
       |                                               |                |        [14]{}: load_command 0x10520-0x10530 (16)
0x10520|1d 00 00 00                                    |....            |          cmd: "code_signature" (0x1d) 0x10520-0x10524 (4)
0x10520|            10 00 00 00                        |    ....        |          cmdsize: 16 0x10524-0x10528 (4)
       |                                               |                |          linkedit_data{}: 0x10528-0x10530 (8)
0x10520|                        e0 c0 00 00            |        ....    |            off: 49376 0x10528-0x1052c (4)
0x10520|                                    16 02 00 00|            ....|            size: 534 0x1052c-0x10530 (4)
0x044c0|                        00 00 00 00 00 00 00 00|        ........|  gap1: raw bits 0x44c8-0x7f70 (15016)
0x044d0|00 00 00 00 00 00 00 00 00 00 00 00 00 00 00 00|................|
*      |until 0x7f6f.7 (15016)                         |                |
0x07f80|                              00 00            |          ..    |  gap2: raw bits 0x7f8a-0x7f8c (2)
0x07fb0|      00 00                                    |  ..            |  gap3: raw bits 0x7fb2-0x7fb4 (2)
0x07ff0|                                    00 00 00 00|            ....|  gap4: raw bits 0x7ffc-0x8000 (4)
0x08010|                        00 00 00 00 00 00 00 00|        ........|  gap5: raw bits 0x8018-0xc050 (16440)
0x08020|00 00 00 00 00 00 00 00 00 00 00 00 00 00 00 00|................|
*      |until 0xc04f.7 (16440)                         |                |
0x0c080|01 00 00 00 00 00 00 40 02 00 00 00 01 00 00 00|.......@........|  gap6: raw bits 0xc080-0xc090 (16)
0x0c0b0|                        00 00 00 00 00 00 00 00|        ........|  gap7: raw bits 0xc0b8-0x10000 (16200)
0x0c0c0|00 00 00 00 00 00 00 00 00 00 00 00 00 00 00 00|................|
*      |until 0xffff.7 (16200)                         |                |
0x10530|00 00 00 00 00 00 00 00 00 00 00 00 00 00 00 00|................|  gap8: raw bits 0x10530-0x13f60 (14896)
*      |until 0x13f5f.7 (14896)                        |                |
0x14000|                        00 00 00 00 00 00 00 00|        ........|  gap9: raw bits 0x14008-0x18000 (16376)
0x14010|00 00 00 00 00 00 00 00 00 00 00 00 00 00 00 00|................|
*      |until 0x17fff.7 (16376)                        |                |
0x18010|00 00 00 00 00 00 00 00 00 00 00 00 00 00 00 00|................|  gap10: raw bits 0x18010-0x1c050 (16448)
*      |until 0x1c04f.7 (16448)                        |                |
0x1c090|02 00 00 00 03 00 00 00 02 00 00 00 00 00 00 00|................|  gap11: raw bits 0x1c090-0x1c0a0 (16)
0x1c0d0|                        00 00 00 00 00 00 00 00|        ........|  gap12: raw bits 0x1c0d8-0x1c2f6 (542)
0x1c0e0|fa de 0c c0 00 00 02 16 00 00 00 01 00 00 00 00|................|
*      |until 0x1c2f5.7 (end) (542)                    |                |
