$ fq -d raw 'frompem | asn1_ber | dv' ed25519.cer
      |00 01 02 03 04 05 06 07 08 09 0a 0b 0c 0d 0e 0f|0123456789abcdef|.{}: (asn1_ber) 0x0-0x182.7 (387)
0x0000|30                                             |0               |  class: "universal" (0) 0x0-0x0.1 (0.2)
0x0000|30                                             |0               |  form: "constructed" (1) 0x0.2-0x0.2 (0.1)
0x0000|30                                             |0               |  tag: "sequence" (0x10) 0x0.3-0x0.7 (0.5)
0x0000|   82 01 7f                                    | ...            |  length: 383 0x1-0x3.7 (3)
      |                                               |                |  constructed[0:3]: 0x4-0x182.7 (383)
      |                                               |                |    [0]{}: object 0x4-0x138.7 (309)
0x0000|            30                                 |    0           |      class: "universal" (0) 0x4-0x4.1 (0.2)
0x0000|            30                                 |    0           |      form: "constructed" (1) 0x4.2-0x4.2 (0.1)
0x0000|            30                                 |    0           |      tag: "sequence" (0x10) 0x4.3-0x4.7 (0.5)
0x0000|               82 01 31                        |     ..1        |      length: 305 0x5-0x7.7 (3)
      |                                               |                |      constructed[0:8]: 0x8-0x138.7 (305)
      |                                               |                |        [0]{}: object 0x8-0xc.7 (5)
0x0000|                        a0                     |        .       |          class: "context" (2) 0x8-0x8.1 (0.2)
0x0000|                        a0                     |        .       |          form: "constructed" (1) 0x8.2-0x8.2 (0.1)
0x0000|                        a0                     |        .       |          tag: 0 0x8.3-0x8.7 (0.5)
0x0000|                           03                  |         .      |          length: 3 0x9-0x9.7 (1)
      |                                               |                |          constructed[0:1]: 0xa-0xc.7 (3)
      |                                               |                |            [0]{}: object 0xa-0xc.7 (3)
0x0000|                              02               |          .     |              class: "universal" (0) 0xa-0xa.1 (0.2)
0x0000|                              02               |          .     |              form: "primitive" (0) 0xa.2-0xa.2 (0.1)
0x0000|                              02               |          .     |              tag: "integer" (0x2) 0xa.3-0xa.7 (0.5)
0x0000|                                 01            |           .    |              length: 1 0xb-0xb.7 (1)
0x0000|                                    02         |            .   |              value: 2 0xc-0xc.7 (1)
      |                                               |                |        [1]{}: object 0xd-0x22.7 (22)
0x0000|                                       02      |             .  |          class: "universal" (0) 0xd-0xd.1 (0.2)
0x0000|                                       02      |             .  |          form: "primitive" (0) 0xd.2-0xd.2 (0.1)
0x0000|                                       02      |             .  |          tag: "integer" (0x2) 0xd.3-0xd.7 (0.5)
0x0000|                                          14   |              . |          length: 20 0xe-0xe.7 (1)
0x0000|                                             7c|               ||          value: 711090297755414526861352146244170174161660335942 0xf-0x22.7 (20)
0x0010|8e 64 49 d7 0e d9 2d 3e 2e 4a 5d 2f 76 f6 55 42|.dI...->.J]/v.UB|
0x0020|46 d7 46                                       |F.F             |
      |                                               |                |        [2]{}: object 0x23-0x29.7 (7)
0x0020|         30                                    |   0            |          class: "universal" (0) 0x23-0x23.1 (0.2)
0x0020|         30                                    |   0            |          form: "constructed" (1) 0x23.2-0x23.2 (0.1)
0x0020|         30                                    |   0            |          tag: "sequence" (0x10) 0x23.3-0x23.7 (0.5)
0x0020|            05                                 |    .           |          length: 5 0x24-0x24.7 (1)
      |                                               |                |          constructed[0:1]: 0x25-0x29.7 (5)
      |                                               |                |            [0]{}: object 0x25-0x29.7 (5)
0x0020|               06                              |     .          |              class: "universal" (0) 0x25-0x25.1 (0.2)
0x0020|               06                              |     .          |              form: "primitive" (0) 0x25.2-0x25.2 (0.1)
0x0020|               06                              |     .          |              tag: "object_identifier" (0x6) 0x25.3-0x25.7 (0.5)
0x0020|                  03                           |      .         |              length: 3 0x26-0x26.7 (1)
      |                                               |                |              value[0:4]: 0x27-0x29.7 (3)
0x0020|                     2b                        |       +        |                [0]: 1 oid 0x27-0x27.7 (1)
0x0020|                     2b                        |       +        |                [1]: 3 oid 0x27-0x27.7 (1)
0x0020|                        65                     |        e       |                [2]: 101 oid 0x28-0x28.7 (1)
0x0020|                           70                  |         p      |                [3]: 112 oid 0x29-0x29.7 (1)
      |                                               |                |        [3]{}: object 0x2a-0x60.7 (55)
0x0020|                              30               |          0     |          class: "universal" (0) 0x2a-0x2a.1 (0.2)
0x0020|                              30               |          0     |          form: "constructed" (1) 0x2a.2-0x2a.2 (0.1)
0x0020|                              30               |          0     |          tag: "sequence" (0x10) 0x2a.3-0x2a.7 (0.5)
0x0020|                                 35            |           5    |          length: 53 0x2b-0x2b.7 (1)
      |                                               |                |          constructed[0:3]: 0x2c-0x60.7 (53)
      |                                               |                |            [0]{}: object 0x2c-0x38.7 (13)
0x0020|                                    31         |            1   |              class: "universal" (0) 0x2c-0x2c.1 (0.2)
0x0020|                                    31         |            1   |              form: "constructed" (1) 0x2c.2-0x2c.2 (0.1)
0x0020|                                    31         |            1   |              tag: "set" (0x11) 0x2c.3-0x2c.7 (0.5)
0x0020|                                       0b      |             .  |              length: 11 0x2d-0x2d.7 (1)
      |                                               |                |              constructed[0:1]: 0x2e-0x38.7 (11)
      |                                               |                |                [0]{}: object 0x2e-0x38.7 (11)
0x0020|                                          30   |              0 |                  class: "universal" (0) 0x2e-0x2e.1 (0.2)
0x0020|                                          30   |              0 |                  form: "constructed" (1) 0x2e.2-0x2e.2 (0.1)
0x0020|                                          30   |              0 |                  tag: "sequence" (0x10) 0x2e.3-0x2e.7 (0.5)
0x0020|                                             09|               .|                  length: 9 0x2f-0x2f.7 (1)
      |                                               |                |                  constructed[0:2]: 0x30-0x38.7 (9)
      |                                               |                |                    [0]{}: object 0x30-0x34.7 (5)
0x0030|06                                             |.               |                      class: "universal" (0) 0x30-0x30.1 (0.2)
0x0030|06                                             |.               |                      form: "primitive" (0) 0x30.2-0x30.2 (0.1)
0x0030|06                                             |.               |                      tag: "object_identifier" (0x6) 0x30.3-0x30.7 (0.5)
0x0030|   03                                          | .              |                      length: 3 0x31-0x31.7 (1)
      |                                               |                |                      value[0:4]: 0x32-0x34.7 (3)
0x0030|      55                                       |  U             |                        [0]: 2 oid 0x32-0x32.7 (1)
0x0030|      55                                       |  U             |                        [1]: 5 oid 0x32-0x32.7 (1)
0x0030|         04                                    |   .            |                        [2]: 4 oid 0x33-0x33.7 (1)
0x0030|            06                                 |    .           |                        [3]: 6 oid 0x34-0x34.7 (1)
      |                                               |                |                    [1]{}: object 0x35-0x38.7 (4)
0x0030|               13                              |     .          |                      class: "universal" (0) 0x35-0x35.1 (0.2)
0x0030|               13                              |     .          |                      form: "primitive" (0) 0x35.2-0x35.2 (0.1)
0x0030|               13                              |     .          |                      tag: "printable_string" (0x13) 0x35.3-0x35.7 (0.5)
0x0030|                  02                           |      .         |                      length: 2 0x36-0x36.7 (1)
0x0030|                     49 54                     |       IT       |                      value: "IT" 0x37-0x38.7 (2)
      |                                               |                |            [1]{}: object 0x39-0x49.7 (17)
0x0030|                           31                  |         1      |              class: "universal" (0) 0x39-0x39.1 (0.2)
0x0030|                           31                  |         1      |              form: "constructed" (1) 0x39.2-0x39.2 (0.1)
0x0030|                           31                  |         1      |              tag: "set" (0x11) 0x39.3-0x39.7 (0.5)
0x0030|                              0f               |          .     |              length: 15 0x3a-0x3a.7 (1)
      |                                               |                |              constructed[0:1]: 0x3b-0x49.7 (15)
      |                                               |                |                [0]{}: object 0x3b-0x49.7 (15)
0x0030|                                 30            |           0    |                  class: "universal" (0) 0x3b-0x3b.1 (0.2)
0x0030|                                 30            |           0    |                  form: "constructed" (1) 0x3b.2-0x3b.2 (0.1)
0x0030|                                 30            |           0    |                  tag: "sequence" (0x10) 0x3b.3-0x3b.7 (0.5)
0x0030|                                    0d         |            .   |                  length: 13 0x3c-0x3c.7 (1)
      |                                               |                |                  constructed[0:2]: 0x3d-0x49.7 (13)
      |                                               |                |                    [0]{}: object 0x3d-0x41.7 (5)
0x0030|                                       06      |             .  |                      class: "universal" (0) 0x3d-0x3d.1 (0.2)
0x0030|                                       06      |             .  |                      form: "primitive" (0) 0x3d.2-0x3d.2 (0.1)
0x0030|                                       06      |             .  |                      tag: "object_identifier" (0x6) 0x3d.3-0x3d.7 (0.5)
0x0030|                                          03   |              . |                      length: 3 0x3e-0x3e.7 (1)
      |                                               |                |                      value[0:4]: 0x3f-0x41.7 (3)
0x0030|                                             55|               U|                        [0]: 2 oid 0x3f-0x3f.7 (1)
0x0030|                                             55|               U|                        [1]: 5 oid 0x3f-0x3f.7 (1)
0x0040|04                                             |.               |                        [2]: 4 oid 0x40-0x40.7 (1)
0x0040|   07                                          | .              |                        [3]: 7 oid 0x41-0x41.7 (1)
      |                                               |                |                    [1]{}: object 0x42-0x49.7 (8)
0x0040|      0c                                       |  .             |                      class: "universal" (0) 0x42-0x42.1 (0.2)
0x0040|      0c                                       |  .             |                      form: "primitive" (0) 0x42.2-0x42.2 (0.1)
0x0040|      0c                                       |  .             |                      tag: "utf8_string" (0xc) 0x42.3-0x42.7 (0.5)
0x0040|         06                                    |   .            |                      length: 6 0x43-0x43.7 (1)
0x0040|            4d 69 6c 61 6e 6f                  |    Milano      |                      value: "Milano" 0x44-0x49.7 (6)
      |                                               |                |            [2]{}: object 0x4a-0x60.7 (23)
0x0040|                              31               |          1     |              class: "universal" (0) 0x4a-0x4a.1 (0.2)
0x0040|                              31               |          1     |              form: "constructed" (1) 0x4a.2-0x4a.2 (0.1)
0x0040|                              31               |          1     |              tag: "set" (0x11) 0x4a.3-0x4a.7 (0.5)
0x0040|                                 15            |           .    |              length: 21 0x4b-0x4b.7 (1)
      |                                               |                |              constructed[0:1]: 0x4c-0x60.7 (21)
      |                                               |                |                [0]{}: object 0x4c-0x60.7 (21)
0x0040|                                    30         |            0   |                  class: "universal" (0) 0x4c-0x4c.1 (0.2)
0x0040|                                    30         |            0   |                  form: "constructed" (1) 0x4c.2-0x4c.2 (0.1)
0x0040|                                    30         |            0   |                  tag: "sequence" (0x10) 0x4c.3-0x4c.7 (0.5)
0x0040|                                       13      |             .  |                  length: 19 0x4d-0x4d.7 (1)
      |                                               |                |                  constructed[0:2]: 0x4e-0x60.7 (19)
      |                                               |                |                    [0]{}: object 0x4e-0x52.7 (5)
0x0040|                                          06   |              . |                      class: "universal" (0) 0x4e-0x4e.1 (0.2)
0x0040|                                          06   |              . |                      form: "primitive" (0) 0x4e.2-0x4e.2 (0.1)
0x0040|                                          06   |              . |                      tag: "object_identifier" (0x6) 0x4e.3-0x4e.7 (0.5)
0x0040|                                             03|               .|                      length: 3 0x4f-0x4f.7 (1)
      |                                               |                |                      value[0:4]: 0x50-0x52.7 (3)
0x0050|55                                             |U               |                        [0]: 2 oid 0x50-0x50.7 (1)
0x0050|55                                             |U               |                        [1]: 5 oid 0x50-0x50.7 (1)
0x0050|   04                                          | .              |                        [2]: 4 oid 0x51-0x51.7 (1)
0x0050|      03                                       |  .             |                        [3]: 3 oid 0x52-0x52.7 (1)
      |                                               |                |                    [1]{}: object 0x53-0x60.7 (14)
0x0050|         0c                                    |   .            |                      class: "universal" (0) 0x53-0x53.1 (0.2)
0x0050|         0c                                    |   .            |                      form: "primitive" (0) 0x53.2-0x53.2 (0.1)
0x0050|         0c                                    |   .            |                      tag: "utf8_string" (0xc) 0x53.3-0x53.7 (0.5)
0x0050|            0c                                 |    .           |                      length: 12 0x54-0x54.7 (1)
0x0050|               54 65 73 74 20 65 64 32 35 35 31|     Test ed2551|                      value: "Test ed25519" 0x55-0x60.7 (12)
0x0060|39                                             |9               |
      |                                               |                |        [4]{}: object 0x61-0x80.7 (32)
0x0060|   30                                          | 0              |          class: "universal" (0) 0x61-0x61.1 (0.2)
0x0060|   30                                          | 0              |          form: "constructed" (1) 0x61.2-0x61.2 (0.1)
0x0060|   30                                          | 0              |          tag: "sequence" (0x10) 0x61.3-0x61.7 (0.5)
0x0060|      1e                                       |  .             |          length: 30 0x62-0x62.7 (1)
      |                                               |                |          constructed[0:2]: 0x63-0x80.7 (30)
      |                                               |                |            [0]{}: object 0x63-0x71.7 (15)
0x0060|         17                                    |   .            |              class: "universal" (0) 0x63-0x63.1 (0.2)
0x0060|         17                                    |   .            |              form: "primitive" (0) 0x63.2-0x63.2 (0.1)
0x0060|         17                                    |   .            |              tag: "utc_time" (0x17) 0x63.3-0x63.7 (0.5)
0x0060|            0d                                 |    .           |              length: 13 0x64-0x64.7 (1)
0x0060|               32 30 30 39 30 32 31 33 32 35 32|     20090213252|              value: "200902132526Z" 0x65-0x71.7 (13)
0x0070|36 5a                                          |6Z              |
      |                                               |                |            [1]{}: object 0x72-0x80.7 (15)
0x0070|      17                                       |  .             |              class: "universal" (0) 0x72-0x72.1 (0.2)
0x0070|      17                                       |  .             |              form: "primitive" (0) 0x72.2-0x72.2 (0.1)
0x0070|      17                                       |  .             |              tag: "utc_time" (0x17) 0x72.3-0x72.7 (0.5)
0x0070|         0d                                    |   .            |              length: 13 0x73-0x73.7 (1)
0x0070|            33 30 30 39 30 32 31 33 32 35 32 36|    300902132526|              value: "300902132526Z" 0x74-0x80.7 (13)
0x0080|5a                                             |Z               |
      |                                               |                |        [5]{}: object 0x81-0xb7.7 (55)
0x0080|   30                                          | 0              |          class: "universal" (0) 0x81-0x81.1 (0.2)
0x0080|   30                                          | 0              |          form: "constructed" (1) 0x81.2-0x81.2 (0.1)
0x0080|   30                                          | 0              |          tag: "sequence" (0x10) 0x81.3-0x81.7 (0.5)
0x0080|      35                                       |  5             |          length: 53 0x82-0x82.7 (1)
      |                                               |                |          constructed[0:3]: 0x83-0xb7.7 (53)
      |                                               |                |            [0]{}: object 0x83-0x8f.7 (13)
0x0080|         31                                    |   1            |              class: "universal" (0) 0x83-0x83.1 (0.2)
0x0080|         31                                    |   1            |              form: "constructed" (1) 0x83.2-0x83.2 (0.1)
0x0080|         31                                    |   1            |              tag: "set" (0x11) 0x83.3-0x83.7 (0.5)
0x0080|            0b                                 |    .           |              length: 11 0x84-0x84.7 (1)
      |                                               |                |              constructed[0:1]: 0x85-0x8f.7 (11)
      |                                               |                |                [0]{}: object 0x85-0x8f.7 (11)
0x0080|               30                              |     0          |                  class: "universal" (0) 0x85-0x85.1 (0.2)
0x0080|               30                              |     0          |                  form: "constructed" (1) 0x85.2-0x85.2 (0.1)
0x0080|               30                              |     0          |                  tag: "sequence" (0x10) 0x85.3-0x85.7 (0.5)
0x0080|                  09                           |      .         |                  length: 9 0x86-0x86.7 (1)
      |                                               |                |                  constructed[0:2]: 0x87-0x8f.7 (9)
      |                                               |                |                    [0]{}: object 0x87-0x8b.7 (5)
0x0080|                     06                        |       .        |                      class: "universal" (0) 0x87-0x87.1 (0.2)
0x0080|                     06                        |       .        |                      form: "primitive" (0) 0x87.2-0x87.2 (0.1)
0x0080|                     06                        |       .        |                      tag: "object_identifier" (0x6) 0x87.3-0x87.7 (0.5)
0x0080|                        03                     |        .       |                      length: 3 0x88-0x88.7 (1)
      |                                               |                |                      value[0:4]: 0x89-0x8b.7 (3)
0x0080|                           55                  |         U      |                        [0]: 2 oid 0x89-0x89.7 (1)
0x0080|                           55                  |         U      |                        [1]: 5 oid 0x89-0x89.7 (1)
0x0080|                              04               |          .     |                        [2]: 4 oid 0x8a-0x8a.7 (1)
0x0080|                                 06            |           .    |                        [3]: 6 oid 0x8b-0x8b.7 (1)
      |                                               |                |                    [1]{}: object 0x8c-0x8f.7 (4)
0x0080|                                    13         |            .   |                      class: "universal" (0) 0x8c-0x8c.1 (0.2)
0x0080|                                    13         |            .   |                      form: "primitive" (0) 0x8c.2-0x8c.2 (0.1)
0x0080|                                    13         |            .   |                      tag: "printable_string" (0x13) 0x8c.3-0x8c.7 (0.5)
0x0080|                                       02      |             .  |                      length: 2 0x8d-0x8d.7 (1)
0x0080|                                          49 54|              IT|                      value: "IT" 0x8e-0x8f.7 (2)
      |                                               |                |            [1]{}: object 0x90-0xa0.7 (17)
0x0090|31                                             |1               |              class: "universal" (0) 0x90-0x90.1 (0.2)
0x0090|31                                             |1               |              form: "constructed" (1) 0x90.2-0x90.2 (0.1)
0x0090|31                                             |1               |              tag: "set" (0x11) 0x90.3-0x90.7 (0.5)
0x0090|   0f                                          | .              |              length: 15 0x91-0x91.7 (1)
      |                                               |                |              constructed[0:1]: 0x92-0xa0.7 (15)
      |                                               |                |                [0]{}: object 0x92-0xa0.7 (15)
0x0090|      30                                       |  0             |                  class: "universal" (0) 0x92-0x92.1 (0.2)
0x0090|      30                                       |  0             |                  form: "constructed" (1) 0x92.2-0x92.2 (0.1)
0x0090|      30                                       |  0             |                  tag: "sequence" (0x10) 0x92.3-0x92.7 (0.5)
0x0090|         0d                                    |   .            |                  length: 13 0x93-0x93.7 (1)
      |                                               |                |                  constructed[0:2]: 0x94-0xa0.7 (13)
      |                                               |                |                    [0]{}: object 0x94-0x98.7 (5)
0x0090|            06                                 |    .           |                      class: "universal" (0) 0x94-0x94.1 (0.2)
0x0090|            06                                 |    .           |                      form: "primitive" (0) 0x94.2-0x94.2 (0.1)
0x0090|            06                                 |    .           |                      tag: "object_identifier" (0x6) 0x94.3-0x94.7 (0.5)
0x0090|               03                              |     .          |                      length: 3 0x95-0x95.7 (1)
      |                                               |                |                      value[0:4]: 0x96-0x98.7 (3)
0x0090|                  55                           |      U         |                        [0]: 2 oid 0x96-0x96.7 (1)
0x0090|                  55                           |      U         |                        [1]: 5 oid 0x96-0x96.7 (1)
0x0090|                     04                        |       .        |                        [2]: 4 oid 0x97-0x97.7 (1)
0x0090|                        07                     |        .       |                        [3]: 7 oid 0x98-0x98.7 (1)
      |                                               |                |                    [1]{}: object 0x99-0xa0.7 (8)
0x0090|                           0c                  |         .      |                      class: "universal" (0) 0x99-0x99.1 (0.2)
0x0090|                           0c                  |         .      |                      form: "primitive" (0) 0x99.2-0x99.2 (0.1)
0x0090|                           0c                  |         .      |                      tag: "utf8_string" (0xc) 0x99.3-0x99.7 (0.5)
0x0090|                              06               |          .     |                      length: 6 0x9a-0x9a.7 (1)
0x0090|                                 4d 69 6c 61 6e|           Milan|                      value: "Milano" 0x9b-0xa0.7 (6)
0x00a0|6f                                             |o               |
      |                                               |                |            [2]{}: object 0xa1-0xb7.7 (23)
0x00a0|   31                                          | 1              |              class: "universal" (0) 0xa1-0xa1.1 (0.2)
0x00a0|   31                                          | 1              |              form: "constructed" (1) 0xa1.2-0xa1.2 (0.1)
0x00a0|   31                                          | 1              |              tag: "set" (0x11) 0xa1.3-0xa1.7 (0.5)
0x00a0|      15                                       |  .             |              length: 21 0xa2-0xa2.7 (1)
      |                                               |                |              constructed[0:1]: 0xa3-0xb7.7 (21)
      |                                               |                |                [0]{}: object 0xa3-0xb7.7 (21)
0x00a0|         30                                    |   0            |                  class: "universal" (0) 0xa3-0xa3.1 (0.2)
0x00a0|         30                                    |   0            |                  form: "constructed" (1) 0xa3.2-0xa3.2 (0.1)
0x00a0|         30                                    |   0            |                  tag: "sequence" (0x10) 0xa3.3-0xa3.7 (0.5)
0x00a0|            13                                 |    .           |                  length: 19 0xa4-0xa4.7 (1)
      |                                               |                |                  constructed[0:2]: 0xa5-0xb7.7 (19)
      |                                               |                |                    [0]{}: object 0xa5-0xa9.7 (5)
0x00a0|               06                              |     .          |                      class: "universal" (0) 0xa5-0xa5.1 (0.2)
0x00a0|               06                              |     .          |                      form: "primitive" (0) 0xa5.2-0xa5.2 (0.1)
0x00a0|               06                              |     .          |                      tag: "object_identifier" (0x6) 0xa5.3-0xa5.7 (0.5)
0x00a0|                  03                           |      .         |                      length: 3 0xa6-0xa6.7 (1)
      |                                               |                |                      value[0:4]: 0xa7-0xa9.7 (3)
0x00a0|                     55                        |       U        |                        [0]: 2 oid 0xa7-0xa7.7 (1)
0x00a0|                     55                        |       U        |                        [1]: 5 oid 0xa7-0xa7.7 (1)
0x00a0|                        04                     |        .       |                        [2]: 4 oid 0xa8-0xa8.7 (1)
0x00a0|                           03                  |         .      |                        [3]: 3 oid 0xa9-0xa9.7 (1)
      |                                               |                |                    [1]{}: object 0xaa-0xb7.7 (14)
0x00a0|                              0c               |          .     |                      class: "universal" (0) 0xaa-0xaa.1 (0.2)
0x00a0|                              0c               |          .     |                      form: "primitive" (0) 0xaa.2-0xaa.2 (0.1)
0x00a0|                              0c               |          .     |                      tag: "utf8_string" (0xc) 0xaa.3-0xaa.7 (0.5)
0x00a0|                                 0c            |           .    |                      length: 12 0xab-0xab.7 (1)
0x00a0|                                    54 65 73 74|            Test|                      value: "Test ed25519" 0xac-0xb7.7 (12)
0x00b0|20 65 64 32 35 35 31 39                        | ed25519        |
      |                                               |                |        [6]{}: object 0xb8-0xe3.7 (44)
0x00b0|                        30                     |        0       |          class: "universal" (0) 0xb8-0xb8.1 (0.2)
0x00b0|                        30                     |        0       |          form: "constructed" (1) 0xb8.2-0xb8.2 (0.1)
0x00b0|                        30                     |        0       |          tag: "sequence" (0x10) 0xb8.3-0xb8.7 (0.5)
0x00b0|                           2a                  |         *      |          length: 42 0xb9-0xb9.7 (1)
      |                                               |                |          constructed[0:2]: 0xba-0xe3.7 (42)
      |                                               |                |            [0]{}: object 0xba-0xc0.7 (7)
0x00b0|                              30               |          0     |              class: "universal" (0) 0xba-0xba.1 (0.2)
0x00b0|                              30               |          0     |              form: "constructed" (1) 0xba.2-0xba.2 (0.1)
0x00b0|                              30               |          0     |              tag: "sequence" (0x10) 0xba.3-0xba.7 (0.5)
0x00b0|                                 05            |           .    |              length: 5 0xbb-0xbb.7 (1)
      |                                               |                |              constructed[0:1]: 0xbc-0xc0.7 (5)
      |                                               |                |                [0]{}: object 0xbc-0xc0.7 (5)
0x00b0|                                    06         |            .   |                  class: "universal" (0) 0xbc-0xbc.1 (0.2)
0x00b0|                                    06         |            .   |                  form: "primitive" (0) 0xbc.2-0xbc.2 (0.1)
0x00b0|                                    06         |            .   |                  tag: "object_identifier" (0x6) 0xbc.3-0xbc.7 (0.5)
0x00b0|                                       03      |             .  |                  length: 3 0xbd-0xbd.7 (1)
      |                                               |                |                  value[0:4]: 0xbe-0xc0.7 (3)
0x00b0|                                          2b   |              + |                    [0]: 1 oid 0xbe-0xbe.7 (1)
0x00b0|                                          2b   |              + |                    [1]: 3 oid 0xbe-0xbe.7 (1)
0x00b0|                                             65|               e|                    [2]: 101 oid 0xbf-0xbf.7 (1)
0x00c0|70                                             |p               |                    [3]: 112 oid 0xc0-0xc0.7 (1)
      |                                               |                |            [1]{}: object 0xc1-0xe3.7 (35)
0x00c0|   03                                          | .              |              class: "universal" (0) 0xc1-0xc1.1 (0.2)
0x00c0|   03                                          | .              |              form: "primitive" (0) 0xc1.2-0xc1.2 (0.1)
0x00c0|   03                                          | .              |              tag: "bit_string" (0x3) 0xc1.3-0xc1.7 (0.5)
0x00c0|      21                                       |  !             |              length: 33 0xc2-0xc2.7 (1)
0x00c0|         00                                    |   .            |              unused_bits_count: 0 0xc3-0xc3.7 (1)
0x00c0|            3b a9 2f fd cb 17 66 de 40 a2 92 f7|    ;./...f.@...|              value: raw bits 0xc4-0xe3.7 (32)
0x00d0|93 de 30 f8 0a 23 a8 31 21 5d d0 07 d8 63 24 2e|..0..#.1!]...c$.|
0x00e0|ff 68 21 85                                    |.h!.            |
      |                                               |                |        [7]{}: object 0xe4-0x138.7 (85)
0x00e0|            a3                                 |    .           |          class: "context" (2) 0xe4-0xe4.1 (0.2)
0x00e0|            a3                                 |    .           |          form: "constructed" (1) 0xe4.2-0xe4.2 (0.1)
0x00e0|            a3                                 |    .           |          tag: 3 0xe4.3-0xe4.7 (0.5)
0x00e0|               53                              |     S          |          length: 83 0xe5-0xe5.7 (1)
      |                                               |                |          constructed[0:1]: 0xe6-0x138.7 (83)
      |                                               |                |            [0]{}: object 0xe6-0x138.7 (83)
0x00e0|                  30                           |      0         |              class: "universal" (0) 0xe6-0xe6.1 (0.2)
0x00e0|                  30                           |      0         |              form: "constructed" (1) 0xe6.2-0xe6.2 (0.1)
0x00e0|                  30                           |      0         |              tag: "sequence" (0x10) 0xe6.3-0xe6.7 (0.5)
0x00e0|                     51                        |       Q        |              length: 81 0xe7-0xe7.7 (1)
      |                                               |                |              constructed[0:3]: 0xe8-0x138.7 (81)
      |                                               |                |                [0]{}: object 0xe8-0x106.7 (31)
0x00e0|                        30                     |        0       |                  class: "universal" (0) 0xe8-0xe8.1 (0.2)
0x00e0|                        30                     |        0       |                  form: "constructed" (1) 0xe8.2-0xe8.2 (0.1)
0x00e0|                        30                     |        0       |                  tag: "sequence" (0x10) 0xe8.3-0xe8.7 (0.5)
0x00e0|                           1d                  |         .      |                  length: 29 0xe9-0xe9.7 (1)
      |                                               |                |                  constructed[0:2]: 0xea-0x106.7 (29)
      |                                               |                |                    [0]{}: object 0xea-0xee.7 (5)
0x00e0|                              06               |          .     |                      class: "universal" (0) 0xea-0xea.1 (0.2)
0x00e0|                              06               |          .     |                      form: "primitive" (0) 0xea.2-0xea.2 (0.1)
0x00e0|                              06               |          .     |                      tag: "object_identifier" (0x6) 0xea.3-0xea.7 (0.5)
0x00e0|                                 03            |           .    |                      length: 3 0xeb-0xeb.7 (1)
      |                                               |                |                      value[0:4]: 0xec-0xee.7 (3)
0x00e0|                                    55         |            U   |                        [0]: 2 oid 0xec-0xec.7 (1)
0x00e0|                                    55         |            U   |                        [1]: 5 oid 0xec-0xec.7 (1)
0x00e0|                                       1d      |             .  |                        [2]: 29 oid 0xed-0xed.7 (1)
0x00e0|                                          0e   |              . |                        [3]: 14 oid 0xee-0xee.7 (1)
      |                                               |                |                    [1]{}: object 0xef-0x106.7 (24)
0x00e0|                                             04|               .|                      class: "universal" (0) 0xef-0xef.1 (0.2)
0x00e0|                                             04|               .|                      form: "primitive" (0) 0xef.2-0xef.2 (0.1)
0x00e0|                                             04|               .|                      tag: "octet_string" (0x4) 0xef.3-0xef.7 (0.5)
0x00f0|16                                             |.               |                      length: 22 0xf0-0xf0.7 (1)
0x00f0|   04 14 6b a5 bd cf 9d fa 23 59 78 12 64 17 ae| ..k.....#Yx.d..|                      value: raw bits 0xf1-0x106.7 (22)
0x0100|1e 72 d8 9a 80 4a e8                           |.r...J.         |
      |                                               |                |                [1]{}: object 0x107-0x127.7 (33)
0x0100|                     30                        |       0        |                  class: "universal" (0) 0x107-0x107.1 (0.2)
0x0100|                     30                        |       0        |                  form: "constructed" (1) 0x107.2-0x107.2 (0.1)
0x0100|                     30                        |       0        |                  tag: "sequence" (0x10) 0x107.3-0x107.7 (0.5)
0x0100|                        1f                     |        .       |                  length: 31 0x108-0x108.7 (1)
      |                                               |                |                  constructed[0:2]: 0x109-0x127.7 (31)
      |                                               |                |                    [0]{}: object 0x109-0x10d.7 (5)
0x0100|                           06                  |         .      |                      class: "universal" (0) 0x109-0x109.1 (0.2)
0x0100|                           06                  |         .      |                      form: "primitive" (0) 0x109.2-0x109.2 (0.1)
0x0100|                           06                  |         .      |                      tag: "object_identifier" (0x6) 0x109.3-0x109.7 (0.5)
0x0100|                              03               |          .     |                      length: 3 0x10a-0x10a.7 (1)
      |                                               |                |                      value[0:4]: 0x10b-0x10d.7 (3)
0x0100|                                 55            |           U    |                        [0]: 2 oid 0x10b-0x10b.7 (1)
0x0100|                                 55            |           U    |                        [1]: 5 oid 0x10b-0x10b.7 (1)
0x0100|                                    1d         |            .   |                        [2]: 29 oid 0x10c-0x10c.7 (1)
0x0100|                                       23      |             #  |                        [3]: 35 oid 0x10d-0x10d.7 (1)
      |                                               |                |                    [1]{}: object 0x10e-0x127.7 (26)
0x0100|                                          04   |              . |                      class: "universal" (0) 0x10e-0x10e.1 (0.2)
0x0100|                                          04   |              . |                      form: "primitive" (0) 0x10e.2-0x10e.2 (0.1)
0x0100|                                          04   |              . |                      tag: "octet_string" (0x4) 0x10e.3-0x10e.7 (0.5)
0x0100|                                             18|               .|                      length: 24 0x10f-0x10f.7 (1)
0x0110|30 16 80 14 6b a5 bd cf 9d fa 23 59 78 12 64 17|0...k.....#Yx.d.|                      value: raw bits 0x110-0x127.7 (24)
0x0120|ae 1e 72 d8 9a 80 4a e8                        |..r...J.        |
      |                                               |                |                [2]{}: object 0x128-0x138.7 (17)
0x0120|                        30                     |        0       |                  class: "universal" (0) 0x128-0x128.1 (0.2)
0x0120|                        30                     |        0       |                  form: "constructed" (1) 0x128.2-0x128.2 (0.1)
0x0120|                        30                     |        0       |                  tag: "sequence" (0x10) 0x128.3-0x128.7 (0.5)
0x0120|                           0f                  |         .      |                  length: 15 0x129-0x129.7 (1)
      |                                               |                |                  constructed[0:3]: 0x12a-0x138.7 (15)
      |                                               |                |                    [0]{}: object 0x12a-0x12e.7 (5)
0x0120|                              06               |          .     |                      class: "universal" (0) 0x12a-0x12a.1 (0.2)
0x0120|                              06               |          .     |                      form: "primitive" (0) 0x12a.2-0x12a.2 (0.1)
0x0120|                              06               |          .     |                      tag: "object_identifier" (0x6) 0x12a.3-0x12a.7 (0.5)
0x0120|                                 03            |           .    |                      length: 3 0x12b-0x12b.7 (1)
      |                                               |                |                      value[0:4]: 0x12c-0x12e.7 (3)
0x0120|                                    55         |            U   |                        [0]: 2 oid 0x12c-0x12c.7 (1)
0x0120|                                    55         |            U   |                        [1]: 5 oid 0x12c-0x12c.7 (1)
0x0120|                                       1d      |             .  |                        [2]: 29 oid 0x12d-0x12d.7 (1)
0x0120|                                          13   |              . |                        [3]: 19 oid 0x12e-0x12e.7 (1)
      |                                               |                |                    [1]{}: object 0x12f-0x131.7 (3)
0x0120|                                             01|               .|                      class: "universal" (0) 0x12f-0x12f.1 (0.2)
0x0120|                                             01|               .|                      form: "primitive" (0) 0x12f.2-0x12f.2 (0.1)
0x0120|                                             01|               .|                      tag: "boolean" (0x1) 0x12f.3-0x12f.7 (0.5)
0x0130|01                                             |.               |                      length: 1 0x130-0x130.7 (1)
0x0130|   ff                                          | .              |                      value: true (255) 0x131-0x131.7 (1)
      |                                               |                |                    [2]{}: object 0x132-0x138.7 (7)
0x0130|      04                                       |  .             |                      class: "universal" (0) 0x132-0x132.1 (0.2)
0x0130|      04                                       |  .             |                      form: "primitive" (0) 0x132.2-0x132.2 (0.1)
0x0130|      04                                       |  .             |                      tag: "octet_string" (0x4) 0x132.3-0x132.7 (0.5)
0x0130|         05                                    |   .            |                      length: 5 0x133-0x133.7 (1)
0x0130|            30 03 01 01 ff                     |    0....       |                      value: raw bits 0x134-0x138.7 (5)
      |00 01 02 03 04 05 06 07 08 09 0a 0b 0c 0d 0e 0f|0123456789abcdef|
  0x00|04 14 6b a5 bd cf 9d fa 23 59 78 12 64 17 ae 1e|..k.....#Yx.d...|          value: raw bits 0x0-0x32.7 (51)
  *   |until 0x32.7 (end) (51)                        |                |
      |                                               |                |    [1]{}: object 0x139-0x13f.7 (7)
0x0130|                           30                  |         0      |      class: "universal" (0) 0x139-0x139.1 (0.2)
0x0130|                           30                  |         0      |      form: "constructed" (1) 0x139.2-0x139.2 (0.1)
0x0130|                           30                  |         0      |      tag: "sequence" (0x10) 0x139.3-0x139.7 (0.5)
0x0130|                              05               |          .     |      length: 5 0x13a-0x13a.7 (1)
      |                                               |                |      constructed[0:1]: 0x13b-0x13f.7 (5)
      |                                               |                |        [0]{}: object 0x13b-0x13f.7 (5)
0x0130|                                 06            |           .    |          class: "universal" (0) 0x13b-0x13b.1 (0.2)
0x0130|                                 06            |           .    |          form: "primitive" (0) 0x13b.2-0x13b.2 (0.1)
0x0130|                                 06            |           .    |          tag: "object_identifier" (0x6) 0x13b.3-0x13b.7 (0.5)
0x0130|                                    03         |            .   |          length: 3 0x13c-0x13c.7 (1)
      |                                               |                |          value[0:4]: 0x13d-0x13f.7 (3)
0x0130|                                       2b      |             +  |            [0]: 1 oid 0x13d-0x13d.7 (1)
0x0130|                                       2b      |             +  |            [1]: 3 oid 0x13d-0x13d.7 (1)
0x0130|                                          65   |              e |            [2]: 101 oid 0x13e-0x13e.7 (1)
0x0130|                                             70|               p|            [3]: 112 oid 0x13f-0x13f.7 (1)
      |                                               |                |    [2]{}: object 0x140-0x182.7 (67)
0x0140|03                                             |.               |      class: "universal" (0) 0x140-0x140.1 (0.2)
0x0140|03                                             |.               |      form: "primitive" (0) 0x140.2-0x140.2 (0.1)
0x0140|03                                             |.               |      tag: "bit_string" (0x3) 0x140.3-0x140.7 (0.5)
0x0140|   41                                          | A              |      length: 65 0x141-0x141.7 (1)
0x0140|      00                                       |  .             |      unused_bits_count: 0 0x142-0x142.7 (1)
0x0140|         6f 73 77 be 28 96 5a 33 36 d7 e5 34 fd|   osw.(.Z36..4.|      value: raw bits 0x143-0x182.7 (64)
0x0150|90 f3 fd 40 7f 1f 02 f9 00 57 f2 16 0f 16 6b 04|...@.....W....k.|
*     |until 0x182.7 (end) (64)                       |                |
