$ fq -d bytes 'from_pem | asn1_ber | dv' letsencrypt-x3.cer
       |00 01 02 03 04 05 06 07 08 09 0a 0b 0c 0d 0e 0f|0123456789abcdef|.{}: (asn1_ber) 0x0-0x496 (1174)
0x00000|30                                             |0               |  class: "universal" (0) 0x0-0x0.2 (0.2)
0x00000|30                                             |0               |  form: "constructed" (1) 0x0.2-0x0.3 (0.1)
0x00000|30                                             |0               |  tag: "sequence" (0x10) 0x0.3-0x1 (0.5)
0x00000|   82 04 92                                    | ...            |  length: 1170 0x1-0x4 (3)
       |                                               |                |  constructed[0:3]: 0x4-0x496 (1170)
       |                                               |                |    [0]{}: object 0x4-0x382 (894)
0x00000|            30                                 |    0           |      class: "universal" (0) 0x4-0x4.2 (0.2)
0x00000|            30                                 |    0           |      form: "constructed" (1) 0x4.2-0x4.3 (0.1)
0x00000|            30                                 |    0           |      tag: "sequence" (0x10) 0x4.3-0x5 (0.5)
0x00000|               82 03 7a                        |     ..z        |      length: 890 0x5-0x8 (3)
       |                                               |                |      constructed[0:8]: 0x8-0x382 (890)
       |                                               |                |        [0]{}: object 0x8-0xd (5)
0x00000|                        a0                     |        .       |          class: "context" (2) 0x8-0x8.2 (0.2)
0x00000|                        a0                     |        .       |          form: "constructed" (1) 0x8.2-0x8.3 (0.1)
0x00000|                        a0                     |        .       |          tag: 0 0x8.3-0x9 (0.5)
0x00000|                           03                  |         .      |          length: 3 0x9-0xa (1)
       |                                               |                |          constructed[0:1]: 0xa-0xd (3)
       |                                               |                |            [0]{}: object 0xa-0xd (3)
0x00000|                              02               |          .     |              class: "universal" (0) 0xa-0xa.2 (0.2)
0x00000|                              02               |          .     |              form: "primitive" (0) 0xa.2-0xa.3 (0.1)
0x00000|                              02               |          .     |              tag: "integer" (0x2) 0xa.3-0xb (0.5)
0x00000|                                 01            |           .    |              length: 1 0xb-0xc (1)
0x00000|                                    02         |            .   |              value: 2 0xc-0xd (1)
       |                                               |                |        [1]{}: object 0xd-0x1f (18)
0x00000|                                       02      |             .  |          class: "universal" (0) 0xd-0xd.2 (0.2)
0x00000|                                       02      |             .  |          form: "primitive" (0) 0xd.2-0xd.3 (0.1)
0x00000|                                       02      |             .  |          tag: "integer" (0x2) 0xd.3-0xe (0.5)
0x00000|                                          10   |              . |          length: 16 0xe-0xf (1)
0x00000|                                             0a|               .|          value: 13298795840390663119752826058995181320 0xf-0x1f (16)
0x00010|01 41 42 00 00 01 53 85 73 6a 0b 85 ec a7 08   |.AB...S.sj..... |
       |                                               |                |        [2]{}: object 0x1f-0x2e (15)
0x00010|                                             30|               0|          class: "universal" (0) 0x1f-0x1f.2 (0.2)
0x00010|                                             30|               0|          form: "constructed" (1) 0x1f.2-0x1f.3 (0.1)
0x00010|                                             30|               0|          tag: "sequence" (0x10) 0x1f.3-0x20 (0.5)
0x00020|0d                                             |.               |          length: 13 0x20-0x21 (1)
       |                                               |                |          constructed[0:2]: 0x21-0x2e (13)
       |                                               |                |            [0]{}: object 0x21-0x2c (11)
0x00020|   06                                          | .              |              class: "universal" (0) 0x21-0x21.2 (0.2)
0x00020|   06                                          | .              |              form: "primitive" (0) 0x21.2-0x21.3 (0.1)
0x00020|   06                                          | .              |              tag: "object_identifier" (0x6) 0x21.3-0x22 (0.5)
0x00020|      09                                       |  .             |              length: 9 0x22-0x23 (1)
       |                                               |                |              value[0:7]: 0x23-0x2c (9)
0x00020|         2a                                    |   *            |                [0]: 1 oid 0x23-0x24 (1)
0x00020|         2a                                    |   *            |                [1]: 2 oid 0x23-0x24 (1)
0x00020|            86 48                              |    .H          |                [2]: 840 oid 0x24-0x26 (2)
0x00020|                  86 f7 0d                     |      ...       |                [3]: 113549 oid 0x26-0x29 (3)
0x00020|                           01                  |         .      |                [4]: 1 oid 0x29-0x2a (1)
0x00020|                              01               |          .     |                [5]: 1 oid 0x2a-0x2b (1)
0x00020|                                 0b            |           .    |                [6]: 11 oid 0x2b-0x2c (1)
       |                                               |                |            [1]{}: object 0x2c-0x2e (2)
0x00020|                                    05         |            .   |              class: "universal" (0) 0x2c-0x2c.2 (0.2)
0x00020|                                    05         |            .   |              form: "primitive" (0) 0x2c.2-0x2c.3 (0.1)
0x00020|                                    05         |            .   |              tag: "null" (0x5) 0x2c.3-0x2d (0.5)
0x00020|                                       00      |             .  |              length: "indefinite" (0) 0x2d-0x2e (1)
       |                                               |                |              value: null
       |                                               |                |        [3]{}: object 0x2e-0x6f (65)
0x00020|                                          30   |              0 |          class: "universal" (0) 0x2e-0x2e.2 (0.2)
0x00020|                                          30   |              0 |          form: "constructed" (1) 0x2e.2-0x2e.3 (0.1)
0x00020|                                          30   |              0 |          tag: "sequence" (0x10) 0x2e.3-0x2f (0.5)
0x00020|                                             3f|               ?|          length: 63 0x2f-0x30 (1)
       |                                               |                |          constructed[0:2]: 0x30-0x6f (63)
       |                                               |                |            [0]{}: object 0x30-0x56 (38)
0x00030|31                                             |1               |              class: "universal" (0) 0x30-0x30.2 (0.2)
0x00030|31                                             |1               |              form: "constructed" (1) 0x30.2-0x30.3 (0.1)
0x00030|31                                             |1               |              tag: "set" (0x11) 0x30.3-0x31 (0.5)
0x00030|   24                                          | $              |              length: 36 0x31-0x32 (1)
       |                                               |                |              constructed[0:1]: 0x32-0x56 (36)
       |                                               |                |                [0]{}: object 0x32-0x56 (36)
0x00030|      30                                       |  0             |                  class: "universal" (0) 0x32-0x32.2 (0.2)
0x00030|      30                                       |  0             |                  form: "constructed" (1) 0x32.2-0x32.3 (0.1)
0x00030|      30                                       |  0             |                  tag: "sequence" (0x10) 0x32.3-0x33 (0.5)
0x00030|         22                                    |   "            |                  length: 34 0x33-0x34 (1)
       |                                               |                |                  constructed[0:2]: 0x34-0x56 (34)
       |                                               |                |                    [0]{}: object 0x34-0x39 (5)
0x00030|            06                                 |    .           |                      class: "universal" (0) 0x34-0x34.2 (0.2)
0x00030|            06                                 |    .           |                      form: "primitive" (0) 0x34.2-0x34.3 (0.1)
0x00030|            06                                 |    .           |                      tag: "object_identifier" (0x6) 0x34.3-0x35 (0.5)
0x00030|               03                              |     .          |                      length: 3 0x35-0x36 (1)
       |                                               |                |                      value[0:4]: 0x36-0x39 (3)
0x00030|                  55                           |      U         |                        [0]: 2 oid 0x36-0x37 (1)
0x00030|                  55                           |      U         |                        [1]: 5 oid 0x36-0x37 (1)
0x00030|                     04                        |       .        |                        [2]: 4 oid 0x37-0x38 (1)
0x00030|                        0a                     |        .       |                        [3]: 10 oid 0x38-0x39 (1)
       |                                               |                |                    [1]{}: object 0x39-0x56 (29)
0x00030|                           13                  |         .      |                      class: "universal" (0) 0x39-0x39.2 (0.2)
0x00030|                           13                  |         .      |                      form: "primitive" (0) 0x39.2-0x39.3 (0.1)
0x00030|                           13                  |         .      |                      tag: "printable_string" (0x13) 0x39.3-0x3a (0.5)
0x00030|                              1b               |          .     |                      length: 27 0x3a-0x3b (1)
0x00030|                                 44 69 67 69 74|           Digit|                      value: "Digital Signature Trust Co." 0x3b-0x56 (27)
0x00040|61 6c 20 53 69 67 6e 61 74 75 72 65 20 54 72 75|al Signature Tru|
0x00050|73 74 20 43 6f 2e                              |st Co.          |
       |                                               |                |            [1]{}: object 0x56-0x6f (25)
0x00050|                  31                           |      1         |              class: "universal" (0) 0x56-0x56.2 (0.2)
0x00050|                  31                           |      1         |              form: "constructed" (1) 0x56.2-0x56.3 (0.1)
0x00050|                  31                           |      1         |              tag: "set" (0x11) 0x56.3-0x57 (0.5)
0x00050|                     17                        |       .        |              length: 23 0x57-0x58 (1)
       |                                               |                |              constructed[0:1]: 0x58-0x6f (23)
       |                                               |                |                [0]{}: object 0x58-0x6f (23)
0x00050|                        30                     |        0       |                  class: "universal" (0) 0x58-0x58.2 (0.2)
0x00050|                        30                     |        0       |                  form: "constructed" (1) 0x58.2-0x58.3 (0.1)
0x00050|                        30                     |        0       |                  tag: "sequence" (0x10) 0x58.3-0x59 (0.5)
0x00050|                           15                  |         .      |                  length: 21 0x59-0x5a (1)
       |                                               |                |                  constructed[0:2]: 0x5a-0x6f (21)
       |                                               |                |                    [0]{}: object 0x5a-0x5f (5)
0x00050|                              06               |          .     |                      class: "universal" (0) 0x5a-0x5a.2 (0.2)
0x00050|                              06               |          .     |                      form: "primitive" (0) 0x5a.2-0x5a.3 (0.1)
0x00050|                              06               |          .     |                      tag: "object_identifier" (0x6) 0x5a.3-0x5b (0.5)
0x00050|                                 03            |           .    |                      length: 3 0x5b-0x5c (1)
       |                                               |                |                      value[0:4]: 0x5c-0x5f (3)
0x00050|                                    55         |            U   |                        [0]: 2 oid 0x5c-0x5d (1)
0x00050|                                    55         |            U   |                        [1]: 5 oid 0x5c-0x5d (1)
0x00050|                                       04      |             .  |                        [2]: 4 oid 0x5d-0x5e (1)
0x00050|                                          03   |              . |                        [3]: 3 oid 0x5e-0x5f (1)
       |                                               |                |                    [1]{}: object 0x5f-0x6f (16)
0x00050|                                             13|               .|                      class: "universal" (0) 0x5f-0x5f.2 (0.2)
0x00050|                                             13|               .|                      form: "primitive" (0) 0x5f.2-0x5f.3 (0.1)
0x00050|                                             13|               .|                      tag: "printable_string" (0x13) 0x5f.3-0x60 (0.5)
0x00060|0e                                             |.               |                      length: 14 0x60-0x61 (1)
0x00060|   44 53 54 20 52 6f 6f 74 20 43 41 20 58 33   | DST Root CA X3 |                      value: "DST Root CA X3" 0x61-0x6f (14)
       |                                               |                |        [4]{}: object 0x6f-0x8f (32)
0x00060|                                             30|               0|          class: "universal" (0) 0x6f-0x6f.2 (0.2)
0x00060|                                             30|               0|          form: "constructed" (1) 0x6f.2-0x6f.3 (0.1)
0x00060|                                             30|               0|          tag: "sequence" (0x10) 0x6f.3-0x70 (0.5)
0x00070|1e                                             |.               |          length: 30 0x70-0x71 (1)
       |                                               |                |          constructed[0:2]: 0x71-0x8f (30)
       |                                               |                |            [0]{}: object 0x71-0x80 (15)
0x00070|   17                                          | .              |              class: "universal" (0) 0x71-0x71.2 (0.2)
0x00070|   17                                          | .              |              form: "primitive" (0) 0x71.2-0x71.3 (0.1)
0x00070|   17                                          | .              |              tag: "utc_time" (0x17) 0x71.3-0x72 (0.5)
0x00070|      0d                                       |  .             |              length: 13 0x72-0x73 (1)
0x00070|         31 36 30 33 31 37 31 36 34 30 34 36 5a|   160317164046Z|              value: "160317164046Z" 0x73-0x80 (13)
       |                                               |                |            [1]{}: object 0x80-0x8f (15)
0x00080|17                                             |.               |              class: "universal" (0) 0x80-0x80.2 (0.2)
0x00080|17                                             |.               |              form: "primitive" (0) 0x80.2-0x80.3 (0.1)
0x00080|17                                             |.               |              tag: "utc_time" (0x17) 0x80.3-0x81 (0.5)
0x00080|   0d                                          | .              |              length: 13 0x81-0x82 (1)
0x00080|      32 31 30 33 31 37 31 36 34 30 34 36 5a   |  210317164046Z |              value: "210317164046Z" 0x82-0x8f (13)
       |                                               |                |        [5]{}: object 0x8f-0xdb (76)
0x00080|                                             30|               0|          class: "universal" (0) 0x8f-0x8f.2 (0.2)
0x00080|                                             30|               0|          form: "constructed" (1) 0x8f.2-0x8f.3 (0.1)
0x00080|                                             30|               0|          tag: "sequence" (0x10) 0x8f.3-0x90 (0.5)
0x00090|4a                                             |J               |          length: 74 0x90-0x91 (1)
       |                                               |                |          constructed[0:3]: 0x91-0xdb (74)
       |                                               |                |            [0]{}: object 0x91-0x9e (13)
0x00090|   31                                          | 1              |              class: "universal" (0) 0x91-0x91.2 (0.2)
0x00090|   31                                          | 1              |              form: "constructed" (1) 0x91.2-0x91.3 (0.1)
0x00090|   31                                          | 1              |              tag: "set" (0x11) 0x91.3-0x92 (0.5)
0x00090|      0b                                       |  .             |              length: 11 0x92-0x93 (1)
       |                                               |                |              constructed[0:1]: 0x93-0x9e (11)
       |                                               |                |                [0]{}: object 0x93-0x9e (11)
0x00090|         30                                    |   0            |                  class: "universal" (0) 0x93-0x93.2 (0.2)
0x00090|         30                                    |   0            |                  form: "constructed" (1) 0x93.2-0x93.3 (0.1)
0x00090|         30                                    |   0            |                  tag: "sequence" (0x10) 0x93.3-0x94 (0.5)
0x00090|            09                                 |    .           |                  length: 9 0x94-0x95 (1)
       |                                               |                |                  constructed[0:2]: 0x95-0x9e (9)
       |                                               |                |                    [0]{}: object 0x95-0x9a (5)
0x00090|               06                              |     .          |                      class: "universal" (0) 0x95-0x95.2 (0.2)
0x00090|               06                              |     .          |                      form: "primitive" (0) 0x95.2-0x95.3 (0.1)
0x00090|               06                              |     .          |                      tag: "object_identifier" (0x6) 0x95.3-0x96 (0.5)
0x00090|                  03                           |      .         |                      length: 3 0x96-0x97 (1)
       |                                               |                |                      value[0:4]: 0x97-0x9a (3)
0x00090|                     55                        |       U        |                        [0]: 2 oid 0x97-0x98 (1)
0x00090|                     55                        |       U        |                        [1]: 5 oid 0x97-0x98 (1)
0x00090|                        04                     |        .       |                        [2]: 4 oid 0x98-0x99 (1)
0x00090|                           06                  |         .      |                        [3]: 6 oid 0x99-0x9a (1)
       |                                               |                |                    [1]{}: object 0x9a-0x9e (4)
0x00090|                              13               |          .     |                      class: "universal" (0) 0x9a-0x9a.2 (0.2)
0x00090|                              13               |          .     |                      form: "primitive" (0) 0x9a.2-0x9a.3 (0.1)
0x00090|                              13               |          .     |                      tag: "printable_string" (0x13) 0x9a.3-0x9b (0.5)
0x00090|                                 02            |           .    |                      length: 2 0x9b-0x9c (1)
0x00090|                                    55 53      |            US  |                      value: "US" 0x9c-0x9e (2)
       |                                               |                |            [1]{}: object 0x9e-0xb6 (24)
0x00090|                                          31   |              1 |              class: "universal" (0) 0x9e-0x9e.2 (0.2)
0x00090|                                          31   |              1 |              form: "constructed" (1) 0x9e.2-0x9e.3 (0.1)
0x00090|                                          31   |              1 |              tag: "set" (0x11) 0x9e.3-0x9f (0.5)
0x00090|                                             16|               .|              length: 22 0x9f-0xa0 (1)
       |                                               |                |              constructed[0:1]: 0xa0-0xb6 (22)
       |                                               |                |                [0]{}: object 0xa0-0xb6 (22)
0x000a0|30                                             |0               |                  class: "universal" (0) 0xa0-0xa0.2 (0.2)
0x000a0|30                                             |0               |                  form: "constructed" (1) 0xa0.2-0xa0.3 (0.1)
0x000a0|30                                             |0               |                  tag: "sequence" (0x10) 0xa0.3-0xa1 (0.5)
0x000a0|   14                                          | .              |                  length: 20 0xa1-0xa2 (1)
       |                                               |                |                  constructed[0:2]: 0xa2-0xb6 (20)
       |                                               |                |                    [0]{}: object 0xa2-0xa7 (5)
0x000a0|      06                                       |  .             |                      class: "universal" (0) 0xa2-0xa2.2 (0.2)
0x000a0|      06                                       |  .             |                      form: "primitive" (0) 0xa2.2-0xa2.3 (0.1)
0x000a0|      06                                       |  .             |                      tag: "object_identifier" (0x6) 0xa2.3-0xa3 (0.5)
0x000a0|         03                                    |   .            |                      length: 3 0xa3-0xa4 (1)
       |                                               |                |                      value[0:4]: 0xa4-0xa7 (3)
0x000a0|            55                                 |    U           |                        [0]: 2 oid 0xa4-0xa5 (1)
0x000a0|            55                                 |    U           |                        [1]: 5 oid 0xa4-0xa5 (1)
0x000a0|               04                              |     .          |                        [2]: 4 oid 0xa5-0xa6 (1)
0x000a0|                  0a                           |      .         |                        [3]: 10 oid 0xa6-0xa7 (1)
       |                                               |                |                    [1]{}: object 0xa7-0xb6 (15)
0x000a0|                     13                        |       .        |                      class: "universal" (0) 0xa7-0xa7.2 (0.2)
0x000a0|                     13                        |       .        |                      form: "primitive" (0) 0xa7.2-0xa7.3 (0.1)
0x000a0|                     13                        |       .        |                      tag: "printable_string" (0x13) 0xa7.3-0xa8 (0.5)
0x000a0|                        0d                     |        .       |                      length: 13 0xa8-0xa9 (1)
0x000a0|                           4c 65 74 27 73 20 45|         Let's E|                      value: "Let's Encrypt" 0xa9-0xb6 (13)
0x000b0|6e 63 72 79 70 74                              |ncrypt          |
       |                                               |                |            [2]{}: object 0xb6-0xdb (37)
0x000b0|                  31                           |      1         |              class: "universal" (0) 0xb6-0xb6.2 (0.2)
0x000b0|                  31                           |      1         |              form: "constructed" (1) 0xb6.2-0xb6.3 (0.1)
0x000b0|                  31                           |      1         |              tag: "set" (0x11) 0xb6.3-0xb7 (0.5)
0x000b0|                     23                        |       #        |              length: 35 0xb7-0xb8 (1)
       |                                               |                |              constructed[0:1]: 0xb8-0xdb (35)
       |                                               |                |                [0]{}: object 0xb8-0xdb (35)
0x000b0|                        30                     |        0       |                  class: "universal" (0) 0xb8-0xb8.2 (0.2)
0x000b0|                        30                     |        0       |                  form: "constructed" (1) 0xb8.2-0xb8.3 (0.1)
0x000b0|                        30                     |        0       |                  tag: "sequence" (0x10) 0xb8.3-0xb9 (0.5)
0x000b0|                           21                  |         !      |                  length: 33 0xb9-0xba (1)
       |                                               |                |                  constructed[0:2]: 0xba-0xdb (33)
       |                                               |                |                    [0]{}: object 0xba-0xbf (5)
0x000b0|                              06               |          .     |                      class: "universal" (0) 0xba-0xba.2 (0.2)
0x000b0|                              06               |          .     |                      form: "primitive" (0) 0xba.2-0xba.3 (0.1)
0x000b0|                              06               |          .     |                      tag: "object_identifier" (0x6) 0xba.3-0xbb (0.5)
0x000b0|                                 03            |           .    |                      length: 3 0xbb-0xbc (1)
       |                                               |                |                      value[0:4]: 0xbc-0xbf (3)
0x000b0|                                    55         |            U   |                        [0]: 2 oid 0xbc-0xbd (1)
0x000b0|                                    55         |            U   |                        [1]: 5 oid 0xbc-0xbd (1)
0x000b0|                                       04      |             .  |                        [2]: 4 oid 0xbd-0xbe (1)
0x000b0|                                          03   |              . |                        [3]: 3 oid 0xbe-0xbf (1)
       |                                               |                |                    [1]{}: object 0xbf-0xdb (28)
0x000b0|                                             13|               .|                      class: "universal" (0) 0xbf-0xbf.2 (0.2)
0x000b0|                                             13|               .|                      form: "primitive" (0) 0xbf.2-0xbf.3 (0.1)
0x000b0|                                             13|               .|                      tag: "printable_string" (0x13) 0xbf.3-0xc0 (0.5)
0x000c0|1a                                             |.               |                      length: 26 0xc0-0xc1 (1)
0x000c0|   4c 65 74 27 73 20 45 6e 63 72 79 70 74 20 41| Let's Encrypt A|                      value: "Let's Encrypt Authority X3" 0xc1-0xdb (26)
0x000d0|75 74 68 6f 72 69 74 79 20 58 33               |uthority X3     |
       |                                               |                |        [6]{}: object 0xdb-0x201 (294)
0x000d0|                                 30            |           0    |          class: "universal" (0) 0xdb-0xdb.2 (0.2)
0x000d0|                                 30            |           0    |          form: "constructed" (1) 0xdb.2-0xdb.3 (0.1)
0x000d0|                                 30            |           0    |          tag: "sequence" (0x10) 0xdb.3-0xdc (0.5)
0x000d0|                                    82 01 22   |            .." |          length: 290 0xdc-0xdf (3)
       |                                               |                |          constructed[0:2]: 0xdf-0x201 (290)
       |                                               |                |            [0]{}: object 0xdf-0xee (15)
0x000d0|                                             30|               0|              class: "universal" (0) 0xdf-0xdf.2 (0.2)
0x000d0|                                             30|               0|              form: "constructed" (1) 0xdf.2-0xdf.3 (0.1)
0x000d0|                                             30|               0|              tag: "sequence" (0x10) 0xdf.3-0xe0 (0.5)
0x000e0|0d                                             |.               |              length: 13 0xe0-0xe1 (1)
       |                                               |                |              constructed[0:2]: 0xe1-0xee (13)
       |                                               |                |                [0]{}: object 0xe1-0xec (11)
0x000e0|   06                                          | .              |                  class: "universal" (0) 0xe1-0xe1.2 (0.2)
0x000e0|   06                                          | .              |                  form: "primitive" (0) 0xe1.2-0xe1.3 (0.1)
0x000e0|   06                                          | .              |                  tag: "object_identifier" (0x6) 0xe1.3-0xe2 (0.5)
0x000e0|      09                                       |  .             |                  length: 9 0xe2-0xe3 (1)
       |                                               |                |                  value[0:7]: 0xe3-0xec (9)
0x000e0|         2a                                    |   *            |                    [0]: 1 oid 0xe3-0xe4 (1)
0x000e0|         2a                                    |   *            |                    [1]: 2 oid 0xe3-0xe4 (1)
0x000e0|            86 48                              |    .H          |                    [2]: 840 oid 0xe4-0xe6 (2)
0x000e0|                  86 f7 0d                     |      ...       |                    [3]: 113549 oid 0xe6-0xe9 (3)
0x000e0|                           01                  |         .      |                    [4]: 1 oid 0xe9-0xea (1)
0x000e0|                              01               |          .     |                    [5]: 1 oid 0xea-0xeb (1)
0x000e0|                                 01            |           .    |                    [6]: 1 oid 0xeb-0xec (1)
       |                                               |                |                [1]{}: object 0xec-0xee (2)
0x000e0|                                    05         |            .   |                  class: "universal" (0) 0xec-0xec.2 (0.2)
0x000e0|                                    05         |            .   |                  form: "primitive" (0) 0xec.2-0xec.3 (0.1)
0x000e0|                                    05         |            .   |                  tag: "null" (0x5) 0xec.3-0xed (0.5)
0x000e0|                                       00      |             .  |                  length: "indefinite" (0) 0xed-0xee (1)
       |                                               |                |                  value: null
       |                                               |                |            [1]{}: object 0xee-0x201 (275)
0x000e0|                                          03   |              . |              class: "universal" (0) 0xee-0xee.2 (0.2)
0x000e0|                                          03   |              . |              form: "primitive" (0) 0xee.2-0xee.3 (0.1)
0x000e0|                                          03   |              . |              tag: "bit_string" (0x3) 0xee.3-0xef (0.5)
0x000e0|                                             82|               .|              length: 271 0xef-0xf2 (3)
0x000f0|01 0f                                          |..              |
0x000f0|      00                                       |  .             |              unused_bits_count: 0 0xf2-0xf3 (1)
0x000f0|         30 82 01 0a 02 82 01 01 00 9c d3 0c f0|   0............|              value: raw bits 0xf3-0x201 (270)
0x00100|5a e5 2e 47 b7 72 5d 37 83 b3 68 63 30 ea d7 35|Z..G.r]7..hc0..5|
*      |until 0x200.7 (270)                            |                |
       |                                               |                |        [7]{}: object 0x201-0x382 (385)
0x00200|   a3                                          | .              |          class: "context" (2) 0x201-0x201.2 (0.2)
0x00200|   a3                                          | .              |          form: "constructed" (1) 0x201.2-0x201.3 (0.1)
0x00200|   a3                                          | .              |          tag: 3 0x201.3-0x202 (0.5)
0x00200|      82 01 7d                                 |  ..}           |          length: 381 0x202-0x205 (3)
       |                                               |                |          constructed[0:1]: 0x205-0x382 (381)
       |                                               |                |            [0]{}: object 0x205-0x382 (381)
0x00200|               30                              |     0          |              class: "universal" (0) 0x205-0x205.2 (0.2)
0x00200|               30                              |     0          |              form: "constructed" (1) 0x205.2-0x205.3 (0.1)
0x00200|               30                              |     0          |              tag: "sequence" (0x10) 0x205.3-0x206 (0.5)
0x00200|                  82 01 79                     |      ..y       |              length: 377 0x206-0x209 (3)
       |                                               |                |              constructed[0:7]: 0x209-0x382 (377)
       |                                               |                |                [0]{}: object 0x209-0x21d (20)
0x00200|                           30                  |         0      |                  class: "universal" (0) 0x209-0x209.2 (0.2)
0x00200|                           30                  |         0      |                  form: "constructed" (1) 0x209.2-0x209.3 (0.1)
0x00200|                           30                  |         0      |                  tag: "sequence" (0x10) 0x209.3-0x20a (0.5)
0x00200|                              12               |          .     |                  length: 18 0x20a-0x20b (1)
       |                                               |                |                  constructed[0:3]: 0x20b-0x21d (18)
       |                                               |                |                    [0]{}: object 0x20b-0x210 (5)
0x00200|                                 06            |           .    |                      class: "universal" (0) 0x20b-0x20b.2 (0.2)
0x00200|                                 06            |           .    |                      form: "primitive" (0) 0x20b.2-0x20b.3 (0.1)
0x00200|                                 06            |           .    |                      tag: "object_identifier" (0x6) 0x20b.3-0x20c (0.5)
0x00200|                                    03         |            .   |                      length: 3 0x20c-0x20d (1)
       |                                               |                |                      value[0:4]: 0x20d-0x210 (3)
0x00200|                                       55      |             U  |                        [0]: 2 oid 0x20d-0x20e (1)
0x00200|                                       55      |             U  |                        [1]: 5 oid 0x20d-0x20e (1)
0x00200|                                          1d   |              . |                        [2]: 29 oid 0x20e-0x20f (1)
0x00200|                                             13|               .|                        [3]: 19 oid 0x20f-0x210 (1)
       |                                               |                |                    [1]{}: object 0x210-0x213 (3)
0x00210|01                                             |.               |                      class: "universal" (0) 0x210-0x210.2 (0.2)
0x00210|01                                             |.               |                      form: "primitive" (0) 0x210.2-0x210.3 (0.1)
0x00210|01                                             |.               |                      tag: "boolean" (0x1) 0x210.3-0x211 (0.5)
0x00210|   01                                          | .              |                      length: 1 0x211-0x212 (1)
0x00210|      ff                                       |  .             |                      value: true (255) 0x212-0x213 (1)
       |                                               |                |                    [2]{}: object 0x213-0x21d (10)
0x00210|         04                                    |   .            |                      class: "universal" (0) 0x213-0x213.2 (0.2)
0x00210|         04                                    |   .            |                      form: "primitive" (0) 0x213.2-0x213.3 (0.1)
0x00210|         04                                    |   .            |                      tag: "octet_string" (0x4) 0x213.3-0x214 (0.5)
0x00210|            08                                 |    .           |                      length: 8 0x214-0x215 (1)
0x00210|               30 06 01 01 ff 02 01 00         |     0.......   |                      value: raw bits 0x215-0x21d (8)
       |                                               |                |                [1]{}: object 0x21d-0x22d (16)
0x00210|                                       30      |             0  |                  class: "universal" (0) 0x21d-0x21d.2 (0.2)
0x00210|                                       30      |             0  |                  form: "constructed" (1) 0x21d.2-0x21d.3 (0.1)
0x00210|                                       30      |             0  |                  tag: "sequence" (0x10) 0x21d.3-0x21e (0.5)
0x00210|                                          0e   |              . |                  length: 14 0x21e-0x21f (1)
       |                                               |                |                  constructed[0:3]: 0x21f-0x22d (14)
       |                                               |                |                    [0]{}: object 0x21f-0x224 (5)
0x00210|                                             06|               .|                      class: "universal" (0) 0x21f-0x21f.2 (0.2)
0x00210|                                             06|               .|                      form: "primitive" (0) 0x21f.2-0x21f.3 (0.1)
0x00210|                                             06|               .|                      tag: "object_identifier" (0x6) 0x21f.3-0x220 (0.5)
0x00220|03                                             |.               |                      length: 3 0x220-0x221 (1)
       |                                               |                |                      value[0:4]: 0x221-0x224 (3)
0x00220|   55                                          | U              |                        [0]: 2 oid 0x221-0x222 (1)
0x00220|   55                                          | U              |                        [1]: 5 oid 0x221-0x222 (1)
0x00220|      1d                                       |  .             |                        [2]: 29 oid 0x222-0x223 (1)
0x00220|         0f                                    |   .            |                        [3]: 15 oid 0x223-0x224 (1)
       |                                               |                |                    [1]{}: object 0x224-0x227 (3)
0x00220|            01                                 |    .           |                      class: "universal" (0) 0x224-0x224.2 (0.2)
0x00220|            01                                 |    .           |                      form: "primitive" (0) 0x224.2-0x224.3 (0.1)
0x00220|            01                                 |    .           |                      tag: "boolean" (0x1) 0x224.3-0x225 (0.5)
0x00220|               01                              |     .          |                      length: 1 0x225-0x226 (1)
0x00220|                  ff                           |      .         |                      value: true (255) 0x226-0x227 (1)
       |                                               |                |                    [2]{}: object 0x227-0x22d (6)
0x00220|                     04                        |       .        |                      class: "universal" (0) 0x227-0x227.2 (0.2)
0x00220|                     04                        |       .        |                      form: "primitive" (0) 0x227.2-0x227.3 (0.1)
0x00220|                     04                        |       .        |                      tag: "octet_string" (0x4) 0x227.3-0x228 (0.5)
0x00220|                        04                     |        .       |                      length: 4 0x228-0x229 (1)
0x00220|                           03 02 01 86         |         ....   |                      value: raw bits 0x229-0x22d (4)
       |                                               |                |                [2]{}: object 0x22d-0x2ae (129)
0x00220|                                       30      |             0  |                  class: "universal" (0) 0x22d-0x22d.2 (0.2)
0x00220|                                       30      |             0  |                  form: "constructed" (1) 0x22d.2-0x22d.3 (0.1)
0x00220|                                       30      |             0  |                  tag: "sequence" (0x10) 0x22d.3-0x22e (0.5)
0x00220|                                          7f   |              . |                  length: 127 0x22e-0x22f (1)
       |                                               |                |                  constructed[0:2]: 0x22f-0x2ae (127)
       |                                               |                |                    [0]{}: object 0x22f-0x239 (10)
0x00220|                                             06|               .|                      class: "universal" (0) 0x22f-0x22f.2 (0.2)
0x00220|                                             06|               .|                      form: "primitive" (0) 0x22f.2-0x22f.3 (0.1)
0x00220|                                             06|               .|                      tag: "object_identifier" (0x6) 0x22f.3-0x230 (0.5)
0x00230|08                                             |.               |                      length: 8 0x230-0x231 (1)
       |                                               |                |                      value[0:9]: 0x231-0x239 (8)
0x00230|   2b                                          | +              |                        [0]: 1 oid 0x231-0x232 (1)
0x00230|   2b                                          | +              |                        [1]: 3 oid 0x231-0x232 (1)
0x00230|      06                                       |  .             |                        [2]: 6 oid 0x232-0x233 (1)
0x00230|         01                                    |   .            |                        [3]: 1 oid 0x233-0x234 (1)
0x00230|            05                                 |    .           |                        [4]: 5 oid 0x234-0x235 (1)
0x00230|               05                              |     .          |                        [5]: 5 oid 0x235-0x236 (1)
0x00230|                  07                           |      .         |                        [6]: 7 oid 0x236-0x237 (1)
0x00230|                     01                        |       .        |                        [7]: 1 oid 0x237-0x238 (1)
0x00230|                        01                     |        .       |                        [8]: 1 oid 0x238-0x239 (1)
       |                                               |                |                    [1]{}: object 0x239-0x2ae (117)
0x00230|                           04                  |         .      |                      class: "universal" (0) 0x239-0x239.2 (0.2)
0x00230|                           04                  |         .      |                      form: "primitive" (0) 0x239.2-0x239.3 (0.1)
0x00230|                           04                  |         .      |                      tag: "octet_string" (0x4) 0x239.3-0x23a (0.5)
0x00230|                              73               |          s     |                      length: 115 0x23a-0x23b (1)
0x00230|                                 30 71 30 32 06|           0q02.|                      value: raw bits 0x23b-0x2ae (115)
0x00240|08 2b 06 01 05 05 07 30 01 86 26 68 74 74 70 3a|.+.....0..&http:|
*      |until 0x2ad.7 (115)                            |                |
       |                                               |                |                [3]{}: object 0x2ae-0x2cf (33)
0x002a0|                                          30   |              0 |                  class: "universal" (0) 0x2ae-0x2ae.2 (0.2)
0x002a0|                                          30   |              0 |                  form: "constructed" (1) 0x2ae.2-0x2ae.3 (0.1)
0x002a0|                                          30   |              0 |                  tag: "sequence" (0x10) 0x2ae.3-0x2af (0.5)
0x002a0|                                             1f|               .|                  length: 31 0x2af-0x2b0 (1)
       |                                               |                |                  constructed[0:2]: 0x2b0-0x2cf (31)
       |                                               |                |                    [0]{}: object 0x2b0-0x2b5 (5)
0x002b0|06                                             |.               |                      class: "universal" (0) 0x2b0-0x2b0.2 (0.2)
0x002b0|06                                             |.               |                      form: "primitive" (0) 0x2b0.2-0x2b0.3 (0.1)
0x002b0|06                                             |.               |                      tag: "object_identifier" (0x6) 0x2b0.3-0x2b1 (0.5)
0x002b0|   03                                          | .              |                      length: 3 0x2b1-0x2b2 (1)
       |                                               |                |                      value[0:4]: 0x2b2-0x2b5 (3)
0x002b0|      55                                       |  U             |                        [0]: 2 oid 0x2b2-0x2b3 (1)
0x002b0|      55                                       |  U             |                        [1]: 5 oid 0x2b2-0x2b3 (1)
0x002b0|         1d                                    |   .            |                        [2]: 29 oid 0x2b3-0x2b4 (1)
0x002b0|            23                                 |    #           |                        [3]: 35 oid 0x2b4-0x2b5 (1)
       |                                               |                |                    [1]{}: object 0x2b5-0x2cf (26)
0x002b0|               04                              |     .          |                      class: "universal" (0) 0x2b5-0x2b5.2 (0.2)
0x002b0|               04                              |     .          |                      form: "primitive" (0) 0x2b5.2-0x2b5.3 (0.1)
0x002b0|               04                              |     .          |                      tag: "octet_string" (0x4) 0x2b5.3-0x2b6 (0.5)
0x002b0|                  18                           |      .         |                      length: 24 0x2b6-0x2b7 (1)
0x002b0|                     30 16 80 14 c4 a7 b1 a4 7b|       0.......{|                      value: raw bits 0x2b7-0x2cf (24)
0x002c0|2c 71 fa db e1 4b 90 75 ff c4 15 60 85 89 10   |,q...K.u...`... |
       |                                               |                |                [4]{}: object 0x2cf-0x325 (86)
0x002c0|                                             30|               0|                  class: "universal" (0) 0x2cf-0x2cf.2 (0.2)
0x002c0|                                             30|               0|                  form: "constructed" (1) 0x2cf.2-0x2cf.3 (0.1)
0x002c0|                                             30|               0|                  tag: "sequence" (0x10) 0x2cf.3-0x2d0 (0.5)
0x002d0|54                                             |T               |                  length: 84 0x2d0-0x2d1 (1)
       |                                               |                |                  constructed[0:2]: 0x2d1-0x325 (84)
       |                                               |                |                    [0]{}: object 0x2d1-0x2d6 (5)
0x002d0|   06                                          | .              |                      class: "universal" (0) 0x2d1-0x2d1.2 (0.2)
0x002d0|   06                                          | .              |                      form: "primitive" (0) 0x2d1.2-0x2d1.3 (0.1)
0x002d0|   06                                          | .              |                      tag: "object_identifier" (0x6) 0x2d1.3-0x2d2 (0.5)
0x002d0|      03                                       |  .             |                      length: 3 0x2d2-0x2d3 (1)
       |                                               |                |                      value[0:4]: 0x2d3-0x2d6 (3)
0x002d0|         55                                    |   U            |                        [0]: 2 oid 0x2d3-0x2d4 (1)
0x002d0|         55                                    |   U            |                        [1]: 5 oid 0x2d3-0x2d4 (1)
0x002d0|            1d                                 |    .           |                        [2]: 29 oid 0x2d4-0x2d5 (1)
0x002d0|               20                              |                |                        [3]: 32 oid 0x2d5-0x2d6 (1)
       |                                               |                |                    [1]{}: object 0x2d6-0x325 (79)
0x002d0|                  04                           |      .         |                      class: "universal" (0) 0x2d6-0x2d6.2 (0.2)
0x002d0|                  04                           |      .         |                      form: "primitive" (0) 0x2d6.2-0x2d6.3 (0.1)
0x002d0|                  04                           |      .         |                      tag: "octet_string" (0x4) 0x2d6.3-0x2d7 (0.5)
0x002d0|                     4d                        |       M        |                      length: 77 0x2d7-0x2d8 (1)
0x002d0|                        30 4b 30 08 06 06 67 81|        0K0...g.|                      value: raw bits 0x2d8-0x325 (77)
0x002e0|0c 01 02 01 30 3f 06 0b 2b 06 01 04 01 82 df 13|....0?..+.......|
*      |until 0x324.7 (77)                             |                |
       |                                               |                |                [5]{}: object 0x325-0x363 (62)
0x00320|               30                              |     0          |                  class: "universal" (0) 0x325-0x325.2 (0.2)
0x00320|               30                              |     0          |                  form: "constructed" (1) 0x325.2-0x325.3 (0.1)
0x00320|               30                              |     0          |                  tag: "sequence" (0x10) 0x325.3-0x326 (0.5)
0x00320|                  3c                           |      <         |                  length: 60 0x326-0x327 (1)
       |                                               |                |                  constructed[0:2]: 0x327-0x363 (60)
       |                                               |                |                    [0]{}: object 0x327-0x32c (5)
0x00320|                     06                        |       .        |                      class: "universal" (0) 0x327-0x327.2 (0.2)
0x00320|                     06                        |       .        |                      form: "primitive" (0) 0x327.2-0x327.3 (0.1)
0x00320|                     06                        |       .        |                      tag: "object_identifier" (0x6) 0x327.3-0x328 (0.5)
0x00320|                        03                     |        .       |                      length: 3 0x328-0x329 (1)
       |                                               |                |                      value[0:4]: 0x329-0x32c (3)
0x00320|                           55                  |         U      |                        [0]: 2 oid 0x329-0x32a (1)
0x00320|                           55                  |         U      |                        [1]: 5 oid 0x329-0x32a (1)
0x00320|                              1d               |          .     |                        [2]: 29 oid 0x32a-0x32b (1)
0x00320|                                 1f            |           .    |                        [3]: 31 oid 0x32b-0x32c (1)
       |                                               |                |                    [1]{}: object 0x32c-0x363 (55)
0x00320|                                    04         |            .   |                      class: "universal" (0) 0x32c-0x32c.2 (0.2)
0x00320|                                    04         |            .   |                      form: "primitive" (0) 0x32c.2-0x32c.3 (0.1)
0x00320|                                    04         |            .   |                      tag: "octet_string" (0x4) 0x32c.3-0x32d (0.5)
0x00320|                                       35      |             5  |                      length: 53 0x32d-0x32e (1)
0x00320|                                          30 33|              03|                      value: raw bits 0x32e-0x363 (53)
0x00330|30 31 a0 2f a0 2d 86 2b 68 74 74 70 3a 2f 2f 63|01./.-.+http://c|
*      |until 0x362.7 (53)                             |                |
       |                                               |                |                [6]{}: object 0x363-0x382 (31)
0x00360|         30                                    |   0            |                  class: "universal" (0) 0x363-0x363.2 (0.2)
0x00360|         30                                    |   0            |                  form: "constructed" (1) 0x363.2-0x363.3 (0.1)
0x00360|         30                                    |   0            |                  tag: "sequence" (0x10) 0x363.3-0x364 (0.5)
0x00360|            1d                                 |    .           |                  length: 29 0x364-0x365 (1)
       |                                               |                |                  constructed[0:2]: 0x365-0x382 (29)
       |                                               |                |                    [0]{}: object 0x365-0x36a (5)
0x00360|               06                              |     .          |                      class: "universal" (0) 0x365-0x365.2 (0.2)
0x00360|               06                              |     .          |                      form: "primitive" (0) 0x365.2-0x365.3 (0.1)
0x00360|               06                              |     .          |                      tag: "object_identifier" (0x6) 0x365.3-0x366 (0.5)
0x00360|                  03                           |      .         |                      length: 3 0x366-0x367 (1)
       |                                               |                |                      value[0:4]: 0x367-0x36a (3)
0x00360|                     55                        |       U        |                        [0]: 2 oid 0x367-0x368 (1)
0x00360|                     55                        |       U        |                        [1]: 5 oid 0x367-0x368 (1)
0x00360|                        1d                     |        .       |                        [2]: 29 oid 0x368-0x369 (1)
0x00360|                           0e                  |         .      |                        [3]: 14 oid 0x369-0x36a (1)
       |                                               |                |                    [1]{}: object 0x36a-0x382 (24)
0x00360|                              04               |          .     |                      class: "universal" (0) 0x36a-0x36a.2 (0.2)
0x00360|                              04               |          .     |                      form: "primitive" (0) 0x36a.2-0x36a.3 (0.1)
0x00360|                              04               |          .     |                      tag: "octet_string" (0x4) 0x36a.3-0x36b (0.5)
0x00360|                                 16            |           .    |                      length: 22 0x36b-0x36c (1)
0x00360|                                    04 14 a8 4a|            ...J|                      value: raw bits 0x36c-0x382 (22)
0x00370|6a 63 04 7d dd ba e6 d1 39 b7 a6 45 65 ef f3 a8|jc.}....9..Ee...|
0x00380|ec a1                                          |..              |
       |00 01 02 03 04 05 06 07 08 09 0a 0b 0c 0d 0e 0f|0123456789abcdef|
  0x000|30 06 01 01 ff 02 01 00 03 02 01 86 30 71 30 32|0...........0q02|          value: raw bits 0x0-0x12f (303)
  *    |until 0x12e.7 (end) (303)                      |                |
       |                                               |                |    [1]{}: object 0x382-0x391 (15)
0x00380|      30                                       |  0             |      class: "universal" (0) 0x382-0x382.2 (0.2)
0x00380|      30                                       |  0             |      form: "constructed" (1) 0x382.2-0x382.3 (0.1)
0x00380|      30                                       |  0             |      tag: "sequence" (0x10) 0x382.3-0x383 (0.5)
0x00380|         0d                                    |   .            |      length: 13 0x383-0x384 (1)
       |                                               |                |      constructed[0:2]: 0x384-0x391 (13)
       |                                               |                |        [0]{}: object 0x384-0x38f (11)
0x00380|            06                                 |    .           |          class: "universal" (0) 0x384-0x384.2 (0.2)
0x00380|            06                                 |    .           |          form: "primitive" (0) 0x384.2-0x384.3 (0.1)
0x00380|            06                                 |    .           |          tag: "object_identifier" (0x6) 0x384.3-0x385 (0.5)
0x00380|               09                              |     .          |          length: 9 0x385-0x386 (1)
       |                                               |                |          value[0:7]: 0x386-0x38f (9)
0x00380|                  2a                           |      *         |            [0]: 1 oid 0x386-0x387 (1)
0x00380|                  2a                           |      *         |            [1]: 2 oid 0x386-0x387 (1)
0x00380|                     86 48                     |       .H       |            [2]: 840 oid 0x387-0x389 (2)
0x00380|                           86 f7 0d            |         ...    |            [3]: 113549 oid 0x389-0x38c (3)
0x00380|                                    01         |            .   |            [4]: 1 oid 0x38c-0x38d (1)
0x00380|                                       01      |             .  |            [5]: 1 oid 0x38d-0x38e (1)
0x00380|                                          0b   |              . |            [6]: 11 oid 0x38e-0x38f (1)
       |                                               |                |        [1]{}: object 0x38f-0x391 (2)
0x00380|                                             05|               .|          class: "universal" (0) 0x38f-0x38f.2 (0.2)
0x00380|                                             05|               .|          form: "primitive" (0) 0x38f.2-0x38f.3 (0.1)
0x00380|                                             05|               .|          tag: "null" (0x5) 0x38f.3-0x390 (0.5)
0x00390|00                                             |.               |          length: "indefinite" (0) 0x390-0x391 (1)
       |                                               |                |          value: null
       |                                               |                |    [2]{}: object 0x391-0x496 (261)
0x00390|   03                                          | .              |      class: "universal" (0) 0x391-0x391.2 (0.2)
0x00390|   03                                          | .              |      form: "primitive" (0) 0x391.2-0x391.3 (0.1)
0x00390|   03                                          | .              |      tag: "bit_string" (0x3) 0x391.3-0x392 (0.5)
0x00390|      82 01 01                                 |  ...           |      length: 257 0x392-0x395 (3)
0x00390|               00                              |     .          |      unused_bits_count: 0 0x395-0x396 (1)
0x00390|                  dd 33 d7 11 f3 63 58 38 dd 18|      .3...cX8..|      value: raw bits 0x396-0x496 (256)
0x003a0|15 fb 09 55 be 76 56 b9 70 48 a5 69 47 27 7b c2|...U.vV.pH.iG'{.|
*      |until 0x495.7 (end) (256)                      |                |
