$ fq -d bytes 'from_pem | asn1_ber | dv' sig-p256-ber.p7m
        |00 01 02 03 04 05 06 07 08 09 0a 0b 0c 0d 0e 0f|0123456789abcdef|.{}: (asn1_ber) 0x0-0x2aa2 (10914)
0x000000|30                                             |0               |  class: "universal" (0) 0x0-0x0.2 (0.2)
0x000000|30                                             |0               |  form: "constructed" (1) 0x0.2-0x0.3 (0.1)
0x000000|30                                             |0               |  tag: "sequence" (0x10) 0x0.3-0x1 (0.5)
0x000000|   80                                          | .              |  length: "indefinite" (0) 0x1-0x2 (1)
        |                                               |                |  constructed[0:2]: 0x2-0x2aa0 (10910)
        |                                               |                |    [0]{}: object 0x2-0xd (11)
0x000000|      06                                       |  .             |      class: "universal" (0) 0x2-0x2.2 (0.2)
0x000000|      06                                       |  .             |      form: "primitive" (0) 0x2.2-0x2.3 (0.1)
0x000000|      06                                       |  .             |      tag: "object_identifier" (0x6) 0x2.3-0x3 (0.5)
0x000000|         09                                    |   .            |      length: 9 0x3-0x4 (1)
        |                                               |                |      value[0:7]: 0x4-0xd (9)
0x000000|            2a                                 |    *           |        [0]: 1 oid 0x4-0x5 (1)
0x000000|            2a                                 |    *           |        [1]: 2 oid 0x4-0x5 (1)
0x000000|               86 48                           |     .H         |        [2]: 840 oid 0x5-0x7 (2)
0x000000|                     86 f7 0d                  |       ...      |        [3]: 113549 oid 0x7-0xa (3)
0x000000|                              01               |          .     |        [4]: 1 oid 0xa-0xb (1)
0x000000|                                 07            |           .    |        [5]: 7 oid 0xb-0xc (1)
0x000000|                                    02         |            .   |        [6]: 2 oid 0xc-0xd (1)
        |                                               |                |    [1]{}: object 0xd-0x2aa0 (10899)
0x000000|                                       a0      |             .  |      class: "context" (2) 0xd-0xd.2 (0.2)
0x000000|                                       a0      |             .  |      form: "constructed" (1) 0xd.2-0xd.3 (0.1)
0x000000|                                       a0      |             .  |      tag: 0 0xd.3-0xe (0.5)
0x000000|                                          80   |              . |      length: "indefinite" (0) 0xe-0xf (1)
        |                                               |                |      constructed[0:1]: 0xf-0x2a9e (10895)
        |                                               |                |        [0]{}: object 0xf-0x2a9e (10895)
0x000000|                                             30|               0|          class: "universal" (0) 0xf-0xf.2 (0.2)
0x000000|                                             30|               0|          form: "constructed" (1) 0xf.2-0xf.3 (0.1)
0x000000|                                             30|               0|          tag: "sequence" (0x10) 0xf.3-0x10 (0.5)
0x000010|80                                             |.               |          length: "indefinite" (0) 0x10-0x11 (1)
        |                                               |                |          constructed[0:5]: 0x11-0x2a9c (10891)
        |                                               |                |            [0]{}: object 0x11-0x14 (3)
0x000010|   02                                          | .              |              class: "universal" (0) 0x11-0x11.2 (0.2)
0x000010|   02                                          | .              |              form: "primitive" (0) 0x11.2-0x11.3 (0.1)
0x000010|   02                                          | .              |              tag: "integer" (0x2) 0x11.3-0x12 (0.5)
0x000010|      01                                       |  .             |              length: 1 0x12-0x13 (1)
0x000010|         01                                    |   .            |              value: 1 0x13-0x14 (1)
        |                                               |                |            [1]{}: object 0x14-0x25 (17)
0x000010|            31                                 |    1           |              class: "universal" (0) 0x14-0x14.2 (0.2)
0x000010|            31                                 |    1           |              form: "constructed" (1) 0x14.2-0x14.3 (0.1)
0x000010|            31                                 |    1           |              tag: "set" (0x11) 0x14.3-0x15 (0.5)
0x000010|               0f                              |     .          |              length: 15 0x15-0x16 (1)
        |                                               |                |              constructed[0:1]: 0x16-0x25 (15)
        |                                               |                |                [0]{}: object 0x16-0x25 (15)
0x000010|                  30                           |      0         |                  class: "universal" (0) 0x16-0x16.2 (0.2)
0x000010|                  30                           |      0         |                  form: "constructed" (1) 0x16.2-0x16.3 (0.1)
0x000010|                  30                           |      0         |                  tag: "sequence" (0x10) 0x16.3-0x17 (0.5)
0x000010|                     0d                        |       .        |                  length: 13 0x17-0x18 (1)
        |                                               |                |                  constructed[0:2]: 0x18-0x25 (13)
        |                                               |                |                    [0]{}: object 0x18-0x23 (11)
0x000010|                        06                     |        .       |                      class: "universal" (0) 0x18-0x18.2 (0.2)
0x000010|                        06                     |        .       |                      form: "primitive" (0) 0x18.2-0x18.3 (0.1)
0x000010|                        06                     |        .       |                      tag: "object_identifier" (0x6) 0x18.3-0x19 (0.5)
0x000010|                           09                  |         .      |                      length: 9 0x19-0x1a (1)
        |                                               |                |                      value[0:9]: 0x1a-0x23 (9)
0x000010|                              60               |          `     |                        [0]: 2 oid 0x1a-0x1b (1)
0x000010|                              60               |          `     |                        [1]: 16 oid 0x1a-0x1b (1)
0x000010|                                 86 48         |           .H   |                        [2]: 840 oid 0x1b-0x1d (2)
0x000010|                                       01      |             .  |                        [3]: 1 oid 0x1d-0x1e (1)
0x000010|                                          65   |              e |                        [4]: 101 oid 0x1e-0x1f (1)
0x000010|                                             03|               .|                        [5]: 3 oid 0x1f-0x20 (1)
0x000020|04                                             |.               |                        [6]: 4 oid 0x20-0x21 (1)
0x000020|   02                                          | .              |                        [7]: 2 oid 0x21-0x22 (1)
0x000020|      01                                       |  .             |                        [8]: 1 oid 0x22-0x23 (1)
        |                                               |                |                    [1]{}: object 0x23-0x25 (2)
0x000020|         05                                    |   .            |                      class: "universal" (0) 0x23-0x23.2 (0.2)
0x000020|         05                                    |   .            |                      form: "primitive" (0) 0x23.2-0x23.3 (0.1)
0x000020|         05                                    |   .            |                      tag: "null" (0x5) 0x23.3-0x24 (0.5)
0x000020|            00                                 |    .           |                      length: "indefinite" (0) 0x24-0x25 (1)
        |                                               |                |                      value: null
        |                                               |                |            [2]{}: object 0x25-0x2798 (10099)
0x000020|               30                              |     0          |              class: "universal" (0) 0x25-0x25.2 (0.2)
0x000020|               30                              |     0          |              form: "constructed" (1) 0x25.2-0x25.3 (0.1)
0x000020|               30                              |     0          |              tag: "sequence" (0x10) 0x25.3-0x26 (0.5)
0x000020|                  80                           |      .         |              length: "indefinite" (0) 0x26-0x27 (1)
        |                                               |                |              constructed[0:2]: 0x27-0x2796 (10095)
        |                                               |                |                [0]{}: object 0x27-0x32 (11)
0x000020|                     06                        |       .        |                  class: "universal" (0) 0x27-0x27.2 (0.2)
0x000020|                     06                        |       .        |                  form: "primitive" (0) 0x27.2-0x27.3 (0.1)
0x000020|                     06                        |       .        |                  tag: "object_identifier" (0x6) 0x27.3-0x28 (0.5)
0x000020|                        09                     |        .       |                  length: 9 0x28-0x29 (1)
        |                                               |                |                  value[0:7]: 0x29-0x32 (9)
0x000020|                           2a                  |         *      |                    [0]: 1 oid 0x29-0x2a (1)
0x000020|                           2a                  |         *      |                    [1]: 2 oid 0x29-0x2a (1)
0x000020|                              86 48            |          .H    |                    [2]: 840 oid 0x2a-0x2c (2)
0x000020|                                    86 f7 0d   |            ... |                    [3]: 113549 oid 0x2c-0x2f (3)
0x000020|                                             01|               .|                    [4]: 1 oid 0x2f-0x30 (1)
0x000030|07                                             |.               |                    [5]: 7 oid 0x30-0x31 (1)
0x000030|   01                                          | .              |                    [6]: 1 oid 0x31-0x32 (1)
        |                                               |                |                [1]{}: object 0x32-0x2796 (10084)
0x000030|      a0                                       |  .             |                  class: "context" (2) 0x32-0x32.2 (0.2)
0x000030|      a0                                       |  .             |                  form: "constructed" (1) 0x32.2-0x32.3 (0.1)
0x000030|      a0                                       |  .             |                  tag: 0 0x32.3-0x33 (0.5)
0x000030|         80                                    |   .            |                  length: "indefinite" (0) 0x33-0x34 (1)
        |                                               |                |                  constructed[0:1]: 0x34-0x2794 (10080)
        |                                               |                |                    [0]{}: object 0x34-0x2794 (10080)
0x000030|            24                                 |    $           |                      class: "universal" (0) 0x34-0x34.2 (0.2)
0x000030|            24                                 |    $           |                      form: "constructed" (1) 0x34.2-0x34.3 (0.1)
0x000030|            24                                 |    $           |                      tag: "octet_string" (0x4) 0x34.3-0x35 (0.5)
0x000030|               80                              |     .          |                      length: "indefinite" (0) 0x35-0x36 (1)
        |                                               |                |                      constructed[0:11]: 0x36-0x2792 (10076)
        |                                               |                |                        [0]{}: object 0x36-0x422 (1004)
0x000030|                  04                           |      .         |                          class: "universal" (0) 0x36-0x36.2 (0.2)
0x000030|                  04                           |      .         |                          form: "primitive" (0) 0x36.2-0x36.3 (0.1)
0x000030|                  04                           |      .         |                          tag: "octet_string" (0x4) 0x36.3-0x37 (0.5)
0x000030|                     82 03 e8                  |       ...      |                          length: 1000 0x37-0x3a (3)
0x000030|                              49 6e 69 7a 69 6f|          Inizio|                          value: raw bits 0x3a-0x422 (1000)
0x000040|20 63 6f 6e 74 65 6e 75 74 6f 2e 0a 41 41 41 41| contenuto..AAAA|
*       |until 0x421.7 (1000)                           |                |
        |                                               |                |                        [1]{}: object 0x422-0x80e (1004)
0x000420|      04                                       |  .             |                          class: "universal" (0) 0x422-0x422.2 (0.2)
0x000420|      04                                       |  .             |                          form: "primitive" (0) 0x422.2-0x422.3 (0.1)
0x000420|      04                                       |  .             |                          tag: "octet_string" (0x4) 0x422.3-0x423 (0.5)
0x000420|         82 03 e8                              |   ...          |                          length: 1000 0x423-0x426 (3)
0x000420|                  41 41 41 41 41 41 41 41 41 41|      AAAAAAAAAA|                          value: raw bits 0x426-0x80e (1000)
0x000430|41 41 41 41 41 41 41 41 41 41 41 41 41 41 41 41|AAAAAAAAAAAAAAAA|
*       |until 0x80d.7 (1000)                           |                |
        |                                               |                |                        [2]{}: object 0x80e-0xbfa (1004)
0x000800|                                          04   |              . |                          class: "universal" (0) 0x80e-0x80e.2 (0.2)
0x000800|                                          04   |              . |                          form: "primitive" (0) 0x80e.2-0x80e.3 (0.1)
0x000800|                                          04   |              . |                          tag: "octet_string" (0x4) 0x80e.3-0x80f (0.5)
0x000800|                                             82|               .|                          length: 1000 0x80f-0x812 (3)
0x000810|03 e8                                          |..              |
0x000810|      41 41 41 41 41 41 41 41 41 41 41 41 41 41|  AAAAAAAAAAAAAA|                          value: raw bits 0x812-0xbfa (1000)
0x000820|41 41 41 41 41 41 41 41 41 41 41 41 41 41 41 41|AAAAAAAAAAAAAAAA|
*       |until 0xbf9.7 (1000)                           |                |
        |                                               |                |                        [3]{}: object 0xbfa-0xfe6 (1004)
0x000bf0|                              04               |          .     |                          class: "universal" (0) 0xbfa-0xbfa.2 (0.2)
0x000bf0|                              04               |          .     |                          form: "primitive" (0) 0xbfa.2-0xbfa.3 (0.1)
0x000bf0|                              04               |          .     |                          tag: "octet_string" (0x4) 0xbfa.3-0xbfb (0.5)
0x000bf0|                                 82 03 e8      |           ...  |                          length: 1000 0xbfb-0xbfe (3)
0x000bf0|                                          41 41|              AA|                          value: raw bits 0xbfe-0xfe6 (1000)
0x000c00|41 41 41 41 41 41 41 41 41 41 41 41 41 41 41 41|AAAAAAAAAAAAAAAA|
*       |until 0xfe5.7 (1000)                           |                |
        |                                               |                |                        [4]{}: object 0xfe6-0x13d2 (1004)
0x000fe0|                  04                           |      .         |                          class: "universal" (0) 0xfe6-0xfe6.2 (0.2)
0x000fe0|                  04                           |      .         |                          form: "primitive" (0) 0xfe6.2-0xfe6.3 (0.1)
0x000fe0|                  04                           |      .         |                          tag: "octet_string" (0x4) 0xfe6.3-0xfe7 (0.5)
0x000fe0|                     82 03 e8                  |       ...      |                          length: 1000 0xfe7-0xfea (3)
0x000fe0|                              41 41 41 41 41 41|          AAAAAA|                          value: raw bits 0xfea-0x13d2 (1000)
0x000ff0|41 41 41 41 41 41 41 41 41 41 41 41 41 41 41 41|AAAAAAAAAAAAAAAA|
*       |until 0x13d1.7 (1000)                          |                |
        |                                               |                |                        [5]{}: object 0x13d2-0x17be (1004)
0x0013d0|      04                                       |  .             |                          class: "universal" (0) 0x13d2-0x13d2.2 (0.2)
0x0013d0|      04                                       |  .             |                          form: "primitive" (0) 0x13d2.2-0x13d2.3 (0.1)
0x0013d0|      04                                       |  .             |                          tag: "octet_string" (0x4) 0x13d2.3-0x13d3 (0.5)
0x0013d0|         82 03 e8                              |   ...          |                          length: 1000 0x13d3-0x13d6 (3)
0x0013d0|                  41 41 41 41 41 41 41 41 41 41|      AAAAAAAAAA|                          value: raw bits 0x13d6-0x17be (1000)
0x0013e0|41 41 41 41 41 41 41 41 41 41 41 41 41 41 41 41|AAAAAAAAAAAAAAAA|
*       |until 0x17bd.7 (1000)                          |                |
        |                                               |                |                        [6]{}: object 0x17be-0x1baa (1004)
0x0017b0|                                          04   |              . |                          class: "universal" (0) 0x17be-0x17be.2 (0.2)
0x0017b0|                                          04   |              . |                          form: "primitive" (0) 0x17be.2-0x17be.3 (0.1)
0x0017b0|                                          04   |              . |                          tag: "octet_string" (0x4) 0x17be.3-0x17bf (0.5)
0x0017b0|                                             82|               .|                          length: 1000 0x17bf-0x17c2 (3)
0x0017c0|03 e8                                          |..              |
0x0017c0|      41 41 41 41 41 41 41 41 41 41 41 41 41 41|  AAAAAAAAAAAAAA|                          value: raw bits 0x17c2-0x1baa (1000)
0x0017d0|41 41 41 41 41 41 41 41 41 41 41 41 41 41 41 41|AAAAAAAAAAAAAAAA|
*       |until 0x1ba9.7 (1000)                          |                |
        |                                               |                |                        [7]{}: object 0x1baa-0x1f96 (1004)
0x001ba0|                              04               |          .     |                          class: "universal" (0) 0x1baa-0x1baa.2 (0.2)
0x001ba0|                              04               |          .     |                          form: "primitive" (0) 0x1baa.2-0x1baa.3 (0.1)
0x001ba0|                              04               |          .     |                          tag: "octet_string" (0x4) 0x1baa.3-0x1bab (0.5)
0x001ba0|                                 82 03 e8      |           ...  |                          length: 1000 0x1bab-0x1bae (3)
0x001ba0|                                          41 41|              AA|                          value: raw bits 0x1bae-0x1f96 (1000)
0x001bb0|41 41 41 41 41 41 41 41 41 41 41 41 41 41 41 41|AAAAAAAAAAAAAAAA|
*       |until 0x1f95.7 (1000)                          |                |
        |                                               |                |                        [8]{}: object 0x1f96-0x2382 (1004)
0x001f90|                  04                           |      .         |                          class: "universal" (0) 0x1f96-0x1f96.2 (0.2)
0x001f90|                  04                           |      .         |                          form: "primitive" (0) 0x1f96.2-0x1f96.3 (0.1)
0x001f90|                  04                           |      .         |                          tag: "octet_string" (0x4) 0x1f96.3-0x1f97 (0.5)
0x001f90|                     82 03 e8                  |       ...      |                          length: 1000 0x1f97-0x1f9a (3)
0x001f90|                              41 41 41 41 41 41|          AAAAAA|                          value: raw bits 0x1f9a-0x2382 (1000)
0x001fa0|41 41 41 41 41 41 41 41 41 41 41 41 41 41 41 41|AAAAAAAAAAAAAAAA|
*       |until 0x2381.7 (1000)                          |                |
        |                                               |                |                        [9]{}: object 0x2382-0x276e (1004)
0x002380|      04                                       |  .             |                          class: "universal" (0) 0x2382-0x2382.2 (0.2)
0x002380|      04                                       |  .             |                          form: "primitive" (0) 0x2382.2-0x2382.3 (0.1)
0x002380|      04                                       |  .             |                          tag: "octet_string" (0x4) 0x2382.3-0x2383 (0.5)
0x002380|         82 03 e8                              |   ...          |                          length: 1000 0x2383-0x2386 (3)
0x002380|                  41 41 41 41 41 41 41 41 41 41|      AAAAAAAAAA|                          value: raw bits 0x2386-0x276e (1000)
0x002390|41 41 41 41 41 41 41 41 41 41 41 41 41 41 41 41|AAAAAAAAAAAAAAAA|
*       |until 0x276d.7 (1000)                          |                |
        |                                               |                |                        [10]{}: object 0x276e-0x2792 (36)
0x002760|                                          04   |              . |                          class: "universal" (0) 0x276e-0x276e.2 (0.2)
0x002760|                                          04   |              . |                          form: "primitive" (0) 0x276e.2-0x276e.3 (0.1)
0x002760|                                          04   |              . |                          tag: "octet_string" (0x4) 0x276e.3-0x276f (0.5)
0x002760|                                             22|               "|                          length: 34 0x276f-0x2770 (1)
0x002770|41 41 41 41 41 41 41 41 41 41 41 41 41 41 41 41|AAAAAAAAAAAAAAAA|                          value: raw bits 0x2770-0x2792 (34)
*       |until 0x2791.7 (34)                            |                |
0x002790|      00 00                                    |  ..            |                      end_marker: 0 0x2792-0x2794 (2)
        |00 01 02 03 04 05 06 07 08 09 0a 0b 0c 0d 0e 0f|0123456789abcdef|
  0x0000|49 6e 69 7a 69 6f 20 63 6f 6e 74 65 6e 75 74 6f|Inizio contenuto|                      value: raw bits 0x0-0x2732 (10034)
  *     |until 0x2731.7 (end) (10034)                   |                |
0x002790|            00 00                              |    ..          |                  end_marker: 0 0x2794-0x2796 (2)
0x002790|                  00 00                        |      ..        |              end_marker: 0 0x2796-0x2798 (2)
        |                                               |                |            [3]{}: object 0x2798-0x290e (374)
0x002790|                        a0                     |        .       |              class: "context" (2) 0x2798-0x2798.2 (0.2)
0x002790|                        a0                     |        .       |              form: "constructed" (1) 0x2798.2-0x2798.3 (0.1)
0x002790|                        a0                     |        .       |              tag: 0 0x2798.3-0x2799 (0.5)
0x002790|                           80                  |         .      |              length: "indefinite" (0) 0x2799-0x279a (1)
        |                                               |                |              constructed[0:1]: 0x279a-0x290c (370)
        |                                               |                |                [0]{}: object 0x279a-0x290c (370)
0x002790|                              30               |          0     |                  class: "universal" (0) 0x279a-0x279a.2 (0.2)
0x002790|                              30               |          0     |                  form: "constructed" (1) 0x279a.2-0x279a.3 (0.1)
0x002790|                              30               |          0     |                  tag: "sequence" (0x10) 0x279a.3-0x279b (0.5)
0x002790|                                 82 01 6e      |           ..n  |                  length: 366 0x279b-0x279e (3)
        |                                               |                |                  constructed[0:3]: 0x279e-0x290c (366)
        |                                               |                |                    [0]{}: object 0x279e-0x28b6 (280)
0x002790|                                          30   |              0 |                      class: "universal" (0) 0x279e-0x279e.2 (0.2)
0x002790|                                          30   |              0 |                      form: "constructed" (1) 0x279e.2-0x279e.3 (0.1)
0x002790|                                          30   |              0 |                      tag: "sequence" (0x10) 0x279e.3-0x279f (0.5)
0x002790|                                             82|               .|                      length: 276 0x279f-0x27a2 (3)
0x0027a0|01 14                                          |..              |
        |                                               |                |                      constructed[0:8]: 0x27a2-0x28b6 (276)
        |                                               |                |                        [0]{}: object 0x27a2-0x27a7 (5)
0x0027a0|      a0                                       |  .             |                          class: "context" (2) 0x27a2-0x27a2.2 (0.2)
0x0027a0|      a0                                       |  .             |                          form: "constructed" (1) 0x27a2.2-0x27a2.3 (0.1)
0x0027a0|      a0                                       |  .             |                          tag: 0 0x27a2.3-0x27a3 (0.5)
0x0027a0|         03                                    |   .            |                          length: 3 0x27a3-0x27a4 (1)
        |                                               |                |                          constructed[0:1]: 0x27a4-0x27a7 (3)
        |                                               |                |                            [0]{}: object 0x27a4-0x27a7 (3)
0x0027a0|            02                                 |    .           |                              class: "universal" (0) 0x27a4-0x27a4.2 (0.2)
0x0027a0|            02                                 |    .           |                              form: "primitive" (0) 0x27a4.2-0x27a4.3 (0.1)
0x0027a0|            02                                 |    .           |                              tag: "integer" (0x2) 0x27a4.3-0x27a5 (0.5)
0x0027a0|               01                              |     .          |                              length: 1 0x27a5-0x27a6 (1)
0x0027a0|                  02                           |      .         |                              value: 2 0x27a6-0x27a7 (1)
        |                                               |                |                        [1]{}: object 0x27a7-0x27b9 (18)
0x0027a0|                     02                        |       .        |                          class: "universal" (0) 0x27a7-0x27a7.2 (0.2)
0x0027a0|                     02                        |       .        |                          form: "primitive" (0) 0x27a7.2-0x27a7.3 (0.1)
0x0027a0|                     02                        |       .        |                          tag: "integer" (0x2) 0x27a7.3-0x27a8 (0.5)
0x0027a0|                        10                     |        .       |                          length: 16 0x27a8-0x27a9 (1)
0x0027a0|                           73 b1 c7 fd dd 78 8c|         s....x.|                          value: 153784312372004154585016958156123251168 0x27a9-0x27b9 (16)
0x0027b0|88 93 20 a9 d1 7b 89 a1 e0                     |.. ..{...       |
        |                                               |                |                        [2]{}: object 0x27b9-0x27c5 (12)
0x0027b0|                           30                  |         0      |                          class: "universal" (0) 0x27b9-0x27b9.2 (0.2)
0x0027b0|                           30                  |         0      |                          form: "constructed" (1) 0x27b9.2-0x27b9.3 (0.1)
0x0027b0|                           30                  |         0      |                          tag: "sequence" (0x10) 0x27b9.3-0x27ba (0.5)
0x0027b0|                              0a               |          .     |                          length: 10 0x27ba-0x27bb (1)
        |                                               |                |                          constructed[0:1]: 0x27bb-0x27c5 (10)
        |                                               |                |                            [0]{}: object 0x27bb-0x27c5 (10)
0x0027b0|                                 06            |           .    |                              class: "universal" (0) 0x27bb-0x27bb.2 (0.2)
0x0027b0|                                 06            |           .    |                              form: "primitive" (0) 0x27bb.2-0x27bb.3 (0.1)
0x0027b0|                                 06            |           .    |                              tag: "object_identifier" (0x6) 0x27bb.3-0x27bc (0.5)
0x0027b0|                                    08         |            .   |                              length: 8 0x27bc-0x27bd (1)
        |                                               |                |                              value[0:7]: 0x27bd-0x27c5 (8)
0x0027b0|                                       2a      |             *  |                                [0]: 1 oid 0x27bd-0x27be (1)
0x0027b0|                                       2a      |             *  |                                [1]: 2 oid 0x27bd-0x27be (1)
0x0027b0|                                          86 48|              .H|                                [2]: 840 oid 0x27be-0x27c0 (2)
0x0027c0|ce 3d                                          |.=              |                                [3]: 10045 oid 0x27c0-0x27c2 (2)
0x0027c0|      04                                       |  .             |                                [4]: 4 oid 0x27c2-0x27c3 (1)
0x0027c0|         03                                    |   .            |                                [5]: 3 oid 0x27c3-0x27c4 (1)
0x0027c0|            02                                 |    .           |                                [6]: 2 oid 0x27c4-0x27c5 (1)
        |                                               |                |                        [3]{}: object 0x27c5-0x27d6 (17)
0x0027c0|               30                              |     0          |                          class: "universal" (0) 0x27c5-0x27c5.2 (0.2)
0x0027c0|               30                              |     0          |                          form: "constructed" (1) 0x27c5.2-0x27c5.3 (0.1)
0x0027c0|               30                              |     0          |                          tag: "sequence" (0x10) 0x27c5.3-0x27c6 (0.5)
0x0027c0|                  0f                           |      .         |                          length: 15 0x27c6-0x27c7 (1)
        |                                               |                |                          constructed[0:1]: 0x27c7-0x27d6 (15)
        |                                               |                |                            [0]{}: object 0x27c7-0x27d6 (15)
0x0027c0|                     31                        |       1        |                              class: "universal" (0) 0x27c7-0x27c7.2 (0.2)
0x0027c0|                     31                        |       1        |                              form: "constructed" (1) 0x27c7.2-0x27c7.3 (0.1)
0x0027c0|                     31                        |       1        |                              tag: "set" (0x11) 0x27c7.3-0x27c8 (0.5)
0x0027c0|                        0d                     |        .       |                              length: 13 0x27c8-0x27c9 (1)
        |                                               |                |                              constructed[0:1]: 0x27c9-0x27d6 (13)
        |                                               |                |                                [0]{}: object 0x27c9-0x27d6 (13)
0x0027c0|                           30                  |         0      |                                  class: "universal" (0) 0x27c9-0x27c9.2 (0.2)
0x0027c0|                           30                  |         0      |                                  form: "constructed" (1) 0x27c9.2-0x27c9.3 (0.1)
0x0027c0|                           30                  |         0      |                                  tag: "sequence" (0x10) 0x27c9.3-0x27ca (0.5)
0x0027c0|                              0b               |          .     |                                  length: 11 0x27ca-0x27cb (1)
        |                                               |                |                                  constructed[0:2]: 0x27cb-0x27d6 (11)
        |                                               |                |                                    [0]{}: object 0x27cb-0x27d0 (5)
0x0027c0|                                 06            |           .    |                                      class: "universal" (0) 0x27cb-0x27cb.2 (0.2)
0x0027c0|                                 06            |           .    |                                      form: "primitive" (0) 0x27cb.2-0x27cb.3 (0.1)
0x0027c0|                                 06            |           .    |                                      tag: "object_identifier" (0x6) 0x27cb.3-0x27cc (0.5)
0x0027c0|                                    03         |            .   |                                      length: 3 0x27cc-0x27cd (1)
        |                                               |                |                                      value[0:4]: 0x27cd-0x27d0 (3)
0x0027c0|                                       55      |             U  |                                        [0]: 2 oid 0x27cd-0x27ce (1)
0x0027c0|                                       55      |             U  |                                        [1]: 5 oid 0x27cd-0x27ce (1)
0x0027c0|                                          04   |              . |                                        [2]: 4 oid 0x27ce-0x27cf (1)
0x0027c0|                                             03|               .|                                        [3]: 3 oid 0x27cf-0x27d0 (1)
        |                                               |                |                                    [1]{}: object 0x27d0-0x27d6 (6)
0x0027d0|0c                                             |.               |                                      class: "universal" (0) 0x27d0-0x27d0.2 (0.2)
0x0027d0|0c                                             |.               |                                      form: "primitive" (0) 0x27d0.2-0x27d0.3 (0.1)
0x0027d0|0c                                             |.               |                                      tag: "utf8_string" (0xc) 0x27d0.3-0x27d1 (0.5)
0x0027d0|   04                                          | .              |                                      length: 4 0x27d1-0x27d2 (1)
0x0027d0|      54 65 73 74                              |  Test          |                                      value: "Test" 0x27d2-0x27d6 (4)
        |                                               |                |                        [4]{}: object 0x27d6-0x27f6 (32)
0x0027d0|                  30                           |      0         |                          class: "universal" (0) 0x27d6-0x27d6.2 (0.2)
0x0027d0|                  30                           |      0         |                          form: "constructed" (1) 0x27d6.2-0x27d6.3 (0.1)
0x0027d0|                  30                           |      0         |                          tag: "sequence" (0x10) 0x27d6.3-0x27d7 (0.5)
0x0027d0|                     1e                        |       .        |                          length: 30 0x27d7-0x27d8 (1)
        |                                               |                |                          constructed[0:2]: 0x27d8-0x27f6 (30)
        |                                               |                |                            [0]{}: object 0x27d8-0x27e7 (15)
0x0027d0|                        17                     |        .       |                              class: "universal" (0) 0x27d8-0x27d8.2 (0.2)
0x0027d0|                        17                     |        .       |                              form: "primitive" (0) 0x27d8.2-0x27d8.3 (0.1)
0x0027d0|                        17                     |        .       |                              tag: "utc_time" (0x17) 0x27d8.3-0x27d9 (0.5)
0x0027d0|                           0d                  |         .      |                              length: 13 0x27d9-0x27da (1)
0x0027d0|                              31 38 30 37 31 36|          180716|                              value: "180716151700Z" 0x27da-0x27e7 (13)
0x0027e0|31 35 31 37 30 30 5a                           |151700Z         |
        |                                               |                |                            [1]{}: object 0x27e7-0x27f6 (15)
0x0027e0|                     17                        |       .        |                              class: "universal" (0) 0x27e7-0x27e7.2 (0.2)
0x0027e0|                     17                        |       .        |                              form: "primitive" (0) 0x27e7.2-0x27e7.3 (0.1)
0x0027e0|                     17                        |       .        |                              tag: "utc_time" (0x17) 0x27e7.3-0x27e8 (0.5)
0x0027e0|                        0d                     |        .       |                              length: 13 0x27e8-0x27e9 (1)
0x0027e0|                           31 39 30 37 31 36 31|         1907161|                              value: "190716151700Z" 0x27e9-0x27f6 (13)
0x0027f0|35 31 37 30 30 5a                              |51700Z          |
        |                                               |                |                        [5]{}: object 0x27f6-0x2807 (17)
0x0027f0|                  30                           |      0         |                          class: "universal" (0) 0x27f6-0x27f6.2 (0.2)
0x0027f0|                  30                           |      0         |                          form: "constructed" (1) 0x27f6.2-0x27f6.3 (0.1)
0x0027f0|                  30                           |      0         |                          tag: "sequence" (0x10) 0x27f6.3-0x27f7 (0.5)
0x0027f0|                     0f                        |       .        |                          length: 15 0x27f7-0x27f8 (1)
        |                                               |                |                          constructed[0:1]: 0x27f8-0x2807 (15)
        |                                               |                |                            [0]{}: object 0x27f8-0x2807 (15)
0x0027f0|                        31                     |        1       |                              class: "universal" (0) 0x27f8-0x27f8.2 (0.2)
0x0027f0|                        31                     |        1       |                              form: "constructed" (1) 0x27f8.2-0x27f8.3 (0.1)
0x0027f0|                        31                     |        1       |                              tag: "set" (0x11) 0x27f8.3-0x27f9 (0.5)
0x0027f0|                           0d                  |         .      |                              length: 13 0x27f9-0x27fa (1)
        |                                               |                |                              constructed[0:1]: 0x27fa-0x2807 (13)
        |                                               |                |                                [0]{}: object 0x27fa-0x2807 (13)
0x0027f0|                              30               |          0     |                                  class: "universal" (0) 0x27fa-0x27fa.2 (0.2)
0x0027f0|                              30               |          0     |                                  form: "constructed" (1) 0x27fa.2-0x27fa.3 (0.1)
0x0027f0|                              30               |          0     |                                  tag: "sequence" (0x10) 0x27fa.3-0x27fb (0.5)
0x0027f0|                                 0b            |           .    |                                  length: 11 0x27fb-0x27fc (1)
        |                                               |                |                                  constructed[0:2]: 0x27fc-0x2807 (11)
        |                                               |                |                                    [0]{}: object 0x27fc-0x2801 (5)
0x0027f0|                                    06         |            .   |                                      class: "universal" (0) 0x27fc-0x27fc.2 (0.2)
0x0027f0|                                    06         |            .   |                                      form: "primitive" (0) 0x27fc.2-0x27fc.3 (0.1)
0x0027f0|                                    06         |            .   |                                      tag: "object_identifier" (0x6) 0x27fc.3-0x27fd (0.5)
0x0027f0|                                       03      |             .  |                                      length: 3 0x27fd-0x27fe (1)
        |                                               |                |                                      value[0:4]: 0x27fe-0x2801 (3)
0x0027f0|                                          55   |              U |                                        [0]: 2 oid 0x27fe-0x27ff (1)
0x0027f0|                                          55   |              U |                                        [1]: 5 oid 0x27fe-0x27ff (1)
0x0027f0|                                             04|               .|                                        [2]: 4 oid 0x27ff-0x2800 (1)
0x002800|03                                             |.               |                                        [3]: 3 oid 0x2800-0x2801 (1)
        |                                               |                |                                    [1]{}: object 0x2801-0x2807 (6)
0x002800|   0c                                          | .              |                                      class: "universal" (0) 0x2801-0x2801.2 (0.2)
0x002800|   0c                                          | .              |                                      form: "primitive" (0) 0x2801.2-0x2801.3 (0.1)
0x002800|   0c                                          | .              |                                      tag: "utf8_string" (0xc) 0x2801.3-0x2802 (0.5)
0x002800|      04                                       |  .             |                                      length: 4 0x2802-0x2803 (1)
0x002800|         54 65 73 74                           |   Test         |                                      value: "Test" 0x2803-0x2807 (4)
        |                                               |                |                        [6]{}: object 0x2807-0x2862 (91)
0x002800|                     30                        |       0        |                          class: "universal" (0) 0x2807-0x2807.2 (0.2)
0x002800|                     30                        |       0        |                          form: "constructed" (1) 0x2807.2-0x2807.3 (0.1)
0x002800|                     30                        |       0        |                          tag: "sequence" (0x10) 0x2807.3-0x2808 (0.5)
0x002800|                        59                     |        Y       |                          length: 89 0x2808-0x2809 (1)
        |                                               |                |                          constructed[0:2]: 0x2809-0x2862 (89)
        |                                               |                |                            [0]{}: object 0x2809-0x281e (21)
0x002800|                           30                  |         0      |                              class: "universal" (0) 0x2809-0x2809.2 (0.2)
0x002800|                           30                  |         0      |                              form: "constructed" (1) 0x2809.2-0x2809.3 (0.1)
0x002800|                           30                  |         0      |                              tag: "sequence" (0x10) 0x2809.3-0x280a (0.5)
0x002800|                              13               |          .     |                              length: 19 0x280a-0x280b (1)
        |                                               |                |                              constructed[0:2]: 0x280b-0x281e (19)
        |                                               |                |                                [0]{}: object 0x280b-0x2814 (9)
0x002800|                                 06            |           .    |                                  class: "universal" (0) 0x280b-0x280b.2 (0.2)
0x002800|                                 06            |           .    |                                  form: "primitive" (0) 0x280b.2-0x280b.3 (0.1)
0x002800|                                 06            |           .    |                                  tag: "object_identifier" (0x6) 0x280b.3-0x280c (0.5)
0x002800|                                    07         |            .   |                                  length: 7 0x280c-0x280d (1)
        |                                               |                |                                  value[0:6]: 0x280d-0x2814 (7)
0x002800|                                       2a      |             *  |                                    [0]: 1 oid 0x280d-0x280e (1)
0x002800|                                       2a      |             *  |                                    [1]: 2 oid 0x280d-0x280e (1)
0x002800|                                          86 48|              .H|                                    [2]: 840 oid 0x280e-0x2810 (2)
0x002810|ce 3d                                          |.=              |                                    [3]: 10045 oid 0x2810-0x2812 (2)
0x002810|      02                                       |  .             |                                    [4]: 2 oid 0x2812-0x2813 (1)
0x002810|         01                                    |   .            |                                    [5]: 1 oid 0x2813-0x2814 (1)
        |                                               |                |                                [1]{}: object 0x2814-0x281e (10)
0x002810|            06                                 |    .           |                                  class: "universal" (0) 0x2814-0x2814.2 (0.2)
0x002810|            06                                 |    .           |                                  form: "primitive" (0) 0x2814.2-0x2814.3 (0.1)
0x002810|            06                                 |    .           |                                  tag: "object_identifier" (0x6) 0x2814.3-0x2815 (0.5)
0x002810|               08                              |     .          |                                  length: 8 0x2815-0x2816 (1)
        |                                               |                |                                  value[0:7]: 0x2816-0x281e (8)
0x002810|                  2a                           |      *         |                                    [0]: 1 oid 0x2816-0x2817 (1)
0x002810|                  2a                           |      *         |                                    [1]: 2 oid 0x2816-0x2817 (1)
0x002810|                     86 48                     |       .H       |                                    [2]: 840 oid 0x2817-0x2819 (2)
0x002810|                           ce 3d               |         .=     |                                    [3]: 10045 oid 0x2819-0x281b (2)
0x002810|                                 03            |           .    |                                    [4]: 3 oid 0x281b-0x281c (1)
0x002810|                                    01         |            .   |                                    [5]: 1 oid 0x281c-0x281d (1)
0x002810|                                       07      |             .  |                                    [6]: 7 oid 0x281d-0x281e (1)
        |                                               |                |                            [1]{}: object 0x281e-0x2862 (68)
0x002810|                                          03   |              . |                              class: "universal" (0) 0x281e-0x281e.2 (0.2)
0x002810|                                          03   |              . |                              form: "primitive" (0) 0x281e.2-0x281e.3 (0.1)
0x002810|                                          03   |              . |                              tag: "bit_string" (0x3) 0x281e.3-0x281f (0.5)
0x002810|                                             42|               B|                              length: 66 0x281f-0x2820 (1)
0x002820|00                                             |.               |                              unused_bits_count: 0 0x2820-0x2821 (1)
0x002820|   04 eb 6c 86 95 ce b5 1d 0e 3e a9 6b 23 78 6d| ..l......>.k#xm|                              value: raw bits 0x2821-0x2862 (65)
0x002830|13 33 7c 60 1e 53 1d af 6e d7 40 0e c9 95 a8 1e|.3|`.S..n.@.....|
*       |until 0x2861.7 (65)                            |                |
        |                                               |                |                        [7]{}: object 0x2862-0x28b6 (84)
0x002860|      a3                                       |  .             |                          class: "context" (2) 0x2862-0x2862.2 (0.2)
0x002860|      a3                                       |  .             |                          form: "constructed" (1) 0x2862.2-0x2862.3 (0.1)
0x002860|      a3                                       |  .             |                          tag: 3 0x2862.3-0x2863 (0.5)
0x002860|         52                                    |   R            |                          length: 82 0x2863-0x2864 (1)
        |                                               |                |                          constructed[0:1]: 0x2864-0x28b6 (82)
        |                                               |                |                            [0]{}: object 0x2864-0x28b6 (82)
0x002860|            30                                 |    0           |                              class: "universal" (0) 0x2864-0x2864.2 (0.2)
0x002860|            30                                 |    0           |                              form: "constructed" (1) 0x2864.2-0x2864.3 (0.1)
0x002860|            30                                 |    0           |                              tag: "sequence" (0x10) 0x2864.3-0x2865 (0.5)
0x002860|               50                              |     P          |                              length: 80 0x2865-0x2866 (1)
        |                                               |                |                              constructed[0:3]: 0x2866-0x28b6 (80)
        |                                               |                |                                [0]{}: object 0x2866-0x2876 (16)
0x002860|                  30                           |      0         |                                  class: "universal" (0) 0x2866-0x2866.2 (0.2)
0x002860|                  30                           |      0         |                                  form: "constructed" (1) 0x2866.2-0x2866.3 (0.1)
0x002860|                  30                           |      0         |                                  tag: "sequence" (0x10) 0x2866.3-0x2867 (0.5)
0x002860|                     0e                        |       .        |                                  length: 14 0x2867-0x2868 (1)
        |                                               |                |                                  constructed[0:3]: 0x2868-0x2876 (14)
        |                                               |                |                                    [0]{}: object 0x2868-0x286d (5)
0x002860|                        06                     |        .       |                                      class: "universal" (0) 0x2868-0x2868.2 (0.2)
0x002860|                        06                     |        .       |                                      form: "primitive" (0) 0x2868.2-0x2868.3 (0.1)
0x002860|                        06                     |        .       |                                      tag: "object_identifier" (0x6) 0x2868.3-0x2869 (0.5)
0x002860|                           03                  |         .      |                                      length: 3 0x2869-0x286a (1)
        |                                               |                |                                      value[0:4]: 0x286a-0x286d (3)
0x002860|                              55               |          U     |                                        [0]: 2 oid 0x286a-0x286b (1)
0x002860|                              55               |          U     |                                        [1]: 5 oid 0x286a-0x286b (1)
0x002860|                                 1d            |           .    |                                        [2]: 29 oid 0x286b-0x286c (1)
0x002860|                                    0f         |            .   |                                        [3]: 15 oid 0x286c-0x286d (1)
        |                                               |                |                                    [1]{}: object 0x286d-0x2870 (3)
0x002860|                                       01      |             .  |                                      class: "universal" (0) 0x286d-0x286d.2 (0.2)
0x002860|                                       01      |             .  |                                      form: "primitive" (0) 0x286d.2-0x286d.3 (0.1)
0x002860|                                       01      |             .  |                                      tag: "boolean" (0x1) 0x286d.3-0x286e (0.5)
0x002860|                                          01   |              . |                                      length: 1 0x286e-0x286f (1)
0x002860|                                             ff|               .|                                      value: true (255) 0x286f-0x2870 (1)
        |                                               |                |                                    [2]{}: object 0x2870-0x2876 (6)
0x002870|04                                             |.               |                                      class: "universal" (0) 0x2870-0x2870.2 (0.2)
0x002870|04                                             |.               |                                      form: "primitive" (0) 0x2870.2-0x2870.3 (0.1)
0x002870|04                                             |.               |                                      tag: "octet_string" (0x4) 0x2870.3-0x2871 (0.5)
0x002870|   04                                          | .              |                                      length: 4 0x2871-0x2872 (1)
0x002870|      03 02 04 f0                              |  ....          |                                      value: raw bits 0x2872-0x2876 (4)
        |                                               |                |                                [1]{}: object 0x2876-0x2895 (31)
0x002870|                  30                           |      0         |                                  class: "universal" (0) 0x2876-0x2876.2 (0.2)
0x002870|                  30                           |      0         |                                  form: "constructed" (1) 0x2876.2-0x2876.3 (0.1)
0x002870|                  30                           |      0         |                                  tag: "sequence" (0x10) 0x2876.3-0x2877 (0.5)
0x002870|                     1d                        |       .        |                                  length: 29 0x2877-0x2878 (1)
        |                                               |                |                                  constructed[0:2]: 0x2878-0x2895 (29)
        |                                               |                |                                    [0]{}: object 0x2878-0x287d (5)
0x002870|                        06                     |        .       |                                      class: "universal" (0) 0x2878-0x2878.2 (0.2)
0x002870|                        06                     |        .       |                                      form: "primitive" (0) 0x2878.2-0x2878.3 (0.1)
0x002870|                        06                     |        .       |                                      tag: "object_identifier" (0x6) 0x2878.3-0x2879 (0.5)
0x002870|                           03                  |         .      |                                      length: 3 0x2879-0x287a (1)
        |                                               |                |                                      value[0:4]: 0x287a-0x287d (3)
0x002870|                              55               |          U     |                                        [0]: 2 oid 0x287a-0x287b (1)
0x002870|                              55               |          U     |                                        [1]: 5 oid 0x287a-0x287b (1)
0x002870|                                 1d            |           .    |                                        [2]: 29 oid 0x287b-0x287c (1)
0x002870|                                    0e         |            .   |                                        [3]: 14 oid 0x287c-0x287d (1)
        |                                               |                |                                    [1]{}: object 0x287d-0x2895 (24)
0x002870|                                       04      |             .  |                                      class: "universal" (0) 0x287d-0x287d.2 (0.2)
0x002870|                                       04      |             .  |                                      form: "primitive" (0) 0x287d.2-0x287d.3 (0.1)
0x002870|                                       04      |             .  |                                      tag: "octet_string" (0x4) 0x287d.3-0x287e (0.5)
0x002870|                                          16   |              . |                                      length: 22 0x287e-0x287f (1)
0x002870|                                             04|               .|                                      value: raw bits 0x287f-0x2895 (22)
0x002880|14 66 0d 2d d0 4b 45 ed 33 c8 a2 f9 71 49 85 72|.f.-.KE.3...qI.r|
0x002890|c2 08 57 b5 be                                 |..W..           |
        |                                               |                |                                [2]{}: object 0x2895-0x28b6 (33)
0x002890|               30                              |     0          |                                  class: "universal" (0) 0x2895-0x2895.2 (0.2)
0x002890|               30                              |     0          |                                  form: "constructed" (1) 0x2895.2-0x2895.3 (0.1)
0x002890|               30                              |     0          |                                  tag: "sequence" (0x10) 0x2895.3-0x2896 (0.5)
0x002890|                  1f                           |      .         |                                  length: 31 0x2896-0x2897 (1)
        |                                               |                |                                  constructed[0:2]: 0x2897-0x28b6 (31)
        |                                               |                |                                    [0]{}: object 0x2897-0x289c (5)
0x002890|                     06                        |       .        |                                      class: "universal" (0) 0x2897-0x2897.2 (0.2)
0x002890|                     06                        |       .        |                                      form: "primitive" (0) 0x2897.2-0x2897.3 (0.1)
0x002890|                     06                        |       .        |                                      tag: "object_identifier" (0x6) 0x2897.3-0x2898 (0.5)
0x002890|                        03                     |        .       |                                      length: 3 0x2898-0x2899 (1)
        |                                               |                |                                      value[0:4]: 0x2899-0x289c (3)
0x002890|                           55                  |         U      |                                        [0]: 2 oid 0x2899-0x289a (1)
0x002890|                           55                  |         U      |                                        [1]: 5 oid 0x2899-0x289a (1)
0x002890|                              1d               |          .     |                                        [2]: 29 oid 0x289a-0x289b (1)
0x002890|                                 23            |           #    |                                        [3]: 35 oid 0x289b-0x289c (1)
        |                                               |                |                                    [1]{}: object 0x289c-0x28b6 (26)
0x002890|                                    04         |            .   |                                      class: "universal" (0) 0x289c-0x289c.2 (0.2)
0x002890|                                    04         |            .   |                                      form: "primitive" (0) 0x289c.2-0x289c.3 (0.1)
0x002890|                                    04         |            .   |                                      tag: "octet_string" (0x4) 0x289c.3-0x289d (0.5)
0x002890|                                       18      |             .  |                                      length: 24 0x289d-0x289e (1)
0x002890|                                          30 16|              0.|                                      value: raw bits 0x289e-0x28b6 (24)
0x0028a0|80 14 66 0d 2d d0 4b 45 ed 33 c8 a2 f9 71 49 85|..f.-.KE.3...qI.|
0x0028b0|72 c2 08 57 b5 be                              |r..W..          |
        |00 01 02 03 04 05 06 07 08 09 0a 0b 0c 0d 0e 0f|0123456789abcdef|
  0x0000|03 02 04 f0 04 14 66 0d 2d d0 4b 45 ed 33 c8 a2|......f.-.KE.3..|                          value: raw bits 0x0-0x32 (50)
  *     |until 0x31.7 (end) (50)                        |                |
        |                                               |                |                    [1]{}: object 0x28b6-0x28c2 (12)
0x0028b0|                  30                           |      0         |                      class: "universal" (0) 0x28b6-0x28b6.2 (0.2)
0x0028b0|                  30                           |      0         |                      form: "constructed" (1) 0x28b6.2-0x28b6.3 (0.1)
0x0028b0|                  30                           |      0         |                      tag: "sequence" (0x10) 0x28b6.3-0x28b7 (0.5)
0x0028b0|                     0a                        |       .        |                      length: 10 0x28b7-0x28b8 (1)
        |                                               |                |                      constructed[0:1]: 0x28b8-0x28c2 (10)
        |                                               |                |                        [0]{}: object 0x28b8-0x28c2 (10)
0x0028b0|                        06                     |        .       |                          class: "universal" (0) 0x28b8-0x28b8.2 (0.2)
0x0028b0|                        06                     |        .       |                          form: "primitive" (0) 0x28b8.2-0x28b8.3 (0.1)
0x0028b0|                        06                     |        .       |                          tag: "object_identifier" (0x6) 0x28b8.3-0x28b9 (0.5)
0x0028b0|                           08                  |         .      |                          length: 8 0x28b9-0x28ba (1)
        |                                               |                |                          value[0:7]: 0x28ba-0x28c2 (8)
0x0028b0|                              2a               |          *     |                            [0]: 1 oid 0x28ba-0x28bb (1)
0x0028b0|                              2a               |          *     |                            [1]: 2 oid 0x28ba-0x28bb (1)
0x0028b0|                                 86 48         |           .H   |                            [2]: 840 oid 0x28bb-0x28bd (2)
0x0028b0|                                       ce 3d   |             .= |                            [3]: 10045 oid 0x28bd-0x28bf (2)
0x0028b0|                                             04|               .|                            [4]: 4 oid 0x28bf-0x28c0 (1)
0x0028c0|03                                             |.               |                            [5]: 3 oid 0x28c0-0x28c1 (1)
0x0028c0|   02                                          | .              |                            [6]: 2 oid 0x28c1-0x28c2 (1)
        |                                               |                |                    [2]{}: object 0x28c2-0x290c (74)
0x0028c0|      03                                       |  .             |                      class: "universal" (0) 0x28c2-0x28c2.2 (0.2)
0x0028c0|      03                                       |  .             |                      form: "primitive" (0) 0x28c2.2-0x28c2.3 (0.1)
0x0028c0|      03                                       |  .             |                      tag: "bit_string" (0x3) 0x28c2.3-0x28c3 (0.5)
0x0028c0|         48                                    |   H            |                      length: 72 0x28c3-0x28c4 (1)
0x0028c0|            00                                 |    .           |                      unused_bits_count: 0 0x28c4-0x28c5 (1)
0x0028c0|               30 45 02 21 00 ad 16 b6 73 82 b4|     0E.!....s..|                      value: raw bits 0x28c5-0x290c (71)
0x0028d0|42 b7 86 be da 4d 5d ea 4a 0a 36 40 55 30 73 4f|B....M].J.6@U0sO|
*       |until 0x290b.7 (71)                            |                |
0x002900|                                    00 00      |            ..  |              end_marker: 0 0x290c-0x290e (2)
        |                                               |                |            [4]{}: object 0x290e-0x2a9c (398)
0x002900|                                          31   |              1 |              class: "universal" (0) 0x290e-0x290e.2 (0.2)
0x002900|                                          31   |              1 |              form: "constructed" (1) 0x290e.2-0x290e.3 (0.1)
0x002900|                                          31   |              1 |              tag: "set" (0x11) 0x290e.3-0x290f (0.5)
0x002900|                                             82|               .|              length: 394 0x290f-0x2912 (3)
0x002910|01 8a                                          |..              |
        |                                               |                |              constructed[0:1]: 0x2912-0x2a9c (394)
        |                                               |                |                [0]{}: object 0x2912-0x2a9c (394)
0x002910|      30                                       |  0             |                  class: "universal" (0) 0x2912-0x2912.2 (0.2)
0x002910|      30                                       |  0             |                  form: "constructed" (1) 0x2912.2-0x2912.3 (0.1)
0x002910|      30                                       |  0             |                  tag: "sequence" (0x10) 0x2912.3-0x2913 (0.5)
0x002910|         82 01 86                              |   ...          |                  length: 390 0x2913-0x2916 (3)
        |                                               |                |                  constructed[0:6]: 0x2916-0x2a9c (390)
        |                                               |                |                    [0]{}: object 0x2916-0x2919 (3)
0x002910|                  02                           |      .         |                      class: "universal" (0) 0x2916-0x2916.2 (0.2)
0x002910|                  02                           |      .         |                      form: "primitive" (0) 0x2916.2-0x2916.3 (0.1)
0x002910|                  02                           |      .         |                      tag: "integer" (0x2) 0x2916.3-0x2917 (0.5)
0x002910|                     01                        |       .        |                      length: 1 0x2917-0x2918 (1)
0x002910|                        01                     |        .       |                      value: 1 0x2918-0x2919 (1)
        |                                               |                |                    [1]{}: object 0x2919-0x293e (37)
0x002910|                           30                  |         0      |                      class: "universal" (0) 0x2919-0x2919.2 (0.2)
0x002910|                           30                  |         0      |                      form: "constructed" (1) 0x2919.2-0x2919.3 (0.1)
0x002910|                           30                  |         0      |                      tag: "sequence" (0x10) 0x2919.3-0x291a (0.5)
0x002910|                              23               |          #     |                      length: 35 0x291a-0x291b (1)
        |                                               |                |                      constructed[0:2]: 0x291b-0x293e (35)
        |                                               |                |                        [0]{}: object 0x291b-0x292c (17)
0x002910|                                 30            |           0    |                          class: "universal" (0) 0x291b-0x291b.2 (0.2)
0x002910|                                 30            |           0    |                          form: "constructed" (1) 0x291b.2-0x291b.3 (0.1)
0x002910|                                 30            |           0    |                          tag: "sequence" (0x10) 0x291b.3-0x291c (0.5)
0x002910|                                    0f         |            .   |                          length: 15 0x291c-0x291d (1)
        |                                               |                |                          constructed[0:1]: 0x291d-0x292c (15)
        |                                               |                |                            [0]{}: object 0x291d-0x292c (15)
0x002910|                                       31      |             1  |                              class: "universal" (0) 0x291d-0x291d.2 (0.2)
0x002910|                                       31      |             1  |                              form: "constructed" (1) 0x291d.2-0x291d.3 (0.1)
0x002910|                                       31      |             1  |                              tag: "set" (0x11) 0x291d.3-0x291e (0.5)
0x002910|                                          0d   |              . |                              length: 13 0x291e-0x291f (1)
        |                                               |                |                              constructed[0:1]: 0x291f-0x292c (13)
        |                                               |                |                                [0]{}: object 0x291f-0x292c (13)
0x002910|                                             30|               0|                                  class: "universal" (0) 0x291f-0x291f.2 (0.2)
0x002910|                                             30|               0|                                  form: "constructed" (1) 0x291f.2-0x291f.3 (0.1)
0x002910|                                             30|               0|                                  tag: "sequence" (0x10) 0x291f.3-0x2920 (0.5)
0x002920|0b                                             |.               |                                  length: 11 0x2920-0x2921 (1)
        |                                               |                |                                  constructed[0:2]: 0x2921-0x292c (11)
        |                                               |                |                                    [0]{}: object 0x2921-0x2926 (5)
0x002920|   06                                          | .              |                                      class: "universal" (0) 0x2921-0x2921.2 (0.2)
0x002920|   06                                          | .              |                                      form: "primitive" (0) 0x2921.2-0x2921.3 (0.1)
0x002920|   06                                          | .              |                                      tag: "object_identifier" (0x6) 0x2921.3-0x2922 (0.5)
0x002920|      03                                       |  .             |                                      length: 3 0x2922-0x2923 (1)
        |                                               |                |                                      value[0:4]: 0x2923-0x2926 (3)
0x002920|         55                                    |   U            |                                        [0]: 2 oid 0x2923-0x2924 (1)
0x002920|         55                                    |   U            |                                        [1]: 5 oid 0x2923-0x2924 (1)
0x002920|            04                                 |    .           |                                        [2]: 4 oid 0x2924-0x2925 (1)
0x002920|               03                              |     .          |                                        [3]: 3 oid 0x2925-0x2926 (1)
        |                                               |                |                                    [1]{}: object 0x2926-0x292c (6)
0x002920|                  0c                           |      .         |                                      class: "universal" (0) 0x2926-0x2926.2 (0.2)
0x002920|                  0c                           |      .         |                                      form: "primitive" (0) 0x2926.2-0x2926.3 (0.1)
0x002920|                  0c                           |      .         |                                      tag: "utf8_string" (0xc) 0x2926.3-0x2927 (0.5)
0x002920|                     04                        |       .        |                                      length: 4 0x2927-0x2928 (1)
0x002920|                        54 65 73 74            |        Test    |                                      value: "Test" 0x2928-0x292c (4)
        |                                               |                |                        [1]{}: object 0x292c-0x293e (18)
0x002920|                                    02         |            .   |                          class: "universal" (0) 0x292c-0x292c.2 (0.2)
0x002920|                                    02         |            .   |                          form: "primitive" (0) 0x292c.2-0x292c.3 (0.1)
0x002920|                                    02         |            .   |                          tag: "integer" (0x2) 0x292c.3-0x292d (0.5)
0x002920|                                       10      |             .  |                          length: 16 0x292d-0x292e (1)
0x002920|                                          73 b1|              s.|                          value: 153784312372004154585016958156123251168 0x292e-0x293e (16)
0x002930|c7 fd dd 78 8c 88 93 20 a9 d1 7b 89 a1 e0      |...x... ..{...  |
        |                                               |                |                    [2]{}: object 0x293e-0x294d (15)
0x002930|                                          30   |              0 |                      class: "universal" (0) 0x293e-0x293e.2 (0.2)
0x002930|                                          30   |              0 |                      form: "constructed" (1) 0x293e.2-0x293e.3 (0.1)
0x002930|                                          30   |              0 |                      tag: "sequence" (0x10) 0x293e.3-0x293f (0.5)
0x002930|                                             0d|               .|                      length: 13 0x293f-0x2940 (1)
        |                                               |                |                      constructed[0:2]: 0x2940-0x294d (13)
        |                                               |                |                        [0]{}: object 0x2940-0x294b (11)
0x002940|06                                             |.               |                          class: "universal" (0) 0x2940-0x2940.2 (0.2)
0x002940|06                                             |.               |                          form: "primitive" (0) 0x2940.2-0x2940.3 (0.1)
0x002940|06                                             |.               |                          tag: "object_identifier" (0x6) 0x2940.3-0x2941 (0.5)
0x002940|   09                                          | .              |                          length: 9 0x2941-0x2942 (1)
        |                                               |                |                          value[0:9]: 0x2942-0x294b (9)
0x002940|      60                                       |  `             |                            [0]: 2 oid 0x2942-0x2943 (1)
0x002940|      60                                       |  `             |                            [1]: 16 oid 0x2942-0x2943 (1)
0x002940|         86 48                                 |   .H           |                            [2]: 840 oid 0x2943-0x2945 (2)
0x002940|               01                              |     .          |                            [3]: 1 oid 0x2945-0x2946 (1)
0x002940|                  65                           |      e         |                            [4]: 101 oid 0x2946-0x2947 (1)
0x002940|                     03                        |       .        |                            [5]: 3 oid 0x2947-0x2948 (1)
0x002940|                        04                     |        .       |                            [6]: 4 oid 0x2948-0x2949 (1)
0x002940|                           02                  |         .      |                            [7]: 2 oid 0x2949-0x294a (1)
0x002940|                              01               |          .     |                            [8]: 1 oid 0x294a-0x294b (1)
        |                                               |                |                        [1]{}: object 0x294b-0x294d (2)
0x002940|                                 05            |           .    |                          class: "universal" (0) 0x294b-0x294b.2 (0.2)
0x002940|                                 05            |           .    |                          form: "primitive" (0) 0x294b.2-0x294b.3 (0.1)
0x002940|                                 05            |           .    |                          tag: "null" (0x5) 0x294b.3-0x294c (0.5)
0x002940|                                    00         |            .   |                          length: "indefinite" (0) 0x294c-0x294d (1)
        |                                               |                |                          value: null
        |                                               |                |                    [3]{}: object 0x294d-0x2a47 (250)
0x002940|                                       a0      |             .  |                      class: "context" (2) 0x294d-0x294d.2 (0.2)
0x002940|                                       a0      |             .  |                      form: "constructed" (1) 0x294d.2-0x294d.3 (0.1)
0x002940|                                       a0      |             .  |                      tag: 0 0x294d.3-0x294e (0.5)
0x002940|                                          81 f7|              ..|                      length: 247 0x294e-0x2950 (2)
        |                                               |                |                      constructed[0:5]: 0x2950-0x2a47 (247)
        |                                               |                |                        [0]{}: object 0x2950-0x296a (26)
0x002950|30                                             |0               |                          class: "universal" (0) 0x2950-0x2950.2 (0.2)
0x002950|30                                             |0               |                          form: "constructed" (1) 0x2950.2-0x2950.3 (0.1)
0x002950|30                                             |0               |                          tag: "sequence" (0x10) 0x2950.3-0x2951 (0.5)
0x002950|   18                                          | .              |                          length: 24 0x2951-0x2952 (1)
        |                                               |                |                          constructed[0:2]: 0x2952-0x296a (24)
        |                                               |                |                            [0]{}: object 0x2952-0x295d (11)
0x002950|      06                                       |  .             |                              class: "universal" (0) 0x2952-0x2952.2 (0.2)
0x002950|      06                                       |  .             |                              form: "primitive" (0) 0x2952.2-0x2952.3 (0.1)
0x002950|      06                                       |  .             |                              tag: "object_identifier" (0x6) 0x2952.3-0x2953 (0.5)
0x002950|         09                                    |   .            |                              length: 9 0x2953-0x2954 (1)
        |                                               |                |                              value[0:7]: 0x2954-0x295d (9)
0x002950|            2a                                 |    *           |                                [0]: 1 oid 0x2954-0x2955 (1)
0x002950|            2a                                 |    *           |                                [1]: 2 oid 0x2954-0x2955 (1)
0x002950|               86 48                           |     .H         |                                [2]: 840 oid 0x2955-0x2957 (2)
0x002950|                     86 f7 0d                  |       ...      |                                [3]: 113549 oid 0x2957-0x295a (3)
0x002950|                              01               |          .     |                                [4]: 1 oid 0x295a-0x295b (1)
0x002950|                                 09            |           .    |                                [5]: 9 oid 0x295b-0x295c (1)
0x002950|                                    03         |            .   |                                [6]: 3 oid 0x295c-0x295d (1)
        |                                               |                |                            [1]{}: object 0x295d-0x296a (13)
0x002950|                                       31      |             1  |                              class: "universal" (0) 0x295d-0x295d.2 (0.2)
0x002950|                                       31      |             1  |                              form: "constructed" (1) 0x295d.2-0x295d.3 (0.1)
0x002950|                                       31      |             1  |                              tag: "set" (0x11) 0x295d.3-0x295e (0.5)
0x002950|                                          0b   |              . |                              length: 11 0x295e-0x295f (1)
        |                                               |                |                              constructed[0:1]: 0x295f-0x296a (11)
        |                                               |                |                                [0]{}: object 0x295f-0x296a (11)
0x002950|                                             06|               .|                                  class: "universal" (0) 0x295f-0x295f.2 (0.2)
0x002950|                                             06|               .|                                  form: "primitive" (0) 0x295f.2-0x295f.3 (0.1)
0x002950|                                             06|               .|                                  tag: "object_identifier" (0x6) 0x295f.3-0x2960 (0.5)
0x002960|09                                             |.               |                                  length: 9 0x2960-0x2961 (1)
        |                                               |                |                                  value[0:7]: 0x2961-0x296a (9)
0x002960|   2a                                          | *              |                                    [0]: 1 oid 0x2961-0x2962 (1)
0x002960|   2a                                          | *              |                                    [1]: 2 oid 0x2961-0x2962 (1)
0x002960|      86 48                                    |  .H            |                                    [2]: 840 oid 0x2962-0x2964 (2)
0x002960|            86 f7 0d                           |    ...         |                                    [3]: 113549 oid 0x2964-0x2967 (3)
0x002960|                     01                        |       .        |                                    [4]: 1 oid 0x2967-0x2968 (1)
0x002960|                        07                     |        .       |                                    [5]: 7 oid 0x2968-0x2969 (1)
0x002960|                           01                  |         .      |                                    [6]: 1 oid 0x2969-0x296a (1)
        |                                               |                |                        [1]{}: object 0x296a-0x2988 (30)
0x002960|                              30               |          0     |                          class: "universal" (0) 0x296a-0x296a.2 (0.2)
0x002960|                              30               |          0     |                          form: "constructed" (1) 0x296a.2-0x296a.3 (0.1)
0x002960|                              30               |          0     |                          tag: "sequence" (0x10) 0x296a.3-0x296b (0.5)
0x002960|                                 1c            |           .    |                          length: 28 0x296b-0x296c (1)
        |                                               |                |                          constructed[0:2]: 0x296c-0x2988 (28)
        |                                               |                |                            [0]{}: object 0x296c-0x2977 (11)
0x002960|                                    06         |            .   |                              class: "universal" (0) 0x296c-0x296c.2 (0.2)
0x002960|                                    06         |            .   |                              form: "primitive" (0) 0x296c.2-0x296c.3 (0.1)
0x002960|                                    06         |            .   |                              tag: "object_identifier" (0x6) 0x296c.3-0x296d (0.5)
0x002960|                                       09      |             .  |                              length: 9 0x296d-0x296e (1)
        |                                               |                |                              value[0:7]: 0x296e-0x2977 (9)
0x002960|                                          2a   |              * |                                [0]: 1 oid 0x296e-0x296f (1)
0x002960|                                          2a   |              * |                                [1]: 2 oid 0x296e-0x296f (1)
0x002960|                                             86|               .|                                [2]: 840 oid 0x296f-0x2971 (2)
0x002970|48                                             |H               |
0x002970|   86 f7 0d                                    | ...            |                                [3]: 113549 oid 0x2971-0x2974 (3)
0x002970|            01                                 |    .           |                                [4]: 1 oid 0x2974-0x2975 (1)
0x002970|               09                              |     .          |                                [5]: 9 oid 0x2975-0x2976 (1)
0x002970|                  05                           |      .         |                                [6]: 5 oid 0x2976-0x2977 (1)
        |                                               |                |                            [1]{}: object 0x2977-0x2988 (17)
0x002970|                     31                        |       1        |                              class: "universal" (0) 0x2977-0x2977.2 (0.2)
0x002970|                     31                        |       1        |                              form: "constructed" (1) 0x2977.2-0x2977.3 (0.1)
0x002970|                     31                        |       1        |                              tag: "set" (0x11) 0x2977.3-0x2978 (0.5)
0x002970|                        0f                     |        .       |                              length: 15 0x2978-0x2979 (1)
        |                                               |                |                              constructed[0:1]: 0x2979-0x2988 (15)
        |                                               |                |                                [0]{}: object 0x2979-0x2988 (15)
0x002970|                           17                  |         .      |                                  class: "universal" (0) 0x2979-0x2979.2 (0.2)
0x002970|                           17                  |         .      |                                  form: "primitive" (0) 0x2979.2-0x2979.3 (0.1)
0x002970|                           17                  |         .      |                                  tag: "utc_time" (0x17) 0x2979.3-0x297a (0.5)
0x002970|                              0d               |          .     |                                  length: 13 0x297a-0x297b (1)
0x002970|                                 31 38 30 37 31|           18071|                                  value: "180716151701Z" 0x297b-0x2988 (13)
0x002980|36 31 35 31 37 30 31 5a                        |6151701Z        |
        |                                               |                |                        [2]{}: object 0x2988-0x29b4 (44)
0x002980|                        30                     |        0       |                          class: "universal" (0) 0x2988-0x2988.2 (0.2)
0x002980|                        30                     |        0       |                          form: "constructed" (1) 0x2988.2-0x2988.3 (0.1)
0x002980|                        30                     |        0       |                          tag: "sequence" (0x10) 0x2988.3-0x2989 (0.5)
0x002980|                           2a                  |         *      |                          length: 42 0x2989-0x298a (1)
        |                                               |                |                          constructed[0:2]: 0x298a-0x29b4 (42)
        |                                               |                |                            [0]{}: object 0x298a-0x2995 (11)
0x002980|                              06               |          .     |                              class: "universal" (0) 0x298a-0x298a.2 (0.2)
0x002980|                              06               |          .     |                              form: "primitive" (0) 0x298a.2-0x298a.3 (0.1)
0x002980|                              06               |          .     |                              tag: "object_identifier" (0x6) 0x298a.3-0x298b (0.5)
0x002980|                                 09            |           .    |                              length: 9 0x298b-0x298c (1)
        |                                               |                |                              value[0:7]: 0x298c-0x2995 (9)
0x002980|                                    2a         |            *   |                                [0]: 1 oid 0x298c-0x298d (1)
0x002980|                                    2a         |            *   |                                [1]: 2 oid 0x298c-0x298d (1)
0x002980|                                       86 48   |             .H |                                [2]: 840 oid 0x298d-0x298f (2)
0x002980|                                             86|               .|                                [3]: 113549 oid 0x298f-0x2992 (3)
0x002990|f7 0d                                          |..              |
0x002990|      01                                       |  .             |                                [4]: 1 oid 0x2992-0x2993 (1)
0x002990|         09                                    |   .            |                                [5]: 9 oid 0x2993-0x2994 (1)
0x002990|            34                                 |    4           |                                [6]: 52 oid 0x2994-0x2995 (1)
        |                                               |                |                            [1]{}: object 0x2995-0x29b4 (31)
0x002990|               31                              |     1          |                              class: "universal" (0) 0x2995-0x2995.2 (0.2)
0x002990|               31                              |     1          |                              form: "constructed" (1) 0x2995.2-0x2995.3 (0.1)
0x002990|               31                              |     1          |                              tag: "set" (0x11) 0x2995.3-0x2996 (0.5)
0x002990|                  1d                           |      .         |                              length: 29 0x2996-0x2997 (1)
        |                                               |                |                              constructed[0:1]: 0x2997-0x29b4 (29)
        |                                               |                |                                [0]{}: object 0x2997-0x29b4 (29)
0x002990|                     30                        |       0        |                                  class: "universal" (0) 0x2997-0x2997.2 (0.2)
0x002990|                     30                        |       0        |                                  form: "constructed" (1) 0x2997.2-0x2997.3 (0.1)
0x002990|                     30                        |       0        |                                  tag: "sequence" (0x10) 0x2997.3-0x2998 (0.5)
0x002990|                        1b                     |        .       |                                  length: 27 0x2998-0x2999 (1)
        |                                               |                |                                  constructed[0:2]: 0x2999-0x29b4 (27)
        |                                               |                |                                    [0]{}: object 0x2999-0x29a8 (15)
0x002990|                           30                  |         0      |                                      class: "universal" (0) 0x2999-0x2999.2 (0.2)
0x002990|                           30                  |         0      |                                      form: "constructed" (1) 0x2999.2-0x2999.3 (0.1)
0x002990|                           30                  |         0      |                                      tag: "sequence" (0x10) 0x2999.3-0x299a (0.5)
0x002990|                              0d               |          .     |                                      length: 13 0x299a-0x299b (1)
        |                                               |                |                                      constructed[0:2]: 0x299b-0x29a8 (13)
        |                                               |                |                                        [0]{}: object 0x299b-0x29a6 (11)
0x002990|                                 06            |           .    |                                          class: "universal" (0) 0x299b-0x299b.2 (0.2)
0x002990|                                 06            |           .    |                                          form: "primitive" (0) 0x299b.2-0x299b.3 (0.1)
0x002990|                                 06            |           .    |                                          tag: "object_identifier" (0x6) 0x299b.3-0x299c (0.5)
0x002990|                                    09         |            .   |                                          length: 9 0x299c-0x299d (1)
        |                                               |                |                                          value[0:9]: 0x299d-0x29a6 (9)
0x002990|                                       60      |             `  |                                            [0]: 2 oid 0x299d-0x299e (1)
0x002990|                                       60      |             `  |                                            [1]: 16 oid 0x299d-0x299e (1)
0x002990|                                          86 48|              .H|                                            [2]: 840 oid 0x299e-0x29a0 (2)
0x0029a0|01                                             |.               |                                            [3]: 1 oid 0x29a0-0x29a1 (1)
0x0029a0|   65                                          | e              |                                            [4]: 101 oid 0x29a1-0x29a2 (1)
0x0029a0|      03                                       |  .             |                                            [5]: 3 oid 0x29a2-0x29a3 (1)
0x0029a0|         04                                    |   .            |                                            [6]: 4 oid 0x29a3-0x29a4 (1)
0x0029a0|            02                                 |    .           |                                            [7]: 2 oid 0x29a4-0x29a5 (1)
0x0029a0|               01                              |     .          |                                            [8]: 1 oid 0x29a5-0x29a6 (1)
        |                                               |                |                                        [1]{}: object 0x29a6-0x29a8 (2)
0x0029a0|                  05                           |      .         |                                          class: "universal" (0) 0x29a6-0x29a6.2 (0.2)
0x0029a0|                  05                           |      .         |                                          form: "primitive" (0) 0x29a6.2-0x29a6.3 (0.1)
0x0029a0|                  05                           |      .         |                                          tag: "null" (0x5) 0x29a6.3-0x29a7 (0.5)
0x0029a0|                     00                        |       .        |                                          length: "indefinite" (0) 0x29a7-0x29a8 (1)
        |                                               |                |                                          value: null
        |                                               |                |                                    [1]{}: object 0x29a8-0x29b4 (12)
0x0029a0|                        a1                     |        .       |                                      class: "context" (2) 0x29a8-0x29a8.2 (0.2)
0x0029a0|                        a1                     |        .       |                                      form: "constructed" (1) 0x29a8.2-0x29a8.3 (0.1)
0x0029a0|                        a1                     |        .       |                                      tag: 1 0x29a8.3-0x29a9 (0.5)
0x0029a0|                           0a                  |         .      |                                      length: 10 0x29a9-0x29aa (1)
        |                                               |                |                                      constructed[0:1]: 0x29aa-0x29b4 (10)
        |                                               |                |                                        [0]{}: object 0x29aa-0x29b4 (10)
0x0029a0|                              06               |          .     |                                          class: "universal" (0) 0x29aa-0x29aa.2 (0.2)
0x0029a0|                              06               |          .     |                                          form: "primitive" (0) 0x29aa.2-0x29aa.3 (0.1)
0x0029a0|                              06               |          .     |                                          tag: "object_identifier" (0x6) 0x29aa.3-0x29ab (0.5)
0x0029a0|                                 08            |           .    |                                          length: 8 0x29ab-0x29ac (1)
        |                                               |                |                                          value[0:7]: 0x29ac-0x29b4 (8)
0x0029a0|                                    2a         |            *   |                                            [0]: 1 oid 0x29ac-0x29ad (1)
0x0029a0|                                    2a         |            *   |                                            [1]: 2 oid 0x29ac-0x29ad (1)
0x0029a0|                                       86 48   |             .H |                                            [2]: 840 oid 0x29ad-0x29af (2)
0x0029a0|                                             ce|               .|                                            [3]: 10045 oid 0x29af-0x29b1 (2)
0x0029b0|3d                                             |=               |
0x0029b0|   04                                          | .              |                                            [4]: 4 oid 0x29b1-0x29b2 (1)
0x0029b0|      03                                       |  .             |                                            [5]: 3 oid 0x29b2-0x29b3 (1)
0x0029b0|         02                                    |   .            |                                            [6]: 2 oid 0x29b3-0x29b4 (1)
        |                                               |                |                        [3]{}: object 0x29b4-0x29e5 (49)
0x0029b0|            30                                 |    0           |                          class: "universal" (0) 0x29b4-0x29b4.2 (0.2)
0x0029b0|            30                                 |    0           |                          form: "constructed" (1) 0x29b4.2-0x29b4.3 (0.1)
0x0029b0|            30                                 |    0           |                          tag: "sequence" (0x10) 0x29b4.3-0x29b5 (0.5)
0x0029b0|               2f                              |     /          |                          length: 47 0x29b5-0x29b6 (1)
        |                                               |                |                          constructed[0:2]: 0x29b6-0x29e5 (47)
        |                                               |                |                            [0]{}: object 0x29b6-0x29c1 (11)
0x0029b0|                  06                           |      .         |                              class: "universal" (0) 0x29b6-0x29b6.2 (0.2)
0x0029b0|                  06                           |      .         |                              form: "primitive" (0) 0x29b6.2-0x29b6.3 (0.1)
0x0029b0|                  06                           |      .         |                              tag: "object_identifier" (0x6) 0x29b6.3-0x29b7 (0.5)
0x0029b0|                     09                        |       .        |                              length: 9 0x29b7-0x29b8 (1)
        |                                               |                |                              value[0:7]: 0x29b8-0x29c1 (9)
0x0029b0|                        2a                     |        *       |                                [0]: 1 oid 0x29b8-0x29b9 (1)
0x0029b0|                        2a                     |        *       |                                [1]: 2 oid 0x29b8-0x29b9 (1)
0x0029b0|                           86 48               |         .H     |                                [2]: 840 oid 0x29b9-0x29bb (2)
0x0029b0|                                 86 f7 0d      |           ...  |                                [3]: 113549 oid 0x29bb-0x29be (3)
0x0029b0|                                          01   |              . |                                [4]: 1 oid 0x29be-0x29bf (1)
0x0029b0|                                             09|               .|                                [5]: 9 oid 0x29bf-0x29c0 (1)
0x0029c0|04                                             |.               |                                [6]: 4 oid 0x29c0-0x29c1 (1)
        |                                               |                |                            [1]{}: object 0x29c1-0x29e5 (36)
0x0029c0|   31                                          | 1              |                              class: "universal" (0) 0x29c1-0x29c1.2 (0.2)
0x0029c0|   31                                          | 1              |                              form: "constructed" (1) 0x29c1.2-0x29c1.3 (0.1)
0x0029c0|   31                                          | 1              |                              tag: "set" (0x11) 0x29c1.3-0x29c2 (0.5)
0x0029c0|      22                                       |  "             |                              length: 34 0x29c2-0x29c3 (1)
        |                                               |                |                              constructed[0:1]: 0x29c3-0x29e5 (34)
        |                                               |                |                                [0]{}: object 0x29c3-0x29e5 (34)
0x0029c0|         04                                    |   .            |                                  class: "universal" (0) 0x29c3-0x29c3.2 (0.2)
0x0029c0|         04                                    |   .            |                                  form: "primitive" (0) 0x29c3.2-0x29c3.3 (0.1)
0x0029c0|         04                                    |   .            |                                  tag: "octet_string" (0x4) 0x29c3.3-0x29c4 (0.5)
0x0029c0|            20                                 |                |                                  length: 32 0x29c4-0x29c5 (1)
0x0029c0|               72 4c 51 bb e7 6d a0 5a fb 20 cb|     rLQ..m.Z. .|                                  value: raw bits 0x29c5-0x29e5 (32)
0x0029d0|e8 eb 03 7c da e1 af d7 13 12 5d 2d c1 3d 55 2d|...|......]-.=U-|
0x0029e0|a9 f4 42 d2 4d                                 |..B.M           |
        |                                               |                |                        [4]{}: object 0x29e5-0x2a47 (98)
0x0029e0|               30                              |     0          |                          class: "universal" (0) 0x29e5-0x29e5.2 (0.2)
0x0029e0|               30                              |     0          |                          form: "constructed" (1) 0x29e5.2-0x29e5.3 (0.1)
0x0029e0|               30                              |     0          |                          tag: "sequence" (0x10) 0x29e5.3-0x29e6 (0.5)
0x0029e0|                  60                           |      `         |                          length: 96 0x29e6-0x29e7 (1)
        |                                               |                |                          constructed[0:2]: 0x29e7-0x2a47 (96)
        |                                               |                |                            [0]{}: object 0x29e7-0x29f4 (13)
0x0029e0|                     06                        |       .        |                              class: "universal" (0) 0x29e7-0x29e7.2 (0.2)
0x0029e0|                     06                        |       .        |                              form: "primitive" (0) 0x29e7.2-0x29e7.3 (0.1)
0x0029e0|                     06                        |       .        |                              tag: "object_identifier" (0x6) 0x29e7.3-0x29e8 (0.5)
0x0029e0|                        0b                     |        .       |                              length: 11 0x29e8-0x29e9 (1)
        |                                               |                |                              value[0:9]: 0x29e9-0x29f4 (11)
0x0029e0|                           2a                  |         *      |                                [0]: 1 oid 0x29e9-0x29ea (1)
0x0029e0|                           2a                  |         *      |                                [1]: 2 oid 0x29e9-0x29ea (1)
0x0029e0|                              86 48            |          .H    |                                [2]: 840 oid 0x29ea-0x29ec (2)
0x0029e0|                                    86 f7 0d   |            ... |                                [3]: 113549 oid 0x29ec-0x29ef (3)
0x0029e0|                                             01|               .|                                [4]: 1 oid 0x29ef-0x29f0 (1)
0x0029f0|09                                             |.               |                                [5]: 9 oid 0x29f0-0x29f1 (1)
0x0029f0|   10                                          | .              |                                [6]: 16 oid 0x29f1-0x29f2 (1)
0x0029f0|      02                                       |  .             |                                [7]: 2 oid 0x29f2-0x29f3 (1)
0x0029f0|         2f                                    |   /            |                                [8]: 47 oid 0x29f3-0x29f4 (1)
        |                                               |                |                            [1]{}: object 0x29f4-0x2a47 (83)
0x0029f0|            31                                 |    1           |                              class: "universal" (0) 0x29f4-0x29f4.2 (0.2)
0x0029f0|            31                                 |    1           |                              form: "constructed" (1) 0x29f4.2-0x29f4.3 (0.1)
0x0029f0|            31                                 |    1           |                              tag: "set" (0x11) 0x29f4.3-0x29f5 (0.5)
0x0029f0|               51                              |     Q          |                              length: 81 0x29f5-0x29f6 (1)
        |                                               |                |                              constructed[0:1]: 0x29f6-0x2a47 (81)
        |                                               |                |                                [0]{}: object 0x29f6-0x2a47 (81)
0x0029f0|                  30                           |      0         |                                  class: "universal" (0) 0x29f6-0x29f6.2 (0.2)
0x0029f0|                  30                           |      0         |                                  form: "constructed" (1) 0x29f6.2-0x29f6.3 (0.1)
0x0029f0|                  30                           |      0         |                                  tag: "sequence" (0x10) 0x29f6.3-0x29f7 (0.5)
0x0029f0|                     4f                        |       O        |                                  length: 79 0x29f7-0x29f8 (1)
        |                                               |                |                                  constructed[0:1]: 0x29f8-0x2a47 (79)
        |                                               |                |                                    [0]{}: object 0x29f8-0x2a47 (79)
0x0029f0|                        30                     |        0       |                                      class: "universal" (0) 0x29f8-0x29f8.2 (0.2)
0x0029f0|                        30                     |        0       |                                      form: "constructed" (1) 0x29f8.2-0x29f8.3 (0.1)
0x0029f0|                        30                     |        0       |                                      tag: "sequence" (0x10) 0x29f8.3-0x29f9 (0.5)
0x0029f0|                           4d                  |         M      |                                      length: 77 0x29f9-0x29fa (1)
        |                                               |                |                                      constructed[0:1]: 0x29fa-0x2a47 (77)
        |                                               |                |                                        [0]{}: object 0x29fa-0x2a47 (77)
0x0029f0|                              30               |          0     |                                          class: "universal" (0) 0x29fa-0x29fa.2 (0.2)
0x0029f0|                              30               |          0     |                                          form: "constructed" (1) 0x29fa.2-0x29fa.3 (0.1)
0x0029f0|                              30               |          0     |                                          tag: "sequence" (0x10) 0x29fa.3-0x29fb (0.5)
0x0029f0|                                 4b            |           K    |                                          length: 75 0x29fb-0x29fc (1)
        |                                               |                |                                          constructed[0:2]: 0x29fc-0x2a47 (75)
        |                                               |                |                                            [0]{}: object 0x29fc-0x2a1e (34)
0x0029f0|                                    04         |            .   |                                              class: "universal" (0) 0x29fc-0x29fc.2 (0.2)
0x0029f0|                                    04         |            .   |                                              form: "primitive" (0) 0x29fc.2-0x29fc.3 (0.1)
0x0029f0|                                    04         |            .   |                                              tag: "octet_string" (0x4) 0x29fc.3-0x29fd (0.5)
0x0029f0|                                       20      |                |                                              length: 32 0x29fd-0x29fe (1)
0x0029f0|                                          5e 40|              ^@|                                              value: raw bits 0x29fe-0x2a1e (32)
0x002a00|2d 81 16 d0 a5 ad 8c 3e bc 6b ed 79 2b 3a d4 e1|-......>.k.y+:..|
0x002a10|f2 ff 3c 0b f4 14 34 33 85 f9 cb cb bc b3      |..<...43......  |
        |                                               |                |                                            [1]{}: object 0x2a1e-0x2a47 (41)
0x002a10|                                          30   |              0 |                                              class: "universal" (0) 0x2a1e-0x2a1e.2 (0.2)
0x002a10|                                          30   |              0 |                                              form: "constructed" (1) 0x2a1e.2-0x2a1e.3 (0.1)
0x002a10|                                          30   |              0 |                                              tag: "sequence" (0x10) 0x2a1e.3-0x2a1f (0.5)
0x002a10|                                             27|               '|                                              length: 39 0x2a1f-0x2a20 (1)
        |                                               |                |                                              constructed[0:2]: 0x2a20-0x2a47 (39)
        |                                               |                |                                                [0]{}: object 0x2a20-0x2a35 (21)
0x002a20|30                                             |0               |                                                  class: "universal" (0) 0x2a20-0x2a20.2 (0.2)
0x002a20|30                                             |0               |                                                  form: "constructed" (1) 0x2a20.2-0x2a20.3 (0.1)
0x002a20|30                                             |0               |                                                  tag: "sequence" (0x10) 0x2a20.3-0x2a21 (0.5)
0x002a20|   13                                          | .              |                                                  length: 19 0x2a21-0x2a22 (1)
        |                                               |                |                                                  constructed[0:1]: 0x2a22-0x2a35 (19)
        |                                               |                |                                                    [0]{}: object 0x2a22-0x2a35 (19)
0x002a20|      a4                                       |  .             |                                                      class: "context" (2) 0x2a22-0x2a22.2 (0.2)
0x002a20|      a4                                       |  .             |                                                      form: "constructed" (1) 0x2a22.2-0x2a22.3 (0.1)
0x002a20|      a4                                       |  .             |                                                      tag: 4 0x2a22.3-0x2a23 (0.5)
0x002a20|         11                                    |   .            |                                                      length: 17 0x2a23-0x2a24 (1)
        |                                               |                |                                                      constructed[0:1]: 0x2a24-0x2a35 (17)
        |                                               |                |                                                        [0]{}: object 0x2a24-0x2a35 (17)
0x002a20|            30                                 |    0           |                                                          class: "universal" (0) 0x2a24-0x2a24.2 (0.2)
0x002a20|            30                                 |    0           |                                                          form: "constructed" (1) 0x2a24.2-0x2a24.3 (0.1)
0x002a20|            30                                 |    0           |                                                          tag: "sequence" (0x10) 0x2a24.3-0x2a25 (0.5)
0x002a20|               0f                              |     .          |                                                          length: 15 0x2a25-0x2a26 (1)
        |                                               |                |                                                          constructed[0:1]: 0x2a26-0x2a35 (15)
        |                                               |                |                                                            [0]{}: object 0x2a26-0x2a35 (15)
0x002a20|                  31                           |      1         |                                                              class: "universal" (0) 0x2a26-0x2a26.2 (0.2)
0x002a20|                  31                           |      1         |                                                              form: "constructed" (1) 0x2a26.2-0x2a26.3 (0.1)
0x002a20|                  31                           |      1         |                                                              tag: "set" (0x11) 0x2a26.3-0x2a27 (0.5)
0x002a20|                     0d                        |       .        |                                                              length: 13 0x2a27-0x2a28 (1)
        |                                               |                |                                                              constructed[0:1]: 0x2a28-0x2a35 (13)
        |                                               |                |                                                                [0]{}: object 0x2a28-0x2a35 (13)
0x002a20|                        30                     |        0       |                                                                  class: "universal" (0) 0x2a28-0x2a28.2 (0.2)
0x002a20|                        30                     |        0       |                                                                  form: "constructed" (1) 0x2a28.2-0x2a28.3 (0.1)
0x002a20|                        30                     |        0       |                                                                  tag: "sequence" (0x10) 0x2a28.3-0x2a29 (0.5)
0x002a20|                           0b                  |         .      |                                                                  length: 11 0x2a29-0x2a2a (1)
        |                                               |                |                                                                  constructed[0:2]: 0x2a2a-0x2a35 (11)
        |                                               |                |                                                                    [0]{}: object 0x2a2a-0x2a2f (5)
0x002a20|                              06               |          .     |                                                                      class: "universal" (0) 0x2a2a-0x2a2a.2 (0.2)
0x002a20|                              06               |          .     |                                                                      form: "primitive" (0) 0x2a2a.2-0x2a2a.3 (0.1)
0x002a20|                              06               |          .     |                                                                      tag: "object_identifier" (0x6) 0x2a2a.3-0x2a2b (0.5)
0x002a20|                                 03            |           .    |                                                                      length: 3 0x2a2b-0x2a2c (1)
        |                                               |                |                                                                      value[0:4]: 0x2a2c-0x2a2f (3)
0x002a20|                                    55         |            U   |                                                                        [0]: 2 oid 0x2a2c-0x2a2d (1)
0x002a20|                                    55         |            U   |                                                                        [1]: 5 oid 0x2a2c-0x2a2d (1)
0x002a20|                                       04      |             .  |                                                                        [2]: 4 oid 0x2a2d-0x2a2e (1)
0x002a20|                                          03   |              . |                                                                        [3]: 3 oid 0x2a2e-0x2a2f (1)
        |                                               |                |                                                                    [1]{}: object 0x2a2f-0x2a35 (6)
0x002a20|                                             0c|               .|                                                                      class: "universal" (0) 0x2a2f-0x2a2f.2 (0.2)
0x002a20|                                             0c|               .|                                                                      form: "primitive" (0) 0x2a2f.2-0x2a2f.3 (0.1)
0x002a20|                                             0c|               .|                                                                      tag: "utf8_string" (0xc) 0x2a2f.3-0x2a30 (0.5)
0x002a30|04                                             |.               |                                                                      length: 4 0x2a30-0x2a31 (1)
0x002a30|   54 65 73 74                                 | Test           |                                                                      value: "Test" 0x2a31-0x2a35 (4)
        |00 01 02 03 04 05 06 07 08 09 0a 0b 0c 0d 0e 0f|0123456789abcdef|                                                      value: raw bits 0x0-0x0 (0)
        |                                               |                |                                                [1]{}: object 0x2a35-0x2a47 (18)
0x002a30|               02                              |     .          |                                                  class: "universal" (0) 0x2a35-0x2a35.2 (0.2)
0x002a30|               02                              |     .          |                                                  form: "primitive" (0) 0x2a35.2-0x2a35.3 (0.1)
0x002a30|               02                              |     .          |                                                  tag: "integer" (0x2) 0x2a35.3-0x2a36 (0.5)
0x002a30|                  10                           |      .         |                                                  length: 16 0x2a36-0x2a37 (1)
0x002a30|                     73 b1 c7 fd dd 78 8c 88 93|       s....x...|                                                  value: 153784312372004154585016958156123251168 0x2a37-0x2a47 (16)
0x002a40|20 a9 d1 7b 89 a1 e0                           | ..{...         |
        |                                               |                |                    [4]{}: object 0x2a47-0x2a53 (12)
0x002a40|                     30                        |       0        |                      class: "universal" (0) 0x2a47-0x2a47.2 (0.2)
0x002a40|                     30                        |       0        |                      form: "constructed" (1) 0x2a47.2-0x2a47.3 (0.1)
0x002a40|                     30                        |       0        |                      tag: "sequence" (0x10) 0x2a47.3-0x2a48 (0.5)
0x002a40|                        0a                     |        .       |                      length: 10 0x2a48-0x2a49 (1)
        |                                               |                |                      constructed[0:1]: 0x2a49-0x2a53 (10)
        |                                               |                |                        [0]{}: object 0x2a49-0x2a53 (10)
0x002a40|                           06                  |         .      |                          class: "universal" (0) 0x2a49-0x2a49.2 (0.2)
0x002a40|                           06                  |         .      |                          form: "primitive" (0) 0x2a49.2-0x2a49.3 (0.1)
0x002a40|                           06                  |         .      |                          tag: "object_identifier" (0x6) 0x2a49.3-0x2a4a (0.5)
0x002a40|                              08               |          .     |                          length: 8 0x2a4a-0x2a4b (1)
        |                                               |                |                          value[0:7]: 0x2a4b-0x2a53 (8)
0x002a40|                                 2a            |           *    |                            [0]: 1 oid 0x2a4b-0x2a4c (1)
0x002a40|                                 2a            |           *    |                            [1]: 2 oid 0x2a4b-0x2a4c (1)
0x002a40|                                    86 48      |            .H  |                            [2]: 840 oid 0x2a4c-0x2a4e (2)
0x002a40|                                          ce 3d|              .=|                            [3]: 10045 oid 0x2a4e-0x2a50 (2)
0x002a50|04                                             |.               |                            [4]: 4 oid 0x2a50-0x2a51 (1)
0x002a50|   03                                          | .              |                            [5]: 3 oid 0x2a51-0x2a52 (1)
0x002a50|      02                                       |  .             |                            [6]: 2 oid 0x2a52-0x2a53 (1)
        |                                               |                |                    [5]{}: object 0x2a53-0x2a9c (73)
0x002a50|         04                                    |   .            |                      class: "universal" (0) 0x2a53-0x2a53.2 (0.2)
0x002a50|         04                                    |   .            |                      form: "primitive" (0) 0x2a53.2-0x2a53.3 (0.1)
0x002a50|         04                                    |   .            |                      tag: "octet_string" (0x4) 0x2a53.3-0x2a54 (0.5)
0x002a50|            47                                 |    G           |                      length: 71 0x2a54-0x2a55 (1)
0x002a50|               30 45 02 20 54 fa 2b 4c fb 53 d9|     0E. T.+L.S.|                      value: raw bits 0x2a55-0x2a9c (71)
0x002a60|ef b9 b9 1b ca 42 ab 84 7b cd 02 9e ec e2 bf d6|.....B..{.......|
*       |until 0x2a9b.7 (71)                            |                |
0x002a90|                                    00 00      |            ..  |          end_marker: 0 0x2a9c-0x2a9e (2)
0x002a90|                                          00 00|              ..|      end_marker: 0 0x2a9e-0x2aa0 (2)
0x002aa0|00 00|                                         |..|             |  end_marker: 0 0x2aa0-0x2aa2 (2)
