$ fq -d bytes 'from_pem | asn1_ber | dv' sig-rsa1024-sha1.p7s
      |00 01 02 03 04 05 06 07 08 09 0a 0b 0c 0d 0e 0f|0123456789abcdef|.{}: (asn1_ber) 0x0-0x354 (852)
0x0000|30                                             |0               |  class: "universal" (0) 0x0-0x0.2 (0.2)
0x0000|30                                             |0               |  form: "constructed" (1) 0x0.2-0x0.3 (0.1)
0x0000|30                                             |0               |  tag: "sequence" (0x10) 0x0.3-0x1 (0.5)
0x0000|   82 03 50                                    | ..P            |  length: 848 0x1-0x4 (3)
      |                                               |                |  constructed[0:2]: 0x4-0x354 (848)
      |                                               |                |    [0]{}: object 0x4-0xf (11)
0x0000|            06                                 |    .           |      class: "universal" (0) 0x4-0x4.2 (0.2)
0x0000|            06                                 |    .           |      form: "primitive" (0) 0x4.2-0x4.3 (0.1)
0x0000|            06                                 |    .           |      tag: "object_identifier" (0x6) 0x4.3-0x5 (0.5)
0x0000|               09                              |     .          |      length: 9 0x5-0x6 (1)
      |                                               |                |      value[0:7]: 0x6-0xf (9)
0x0000|                  2a                           |      *         |        [0]: 1 oid 0x6-0x7 (1)
0x0000|                  2a                           |      *         |        [1]: 2 oid 0x6-0x7 (1)
0x0000|                     86 48                     |       .H       |        [2]: 840 oid 0x7-0x9 (2)
0x0000|                           86 f7 0d            |         ...    |        [3]: 113549 oid 0x9-0xc (3)
0x0000|                                    01         |            .   |        [4]: 1 oid 0xc-0xd (1)
0x0000|                                       07      |             .  |        [5]: 7 oid 0xd-0xe (1)
0x0000|                                          02   |              . |        [6]: 2 oid 0xe-0xf (1)
      |                                               |                |    [1]{}: object 0xf-0x354 (837)
0x0000|                                             a0|               .|      class: "context" (2) 0xf-0xf.2 (0.2)
0x0000|                                             a0|               .|      form: "constructed" (1) 0xf.2-0xf.3 (0.1)
0x0000|                                             a0|               .|      tag: 0 0xf.3-0x10 (0.5)
0x0010|82 03 41                                       |..A             |      length: 833 0x10-0x13 (3)
      |                                               |                |      constructed[0:1]: 0x13-0x354 (833)
      |                                               |                |        [0]{}: object 0x13-0x354 (833)
0x0010|         30                                    |   0            |          class: "universal" (0) 0x13-0x13.2 (0.2)
0x0010|         30                                    |   0            |          form: "constructed" (1) 0x13.2-0x13.3 (0.1)
0x0010|         30                                    |   0            |          tag: "sequence" (0x10) 0x13.3-0x14 (0.5)
0x0010|            82 03 3d                           |    ..=         |          length: 829 0x14-0x17 (3)
      |                                               |                |          constructed[0:5]: 0x17-0x354 (829)
      |                                               |                |            [0]{}: object 0x17-0x1a (3)
0x0010|                     02                        |       .        |              class: "universal" (0) 0x17-0x17.2 (0.2)
0x0010|                     02                        |       .        |              form: "primitive" (0) 0x17.2-0x17.3 (0.1)
0x0010|                     02                        |       .        |              tag: "integer" (0x2) 0x17.3-0x18 (0.5)
0x0010|                        01                     |        .       |              length: 1 0x18-0x19 (1)
0x0010|                           01                  |         .      |              value: 1 0x19-0x1a (1)
      |                                               |                |            [1]{}: object 0x1a-0x27 (13)
0x0010|                              31               |          1     |              class: "universal" (0) 0x1a-0x1a.2 (0.2)
0x0010|                              31               |          1     |              form: "constructed" (1) 0x1a.2-0x1a.3 (0.1)
0x0010|                              31               |          1     |              tag: "set" (0x11) 0x1a.3-0x1b (0.5)
0x0010|                                 0b            |           .    |              length: 11 0x1b-0x1c (1)
      |                                               |                |              constructed[0:1]: 0x1c-0x27 (11)
      |                                               |                |                [0]{}: object 0x1c-0x27 (11)
0x0010|                                    30         |            0   |                  class: "universal" (0) 0x1c-0x1c.2 (0.2)
0x0010|                                    30         |            0   |                  form: "constructed" (1) 0x1c.2-0x1c.3 (0.1)
0x0010|                                    30         |            0   |                  tag: "sequence" (0x10) 0x1c.3-0x1d (0.5)
0x0010|                                       09      |             .  |                  length: 9 0x1d-0x1e (1)
      |                                               |                |                  constructed[0:2]: 0x1e-0x27 (9)
      |                                               |                |                    [0]{}: object 0x1e-0x25 (7)
0x0010|                                          06   |              . |                      class: "universal" (0) 0x1e-0x1e.2 (0.2)
0x0010|                                          06   |              . |                      form: "primitive" (0) 0x1e.2-0x1e.3 (0.1)
0x0010|                                          06   |              . |                      tag: "object_identifier" (0x6) 0x1e.3-0x1f (0.5)
0x0010|                                             05|               .|                      length: 5 0x1f-0x20 (1)
      |                                               |                |                      value[0:6]: 0x20-0x25 (5)
0x0020|2b                                             |+               |                        [0]: 1 oid 0x20-0x21 (1)
0x0020|2b                                             |+               |                        [1]: 3 oid 0x20-0x21 (1)
0x0020|   0e                                          | .              |                        [2]: 14 oid 0x21-0x22 (1)
0x0020|      03                                       |  .             |                        [3]: 3 oid 0x22-0x23 (1)
0x0020|         02                                    |   .            |                        [4]: 2 oid 0x23-0x24 (1)
0x0020|            1a                                 |    .           |                        [5]: 26 oid 0x24-0x25 (1)
      |                                               |                |                    [1]{}: object 0x25-0x27 (2)
0x0020|               05                              |     .          |                      class: "universal" (0) 0x25-0x25.2 (0.2)
0x0020|               05                              |     .          |                      form: "primitive" (0) 0x25.2-0x25.3 (0.1)
0x0020|               05                              |     .          |                      tag: "null" (0x5) 0x25.3-0x26 (0.5)
0x0020|                  00                           |      .         |                      length: "indefinite" (0) 0x26-0x27 (1)
      |                                               |                |                      value: null
      |                                               |                |            [2]{}: object 0x27-0x34 (13)
0x0020|                     30                        |       0        |              class: "universal" (0) 0x27-0x27.2 (0.2)
0x0020|                     30                        |       0        |              form: "constructed" (1) 0x27.2-0x27.3 (0.1)
0x0020|                     30                        |       0        |              tag: "sequence" (0x10) 0x27.3-0x28 (0.5)
0x0020|                        0b                     |        .       |              length: 11 0x28-0x29 (1)
      |                                               |                |              constructed[0:1]: 0x29-0x34 (11)
      |                                               |                |                [0]{}: object 0x29-0x34 (11)
0x0020|                           06                  |         .      |                  class: "universal" (0) 0x29-0x29.2 (0.2)
0x0020|                           06                  |         .      |                  form: "primitive" (0) 0x29.2-0x29.3 (0.1)
0x0020|                           06                  |         .      |                  tag: "object_identifier" (0x6) 0x29.3-0x2a (0.5)
0x0020|                              09               |          .     |                  length: 9 0x2a-0x2b (1)
      |                                               |                |                  value[0:7]: 0x2b-0x34 (9)
0x0020|                                 2a            |           *    |                    [0]: 1 oid 0x2b-0x2c (1)
0x0020|                                 2a            |           *    |                    [1]: 2 oid 0x2b-0x2c (1)
0x0020|                                    86 48      |            .H  |                    [2]: 840 oid 0x2c-0x2e (2)
0x0020|                                          86 f7|              ..|                    [3]: 113549 oid 0x2e-0x31 (3)
0x0030|0d                                             |.               |
0x0030|   01                                          | .              |                    [4]: 1 oid 0x31-0x32 (1)
0x0030|      07                                       |  .             |                    [5]: 7 oid 0x32-0x33 (1)
0x0030|         01                                    |   .            |                    [6]: 1 oid 0x33-0x34 (1)
      |                                               |                |            [3]{}: object 0x34-0x22b (503)
0x0030|            a0                                 |    .           |              class: "context" (2) 0x34-0x34.2 (0.2)
0x0030|            a0                                 |    .           |              form: "constructed" (1) 0x34.2-0x34.3 (0.1)
0x0030|            a0                                 |    .           |              tag: 0 0x34.3-0x35 (0.5)
0x0030|               82 01 f3                        |     ...        |              length: 499 0x35-0x38 (3)
      |                                               |                |              constructed[0:1]: 0x38-0x22b (499)
      |                                               |                |                [0]{}: object 0x38-0x22b (499)
0x0030|                        30                     |        0       |                  class: "universal" (0) 0x38-0x38.2 (0.2)
0x0030|                        30                     |        0       |                  form: "constructed" (1) 0x38.2-0x38.3 (0.1)
0x0030|                        30                     |        0       |                  tag: "sequence" (0x10) 0x38.3-0x39 (0.5)
0x0030|                           82 01 ef            |         ...    |                  length: 495 0x39-0x3c (3)
      |                                               |                |                  constructed[0:3]: 0x3c-0x22b (495)
      |                                               |                |                    [0]{}: object 0x3c-0x198 (348)
0x0030|                                    30         |            0   |                      class: "universal" (0) 0x3c-0x3c.2 (0.2)
0x0030|                                    30         |            0   |                      form: "constructed" (1) 0x3c.2-0x3c.3 (0.1)
0x0030|                                    30         |            0   |                      tag: "sequence" (0x10) 0x3c.3-0x3d (0.5)
0x0030|                                       82 01 58|             ..X|                      length: 344 0x3d-0x40 (3)
      |                                               |                |                      constructed[0:8]: 0x40-0x198 (344)
      |                                               |                |                        [0]{}: object 0x40-0x45 (5)
0x0040|a0                                             |.               |                          class: "context" (2) 0x40-0x40.2 (0.2)
0x0040|a0                                             |.               |                          form: "constructed" (1) 0x40.2-0x40.3 (0.1)
0x0040|a0                                             |.               |                          tag: 0 0x40.3-0x41 (0.5)
0x0040|   03                                          | .              |                          length: 3 0x41-0x42 (1)
      |                                               |                |                          constructed[0:1]: 0x42-0x45 (3)
      |                                               |                |                            [0]{}: object 0x42-0x45 (3)
0x0040|      02                                       |  .             |                              class: "universal" (0) 0x42-0x42.2 (0.2)
0x0040|      02                                       |  .             |                              form: "primitive" (0) 0x42.2-0x42.3 (0.1)
0x0040|      02                                       |  .             |                              tag: "integer" (0x2) 0x42.3-0x43 (0.5)
0x0040|         01                                    |   .            |                              length: 1 0x43-0x44 (1)
0x0040|            02                                 |    .           |                              value: 2 0x44-0x45 (1)
      |                                               |                |                        [1]{}: object 0x45-0x57 (18)
0x0040|               02                              |     .          |                          class: "universal" (0) 0x45-0x45.2 (0.2)
0x0040|               02                              |     .          |                          form: "primitive" (0) 0x45.2-0x45.3 (0.1)
0x0040|               02                              |     .          |                          tag: "integer" (0x2) 0x45.3-0x46 (0.5)
0x0040|                  10                           |      .         |                          length: 16 0x46-0x47 (1)
0x0040|                     2f a1 76 b3 6e e9 f0 49 f4|       /.v.n..I.|                          value: 63312083136615639753586560173617846597 0x47-0x57 (16)
0x0050|44 b4 00 99 66 19 45                           |D...f.E         |
      |                                               |                |                        [2]{}: object 0x57-0x66 (15)
0x0050|                     30                        |       0        |                          class: "universal" (0) 0x57-0x57.2 (0.2)
0x0050|                     30                        |       0        |                          form: "constructed" (1) 0x57.2-0x57.3 (0.1)
0x0050|                     30                        |       0        |                          tag: "sequence" (0x10) 0x57.3-0x58 (0.5)
0x0050|                        0d                     |        .       |                          length: 13 0x58-0x59 (1)
      |                                               |                |                          constructed[0:2]: 0x59-0x66 (13)
      |                                               |                |                            [0]{}: object 0x59-0x64 (11)
0x0050|                           06                  |         .      |                              class: "universal" (0) 0x59-0x59.2 (0.2)
0x0050|                           06                  |         .      |                              form: "primitive" (0) 0x59.2-0x59.3 (0.1)
0x0050|                           06                  |         .      |                              tag: "object_identifier" (0x6) 0x59.3-0x5a (0.5)
0x0050|                              09               |          .     |                              length: 9 0x5a-0x5b (1)
      |                                               |                |                              value[0:7]: 0x5b-0x64 (9)
0x0050|                                 2a            |           *    |                                [0]: 1 oid 0x5b-0x5c (1)
0x0050|                                 2a            |           *    |                                [1]: 2 oid 0x5b-0x5c (1)
0x0050|                                    86 48      |            .H  |                                [2]: 840 oid 0x5c-0x5e (2)
0x0050|                                          86 f7|              ..|                                [3]: 113549 oid 0x5e-0x61 (3)
0x0060|0d                                             |.               |
0x0060|   01                                          | .              |                                [4]: 1 oid 0x61-0x62 (1)
0x0060|      01                                       |  .             |                                [5]: 1 oid 0x62-0x63 (1)
0x0060|         05                                    |   .            |                                [6]: 5 oid 0x63-0x64 (1)
      |                                               |                |                            [1]{}: object 0x64-0x66 (2)
0x0060|            05                                 |    .           |                              class: "universal" (0) 0x64-0x64.2 (0.2)
0x0060|            05                                 |    .           |                              form: "primitive" (0) 0x64.2-0x64.3 (0.1)
0x0060|            05                                 |    .           |                              tag: "null" (0x5) 0x64.3-0x65 (0.5)
0x0060|               00                              |     .          |                              length: "indefinite" (0) 0x65-0x66 (1)
      |                                               |                |                              value: null
      |                                               |                |                        [3]{}: object 0x66-0x74 (14)
0x0060|                  30                           |      0         |                          class: "universal" (0) 0x66-0x66.2 (0.2)
0x0060|                  30                           |      0         |                          form: "constructed" (1) 0x66.2-0x66.3 (0.1)
0x0060|                  30                           |      0         |                          tag: "sequence" (0x10) 0x66.3-0x67 (0.5)
0x0060|                     0c                        |       .        |                          length: 12 0x67-0x68 (1)
      |                                               |                |                          constructed[0:1]: 0x68-0x74 (12)
      |                                               |                |                            [0]{}: object 0x68-0x74 (12)
0x0060|                        31                     |        1       |                              class: "universal" (0) 0x68-0x68.2 (0.2)
0x0060|                        31                     |        1       |                              form: "constructed" (1) 0x68.2-0x68.3 (0.1)
0x0060|                        31                     |        1       |                              tag: "set" (0x11) 0x68.3-0x69 (0.5)
0x0060|                           0a                  |         .      |                              length: 10 0x69-0x6a (1)
      |                                               |                |                              constructed[0:1]: 0x6a-0x74 (10)
      |                                               |                |                                [0]{}: object 0x6a-0x74 (10)
0x0060|                              30               |          0     |                                  class: "universal" (0) 0x6a-0x6a.2 (0.2)
0x0060|                              30               |          0     |                                  form: "constructed" (1) 0x6a.2-0x6a.3 (0.1)
0x0060|                              30               |          0     |                                  tag: "sequence" (0x10) 0x6a.3-0x6b (0.5)
0x0060|                                 08            |           .    |                                  length: 8 0x6b-0x6c (1)
      |                                               |                |                                  constructed[0:2]: 0x6c-0x74 (8)
      |                                               |                |                                    [0]{}: object 0x6c-0x71 (5)
0x0060|                                    06         |            .   |                                      class: "universal" (0) 0x6c-0x6c.2 (0.2)
0x0060|                                    06         |            .   |                                      form: "primitive" (0) 0x6c.2-0x6c.3 (0.1)
0x0060|                                    06         |            .   |                                      tag: "object_identifier" (0x6) 0x6c.3-0x6d (0.5)
0x0060|                                       03      |             .  |                                      length: 3 0x6d-0x6e (1)
      |                                               |                |                                      value[0:4]: 0x6e-0x71 (3)
0x0060|                                          55   |              U |                                        [0]: 2 oid 0x6e-0x6f (1)
0x0060|                                          55   |              U |                                        [1]: 5 oid 0x6e-0x6f (1)
0x0060|                                             04|               .|                                        [2]: 4 oid 0x6f-0x70 (1)
0x0070|03                                             |.               |                                        [3]: 3 oid 0x70-0x71 (1)
      |                                               |                |                                    [1]{}: object 0x71-0x74 (3)
0x0070|   0c                                          | .              |                                      class: "universal" (0) 0x71-0x71.2 (0.2)
0x0070|   0c                                          | .              |                                      form: "primitive" (0) 0x71.2-0x71.3 (0.1)
0x0070|   0c                                          | .              |                                      tag: "utf8_string" (0xc) 0x71.3-0x72 (0.5)
0x0070|      01                                       |  .             |                                      length: 1 0x72-0x73 (1)
0x0070|         61                                    |   a            |                                      value: "a" 0x73-0x74 (1)
      |                                               |                |                        [4]{}: object 0x74-0x94 (32)
0x0070|            30                                 |    0           |                          class: "universal" (0) 0x74-0x74.2 (0.2)
0x0070|            30                                 |    0           |                          form: "constructed" (1) 0x74.2-0x74.3 (0.1)
0x0070|            30                                 |    0           |                          tag: "sequence" (0x10) 0x74.3-0x75 (0.5)
0x0070|               1e                              |     .          |                          length: 30 0x75-0x76 (1)
      |                                               |                |                          constructed[0:2]: 0x76-0x94 (30)
      |                                               |                |                            [0]{}: object 0x76-0x85 (15)
0x0070|                  17                           |      .         |                              class: "universal" (0) 0x76-0x76.2 (0.2)
0x0070|                  17                           |      .         |                              form: "primitive" (0) 0x76.2-0x76.3 (0.1)
0x0070|                  17                           |      .         |                              tag: "utc_time" (0x17) 0x76.3-0x77 (0.5)
0x0070|                     0d                        |       .        |                              length: 13 0x77-0x78 (1)
0x0070|                        30 38 31 30 31 35 31 35|        08101515|                              value: "081015150341Z" 0x78-0x85 (13)
0x0080|30 33 34 31 5a                                 |0341Z           |
      |                                               |                |                            [1]{}: object 0x85-0x94 (15)
0x0080|               17                              |     .          |                              class: "universal" (0) 0x85-0x85.2 (0.2)
0x0080|               17                              |     .          |                              form: "primitive" (0) 0x85.2-0x85.3 (0.1)
0x0080|               17                              |     .          |                              tag: "utc_time" (0x17) 0x85.3-0x86 (0.5)
0x0080|                  0d                           |      .         |                              length: 13 0x86-0x87 (1)
0x0080|                     30 39 31 30 31 35 31 35 30|       091015150|                              value: "091015150341Z" 0x87-0x94 (13)
0x0090|33 34 31 5a                                    |341Z            |
      |                                               |                |                        [5]{}: object 0x94-0xa2 (14)
0x0090|            30                                 |    0           |                          class: "universal" (0) 0x94-0x94.2 (0.2)
0x0090|            30                                 |    0           |                          form: "constructed" (1) 0x94.2-0x94.3 (0.1)
0x0090|            30                                 |    0           |                          tag: "sequence" (0x10) 0x94.3-0x95 (0.5)
0x0090|               0c                              |     .          |                          length: 12 0x95-0x96 (1)
      |                                               |                |                          constructed[0:1]: 0x96-0xa2 (12)
      |                                               |                |                            [0]{}: object 0x96-0xa2 (12)
0x0090|                  31                           |      1         |                              class: "universal" (0) 0x96-0x96.2 (0.2)
0x0090|                  31                           |      1         |                              form: "constructed" (1) 0x96.2-0x96.3 (0.1)
0x0090|                  31                           |      1         |                              tag: "set" (0x11) 0x96.3-0x97 (0.5)
0x0090|                     0a                        |       .        |                              length: 10 0x97-0x98 (1)
      |                                               |                |                              constructed[0:1]: 0x98-0xa2 (10)
      |                                               |                |                                [0]{}: object 0x98-0xa2 (10)
0x0090|                        30                     |        0       |                                  class: "universal" (0) 0x98-0x98.2 (0.2)
0x0090|                        30                     |        0       |                                  form: "constructed" (1) 0x98.2-0x98.3 (0.1)
0x0090|                        30                     |        0       |                                  tag: "sequence" (0x10) 0x98.3-0x99 (0.5)
0x0090|                           08                  |         .      |                                  length: 8 0x99-0x9a (1)
      |                                               |                |                                  constructed[0:2]: 0x9a-0xa2 (8)
      |                                               |                |                                    [0]{}: object 0x9a-0x9f (5)
0x0090|                              06               |          .     |                                      class: "universal" (0) 0x9a-0x9a.2 (0.2)
0x0090|                              06               |          .     |                                      form: "primitive" (0) 0x9a.2-0x9a.3 (0.1)
0x0090|                              06               |          .     |                                      tag: "object_identifier" (0x6) 0x9a.3-0x9b (0.5)
0x0090|                                 03            |           .    |                                      length: 3 0x9b-0x9c (1)
      |                                               |                |                                      value[0:4]: 0x9c-0x9f (3)
0x0090|                                    55         |            U   |                                        [0]: 2 oid 0x9c-0x9d (1)
0x0090|                                    55         |            U   |                                        [1]: 5 oid 0x9c-0x9d (1)
0x0090|                                       04      |             .  |                                        [2]: 4 oid 0x9d-0x9e (1)
0x0090|                                          03   |              . |                                        [3]: 3 oid 0x9e-0x9f (1)
      |                                               |                |                                    [1]{}: object 0x9f-0xa2 (3)
0x0090|                                             0c|               .|                                      class: "universal" (0) 0x9f-0x9f.2 (0.2)
0x0090|                                             0c|               .|                                      form: "primitive" (0) 0x9f.2-0x9f.3 (0.1)
0x0090|                                             0c|               .|                                      tag: "utf8_string" (0xc) 0x9f.3-0xa0 (0.5)
0x00a0|01                                             |.               |                                      length: 1 0xa0-0xa1 (1)
0x00a0|   61                                          | a              |                                      value: "a" 0xa1-0xa2 (1)
      |                                               |                |                        [6]{}: object 0xa2-0x144 (162)
0x00a0|      30                                       |  0             |                          class: "universal" (0) 0xa2-0xa2.2 (0.2)
0x00a0|      30                                       |  0             |                          form: "constructed" (1) 0xa2.2-0xa2.3 (0.1)
0x00a0|      30                                       |  0             |                          tag: "sequence" (0x10) 0xa2.3-0xa3 (0.5)
0x00a0|         81 9f                                 |   ..           |                          length: 159 0xa3-0xa5 (2)
      |                                               |                |                          constructed[0:2]: 0xa5-0x144 (159)
      |                                               |                |                            [0]{}: object 0xa5-0xb4 (15)
0x00a0|               30                              |     0          |                              class: "universal" (0) 0xa5-0xa5.2 (0.2)
0x00a0|               30                              |     0          |                              form: "constructed" (1) 0xa5.2-0xa5.3 (0.1)
0x00a0|               30                              |     0          |                              tag: "sequence" (0x10) 0xa5.3-0xa6 (0.5)
0x00a0|                  0d                           |      .         |                              length: 13 0xa6-0xa7 (1)
      |                                               |                |                              constructed[0:2]: 0xa7-0xb4 (13)
      |                                               |                |                                [0]{}: object 0xa7-0xb2 (11)
0x00a0|                     06                        |       .        |                                  class: "universal" (0) 0xa7-0xa7.2 (0.2)
0x00a0|                     06                        |       .        |                                  form: "primitive" (0) 0xa7.2-0xa7.3 (0.1)
0x00a0|                     06                        |       .        |                                  tag: "object_identifier" (0x6) 0xa7.3-0xa8 (0.5)
0x00a0|                        09                     |        .       |                                  length: 9 0xa8-0xa9 (1)
      |                                               |                |                                  value[0:7]: 0xa9-0xb2 (9)
0x00a0|                           2a                  |         *      |                                    [0]: 1 oid 0xa9-0xaa (1)
0x00a0|                           2a                  |         *      |                                    [1]: 2 oid 0xa9-0xaa (1)
0x00a0|                              86 48            |          .H    |                                    [2]: 840 oid 0xaa-0xac (2)
0x00a0|                                    86 f7 0d   |            ... |                                    [3]: 113549 oid 0xac-0xaf (3)
0x00a0|                                             01|               .|                                    [4]: 1 oid 0xaf-0xb0 (1)
0x00b0|01                                             |.               |                                    [5]: 1 oid 0xb0-0xb1 (1)
0x00b0|   01                                          | .              |                                    [6]: 1 oid 0xb1-0xb2 (1)
      |                                               |                |                                [1]{}: object 0xb2-0xb4 (2)
0x00b0|      05                                       |  .             |                                  class: "universal" (0) 0xb2-0xb2.2 (0.2)
0x00b0|      05                                       |  .             |                                  form: "primitive" (0) 0xb2.2-0xb2.3 (0.1)
0x00b0|      05                                       |  .             |                                  tag: "null" (0x5) 0xb2.3-0xb3 (0.5)
0x00b0|         00                                    |   .            |                                  length: "indefinite" (0) 0xb3-0xb4 (1)
      |                                               |                |                                  value: null
      |                                               |                |                            [1]{}: object 0xb4-0x144 (144)
0x00b0|            03                                 |    .           |                              class: "universal" (0) 0xb4-0xb4.2 (0.2)
0x00b0|            03                                 |    .           |                              form: "primitive" (0) 0xb4.2-0xb4.3 (0.1)
0x00b0|            03                                 |    .           |                              tag: "bit_string" (0x3) 0xb4.3-0xb5 (0.5)
0x00b0|               81 8d                           |     ..         |                              length: 141 0xb5-0xb7 (2)
0x00b0|                     00                        |       .        |                              unused_bits_count: 0 0xb7-0xb8 (1)
0x00b0|                        30 81 89 02 81 81 00 89|        0.......|                              value: raw bits 0xb8-0x144 (140)
0x00c0|53 09 70 86 ee 61 47 c5 f4 d5 ff af 1b 49 8a 3d|S.p..aG......I.=|
*     |until 0x143.7 (140)                            |                |
      |                                               |                |                        [7]{}: object 0x144-0x198 (84)
0x0140|            a3                                 |    .           |                          class: "context" (2) 0x144-0x144.2 (0.2)
0x0140|            a3                                 |    .           |                          form: "constructed" (1) 0x144.2-0x144.3 (0.1)
0x0140|            a3                                 |    .           |                          tag: 3 0x144.3-0x145 (0.5)
0x0140|               52                              |     R          |                          length: 82 0x145-0x146 (1)
      |                                               |                |                          constructed[0:1]: 0x146-0x198 (82)
      |                                               |                |                            [0]{}: object 0x146-0x198 (82)
0x0140|                  30                           |      0         |                              class: "universal" (0) 0x146-0x146.2 (0.2)
0x0140|                  30                           |      0         |                              form: "constructed" (1) 0x146.2-0x146.3 (0.1)
0x0140|                  30                           |      0         |                              tag: "sequence" (0x10) 0x146.3-0x147 (0.5)
0x0140|                     50                        |       P        |                              length: 80 0x147-0x148 (1)
      |                                               |                |                              constructed[0:3]: 0x148-0x198 (80)
      |                                               |                |                                [0]{}: object 0x148-0x158 (16)
0x0140|                        30                     |        0       |                                  class: "universal" (0) 0x148-0x148.2 (0.2)
0x0140|                        30                     |        0       |                                  form: "constructed" (1) 0x148.2-0x148.3 (0.1)
0x0140|                        30                     |        0       |                                  tag: "sequence" (0x10) 0x148.3-0x149 (0.5)
0x0140|                           0e                  |         .      |                                  length: 14 0x149-0x14a (1)
      |                                               |                |                                  constructed[0:3]: 0x14a-0x158 (14)
      |                                               |                |                                    [0]{}: object 0x14a-0x14f (5)
0x0140|                              06               |          .     |                                      class: "universal" (0) 0x14a-0x14a.2 (0.2)
0x0140|                              06               |          .     |                                      form: "primitive" (0) 0x14a.2-0x14a.3 (0.1)
0x0140|                              06               |          .     |                                      tag: "object_identifier" (0x6) 0x14a.3-0x14b (0.5)
0x0140|                                 03            |           .    |                                      length: 3 0x14b-0x14c (1)
      |                                               |                |                                      value[0:4]: 0x14c-0x14f (3)
0x0140|                                    55         |            U   |                                        [0]: 2 oid 0x14c-0x14d (1)
0x0140|                                    55         |            U   |                                        [1]: 5 oid 0x14c-0x14d (1)
0x0140|                                       1d      |             .  |                                        [2]: 29 oid 0x14d-0x14e (1)
0x0140|                                          0f   |              . |                                        [3]: 15 oid 0x14e-0x14f (1)
      |                                               |                |                                    [1]{}: object 0x14f-0x152 (3)
0x0140|                                             01|               .|                                      class: "universal" (0) 0x14f-0x14f.2 (0.2)
0x0140|                                             01|               .|                                      form: "primitive" (0) 0x14f.2-0x14f.3 (0.1)
0x0140|                                             01|               .|                                      tag: "boolean" (0x1) 0x14f.3-0x150 (0.5)
0x0150|01                                             |.               |                                      length: 1 0x150-0x151 (1)
0x0150|   ff                                          | .              |                                      value: true (255) 0x151-0x152 (1)
      |                                               |                |                                    [2]{}: object 0x152-0x158 (6)
0x0150|      04                                       |  .             |                                      class: "universal" (0) 0x152-0x152.2 (0.2)
0x0150|      04                                       |  .             |                                      form: "primitive" (0) 0x152.2-0x152.3 (0.1)
0x0150|      04                                       |  .             |                                      tag: "octet_string" (0x4) 0x152.3-0x153 (0.5)
0x0150|         04                                    |   .            |                                      length: 4 0x153-0x154 (1)
0x0150|            03 02 04 f0                        |    ....        |                                      value: raw bits 0x154-0x158 (4)
      |                                               |                |                                [1]{}: object 0x158-0x177 (31)
0x0150|                        30                     |        0       |                                  class: "universal" (0) 0x158-0x158.2 (0.2)
0x0150|                        30                     |        0       |                                  form: "constructed" (1) 0x158.2-0x158.3 (0.1)
0x0150|                        30                     |        0       |                                  tag: "sequence" (0x10) 0x158.3-0x159 (0.5)
0x0150|                           1d                  |         .      |                                  length: 29 0x159-0x15a (1)
      |                                               |                |                                  constructed[0:2]: 0x15a-0x177 (29)
      |                                               |                |                                    [0]{}: object 0x15a-0x15f (5)
0x0150|                              06               |          .     |                                      class: "universal" (0) 0x15a-0x15a.2 (0.2)
0x0150|                              06               |          .     |                                      form: "primitive" (0) 0x15a.2-0x15a.3 (0.1)
0x0150|                              06               |          .     |                                      tag: "object_identifier" (0x6) 0x15a.3-0x15b (0.5)
0x0150|                                 03            |           .    |                                      length: 3 0x15b-0x15c (1)
      |                                               |                |                                      value[0:4]: 0x15c-0x15f (3)
0x0150|                                    55         |            U   |                                        [0]: 2 oid 0x15c-0x15d (1)
0x0150|                                    55         |            U   |                                        [1]: 5 oid 0x15c-0x15d (1)
0x0150|                                       1d      |             .  |                                        [2]: 29 oid 0x15d-0x15e (1)
0x0150|                                          0e   |              . |                                        [3]: 14 oid 0x15e-0x15f (1)
      |                                               |                |                                    [1]{}: object 0x15f-0x177 (24)
0x0150|                                             04|               .|                                      class: "universal" (0) 0x15f-0x15f.2 (0.2)
0x0150|                                             04|               .|                                      form: "primitive" (0) 0x15f.2-0x15f.3 (0.1)
0x0150|                                             04|               .|                                      tag: "octet_string" (0x4) 0x15f.3-0x160 (0.5)
0x0160|16                                             |.               |                                      length: 22 0x160-0x161 (1)
0x0160|   04 14 42 06 5d 00 78 87 ed 38 67 7c bf 9f b3| ..B.].x..8g|...|                                      value: raw bits 0x161-0x177 (22)
0x0170|6f f7 8f 82 a8 f8 ad                           |o......         |
      |                                               |                |                                [2]{}: object 0x177-0x198 (33)
0x0170|                     30                        |       0        |                                  class: "universal" (0) 0x177-0x177.2 (0.2)
0x0170|                     30                        |       0        |                                  form: "constructed" (1) 0x177.2-0x177.3 (0.1)
0x0170|                     30                        |       0        |                                  tag: "sequence" (0x10) 0x177.3-0x178 (0.5)
0x0170|                        1f                     |        .       |                                  length: 31 0x178-0x179 (1)
      |                                               |                |                                  constructed[0:2]: 0x179-0x198 (31)
      |                                               |                |                                    [0]{}: object 0x179-0x17e (5)
0x0170|                           06                  |         .      |                                      class: "universal" (0) 0x179-0x179.2 (0.2)
0x0170|                           06                  |         .      |                                      form: "primitive" (0) 0x179.2-0x179.3 (0.1)
0x0170|                           06                  |         .      |                                      tag: "object_identifier" (0x6) 0x179.3-0x17a (0.5)
0x0170|                              03               |          .     |                                      length: 3 0x17a-0x17b (1)
      |                                               |                |                                      value[0:4]: 0x17b-0x17e (3)
0x0170|                                 55            |           U    |                                        [0]: 2 oid 0x17b-0x17c (1)
0x0170|                                 55            |           U    |                                        [1]: 5 oid 0x17b-0x17c (1)
0x0170|                                    1d         |            .   |                                        [2]: 29 oid 0x17c-0x17d (1)
0x0170|                                       23      |             #  |                                        [3]: 35 oid 0x17d-0x17e (1)
      |                                               |                |                                    [1]{}: object 0x17e-0x198 (26)
0x0170|                                          04   |              . |                                      class: "universal" (0) 0x17e-0x17e.2 (0.2)
0x0170|                                          04   |              . |                                      form: "primitive" (0) 0x17e.2-0x17e.3 (0.1)
0x0170|                                          04   |              . |                                      tag: "octet_string" (0x4) 0x17e.3-0x17f (0.5)
0x0170|                                             18|               .|                                      length: 24 0x17f-0x180 (1)
0x0180|30 16 80 14 42 06 5d 00 78 87 ed 38 67 7c bf 9f|0...B.].x..8g|..|                                      value: raw bits 0x180-0x198 (24)
0x0190|b3 6f f7 8f 82 a8 f8 ad                        |.o......        |
      |00 01 02 03 04 05 06 07 08 09 0a 0b 0c 0d 0e 0f|0123456789abcdef|
  0x00|03 02 04 f0 04 14 42 06 5d 00 78 87 ed 38 67 7c|......B.].x..8g||                          value: raw bits 0x0-0x32 (50)
  *   |until 0x31.7 (end) (50)                        |                |
      |                                               |                |                    [1]{}: object 0x198-0x1a7 (15)
0x0190|                        30                     |        0       |                      class: "universal" (0) 0x198-0x198.2 (0.2)
0x0190|                        30                     |        0       |                      form: "constructed" (1) 0x198.2-0x198.3 (0.1)
0x0190|                        30                     |        0       |                      tag: "sequence" (0x10) 0x198.3-0x199 (0.5)
0x0190|                           0d                  |         .      |                      length: 13 0x199-0x19a (1)
      |                                               |                |                      constructed[0:2]: 0x19a-0x1a7 (13)
      |                                               |                |                        [0]{}: object 0x19a-0x1a5 (11)
0x0190|                              06               |          .     |                          class: "universal" (0) 0x19a-0x19a.2 (0.2)
0x0190|                              06               |          .     |                          form: "primitive" (0) 0x19a.2-0x19a.3 (0.1)
0x0190|                              06               |          .     |                          tag: "object_identifier" (0x6) 0x19a.3-0x19b (0.5)
0x0190|                                 09            |           .    |                          length: 9 0x19b-0x19c (1)
      |                                               |                |                          value[0:7]: 0x19c-0x1a5 (9)
0x0190|                                    2a         |            *   |                            [0]: 1 oid 0x19c-0x19d (1)
0x0190|                                    2a         |            *   |                            [1]: 2 oid 0x19c-0x19d (1)
0x0190|                                       86 48   |             .H |                            [2]: 840 oid 0x19d-0x19f (2)
0x0190|                                             86|               .|                            [3]: 113549 oid 0x19f-0x1a2 (3)
0x01a0|f7 0d                                          |..              |
0x01a0|      01                                       |  .             |                            [4]: 1 oid 0x1a2-0x1a3 (1)
0x01a0|         01                                    |   .            |                            [5]: 1 oid 0x1a3-0x1a4 (1)
0x01a0|            05                                 |    .           |                            [6]: 5 oid 0x1a4-0x1a5 (1)
      |                                               |                |                        [1]{}: object 0x1a5-0x1a7 (2)
0x01a0|               05                              |     .          |                          class: "universal" (0) 0x1a5-0x1a5.2 (0.2)
0x01a0|               05                              |     .          |                          form: "primitive" (0) 0x1a5.2-0x1a5.3 (0.1)
0x01a0|               05                              |     .          |                          tag: "null" (0x5) 0x1a5.3-0x1a6 (0.5)
0x01a0|                  00                           |      .         |                          length: "indefinite" (0) 0x1a6-0x1a7 (1)
      |                                               |                |                          value: null
      |                                               |                |                    [2]{}: object 0x1a7-0x22b (132)
0x01a0|                     03                        |       .        |                      class: "universal" (0) 0x1a7-0x1a7.2 (0.2)
0x01a0|                     03                        |       .        |                      form: "primitive" (0) 0x1a7.2-0x1a7.3 (0.1)
0x01a0|                     03                        |       .        |                      tag: "bit_string" (0x3) 0x1a7.3-0x1a8 (0.5)
0x01a0|                        81 81                  |        ..      |                      length: 129 0x1a8-0x1aa (2)
0x01a0|                              00               |          .     |                      unused_bits_count: 0 0x1aa-0x1ab (1)
0x01a0|                                 4d 06 ee d0 22|           M..."|                      value: raw bits 0x1ab-0x22b (128)
0x01b0|69 a7 09 c6 f3 f7 7e 11 23 fb 23 fd 54 3c 4b d2|i.....~.#.#.T<K.|
*     |until 0x22a.7 (128)                            |                |
      |                                               |                |            [4]{}: object 0x22b-0x354 (297)
0x0220|                                 31            |           1    |              class: "universal" (0) 0x22b-0x22b.2 (0.2)
0x0220|                                 31            |           1    |              form: "constructed" (1) 0x22b.2-0x22b.3 (0.1)
0x0220|                                 31            |           1    |              tag: "set" (0x11) 0x22b.3-0x22c (0.5)
0x0220|                                    82 01 25   |            ..% |              length: 293 0x22c-0x22f (3)
      |                                               |                |              constructed[0:1]: 0x22f-0x354 (293)
      |                                               |                |                [0]{}: object 0x22f-0x354 (293)
0x0220|                                             30|               0|                  class: "universal" (0) 0x22f-0x22f.2 (0.2)
0x0220|                                             30|               0|                  form: "constructed" (1) 0x22f.2-0x22f.3 (0.1)
0x0220|                                             30|               0|                  tag: "sequence" (0x10) 0x22f.3-0x230 (0.5)
0x0230|82 01 21                                       |..!             |                  length: 289 0x230-0x233 (3)
      |                                               |                |                  constructed[0:6]: 0x233-0x354 (289)
      |                                               |                |                    [0]{}: object 0x233-0x236 (3)
0x0230|         02                                    |   .            |                      class: "universal" (0) 0x233-0x233.2 (0.2)
0x0230|         02                                    |   .            |                      form: "primitive" (0) 0x233.2-0x233.3 (0.1)
0x0230|         02                                    |   .            |                      tag: "integer" (0x2) 0x233.3-0x234 (0.5)
0x0230|            01                                 |    .           |                      length: 1 0x234-0x235 (1)
0x0230|               01                              |     .          |                      value: 1 0x235-0x236 (1)
      |                                               |                |                    [1]{}: object 0x236-0x258 (34)
0x0230|                  30                           |      0         |                      class: "universal" (0) 0x236-0x236.2 (0.2)
0x0230|                  30                           |      0         |                      form: "constructed" (1) 0x236.2-0x236.3 (0.1)
0x0230|                  30                           |      0         |                      tag: "sequence" (0x10) 0x236.3-0x237 (0.5)
0x0230|                     20                        |                |                      length: 32 0x237-0x238 (1)
      |                                               |                |                      constructed[0:2]: 0x238-0x258 (32)
      |                                               |                |                        [0]{}: object 0x238-0x246 (14)
0x0230|                        30                     |        0       |                          class: "universal" (0) 0x238-0x238.2 (0.2)
0x0230|                        30                     |        0       |                          form: "constructed" (1) 0x238.2-0x238.3 (0.1)
0x0230|                        30                     |        0       |                          tag: "sequence" (0x10) 0x238.3-0x239 (0.5)
0x0230|                           0c                  |         .      |                          length: 12 0x239-0x23a (1)
      |                                               |                |                          constructed[0:1]: 0x23a-0x246 (12)
      |                                               |                |                            [0]{}: object 0x23a-0x246 (12)
0x0230|                              31               |          1     |                              class: "universal" (0) 0x23a-0x23a.2 (0.2)
0x0230|                              31               |          1     |                              form: "constructed" (1) 0x23a.2-0x23a.3 (0.1)
0x0230|                              31               |          1     |                              tag: "set" (0x11) 0x23a.3-0x23b (0.5)
0x0230|                                 0a            |           .    |                              length: 10 0x23b-0x23c (1)
      |                                               |                |                              constructed[0:1]: 0x23c-0x246 (10)
      |                                               |                |                                [0]{}: object 0x23c-0x246 (10)
0x0230|                                    30         |            0   |                                  class: "universal" (0) 0x23c-0x23c.2 (0.2)
0x0230|                                    30         |            0   |                                  form: "constructed" (1) 0x23c.2-0x23c.3 (0.1)
0x0230|                                    30         |            0   |                                  tag: "sequence" (0x10) 0x23c.3-0x23d (0.5)
0x0230|                                       08      |             .  |                                  length: 8 0x23d-0x23e (1)
      |                                               |                |                                  constructed[0:2]: 0x23e-0x246 (8)
      |                                               |                |                                    [0]{}: object 0x23e-0x243 (5)
0x0230|                                          06   |              . |                                      class: "universal" (0) 0x23e-0x23e.2 (0.2)
0x0230|                                          06   |              . |                                      form: "primitive" (0) 0x23e.2-0x23e.3 (0.1)
0x0230|                                          06   |              . |                                      tag: "object_identifier" (0x6) 0x23e.3-0x23f (0.5)
0x0230|                                             03|               .|                                      length: 3 0x23f-0x240 (1)
      |                                               |                |                                      value[0:4]: 0x240-0x243 (3)
0x0240|55                                             |U               |                                        [0]: 2 oid 0x240-0x241 (1)
0x0240|55                                             |U               |                                        [1]: 5 oid 0x240-0x241 (1)
0x0240|   04                                          | .              |                                        [2]: 4 oid 0x241-0x242 (1)
0x0240|      03                                       |  .             |                                        [3]: 3 oid 0x242-0x243 (1)
      |                                               |                |                                    [1]{}: object 0x243-0x246 (3)
0x0240|         0c                                    |   .            |                                      class: "universal" (0) 0x243-0x243.2 (0.2)
0x0240|         0c                                    |   .            |                                      form: "primitive" (0) 0x243.2-0x243.3 (0.1)
0x0240|         0c                                    |   .            |                                      tag: "utf8_string" (0xc) 0x243.3-0x244 (0.5)
0x0240|            01                                 |    .           |                                      length: 1 0x244-0x245 (1)
0x0240|               61                              |     a          |                                      value: "a" 0x245-0x246 (1)
      |                                               |                |                        [1]{}: object 0x246-0x258 (18)
0x0240|                  02                           |      .         |                          class: "universal" (0) 0x246-0x246.2 (0.2)
0x0240|                  02                           |      .         |                          form: "primitive" (0) 0x246.2-0x246.3 (0.1)
0x0240|                  02                           |      .         |                          tag: "integer" (0x2) 0x246.3-0x247 (0.5)
0x0240|                     10                        |       .        |                          length: 16 0x247-0x248 (1)
0x0240|                        2f a1 76 b3 6e e9 f0 49|        /.v.n..I|                          value: 63312083136615639753586560173617846597 0x248-0x258 (16)
0x0250|f4 44 b4 00 99 66 19 45                        |.D...f.E        |
      |                                               |                |                    [2]{}: object 0x258-0x263 (11)
0x0250|                        30                     |        0       |                      class: "universal" (0) 0x258-0x258.2 (0.2)
0x0250|                        30                     |        0       |                      form: "constructed" (1) 0x258.2-0x258.3 (0.1)
0x0250|                        30                     |        0       |                      tag: "sequence" (0x10) 0x258.3-0x259 (0.5)
0x0250|                           09                  |         .      |                      length: 9 0x259-0x25a (1)
      |                                               |                |                      constructed[0:2]: 0x25a-0x263 (9)
      |                                               |                |                        [0]{}: object 0x25a-0x261 (7)
0x0250|                              06               |          .     |                          class: "universal" (0) 0x25a-0x25a.2 (0.2)
0x0250|                              06               |          .     |                          form: "primitive" (0) 0x25a.2-0x25a.3 (0.1)
0x0250|                              06               |          .     |                          tag: "object_identifier" (0x6) 0x25a.3-0x25b (0.5)
0x0250|                                 05            |           .    |                          length: 5 0x25b-0x25c (1)
      |                                               |                |                          value[0:6]: 0x25c-0x261 (5)
0x0250|                                    2b         |            +   |                            [0]: 1 oid 0x25c-0x25d (1)
0x0250|                                    2b         |            +   |                            [1]: 3 oid 0x25c-0x25d (1)
0x0250|                                       0e      |             .  |                            [2]: 14 oid 0x25d-0x25e (1)
0x0250|                                          03   |              . |                            [3]: 3 oid 0x25e-0x25f (1)
0x0250|                                             02|               .|                            [4]: 2 oid 0x25f-0x260 (1)
0x0260|1a                                             |.               |                            [5]: 26 oid 0x260-0x261 (1)
      |                                               |                |                        [1]{}: object 0x261-0x263 (2)
0x0260|   05                                          | .              |                          class: "universal" (0) 0x261-0x261.2 (0.2)
0x0260|   05                                          | .              |                          form: "primitive" (0) 0x261.2-0x261.3 (0.1)
0x0260|   05                                          | .              |                          tag: "null" (0x5) 0x261.3-0x262 (0.5)
0x0260|      00                                       |  .             |                          length: "indefinite" (0) 0x262-0x263 (1)
      |                                               |                |                          value: null
      |                                               |                |                    [3]{}: object 0x263-0x2c2 (95)
0x0260|         a0                                    |   .            |                      class: "context" (2) 0x263-0x263.2 (0.2)
0x0260|         a0                                    |   .            |                      form: "constructed" (1) 0x263.2-0x263.3 (0.1)
0x0260|         a0                                    |   .            |                      tag: 0 0x263.3-0x264 (0.5)
0x0260|            5d                                 |    ]           |                      length: 93 0x264-0x265 (1)
      |                                               |                |                      constructed[0:3]: 0x265-0x2c2 (93)
      |                                               |                |                        [0]{}: object 0x265-0x27f (26)
0x0260|               30                              |     0          |                          class: "universal" (0) 0x265-0x265.2 (0.2)
0x0260|               30                              |     0          |                          form: "constructed" (1) 0x265.2-0x265.3 (0.1)
0x0260|               30                              |     0          |                          tag: "sequence" (0x10) 0x265.3-0x266 (0.5)
0x0260|                  18                           |      .         |                          length: 24 0x266-0x267 (1)
      |                                               |                |                          constructed[0:2]: 0x267-0x27f (24)
      |                                               |                |                            [0]{}: object 0x267-0x272 (11)
0x0260|                     06                        |       .        |                              class: "universal" (0) 0x267-0x267.2 (0.2)
0x0260|                     06                        |       .        |                              form: "primitive" (0) 0x267.2-0x267.3 (0.1)
0x0260|                     06                        |       .        |                              tag: "object_identifier" (0x6) 0x267.3-0x268 (0.5)
0x0260|                        09                     |        .       |                              length: 9 0x268-0x269 (1)
      |                                               |                |                              value[0:7]: 0x269-0x272 (9)
0x0260|                           2a                  |         *      |                                [0]: 1 oid 0x269-0x26a (1)
0x0260|                           2a                  |         *      |                                [1]: 2 oid 0x269-0x26a (1)
0x0260|                              86 48            |          .H    |                                [2]: 840 oid 0x26a-0x26c (2)
0x0260|                                    86 f7 0d   |            ... |                                [3]: 113549 oid 0x26c-0x26f (3)
0x0260|                                             01|               .|                                [4]: 1 oid 0x26f-0x270 (1)
0x0270|09                                             |.               |                                [5]: 9 oid 0x270-0x271 (1)
0x0270|   03                                          | .              |                                [6]: 3 oid 0x271-0x272 (1)
      |                                               |                |                            [1]{}: object 0x272-0x27f (13)
0x0270|      31                                       |  1             |                              class: "universal" (0) 0x272-0x272.2 (0.2)
0x0270|      31                                       |  1             |                              form: "constructed" (1) 0x272.2-0x272.3 (0.1)
0x0270|      31                                       |  1             |                              tag: "set" (0x11) 0x272.3-0x273 (0.5)
0x0270|         0b                                    |   .            |                              length: 11 0x273-0x274 (1)
      |                                               |                |                              constructed[0:1]: 0x274-0x27f (11)
      |                                               |                |                                [0]{}: object 0x274-0x27f (11)
0x0270|            06                                 |    .           |                                  class: "universal" (0) 0x274-0x274.2 (0.2)
0x0270|            06                                 |    .           |                                  form: "primitive" (0) 0x274.2-0x274.3 (0.1)
0x0270|            06                                 |    .           |                                  tag: "object_identifier" (0x6) 0x274.3-0x275 (0.5)
0x0270|               09                              |     .          |                                  length: 9 0x275-0x276 (1)
      |                                               |                |                                  value[0:7]: 0x276-0x27f (9)
0x0270|                  2a                           |      *         |                                    [0]: 1 oid 0x276-0x277 (1)
0x0270|                  2a                           |      *         |                                    [1]: 2 oid 0x276-0x277 (1)
0x0270|                     86 48                     |       .H       |                                    [2]: 840 oid 0x277-0x279 (2)
0x0270|                           86 f7 0d            |         ...    |                                    [3]: 113549 oid 0x279-0x27c (3)
0x0270|                                    01         |            .   |                                    [4]: 1 oid 0x27c-0x27d (1)
0x0270|                                       07      |             .  |                                    [5]: 7 oid 0x27d-0x27e (1)
0x0270|                                          01   |              . |                                    [6]: 1 oid 0x27e-0x27f (1)
      |                                               |                |                        [1]{}: object 0x27f-0x29d (30)
0x0270|                                             30|               0|                          class: "universal" (0) 0x27f-0x27f.2 (0.2)
0x0270|                                             30|               0|                          form: "constructed" (1) 0x27f.2-0x27f.3 (0.1)
0x0270|                                             30|               0|                          tag: "sequence" (0x10) 0x27f.3-0x280 (0.5)
0x0280|1c                                             |.               |                          length: 28 0x280-0x281 (1)
      |                                               |                |                          constructed[0:2]: 0x281-0x29d (28)
      |                                               |                |                            [0]{}: object 0x281-0x28c (11)
0x0280|   06                                          | .              |                              class: "universal" (0) 0x281-0x281.2 (0.2)
0x0280|   06                                          | .              |                              form: "primitive" (0) 0x281.2-0x281.3 (0.1)
0x0280|   06                                          | .              |                              tag: "object_identifier" (0x6) 0x281.3-0x282 (0.5)
0x0280|      09                                       |  .             |                              length: 9 0x282-0x283 (1)
      |                                               |                |                              value[0:7]: 0x283-0x28c (9)
0x0280|         2a                                    |   *            |                                [0]: 1 oid 0x283-0x284 (1)
0x0280|         2a                                    |   *            |                                [1]: 2 oid 0x283-0x284 (1)
0x0280|            86 48                              |    .H          |                                [2]: 840 oid 0x284-0x286 (2)
0x0280|                  86 f7 0d                     |      ...       |                                [3]: 113549 oid 0x286-0x289 (3)
0x0280|                           01                  |         .      |                                [4]: 1 oid 0x289-0x28a (1)
0x0280|                              09               |          .     |                                [5]: 9 oid 0x28a-0x28b (1)
0x0280|                                 05            |           .    |                                [6]: 5 oid 0x28b-0x28c (1)
      |                                               |                |                            [1]{}: object 0x28c-0x29d (17)
0x0280|                                    31         |            1   |                              class: "universal" (0) 0x28c-0x28c.2 (0.2)
0x0280|                                    31         |            1   |                              form: "constructed" (1) 0x28c.2-0x28c.3 (0.1)
0x0280|                                    31         |            1   |                              tag: "set" (0x11) 0x28c.3-0x28d (0.5)
0x0280|                                       0f      |             .  |                              length: 15 0x28d-0x28e (1)
      |                                               |                |                              constructed[0:1]: 0x28e-0x29d (15)
      |                                               |                |                                [0]{}: object 0x28e-0x29d (15)
0x0280|                                          17   |              . |                                  class: "universal" (0) 0x28e-0x28e.2 (0.2)
0x0280|                                          17   |              . |                                  form: "primitive" (0) 0x28e.2-0x28e.3 (0.1)
0x0280|                                          17   |              . |                                  tag: "utc_time" (0x17) 0x28e.3-0x28f (0.5)
0x0280|                                             0d|               .|                                  length: 13 0x28f-0x290 (1)
0x0290|30 38 31 30 31 35 31 35 30 33 34 33 5a         |081015150343Z   |                                  value: "081015150343Z" 0x290-0x29d (13)
      |                                               |                |                        [2]{}: object 0x29d-0x2c2 (37)
0x0290|                                       30      |             0  |                          class: "universal" (0) 0x29d-0x29d.2 (0.2)
0x0290|                                       30      |             0  |                          form: "constructed" (1) 0x29d.2-0x29d.3 (0.1)
0x0290|                                       30      |             0  |                          tag: "sequence" (0x10) 0x29d.3-0x29e (0.5)
0x0290|                                          23   |              # |                          length: 35 0x29e-0x29f (1)
      |                                               |                |                          constructed[0:2]: 0x29f-0x2c2 (35)
      |                                               |                |                            [0]{}: object 0x29f-0x2aa (11)
0x0290|                                             06|               .|                              class: "universal" (0) 0x29f-0x29f.2 (0.2)
0x0290|                                             06|               .|                              form: "primitive" (0) 0x29f.2-0x29f.3 (0.1)
0x0290|                                             06|               .|                              tag: "object_identifier" (0x6) 0x29f.3-0x2a0 (0.5)
0x02a0|09                                             |.               |                              length: 9 0x2a0-0x2a1 (1)
      |                                               |                |                              value[0:7]: 0x2a1-0x2aa (9)
0x02a0|   2a                                          | *              |                                [0]: 1 oid 0x2a1-0x2a2 (1)
0x02a0|   2a                                          | *              |                                [1]: 2 oid 0x2a1-0x2a2 (1)
0x02a0|      86 48                                    |  .H            |                                [2]: 840 oid 0x2a2-0x2a4 (2)
0x02a0|            86 f7 0d                           |    ...         |                                [3]: 113549 oid 0x2a4-0x2a7 (3)
0x02a0|                     01                        |       .        |                                [4]: 1 oid 0x2a7-0x2a8 (1)
0x02a0|                        09                     |        .       |                                [5]: 9 oid 0x2a8-0x2a9 (1)
0x02a0|                           04                  |         .      |                                [6]: 4 oid 0x2a9-0x2aa (1)
      |                                               |                |                            [1]{}: object 0x2aa-0x2c2 (24)
0x02a0|                              31               |          1     |                              class: "universal" (0) 0x2aa-0x2aa.2 (0.2)
0x02a0|                              31               |          1     |                              form: "constructed" (1) 0x2aa.2-0x2aa.3 (0.1)
0x02a0|                              31               |          1     |                              tag: "set" (0x11) 0x2aa.3-0x2ab (0.5)
0x02a0|                                 16            |           .    |                              length: 22 0x2ab-0x2ac (1)
      |                                               |                |                              constructed[0:1]: 0x2ac-0x2c2 (22)
      |                                               |                |                                [0]{}: object 0x2ac-0x2c2 (22)
0x02a0|                                    04         |            .   |                                  class: "universal" (0) 0x2ac-0x2ac.2 (0.2)
0x02a0|                                    04         |            .   |                                  form: "primitive" (0) 0x2ac.2-0x2ac.3 (0.1)
0x02a0|                                    04         |            .   |                                  tag: "octet_string" (0x4) 0x2ac.3-0x2ad (0.5)
0x02a0|                                       14      |             .  |                                  length: 20 0x2ad-0x2ae (1)
0x02a0|                                          00 00|              ..|                                  value: raw bits 0x2ae-0x2c2 (20)
0x02b0|00 00 00 00 00 00 00 00 00 00 00 00 00 00 00 00|................|
0x02c0|00 00                                          |..              |
      |                                               |                |                    [4]{}: object 0x2c2-0x2d1 (15)
0x02c0|      30                                       |  0             |                      class: "universal" (0) 0x2c2-0x2c2.2 (0.2)
0x02c0|      30                                       |  0             |                      form: "constructed" (1) 0x2c2.2-0x2c2.3 (0.1)
0x02c0|      30                                       |  0             |                      tag: "sequence" (0x10) 0x2c2.3-0x2c3 (0.5)
0x02c0|         0d                                    |   .            |                      length: 13 0x2c3-0x2c4 (1)
      |                                               |                |                      constructed[0:2]: 0x2c4-0x2d1 (13)
      |                                               |                |                        [0]{}: object 0x2c4-0x2cf (11)
0x02c0|            06                                 |    .           |                          class: "universal" (0) 0x2c4-0x2c4.2 (0.2)
0x02c0|            06                                 |    .           |                          form: "primitive" (0) 0x2c4.2-0x2c4.3 (0.1)
0x02c0|            06                                 |    .           |                          tag: "object_identifier" (0x6) 0x2c4.3-0x2c5 (0.5)
0x02c0|               09                              |     .          |                          length: 9 0x2c5-0x2c6 (1)
      |                                               |                |                          value[0:7]: 0x2c6-0x2cf (9)
0x02c0|                  2a                           |      *         |                            [0]: 1 oid 0x2c6-0x2c7 (1)
0x02c0|                  2a                           |      *         |                            [1]: 2 oid 0x2c6-0x2c7 (1)
0x02c0|                     86 48                     |       .H       |                            [2]: 840 oid 0x2c7-0x2c9 (2)
0x02c0|                           86 f7 0d            |         ...    |                            [3]: 113549 oid 0x2c9-0x2cc (3)
0x02c0|                                    01         |            .   |                            [4]: 1 oid 0x2cc-0x2cd (1)
0x02c0|                                       01      |             .  |                            [5]: 1 oid 0x2cd-0x2ce (1)
0x02c0|                                          01   |              . |                            [6]: 1 oid 0x2ce-0x2cf (1)
      |                                               |                |                        [1]{}: object 0x2cf-0x2d1 (2)
0x02c0|                                             05|               .|                          class: "universal" (0) 0x2cf-0x2cf.2 (0.2)
0x02c0|                                             05|               .|                          form: "primitive" (0) 0x2cf.2-0x2cf.3 (0.1)
0x02c0|                                             05|               .|                          tag: "null" (0x5) 0x2cf.3-0x2d0 (0.5)
0x02d0|00                                             |.               |                          length: "indefinite" (0) 0x2d0-0x2d1 (1)
      |                                               |                |                          value: null
      |                                               |                |                    [5]{}: object 0x2d1-0x354 (131)
0x02d0|   04                                          | .              |                      class: "universal" (0) 0x2d1-0x2d1.2 (0.2)
0x02d0|   04                                          | .              |                      form: "primitive" (0) 0x2d1.2-0x2d1.3 (0.1)
0x02d0|   04                                          | .              |                      tag: "octet_string" (0x4) 0x2d1.3-0x2d2 (0.5)
0x02d0|      81 80                                    |  ..            |                      length: 128 0x2d2-0x2d4 (2)
0x02d0|            74 1e d2 87 23 06 7f 99 55 75 9b 6f|    t...#...Uu.o|                      value: raw bits 0x2d4-0x354 (128)
0x02e0|c0 a9 67 60 b1 cc 52 a2 56 b8 19 c5 93 b6 90 c0|..g`..R.V.......|
*     |until 0x353.7 (end) (128)                      |                |
