$ fq -d bytes 'from_pem | asn1_ber | dv' sig-p256-der.p7m
      |00 01 02 03 04 05 06 07 08 09 0a 0b 0c 0d 0e 0f|0123456789abcdef|.{}: (asn1_ber) 0x0-0x2a78 (10872)
0x0000|30                                             |0               |  class: "universal" (0) 0x0-0x0.2 (0.2)
0x0000|30                                             |0               |  form: "constructed" (1) 0x0.2-0x0.3 (0.1)
0x0000|30                                             |0               |  tag: "sequence" (0x10) 0x0.3-0x1 (0.5)
0x0000|   82 2a 74                                    | .*t            |  length: 10868 0x1-0x4 (3)
      |                                               |                |  constructed[0:2]: 0x4-0x2a78 (10868)
      |                                               |                |    [0]{}: object 0x4-0xf (11)
0x0000|            06                                 |    .           |      class: "universal" (0) 0x4-0x4.2 (0.2)
0x0000|            06                                 |    .           |      form: "primitive" (0) 0x4.2-0x4.3 (0.1)
0x0000|            06                                 |    .           |      tag: "object_identifier" (0x6) 0x4.3-0x5 (0.5)
0x0000|               09                              |     .          |      length: 9 0x5-0x6 (1)
      |                                               |                |      value[0:7]: 0x6-0xf (9)
0x0000|                  2a                           |      *         |        [0]: 1 oid 0x6-0x7 (1)
0x0000|                  2a                           |      *         |        [1]: 2 oid 0x6-0x7 (1)
0x0000|                     86 48                     |       .H       |        [2]: 840 oid 0x7-0x9 (2)
0x0000|                           86 f7 0d            |         ...    |        [3]: 113549 oid 0x9-0xc (3)
0x0000|                                    01         |            .   |        [4]: 1 oid 0xc-0xd (1)
0x0000|                                       07      |             .  |        [5]: 7 oid 0xd-0xe (1)
0x0000|                                          02   |              . |        [6]: 2 oid 0xe-0xf (1)
      |                                               |                |    [1]{}: object 0xf-0x2a78 (10857)
0x0000|                                             a0|               .|      class: "context" (2) 0xf-0xf.2 (0.2)
0x0000|                                             a0|               .|      form: "constructed" (1) 0xf.2-0xf.3 (0.1)
0x0000|                                             a0|               .|      tag: 0 0xf.3-0x10 (0.5)
0x0010|82 2a 65                                       |.*e             |      length: 10853 0x10-0x13 (3)
      |                                               |                |      constructed[0:1]: 0x13-0x2a78 (10853)
      |                                               |                |        [0]{}: object 0x13-0x2a78 (10853)
0x0010|         30                                    |   0            |          class: "universal" (0) 0x13-0x13.2 (0.2)
0x0010|         30                                    |   0            |          form: "constructed" (1) 0x13.2-0x13.3 (0.1)
0x0010|         30                                    |   0            |          tag: "sequence" (0x10) 0x13.3-0x14 (0.5)
0x0010|            82 2a 61                           |    .*a         |          length: 10849 0x14-0x17 (3)
      |                                               |                |          constructed[0:5]: 0x17-0x2a78 (10849)
      |                                               |                |            [0]{}: object 0x17-0x1a (3)
0x0010|                     02                        |       .        |              class: "universal" (0) 0x17-0x17.2 (0.2)
0x0010|                     02                        |       .        |              form: "primitive" (0) 0x17.2-0x17.3 (0.1)
0x0010|                     02                        |       .        |              tag: "integer" (0x2) 0x17.3-0x18 (0.5)
0x0010|                        01                     |        .       |              length: 1 0x18-0x19 (1)
0x0010|                           01                  |         .      |              value: 1 0x19-0x1a (1)
      |                                               |                |            [1]{}: object 0x1a-0x2b (17)
0x0010|                              31               |          1     |              class: "universal" (0) 0x1a-0x1a.2 (0.2)
0x0010|                              31               |          1     |              form: "constructed" (1) 0x1a.2-0x1a.3 (0.1)
0x0010|                              31               |          1     |              tag: "set" (0x11) 0x1a.3-0x1b (0.5)
0x0010|                                 0f            |           .    |              length: 15 0x1b-0x1c (1)
      |                                               |                |              constructed[0:1]: 0x1c-0x2b (15)
      |                                               |                |                [0]{}: object 0x1c-0x2b (15)
0x0010|                                    30         |            0   |                  class: "universal" (0) 0x1c-0x1c.2 (0.2)
0x0010|                                    30         |            0   |                  form: "constructed" (1) 0x1c.2-0x1c.3 (0.1)
0x0010|                                    30         |            0   |                  tag: "sequence" (0x10) 0x1c.3-0x1d (0.5)
0x0010|                                       0d      |             .  |                  length: 13 0x1d-0x1e (1)
      |                                               |                |                  constructed[0:2]: 0x1e-0x2b (13)
      |                                               |                |                    [0]{}: object 0x1e-0x29 (11)
0x0010|                                          06   |              . |                      class: "universal" (0) 0x1e-0x1e.2 (0.2)
0x0010|                                          06   |              . |                      form: "primitive" (0) 0x1e.2-0x1e.3 (0.1)
0x0010|                                          06   |              . |                      tag: "object_identifier" (0x6) 0x1e.3-0x1f (0.5)
0x0010|                                             09|               .|                      length: 9 0x1f-0x20 (1)
      |                                               |                |                      value[0:9]: 0x20-0x29 (9)
0x0020|60                                             |`               |                        [0]: 2 oid 0x20-0x21 (1)
0x0020|60                                             |`               |                        [1]: 16 oid 0x20-0x21 (1)
0x0020|   86 48                                       | .H             |                        [2]: 840 oid 0x21-0x23 (2)
0x0020|         01                                    |   .            |                        [3]: 1 oid 0x23-0x24 (1)
0x0020|            65                                 |    e           |                        [4]: 101 oid 0x24-0x25 (1)
0x0020|               03                              |     .          |                        [5]: 3 oid 0x25-0x26 (1)
0x0020|                  04                           |      .         |                        [6]: 4 oid 0x26-0x27 (1)
0x0020|                     02                        |       .        |                        [7]: 2 oid 0x27-0x28 (1)
0x0020|                        01                     |        .       |                        [8]: 1 oid 0x28-0x29 (1)
      |                                               |                |                    [1]{}: object 0x29-0x2b (2)
0x0020|                           05                  |         .      |                      class: "universal" (0) 0x29-0x29.2 (0.2)
0x0020|                           05                  |         .      |                      form: "primitive" (0) 0x29.2-0x29.3 (0.1)
0x0020|                           05                  |         .      |                      tag: "null" (0x5) 0x29.3-0x2a (0.5)
0x0020|                              00               |          .     |                      length: "indefinite" (0) 0x2a-0x2b (1)
      |                                               |                |                      value: null
      |                                               |                |            [2]{}: object 0x2b-0x2774 (10057)
0x0020|                                 30            |           0    |              class: "universal" (0) 0x2b-0x2b.2 (0.2)
0x0020|                                 30            |           0    |              form: "constructed" (1) 0x2b.2-0x2b.3 (0.1)
0x0020|                                 30            |           0    |              tag: "sequence" (0x10) 0x2b.3-0x2c (0.5)
0x0020|                                    82 27 45   |            .'E |              length: 10053 0x2c-0x2f (3)
      |                                               |                |              constructed[0:2]: 0x2f-0x2774 (10053)
      |                                               |                |                [0]{}: object 0x2f-0x3a (11)
0x0020|                                             06|               .|                  class: "universal" (0) 0x2f-0x2f.2 (0.2)
0x0020|                                             06|               .|                  form: "primitive" (0) 0x2f.2-0x2f.3 (0.1)
0x0020|                                             06|               .|                  tag: "object_identifier" (0x6) 0x2f.3-0x30 (0.5)
0x0030|09                                             |.               |                  length: 9 0x30-0x31 (1)
      |                                               |                |                  value[0:7]: 0x31-0x3a (9)
0x0030|   2a                                          | *              |                    [0]: 1 oid 0x31-0x32 (1)
0x0030|   2a                                          | *              |                    [1]: 2 oid 0x31-0x32 (1)
0x0030|      86 48                                    |  .H            |                    [2]: 840 oid 0x32-0x34 (2)
0x0030|            86 f7 0d                           |    ...         |                    [3]: 113549 oid 0x34-0x37 (3)
0x0030|                     01                        |       .        |                    [4]: 1 oid 0x37-0x38 (1)
0x0030|                        07                     |        .       |                    [5]: 7 oid 0x38-0x39 (1)
0x0030|                           01                  |         .      |                    [6]: 1 oid 0x39-0x3a (1)
      |                                               |                |                [1]{}: object 0x3a-0x2774 (10042)
0x0030|                              a0               |          .     |                  class: "context" (2) 0x3a-0x3a.2 (0.2)
0x0030|                              a0               |          .     |                  form: "constructed" (1) 0x3a.2-0x3a.3 (0.1)
0x0030|                              a0               |          .     |                  tag: 0 0x3a.3-0x3b (0.5)
0x0030|                                 82 27 36      |           .'6  |                  length: 10038 0x3b-0x3e (3)
      |                                               |                |                  constructed[0:1]: 0x3e-0x2774 (10038)
      |                                               |                |                    [0]{}: object 0x3e-0x2774 (10038)
0x0030|                                          04   |              . |                      class: "universal" (0) 0x3e-0x3e.2 (0.2)
0x0030|                                          04   |              . |                      form: "primitive" (0) 0x3e.2-0x3e.3 (0.1)
0x0030|                                          04   |              . |                      tag: "octet_string" (0x4) 0x3e.3-0x3f (0.5)
0x0030|                                             82|               .|                      length: 10034 0x3f-0x42 (3)
0x0040|27 32                                          |'2              |
0x0040|      49 6e 69 7a 69 6f 20 63 6f 6e 74 65 6e 75|  Inizio contenu|                      value: raw bits 0x42-0x2774 (10034)
0x0050|74 6f 2e 0a 41 41 41 41 41 41 41 41 41 41 41 41|to..AAAAAAAAAAAA|
*     |until 0x2773.7 (10034)                         |                |
      |                                               |                |            [3]{}: object 0x2774-0x28ea (374)
0x2770|            a0                                 |    .           |              class: "context" (2) 0x2774-0x2774.2 (0.2)
0x2770|            a0                                 |    .           |              form: "constructed" (1) 0x2774.2-0x2774.3 (0.1)
0x2770|            a0                                 |    .           |              tag: 0 0x2774.3-0x2775 (0.5)
0x2770|               82 01 72                        |     ..r        |              length: 370 0x2775-0x2778 (3)
      |                                               |                |              constructed[0:1]: 0x2778-0x28ea (370)
      |                                               |                |                [0]{}: object 0x2778-0x28ea (370)
0x2770|                        30                     |        0       |                  class: "universal" (0) 0x2778-0x2778.2 (0.2)
0x2770|                        30                     |        0       |                  form: "constructed" (1) 0x2778.2-0x2778.3 (0.1)
0x2770|                        30                     |        0       |                  tag: "sequence" (0x10) 0x2778.3-0x2779 (0.5)
0x2770|                           82 01 6e            |         ..n    |                  length: 366 0x2779-0x277c (3)
      |                                               |                |                  constructed[0:3]: 0x277c-0x28ea (366)
      |                                               |                |                    [0]{}: object 0x277c-0x2894 (280)
0x2770|                                    30         |            0   |                      class: "universal" (0) 0x277c-0x277c.2 (0.2)
0x2770|                                    30         |            0   |                      form: "constructed" (1) 0x277c.2-0x277c.3 (0.1)
0x2770|                                    30         |            0   |                      tag: "sequence" (0x10) 0x277c.3-0x277d (0.5)
0x2770|                                       82 01 14|             ...|                      length: 276 0x277d-0x2780 (3)
      |                                               |                |                      constructed[0:8]: 0x2780-0x2894 (276)
      |                                               |                |                        [0]{}: object 0x2780-0x2785 (5)
0x2780|a0                                             |.               |                          class: "context" (2) 0x2780-0x2780.2 (0.2)
0x2780|a0                                             |.               |                          form: "constructed" (1) 0x2780.2-0x2780.3 (0.1)
0x2780|a0                                             |.               |                          tag: 0 0x2780.3-0x2781 (0.5)
0x2780|   03                                          | .              |                          length: 3 0x2781-0x2782 (1)
      |                                               |                |                          constructed[0:1]: 0x2782-0x2785 (3)
      |                                               |                |                            [0]{}: object 0x2782-0x2785 (3)
0x2780|      02                                       |  .             |                              class: "universal" (0) 0x2782-0x2782.2 (0.2)
0x2780|      02                                       |  .             |                              form: "primitive" (0) 0x2782.2-0x2782.3 (0.1)
0x2780|      02                                       |  .             |                              tag: "integer" (0x2) 0x2782.3-0x2783 (0.5)
0x2780|         01                                    |   .            |                              length: 1 0x2783-0x2784 (1)
0x2780|            02                                 |    .           |                              value: 2 0x2784-0x2785 (1)
      |                                               |                |                        [1]{}: object 0x2785-0x2797 (18)
0x2780|               02                              |     .          |                          class: "universal" (0) 0x2785-0x2785.2 (0.2)
0x2780|               02                              |     .          |                          form: "primitive" (0) 0x2785.2-0x2785.3 (0.1)
0x2780|               02                              |     .          |                          tag: "integer" (0x2) 0x2785.3-0x2786 (0.5)
0x2780|                  10                           |      .         |                          length: 16 0x2786-0x2787 (1)
0x2780|                     60 5c d2 d5 26 75 b3 92 a5|       `\..&u...|                          value: 128087855099855233032551836648087377254 0x2787-0x2797 (16)
0x2790|aa 9b 02 b2 6a 55 66                           |....jUf         |
      |                                               |                |                        [2]{}: object 0x2797-0x27a3 (12)
0x2790|                     30                        |       0        |                          class: "universal" (0) 0x2797-0x2797.2 (0.2)
0x2790|                     30                        |       0        |                          form: "constructed" (1) 0x2797.2-0x2797.3 (0.1)
0x2790|                     30                        |       0        |                          tag: "sequence" (0x10) 0x2797.3-0x2798 (0.5)
0x2790|                        0a                     |        .       |                          length: 10 0x2798-0x2799 (1)
      |                                               |                |                          constructed[0:1]: 0x2799-0x27a3 (10)
      |                                               |                |                            [0]{}: object 0x2799-0x27a3 (10)
0x2790|                           06                  |         .      |                              class: "universal" (0) 0x2799-0x2799.2 (0.2)
0x2790|                           06                  |         .      |                              form: "primitive" (0) 0x2799.2-0x2799.3 (0.1)
0x2790|                           06                  |         .      |                              tag: "object_identifier" (0x6) 0x2799.3-0x279a (0.5)
0x2790|                              08               |          .     |                              length: 8 0x279a-0x279b (1)
      |                                               |                |                              value[0:7]: 0x279b-0x27a3 (8)
0x2790|                                 2a            |           *    |                                [0]: 1 oid 0x279b-0x279c (1)
0x2790|                                 2a            |           *    |                                [1]: 2 oid 0x279b-0x279c (1)
0x2790|                                    86 48      |            .H  |                                [2]: 840 oid 0x279c-0x279e (2)
0x2790|                                          ce 3d|              .=|                                [3]: 10045 oid 0x279e-0x27a0 (2)
0x27a0|04                                             |.               |                                [4]: 4 oid 0x27a0-0x27a1 (1)
0x27a0|   03                                          | .              |                                [5]: 3 oid 0x27a1-0x27a2 (1)
0x27a0|      02                                       |  .             |                                [6]: 2 oid 0x27a2-0x27a3 (1)
      |                                               |                |                        [3]{}: object 0x27a3-0x27b4 (17)
0x27a0|         30                                    |   0            |                          class: "universal" (0) 0x27a3-0x27a3.2 (0.2)
0x27a0|         30                                    |   0            |                          form: "constructed" (1) 0x27a3.2-0x27a3.3 (0.1)
0x27a0|         30                                    |   0            |                          tag: "sequence" (0x10) 0x27a3.3-0x27a4 (0.5)
0x27a0|            0f                                 |    .           |                          length: 15 0x27a4-0x27a5 (1)
      |                                               |                |                          constructed[0:1]: 0x27a5-0x27b4 (15)
      |                                               |                |                            [0]{}: object 0x27a5-0x27b4 (15)
0x27a0|               31                              |     1          |                              class: "universal" (0) 0x27a5-0x27a5.2 (0.2)
0x27a0|               31                              |     1          |                              form: "constructed" (1) 0x27a5.2-0x27a5.3 (0.1)
0x27a0|               31                              |     1          |                              tag: "set" (0x11) 0x27a5.3-0x27a6 (0.5)
0x27a0|                  0d                           |      .         |                              length: 13 0x27a6-0x27a7 (1)
      |                                               |                |                              constructed[0:1]: 0x27a7-0x27b4 (13)
      |                                               |                |                                [0]{}: object 0x27a7-0x27b4 (13)
0x27a0|                     30                        |       0        |                                  class: "universal" (0) 0x27a7-0x27a7.2 (0.2)
0x27a0|                     30                        |       0        |                                  form: "constructed" (1) 0x27a7.2-0x27a7.3 (0.1)
0x27a0|                     30                        |       0        |                                  tag: "sequence" (0x10) 0x27a7.3-0x27a8 (0.5)
0x27a0|                        0b                     |        .       |                                  length: 11 0x27a8-0x27a9 (1)
      |                                               |                |                                  constructed[0:2]: 0x27a9-0x27b4 (11)
      |                                               |                |                                    [0]{}: object 0x27a9-0x27ae (5)
0x27a0|                           06                  |         .      |                                      class: "universal" (0) 0x27a9-0x27a9.2 (0.2)
0x27a0|                           06                  |         .      |                                      form: "primitive" (0) 0x27a9.2-0x27a9.3 (0.1)
0x27a0|                           06                  |         .      |                                      tag: "object_identifier" (0x6) 0x27a9.3-0x27aa (0.5)
0x27a0|                              03               |          .     |                                      length: 3 0x27aa-0x27ab (1)
      |                                               |                |                                      value[0:4]: 0x27ab-0x27ae (3)
0x27a0|                                 55            |           U    |                                        [0]: 2 oid 0x27ab-0x27ac (1)
0x27a0|                                 55            |           U    |                                        [1]: 5 oid 0x27ab-0x27ac (1)
0x27a0|                                    04         |            .   |                                        [2]: 4 oid 0x27ac-0x27ad (1)
0x27a0|                                       03      |             .  |                                        [3]: 3 oid 0x27ad-0x27ae (1)
      |                                               |                |                                    [1]{}: object 0x27ae-0x27b4 (6)
0x27a0|                                          0c   |              . |                                      class: "universal" (0) 0x27ae-0x27ae.2 (0.2)
0x27a0|                                          0c   |              . |                                      form: "primitive" (0) 0x27ae.2-0x27ae.3 (0.1)
0x27a0|                                          0c   |              . |                                      tag: "utf8_string" (0xc) 0x27ae.3-0x27af (0.5)
0x27a0|                                             04|               .|                                      length: 4 0x27af-0x27b0 (1)
0x27b0|54 65 73 74                                    |Test            |                                      value: "Test" 0x27b0-0x27b4 (4)
      |                                               |                |                        [4]{}: object 0x27b4-0x27d4 (32)
0x27b0|            30                                 |    0           |                          class: "universal" (0) 0x27b4-0x27b4.2 (0.2)
0x27b0|            30                                 |    0           |                          form: "constructed" (1) 0x27b4.2-0x27b4.3 (0.1)
0x27b0|            30                                 |    0           |                          tag: "sequence" (0x10) 0x27b4.3-0x27b5 (0.5)
0x27b0|               1e                              |     .          |                          length: 30 0x27b5-0x27b6 (1)
      |                                               |                |                          constructed[0:2]: 0x27b6-0x27d4 (30)
      |                                               |                |                            [0]{}: object 0x27b6-0x27c5 (15)
0x27b0|                  17                           |      .         |                              class: "universal" (0) 0x27b6-0x27b6.2 (0.2)
0x27b0|                  17                           |      .         |                              form: "primitive" (0) 0x27b6.2-0x27b6.3 (0.1)
0x27b0|                  17                           |      .         |                              tag: "utc_time" (0x17) 0x27b6.3-0x27b7 (0.5)
0x27b0|                     0d                        |       .        |                              length: 13 0x27b7-0x27b8 (1)
0x27b0|                        31 38 30 37 31 36 31 34|        18071614|                              value: "180716145635Z" 0x27b8-0x27c5 (13)
0x27c0|35 36 33 35 5a                                 |5635Z           |
      |                                               |                |                            [1]{}: object 0x27c5-0x27d4 (15)
0x27c0|               17                              |     .          |                              class: "universal" (0) 0x27c5-0x27c5.2 (0.2)
0x27c0|               17                              |     .          |                              form: "primitive" (0) 0x27c5.2-0x27c5.3 (0.1)
0x27c0|               17                              |     .          |                              tag: "utc_time" (0x17) 0x27c5.3-0x27c6 (0.5)
0x27c0|                  0d                           |      .         |                              length: 13 0x27c6-0x27c7 (1)
0x27c0|                     31 39 30 37 31 36 31 34 35|       190716145|                              value: "190716145635Z" 0x27c7-0x27d4 (13)
0x27d0|36 33 35 5a                                    |635Z            |
      |                                               |                |                        [5]{}: object 0x27d4-0x27e5 (17)
0x27d0|            30                                 |    0           |                          class: "universal" (0) 0x27d4-0x27d4.2 (0.2)
0x27d0|            30                                 |    0           |                          form: "constructed" (1) 0x27d4.2-0x27d4.3 (0.1)
0x27d0|            30                                 |    0           |                          tag: "sequence" (0x10) 0x27d4.3-0x27d5 (0.5)
0x27d0|               0f                              |     .          |                          length: 15 0x27d5-0x27d6 (1)
      |                                               |                |                          constructed[0:1]: 0x27d6-0x27e5 (15)
      |                                               |                |                            [0]{}: object 0x27d6-0x27e5 (15)
0x27d0|                  31                           |      1         |                              class: "universal" (0) 0x27d6-0x27d6.2 (0.2)
0x27d0|                  31                           |      1         |                              form: "constructed" (1) 0x27d6.2-0x27d6.3 (0.1)
0x27d0|                  31                           |      1         |                              tag: "set" (0x11) 0x27d6.3-0x27d7 (0.5)
0x27d0|                     0d                        |       .        |                              length: 13 0x27d7-0x27d8 (1)
      |                                               |                |                              constructed[0:1]: 0x27d8-0x27e5 (13)
      |                                               |                |                                [0]{}: object 0x27d8-0x27e5 (13)
0x27d0|                        30                     |        0       |                                  class: "universal" (0) 0x27d8-0x27d8.2 (0.2)
0x27d0|                        30                     |        0       |                                  form: "constructed" (1) 0x27d8.2-0x27d8.3 (0.1)
0x27d0|                        30                     |        0       |                                  tag: "sequence" (0x10) 0x27d8.3-0x27d9 (0.5)
0x27d0|                           0b                  |         .      |                                  length: 11 0x27d9-0x27da (1)
      |                                               |                |                                  constructed[0:2]: 0x27da-0x27e5 (11)
      |                                               |                |                                    [0]{}: object 0x27da-0x27df (5)
0x27d0|                              06               |          .     |                                      class: "universal" (0) 0x27da-0x27da.2 (0.2)
0x27d0|                              06               |          .     |                                      form: "primitive" (0) 0x27da.2-0x27da.3 (0.1)
0x27d0|                              06               |          .     |                                      tag: "object_identifier" (0x6) 0x27da.3-0x27db (0.5)
0x27d0|                                 03            |           .    |                                      length: 3 0x27db-0x27dc (1)
      |                                               |                |                                      value[0:4]: 0x27dc-0x27df (3)
0x27d0|                                    55         |            U   |                                        [0]: 2 oid 0x27dc-0x27dd (1)
0x27d0|                                    55         |            U   |                                        [1]: 5 oid 0x27dc-0x27dd (1)
0x27d0|                                       04      |             .  |                                        [2]: 4 oid 0x27dd-0x27de (1)
0x27d0|                                          03   |              . |                                        [3]: 3 oid 0x27de-0x27df (1)
      |                                               |                |                                    [1]{}: object 0x27df-0x27e5 (6)
0x27d0|                                             0c|               .|                                      class: "universal" (0) 0x27df-0x27df.2 (0.2)
0x27d0|                                             0c|               .|                                      form: "primitive" (0) 0x27df.2-0x27df.3 (0.1)
0x27d0|                                             0c|               .|                                      tag: "utf8_string" (0xc) 0x27df.3-0x27e0 (0.5)
0x27e0|04                                             |.               |                                      length: 4 0x27e0-0x27e1 (1)
0x27e0|   54 65 73 74                                 | Test           |                                      value: "Test" 0x27e1-0x27e5 (4)
      |                                               |                |                        [6]{}: object 0x27e5-0x2840 (91)
0x27e0|               30                              |     0          |                          class: "universal" (0) 0x27e5-0x27e5.2 (0.2)
0x27e0|               30                              |     0          |                          form: "constructed" (1) 0x27e5.2-0x27e5.3 (0.1)
0x27e0|               30                              |     0          |                          tag: "sequence" (0x10) 0x27e5.3-0x27e6 (0.5)
0x27e0|                  59                           |      Y         |                          length: 89 0x27e6-0x27e7 (1)
      |                                               |                |                          constructed[0:2]: 0x27e7-0x2840 (89)
      |                                               |                |                            [0]{}: object 0x27e7-0x27fc (21)
0x27e0|                     30                        |       0        |                              class: "universal" (0) 0x27e7-0x27e7.2 (0.2)
0x27e0|                     30                        |       0        |                              form: "constructed" (1) 0x27e7.2-0x27e7.3 (0.1)
0x27e0|                     30                        |       0        |                              tag: "sequence" (0x10) 0x27e7.3-0x27e8 (0.5)
0x27e0|                        13                     |        .       |                              length: 19 0x27e8-0x27e9 (1)
      |                                               |                |                              constructed[0:2]: 0x27e9-0x27fc (19)
      |                                               |                |                                [0]{}: object 0x27e9-0x27f2 (9)
0x27e0|                           06                  |         .      |                                  class: "universal" (0) 0x27e9-0x27e9.2 (0.2)
0x27e0|                           06                  |         .      |                                  form: "primitive" (0) 0x27e9.2-0x27e9.3 (0.1)
0x27e0|                           06                  |         .      |                                  tag: "object_identifier" (0x6) 0x27e9.3-0x27ea (0.5)
0x27e0|                              07               |          .     |                                  length: 7 0x27ea-0x27eb (1)
      |                                               |                |                                  value[0:6]: 0x27eb-0x27f2 (7)
0x27e0|                                 2a            |           *    |                                    [0]: 1 oid 0x27eb-0x27ec (1)
0x27e0|                                 2a            |           *    |                                    [1]: 2 oid 0x27eb-0x27ec (1)
0x27e0|                                    86 48      |            .H  |                                    [2]: 840 oid 0x27ec-0x27ee (2)
0x27e0|                                          ce 3d|              .=|                                    [3]: 10045 oid 0x27ee-0x27f0 (2)
0x27f0|02                                             |.               |                                    [4]: 2 oid 0x27f0-0x27f1 (1)
0x27f0|   01                                          | .              |                                    [5]: 1 oid 0x27f1-0x27f2 (1)
      |                                               |                |                                [1]{}: object 0x27f2-0x27fc (10)
0x27f0|      06                                       |  .             |                                  class: "universal" (0) 0x27f2-0x27f2.2 (0.2)
0x27f0|      06                                       |  .             |                                  form: "primitive" (0) 0x27f2.2-0x27f2.3 (0.1)
0x27f0|      06                                       |  .             |                                  tag: "object_identifier" (0x6) 0x27f2.3-0x27f3 (0.5)
0x27f0|         08                                    |   .            |                                  length: 8 0x27f3-0x27f4 (1)
      |                                               |                |                                  value[0:7]: 0x27f4-0x27fc (8)
0x27f0|            2a                                 |    *           |                                    [0]: 1 oid 0x27f4-0x27f5 (1)
0x27f0|            2a                                 |    *           |                                    [1]: 2 oid 0x27f4-0x27f5 (1)
0x27f0|               86 48                           |     .H         |                                    [2]: 840 oid 0x27f5-0x27f7 (2)
0x27f0|                     ce 3d                     |       .=       |                                    [3]: 10045 oid 0x27f7-0x27f9 (2)
0x27f0|                           03                  |         .      |                                    [4]: 3 oid 0x27f9-0x27fa (1)
0x27f0|                              01               |          .     |                                    [5]: 1 oid 0x27fa-0x27fb (1)
0x27f0|                                 07            |           .    |                                    [6]: 7 oid 0x27fb-0x27fc (1)
      |                                               |                |                            [1]{}: object 0x27fc-0x2840 (68)
0x27f0|                                    03         |            .   |                              class: "universal" (0) 0x27fc-0x27fc.2 (0.2)
0x27f0|                                    03         |            .   |                              form: "primitive" (0) 0x27fc.2-0x27fc.3 (0.1)
0x27f0|                                    03         |            .   |                              tag: "bit_string" (0x3) 0x27fc.3-0x27fd (0.5)
0x27f0|                                       42      |             B  |                              length: 66 0x27fd-0x27fe (1)
0x27f0|                                          00   |              . |                              unused_bits_count: 0 0x27fe-0x27ff (1)
0x27f0|                                             04|               .|                              value: raw bits 0x27ff-0x2840 (65)
0x2800|24 4c b6 cc 1c 69 21 ff 49 d8 be 26 3e 0b 7c d0|$L...i!.I..&>.|.|
*     |until 0x283f.7 (65)                            |                |
      |                                               |                |                        [7]{}: object 0x2840-0x2894 (84)
0x2840|a3                                             |.               |                          class: "context" (2) 0x2840-0x2840.2 (0.2)
0x2840|a3                                             |.               |                          form: "constructed" (1) 0x2840.2-0x2840.3 (0.1)
0x2840|a3                                             |.               |                          tag: 3 0x2840.3-0x2841 (0.5)
0x2840|   52                                          | R              |                          length: 82 0x2841-0x2842 (1)
      |                                               |                |                          constructed[0:1]: 0x2842-0x2894 (82)
      |                                               |                |                            [0]{}: object 0x2842-0x2894 (82)
0x2840|      30                                       |  0             |                              class: "universal" (0) 0x2842-0x2842.2 (0.2)
0x2840|      30                                       |  0             |                              form: "constructed" (1) 0x2842.2-0x2842.3 (0.1)
0x2840|      30                                       |  0             |                              tag: "sequence" (0x10) 0x2842.3-0x2843 (0.5)
0x2840|         50                                    |   P            |                              length: 80 0x2843-0x2844 (1)
      |                                               |                |                              constructed[0:3]: 0x2844-0x2894 (80)
      |                                               |                |                                [0]{}: object 0x2844-0x2854 (16)
0x2840|            30                                 |    0           |                                  class: "universal" (0) 0x2844-0x2844.2 (0.2)
0x2840|            30                                 |    0           |                                  form: "constructed" (1) 0x2844.2-0x2844.3 (0.1)
0x2840|            30                                 |    0           |                                  tag: "sequence" (0x10) 0x2844.3-0x2845 (0.5)
0x2840|               0e                              |     .          |                                  length: 14 0x2845-0x2846 (1)
      |                                               |                |                                  constructed[0:3]: 0x2846-0x2854 (14)
      |                                               |                |                                    [0]{}: object 0x2846-0x284b (5)
0x2840|                  06                           |      .         |                                      class: "universal" (0) 0x2846-0x2846.2 (0.2)
0x2840|                  06                           |      .         |                                      form: "primitive" (0) 0x2846.2-0x2846.3 (0.1)
0x2840|                  06                           |      .         |                                      tag: "object_identifier" (0x6) 0x2846.3-0x2847 (0.5)
0x2840|                     03                        |       .        |                                      length: 3 0x2847-0x2848 (1)
      |                                               |                |                                      value[0:4]: 0x2848-0x284b (3)
0x2840|                        55                     |        U       |                                        [0]: 2 oid 0x2848-0x2849 (1)
0x2840|                        55                     |        U       |                                        [1]: 5 oid 0x2848-0x2849 (1)
0x2840|                           1d                  |         .      |                                        [2]: 29 oid 0x2849-0x284a (1)
0x2840|                              0f               |          .     |                                        [3]: 15 oid 0x284a-0x284b (1)
      |                                               |                |                                    [1]{}: object 0x284b-0x284e (3)
0x2840|                                 01            |           .    |                                      class: "universal" (0) 0x284b-0x284b.2 (0.2)
0x2840|                                 01            |           .    |                                      form: "primitive" (0) 0x284b.2-0x284b.3 (0.1)
0x2840|                                 01            |           .    |                                      tag: "boolean" (0x1) 0x284b.3-0x284c (0.5)
0x2840|                                    01         |            .   |                                      length: 1 0x284c-0x284d (1)
0x2840|                                       ff      |             .  |                                      value: true (255) 0x284d-0x284e (1)
      |                                               |                |                                    [2]{}: object 0x284e-0x2854 (6)
0x2840|                                          04   |              . |                                      class: "universal" (0) 0x284e-0x284e.2 (0.2)
0x2840|                                          04   |              . |                                      form: "primitive" (0) 0x284e.2-0x284e.3 (0.1)
0x2840|                                          04   |              . |                                      tag: "octet_string" (0x4) 0x284e.3-0x284f (0.5)
0x2840|                                             04|               .|                                      length: 4 0x284f-0x2850 (1)
0x2850|03 02 04 f0                                    |....            |                                      value: raw bits 0x2850-0x2854 (4)
      |                                               |                |                                [1]{}: object 0x2854-0x2873 (31)
0x2850|            30                                 |    0           |                                  class: "universal" (0) 0x2854-0x2854.2 (0.2)
0x2850|            30                                 |    0           |                                  form: "constructed" (1) 0x2854.2-0x2854.3 (0.1)
0x2850|            30                                 |    0           |                                  tag: "sequence" (0x10) 0x2854.3-0x2855 (0.5)
0x2850|               1d                              |     .          |                                  length: 29 0x2855-0x2856 (1)
      |                                               |                |                                  constructed[0:2]: 0x2856-0x2873 (29)
      |                                               |                |                                    [0]{}: object 0x2856-0x285b (5)
0x2850|                  06                           |      .         |                                      class: "universal" (0) 0x2856-0x2856.2 (0.2)
0x2850|                  06                           |      .         |                                      form: "primitive" (0) 0x2856.2-0x2856.3 (0.1)
0x2850|                  06                           |      .         |                                      tag: "object_identifier" (0x6) 0x2856.3-0x2857 (0.5)
0x2850|                     03                        |       .        |                                      length: 3 0x2857-0x2858 (1)
      |                                               |                |                                      value[0:4]: 0x2858-0x285b (3)
0x2850|                        55                     |        U       |                                        [0]: 2 oid 0x2858-0x2859 (1)
0x2850|                        55                     |        U       |                                        [1]: 5 oid 0x2858-0x2859 (1)
0x2850|                           1d                  |         .      |                                        [2]: 29 oid 0x2859-0x285a (1)
0x2850|                              0e               |          .     |                                        [3]: 14 oid 0x285a-0x285b (1)
      |                                               |                |                                    [1]{}: object 0x285b-0x2873 (24)
0x2850|                                 04            |           .    |                                      class: "universal" (0) 0x285b-0x285b.2 (0.2)
0x2850|                                 04            |           .    |                                      form: "primitive" (0) 0x285b.2-0x285b.3 (0.1)
0x2850|                                 04            |           .    |                                      tag: "octet_string" (0x4) 0x285b.3-0x285c (0.5)
0x2850|                                    16         |            .   |                                      length: 22 0x285c-0x285d (1)
0x2850|                                       04 14 c3|             ...|                                      value: raw bits 0x285d-0x2873 (22)
0x2860|c0 84 df 7b 04 0d b0 38 af 51 8c e3 97 f6 ec 20|...{...8.Q..... |
0x2870|d6 26 e6                                       |.&.             |
      |                                               |                |                                [2]{}: object 0x2873-0x2894 (33)
0x2870|         30                                    |   0            |                                  class: "universal" (0) 0x2873-0x2873.2 (0.2)
0x2870|         30                                    |   0            |                                  form: "constructed" (1) 0x2873.2-0x2873.3 (0.1)
0x2870|         30                                    |   0            |                                  tag: "sequence" (0x10) 0x2873.3-0x2874 (0.5)
0x2870|            1f                                 |    .           |                                  length: 31 0x2874-0x2875 (1)
      |                                               |                |                                  constructed[0:2]: 0x2875-0x2894 (31)
      |                                               |                |                                    [0]{}: object 0x2875-0x287a (5)
0x2870|               06                              |     .          |                                      class: "universal" (0) 0x2875-0x2875.2 (0.2)
0x2870|               06                              |     .          |                                      form: "primitive" (0) 0x2875.2-0x2875.3 (0.1)
0x2870|               06                              |     .          |                                      tag: "object_identifier" (0x6) 0x2875.3-0x2876 (0.5)
0x2870|                  03                           |      .         |                                      length: 3 0x2876-0x2877 (1)
      |                                               |                |                                      value[0:4]: 0x2877-0x287a (3)
0x2870|                     55                        |       U        |                                        [0]: 2 oid 0x2877-0x2878 (1)
0x2870|                     55                        |       U        |                                        [1]: 5 oid 0x2877-0x2878 (1)
0x2870|                        1d                     |        .       |                                        [2]: 29 oid 0x2878-0x2879 (1)
0x2870|                           23                  |         #      |                                        [3]: 35 oid 0x2879-0x287a (1)
      |                                               |                |                                    [1]{}: object 0x287a-0x2894 (26)
0x2870|                              04               |          .     |                                      class: "universal" (0) 0x287a-0x287a.2 (0.2)
0x2870|                              04               |          .     |                                      form: "primitive" (0) 0x287a.2-0x287a.3 (0.1)
0x2870|                              04               |          .     |                                      tag: "octet_string" (0x4) 0x287a.3-0x287b (0.5)
0x2870|                                 18            |           .    |                                      length: 24 0x287b-0x287c (1)
0x2870|                                    30 16 80 14|            0...|                                      value: raw bits 0x287c-0x2894 (24)
0x2880|c3 c0 84 df 7b 04 0d b0 38 af 51 8c e3 97 f6 ec|....{...8.Q.....|
0x2890|20 d6 26 e6                                    | .&.            |
      |00 01 02 03 04 05 06 07 08 09 0a 0b 0c 0d 0e 0f|0123456789abcdef|
  0x00|03 02 04 f0 04 14 c3 c0 84 df 7b 04 0d b0 38 af|..........{...8.|                          value: raw bits 0x0-0x32 (50)
  *   |until 0x31.7 (end) (50)                        |                |
      |                                               |                |                    [1]{}: object 0x2894-0x28a0 (12)
0x2890|            30                                 |    0           |                      class: "universal" (0) 0x2894-0x2894.2 (0.2)
0x2890|            30                                 |    0           |                      form: "constructed" (1) 0x2894.2-0x2894.3 (0.1)
0x2890|            30                                 |    0           |                      tag: "sequence" (0x10) 0x2894.3-0x2895 (0.5)
0x2890|               0a                              |     .          |                      length: 10 0x2895-0x2896 (1)
      |                                               |                |                      constructed[0:1]: 0x2896-0x28a0 (10)
      |                                               |                |                        [0]{}: object 0x2896-0x28a0 (10)
0x2890|                  06                           |      .         |                          class: "universal" (0) 0x2896-0x2896.2 (0.2)
0x2890|                  06                           |      .         |                          form: "primitive" (0) 0x2896.2-0x2896.3 (0.1)
0x2890|                  06                           |      .         |                          tag: "object_identifier" (0x6) 0x2896.3-0x2897 (0.5)
0x2890|                     08                        |       .        |                          length: 8 0x2897-0x2898 (1)
      |                                               |                |                          value[0:7]: 0x2898-0x28a0 (8)
0x2890|                        2a                     |        *       |                            [0]: 1 oid 0x2898-0x2899 (1)
0x2890|                        2a                     |        *       |                            [1]: 2 oid 0x2898-0x2899 (1)
0x2890|                           86 48               |         .H     |                            [2]: 840 oid 0x2899-0x289b (2)
0x2890|                                 ce 3d         |           .=   |                            [3]: 10045 oid 0x289b-0x289d (2)
0x2890|                                       04      |             .  |                            [4]: 4 oid 0x289d-0x289e (1)
0x2890|                                          03   |              . |                            [5]: 3 oid 0x289e-0x289f (1)
0x2890|                                             02|               .|                            [6]: 2 oid 0x289f-0x28a0 (1)
      |                                               |                |                    [2]{}: object 0x28a0-0x28ea (74)
0x28a0|03                                             |.               |                      class: "universal" (0) 0x28a0-0x28a0.2 (0.2)
0x28a0|03                                             |.               |                      form: "primitive" (0) 0x28a0.2-0x28a0.3 (0.1)
0x28a0|03                                             |.               |                      tag: "bit_string" (0x3) 0x28a0.3-0x28a1 (0.5)
0x28a0|   48                                          | H              |                      length: 72 0x28a1-0x28a2 (1)
0x28a0|      00                                       |  .             |                      unused_bits_count: 0 0x28a2-0x28a3 (1)
0x28a0|         30 45 02 21 00 de 60 1e 57 3d af b5 9b|   0E.!..`.W=...|                      value: raw bits 0x28a3-0x28ea (71)
0x28b0|c5 51 d5 8e 3e 7b 9e da 06 12 dd 01 12 80 5a 22|.Q..>{........Z"|
*     |until 0x28e9.7 (71)                            |                |
      |                                               |                |            [4]{}: object 0x28ea-0x2a78 (398)
0x28e0|                              31               |          1     |              class: "universal" (0) 0x28ea-0x28ea.2 (0.2)
0x28e0|                              31               |          1     |              form: "constructed" (1) 0x28ea.2-0x28ea.3 (0.1)
0x28e0|                              31               |          1     |              tag: "set" (0x11) 0x28ea.3-0x28eb (0.5)
0x28e0|                                 82 01 8a      |           ...  |              length: 394 0x28eb-0x28ee (3)
      |                                               |                |              constructed[0:1]: 0x28ee-0x2a78 (394)
      |                                               |                |                [0]{}: object 0x28ee-0x2a78 (394)
0x28e0|                                          30   |              0 |                  class: "universal" (0) 0x28ee-0x28ee.2 (0.2)
0x28e0|                                          30   |              0 |                  form: "constructed" (1) 0x28ee.2-0x28ee.3 (0.1)
0x28e0|                                          30   |              0 |                  tag: "sequence" (0x10) 0x28ee.3-0x28ef (0.5)
0x28e0|                                             82|               .|                  length: 390 0x28ef-0x28f2 (3)
0x28f0|01 86                                          |..              |
      |                                               |                |                  constructed[0:6]: 0x28f2-0x2a78 (390)
      |                                               |                |                    [0]{}: object 0x28f2-0x28f5 (3)
0x28f0|      02                                       |  .             |                      class: "universal" (0) 0x28f2-0x28f2.2 (0.2)
0x28f0|      02                                       |  .             |                      form: "primitive" (0) 0x28f2.2-0x28f2.3 (0.1)
0x28f0|      02                                       |  .             |                      tag: "integer" (0x2) 0x28f2.3-0x28f3 (0.5)
0x28f0|         01                                    |   .            |                      length: 1 0x28f3-0x28f4 (1)
0x28f0|            01                                 |    .           |                      value: 1 0x28f4-0x28f5 (1)
      |                                               |                |                    [1]{}: object 0x28f5-0x291a (37)
0x28f0|               30                              |     0          |                      class: "universal" (0) 0x28f5-0x28f5.2 (0.2)
0x28f0|               30                              |     0          |                      form: "constructed" (1) 0x28f5.2-0x28f5.3 (0.1)
0x28f0|               30                              |     0          |                      tag: "sequence" (0x10) 0x28f5.3-0x28f6 (0.5)
0x28f0|                  23                           |      #         |                      length: 35 0x28f6-0x28f7 (1)
      |                                               |                |                      constructed[0:2]: 0x28f7-0x291a (35)
      |                                               |                |                        [0]{}: object 0x28f7-0x2908 (17)
0x28f0|                     30                        |       0        |                          class: "universal" (0) 0x28f7-0x28f7.2 (0.2)
0x28f0|                     30                        |       0        |                          form: "constructed" (1) 0x28f7.2-0x28f7.3 (0.1)
0x28f0|                     30                        |       0        |                          tag: "sequence" (0x10) 0x28f7.3-0x28f8 (0.5)
0x28f0|                        0f                     |        .       |                          length: 15 0x28f8-0x28f9 (1)
      |                                               |                |                          constructed[0:1]: 0x28f9-0x2908 (15)
      |                                               |                |                            [0]{}: object 0x28f9-0x2908 (15)
0x28f0|                           31                  |         1      |                              class: "universal" (0) 0x28f9-0x28f9.2 (0.2)
0x28f0|                           31                  |         1      |                              form: "constructed" (1) 0x28f9.2-0x28f9.3 (0.1)
0x28f0|                           31                  |         1      |                              tag: "set" (0x11) 0x28f9.3-0x28fa (0.5)
0x28f0|                              0d               |          .     |                              length: 13 0x28fa-0x28fb (1)
      |                                               |                |                              constructed[0:1]: 0x28fb-0x2908 (13)
      |                                               |                |                                [0]{}: object 0x28fb-0x2908 (13)
0x28f0|                                 30            |           0    |                                  class: "universal" (0) 0x28fb-0x28fb.2 (0.2)
0x28f0|                                 30            |           0    |                                  form: "constructed" (1) 0x28fb.2-0x28fb.3 (0.1)
0x28f0|                                 30            |           0    |                                  tag: "sequence" (0x10) 0x28fb.3-0x28fc (0.5)
0x28f0|                                    0b         |            .   |                                  length: 11 0x28fc-0x28fd (1)
      |                                               |                |                                  constructed[0:2]: 0x28fd-0x2908 (11)
      |                                               |                |                                    [0]{}: object 0x28fd-0x2902 (5)
0x28f0|                                       06      |             .  |                                      class: "universal" (0) 0x28fd-0x28fd.2 (0.2)
0x28f0|                                       06      |             .  |                                      form: "primitive" (0) 0x28fd.2-0x28fd.3 (0.1)
0x28f0|                                       06      |             .  |                                      tag: "object_identifier" (0x6) 0x28fd.3-0x28fe (0.5)
0x28f0|                                          03   |              . |                                      length: 3 0x28fe-0x28ff (1)
      |                                               |                |                                      value[0:4]: 0x28ff-0x2902 (3)
0x28f0|                                             55|               U|                                        [0]: 2 oid 0x28ff-0x2900 (1)
0x28f0|                                             55|               U|                                        [1]: 5 oid 0x28ff-0x2900 (1)
0x2900|04                                             |.               |                                        [2]: 4 oid 0x2900-0x2901 (1)
0x2900|   03                                          | .              |                                        [3]: 3 oid 0x2901-0x2902 (1)
      |                                               |                |                                    [1]{}: object 0x2902-0x2908 (6)
0x2900|      0c                                       |  .             |                                      class: "universal" (0) 0x2902-0x2902.2 (0.2)
0x2900|      0c                                       |  .             |                                      form: "primitive" (0) 0x2902.2-0x2902.3 (0.1)
0x2900|      0c                                       |  .             |                                      tag: "utf8_string" (0xc) 0x2902.3-0x2903 (0.5)
0x2900|         04                                    |   .            |                                      length: 4 0x2903-0x2904 (1)
0x2900|            54 65 73 74                        |    Test        |                                      value: "Test" 0x2904-0x2908 (4)
      |                                               |                |                        [1]{}: object 0x2908-0x291a (18)
0x2900|                        02                     |        .       |                          class: "universal" (0) 0x2908-0x2908.2 (0.2)
0x2900|                        02                     |        .       |                          form: "primitive" (0) 0x2908.2-0x2908.3 (0.1)
0x2900|                        02                     |        .       |                          tag: "integer" (0x2) 0x2908.3-0x2909 (0.5)
0x2900|                           10                  |         .      |                          length: 16 0x2909-0x290a (1)
0x2900|                              60 5c d2 d5 26 75|          `\..&u|                          value: 128087855099855233032551836648087377254 0x290a-0x291a (16)
0x2910|b3 92 a5 aa 9b 02 b2 6a 55 66                  |.......jUf      |
      |                                               |                |                    [2]{}: object 0x291a-0x2929 (15)
0x2910|                              30               |          0     |                      class: "universal" (0) 0x291a-0x291a.2 (0.2)
0x2910|                              30               |          0     |                      form: "constructed" (1) 0x291a.2-0x291a.3 (0.1)
0x2910|                              30               |          0     |                      tag: "sequence" (0x10) 0x291a.3-0x291b (0.5)
0x2910|                                 0d            |           .    |                      length: 13 0x291b-0x291c (1)
      |                                               |                |                      constructed[0:2]: 0x291c-0x2929 (13)
      |                                               |                |                        [0]{}: object 0x291c-0x2927 (11)
0x2910|                                    06         |            .   |                          class: "universal" (0) 0x291c-0x291c.2 (0.2)
0x2910|                                    06         |            .   |                          form: "primitive" (0) 0x291c.2-0x291c.3 (0.1)
0x2910|                                    06         |            .   |                          tag: "object_identifier" (0x6) 0x291c.3-0x291d (0.5)
0x2910|                                       09      |             .  |                          length: 9 0x291d-0x291e (1)
      |                                               |                |                          value[0:9]: 0x291e-0x2927 (9)
0x2910|                                          60   |              ` |                            [0]: 2 oid 0x291e-0x291f (1)
0x2910|                                          60   |              ` |                            [1]: 16 oid 0x291e-0x291f (1)
0x2910|                                             86|               .|                            [2]: 840 oid 0x291f-0x2921 (2)
0x2920|48                                             |H               |
0x2920|   01                                          | .              |                            [3]: 1 oid 0x2921-0x2922 (1)
0x2920|      65                                       |  e             |                            [4]: 101 oid 0x2922-0x2923 (1)
0x2920|         03                                    |   .            |                            [5]: 3 oid 0x2923-0x2924 (1)
0x2920|            04                                 |    .           |                            [6]: 4 oid 0x2924-0x2925 (1)
0x2920|               02                              |     .          |                            [7]: 2 oid 0x2925-0x2926 (1)
0x2920|                  01                           |      .         |                            [8]: 1 oid 0x2926-0x2927 (1)
      |                                               |                |                        [1]{}: object 0x2927-0x2929 (2)
0x2920|                     05                        |       .        |                          class: "universal" (0) 0x2927-0x2927.2 (0.2)
0x2920|                     05                        |       .        |                          form: "primitive" (0) 0x2927.2-0x2927.3 (0.1)
0x2920|                     05                        |       .        |                          tag: "null" (0x5) 0x2927.3-0x2928 (0.5)
0x2920|                        00                     |        .       |                          length: "indefinite" (0) 0x2928-0x2929 (1)
      |                                               |                |                          value: null
      |                                               |                |                    [3]{}: object 0x2929-0x2a23 (250)
0x2920|                           a0                  |         .      |                      class: "context" (2) 0x2929-0x2929.2 (0.2)
0x2920|                           a0                  |         .      |                      form: "constructed" (1) 0x2929.2-0x2929.3 (0.1)
0x2920|                           a0                  |         .      |                      tag: 0 0x2929.3-0x292a (0.5)
0x2920|                              81 f7            |          ..    |                      length: 247 0x292a-0x292c (2)
      |                                               |                |                      constructed[0:5]: 0x292c-0x2a23 (247)
      |                                               |                |                        [0]{}: object 0x292c-0x2946 (26)
0x2920|                                    30         |            0   |                          class: "universal" (0) 0x292c-0x292c.2 (0.2)
0x2920|                                    30         |            0   |                          form: "constructed" (1) 0x292c.2-0x292c.3 (0.1)
0x2920|                                    30         |            0   |                          tag: "sequence" (0x10) 0x292c.3-0x292d (0.5)
0x2920|                                       18      |             .  |                          length: 24 0x292d-0x292e (1)
      |                                               |                |                          constructed[0:2]: 0x292e-0x2946 (24)
      |                                               |                |                            [0]{}: object 0x292e-0x2939 (11)
0x2920|                                          06   |              . |                              class: "universal" (0) 0x292e-0x292e.2 (0.2)
0x2920|                                          06   |              . |                              form: "primitive" (0) 0x292e.2-0x292e.3 (0.1)
0x2920|                                          06   |              . |                              tag: "object_identifier" (0x6) 0x292e.3-0x292f (0.5)
0x2920|                                             09|               .|                              length: 9 0x292f-0x2930 (1)
      |                                               |                |                              value[0:7]: 0x2930-0x2939 (9)
0x2930|2a                                             |*               |                                [0]: 1 oid 0x2930-0x2931 (1)
0x2930|2a                                             |*               |                                [1]: 2 oid 0x2930-0x2931 (1)
0x2930|   86 48                                       | .H             |                                [2]: 840 oid 0x2931-0x2933 (2)
0x2930|         86 f7 0d                              |   ...          |                                [3]: 113549 oid 0x2933-0x2936 (3)
0x2930|                  01                           |      .         |                                [4]: 1 oid 0x2936-0x2937 (1)
0x2930|                     09                        |       .        |                                [5]: 9 oid 0x2937-0x2938 (1)
0x2930|                        03                     |        .       |                                [6]: 3 oid 0x2938-0x2939 (1)
      |                                               |                |                            [1]{}: object 0x2939-0x2946 (13)
0x2930|                           31                  |         1      |                              class: "universal" (0) 0x2939-0x2939.2 (0.2)
0x2930|                           31                  |         1      |                              form: "constructed" (1) 0x2939.2-0x2939.3 (0.1)
0x2930|                           31                  |         1      |                              tag: "set" (0x11) 0x2939.3-0x293a (0.5)
0x2930|                              0b               |          .     |                              length: 11 0x293a-0x293b (1)
      |                                               |                |                              constructed[0:1]: 0x293b-0x2946 (11)
      |                                               |                |                                [0]{}: object 0x293b-0x2946 (11)
0x2930|                                 06            |           .    |                                  class: "universal" (0) 0x293b-0x293b.2 (0.2)
0x2930|                                 06            |           .    |                                  form: "primitive" (0) 0x293b.2-0x293b.3 (0.1)
0x2930|                                 06            |           .    |                                  tag: "object_identifier" (0x6) 0x293b.3-0x293c (0.5)
0x2930|                                    09         |            .   |                                  length: 9 0x293c-0x293d (1)
      |                                               |                |                                  value[0:7]: 0x293d-0x2946 (9)
0x2930|                                       2a      |             *  |                                    [0]: 1 oid 0x293d-0x293e (1)
0x2930|                                       2a      |             *  |                                    [1]: 2 oid 0x293d-0x293e (1)
0x2930|                                          86 48|              .H|                                    [2]: 840 oid 0x293e-0x2940 (2)
0x2940|86 f7 0d                                       |...             |                                    [3]: 113549 oid 0x2940-0x2943 (3)
0x2940|         01                                    |   .            |                                    [4]: 1 oid 0x2943-0x2944 (1)
0x2940|            07                                 |    .           |                                    [5]: 7 oid 0x2944-0x2945 (1)
0x2940|               01                              |     .          |                                    [6]: 1 oid 0x2945-0x2946 (1)
      |                                               |                |                        [1]{}: object 0x2946-0x2964 (30)
0x2940|                  30                           |      0         |                          class: "universal" (0) 0x2946-0x2946.2 (0.2)
0x2940|                  30                           |      0         |                          form: "constructed" (1) 0x2946.2-0x2946.3 (0.1)
0x2940|                  30                           |      0         |                          tag: "sequence" (0x10) 0x2946.3-0x2947 (0.5)
0x2940|                     1c                        |       .        |                          length: 28 0x2947-0x2948 (1)
      |                                               |                |                          constructed[0:2]: 0x2948-0x2964 (28)
      |                                               |                |                            [0]{}: object 0x2948-0x2953 (11)
0x2940|                        06                     |        .       |                              class: "universal" (0) 0x2948-0x2948.2 (0.2)
0x2940|                        06                     |        .       |                              form: "primitive" (0) 0x2948.2-0x2948.3 (0.1)
0x2940|                        06                     |        .       |                              tag: "object_identifier" (0x6) 0x2948.3-0x2949 (0.5)
0x2940|                           09                  |         .      |                              length: 9 0x2949-0x294a (1)
      |                                               |                |                              value[0:7]: 0x294a-0x2953 (9)
0x2940|                              2a               |          *     |                                [0]: 1 oid 0x294a-0x294b (1)
0x2940|                              2a               |          *     |                                [1]: 2 oid 0x294a-0x294b (1)
0x2940|                                 86 48         |           .H   |                                [2]: 840 oid 0x294b-0x294d (2)
0x2940|                                       86 f7 0d|             ...|                                [3]: 113549 oid 0x294d-0x2950 (3)
0x2950|01                                             |.               |                                [4]: 1 oid 0x2950-0x2951 (1)
0x2950|   09                                          | .              |                                [5]: 9 oid 0x2951-0x2952 (1)
0x2950|      05                                       |  .             |                                [6]: 5 oid 0x2952-0x2953 (1)
      |                                               |                |                            [1]{}: object 0x2953-0x2964 (17)
0x2950|         31                                    |   1            |                              class: "universal" (0) 0x2953-0x2953.2 (0.2)
0x2950|         31                                    |   1            |                              form: "constructed" (1) 0x2953.2-0x2953.3 (0.1)
0x2950|         31                                    |   1            |                              tag: "set" (0x11) 0x2953.3-0x2954 (0.5)
0x2950|            0f                                 |    .           |                              length: 15 0x2954-0x2955 (1)
      |                                               |                |                              constructed[0:1]: 0x2955-0x2964 (15)
      |                                               |                |                                [0]{}: object 0x2955-0x2964 (15)
0x2950|               17                              |     .          |                                  class: "universal" (0) 0x2955-0x2955.2 (0.2)
0x2950|               17                              |     .          |                                  form: "primitive" (0) 0x2955.2-0x2955.3 (0.1)
0x2950|               17                              |     .          |                                  tag: "utc_time" (0x17) 0x2955.3-0x2956 (0.5)
0x2950|                  0d                           |      .         |                                  length: 13 0x2956-0x2957 (1)
0x2950|                     31 38 30 37 31 36 31 34 35|       180716145|                                  value: "180716145635Z" 0x2957-0x2964 (13)
0x2960|36 33 35 5a                                    |635Z            |
      |                                               |                |                        [2]{}: object 0x2964-0x2990 (44)
0x2960|            30                                 |    0           |                          class: "universal" (0) 0x2964-0x2964.2 (0.2)
0x2960|            30                                 |    0           |                          form: "constructed" (1) 0x2964.2-0x2964.3 (0.1)
0x2960|            30                                 |    0           |                          tag: "sequence" (0x10) 0x2964.3-0x2965 (0.5)
0x2960|               2a                              |     *          |                          length: 42 0x2965-0x2966 (1)
      |                                               |                |                          constructed[0:2]: 0x2966-0x2990 (42)
      |                                               |                |                            [0]{}: object 0x2966-0x2971 (11)
0x2960|                  06                           |      .         |                              class: "universal" (0) 0x2966-0x2966.2 (0.2)
0x2960|                  06                           |      .         |                              form: "primitive" (0) 0x2966.2-0x2966.3 (0.1)
0x2960|                  06                           |      .         |                              tag: "object_identifier" (0x6) 0x2966.3-0x2967 (0.5)
0x2960|                     09                        |       .        |                              length: 9 0x2967-0x2968 (1)
      |                                               |                |                              value[0:7]: 0x2968-0x2971 (9)
0x2960|                        2a                     |        *       |                                [0]: 1 oid 0x2968-0x2969 (1)
0x2960|                        2a                     |        *       |                                [1]: 2 oid 0x2968-0x2969 (1)
0x2960|                           86 48               |         .H     |                                [2]: 840 oid 0x2969-0x296b (2)
0x2960|                                 86 f7 0d      |           ...  |                                [3]: 113549 oid 0x296b-0x296e (3)
0x2960|                                          01   |              . |                                [4]: 1 oid 0x296e-0x296f (1)
0x2960|                                             09|               .|                                [5]: 9 oid 0x296f-0x2970 (1)
0x2970|34                                             |4               |                                [6]: 52 oid 0x2970-0x2971 (1)
      |                                               |                |                            [1]{}: object 0x2971-0x2990 (31)
0x2970|   31                                          | 1              |                              class: "universal" (0) 0x2971-0x2971.2 (0.2)
0x2970|   31                                          | 1              |                              form: "constructed" (1) 0x2971.2-0x2971.3 (0.1)
0x2970|   31                                          | 1              |                              tag: "set" (0x11) 0x2971.3-0x2972 (0.5)
0x2970|      1d                                       |  .             |                              length: 29 0x2972-0x2973 (1)
      |                                               |                |                              constructed[0:1]: 0x2973-0x2990 (29)
      |                                               |                |                                [0]{}: object 0x2973-0x2990 (29)
0x2970|         30                                    |   0            |                                  class: "universal" (0) 0x2973-0x2973.2 (0.2)
0x2970|         30                                    |   0            |                                  form: "constructed" (1) 0x2973.2-0x2973.3 (0.1)
0x2970|         30                                    |   0            |                                  tag: "sequence" (0x10) 0x2973.3-0x2974 (0.5)
0x2970|            1b                                 |    .           |                                  length: 27 0x2974-0x2975 (1)
      |                                               |                |                                  constructed[0:2]: 0x2975-0x2990 (27)
      |                                               |                |                                    [0]{}: object 0x2975-0x2984 (15)
0x2970|               30                              |     0          |                                      class: "universal" (0) 0x2975-0x2975.2 (0.2)
0x2970|               30                              |     0          |                                      form: "constructed" (1) 0x2975.2-0x2975.3 (0.1)
0x2970|               30                              |     0          |                                      tag: "sequence" (0x10) 0x2975.3-0x2976 (0.5)
0x2970|                  0d                           |      .         |                                      length: 13 0x2976-0x2977 (1)
      |                                               |                |                                      constructed[0:2]: 0x2977-0x2984 (13)
      |                                               |                |                                        [0]{}: object 0x2977-0x2982 (11)
0x2970|                     06                        |       .        |                                          class: "universal" (0) 0x2977-0x2977.2 (0.2)
0x2970|                     06                        |       .        |                                          form: "primitive" (0) 0x2977.2-0x2977.3 (0.1)
0x2970|                     06                        |       .        |                                          tag: "object_identifier" (0x6) 0x2977.3-0x2978 (0.5)
0x2970|                        09                     |        .       |                                          length: 9 0x2978-0x2979 (1)
      |                                               |                |                                          value[0:9]: 0x2979-0x2982 (9)
0x2970|                           60                  |         `      |                                            [0]: 2 oid 0x2979-0x297a (1)
0x2970|                           60                  |         `      |                                            [1]: 16 oid 0x2979-0x297a (1)
0x2970|                              86 48            |          .H    |                                            [2]: 840 oid 0x297a-0x297c (2)
0x2970|                                    01         |            .   |                                            [3]: 1 oid 0x297c-0x297d (1)
0x2970|                                       65      |             e  |                                            [4]: 101 oid 0x297d-0x297e (1)
0x2970|                                          03   |              . |                                            [5]: 3 oid 0x297e-0x297f (1)
0x2970|                                             04|               .|                                            [6]: 4 oid 0x297f-0x2980 (1)
0x2980|02                                             |.               |                                            [7]: 2 oid 0x2980-0x2981 (1)
0x2980|   01                                          | .              |                                            [8]: 1 oid 0x2981-0x2982 (1)
      |                                               |                |                                        [1]{}: object 0x2982-0x2984 (2)
0x2980|      05                                       |  .             |                                          class: "universal" (0) 0x2982-0x2982.2 (0.2)
0x2980|      05                                       |  .             |                                          form: "primitive" (0) 0x2982.2-0x2982.3 (0.1)
0x2980|      05                                       |  .             |                                          tag: "null" (0x5) 0x2982.3-0x2983 (0.5)
0x2980|         00                                    |   .            |                                          length: "indefinite" (0) 0x2983-0x2984 (1)
      |                                               |                |                                          value: null
      |                                               |                |                                    [1]{}: object 0x2984-0x2990 (12)
0x2980|            a1                                 |    .           |                                      class: "context" (2) 0x2984-0x2984.2 (0.2)
0x2980|            a1                                 |    .           |                                      form: "constructed" (1) 0x2984.2-0x2984.3 (0.1)
0x2980|            a1                                 |    .           |                                      tag: 1 0x2984.3-0x2985 (0.5)
0x2980|               0a                              |     .          |                                      length: 10 0x2985-0x2986 (1)
      |                                               |                |                                      constructed[0:1]: 0x2986-0x2990 (10)
      |                                               |                |                                        [0]{}: object 0x2986-0x2990 (10)
0x2980|                  06                           |      .         |                                          class: "universal" (0) 0x2986-0x2986.2 (0.2)
0x2980|                  06                           |      .         |                                          form: "primitive" (0) 0x2986.2-0x2986.3 (0.1)
0x2980|                  06                           |      .         |                                          tag: "object_identifier" (0x6) 0x2986.3-0x2987 (0.5)
0x2980|                     08                        |       .        |                                          length: 8 0x2987-0x2988 (1)
      |                                               |                |                                          value[0:7]: 0x2988-0x2990 (8)
0x2980|                        2a                     |        *       |                                            [0]: 1 oid 0x2988-0x2989 (1)
0x2980|                        2a                     |        *       |                                            [1]: 2 oid 0x2988-0x2989 (1)
0x2980|                           86 48               |         .H     |                                            [2]: 840 oid 0x2989-0x298b (2)
0x2980|                                 ce 3d         |           .=   |                                            [3]: 10045 oid 0x298b-0x298d (2)
0x2980|                                       04      |             .  |                                            [4]: 4 oid 0x298d-0x298e (1)
0x2980|                                          03   |              . |                                            [5]: 3 oid 0x298e-0x298f (1)
0x2980|                                             02|               .|                                            [6]: 2 oid 0x298f-0x2990 (1)
      |                                               |                |                        [3]{}: object 0x2990-0x29c1 (49)
0x2990|30                                             |0               |                          class: "universal" (0) 0x2990-0x2990.2 (0.2)
0x2990|30                                             |0               |                          form: "constructed" (1) 0x2990.2-0x2990.3 (0.1)
0x2990|30                                             |0               |                          tag: "sequence" (0x10) 0x2990.3-0x2991 (0.5)
0x2990|   2f                                          | /              |                          length: 47 0x2991-0x2992 (1)
      |                                               |                |                          constructed[0:2]: 0x2992-0x29c1 (47)
      |                                               |                |                            [0]{}: object 0x2992-0x299d (11)
0x2990|      06                                       |  .             |                              class: "universal" (0) 0x2992-0x2992.2 (0.2)
0x2990|      06                                       |  .             |                              form: "primitive" (0) 0x2992.2-0x2992.3 (0.1)
0x2990|      06                                       |  .             |                              tag: "object_identifier" (0x6) 0x2992.3-0x2993 (0.5)
0x2990|         09                                    |   .            |                              length: 9 0x2993-0x2994 (1)
      |                                               |                |                              value[0:7]: 0x2994-0x299d (9)
0x2990|            2a                                 |    *           |                                [0]: 1 oid 0x2994-0x2995 (1)
0x2990|            2a                                 |    *           |                                [1]: 2 oid 0x2994-0x2995 (1)
0x2990|               86 48                           |     .H         |                                [2]: 840 oid 0x2995-0x2997 (2)
0x2990|                     86 f7 0d                  |       ...      |                                [3]: 113549 oid 0x2997-0x299a (3)
0x2990|                              01               |          .     |                                [4]: 1 oid 0x299a-0x299b (1)
0x2990|                                 09            |           .    |                                [5]: 9 oid 0x299b-0x299c (1)
0x2990|                                    04         |            .   |                                [6]: 4 oid 0x299c-0x299d (1)
      |                                               |                |                            [1]{}: object 0x299d-0x29c1 (36)
0x2990|                                       31      |             1  |                              class: "universal" (0) 0x299d-0x299d.2 (0.2)
0x2990|                                       31      |             1  |                              form: "constructed" (1) 0x299d.2-0x299d.3 (0.1)
0x2990|                                       31      |             1  |                              tag: "set" (0x11) 0x299d.3-0x299e (0.5)
0x2990|                                          22   |              " |                              length: 34 0x299e-0x299f (1)
      |                                               |                |                              constructed[0:1]: 0x299f-0x29c1 (34)
      |                                               |                |                                [0]{}: object 0x299f-0x29c1 (34)
0x2990|                                             04|               .|                                  class: "universal" (0) 0x299f-0x299f.2 (0.2)
0x2990|                                             04|               .|                                  form: "primitive" (0) 0x299f.2-0x299f.3 (0.1)
0x2990|                                             04|               .|                                  tag: "octet_string" (0x4) 0x299f.3-0x29a0 (0.5)
0x29a0|20                                             |                |                                  length: 32 0x29a0-0x29a1 (1)
0x29a0|   72 4c 51 bb e7 6d a0 5a fb 20 cb e8 eb 03 7c| rLQ..m.Z. ....||                                  value: raw bits 0x29a1-0x29c1 (32)
0x29b0|da e1 af d7 13 12 5d 2d c1 3d 55 2d a9 f4 42 d2|......]-.=U-..B.|
0x29c0|4d                                             |M               |
      |                                               |                |                        [4]{}: object 0x29c1-0x2a23 (98)
0x29c0|   30                                          | 0              |                          class: "universal" (0) 0x29c1-0x29c1.2 (0.2)
0x29c0|   30                                          | 0              |                          form: "constructed" (1) 0x29c1.2-0x29c1.3 (0.1)
0x29c0|   30                                          | 0              |                          tag: "sequence" (0x10) 0x29c1.3-0x29c2 (0.5)
0x29c0|      60                                       |  `             |                          length: 96 0x29c2-0x29c3 (1)
      |                                               |                |                          constructed[0:2]: 0x29c3-0x2a23 (96)
      |                                               |                |                            [0]{}: object 0x29c3-0x29d0 (13)
0x29c0|         06                                    |   .            |                              class: "universal" (0) 0x29c3-0x29c3.2 (0.2)
0x29c0|         06                                    |   .            |                              form: "primitive" (0) 0x29c3.2-0x29c3.3 (0.1)
0x29c0|         06                                    |   .            |                              tag: "object_identifier" (0x6) 0x29c3.3-0x29c4 (0.5)
0x29c0|            0b                                 |    .           |                              length: 11 0x29c4-0x29c5 (1)
      |                                               |                |                              value[0:9]: 0x29c5-0x29d0 (11)
0x29c0|               2a                              |     *          |                                [0]: 1 oid 0x29c5-0x29c6 (1)
0x29c0|               2a                              |     *          |                                [1]: 2 oid 0x29c5-0x29c6 (1)
0x29c0|                  86 48                        |      .H        |                                [2]: 840 oid 0x29c6-0x29c8 (2)
0x29c0|                        86 f7 0d               |        ...     |                                [3]: 113549 oid 0x29c8-0x29cb (3)
0x29c0|                                 01            |           .    |                                [4]: 1 oid 0x29cb-0x29cc (1)
0x29c0|                                    09         |            .   |                                [5]: 9 oid 0x29cc-0x29cd (1)
0x29c0|                                       10      |             .  |                                [6]: 16 oid 0x29cd-0x29ce (1)
0x29c0|                                          02   |              . |                                [7]: 2 oid 0x29ce-0x29cf (1)
0x29c0|                                             2f|               /|                                [8]: 47 oid 0x29cf-0x29d0 (1)
      |                                               |                |                            [1]{}: object 0x29d0-0x2a23 (83)
0x29d0|31                                             |1               |                              class: "universal" (0) 0x29d0-0x29d0.2 (0.2)
0x29d0|31                                             |1               |                              form: "constructed" (1) 0x29d0.2-0x29d0.3 (0.1)
0x29d0|31                                             |1               |                              tag: "set" (0x11) 0x29d0.3-0x29d1 (0.5)
0x29d0|   51                                          | Q              |                              length: 81 0x29d1-0x29d2 (1)
      |                                               |                |                              constructed[0:1]: 0x29d2-0x2a23 (81)
      |                                               |                |                                [0]{}: object 0x29d2-0x2a23 (81)
0x29d0|      30                                       |  0             |                                  class: "universal" (0) 0x29d2-0x29d2.2 (0.2)
0x29d0|      30                                       |  0             |                                  form: "constructed" (1) 0x29d2.2-0x29d2.3 (0.1)
0x29d0|      30                                       |  0             |                                  tag: "sequence" (0x10) 0x29d2.3-0x29d3 (0.5)
0x29d0|         4f                                    |   O            |                                  length: 79 0x29d3-0x29d4 (1)
      |                                               |                |                                  constructed[0:1]: 0x29d4-0x2a23 (79)
      |                                               |                |                                    [0]{}: object 0x29d4-0x2a23 (79)
0x29d0|            30                                 |    0           |                                      class: "universal" (0) 0x29d4-0x29d4.2 (0.2)
0x29d0|            30                                 |    0           |                                      form: "constructed" (1) 0x29d4.2-0x29d4.3 (0.1)
0x29d0|            30                                 |    0           |                                      tag: "sequence" (0x10) 0x29d4.3-0x29d5 (0.5)
0x29d0|               4d                              |     M          |                                      length: 77 0x29d5-0x29d6 (1)
      |                                               |                |                                      constructed[0:1]: 0x29d6-0x2a23 (77)
      |                                               |                |                                        [0]{}: object 0x29d6-0x2a23 (77)
0x29d0|                  30                           |      0         |                                          class: "universal" (0) 0x29d6-0x29d6.2 (0.2)
0x29d0|                  30                           |      0         |                                          form: "constructed" (1) 0x29d6.2-0x29d6.3 (0.1)
0x29d0|                  30                           |      0         |                                          tag: "sequence" (0x10) 0x29d6.3-0x29d7 (0.5)
0x29d0|                     4b                        |       K        |                                          length: 75 0x29d7-0x29d8 (1)
      |                                               |                |                                          constructed[0:2]: 0x29d8-0x2a23 (75)
      |                                               |                |                                            [0]{}: object 0x29d8-0x29fa (34)
0x29d0|                        04                     |        .       |                                              class: "universal" (0) 0x29d8-0x29d8.2 (0.2)
0x29d0|                        04                     |        .       |                                              form: "primitive" (0) 0x29d8.2-0x29d8.3 (0.1)
0x29d0|                        04                     |        .       |                                              tag: "octet_string" (0x4) 0x29d8.3-0x29d9 (0.5)
0x29d0|                           20                  |                |                                              length: 32 0x29d9-0x29da (1)
0x29d0|                              ba bc 08 43 4c 58|          ...CLX|                                              value: raw bits 0x29da-0x29fa (32)
0x29e0|26 73 01 e0 06 86 1d 27 ec a1 25 67 0e 79 27 97|&s.....'..%g.y'.|
0x29f0|24 8e 76 a5 71 7a 5b f9 93 c2                  |$.v.qz[...      |
      |                                               |                |                                            [1]{}: object 0x29fa-0x2a23 (41)
0x29f0|                              30               |          0     |                                              class: "universal" (0) 0x29fa-0x29fa.2 (0.2)
0x29f0|                              30               |          0     |                                              form: "constructed" (1) 0x29fa.2-0x29fa.3 (0.1)
0x29f0|                              30               |          0     |                                              tag: "sequence" (0x10) 0x29fa.3-0x29fb (0.5)
0x29f0|                                 27            |           '    |                                              length: 39 0x29fb-0x29fc (1)
      |                                               |                |                                              constructed[0:2]: 0x29fc-0x2a23 (39)
      |                                               |                |                                                [0]{}: object 0x29fc-0x2a11 (21)
0x29f0|                                    30         |            0   |                                                  class: "universal" (0) 0x29fc-0x29fc.2 (0.2)
0x29f0|                                    30         |            0   |                                                  form: "constructed" (1) 0x29fc.2-0x29fc.3 (0.1)
0x29f0|                                    30         |            0   |                                                  tag: "sequence" (0x10) 0x29fc.3-0x29fd (0.5)
0x29f0|                                       13      |             .  |                                                  length: 19 0x29fd-0x29fe (1)
      |                                               |                |                                                  constructed[0:1]: 0x29fe-0x2a11 (19)
      |                                               |                |                                                    [0]{}: object 0x29fe-0x2a11 (19)
0x29f0|                                          a4   |              . |                                                      class: "context" (2) 0x29fe-0x29fe.2 (0.2)
0x29f0|                                          a4   |              . |                                                      form: "constructed" (1) 0x29fe.2-0x29fe.3 (0.1)
0x29f0|                                          a4   |              . |                                                      tag: 4 0x29fe.3-0x29ff (0.5)
0x29f0|                                             11|               .|                                                      length: 17 0x29ff-0x2a00 (1)
      |                                               |                |                                                      constructed[0:1]: 0x2a00-0x2a11 (17)
      |                                               |                |                                                        [0]{}: object 0x2a00-0x2a11 (17)
0x2a00|30                                             |0               |                                                          class: "universal" (0) 0x2a00-0x2a00.2 (0.2)
0x2a00|30                                             |0               |                                                          form: "constructed" (1) 0x2a00.2-0x2a00.3 (0.1)
0x2a00|30                                             |0               |                                                          tag: "sequence" (0x10) 0x2a00.3-0x2a01 (0.5)
0x2a00|   0f                                          | .              |                                                          length: 15 0x2a01-0x2a02 (1)
      |                                               |                |                                                          constructed[0:1]: 0x2a02-0x2a11 (15)
      |                                               |                |                                                            [0]{}: object 0x2a02-0x2a11 (15)
0x2a00|      31                                       |  1             |                                                              class: "universal" (0) 0x2a02-0x2a02.2 (0.2)
0x2a00|      31                                       |  1             |                                                              form: "constructed" (1) 0x2a02.2-0x2a02.3 (0.1)
0x2a00|      31                                       |  1             |                                                              tag: "set" (0x11) 0x2a02.3-0x2a03 (0.5)
0x2a00|         0d                                    |   .            |                                                              length: 13 0x2a03-0x2a04 (1)
      |                                               |                |                                                              constructed[0:1]: 0x2a04-0x2a11 (13)
      |                                               |                |                                                                [0]{}: object 0x2a04-0x2a11 (13)
0x2a00|            30                                 |    0           |                                                                  class: "universal" (0) 0x2a04-0x2a04.2 (0.2)
0x2a00|            30                                 |    0           |                                                                  form: "constructed" (1) 0x2a04.2-0x2a04.3 (0.1)
0x2a00|            30                                 |    0           |                                                                  tag: "sequence" (0x10) 0x2a04.3-0x2a05 (0.5)
0x2a00|               0b                              |     .          |                                                                  length: 11 0x2a05-0x2a06 (1)
      |                                               |                |                                                                  constructed[0:2]: 0x2a06-0x2a11 (11)
      |                                               |                |                                                                    [0]{}: object 0x2a06-0x2a0b (5)
0x2a00|                  06                           |      .         |                                                                      class: "universal" (0) 0x2a06-0x2a06.2 (0.2)
0x2a00|                  06                           |      .         |                                                                      form: "primitive" (0) 0x2a06.2-0x2a06.3 (0.1)
0x2a00|                  06                           |      .         |                                                                      tag: "object_identifier" (0x6) 0x2a06.3-0x2a07 (0.5)
0x2a00|                     03                        |       .        |                                                                      length: 3 0x2a07-0x2a08 (1)
      |                                               |                |                                                                      value[0:4]: 0x2a08-0x2a0b (3)
0x2a00|                        55                     |        U       |                                                                        [0]: 2 oid 0x2a08-0x2a09 (1)
0x2a00|                        55                     |        U       |                                                                        [1]: 5 oid 0x2a08-0x2a09 (1)
0x2a00|                           04                  |         .      |                                                                        [2]: 4 oid 0x2a09-0x2a0a (1)
0x2a00|                              03               |          .     |                                                                        [3]: 3 oid 0x2a0a-0x2a0b (1)
      |                                               |                |                                                                    [1]{}: object 0x2a0b-0x2a11 (6)
0x2a00|                                 0c            |           .    |                                                                      class: "universal" (0) 0x2a0b-0x2a0b.2 (0.2)
0x2a00|                                 0c            |           .    |                                                                      form: "primitive" (0) 0x2a0b.2-0x2a0b.3 (0.1)
0x2a00|                                 0c            |           .    |                                                                      tag: "utf8_string" (0xc) 0x2a0b.3-0x2a0c (0.5)
0x2a00|                                    04         |            .   |                                                                      length: 4 0x2a0c-0x2a0d (1)
0x2a00|                                       54 65 73|             Tes|                                                                      value: "Test" 0x2a0d-0x2a11 (4)
0x2a10|74                                             |t               |
      |00 01 02 03 04 05 06 07 08 09 0a 0b 0c 0d 0e 0f|0123456789abcdef|                                                      value: raw bits 0x0-0x0 (0)
      |                                               |                |                                                [1]{}: object 0x2a11-0x2a23 (18)
0x2a10|   02                                          | .              |                                                  class: "universal" (0) 0x2a11-0x2a11.2 (0.2)
0x2a10|   02                                          | .              |                                                  form: "primitive" (0) 0x2a11.2-0x2a11.3 (0.1)
0x2a10|   02                                          | .              |                                                  tag: "integer" (0x2) 0x2a11.3-0x2a12 (0.5)
0x2a10|      10                                       |  .             |                                                  length: 16 0x2a12-0x2a13 (1)
0x2a10|         60 5c d2 d5 26 75 b3 92 a5 aa 9b 02 b2|   `\..&u.......|                                                  value: 128087855099855233032551836648087377254 0x2a13-0x2a23 (16)
0x2a20|6a 55 66                                       |jUf             |
      |                                               |                |                    [4]{}: object 0x2a23-0x2a2f (12)
0x2a20|         30                                    |   0            |                      class: "universal" (0) 0x2a23-0x2a23.2 (0.2)
0x2a20|         30                                    |   0            |                      form: "constructed" (1) 0x2a23.2-0x2a23.3 (0.1)
0x2a20|         30                                    |   0            |                      tag: "sequence" (0x10) 0x2a23.3-0x2a24 (0.5)
0x2a20|            0a                                 |    .           |                      length: 10 0x2a24-0x2a25 (1)
      |                                               |                |                      constructed[0:1]: 0x2a25-0x2a2f (10)
      |                                               |                |                        [0]{}: object 0x2a25-0x2a2f (10)
0x2a20|               06                              |     .          |                          class: "universal" (0) 0x2a25-0x2a25.2 (0.2)
0x2a20|               06                              |     .          |                          form: "primitive" (0) 0x2a25.2-0x2a25.3 (0.1)
0x2a20|               06                              |     .          |                          tag: "object_identifier" (0x6) 0x2a25.3-0x2a26 (0.5)
0x2a20|                  08                           |      .         |                          length: 8 0x2a26-0x2a27 (1)
      |                                               |                |                          value[0:7]: 0x2a27-0x2a2f (8)
0x2a20|                     2a                        |       *        |                            [0]: 1 oid 0x2a27-0x2a28 (1)
0x2a20|                     2a                        |       *        |                            [1]: 2 oid 0x2a27-0x2a28 (1)
0x2a20|                        86 48                  |        .H      |                            [2]: 840 oid 0x2a28-0x2a2a (2)
0x2a20|                              ce 3d            |          .=    |                            [3]: 10045 oid 0x2a2a-0x2a2c (2)
0x2a20|                                    04         |            .   |                            [4]: 4 oid 0x2a2c-0x2a2d (1)
0x2a20|                                       03      |             .  |                            [5]: 3 oid 0x2a2d-0x2a2e (1)
0x2a20|                                          02   |              . |                            [6]: 2 oid 0x2a2e-0x2a2f (1)
      |                                               |                |                    [5]{}: object 0x2a2f-0x2a78 (73)
0x2a20|                                             04|               .|                      class: "universal" (0) 0x2a2f-0x2a2f.2 (0.2)
0x2a20|                                             04|               .|                      form: "primitive" (0) 0x2a2f.2-0x2a2f.3 (0.1)
0x2a20|                                             04|               .|                      tag: "octet_string" (0x4) 0x2a2f.3-0x2a30 (0.5)
0x2a30|47                                             |G               |                      length: 71 0x2a30-0x2a31 (1)
0x2a30|   30 45 02 21 00 f1 04 30 2e ab b4 28 ec c8 e7| 0E.!...0...(...|                      value: raw bits 0x2a31-0x2a78 (71)
0x2a40|1c e2 e3 8f 6c be d8 48 a8 e9 a2 b5 d5 da 19 93|....l..H........|
*     |until 0x2a77.7 (end) (71)                      |                |
