$ fq -d asn1_ber dv tc11.ber
   |00 01 02 03 04 05 06 07 08 09 0a 0b 0c 0d 0e 0f|0123456789abcdef|.{}: tc11.ber (asn1_ber) 0x0-0xb (11)
0x0|09                                             |.               |  class: "universal" (0) 0x0-0x0.2 (0.2)
0x0|09                                             |.               |  form: "primitive" (0) 0x0.2-0x0.3 (0.1)
0x0|09                                             |.               |  tag: "real" (0x9) 0x0.3-0x1 (0.5)
0x0|   09                                          | .              |  length: 9 0x1-0x2 (1)
0x0|      11                                       |  .             |  binary_encoding: false 0x2-0x2.1 (0.1)
0x0|      11                                       |  .             |  decimal_encoding: false 0x2.1-0x2.2 (0.1)
0x0|      11                                       |  .             |  representation: 17 0x2.2-0x3 (0.6)
0x0|         20 20 30 31 35 36 32 35|              |     015625|    |  value: 0 0x3-0xb (8)
