$ fq -d asn1_ber dv tc24.ber
    |00 01 02 03 04 05 06 07 08 09 0a 0b 0c 0d 0e 0f|0123456789abcdef|.{}: tc24.ber (asn1_ber) 0x0-0x17 (23)
0x00|06                                             |.               |  class: "universal" (0) 0x0-0x0.2 (0.2)
0x00|06                                             |.               |  form: "primitive" (0) 0x0.2-0x0.3 (0.1)
0x00|06                                             |.               |  tag: "object_identifier" (0x6) 0x0.3-0x1 (0.5)
0x00|   15                                          | .              |  length: 21 0x1-0x2 (1)
    |                                               |                |  value[0:11]: 0x2-0x17 (21)
0x00|      ce                                       |  .             |    [0]: 5 oid 0x2-0x3 (1)
0x00|      ce                                       |  .             |    [1]: 6 oid 0x2-0x3 (1)
0x00|         60                                    |   `            |    [2]: 96 oid 0x3-0x4 (1)
0x00|            86 48                              |    .H          |    [3]: 840 oid 0x4-0x6 (2)
0x00|                  88 9f 4f                     |      ..O       |    [4]: 135119 oid 0x6-0x9 (3)
0x00|                           09                  |         .      |    [5]: 9 oid 0x9-0xa (1)
0x00|                              02               |          .     |    [6]: 2 oid 0xa-0xb (1)
0x00|                                 85 ee e5 4a   |           ...J |    [7]: 12301002 oid 0xb-0xf (4)
0x00|                                             85|               .|    [8]: 12132323 oid 0xf-0x13 (4)
0x10|e4 bf 63                                       |..c             |
0x10|         8b db 2f                              |   ../          |    [9]: 191919 oid 0x13-0x16 (3)
0x10|                  02|                          |      .|        |    [10]: 2 oid 0x16-0x17 (1)
