$ fq -d asn1_ber dv tc36.ber
     |00 01 02 03 04 05 06 07 08 09 0a 0b 0c 0d 0e 0f|0123456789abcdef|.{}: tc36.ber (asn1_ber) 0x0-0x14 (20)
0x000|23                                             |#               |  class: "universal" (0) 0x0-0x0.2 (0.2)
0x000|23                                             |#               |  form: "constructed" (1) 0x0.2-0x0.3 (0.1)
0x000|23                                             |#               |  tag: "bit_string" (0x3) 0x0.3-0x1 (0.5)
0x000|   80                                          | .              |  length: "indefinite" (0) 0x1-0x2 (1)
     |                                               |                |  constructed[0:2]: 0x2-0x12 (16)
     |                                               |                |    [0]{}: object 0x2-0xe (12)
0x000|      23                                       |  #             |      class: "universal" (0) 0x2-0x2.2 (0.2)
0x000|      23                                       |  #             |      form: "constructed" (1) 0x2.2-0x2.3 (0.1)
0x000|      23                                       |  #             |      tag: "bit_string" (0x3) 0x2.3-0x3 (0.5)
0x000|         80                                    |   .            |      length: "indefinite" (0) 0x3-0x4 (1)
     |                                               |                |      constructed[0:2]: 0x4-0xc (8)
     |                                               |                |        [0]{}: object 0x4-0x8 (4)
0x000|            03                                 |    .           |          class: "universal" (0) 0x4-0x4.2 (0.2)
0x000|            03                                 |    .           |          form: "primitive" (0) 0x4.2-0x4.3 (0.1)
0x000|            03                                 |    .           |          tag: "bit_string" (0x3) 0x4.3-0x5 (0.5)
0x000|               02                              |     .          |          length: 2 0x5-0x6 (1)
0x000|                  00                           |      .         |          unused_bits_count: 0 0x6-0x7 (1)
0x000|                     01                        |       .        |          value: raw bits 0x7-0x8 (1)
     |                                               |                |        [1]{}: object 0x8-0xc (4)
0x000|                        03                     |        .       |          class: "universal" (0) 0x8-0x8.2 (0.2)
0x000|                        03                     |        .       |          form: "primitive" (0) 0x8.2-0x8.3 (0.1)
0x000|                        03                     |        .       |          tag: "bit_string" (0x3) 0x8.3-0x9 (0.5)
0x000|                           02                  |         .      |          length: 2 0x9-0xa (1)
0x000|                              01               |          .     |          unused_bits_count: 1 0xa-0xb (1)
0x000|                                 02            |           .    |          value: raw bits 0xb-0xb.7 (0.7)
0x000|                                 02            |           .    |          unused_bits: raw bits 0xb.7-0xc (0.1)
0x000|                                    00 00      |            ..  |      end_marker: 0 0xc-0xe (2)
     |00 01 02 03 04 05 06 07 08 09 0a 0b 0c 0d 0e 0f|0123456789abcdef|
  0x0|01 02|                                         |..|             |      value: raw bits 0x0-0x1.7 (1.7)
     |                                               |                |    [1]{}: object 0xe-0x12 (4)
0x000|                                          03   |              . |      class: "universal" (0) 0xe-0xe.2 (0.2)
0x000|                                          03   |              . |      form: "primitive" (0) 0xe.2-0xe.3 (0.1)
0x000|                                          03   |              . |      tag: "bit_string" (0x3) 0xe.3-0xf (0.5)
0x000|                                             02|               .|      length: 2 0xf-0x10 (1)
0x010|04                                             |.               |      unused_bits_count: 4 0x10-0x11 (1)
0x010|   0f                                          | .              |      value: raw bits 0x11-0x11.4 (0.4)
0x010|   0f                                          | .              |      unused_bits: raw bits 0x11.4-0x12 (0.4)
0x010|      00 00|                                   |  ..|           |  end_marker: 0 0x12-0x14 (2)
     |00 01 02 03 04 05 06 07 08 09 0a 0b 0c 0d 0e 0f|0123456789abcdef|
  0x0|01 02 00|                                      |...|            |  value: raw bits 0x0-0x2.3 (2.3)
