$ fq -d asn1_ber dv tc37.ber
     |00 01 02 03 04 05 06 07 08 09 0a 0b 0c 0d 0e 0f|0123456789abcdef|.{}: tc37.ber (asn1_ber) 0x0-0xd.7 (14)
0x000|23                                             |#               |  class: "universal" (0) 0x0-0x0.1 (0.2)
0x000|23                                             |#               |  form: "constructed" (1) 0x0.2-0x0.2 (0.1)
0x000|23                                             |#               |  tag: "bit_string" (0x3) 0x0.3-0x0.7 (0.5)
0x000|   0c                                          | .              |  length: 12 0x1-0x1.7 (1)
     |                                               |                |  constructed[0:3]: 0x2-0xd.7 (12)
     |                                               |                |    [0]{}: object 0x2-0x5.7 (4)
0x000|      03                                       |  .             |      class: "universal" (0) 0x2-0x2.1 (0.2)
0x000|      03                                       |  .             |      form: "primitive" (0) 0x2.2-0x2.2 (0.1)
0x000|      03                                       |  .             |      tag: "bit_string" (0x3) 0x2.3-0x2.7 (0.5)
0x000|         02                                    |   .            |      length: 2 0x3-0x3.7 (1)
0x000|            00                                 |    .           |      unused_bits_count: 0 0x4-0x4.7 (1)
0x000|               01                              |     .          |      value: raw bits 0x5-0x5.7 (1)
     |                                               |                |    [1]{}: object 0x6-0x9.7 (4)
0x000|                  03                           |      .         |      class: "universal" (0) 0x6-0x6.1 (0.2)
0x000|                  03                           |      .         |      form: "primitive" (0) 0x6.2-0x6.2 (0.1)
0x000|                  03                           |      .         |      tag: "bit_string" (0x3) 0x6.3-0x6.7 (0.5)
0x000|                     02                        |       .        |      length: 2 0x7-0x7.7 (1)
0x000|                        00                     |        .       |      unused_bits_count: 0 0x8-0x8.7 (1)
0x000|                           01                  |         .      |      value: raw bits 0x9-0x9.7 (1)
     |                                               |                |    [2]{}: object 0xa-0xd.7 (4)
0x000|                              03               |          .     |      class: "universal" (0) 0xa-0xa.1 (0.2)
0x000|                              03               |          .     |      form: "primitive" (0) 0xa.2-0xa.2 (0.1)
0x000|                              03               |          .     |      tag: "bit_string" (0x3) 0xa.3-0xa.7 (0.5)
0x000|                                 02            |           .    |      length: 2 0xb-0xb.7 (1)
0x000|                                    04         |            .   |      unused_bits_count: 4 0xc-0xc.7 (1)
0x000|                                       0f|     |             .| |      value: raw bits 0xd-0xd.3 (0.4)
0x000|                                       0f|     |             .| |      unused_bits: raw bits 0xd.4-0xd.7 (0.4)
     |00 01 02 03 04 05 06 07 08 09 0a 0b 0c 0d 0e 0f|0123456789abcdef|
  0x0|01 01 00|                                      |...|            |  value: raw bits 0x0-0x2.3 (2.4)
