$ fq '.[0].tcp_connections[0] | dv' dump-broken.pcapng
        |00 01 02 03 04 05 06 07 08 09 0a 0b 0c 0d 0e 0f|0123456789abcdef|.[0].tcp_connections[0]{}: tcp_connection 0x1d90-NA (0)
        |                                               |                |  client{}: 0x1d90-NA (0)
        |                                               |                |    ip: "127.0.0.1" 0x1d90-NA (0)
        |                                               |                |    port: 42555 0x1d90-NA (0)
        |                                               |                |    has_start: true 0x1d90-NA (0)
        |                                               |                |    has_end: false 0x1d90-NA (0)
        |                                               |                |    skipped_bytes: 0 0x1d90-NA (0)
        |00 01 02 03 04 05 06 07 08 09 0a 0b 0c 0d 0e 0f|0123456789abcdef|    stream{}: (tls) 0x0-0x1c3.7 (452)
        |                                               |                |      records[0:7]: 0x0-0x1c3.7 (452)
        |                                               |                |        [0]{}: record 0x0-0x98.7 (153)
  0x0000|16                                             |.               |          type: "handshake" (22) (valid) 0x0-0x0.7 (1)
  0x0000|   03 00                                       | ..             |          version: "ssl" (0x300) (valid) 0x1-0x2.7 (2)
  0x0000|         00 94                                 |   ..           |          length: 148 0x3-0x4.7 (2)
        |                                               |                |          message{}: 0x5-0x98.7 (148)
  0x0000|               01                              |     .          |            type: "client_hello" (1) 0x5-0x5.7 (1)
  0x0000|                  00 00 90                     |      ...       |            length: 144 0x6-0x8.7 (3)
  0x0000|                           03 00               |         ..     |            version: "ssl" (0x300) 0x9-0xa.7 (2)
        |                                               |                |            random{}: 0xb-0x2a.7 (32)
  0x0000|                                 52 34 98 7e   |           R4.~ |              gmt_unix_time: 1379178622 (2013-09-14T17:10:22Z) 0xb-0xe.7 (4)
  0x0000|                                             7d|               }|              random_bytes: raw bits 0xf-0x2a.7 (28)
  0x0001|c5 07 ff 05 25 12 31 3d c2 7a d8 15 80 5b ab 38|....%.1=.z...[.8|
  0x0002|0a ab b1 4b 43 31 26 f5 af 1e 17               |...KC1&....     |
  0x0002|                                 00            |           .    |            session_id_length: 0 0x2b-0x2b.7 (1)
        |                                               |                |            session_id: raw bits 0x2c-NA (0)
  0x0002|                                    00 68      |            .h  |            cipher_suits_length: 104 0x2c-0x2d.7 (2)
        |                                               |                |            cipher_suits[0:52]: 0x2e-0x95.7 (104)
  0x0002|                                          c0 14|              ..|              [0]: "TLS_ECDHE_RSA_WITH_AES_256_CBC_SHA" (0xc014) cipher_suit 0x2e-0x2f.7 (2)
  0x0003|c0 0a                                          |..              |              [1]: "TLS_ECDHE_ECDSA_WITH_AES_256_CBC_SHA" (0xc00a) cipher_suit 0x30-0x31.7 (2)
  0x0003|      c0 22                                    |  ."            |              [2]: "TLS_SRP_SHA_DSS_WITH_AES_256_CBC_SHA" (0xc022) cipher_suit 0x32-0x33.7 (2)
  0x0003|            c0 21                              |    .!          |              [3]: "TLS_SRP_SHA_RSA_WITH_AES_256_CBC_SHA" (0xc021) cipher_suit 0x34-0x35.7 (2)
  0x0003|                  00 39                        |      .9        |              [4]: "TLS_DHE_RSA_WITH_AES_256_CBC_SHA" (0x39) cipher_suit 0x36-0x37.7 (2)
  0x0003|                        00 38                  |        .8      |              [5]: "TLS_DHE_DSS_WITH_AES_256_CBC_SHA" (0x38) cipher_suit 0x38-0x39.7 (2)
  0x0003|                              00 88            |          ..    |              [6]: "TLS_DHE_RSA_WITH_CAMELLIA_256_CBC_SHA" (0x88) cipher_suit 0x3a-0x3b.7 (2)
  0x0003|                                    00 87      |            ..  |              [7]: "TLS_DHE_DSS_WITH_CAMELLIA_256_CBC_SHA" (0x87) cipher_suit 0x3c-0x3d.7 (2)
  0x0003|                                          c0 0f|              ..|              [8]: "TLS_ECDH_RSA_WITH_AES_256_CBC_SHA" (0xc00f) cipher_suit 0x3e-0x3f.7 (2)
  0x0004|c0 05                                          |..              |              [9]: "TLS_ECDH_ECDSA_WITH_AES_256_CBC_SHA" (0xc005) cipher_suit 0x40-0x41.7 (2)
  0x0004|      00 35                                    |  .5            |              [10]: "TLS_RSA_WITH_AES_256_CBC_SHA" (0x35) cipher_suit 0x42-0x43.7 (2)
  0x0004|            00 84                              |    ..          |              [11]: "TLS_RSA_WITH_CAMELLIA_256_CBC_SHA" (0x84) cipher_suit 0x44-0x45.7 (2)
  0x0004|                  c0 12                        |      ..        |              [12]: "TLS_ECDHE_RSA_WITH_3DES_EDE_CBC_SHA" (0xc012) cipher_suit 0x46-0x47.7 (2)
  0x0004|                        c0 08                  |        ..      |              [13]: "TLS_ECDHE_ECDSA_WITH_3DES_EDE_CBC_SHA" (0xc008) cipher_suit 0x48-0x49.7 (2)
  0x0004|                              c0 1c            |          ..    |              [14]: "TLS_SRP_SHA_DSS_WITH_3DES_EDE_CBC_SHA" (0xc01c) cipher_suit 0x4a-0x4b.7 (2)
  0x0004|                                    c0 1b      |            ..  |              [15]: "TLS_SRP_SHA_RSA_WITH_3DES_EDE_CBC_SHA" (0xc01b) cipher_suit 0x4c-0x4d.7 (2)
  0x0004|                                          00 16|              ..|              [16]: "TLS_DHE_RSA_WITH_3DES_EDE_CBC_SHA" (0x16) cipher_suit 0x4e-0x4f.7 (2)
  0x0005|00 13                                          |..              |              [17]: "TLS_DHE_DSS_WITH_3DES_EDE_CBC_SHA" (0x13) cipher_suit 0x50-0x51.7 (2)
  0x0005|      c0 0d                                    |  ..            |              [18]: "TLS_ECDH_RSA_WITH_3DES_EDE_CBC_SHA" (0xc00d) cipher_suit 0x52-0x53.7 (2)
  0x0005|            c0 03                              |    ..          |              [19]: "TLS_ECDH_ECDSA_WITH_3DES_EDE_CBC_SHA" (0xc003) cipher_suit 0x54-0x55.7 (2)
  0x0005|                  00 0a                        |      ..        |              [20]: "TLS_RSA_WITH_3DES_EDE_CBC_SHA" (0xa) cipher_suit 0x56-0x57.7 (2)
  0x0005|                        c0 13                  |        ..      |              [21]: "TLS_ECDHE_RSA_WITH_AES_128_CBC_SHA" (0xc013) cipher_suit 0x58-0x59.7 (2)
  0x0005|                              c0 09            |          ..    |              [22]: "TLS_ECDHE_ECDSA_WITH_AES_128_CBC_SHA" (0xc009) cipher_suit 0x5a-0x5b.7 (2)
  0x0005|                                    c0 1f      |            ..  |              [23]: "TLS_SRP_SHA_DSS_WITH_AES_128_CBC_SHA" (0xc01f) cipher_suit 0x5c-0x5d.7 (2)
  0x0005|                                          c0 1e|              ..|              [24]: "TLS_SRP_SHA_RSA_WITH_AES_128_CBC_SHA" (0xc01e) cipher_suit 0x5e-0x5f.7 (2)
  0x0006|00 33                                          |.3              |              [25]: "TLS_DHE_RSA_WITH_AES_128_CBC_SHA" (0x33) cipher_suit 0x60-0x61.7 (2)
  0x0006|      00 32                                    |  .2            |              [26]: "TLS_DHE_DSS_WITH_AES_128_CBC_SHA" (0x32) cipher_suit 0x62-0x63.7 (2)
  0x0006|            00 9a                              |    ..          |              [27]: "TLS_DHE_RSA_WITH_SEED_CBC_SHA" (0x9a) cipher_suit 0x64-0x65.7 (2)
  0x0006|                  00 99                        |      ..        |              [28]: "TLS_DHE_DSS_WITH_SEED_CBC_SHA" (0x99) cipher_suit 0x66-0x67.7 (2)
  0x0006|                        00 45                  |        .E      |              [29]: "TLS_DHE_RSA_WITH_CAMELLIA_128_CBC_SHA" (0x45) cipher_suit 0x68-0x69.7 (2)
  0x0006|                              00 44            |          .D    |              [30]: "TLS_DHE_DSS_WITH_CAMELLIA_128_CBC_SHA" (0x44) cipher_suit 0x6a-0x6b.7 (2)
  0x0006|                                    c0 0e      |            ..  |              [31]: "TLS_ECDH_RSA_WITH_AES_128_CBC_SHA" (0xc00e) cipher_suit 0x6c-0x6d.7 (2)
  0x0006|                                          c0 04|              ..|              [32]: "TLS_ECDH_ECDSA_WITH_AES_128_CBC_SHA" (0xc004) cipher_suit 0x6e-0x6f.7 (2)
  0x0007|00 2f                                          |./              |              [33]: "TLS_RSA_WITH_AES_128_CBC_SHA" (0x2f) cipher_suit 0x70-0x71.7 (2)
  0x0007|      00 96                                    |  ..            |              [34]: "TLS_RSA_WITH_SEED_CBC_SHA" (0x96) cipher_suit 0x72-0x73.7 (2)
  0x0007|            00 41                              |    .A          |              [35]: "TLS_RSA_WITH_CAMELLIA_128_CBC_SHA" (0x41) cipher_suit 0x74-0x75.7 (2)
  0x0007|                  00 07                        |      ..        |              [36]: "TLS_RSA_WITH_IDEA_CBC_SHA" (0x7) cipher_suit 0x76-0x77.7 (2)
  0x0007|                        c0 11                  |        ..      |              [37]: "TLS_ECDHE_RSA_WITH_RC4_128_SHA" (0xc011) cipher_suit 0x78-0x79.7 (2)
  0x0007|                              c0 07            |          ..    |              [38]: "TLS_ECDHE_ECDSA_WITH_RC4_128_SHA" (0xc007) cipher_suit 0x7a-0x7b.7 (2)
  0x0007|                                    c0 0c      |            ..  |              [39]: "TLS_ECDH_RSA_WITH_RC4_128_SHA" (0xc00c) cipher_suit 0x7c-0x7d.7 (2)
  0x0007|                                          c0 02|              ..|              [40]: "TLS_ECDH_ECDSA_WITH_RC4_128_SHA" (0xc002) cipher_suit 0x7e-0x7f.7 (2)
  0x0008|00 05                                          |..              |              [41]: "TLS_RSA_WITH_RC4_128_SHA" (0x5) cipher_suit 0x80-0x81.7 (2)
  0x0008|      00 04                                    |  ..            |              [42]: "TLS_RSA_WITH_RC4_128_MD5" (0x4) cipher_suit 0x82-0x83.7 (2)
  0x0008|            00 15                              |    ..          |              [43]: "TLS_DHE_RSA_WITH_DES_CBC_SHA" (0x15) cipher_suit 0x84-0x85.7 (2)
  0x0008|                  00 12                        |      ..        |              [44]: "TLS_DHE_DSS_WITH_DES_CBC_SHA" (0x12) cipher_suit 0x86-0x87.7 (2)
  0x0008|                        00 09                  |        ..      |              [45]: "TLS_RSA_WITH_DES_CBC_SHA" (0x9) cipher_suit 0x88-0x89.7 (2)
  0x0008|                              00 14            |          ..    |              [46]: "TLS_DHE_RSA_EXPORT_WITH_DES40_CBC_SHA" (0x14) cipher_suit 0x8a-0x8b.7 (2)
  0x0008|                                    00 11      |            ..  |              [47]: "TLS_DHE_DSS_EXPORT_WITH_DES40_CBC_SHA" (0x11) cipher_suit 0x8c-0x8d.7 (2)
  0x0008|                                          00 08|              ..|              [48]: "TLS_RSA_EXPORT_WITH_DES40_CBC_SHA" (0x8) cipher_suit 0x8e-0x8f.7 (2)
  0x0009|00 06                                          |..              |              [49]: "TLS_RSA_EXPORT_WITH_RC2_CBC_40_MD5" (0x6) cipher_suit 0x90-0x91.7 (2)
  0x0009|      00 03                                    |  ..            |              [50]: "TLS_RSA_EXPORT_WITH_RC4_40_MD5" (0x3) cipher_suit 0x92-0x93.7 (2)
  0x0009|            00 ff                              |    ..          |              [51]: "TLS_EMPTY_RENEGOTIATION_INFO_SCSV" (0xff) cipher_suit 0x94-0x95.7 (2)
  0x0009|                  02                           |      .         |            compression_methods_length: 2 0x96-0x96.7 (1)
        |                                               |                |            compression_methods[0:2]: 0x97-0x98.7 (2)
  0x0009|                     01                        |       .        |              [0]: "deflate" (0x1) compression_method 0x97-0x97.7 (1)
  0x0009|                        00                     |        .       |              [1]: "null" (0x0) compression_method 0x98-0x98.7 (1)
        |                                               |                |        [1]{}: record 0x99-0xe1.7 (73)
  0x0009|                           16                  |         .      |          type: "handshake" (22) (valid) 0x99-0x99.7 (1)
  0x0009|                              03 00            |          ..    |          version: "ssl" (0x300) (valid) 0x9a-0x9b.7 (2)
  0x0009|                                    00 44      |            .D  |          length: 68 0x9c-0x9d.7 (2)
        |                                               |                |          message{}: 0x9e-0xe1.7 (68)
  0x0009|                                          10   |              . |            type: "client_key_exchange" (16) 0x9e-0x9e.7 (1)
  0x0009|                                             00|               .|            length: 64 0x9f-0xa1.7 (3)
  0x000a|00 40                                          |.@              |
  0x000a|      6b 02 a7 f3 b0 92 6c 9d 08 5d 42 63 87 1f|  k.....l..]Bc..|            data: raw bits 0xa2-0xe1.7 (64)
  0x000b|08 14 12 b3 38 11 61 a8 38 eb 98 02 2b e9 0f 72|....8.a.8...+..r|
  *     |until 0xe1.7 (64)                              |                |
        |                                               |                |        [2]{}: record 0xe2-0xe7.7 (6)
  0x000e|      14                                       |  .             |          type: "change_cipher_spec" (20) (valid) 0xe2-0xe2.7 (1)
  0x000e|         03 00                                 |   ..           |          version: "ssl" (0x300) (valid) 0xe3-0xe4.7 (2)
  0x000e|               00 01                           |     ..         |          length: 1 0xe5-0xe6.7 (2)
        |                                               |                |          message{}: 0xe7-0xe7.7 (1)
  0x000e|                     01                        |       .        |            type: 1 0xe7-0xe7.7 (1)
        |                                               |                |        [3]{}: record 0xe8-0x12c.7 (69)
  0x000e|                        16                     |        .       |          type: "handshake" (22) (valid) 0xe8-0xe8.7 (1)
  0x000e|                           03 00               |         ..     |          version: "ssl" (0x300) (valid) 0xe9-0xea.7 (2)
  0x000e|                                 00 40         |           .@   |          length: 64 0xeb-0xec.7 (2)
  0x000e|                                       5c 5d 97|             \].|          encrypted_data: raw bits 0xed-0x12c.7 (64)
  0x000f|a2 5d ae 06 22 5a 6b c3 23 43 5c f3 34 ab 2b 48|.].."Zk.#C\.4.+H|
  *     |until 0x12c.7 (64)                             |                |
        |                                               |                |        [4]{}: record 0x12d-0x149.7 (29)
  0x0012|                                       17      |             .  |          type: "application_data" (23) (valid) 0x12d-0x12d.7 (1)
  0x0012|                                          03 00|              ..|          version: "ssl" (0x300) (valid) 0x12e-0x12f.7 (2)
  0x0013|00 18                                          |..              |          length: 24 0x130-0x131.7 (2)
  0x0013|      81 2a 81 6e 37 6e 13 06 46 47 04 80 fe d1|  .*.n7n..FG....|          encrypted_data: raw bits 0x132-0x149.7 (24)
  0x0014|8f 89 cc dc 7e a1 56 07 de 35                  |....~.V..5      |
        |                                               |                |        [5]{}: record 0x14a-0x1a6.7 (93)
  0x0014|                              17               |          .     |          type: "application_data" (23) (valid) 0x14a-0x14a.7 (1)
  0x0014|                                 03 00         |           ..   |          version: "ssl" (0x300) (valid) 0x14b-0x14c.7 (2)
  0x0014|                                       00 58   |             .X |          length: 88 0x14d-0x14e.7 (2)
  0x0014|                                             2a|               *|          encrypted_data: raw bits 0x14f-0x1a6.7 (88)
  0x0015|67 ce 86 33 19 73 26 d7 16 14 6a 34 5f e7 4c f2|g..3.s&...j4_.L.|
  *     |until 0x1a6.7 (88)                             |                |
        |                                               |                |        [6]{}: record 0x1a7-0x1c3.7 (29)
  0x001a|                     15                        |       .        |          type: "alert" (21) (valid) 0x1a7-0x1a7.7 (1)
  0x001a|                        03 00                  |        ..      |          version: "ssl" (0x300) (valid) 0x1a8-0x1a9.7 (2)
  0x001a|                              00 18            |          ..    |          length: 24 0x1aa-0x1ab.7 (2)
  0x001a|                                    dc 45 25 3f|            .E%?|          encrypted_data: raw bits 0x1ac-0x1c3.7 (24)
  0x001b|00 d8 21 92 25 c1 02 dd 2a 34 41 a9 23 3b bc 2a|..!.%...*4A.#;.*|
  0x001c|67 b8 8a 3f|                                   |g..?|           |
        |                                               |                |  server{}: 0x1d90-NA (0)
        |                                               |                |    ip: "127.0.0.1" 0x1d90-NA (0)
        |                                               |                |    port: 4437 0x1d90-NA (0)
        |                                               |                |    has_start: true 0x1d90-NA (0)
        |                                               |                |    has_end: true 0x1d90-NA (0)
        |                                               |                |    skipped_bytes: 0 0x1d90-NA (0)
        |00 01 02 03 04 05 06 07 08 09 0a 0b 0c 0d 0e 0f|0123456789abcdef|    stream{}: (tls) 0x0-0x6c1.7 (1730)
        |                                               |                |      records[0:8]: 0x0-0x6c1.7 (1730)
        |                                               |                |        [0]{}: record 0x0-0x55.7 (86)
  0x0000|16                                             |.               |          type: "handshake" (22) (valid) 0x0-0x0.7 (1)
  0x0000|   03 00                                       | ..             |          version: "ssl" (0x300) (valid) 0x1-0x2.7 (2)
  0x0000|         00 51                                 |   .Q           |          length: 81 0x3-0x4.7 (2)
        |                                               |                |          message{}: 0x5-0x55.7 (81)
  0x0000|               02                              |     .          |            type: "server_hello" (2) 0x5-0x5.7 (1)
  0x0000|                  00 00 4d                     |      ..M       |            length: 77 0x6-0x8.7 (3)
  0x0000|                           03 00               |         ..     |            version: "ssl" (0x300) 0x9-0xa.7 (2)
        |                                               |                |            random{}: 0xb-0x2a.7 (32)
  0x0000|                                 52 34 98 7e   |           R4.~ |              gmt_unix_time: 1379178622 (2013-09-14T17:10:22Z) 0xb-0xe.7 (4)
  0x0000|                                             84|               .|              random_bytes: raw bits 0xf-0x2a.7 (28)
  0x0001|c0 1d 8d bc e8 28 7c b4 60 3a 0e 57 44 54 d7 db|.....(|.`:.WDT..|
  0x0002|99 c8 1d ef 52 52 55 49 63 ca 78               |....RRUIc.x     |
  0x0002|                                 20            |                |            session_id_length: 32 0x2b-0x2b.7 (1)
  0x0002|                                    5b c3 89 f9|            [...|            session_id: raw bits 0x2c-0x4b.7 (32)
  0x0003|38 ff 08 1a 8c b8 5b 87 d9 3a 3d 80 57 ca 75 87|8.....[..:=.W.u.|
  0x0004|df e6 82 78 32 91 46 ca 21 84 a4 3e            |...x2.F.!..>    |
  0x0004|                                    00 06      |            ..  |            cipher_suit: "TLS_RSA_EXPORT_WITH_RC2_CBC_40_MD5" (0x6) 0x4c-0x4d.7 (2)
  0x0004|                                          00   |              . |            compression_method: "null" (0x0) 0x4e-0x4e.7 (1)
  0x0004|                                             00|               .|            extensions_length: 5 0x4f-0x50.7 (2)
  0x0005|05                                             |.               |
        |                                               |                |            extensions[0:1]: 0x51-0x55.7 (5)
        |                                               |                |              [0]{}: extension 0x51-0x55.7 (5)
  0x0005|   ff 01                                       | ..             |                type: "renegotiation_info" (65281) 0x51-0x52.7 (2)
  0x0005|         00 01                                 |   ..           |                length: 1 0x53-0x54.7 (2)
  0x0005|               00                              |     .          |                data: raw bits 0x55-0x55.7 (1)
        |                                               |                |        [1]{}: record 0x56-0x381.7 (812)
  0x0005|                  16                           |      .         |          type: "handshake" (22) (valid) 0x56-0x56.7 (1)
  0x0005|                     03 00                     |       ..       |          version: "ssl" (0x300) (valid) 0x57-0x58.7 (2)
  0x0005|                           03 27               |         .'     |          length: 807 0x59-0x5a.7 (2)
        |                                               |                |          message{}: 0x5b-0x381.7 (807)
  0x0005|                                 0b            |           .    |            type: "certificate" (11) 0x5b-0x5b.7 (1)
  0x0005|                                    00 03 23   |            ..# |            length: 803 0x5c-0x5e.7 (3)
  0x0005|                                             00|               .|            certificates_length: 800 0x5f-0x61.7 (3)
  0x0006|03 20                                          |.               |
        |                                               |                |            certificates[0:1]: 0x62-0x381.7 (800)
        |                                               |                |              [0]{}: certificate 0x62-0x381.7 (800)
  0x0006|      00 03 1d                                 |  ...           |                length: 797 0x62-0x64.7 (3)
        |00 01 02 03 04 05 06 07 08 09 0a 0b 0c 0d 0e 0f|0123456789abcdef|                data{}: (asn1_ber) 0x65-0x381.7 (797)
  0x0006|               30                              |     0          |                  class: "universal" (0) 0x65-0x65.1 (0.2)
  0x0006|               30                              |     0          |                  form: "constructed" (1) 0x65.2-0x65.2 (0.1)
  0x0006|               30                              |     0          |                  tag: "sequence" (0x10) 0x65.3-0x65.7 (0.5)
  0x0006|                  82 03 19                     |      ...       |                  length: 793 0x66-0x68.7 (3)
        |                                               |                |                  constructed[0:3]: 0x69-0x381.7 (793)
        |                                               |                |                    [0]{}: object 0x69-0x26d.7 (517)
  0x0006|                           30                  |         0      |                      class: "universal" (0) 0x69-0x69.1 (0.2)
  0x0006|                           30                  |         0      |                      form: "constructed" (1) 0x69.2-0x69.2 (0.1)
  0x0006|                           30                  |         0      |                      tag: "sequence" (0x10) 0x69.3-0x69.7 (0.5)
  0x0006|                              82 02 01         |          ...   |                      length: 513 0x6a-0x6c.7 (3)
        |                                               |                |                      constructed[0:8]: 0x6d-0x26d.7 (513)
        |                                               |                |                        [0]{}: object 0x6d-0x71.7 (5)
  0x0006|                                       a0      |             .  |                          class: "context" (2) 0x6d-0x6d.1 (0.2)
  0x0006|                                       a0      |             .  |                          form: "constructed" (1) 0x6d.2-0x6d.2 (0.1)
  0x0006|                                       a0      |             .  |                          tag: 0 0x6d.3-0x6d.7 (0.5)
  0x0006|                                          03   |              . |                          length: 3 0x6e-0x6e.7 (1)
        |                                               |                |                          constructed[0:1]: 0x6f-0x71.7 (3)
        |                                               |                |                            [0]{}: object 0x6f-0x71.7 (3)
  0x0006|                                             02|               .|                              class: "universal" (0) 0x6f-0x6f.1 (0.2)
  0x0006|                                             02|               .|                              form: "primitive" (0) 0x6f.2-0x6f.2 (0.1)
  0x0006|                                             02|               .|                              tag: "integer" (0x2) 0x6f.3-0x6f.7 (0.5)
  0x0007|01                                             |.               |                              length: 1 0x70-0x70.7 (1)
  0x0007|   02                                          | .              |                              value: 2 0x71-0x71.7 (1)
        |                                               |                |                        [1]{}: object 0x72-0x7c.7 (11)
  0x0007|      02                                       |  .             |                          class: "universal" (0) 0x72-0x72.1 (0.2)
  0x0007|      02                                       |  .             |                          form: "primitive" (0) 0x72.2-0x72.2 (0.1)
  0x0007|      02                                       |  .             |                          tag: "integer" (0x2) 0x72.3-0x72.7 (0.5)
  0x0007|         09                                    |   .            |                          length: 9 0x73-0x73.7 (1)
  0x0007|            00 f1 ba 44 67 c2 52 0e be         |    ...Dg.R..   |                          value: 17418309721241292478 0x74-0x7c.7 (9)
        |                                               |                |                        [2]{}: object 0x7d-0x8b.7 (15)
  0x0007|                                       30      |             0  |                          class: "universal" (0) 0x7d-0x7d.1 (0.2)
  0x0007|                                       30      |             0  |                          form: "constructed" (1) 0x7d.2-0x7d.2 (0.1)
  0x0007|                                       30      |             0  |                          tag: "sequence" (0x10) 0x7d.3-0x7d.7 (0.5)
  0x0007|                                          0d   |              . |                          length: 13 0x7e-0x7e.7 (1)
        |                                               |                |                          constructed[0:2]: 0x7f-0x8b.7 (13)
        |                                               |                |                            [0]{}: object 0x7f-0x89.7 (11)
  0x0007|                                             06|               .|                              class: "universal" (0) 0x7f-0x7f.1 (0.2)
  0x0007|                                             06|               .|                              form: "primitive" (0) 0x7f.2-0x7f.2 (0.1)
  0x0007|                                             06|               .|                              tag: "object_identifier" (0x6) 0x7f.3-0x7f.7 (0.5)
  0x0008|09                                             |.               |                              length: 9 0x80-0x80.7 (1)
        |                                               |                |                              value[0:7]: 0x81-0x89.7 (9)
  0x0008|   2a                                          | *              |                                [0]: 1 oid 0x81-0x81.7 (1)
  0x0008|   2a                                          | *              |                                [1]: 2 oid 0x81-0x81.7 (1)
  0x0008|      86 48                                    |  .H            |                                [2]: 840 oid 0x82-0x83.7 (2)
  0x0008|            86 f7 0d                           |    ...         |                                [3]: 113549 oid 0x84-0x86.7 (3)
  0x0008|                     01                        |       .        |                                [4]: 1 oid 0x87-0x87.7 (1)
  0x0008|                        01                     |        .       |                                [5]: 1 oid 0x88-0x88.7 (1)
  0x0008|                           05                  |         .      |                                [6]: 5 oid 0x89-0x89.7 (1)
        |                                               |                |                            [1]{}: object 0x8a-0x8b.7 (2)
  0x0008|                              05               |          .     |                              class: "universal" (0) 0x8a-0x8a.1 (0.2)
  0x0008|                              05               |          .     |                              form: "primitive" (0) 0x8a.2-0x8a.2 (0.1)
  0x0008|                              05               |          .     |                              tag: "null" (0x5) 0x8a.3-0x8a.7 (0.5)
  0x0008|                                 00            |           .    |                              length: "indefinite" (0) 0x8b-0x8b.7 (1)
        |                                               |                |                              value: null 0x8c-NA (0)
        |                                               |                |                        [3]{}: object 0x8c-0xb0.7 (37)
  0x0008|                                    30         |            0   |                          class: "universal" (0) 0x8c-0x8c.1 (0.2)
  0x0008|                                    30         |            0   |                          form: "constructed" (1) 0x8c.2-0x8c.2 (0.1)
  0x0008|                                    30         |            0   |                          tag: "sequence" (0x10) 0x8c.3-0x8c.7 (0.5)
  0x0008|                                       23      |             #  |                          length: 35 0x8d-0x8d.7 (1)
        |                                               |                |                          constructed[0:1]: 0x8e-0xb0.7 (35)
        |                                               |                |                            [0]{}: object 0x8e-0xb0.7 (35)
  0x0008|                                          31   |              1 |                              class: "universal" (0) 0x8e-0x8e.1 (0.2)
  0x0008|                                          31   |              1 |                              form: "constructed" (1) 0x8e.2-0x8e.2 (0.1)
  0x0008|                                          31   |              1 |                              tag: "set" (0x11) 0x8e.3-0x8e.7 (0.5)
  0x0008|                                             21|               !|                              length: 33 0x8f-0x8f.7 (1)
        |                                               |                |                              constructed[0:1]: 0x90-0xb0.7 (33)
        |                                               |                |                                [0]{}: object 0x90-0xb0.7 (33)
  0x0009|30                                             |0               |                                  class: "universal" (0) 0x90-0x90.1 (0.2)
  0x0009|30                                             |0               |                                  form: "constructed" (1) 0x90.2-0x90.2 (0.1)
  0x0009|30                                             |0               |                                  tag: "sequence" (0x10) 0x90.3-0x90.7 (0.5)
  0x0009|   1f                                          | .              |                                  length: 31 0x91-0x91.7 (1)
        |                                               |                |                                  constructed[0:2]: 0x92-0xb0.7 (31)
        |                                               |                |                                    [0]{}: object 0x92-0x96.7 (5)
  0x0009|      06                                       |  .             |                                      class: "universal" (0) 0x92-0x92.1 (0.2)
  0x0009|      06                                       |  .             |                                      form: "primitive" (0) 0x92.2-0x92.2 (0.1)
  0x0009|      06                                       |  .             |                                      tag: "object_identifier" (0x6) 0x92.3-0x92.7 (0.5)
  0x0009|         03                                    |   .            |                                      length: 3 0x93-0x93.7 (1)
        |                                               |                |                                      value[0:4]: 0x94-0x96.7 (3)
  0x0009|            55                                 |    U           |                                        [0]: 2 oid 0x94-0x94.7 (1)
  0x0009|            55                                 |    U           |                                        [1]: 5 oid 0x94-0x94.7 (1)
  0x0009|               04                              |     .          |                                        [2]: 4 oid 0x95-0x95.7 (1)
  0x0009|                  03                           |      .         |                                        [3]: 3 oid 0x96-0x96.7 (1)
        |                                               |                |                                    [1]{}: object 0x97-0xb0.7 (26)
  0x0009|                     0c                        |       .        |                                      class: "universal" (0) 0x97-0x97.1 (0.2)
  0x0009|                     0c                        |       .        |                                      form: "primitive" (0) 0x97.2-0x97.2 (0.1)
  0x0009|                     0c                        |       .        |                                      tag: "utf8_string" (0xc) 0x97.3-0x97.7 (0.5)
  0x0009|                        18                     |        .       |                                      length: 24 0x98-0x98.7 (1)
  0x0009|                           2a 2e 6c 6f 63 61 6c|         *.local|                                      value: "*.local.al.lekensteyn.nl" 0x99-0xb0.7 (24)
  0x000a|2e 61 6c 2e 6c 65 6b 65 6e 73 74 65 79 6e 2e 6e|.al.lekensteyn.n|
  0x000b|6c                                             |l               |
        |                                               |                |                        [4]{}: object 0xb1-0xd0.7 (32)
  0x000b|   30                                          | 0              |                          class: "universal" (0) 0xb1-0xb1.1 (0.2)
  0x000b|   30                                          | 0              |                          form: "constructed" (1) 0xb1.2-0xb1.2 (0.1)
  0x000b|   30                                          | 0              |                          tag: "sequence" (0x10) 0xb1.3-0xb1.7 (0.5)
  0x000b|      1e                                       |  .             |                          length: 30 0xb2-0xb2.7 (1)
        |                                               |                |                          constructed[0:2]: 0xb3-0xd0.7 (30)
        |                                               |                |                            [0]{}: object 0xb3-0xc1.7 (15)
  0x000b|         17                                    |   .            |                              class: "universal" (0) 0xb3-0xb3.1 (0.2)
  0x000b|         17                                    |   .            |                              form: "primitive" (0) 0xb3.2-0xb3.2 (0.1)
  0x000b|         17                                    |   .            |                              tag: "utc_time" (0x17) 0xb3.3-0xb3.7 (0.5)
  0x000b|            0d                                 |    .           |                              length: 13 0xb4-0xb4.7 (1)
  0x000b|               31 33 30 39 31 33 31 39 35 32 32|     13091319522|                              value: "130913195225Z" 0xb5-0xc1.7 (13)
  0x000c|35 5a                                          |5Z              |
        |                                               |                |                            [1]{}: object 0xc2-0xd0.7 (15)
  0x000c|      17                                       |  .             |                              class: "universal" (0) 0xc2-0xc2.1 (0.2)
  0x000c|      17                                       |  .             |                              form: "primitive" (0) 0xc2.2-0xc2.2 (0.1)
  0x000c|      17                                       |  .             |                              tag: "utc_time" (0x17) 0xc2.3-0xc2.7 (0.5)
  0x000c|         0d                                    |   .            |                              length: 13 0xc3-0xc3.7 (1)
  0x000c|            32 33 30 39 31 31 31 39 35 32 32 35|    230911195225|                              value: "230911195225Z" 0xc4-0xd0.7 (13)
  0x000d|5a                                             |Z               |
        |                                               |                |                        [5]{}: object 0xd1-0xf5.7 (37)
  0x000d|   30                                          | 0              |                          class: "universal" (0) 0xd1-0xd1.1 (0.2)
  0x000d|   30                                          | 0              |                          form: "constructed" (1) 0xd1.2-0xd1.2 (0.1)
  0x000d|   30                                          | 0              |                          tag: "sequence" (0x10) 0xd1.3-0xd1.7 (0.5)
  0x000d|      23                                       |  #             |                          length: 35 0xd2-0xd2.7 (1)
        |                                               |                |                          constructed[0:1]: 0xd3-0xf5.7 (35)
        |                                               |                |                            [0]{}: object 0xd3-0xf5.7 (35)
  0x000d|         31                                    |   1            |                              class: "universal" (0) 0xd3-0xd3.1 (0.2)
  0x000d|         31                                    |   1            |                              form: "constructed" (1) 0xd3.2-0xd3.2 (0.1)
  0x000d|         31                                    |   1            |                              tag: "set" (0x11) 0xd3.3-0xd3.7 (0.5)
  0x000d|            21                                 |    !           |                              length: 33 0xd4-0xd4.7 (1)
        |                                               |                |                              constructed[0:1]: 0xd5-0xf5.7 (33)
        |                                               |                |                                [0]{}: object 0xd5-0xf5.7 (33)
  0x000d|               30                              |     0          |                                  class: "universal" (0) 0xd5-0xd5.1 (0.2)
  0x000d|               30                              |     0          |                                  form: "constructed" (1) 0xd5.2-0xd5.2 (0.1)
  0x000d|               30                              |     0          |                                  tag: "sequence" (0x10) 0xd5.3-0xd5.7 (0.5)
  0x000d|                  1f                           |      .         |                                  length: 31 0xd6-0xd6.7 (1)
        |                                               |                |                                  constructed[0:2]: 0xd7-0xf5.7 (31)
        |                                               |                |                                    [0]{}: object 0xd7-0xdb.7 (5)
  0x000d|                     06                        |       .        |                                      class: "universal" (0) 0xd7-0xd7.1 (0.2)
  0x000d|                     06                        |       .        |                                      form: "primitive" (0) 0xd7.2-0xd7.2 (0.1)
  0x000d|                     06                        |       .        |                                      tag: "object_identifier" (0x6) 0xd7.3-0xd7.7 (0.5)
  0x000d|                        03                     |        .       |                                      length: 3 0xd8-0xd8.7 (1)
        |                                               |                |                                      value[0:4]: 0xd9-0xdb.7 (3)
  0x000d|                           55                  |         U      |                                        [0]: 2 oid 0xd9-0xd9.7 (1)
  0x000d|                           55                  |         U      |                                        [1]: 5 oid 0xd9-0xd9.7 (1)
  0x000d|                              04               |          .     |                                        [2]: 4 oid 0xda-0xda.7 (1)
  0x000d|                                 03            |           .    |                                        [3]: 3 oid 0xdb-0xdb.7 (1)
        |                                               |                |                                    [1]{}: object 0xdc-0xf5.7 (26)
  0x000d|                                    0c         |            .   |                                      class: "universal" (0) 0xdc-0xdc.1 (0.2)
  0x000d|                                    0c         |            .   |                                      form: "primitive" (0) 0xdc.2-0xdc.2 (0.1)
  0x000d|                                    0c         |            .   |                                      tag: "utf8_string" (0xc) 0xdc.3-0xdc.7 (0.5)
  0x000d|                                       18      |             .  |                                      length: 24 0xdd-0xdd.7 (1)
  0x000d|                                          2a 2e|              *.|                                      value: "*.local.al.lekensteyn.nl" 0xde-0xf5.7 (24)
  0x000e|6c 6f 63 61 6c 2e 61 6c 2e 6c 65 6b 65 6e 73 74|local.al.lekenst|
  0x000f|65 79 6e 2e 6e 6c                              |eyn.nl          |
        |                                               |                |                        [6]{}: object 0xf6-0x21b.7 (294)
  0x000f|                  30                           |      0         |                          class: "universal" (0) 0xf6-0xf6.1 (0.2)
  0x000f|                  30                           |      0         |                          form: "constructed" (1) 0xf6.2-0xf6.2 (0.1)
  0x000f|                  30                           |      0         |                          tag: "sequence" (0x10) 0xf6.3-0xf6.7 (0.5)
  0x000f|                     82 01 22                  |       .."      |                          length: 290 0xf7-0xf9.7 (3)
        |                                               |                |                          constructed[0:2]: 0xfa-0x21b.7 (290)
        |                                               |                |                            [0]{}: object 0xfa-0x108.7 (15)
  0x000f|                              30               |          0     |                              class: "universal" (0) 0xfa-0xfa.1 (0.2)
  0x000f|                              30               |          0     |                              form: "constructed" (1) 0xfa.2-0xfa.2 (0.1)
  0x000f|                              30               |          0     |                              tag: "sequence" (0x10) 0xfa.3-0xfa.7 (0.5)
  0x000f|                                 0d            |           .    |                              length: 13 0xfb-0xfb.7 (1)
        |                                               |                |                              constructed[0:2]: 0xfc-0x108.7 (13)
        |                                               |                |                                [0]{}: object 0xfc-0x106.7 (11)
  0x000f|                                    06         |            .   |                                  class: "universal" (0) 0xfc-0xfc.1 (0.2)
  0x000f|                                    06         |            .   |                                  form: "primitive" (0) 0xfc.2-0xfc.2 (0.1)
  0x000f|                                    06         |            .   |                                  tag: "object_identifier" (0x6) 0xfc.3-0xfc.7 (0.5)
  0x000f|                                       09      |             .  |                                  length: 9 0xfd-0xfd.7 (1)
        |                                               |                |                                  value[0:7]: 0xfe-0x106.7 (9)
  0x000f|                                          2a   |              * |                                    [0]: 1 oid 0xfe-0xfe.7 (1)
  0x000f|                                          2a   |              * |                                    [1]: 2 oid 0xfe-0xfe.7 (1)
  0x000f|                                             86|               .|                                    [2]: 840 oid 0xff-0x100.7 (2)
  0x0010|48                                             |H               |
  0x0010|   86 f7 0d                                    | ...            |                                    [3]: 113549 oid 0x101-0x103.7 (3)
  0x0010|            01                                 |    .           |                                    [4]: 1 oid 0x104-0x104.7 (1)
  0x0010|               01                              |     .          |                                    [5]: 1 oid 0x105-0x105.7 (1)
  0x0010|                  01                           |      .         |                                    [6]: 1 oid 0x106-0x106.7 (1)
        |                                               |                |                                [1]{}: object 0x107-0x108.7 (2)
  0x0010|                     05                        |       .        |                                  class: "universal" (0) 0x107-0x107.1 (0.2)
  0x0010|                     05                        |       .        |                                  form: "primitive" (0) 0x107.2-0x107.2 (0.1)
  0x0010|                     05                        |       .        |                                  tag: "null" (0x5) 0x107.3-0x107.7 (0.5)
  0x0010|                        00                     |        .       |                                  length: "indefinite" (0) 0x108-0x108.7 (1)
        |                                               |                |                                  value: null 0x109-NA (0)
        |                                               |                |                            [1]{}: object 0x109-0x21b.7 (275)
  0x0010|                           03                  |         .      |                              class: "universal" (0) 0x109-0x109.1 (0.2)
  0x0010|                           03                  |         .      |                              form: "primitive" (0) 0x109.2-0x109.2 (0.1)
  0x0010|                           03                  |         .      |                              tag: "bit_string" (0x3) 0x109.3-0x109.7 (0.5)
  0x0010|                              82 01 0f         |          ...   |                              length: 271 0x10a-0x10c.7 (3)
  0x0010|                                       00      |             .  |                              unused_bits_count: 0 0x10d-0x10d.7 (1)
  0x0010|                                          30 82|              0.|                              value: raw bits 0x10e-0x21b.7 (270)
  0x0011|01 0a 02 82 01 01 00 b7 c7 69 e2 d0 ea ca eb 92|.........i......|
  *     |until 0x21b.7 (270)                            |                |
        |                                               |                |                        [7]{}: object 0x21c-0x26d.7 (82)
        |00 01 02 03 04 05 06 07 08 09 0a 0b 0c 0d 0e 0f|0123456789abcdef|
    0x00|04 14 6d 59 37 7a fc 7d d7 0d 73 4d cc 5f 14 ae|..mY7z.}..sM._..|                          value: raw bits 0x0-0x32.7 (51)
    *   |until 0x32.7 (end) (51)                        |                |
  0x0021|                                    a3         |            .   |                          class: "context" (2) 0x21c-0x21c.1 (0.2)
  0x0021|                                    a3         |            .   |                          form: "constructed" (1) 0x21c.2-0x21c.2 (0.1)
  0x0021|                                    a3         |            .   |                          tag: 3 0x21c.3-0x21c.7 (0.5)
  0x0021|                                       50      |             P  |                          length: 80 0x21d-0x21d.7 (1)
        |                                               |                |                          constructed[0:1]: 0x21e-0x26d.7 (80)
        |                                               |                |                            [0]{}: object 0x21e-0x26d.7 (80)
  0x0021|                                          30   |              0 |                              class: "universal" (0) 0x21e-0x21e.1 (0.2)
  0x0021|                                          30   |              0 |                              form: "constructed" (1) 0x21e.2-0x21e.2 (0.1)
  0x0021|                                          30   |              0 |                              tag: "sequence" (0x10) 0x21e.3-0x21e.7 (0.5)
  0x0021|                                             4e|               N|                              length: 78 0x21f-0x21f.7 (1)
        |                                               |                |                              constructed[0:3]: 0x220-0x26d.7 (78)
        |                                               |                |                                [0]{}: object 0x220-0x23e.7 (31)
  0x0022|30                                             |0               |                                  class: "universal" (0) 0x220-0x220.1 (0.2)
  0x0022|30                                             |0               |                                  form: "constructed" (1) 0x220.2-0x220.2 (0.1)
  0x0022|30                                             |0               |                                  tag: "sequence" (0x10) 0x220.3-0x220.7 (0.5)
  0x0022|   1d                                          | .              |                                  length: 29 0x221-0x221.7 (1)
        |                                               |                |                                  constructed[0:2]: 0x222-0x23e.7 (29)
        |                                               |                |                                    [0]{}: object 0x222-0x226.7 (5)
  0x0022|      06                                       |  .             |                                      class: "universal" (0) 0x222-0x222.1 (0.2)
  0x0022|      06                                       |  .             |                                      form: "primitive" (0) 0x222.2-0x222.2 (0.1)
  0x0022|      06                                       |  .             |                                      tag: "object_identifier" (0x6) 0x222.3-0x222.7 (0.5)
  0x0022|         03                                    |   .            |                                      length: 3 0x223-0x223.7 (1)
        |                                               |                |                                      value[0:4]: 0x224-0x226.7 (3)
  0x0022|            55                                 |    U           |                                        [0]: 2 oid 0x224-0x224.7 (1)
  0x0022|            55                                 |    U           |                                        [1]: 5 oid 0x224-0x224.7 (1)
  0x0022|               1d                              |     .          |                                        [2]: 29 oid 0x225-0x225.7 (1)
  0x0022|                  0e                           |      .         |                                        [3]: 14 oid 0x226-0x226.7 (1)
        |                                               |                |                                    [1]{}: object 0x227-0x23e.7 (24)
  0x0022|                     04                        |       .        |                                      class: "universal" (0) 0x227-0x227.1 (0.2)
  0x0022|                     04                        |       .        |                                      form: "primitive" (0) 0x227.2-0x227.2 (0.1)
  0x0022|                     04                        |       .        |                                      tag: "octet_string" (0x4) 0x227.3-0x227.7 (0.5)
  0x0022|                        16                     |        .       |                                      length: 22 0x228-0x228.7 (1)
  0x0022|                           04 14 6d 59 37 7a fc|         ..mY7z.|                                      value: raw bits 0x229-0x23e.7 (22)
  0x0023|7d d7 0d 73 4d cc 5f 14 ae d0 03 d3 c5 5e 85   |}..sM._......^. |
        |                                               |                |                                [1]{}: object 0x23f-0x25f.7 (33)
  0x0023|                                             30|               0|                                  class: "universal" (0) 0x23f-0x23f.1 (0.2)
  0x0023|                                             30|               0|                                  form: "constructed" (1) 0x23f.2-0x23f.2 (0.1)
  0x0023|                                             30|               0|                                  tag: "sequence" (0x10) 0x23f.3-0x23f.7 (0.5)
  0x0024|1f                                             |.               |                                  length: 31 0x240-0x240.7 (1)
        |                                               |                |                                  constructed[0:2]: 0x241-0x25f.7 (31)
        |                                               |                |                                    [0]{}: object 0x241-0x245.7 (5)
  0x0024|   06                                          | .              |                                      class: "universal" (0) 0x241-0x241.1 (0.2)
  0x0024|   06                                          | .              |                                      form: "primitive" (0) 0x241.2-0x241.2 (0.1)
  0x0024|   06                                          | .              |                                      tag: "object_identifier" (0x6) 0x241.3-0x241.7 (0.5)
  0x0024|      03                                       |  .             |                                      length: 3 0x242-0x242.7 (1)
        |                                               |                |                                      value[0:4]: 0x243-0x245.7 (3)
  0x0024|         55                                    |   U            |                                        [0]: 2 oid 0x243-0x243.7 (1)
  0x0024|         55                                    |   U            |                                        [1]: 5 oid 0x243-0x243.7 (1)
  0x0024|            1d                                 |    .           |                                        [2]: 29 oid 0x244-0x244.7 (1)
  0x0024|               23                              |     #          |                                        [3]: 35 oid 0x245-0x245.7 (1)
        |                                               |                |                                    [1]{}: object 0x246-0x25f.7 (26)
  0x0024|                  04                           |      .         |                                      class: "universal" (0) 0x246-0x246.1 (0.2)
  0x0024|                  04                           |      .         |                                      form: "primitive" (0) 0x246.2-0x246.2 (0.1)
  0x0024|                  04                           |      .         |                                      tag: "octet_string" (0x4) 0x246.3-0x246.7 (0.5)
  0x0024|                     18                        |       .        |                                      length: 24 0x247-0x247.7 (1)
  0x0024|                        30 16 80 14 6d 59 37 7a|        0...mY7z|                                      value: raw bits 0x248-0x25f.7 (24)
  0x0025|fc 7d d7 0d 73 4d cc 5f 14 ae d0 03 d3 c5 5e 85|.}..sM._......^.|
        |                                               |                |                                [2]{}: object 0x260-0x26d.7 (14)
  0x0026|30                                             |0               |                                  class: "universal" (0) 0x260-0x260.1 (0.2)
  0x0026|30                                             |0               |                                  form: "constructed" (1) 0x260.2-0x260.2 (0.1)
  0x0026|30                                             |0               |                                  tag: "sequence" (0x10) 0x260.3-0x260.7 (0.5)
  0x0026|   0c                                          | .              |                                  length: 12 0x261-0x261.7 (1)
        |                                               |                |                                  constructed[0:2]: 0x262-0x26d.7 (12)
        |                                               |                |                                    [0]{}: object 0x262-0x266.7 (5)
  0x0026|      06                                       |  .             |                                      class: "universal" (0) 0x262-0x262.1 (0.2)
  0x0026|      06                                       |  .             |                                      form: "primitive" (0) 0x262.2-0x262.2 (0.1)
  0x0026|      06                                       |  .             |                                      tag: "object_identifier" (0x6) 0x262.3-0x262.7 (0.5)
  0x0026|         03                                    |   .            |                                      length: 3 0x263-0x263.7 (1)
        |                                               |                |                                      value[0:4]: 0x264-0x266.7 (3)
  0x0026|            55                                 |    U           |                                        [0]: 2 oid 0x264-0x264.7 (1)
  0x0026|            55                                 |    U           |                                        [1]: 5 oid 0x264-0x264.7 (1)
  0x0026|               1d                              |     .          |                                        [2]: 29 oid 0x265-0x265.7 (1)
  0x0026|                  13                           |      .         |                                        [3]: 19 oid 0x266-0x266.7 (1)
        |                                               |                |                                    [1]{}: object 0x267-0x26d.7 (7)
  0x0026|                     04                        |       .        |                                      class: "universal" (0) 0x267-0x267.1 (0.2)
  0x0026|                     04                        |       .        |                                      form: "primitive" (0) 0x267.2-0x267.2 (0.1)
  0x0026|                     04                        |       .        |                                      tag: "octet_string" (0x4) 0x267.3-0x267.7 (0.5)
  0x0026|                        05                     |        .       |                                      length: 5 0x268-0x268.7 (1)
  0x0026|                           30 03 01 01 ff      |         0....  |                                      value: raw bits 0x269-0x26d.7 (5)
        |                                               |                |                    [1]{}: object 0x26e-0x27c.7 (15)
  0x0026|                                          30   |              0 |                      class: "universal" (0) 0x26e-0x26e.1 (0.2)
  0x0026|                                          30   |              0 |                      form: "constructed" (1) 0x26e.2-0x26e.2 (0.1)
  0x0026|                                          30   |              0 |                      tag: "sequence" (0x10) 0x26e.3-0x26e.7 (0.5)
  0x0026|                                             0d|               .|                      length: 13 0x26f-0x26f.7 (1)
        |                                               |                |                      constructed[0:2]: 0x270-0x27c.7 (13)
        |                                               |                |                        [0]{}: object 0x270-0x27a.7 (11)
  0x0027|06                                             |.               |                          class: "universal" (0) 0x270-0x270.1 (0.2)
  0x0027|06                                             |.               |                          form: "primitive" (0) 0x270.2-0x270.2 (0.1)
  0x0027|06                                             |.               |                          tag: "object_identifier" (0x6) 0x270.3-0x270.7 (0.5)
  0x0027|   09                                          | .              |                          length: 9 0x271-0x271.7 (1)
        |                                               |                |                          value[0:7]: 0x272-0x27a.7 (9)
  0x0027|      2a                                       |  *             |                            [0]: 1 oid 0x272-0x272.7 (1)
  0x0027|      2a                                       |  *             |                            [1]: 2 oid 0x272-0x272.7 (1)
  0x0027|         86 48                                 |   .H           |                            [2]: 840 oid 0x273-0x274.7 (2)
  0x0027|               86 f7 0d                        |     ...        |                            [3]: 113549 oid 0x275-0x277.7 (3)
  0x0027|                        01                     |        .       |                            [4]: 1 oid 0x278-0x278.7 (1)
  0x0027|                           01                  |         .      |                            [5]: 1 oid 0x279-0x279.7 (1)
  0x0027|                              05               |          .     |                            [6]: 5 oid 0x27a-0x27a.7 (1)
        |                                               |                |                        [1]{}: object 0x27b-0x27c.7 (2)
  0x0027|                                 05            |           .    |                          class: "universal" (0) 0x27b-0x27b.1 (0.2)
  0x0027|                                 05            |           .    |                          form: "primitive" (0) 0x27b.2-0x27b.2 (0.1)
  0x0027|                                 05            |           .    |                          tag: "null" (0x5) 0x27b.3-0x27b.7 (0.5)
  0x0027|                                    00         |            .   |                          length: "indefinite" (0) 0x27c-0x27c.7 (1)
        |                                               |                |                          value: null 0x27d-NA (0)
        |                                               |                |                    [2]{}: object 0x27d-0x381.7 (261)
  0x0027|                                       03      |             .  |                      class: "universal" (0) 0x27d-0x27d.1 (0.2)
  0x0027|                                       03      |             .  |                      form: "primitive" (0) 0x27d.2-0x27d.2 (0.1)
  0x0027|                                       03      |             .  |                      tag: "bit_string" (0x3) 0x27d.3-0x27d.7 (0.5)
  0x0027|                                          82 01|              ..|                      length: 257 0x27e-0x280.7 (3)
  0x0028|01                                             |.               |
  0x0028|   00                                          | .              |                      unused_bits_count: 0 0x281-0x281.7 (1)
  0x0028|      89 93 4a 61 95 fa 61 6e df 12 93 fd cd 75|  ..Ja..an.....u|                      value: raw bits 0x282-0x381.7 (256)
  0x0029|d9 08 fc 0b 82 4b 3d 13 da 58 1f ab ef e7 ac 84|.....K=..X......|
  *     |until 0x381.7 (256)                            |                |
        |                                               |                |        [2]{}: record 0x382-0x4d3.7 (338)
  0x0038|      16                                       |  .             |          type: "handshake" (22) (valid) 0x382-0x382.7 (1)
  0x0038|         03 00                                 |   ..           |          version: "ssl" (0x300) (valid) 0x383-0x384.7 (2)
  0x0038|               01 4d                           |     .M         |          length: 333 0x385-0x386.7 (2)
        |                                               |                |          message{}: 0x387-0x4d3.7 (333)
  0x0038|                     0c                        |       .        |            type: "server_key_exchange" (12) 0x387-0x387.7 (1)
  0x0038|                        00 01 49               |        ..I     |            length: 329 0x388-0x38a.7 (3)
  0x0038|                                 00 40 c6 3e a3|           .@.>.|            data: raw bits 0x38b-0x4d3.7 (329)
  0x0039|3d 42 8e a4 9e 92 84 4e 44 66 16 ac 69 28 a8 c0|=B.....NDf..i(..|
  *     |until 0x4d3.7 (329)                            |                |
        |                                               |                |        [3]{}: record 0x4d4-0x4dc.7 (9)
  0x004d|            16                                 |    .           |          type: "handshake" (22) (valid) 0x4d4-0x4d4.7 (1)
  0x004d|               03 00                           |     ..         |          version: "ssl" (0x300) (valid) 0x4d5-0x4d6.7 (2)
  0x004d|                     00 04                     |       ..       |          length: 4 0x4d7-0x4d8.7 (2)
        |                                               |                |          message{}: 0x4d9-0x4dc.7 (4)
  0x004d|                           0e                  |         .      |            type: "server_hello_done" (14) 0x4d9-0x4d9.7 (1)
  0x004d|                              00 00 00         |          ...   |            length: 0 0x4da-0x4dc.7 (3)
        |                                               |                |            data: raw bits 0x4dd-NA (0)
        |                                               |                |        [4]{}: record 0x4dd-0x4e2.7 (6)
  0x004d|                                       14      |             .  |          type: "change_cipher_spec" (20) (valid) 0x4dd-0x4dd.7 (1)
  0x004d|                                          03 00|              ..|          version: "ssl" (0x300) (valid) 0x4de-0x4df.7 (2)
  0x004e|00 01                                          |..              |          length: 1 0x4e0-0x4e1.7 (2)
        |                                               |                |          message{}: 0x4e2-0x4e2.7 (1)
  0x004e|      01                                       |  .             |            type: 1 0x4e2-0x4e2.7 (1)
        |                                               |                |        [5]{}: record 0x4e3-0x527.7 (69)
  0x004e|         16                                    |   .            |          type: "handshake" (22) (valid) 0x4e3-0x4e3.7 (1)
  0x004e|            03 00                              |    ..          |          version: "ssl" (0x300) (valid) 0x4e4-0x4e5.7 (2)
  0x004e|                  00 40                        |      .@        |          length: 64 0x4e6-0x4e7.7 (2)
  0x004e|                        7c cb 6a c2 d1 1f a1 ac|        |.j.....|          encrypted_data: raw bits 0x4e8-0x527.7 (64)
  0x004f|8e 20 13 e1 6b c8 62 78 43 26 c4 04 a4 bb e6 47|. ..k.bxC&.....G|
  *     |until 0x527.7 (64)                             |                |
        |                                               |                |        [6]{}: record 0x528-0x6a4.7 (381)
  0x0052|                        17                     |        .       |          type: "application_data" (23) (valid) 0x528-0x528.7 (1)
  0x0052|                           03 00               |         ..     |          version: "ssl" (0x300) (valid) 0x529-0x52a.7 (2)
  0x0052|                                 01 78         |           .x   |          length: 376 0x52b-0x52c.7 (2)
  0x0052|                                       35 24 ab|             5$.|          encrypted_data: raw bits 0x52d-0x6a4.7 (376)
  0x0053|05 5e 6a 32 a4 9e c5 26 b7 5b bf 77 9a 44 93 19|.^j2...&.[.w.D..|
  *     |until 0x6a4.7 (376)                            |                |
        |                                               |                |        [7]{}: record 0x6a5-0x6c1.7 (29)
  0x006a|               15                              |     .          |          type: "alert" (21) (valid) 0x6a5-0x6a5.7 (1)
  0x006a|                  03 00                        |      ..        |          version: "ssl" (0x300) (valid) 0x6a6-0x6a7.7 (2)
  0x006a|                        00 18                  |        ..      |          length: 24 0x6a8-0x6a9.7 (2)
  0x006a|                              36 0b a8 86 26 71|          6...&q|          encrypted_data: raw bits 0x6aa-0x6c1.7 (24)
  0x006b|45 26 b9 a8 32 94 b1 ce 5c 3e b2 dc cc 21 42 c4|E&..2...\>...!B.|
  0x006c|f9 c9|                                         |..|             |
