$ fq -o keylog=@testtls.com.http1.1-tls1.2.pcap.keylog '.tcp_connections[0] | dv' testtls.com.http1.1-tls1.2.pcap
          |00 01 02 03 04 05 06 07 08 09 0a 0b 0c 0d 0e 0f|0123456789abcdef|.tcp_connections[0]{}: tcp_connection 0x6e4d-NA (0)
          |                                               |                |  client{}: 0x6e4d-NA (0)
          |                                               |                |    ip: "192.168.1.230"
          |                                               |                |    port: 61925
          |                                               |                |    has_start: true
          |                                               |                |    has_end: true
          |                                               |                |    skipped_bytes: 0
          |00 01 02 03 04 05 06 07 08 09 0a 0b 0c 0d 0e 0f|0123456789abcdef|    stream{}: (tls) 0x0-0x1c4.7 (453)
          |                                               |                |      records[0:6]: 0x0-0x1c4.7 (453)
          |                                               |                |        [0]{}: record 0x0-0xe0.7 (225)
  0x000000|16                                             |.               |          type: "handshake" (22) (valid) 0x0-0x0.7 (1)
  0x000000|   03 01                                       | ..             |          version: "tls1.0" (0x301) (valid) 0x1-0x2.7 (2)
  0x000000|         00 dc                                 |   ..           |          length: 220 0x3-0x4.7 (2)
          |                                               |                |          message{}: 0x5-0xe0.7 (220)
  0x000000|               01                              |     .          |            type: "client_hello" (1) 0x5-0x5.7 (1)
  0x000000|                  00 00 d8                     |      ...       |            length: 216 0x6-0x8.7 (3)
  0x000000|                           03 03               |         ..     |            version: "tls1.2" (0x303) 0x9-0xa.7 (2)
          |                                               |                |            random{}: 0xb-0x2a.7 (32)
  0x000000|                                 0a e9 3f 8b   |           ..?. |              gmt_unix_time: 183058315 (1975-10-20T17:31:55Z) 0xb-0xe.7 (4)
  0x000000|                                             ef|               .|              random_bytes: raw bits 0xf-0x2a.7 (28)
  0x000001|ae 62 f4 75 36 31 f2 14 4f 93 43 21 91 39 8f 83|.b.u61..O.C!.9..|
  0x000002|fe 9c 2b df c3 64 7d f3 da 80 37               |..+..d}...7     |
  0x000002|                                 00            |           .    |            session_id_length: 0 0x2b-0x2b.7 (1)
          |                                               |                |            session_id: raw bits 0x2c-NA (0)
  0x000002|                                    00 38      |            .8  |            cipher_suits_length: 56 0x2c-0x2d.7 (2)
          |                                               |                |            cipher_suits[0:28]: 0x2e-0x65.7 (56)
  0x000002|                                          c0 2c|              .,|              [0]: "TLS_ECDHE_ECDSA_WITH_AES_256_GCM_SHA384" (0xc02c) cipher_suit 0x2e-0x2f.7 (2)
  0x000003|c0 30                                          |.0              |              [1]: "TLS_ECDHE_RSA_WITH_AES_256_GCM_SHA384" (0xc030) cipher_suit 0x30-0x31.7 (2)
  0x000003|      00 9f                                    |  ..            |              [2]: "TLS_DHE_RSA_WITH_AES_256_GCM_SHA384" (0x9f) cipher_suit 0x32-0x33.7 (2)
  0x000003|            cc a9                              |    ..          |              [3]: "TLS_ECDHE_ECDSA_WITH_CHACHA20_POLY1305_SHA256" (0xcca9) cipher_suit 0x34-0x35.7 (2)
  0x000003|                  cc a8                        |      ..        |              [4]: "TLS_ECDHE_RSA_WITH_CHACHA20_POLY1305_SHA256" (0xcca8) cipher_suit 0x36-0x37.7 (2)
  0x000003|                        cc aa                  |        ..      |              [5]: "TLS_DHE_RSA_WITH_CHACHA20_POLY1305_SHA256" (0xccaa) cipher_suit 0x38-0x39.7 (2)
  0x000003|                              c0 2b            |          .+    |              [6]: "TLS_ECDHE_ECDSA_WITH_AES_128_GCM_SHA256" (0xc02b) cipher_suit 0x3a-0x3b.7 (2)
  0x000003|                                    c0 2f      |            ./  |              [7]: "TLS_ECDHE_RSA_WITH_AES_128_GCM_SHA256" (0xc02f) cipher_suit 0x3c-0x3d.7 (2)
  0x000003|                                          00 9e|              ..|              [8]: "TLS_DHE_RSA_WITH_AES_128_GCM_SHA256" (0x9e) cipher_suit 0x3e-0x3f.7 (2)
  0x000004|c0 24                                          |.$              |              [9]: "TLS_ECDHE_ECDSA_WITH_AES_256_CBC_SHA384" (0xc024) cipher_suit 0x40-0x41.7 (2)
  0x000004|      c0 28                                    |  .(            |              [10]: "TLS_ECDHE_RSA_WITH_AES_256_CBC_SHA384" (0xc028) cipher_suit 0x42-0x43.7 (2)
  0x000004|            00 6b                              |    .k          |              [11]: "TLS_DHE_RSA_WITH_AES_256_CBC_SHA256" (0x6b) cipher_suit 0x44-0x45.7 (2)
  0x000004|                  c0 23                        |      .#        |              [12]: "TLS_ECDHE_ECDSA_WITH_AES_128_CBC_SHA256" (0xc023) cipher_suit 0x46-0x47.7 (2)
  0x000004|                        c0 27                  |        .'      |              [13]: "TLS_ECDHE_RSA_WITH_AES_128_CBC_SHA256" (0xc027) cipher_suit 0x48-0x49.7 (2)
  0x000004|                              00 67            |          .g    |              [14]: "TLS_DHE_RSA_WITH_AES_128_CBC_SHA256" (0x67) cipher_suit 0x4a-0x4b.7 (2)
  0x000004|                                    c0 0a      |            ..  |              [15]: "TLS_ECDHE_ECDSA_WITH_AES_256_CBC_SHA" (0xc00a) cipher_suit 0x4c-0x4d.7 (2)
  0x000004|                                          c0 14|              ..|              [16]: "TLS_ECDHE_RSA_WITH_AES_256_CBC_SHA" (0xc014) cipher_suit 0x4e-0x4f.7 (2)
  0x000005|00 39                                          |.9              |              [17]: "TLS_DHE_RSA_WITH_AES_256_CBC_SHA" (0x39) cipher_suit 0x50-0x51.7 (2)
  0x000005|      c0 09                                    |  ..            |              [18]: "TLS_ECDHE_ECDSA_WITH_AES_128_CBC_SHA" (0xc009) cipher_suit 0x52-0x53.7 (2)
  0x000005|            c0 13                              |    ..          |              [19]: "TLS_ECDHE_RSA_WITH_AES_128_CBC_SHA" (0xc013) cipher_suit 0x54-0x55.7 (2)
  0x000005|                  00 33                        |      .3        |              [20]: "TLS_DHE_RSA_WITH_AES_128_CBC_SHA" (0x33) cipher_suit 0x56-0x57.7 (2)
  0x000005|                        00 9d                  |        ..      |              [21]: "TLS_RSA_WITH_AES_256_GCM_SHA384" (0x9d) cipher_suit 0x58-0x59.7 (2)
  0x000005|                              00 9c            |          ..    |              [22]: "TLS_RSA_WITH_AES_128_GCM_SHA256" (0x9c) cipher_suit 0x5a-0x5b.7 (2)
  0x000005|                                    00 3d      |            .=  |              [23]: "TLS_RSA_WITH_AES_256_CBC_SHA256" (0x3d) cipher_suit 0x5c-0x5d.7 (2)
  0x000005|                                          00 3c|              .<|              [24]: "TLS_RSA_WITH_AES_128_CBC_SHA256" (0x3c) cipher_suit 0x5e-0x5f.7 (2)
  0x000006|00 35                                          |.5              |              [25]: "TLS_RSA_WITH_AES_256_CBC_SHA" (0x35) cipher_suit 0x60-0x61.7 (2)
  0x000006|      00 2f                                    |  ./            |              [26]: "TLS_RSA_WITH_AES_128_CBC_SHA" (0x2f) cipher_suit 0x62-0x63.7 (2)
  0x000006|            00 ff                              |    ..          |              [27]: "TLS_EMPTY_RENEGOTIATION_INFO_SCSV" (0xff) cipher_suit 0x64-0x65.7 (2)
  0x000006|                  01                           |      .         |            compression_methods_length: 1 0x66-0x66.7 (1)
          |                                               |                |            compression_methods[0:1]: 0x67-0x67.7 (1)
  0x000006|                     00                        |       .        |              [0]: "null" (0x0) compression_method 0x67-0x67.7 (1)
  0x000006|                        00 77                  |        .w      |            extensions_length: 119 0x68-0x69.7 (2)
          |                                               |                |            extensions[0:7]: 0x6a-0xe0.7 (119)
          |                                               |                |              [0]{}: extension 0x6a-0x7d.7 (20)
  0x000006|                              00 00            |          ..    |                type: "server_name" (0) 0x6a-0x6b.7 (2)
  0x000006|                                    00 10      |            ..  |                length: 16 0x6c-0x6d.7 (2)
  0x000006|                                          00 0e|              ..|                serer_names_length: 14 0x6e-0x6f.7 (2)
          |                                               |                |                server_names[0:1]: 0x70-0x7d.7 (14)
          |                                               |                |                  [0]{}: server_name 0x70-0x7d.7 (14)
  0x000007|00                                             |.               |                    type: 0 0x70-0x70.7 (1)
  0x000007|   00 0b                                       | ..             |                    length: 11 0x71-0x72.7 (2)
  0x000007|         74 65 73 74 74 6c 73 2e 63 6f 6d      |   testtls.com  |                    name: "testtls.com" 0x73-0x7d.7 (11)
          |                                               |                |              [1]{}: extension 0x7e-0x85.7 (8)
  0x000007|                                          00 0b|              ..|                type: "ec_point_formats" (11) 0x7e-0x7f.7 (2)
  0x000008|00 04                                          |..              |                length: 4 0x80-0x81.7 (2)
  0x000008|      03                                       |  .             |                ex_points_format_length: 3 0x82-0x82.7 (1)
          |                                               |                |                ex_points_formats[0:3]: 0x83-0x85.7 (3)
  0x000008|         00                                    |   .            |                  [0]: 0x0 ex_points_format 0x83-0x83.7 (1)
  0x000008|            01                                 |    .           |                  [1]: 0x1 ex_points_format 0x84-0x84.7 (1)
  0x000008|               02                              |     .          |                  [2]: 0x2 ex_points_format 0x85-0x85.7 (1)
          |                                               |                |              [2]{}: extension 0x86-0x95.7 (16)
  0x000008|                  00 0a                        |      ..        |                type: "supported_groups" (10) 0x86-0x87.7 (2)
  0x000008|                        00 0c                  |        ..      |                length: 12 0x88-0x89.7 (2)
  0x000008|                              00 0a            |          ..    |                supported_group_length: 10 0x8a-0x8b.7 (2)
          |                                               |                |                supported_groups[0:5]: 0x8c-0x95.7 (10)
  0x000008|                                    00 1d      |            ..  |                  [0]: 0x1d supported_group 0x8c-0x8d.7 (2)
  0x000008|                                          00 17|              ..|                  [1]: 0x17 supported_group 0x8e-0x8f.7 (2)
  0x000009|00 1e                                          |..              |                  [2]: 0x1e supported_group 0x90-0x91.7 (2)
  0x000009|      00 19                                    |  ..            |                  [3]: 0x19 supported_group 0x92-0x93.7 (2)
  0x000009|            00 18                              |    ..          |                  [4]: 0x18 supported_group 0x94-0x95.7 (2)
          |                                               |                |              [3]{}: extension 0x96-0xa4.7 (15)
  0x000009|                  00 10                        |      ..        |                type: "application_layer_protocol_negotiation" (16) 0x96-0x97.7 (2)
  0x000009|                        00 0b                  |        ..      |                length: 11 0x98-0x99.7 (2)
  0x000009|                              00 09            |          ..    |                serer_names_length: 9 0x9a-0x9b.7 (2)
          |                                               |                |                protocols[0:1]: 0x9c-0xa4.7 (9)
          |                                               |                |                  [0]{}: protocol 0x9c-0xa4.7 (9)
  0x000009|                                    08         |            .   |                    length: 8 0x9c-0x9c.7 (1)
  0x000009|                                       68 74 74|             htt|                    name: "http/1.1" 0x9d-0xa4.7 (8)
  0x00000a|70 2f 31 2e 31                                 |p/1.1           |
          |                                               |                |              [4]{}: extension 0xa5-0xa8.7 (4)
  0x00000a|               00 16                           |     ..         |                type: "encrypt_then_mac" (22) 0xa5-0xa6.7 (2)
  0x00000a|                     00 00                     |       ..       |                length: 0 0xa7-0xa8.7 (2)
          |                                               |                |              [5]{}: extension 0xa9-0xac.7 (4)
  0x00000a|                           00 17               |         ..     |                type: "extended_master_secret" (23) 0xa9-0xaa.7 (2)
  0x00000a|                                 00 00         |           ..   |                length: 0 0xab-0xac.7 (2)
          |                                               |                |              [6]{}: extension 0xad-0xe0.7 (52)
  0x00000a|                                       00 0d   |             .. |                type: "signature_algorithms" (13) 0xad-0xae.7 (2)
  0x00000a|                                             00|               .|                length: 48 0xaf-0xb0.7 (2)
  0x00000b|30                                             |0               |
  0x00000b|   00 2e                                       | ..             |                signature_algorithm_length: 46 0xb1-0xb2.7 (2)
          |                                               |                |                signature_algorithms[0:23]: 0xb3-0xe0.7 (46)
          |                                               |                |                  [0]{}: signature_algorithm 0xb3-0xb4.7 (2)
  0x00000b|         04                                    |   .            |                    hash: "sha256" (4) 0xb3-0xb3.7 (1)
  0x00000b|            03                                 |    .           |                    signature: "ecdsa" (3) 0xb4-0xb4.7 (1)
          |                                               |                |                  [1]{}: signature_algorithm 0xb5-0xb6.7 (2)
  0x00000b|               05                              |     .          |                    hash: "sha384" (5) 0xb5-0xb5.7 (1)
  0x00000b|                  03                           |      .         |                    signature: "ecdsa" (3) 0xb6-0xb6.7 (1)
          |                                               |                |                  [2]{}: signature_algorithm 0xb7-0xb8.7 (2)
  0x00000b|                     06                        |       .        |                    hash: "sha512" (6) 0xb7-0xb7.7 (1)
  0x00000b|                        03                     |        .       |                    signature: "ecdsa" (3) 0xb8-0xb8.7 (1)
          |                                               |                |                  [3]{}: signature_algorithm 0xb9-0xba.7 (2)
  0x00000b|                           08                  |         .      |                    hash: "intrinsic" (8) 0xb9-0xb9.7 (1)
  0x00000b|                              07               |          .     |                    signature: "ed25519" (7) 0xba-0xba.7 (1)
          |                                               |                |                  [4]{}: signature_algorithm 0xbb-0xbc.7 (2)
  0x00000b|                                 08            |           .    |                    hash: "intrinsic" (8) 0xbb-0xbb.7 (1)
  0x00000b|                                    08         |            .   |                    signature: "ed448" (8) 0xbc-0xbc.7 (1)
          |                                               |                |                  [5]{}: signature_algorithm 0xbd-0xbe.7 (2)
  0x00000b|                                       08      |             .  |                    hash: "intrinsic" (8) 0xbd-0xbd.7 (1)
  0x00000b|                                          09   |              . |                    signature: 9 0xbe-0xbe.7 (1)
          |                                               |                |                  [6]{}: signature_algorithm 0xbf-0xc0.7 (2)
  0x00000b|                                             08|               .|                    hash: "intrinsic" (8) 0xbf-0xbf.7 (1)
  0x00000c|0a                                             |.               |                    signature: 10 0xc0-0xc0.7 (1)
          |                                               |                |                  [7]{}: signature_algorithm 0xc1-0xc2.7 (2)
  0x00000c|   08                                          | .              |                    hash: "intrinsic" (8) 0xc1-0xc1.7 (1)
  0x00000c|      0b                                       |  .             |                    signature: 11 0xc2-0xc2.7 (1)
          |                                               |                |                  [8]{}: signature_algorithm 0xc3-0xc4.7 (2)
  0x00000c|         08                                    |   .            |                    hash: "intrinsic" (8) 0xc3-0xc3.7 (1)
  0x00000c|            04                                 |    .           |                    signature: 4 0xc4-0xc4.7 (1)
          |                                               |                |                  [9]{}: signature_algorithm 0xc5-0xc6.7 (2)
  0x00000c|               08                              |     .          |                    hash: "intrinsic" (8) 0xc5-0xc5.7 (1)
  0x00000c|                  05                           |      .         |                    signature: 5 0xc6-0xc6.7 (1)
          |                                               |                |                  [10]{}: signature_algorithm 0xc7-0xc8.7 (2)
  0x00000c|                     08                        |       .        |                    hash: "intrinsic" (8) 0xc7-0xc7.7 (1)
  0x00000c|                        06                     |        .       |                    signature: 6 0xc8-0xc8.7 (1)
          |                                               |                |                  [11]{}: signature_algorithm 0xc9-0xca.7 (2)
  0x00000c|                           04                  |         .      |                    hash: "sha256" (4) 0xc9-0xc9.7 (1)
  0x00000c|                              01               |          .     |                    signature: "rsa" (1) 0xca-0xca.7 (1)
          |                                               |                |                  [12]{}: signature_algorithm 0xcb-0xcc.7 (2)
  0x00000c|                                 05            |           .    |                    hash: "sha384" (5) 0xcb-0xcb.7 (1)
  0x00000c|                                    01         |            .   |                    signature: "rsa" (1) 0xcc-0xcc.7 (1)
          |                                               |                |                  [13]{}: signature_algorithm 0xcd-0xce.7 (2)
  0x00000c|                                       06      |             .  |                    hash: "sha512" (6) 0xcd-0xcd.7 (1)
  0x00000c|                                          01   |              . |                    signature: "rsa" (1) 0xce-0xce.7 (1)
          |                                               |                |                  [14]{}: signature_algorithm 0xcf-0xd0.7 (2)
  0x00000c|                                             03|               .|                    hash: "sha224" (3) 0xcf-0xcf.7 (1)
  0x00000d|03                                             |.               |                    signature: "ecdsa" (3) 0xd0-0xd0.7 (1)
          |                                               |                |                  [15]{}: signature_algorithm 0xd1-0xd2.7 (2)
  0x00000d|   02                                          | .              |                    hash: "sha1" (2) 0xd1-0xd1.7 (1)
  0x00000d|      03                                       |  .             |                    signature: "ecdsa" (3) 0xd2-0xd2.7 (1)
          |                                               |                |                  [16]{}: signature_algorithm 0xd3-0xd4.7 (2)
  0x00000d|         03                                    |   .            |                    hash: "sha224" (3) 0xd3-0xd3.7 (1)
  0x00000d|            01                                 |    .           |                    signature: "rsa" (1) 0xd4-0xd4.7 (1)
          |                                               |                |                  [17]{}: signature_algorithm 0xd5-0xd6.7 (2)
  0x00000d|               02                              |     .          |                    hash: "sha1" (2) 0xd5-0xd5.7 (1)
  0x00000d|                  01                           |      .         |                    signature: "rsa" (1) 0xd6-0xd6.7 (1)
          |                                               |                |                  [18]{}: signature_algorithm 0xd7-0xd8.7 (2)
  0x00000d|                     03                        |       .        |                    hash: "sha224" (3) 0xd7-0xd7.7 (1)
  0x00000d|                        02                     |        .       |                    signature: "dsa" (2) 0xd8-0xd8.7 (1)
          |                                               |                |                  [19]{}: signature_algorithm 0xd9-0xda.7 (2)
  0x00000d|                           02                  |         .      |                    hash: "sha1" (2) 0xd9-0xd9.7 (1)
  0x00000d|                              02               |          .     |                    signature: "dsa" (2) 0xda-0xda.7 (1)
          |                                               |                |                  [20]{}: signature_algorithm 0xdb-0xdc.7 (2)
  0x00000d|                                 04            |           .    |                    hash: "sha256" (4) 0xdb-0xdb.7 (1)
  0x00000d|                                    02         |            .   |                    signature: "dsa" (2) 0xdc-0xdc.7 (1)
          |                                               |                |                  [21]{}: signature_algorithm 0xdd-0xde.7 (2)
  0x00000d|                                       05      |             .  |                    hash: "sha384" (5) 0xdd-0xdd.7 (1)
  0x00000d|                                          02   |              . |                    signature: "dsa" (2) 0xde-0xde.7 (1)
          |                                               |                |                  [22]{}: signature_algorithm 0xdf-0xe0.7 (2)
  0x00000d|                                             06|               .|                    hash: "sha512" (6) 0xdf-0xdf.7 (1)
  0x00000e|02                                             |.               |                    signature: "dsa" (2) 0xe0-0xe0.7 (1)
          |                                               |                |        [1]{}: record 0xe1-0x10a.7 (42)
  0x00000e|   16                                          | .              |          type: "handshake" (22) (valid) 0xe1-0xe1.7 (1)
  0x00000e|      03 03                                    |  ..            |          version: "tls1.2" (0x303) (valid) 0xe2-0xe3.7 (2)
  0x00000e|            00 25                              |    .%          |          length: 37 0xe4-0xe5.7 (2)
          |                                               |                |          message{}: 0xe6-0x10a.7 (37)
  0x00000e|                  10                           |      .         |            type: "client_key_exchange" (16) 0xe6-0xe6.7 (1)
  0x00000e|                     00 00 21                  |       ..!      |            length: 33 0xe7-0xe9.7 (3)
          |                                               |                |            public{}: 0xea-NA (0)
  0x00000e|                              20               |                |              length: 32 0xea-0xea.7 (1)
  0x00000e|                                 f6 88 a8 a3 c6|           .....|              data: raw bits 0xeb-0x10a.7 (32)
  0x00000f|71 70 e2 75 cb 25 8e c8 f0 fb 14 57 31 2a c3 e5|qp.u.%.....W1*..|
  0x000010|5c 9e 0d a1 43 bc 23 8e 25 4a 17               |\...C.#.%J.     |
          |                                               |                |        [2]{}: record 0x10b-0x110.7 (6)
  0x000010|                                 14            |           .    |          type: "change_cipher_spec" (20) (valid) 0x10b-0x10b.7 (1)
  0x000010|                                    03 03      |            ..  |          version: "tls1.2" (0x303) (valid) 0x10c-0x10d.7 (2)
  0x000010|                                          00 01|              ..|          length: 1 0x10e-0x10f.7 (2)
          |                                               |                |          message{}: 0x110-0x110.7 (1)
  0x000011|01                                             |.               |            type: 1 0x110-0x110.7 (1)
          |                                               |                |        [3]{}: record 0x111-0x13d.7 (45)
  0x000011|   16                                          | .              |          type: "handshake" (22) (valid) 0x111-0x111.7 (1)
  0x000011|      03 03                                    |  ..            |          version: "tls1.2" (0x303) (valid) 0x112-0x113.7 (2)
  0x000011|            00 28                              |    .(          |          length: 40 0x114-0x115.7 (2)
  0x000011|                  ac 91 98 bd 48 6b 6e 3c d8 84|      ....Hkn<..|          encrypted_data: raw bits 0x116-0x13d.7 (40)
  0x000012|6a e9 30 57 0c 87 68 82 17 58 bc c4 23 69 a8 68|j.0W..h..X..#i.h|
  0x000013|e5 d1 70 80 ff 08 6f 3f cf f6 b4 b3 51 d9      |..p...o?....Q.  |
          |00 01 02 03 04 05 06 07 08 09 0a 0b 0c 0d 0e 0f|0123456789abcdef|          message{}: 0x0-0xf.7 (16)
    0x0000|14                                             |.               |            type: "finished" (20) 0x0-0x0.7 (1)
    0x0000|   00 00 0c                                    | ...            |            length: 12 0x1-0x3.7 (3)
    0x0000|            b0 0b c8 f1 b1 48 23 1c eb 5c e8 82|    .....H#..\..|            verify_data: raw bits 0x4-0xf.7 (12)
          |                                               |                |        [4]{}: record 0x13e-0x1a5.7 (104)
  0x000013|                                          17   |              . |          type: "application_data" (23) (valid) 0x13e-0x13e.7 (1)
  0x000013|                                             03|               .|          version: "tls1.2" (0x303) (valid) 0x13f-0x140.7 (2)
  0x000014|03                                             |.               |
  0x000014|   00 63                                       | .c             |          length: 99 0x141-0x142.7 (2)
  0x000014|         ac 91 98 bd 48 6b 6e 3d 76 cf c0 2e 0f|   ....Hkn=v....|          encrypted_data: raw bits 0x143-0x1a5.7 (99)
  0x000015|40 1c de f0 2d d4 23 49 ba 99 1b c4 ba 2e b1 84|@...-.#I........|
  *       |until 0x1a5.7 (99)                             |                |
          |00 01 02 03 04 05 06 07 08 09 0a 0b 0c 0d 0e 0f|0123456789abcdef|
    0x0000|47 45 54 20 2f 20 48 54 54 50 2f 31 2e 31 0d 0a|GET / HTTP/1.1..|          message: raw bits 0x0-0x4a.7 (75)
    *     |until 0x4a.7 (end) (75)                        |                |
          |                                               |                |        [5]{}: record 0x1a6-0x1c4.7 (31)
  0x00001a|                  15                           |      .         |          type: "alert" (21) (valid) 0x1a6-0x1a6.7 (1)
  0x00001a|                     03 03                     |       ..       |          version: "tls1.2" (0x303) (valid) 0x1a7-0x1a8.7 (2)
  0x00001a|                           00 1a               |         ..     |          length: 26 0x1a9-0x1aa.7 (2)
  0x00001a|                                 ac 91 98 bd 48|           ....H|          encrypted_data: raw bits 0x1ab-0x1c4.7 (26)
  0x00001b|6b 6e 3e 56 f4 62 cc e8 aa b6 c9 af 10 7b db aa|kn>V.b.......{..|
  0x00001c|9b aa 57 53 9a|                                |..WS.|          |
          |00 01 02 03 04 05 06 07 08 09 0a 0b 0c 0d 0e 0f|0123456789abcdef|          message{}: 0x0-0x1.7 (2)
    0x0000|01                                             |.               |            level: "warning" (1) 0x0-0x0.7 (1)
    0x0000|   00|                                         | .|             |            description: "close_notify" (0) 0x1-0x1.7 (1)
          |00 01 02 03 04 05 06 07 08 09 0a 0b 0c 0d 0e 0f|0123456789abcdef|
    0x0000|47 45 54 20 2f 20 48 54 54 50 2f 31 2e 31 0d 0a|GET / HTTP/1.1..|      stream: raw bits 0x0-0x4a.7 (75)
    *     |until 0x4a.7 (end) (75)                        |                |
          |                                               |                |  server{}: 0x6e4d-NA (0)
          |                                               |                |    ip: "116.203.76.237"
          |                                               |                |    port: "https" (443) (http protocol over TLS/SSL) 0x6e4d-NA (0)
          |                                               |                |    has_start: true
          |                                               |                |    has_end: true
          |                                               |                |    skipped_bytes: 0
          |00 01 02 03 04 05 06 07 08 09 0a 0b 0c 0d 0e 0f|0123456789abcdef|    stream{}: (tls) 0x0-0x5d33.7 (23860)
          |                                               |                |      records[0:8]: 0x0-0x5d33.7 (23860)
          |                                               |                |        [0]{}: record 0x0-0x74.7 (117)
  0x000000|16                                             |.               |          type: "handshake" (22) (valid) 0x0-0x0.7 (1)
  0x000000|   03 03                                       | ..             |          version: "tls1.2" (0x303) (valid) 0x1-0x2.7 (2)
  0x000000|         00 70                                 |   .p           |          length: 112 0x3-0x4.7 (2)
          |                                               |                |          message{}: 0x5-0x74.7 (112)
  0x000000|               02                              |     .          |            type: "server_hello" (2) 0x5-0x5.7 (1)
  0x000000|                  00 00 6c                     |      ..l       |            length: 108 0x6-0x8.7 (3)
  0x000000|                           03 03               |         ..     |            version: "tls1.2" (0x303) 0x9-0xa.7 (2)
          |                                               |                |            random{}: 0xb-0x2a.7 (32)
  0x000000|                                 32 60 fa 11   |           2`.. |              gmt_unix_time: 845216273 (1996-10-13T14:17:53Z) 0xb-0xe.7 (4)
  0x000000|                                             60|               `|              random_bytes: raw bits 0xf-0x2a.7 (28)
  0x000001|5a 58 17 74 fc 44 27 78 48 33 37 b7 e1 51 dd 58|ZX.t.D'xH37..Q.X|
  0x000002|3c 7c 69 44 4f 57 4e 47 52 44 01               |<|iDOWNGRD.     |
  0x000002|                                 20            |                |            session_id_length: 32 0x2b-0x2b.7 (1)
  0x000002|                                    98 88 f5 a7|            ....|            session_id: raw bits 0x2c-0x4b.7 (32)
  0x000003|9d 5a 02 a4 ba 46 71 78 39 4d e1 15 b7 68 87 ef|.Z...Fqx9M...h..|
  0x000004|81 94 37 c5 db e0 d7 fa 81 ed e0 14            |..7.........    |
  0x000004|                                    c0 2f      |            ./  |            cipher_suit: "TLS_ECDHE_RSA_WITH_AES_128_GCM_SHA256" (0xc02f) 0x4c-0x4d.7 (2)
  0x000004|                                          00   |              . |            compression_method: "null" (0x0) 0x4e-0x4e.7 (1)
  0x000004|                                             00|               .|            extensions_length: 36 0x4f-0x50.7 (2)
  0x000005|24                                             |$               |
          |                                               |                |            extensions[0:5]: 0x51-0x74.7 (36)
          |                                               |                |              [0]{}: extension 0x51-0x55.7 (5)
  0x000005|   ff 01                                       | ..             |                type: "renegotiation_info" (65281) 0x51-0x52.7 (2)
  0x000005|         00 01                                 |   ..           |                length: 1 0x53-0x54.7 (2)
  0x000005|               00                              |     .          |                data: raw bits 0x55-0x55.7 (1)
          |                                               |                |              [1]{}: extension 0x56-0x59.7 (4)
  0x000005|                  00 00                        |      ..        |                type: "server_name" (0) 0x56-0x57.7 (2)
  0x000005|                        00 00                  |        ..      |                length: 0 0x58-0x59.7 (2)
          |                                               |                |              [2]{}: extension 0x5a-0x61.7 (8)
  0x000005|                              00 0b            |          ..    |                type: "ec_point_formats" (11) 0x5a-0x5b.7 (2)
  0x000005|                                    00 04      |            ..  |                length: 4 0x5c-0x5d.7 (2)
  0x000005|                                          03   |              . |                ex_points_format_length: 3 0x5e-0x5e.7 (1)
          |                                               |                |                ex_points_formats[0:3]: 0x5f-0x61.7 (3)
  0x000005|                                             00|               .|                  [0]: 0x0 ex_points_format 0x5f-0x5f.7 (1)
  0x000006|01                                             |.               |                  [1]: 0x1 ex_points_format 0x60-0x60.7 (1)
  0x000006|   02                                          | .              |                  [2]: 0x2 ex_points_format 0x61-0x61.7 (1)
          |                                               |                |              [3]{}: extension 0x62-0x70.7 (15)
  0x000006|      00 10                                    |  ..            |                type: "application_layer_protocol_negotiation" (16) 0x62-0x63.7 (2)
  0x000006|            00 0b                              |    ..          |                length: 11 0x64-0x65.7 (2)
  0x000006|                  00 09                        |      ..        |                serer_names_length: 9 0x66-0x67.7 (2)
          |                                               |                |                protocols[0:1]: 0x68-0x70.7 (9)
          |                                               |                |                  [0]{}: protocol 0x68-0x70.7 (9)
  0x000006|                        08                     |        .       |                    length: 8 0x68-0x68.7 (1)
  0x000006|                           68 74 74 70 2f 31 2e|         http/1.|                    name: "http/1.1" 0x69-0x70.7 (8)
  0x000007|31                                             |1               |
          |                                               |                |              [4]{}: extension 0x71-0x74.7 (4)
  0x000007|   00 17                                       | ..             |                type: "extended_master_secret" (23) 0x71-0x72.7 (2)
  0x000007|         00 00                                 |   ..           |                length: 0 0x73-0x74.7 (2)
          |                                               |                |        [1]{}: record 0x75-0x104a.7 (4054)
  0x000007|               16                              |     .          |          type: "handshake" (22) (valid) 0x75-0x75.7 (1)
  0x000007|                  03 03                        |      ..        |          version: "tls1.2" (0x303) (valid) 0x76-0x77.7 (2)
  0x000007|                        0f d1                  |        ..      |          length: 4049 0x78-0x79.7 (2)
          |                                               |                |          message{}: 0x7a-0x104a.7 (4049)
  0x000007|                              0b               |          .     |            type: "certificate" (11) 0x7a-0x7a.7 (1)
  0x000007|                                 00 0f cd      |           ...  |            length: 4045 0x7b-0x7d.7 (3)
  0x000007|                                          00 0f|              ..|            certificates_length: 4042 0x7e-0x80.7 (3)
  0x000008|ca                                             |.               |
          |                                               |                |            certificates[0:3]: 0x81-0x104a.7 (4042)
          |                                               |                |              [0]{}: certificate 0x81-0x5c6.7 (1350)
  0x000008|   00 05 43                                    | ..C            |                length: 1347 0x81-0x83.7 (3)
          |00 01 02 03 04 05 06 07 08 09 0a 0b 0c 0d 0e 0f|0123456789abcdef|                data{}: (asn1_ber) 0x84-0x5c6.7 (1347)
  0x000008|            30                                 |    0           |                  class: "universal" (0) 0x84-0x84.1 (0.2)
  0x000008|            30                                 |    0           |                  form: "constructed" (1) 0x84.2-0x84.2 (0.1)
  0x000008|            30                                 |    0           |                  tag: "sequence" (0x10) 0x84.3-0x84.7 (0.5)
  0x000008|               82 05 3f                        |     ..?        |                  length: 1343 0x85-0x87.7 (3)
          |                                               |                |                  constructed[0:3]: 0x88-0x5c6.7 (1343)
          |                                               |                |                    [0]{}: object 0x88-0x4b2.7 (1067)
  0x000008|                        30                     |        0       |                      class: "universal" (0) 0x88-0x88.1 (0.2)
  0x000008|                        30                     |        0       |                      form: "constructed" (1) 0x88.2-0x88.2 (0.1)
  0x000008|                        30                     |        0       |                      tag: "sequence" (0x10) 0x88.3-0x88.7 (0.5)
  0x000008|                           82 04 27            |         ..'    |                      length: 1063 0x89-0x8b.7 (3)
          |                                               |                |                      constructed[0:8]: 0x8c-0x4b2.7 (1063)
          |                                               |                |                        [0]{}: object 0x8c-0x90.7 (5)
  0x000008|                                    a0         |            .   |                          class: "context" (2) 0x8c-0x8c.1 (0.2)
  0x000008|                                    a0         |            .   |                          form: "constructed" (1) 0x8c.2-0x8c.2 (0.1)
  0x000008|                                    a0         |            .   |                          tag: 0 0x8c.3-0x8c.7 (0.5)
  0x000008|                                       03      |             .  |                          length: 3 0x8d-0x8d.7 (1)
          |                                               |                |                          constructed[0:1]: 0x8e-0x90.7 (3)
          |                                               |                |                            [0]{}: object 0x8e-0x90.7 (3)
  0x000008|                                          02   |              . |                              class: "universal" (0) 0x8e-0x8e.1 (0.2)
  0x000008|                                          02   |              . |                              form: "primitive" (0) 0x8e.2-0x8e.2 (0.1)
  0x000008|                                          02   |              . |                              tag: "integer" (0x2) 0x8e.3-0x8e.7 (0.5)
  0x000008|                                             01|               .|                              length: 1 0x8f-0x8f.7 (1)
  0x000009|02                                             |.               |                              value: 2 0x90-0x90.7 (1)
          |                                               |                |                        [1]{}: object 0x91-0xa4.7 (20)
  0x000009|   02                                          | .              |                          class: "universal" (0) 0x91-0x91.1 (0.2)
  0x000009|   02                                          | .              |                          form: "primitive" (0) 0x91.2-0x91.2 (0.1)
  0x000009|   02                                          | .              |                          tag: "integer" (0x2) 0x91.3-0x91.7 (0.5)
  0x000009|      12                                       |  .             |                          length: 18 0x92-0x92.7 (1)
  0x000009|         03 6b 1d d8 07 21 66 14 a0 68 62 40 ae|   .k...!f..hb@.|                          value: 297786740348443350609089518586106012555867 0x93-0xa4.7 (18)
  0x00000a|bb 3c b8 da 5b                                 |.<..[           |
          |                                               |                |                        [2]{}: object 0xa5-0xb3.7 (15)
  0x00000a|               30                              |     0          |                          class: "universal" (0) 0xa5-0xa5.1 (0.2)
  0x00000a|               30                              |     0          |                          form: "constructed" (1) 0xa5.2-0xa5.2 (0.1)
  0x00000a|               30                              |     0          |                          tag: "sequence" (0x10) 0xa5.3-0xa5.7 (0.5)
  0x00000a|                  0d                           |      .         |                          length: 13 0xa6-0xa6.7 (1)
          |                                               |                |                          constructed[0:2]: 0xa7-0xb3.7 (13)
          |                                               |                |                            [0]{}: object 0xa7-0xb1.7 (11)
  0x00000a|                     06                        |       .        |                              class: "universal" (0) 0xa7-0xa7.1 (0.2)
  0x00000a|                     06                        |       .        |                              form: "primitive" (0) 0xa7.2-0xa7.2 (0.1)
  0x00000a|                     06                        |       .        |                              tag: "object_identifier" (0x6) 0xa7.3-0xa7.7 (0.5)
  0x00000a|                        09                     |        .       |                              length: 9 0xa8-0xa8.7 (1)
          |                                               |                |                              value[0:7]: 0xa9-0xb1.7 (9)
  0x00000a|                           2a                  |         *      |                                [0]: 1 oid 0xa9-0xa9.7 (1)
  0x00000a|                           2a                  |         *      |                                [1]: 2 oid 0xa9-0xa9.7 (1)
  0x00000a|                              86 48            |          .H    |                                [2]: 840 oid 0xaa-0xab.7 (2)
  0x00000a|                                    86 f7 0d   |            ... |                                [3]: 113549 oid 0xac-0xae.7 (3)
  0x00000a|                                             01|               .|                                [4]: 1 oid 0xaf-0xaf.7 (1)
  0x00000b|01                                             |.               |                                [5]: 1 oid 0xb0-0xb0.7 (1)
  0x00000b|   0b                                          | .              |                                [6]: 11 oid 0xb1-0xb1.7 (1)
          |                                               |                |                            [1]{}: object 0xb2-0xb3.7 (2)
  0x00000b|      05                                       |  .             |                              class: "universal" (0) 0xb2-0xb2.1 (0.2)
  0x00000b|      05                                       |  .             |                              form: "primitive" (0) 0xb2.2-0xb2.2 (0.1)
  0x00000b|      05                                       |  .             |                              tag: "null" (0x5) 0xb2.3-0xb2.7 (0.5)
  0x00000b|         00                                    |   .            |                              length: "indefinite" (0) 0xb3-0xb3.7 (1)
          |                                               |                |                              value: null
          |                                               |                |                        [3]{}: object 0xb4-0xe7.7 (52)
  0x00000b|            30                                 |    0           |                          class: "universal" (0) 0xb4-0xb4.1 (0.2)
  0x00000b|            30                                 |    0           |                          form: "constructed" (1) 0xb4.2-0xb4.2 (0.1)
  0x00000b|            30                                 |    0           |                          tag: "sequence" (0x10) 0xb4.3-0xb4.7 (0.5)
  0x00000b|               32                              |     2          |                          length: 50 0xb5-0xb5.7 (1)
          |                                               |                |                          constructed[0:3]: 0xb6-0xe7.7 (50)
          |                                               |                |                            [0]{}: object 0xb6-0xc2.7 (13)
  0x00000b|                  31                           |      1         |                              class: "universal" (0) 0xb6-0xb6.1 (0.2)
  0x00000b|                  31                           |      1         |                              form: "constructed" (1) 0xb6.2-0xb6.2 (0.1)
  0x00000b|                  31                           |      1         |                              tag: "set" (0x11) 0xb6.3-0xb6.7 (0.5)
  0x00000b|                     0b                        |       .        |                              length: 11 0xb7-0xb7.7 (1)
          |                                               |                |                              constructed[0:1]: 0xb8-0xc2.7 (11)
          |                                               |                |                                [0]{}: object 0xb8-0xc2.7 (11)
  0x00000b|                        30                     |        0       |                                  class: "universal" (0) 0xb8-0xb8.1 (0.2)
  0x00000b|                        30                     |        0       |                                  form: "constructed" (1) 0xb8.2-0xb8.2 (0.1)
  0x00000b|                        30                     |        0       |                                  tag: "sequence" (0x10) 0xb8.3-0xb8.7 (0.5)
  0x00000b|                           09                  |         .      |                                  length: 9 0xb9-0xb9.7 (1)
          |                                               |                |                                  constructed[0:2]: 0xba-0xc2.7 (9)
          |                                               |                |                                    [0]{}: object 0xba-0xbe.7 (5)
  0x00000b|                              06               |          .     |                                      class: "universal" (0) 0xba-0xba.1 (0.2)
  0x00000b|                              06               |          .     |                                      form: "primitive" (0) 0xba.2-0xba.2 (0.1)
  0x00000b|                              06               |          .     |                                      tag: "object_identifier" (0x6) 0xba.3-0xba.7 (0.5)
  0x00000b|                                 03            |           .    |                                      length: 3 0xbb-0xbb.7 (1)
          |                                               |                |                                      value[0:4]: 0xbc-0xbe.7 (3)
  0x00000b|                                    55         |            U   |                                        [0]: 2 oid 0xbc-0xbc.7 (1)
  0x00000b|                                    55         |            U   |                                        [1]: 5 oid 0xbc-0xbc.7 (1)
  0x00000b|                                       04      |             .  |                                        [2]: 4 oid 0xbd-0xbd.7 (1)
  0x00000b|                                          06   |              . |                                        [3]: 6 oid 0xbe-0xbe.7 (1)
          |                                               |                |                                    [1]{}: object 0xbf-0xc2.7 (4)
  0x00000b|                                             13|               .|                                      class: "universal" (0) 0xbf-0xbf.1 (0.2)
  0x00000b|                                             13|               .|                                      form: "primitive" (0) 0xbf.2-0xbf.2 (0.1)
  0x00000b|                                             13|               .|                                      tag: "printable_string" (0x13) 0xbf.3-0xbf.7 (0.5)
  0x00000c|02                                             |.               |                                      length: 2 0xc0-0xc0.7 (1)
  0x00000c|   55 53                                       | US             |                                      value: "US" 0xc1-0xc2.7 (2)
          |                                               |                |                            [1]{}: object 0xc3-0xda.7 (24)
  0x00000c|         31                                    |   1            |                              class: "universal" (0) 0xc3-0xc3.1 (0.2)
  0x00000c|         31                                    |   1            |                              form: "constructed" (1) 0xc3.2-0xc3.2 (0.1)
  0x00000c|         31                                    |   1            |                              tag: "set" (0x11) 0xc3.3-0xc3.7 (0.5)
  0x00000c|            16                                 |    .           |                              length: 22 0xc4-0xc4.7 (1)
          |                                               |                |                              constructed[0:1]: 0xc5-0xda.7 (22)
          |                                               |                |                                [0]{}: object 0xc5-0xda.7 (22)
  0x00000c|               30                              |     0          |                                  class: "universal" (0) 0xc5-0xc5.1 (0.2)
  0x00000c|               30                              |     0          |                                  form: "constructed" (1) 0xc5.2-0xc5.2 (0.1)
  0x00000c|               30                              |     0          |                                  tag: "sequence" (0x10) 0xc5.3-0xc5.7 (0.5)
  0x00000c|                  14                           |      .         |                                  length: 20 0xc6-0xc6.7 (1)
          |                                               |                |                                  constructed[0:2]: 0xc7-0xda.7 (20)
          |                                               |                |                                    [0]{}: object 0xc7-0xcb.7 (5)
  0x00000c|                     06                        |       .        |                                      class: "universal" (0) 0xc7-0xc7.1 (0.2)
  0x00000c|                     06                        |       .        |                                      form: "primitive" (0) 0xc7.2-0xc7.2 (0.1)
  0x00000c|                     06                        |       .        |                                      tag: "object_identifier" (0x6) 0xc7.3-0xc7.7 (0.5)
  0x00000c|                        03                     |        .       |                                      length: 3 0xc8-0xc8.7 (1)
          |                                               |                |                                      value[0:4]: 0xc9-0xcb.7 (3)
  0x00000c|                           55                  |         U      |                                        [0]: 2 oid 0xc9-0xc9.7 (1)
  0x00000c|                           55                  |         U      |                                        [1]: 5 oid 0xc9-0xc9.7 (1)
  0x00000c|                              04               |          .     |                                        [2]: 4 oid 0xca-0xca.7 (1)
  0x00000c|                                 0a            |           .    |                                        [3]: 10 oid 0xcb-0xcb.7 (1)
          |                                               |                |                                    [1]{}: object 0xcc-0xda.7 (15)
  0x00000c|                                    13         |            .   |                                      class: "universal" (0) 0xcc-0xcc.1 (0.2)
  0x00000c|                                    13         |            .   |                                      form: "primitive" (0) 0xcc.2-0xcc.2 (0.1)
  0x00000c|                                    13         |            .   |                                      tag: "printable_string" (0x13) 0xcc.3-0xcc.7 (0.5)
  0x00000c|                                       0d      |             .  |                                      length: 13 0xcd-0xcd.7 (1)
  0x00000c|                                          4c 65|              Le|                                      value: "Let's Encrypt" 0xce-0xda.7 (13)
  0x00000d|74 27 73 20 45 6e 63 72 79 70 74               |t's Encrypt     |
          |                                               |                |                            [2]{}: object 0xdb-0xe7.7 (13)
  0x00000d|                                 31            |           1    |                              class: "universal" (0) 0xdb-0xdb.1 (0.2)
  0x00000d|                                 31            |           1    |                              form: "constructed" (1) 0xdb.2-0xdb.2 (0.1)
  0x00000d|                                 31            |           1    |                              tag: "set" (0x11) 0xdb.3-0xdb.7 (0.5)
  0x00000d|                                    0b         |            .   |                              length: 11 0xdc-0xdc.7 (1)
          |                                               |                |                              constructed[0:1]: 0xdd-0xe7.7 (11)
          |                                               |                |                                [0]{}: object 0xdd-0xe7.7 (11)
  0x00000d|                                       30      |             0  |                                  class: "universal" (0) 0xdd-0xdd.1 (0.2)
  0x00000d|                                       30      |             0  |                                  form: "constructed" (1) 0xdd.2-0xdd.2 (0.1)
  0x00000d|                                       30      |             0  |                                  tag: "sequence" (0x10) 0xdd.3-0xdd.7 (0.5)
  0x00000d|                                          09   |              . |                                  length: 9 0xde-0xde.7 (1)
          |                                               |                |                                  constructed[0:2]: 0xdf-0xe7.7 (9)
          |                                               |                |                                    [0]{}: object 0xdf-0xe3.7 (5)
  0x00000d|                                             06|               .|                                      class: "universal" (0) 0xdf-0xdf.1 (0.2)
  0x00000d|                                             06|               .|                                      form: "primitive" (0) 0xdf.2-0xdf.2 (0.1)
  0x00000d|                                             06|               .|                                      tag: "object_identifier" (0x6) 0xdf.3-0xdf.7 (0.5)
  0x00000e|03                                             |.               |                                      length: 3 0xe0-0xe0.7 (1)
          |                                               |                |                                      value[0:4]: 0xe1-0xe3.7 (3)
  0x00000e|   55                                          | U              |                                        [0]: 2 oid 0xe1-0xe1.7 (1)
  0x00000e|   55                                          | U              |                                        [1]: 5 oid 0xe1-0xe1.7 (1)
  0x00000e|      04                                       |  .             |                                        [2]: 4 oid 0xe2-0xe2.7 (1)
  0x00000e|         03                                    |   .            |                                        [3]: 3 oid 0xe3-0xe3.7 (1)
          |                                               |                |                                    [1]{}: object 0xe4-0xe7.7 (4)
  0x00000e|            13                                 |    .           |                                      class: "universal" (0) 0xe4-0xe4.1 (0.2)
  0x00000e|            13                                 |    .           |                                      form: "primitive" (0) 0xe4.2-0xe4.2 (0.1)
  0x00000e|            13                                 |    .           |                                      tag: "printable_string" (0x13) 0xe4.3-0xe4.7 (0.5)
  0x00000e|               02                              |     .          |                                      length: 2 0xe5-0xe5.7 (1)
  0x00000e|                  52 33                        |      R3        |                                      value: "R3" 0xe6-0xe7.7 (2)
          |                                               |                |                        [4]{}: object 0xe8-0x107.7 (32)
  0x00000e|                        30                     |        0       |                          class: "universal" (0) 0xe8-0xe8.1 (0.2)
  0x00000e|                        30                     |        0       |                          form: "constructed" (1) 0xe8.2-0xe8.2 (0.1)
  0x00000e|                        30                     |        0       |                          tag: "sequence" (0x10) 0xe8.3-0xe8.7 (0.5)
  0x00000e|                           1e                  |         .      |                          length: 30 0xe9-0xe9.7 (1)
          |                                               |                |                          constructed[0:2]: 0xea-0x107.7 (30)
          |                                               |                |                            [0]{}: object 0xea-0xf8.7 (15)
  0x00000e|                              17               |          .     |                              class: "universal" (0) 0xea-0xea.1 (0.2)
  0x00000e|                              17               |          .     |                              form: "primitive" (0) 0xea.2-0xea.2 (0.1)
  0x00000e|                              17               |          .     |                              tag: "utc_time" (0x17) 0xea.3-0xea.7 (0.5)
  0x00000e|                                 0d            |           .    |                              length: 13 0xeb-0xeb.7 (1)
  0x00000e|                                    32 33 30 31|            2301|                              value: "230105073238Z" 0xec-0xf8.7 (13)
  0x00000f|30 35 30 37 33 32 33 38 5a                     |05073238Z       |
          |                                               |                |                            [1]{}: object 0xf9-0x107.7 (15)
  0x00000f|                           17                  |         .      |                              class: "universal" (0) 0xf9-0xf9.1 (0.2)
  0x00000f|                           17                  |         .      |                              form: "primitive" (0) 0xf9.2-0xf9.2 (0.1)
  0x00000f|                           17                  |         .      |                              tag: "utc_time" (0x17) 0xf9.3-0xf9.7 (0.5)
  0x00000f|                              0d               |          .     |                              length: 13 0xfa-0xfa.7 (1)
  0x00000f|                                 32 33 30 34 30|           23040|                              value: "230405073237Z" 0xfb-0x107.7 (13)
  0x000010|35 30 37 33 32 33 37 5a                        |5073237Z        |
          |                                               |                |                        [5]{}: object 0x108-0x11f.7 (24)
  0x000010|                        30                     |        0       |                          class: "universal" (0) 0x108-0x108.1 (0.2)
  0x000010|                        30                     |        0       |                          form: "constructed" (1) 0x108.2-0x108.2 (0.1)
  0x000010|                        30                     |        0       |                          tag: "sequence" (0x10) 0x108.3-0x108.7 (0.5)
  0x000010|                           16                  |         .      |                          length: 22 0x109-0x109.7 (1)
          |                                               |                |                          constructed[0:1]: 0x10a-0x11f.7 (22)
          |                                               |                |                            [0]{}: object 0x10a-0x11f.7 (22)
  0x000010|                              31               |          1     |                              class: "universal" (0) 0x10a-0x10a.1 (0.2)
  0x000010|                              31               |          1     |                              form: "constructed" (1) 0x10a.2-0x10a.2 (0.1)
  0x000010|                              31               |          1     |                              tag: "set" (0x11) 0x10a.3-0x10a.7 (0.5)
  0x000010|                                 14            |           .    |                              length: 20 0x10b-0x10b.7 (1)
          |                                               |                |                              constructed[0:1]: 0x10c-0x11f.7 (20)
          |                                               |                |                                [0]{}: object 0x10c-0x11f.7 (20)
  0x000010|                                    30         |            0   |                                  class: "universal" (0) 0x10c-0x10c.1 (0.2)
  0x000010|                                    30         |            0   |                                  form: "constructed" (1) 0x10c.2-0x10c.2 (0.1)
  0x000010|                                    30         |            0   |                                  tag: "sequence" (0x10) 0x10c.3-0x10c.7 (0.5)
  0x000010|                                       12      |             .  |                                  length: 18 0x10d-0x10d.7 (1)
          |                                               |                |                                  constructed[0:2]: 0x10e-0x11f.7 (18)
          |                                               |                |                                    [0]{}: object 0x10e-0x112.7 (5)
  0x000010|                                          06   |              . |                                      class: "universal" (0) 0x10e-0x10e.1 (0.2)
  0x000010|                                          06   |              . |                                      form: "primitive" (0) 0x10e.2-0x10e.2 (0.1)
  0x000010|                                          06   |              . |                                      tag: "object_identifier" (0x6) 0x10e.3-0x10e.7 (0.5)
  0x000010|                                             03|               .|                                      length: 3 0x10f-0x10f.7 (1)
          |                                               |                |                                      value[0:4]: 0x110-0x112.7 (3)
  0x000011|55                                             |U               |                                        [0]: 2 oid 0x110-0x110.7 (1)
  0x000011|55                                             |U               |                                        [1]: 5 oid 0x110-0x110.7 (1)
  0x000011|   04                                          | .              |                                        [2]: 4 oid 0x111-0x111.7 (1)
  0x000011|      03                                       |  .             |                                        [3]: 3 oid 0x112-0x112.7 (1)
          |                                               |                |                                    [1]{}: object 0x113-0x11f.7 (13)
  0x000011|         13                                    |   .            |                                      class: "universal" (0) 0x113-0x113.1 (0.2)
  0x000011|         13                                    |   .            |                                      form: "primitive" (0) 0x113.2-0x113.2 (0.1)
  0x000011|         13                                    |   .            |                                      tag: "printable_string" (0x13) 0x113.3-0x113.7 (0.5)
  0x000011|            0b                                 |    .           |                                      length: 11 0x114-0x114.7 (1)
  0x000011|               74 65 73 74 74 6c 73 2e 63 6f 6d|     testtls.com|                                      value: "testtls.com" 0x115-0x11f.7 (11)
          |                                               |                |                        [6]{}: object 0x120-0x245.7 (294)
  0x000012|30                                             |0               |                          class: "universal" (0) 0x120-0x120.1 (0.2)
  0x000012|30                                             |0               |                          form: "constructed" (1) 0x120.2-0x120.2 (0.1)
  0x000012|30                                             |0               |                          tag: "sequence" (0x10) 0x120.3-0x120.7 (0.5)
  0x000012|   82 01 22                                    | .."            |                          length: 290 0x121-0x123.7 (3)
          |                                               |                |                          constructed[0:2]: 0x124-0x245.7 (290)
          |                                               |                |                            [0]{}: object 0x124-0x132.7 (15)
  0x000012|            30                                 |    0           |                              class: "universal" (0) 0x124-0x124.1 (0.2)
  0x000012|            30                                 |    0           |                              form: "constructed" (1) 0x124.2-0x124.2 (0.1)
  0x000012|            30                                 |    0           |                              tag: "sequence" (0x10) 0x124.3-0x124.7 (0.5)
  0x000012|               0d                              |     .          |                              length: 13 0x125-0x125.7 (1)
          |                                               |                |                              constructed[0:2]: 0x126-0x132.7 (13)
          |                                               |                |                                [0]{}: object 0x126-0x130.7 (11)
  0x000012|                  06                           |      .         |                                  class: "universal" (0) 0x126-0x126.1 (0.2)
  0x000012|                  06                           |      .         |                                  form: "primitive" (0) 0x126.2-0x126.2 (0.1)
  0x000012|                  06                           |      .         |                                  tag: "object_identifier" (0x6) 0x126.3-0x126.7 (0.5)
  0x000012|                     09                        |       .        |                                  length: 9 0x127-0x127.7 (1)
          |                                               |                |                                  value[0:7]: 0x128-0x130.7 (9)
  0x000012|                        2a                     |        *       |                                    [0]: 1 oid 0x128-0x128.7 (1)
  0x000012|                        2a                     |        *       |                                    [1]: 2 oid 0x128-0x128.7 (1)
  0x000012|                           86 48               |         .H     |                                    [2]: 840 oid 0x129-0x12a.7 (2)
  0x000012|                                 86 f7 0d      |           ...  |                                    [3]: 113549 oid 0x12b-0x12d.7 (3)
  0x000012|                                          01   |              . |                                    [4]: 1 oid 0x12e-0x12e.7 (1)
  0x000012|                                             01|               .|                                    [5]: 1 oid 0x12f-0x12f.7 (1)
  0x000013|01                                             |.               |                                    [6]: 1 oid 0x130-0x130.7 (1)
          |                                               |                |                                [1]{}: object 0x131-0x132.7 (2)
  0x000013|   05                                          | .              |                                  class: "universal" (0) 0x131-0x131.1 (0.2)
  0x000013|   05                                          | .              |                                  form: "primitive" (0) 0x131.2-0x131.2 (0.1)
  0x000013|   05                                          | .              |                                  tag: "null" (0x5) 0x131.3-0x131.7 (0.5)
  0x000013|      00                                       |  .             |                                  length: "indefinite" (0) 0x132-0x132.7 (1)
          |                                               |                |                                  value: null
          |                                               |                |                            [1]{}: object 0x133-0x245.7 (275)
  0x000013|         03                                    |   .            |                              class: "universal" (0) 0x133-0x133.1 (0.2)
  0x000013|         03                                    |   .            |                              form: "primitive" (0) 0x133.2-0x133.2 (0.1)
  0x000013|         03                                    |   .            |                              tag: "bit_string" (0x3) 0x133.3-0x133.7 (0.5)
  0x000013|            82 01 0f                           |    ...         |                              length: 271 0x134-0x136.7 (3)
  0x000013|                     00                        |       .        |                              unused_bits_count: 0 0x137-0x137.7 (1)
  0x000013|                        30 82 01 0a 02 82 01 01|        0.......|                              value: raw bits 0x138-0x245.7 (270)
  0x000014|00 bb bb f0 34 b1 bc 32 67 54 38 0d 44 f6 64 97|....4..2gT8.D.d.|
  *       |until 0x245.7 (270)                            |                |
          |                                               |                |                        [7]{}: object 0x246-0x4b2.7 (621)
  0x000024|                  a3                           |      .         |                          class: "context" (2) 0x246-0x246.1 (0.2)
  0x000024|                  a3                           |      .         |                          form: "constructed" (1) 0x246.2-0x246.2 (0.1)
  0x000024|                  a3                           |      .         |                          tag: 3 0x246.3-0x246.7 (0.5)
  0x000024|                     82 02 69                  |       ..i      |                          length: 617 0x247-0x249.7 (3)
          |                                               |                |                          constructed[0:1]: 0x24a-0x4b2.7 (617)
          |                                               |                |                            [0]{}: object 0x24a-0x4b2.7 (617)
  0x000024|                              30               |          0     |                              class: "universal" (0) 0x24a-0x24a.1 (0.2)
  0x000024|                              30               |          0     |                              form: "constructed" (1) 0x24a.2-0x24a.2 (0.1)
  0x000024|                              30               |          0     |                              tag: "sequence" (0x10) 0x24a.3-0x24a.7 (0.5)
  0x000024|                                 82 02 65      |           ..e  |                              length: 613 0x24b-0x24d.7 (3)
          |                                               |                |                              constructed[0:9]: 0x24e-0x4b2.7 (613)
          |                                               |                |                                [0]{}: object 0x24e-0x25d.7 (16)
  0x000024|                                          30   |              0 |                                  class: "universal" (0) 0x24e-0x24e.1 (0.2)
  0x000024|                                          30   |              0 |                                  form: "constructed" (1) 0x24e.2-0x24e.2 (0.1)
  0x000024|                                          30   |              0 |                                  tag: "sequence" (0x10) 0x24e.3-0x24e.7 (0.5)
  0x000024|                                             0e|               .|                                  length: 14 0x24f-0x24f.7 (1)
          |                                               |                |                                  constructed[0:3]: 0x250-0x25d.7 (14)
          |                                               |                |                                    [0]{}: object 0x250-0x254.7 (5)
  0x000025|06                                             |.               |                                      class: "universal" (0) 0x250-0x250.1 (0.2)
  0x000025|06                                             |.               |                                      form: "primitive" (0) 0x250.2-0x250.2 (0.1)
  0x000025|06                                             |.               |                                      tag: "object_identifier" (0x6) 0x250.3-0x250.7 (0.5)
  0x000025|   03                                          | .              |                                      length: 3 0x251-0x251.7 (1)
          |                                               |                |                                      value[0:4]: 0x252-0x254.7 (3)
  0x000025|      55                                       |  U             |                                        [0]: 2 oid 0x252-0x252.7 (1)
  0x000025|      55                                       |  U             |                                        [1]: 5 oid 0x252-0x252.7 (1)
  0x000025|         1d                                    |   .            |                                        [2]: 29 oid 0x253-0x253.7 (1)
  0x000025|            0f                                 |    .           |                                        [3]: 15 oid 0x254-0x254.7 (1)
          |                                               |                |                                    [1]{}: object 0x255-0x257.7 (3)
  0x000025|               01                              |     .          |                                      class: "universal" (0) 0x255-0x255.1 (0.2)
  0x000025|               01                              |     .          |                                      form: "primitive" (0) 0x255.2-0x255.2 (0.1)
  0x000025|               01                              |     .          |                                      tag: "boolean" (0x1) 0x255.3-0x255.7 (0.5)
  0x000025|                  01                           |      .         |                                      length: 1 0x256-0x256.7 (1)
  0x000025|                     ff                        |       .        |                                      value: true (255) 0x257-0x257.7 (1)
          |                                               |                |                                    [2]{}: object 0x258-0x25d.7 (6)
  0x000025|                        04                     |        .       |                                      class: "universal" (0) 0x258-0x258.1 (0.2)
  0x000025|                        04                     |        .       |                                      form: "primitive" (0) 0x258.2-0x258.2 (0.1)
  0x000025|                        04                     |        .       |                                      tag: "octet_string" (0x4) 0x258.3-0x258.7 (0.5)
  0x000025|                           04                  |         .      |                                      length: 4 0x259-0x259.7 (1)
  0x000025|                              03 02 05 a0      |          ....  |                                      value: raw bits 0x25a-0x25d.7 (4)
          |                                               |                |                                [1]{}: object 0x25e-0x27c.7 (31)
  0x000025|                                          30   |              0 |                                  class: "universal" (0) 0x25e-0x25e.1 (0.2)
  0x000025|                                          30   |              0 |                                  form: "constructed" (1) 0x25e.2-0x25e.2 (0.1)
  0x000025|                                          30   |              0 |                                  tag: "sequence" (0x10) 0x25e.3-0x25e.7 (0.5)
  0x000025|                                             1d|               .|                                  length: 29 0x25f-0x25f.7 (1)
          |                                               |                |                                  constructed[0:2]: 0x260-0x27c.7 (29)
          |                                               |                |                                    [0]{}: object 0x260-0x264.7 (5)
  0x000026|06                                             |.               |                                      class: "universal" (0) 0x260-0x260.1 (0.2)
  0x000026|06                                             |.               |                                      form: "primitive" (0) 0x260.2-0x260.2 (0.1)
  0x000026|06                                             |.               |                                      tag: "object_identifier" (0x6) 0x260.3-0x260.7 (0.5)
  0x000026|   03                                          | .              |                                      length: 3 0x261-0x261.7 (1)
          |                                               |                |                                      value[0:4]: 0x262-0x264.7 (3)
  0x000026|      55                                       |  U             |                                        [0]: 2 oid 0x262-0x262.7 (1)
  0x000026|      55                                       |  U             |                                        [1]: 5 oid 0x262-0x262.7 (1)
  0x000026|         1d                                    |   .            |                                        [2]: 29 oid 0x263-0x263.7 (1)
  0x000026|            25                                 |    %           |                                        [3]: 37 oid 0x264-0x264.7 (1)
          |                                               |                |                                    [1]{}: object 0x265-0x27c.7 (24)
  0x000026|               04                              |     .          |                                      class: "universal" (0) 0x265-0x265.1 (0.2)
  0x000026|               04                              |     .          |                                      form: "primitive" (0) 0x265.2-0x265.2 (0.1)
  0x000026|               04                              |     .          |                                      tag: "octet_string" (0x4) 0x265.3-0x265.7 (0.5)
  0x000026|                  16                           |      .         |                                      length: 22 0x266-0x266.7 (1)
  0x000026|                     30 14 06 08 2b 06 01 05 05|       0...+....|                                      value: raw bits 0x267-0x27c.7 (22)
  0x000027|07 03 01 06 08 2b 06 01 05 05 07 03 02         |.....+.......   |
          |                                               |                |                                [2]{}: object 0x27d-0x28a.7 (14)
  0x000027|                                       30      |             0  |                                  class: "universal" (0) 0x27d-0x27d.1 (0.2)
  0x000027|                                       30      |             0  |                                  form: "constructed" (1) 0x27d.2-0x27d.2 (0.1)
  0x000027|                                       30      |             0  |                                  tag: "sequence" (0x10) 0x27d.3-0x27d.7 (0.5)
  0x000027|                                          0c   |              . |                                  length: 12 0x27e-0x27e.7 (1)
          |                                               |                |                                  constructed[0:3]: 0x27f-0x28a.7 (12)
          |                                               |                |                                    [0]{}: object 0x27f-0x283.7 (5)
  0x000027|                                             06|               .|                                      class: "universal" (0) 0x27f-0x27f.1 (0.2)
  0x000027|                                             06|               .|                                      form: "primitive" (0) 0x27f.2-0x27f.2 (0.1)
  0x000027|                                             06|               .|                                      tag: "object_identifier" (0x6) 0x27f.3-0x27f.7 (0.5)
  0x000028|03                                             |.               |                                      length: 3 0x280-0x280.7 (1)
          |                                               |                |                                      value[0:4]: 0x281-0x283.7 (3)
  0x000028|   55                                          | U              |                                        [0]: 2 oid 0x281-0x281.7 (1)
  0x000028|   55                                          | U              |                                        [1]: 5 oid 0x281-0x281.7 (1)
  0x000028|      1d                                       |  .             |                                        [2]: 29 oid 0x282-0x282.7 (1)
  0x000028|         13                                    |   .            |                                        [3]: 19 oid 0x283-0x283.7 (1)
          |                                               |                |                                    [1]{}: object 0x284-0x286.7 (3)
  0x000028|            01                                 |    .           |                                      class: "universal" (0) 0x284-0x284.1 (0.2)
  0x000028|            01                                 |    .           |                                      form: "primitive" (0) 0x284.2-0x284.2 (0.1)
  0x000028|            01                                 |    .           |                                      tag: "boolean" (0x1) 0x284.3-0x284.7 (0.5)
  0x000028|               01                              |     .          |                                      length: 1 0x285-0x285.7 (1)
  0x000028|                  ff                           |      .         |                                      value: true (255) 0x286-0x286.7 (1)
          |                                               |                |                                    [2]{}: object 0x287-0x28a.7 (4)
  0x000028|                     04                        |       .        |                                      class: "universal" (0) 0x287-0x287.1 (0.2)
  0x000028|                     04                        |       .        |                                      form: "primitive" (0) 0x287.2-0x287.2 (0.1)
  0x000028|                     04                        |       .        |                                      tag: "octet_string" (0x4) 0x287.3-0x287.7 (0.5)
  0x000028|                        02                     |        .       |                                      length: 2 0x288-0x288.7 (1)
  0x000028|                           30 00               |         0.     |                                      value: raw bits 0x289-0x28a.7 (2)
          |                                               |                |                                [3]{}: object 0x28b-0x2a9.7 (31)
  0x000028|                                 30            |           0    |                                  class: "universal" (0) 0x28b-0x28b.1 (0.2)
  0x000028|                                 30            |           0    |                                  form: "constructed" (1) 0x28b.2-0x28b.2 (0.1)
  0x000028|                                 30            |           0    |                                  tag: "sequence" (0x10) 0x28b.3-0x28b.7 (0.5)
  0x000028|                                    1d         |            .   |                                  length: 29 0x28c-0x28c.7 (1)
          |                                               |                |                                  constructed[0:2]: 0x28d-0x2a9.7 (29)
          |                                               |                |                                    [0]{}: object 0x28d-0x291.7 (5)
  0x000028|                                       06      |             .  |                                      class: "universal" (0) 0x28d-0x28d.1 (0.2)
  0x000028|                                       06      |             .  |                                      form: "primitive" (0) 0x28d.2-0x28d.2 (0.1)
  0x000028|                                       06      |             .  |                                      tag: "object_identifier" (0x6) 0x28d.3-0x28d.7 (0.5)
  0x000028|                                          03   |              . |                                      length: 3 0x28e-0x28e.7 (1)
          |                                               |                |                                      value[0:4]: 0x28f-0x291.7 (3)
  0x000028|                                             55|               U|                                        [0]: 2 oid 0x28f-0x28f.7 (1)
  0x000028|                                             55|               U|                                        [1]: 5 oid 0x28f-0x28f.7 (1)
  0x000029|1d                                             |.               |                                        [2]: 29 oid 0x290-0x290.7 (1)
  0x000029|   0e                                          | .              |                                        [3]: 14 oid 0x291-0x291.7 (1)
          |                                               |                |                                    [1]{}: object 0x292-0x2a9.7 (24)
  0x000029|      04                                       |  .             |                                      class: "universal" (0) 0x292-0x292.1 (0.2)
  0x000029|      04                                       |  .             |                                      form: "primitive" (0) 0x292.2-0x292.2 (0.1)
  0x000029|      04                                       |  .             |                                      tag: "octet_string" (0x4) 0x292.3-0x292.7 (0.5)
  0x000029|         16                                    |   .            |                                      length: 22 0x293-0x293.7 (1)
  0x000029|            04 14 45 5e c1 6a f0 7e c3 aa 3c 17|    ..E^.j.~..<.|                                      value: raw bits 0x294-0x2a9.7 (22)
  0x00002a|e1 e5 a3 88 fa 0c 23 c6 89 af                  |......#...      |
          |                                               |                |                                [4]{}: object 0x2aa-0x2ca.7 (33)
  0x00002a|                              30               |          0     |                                  class: "universal" (0) 0x2aa-0x2aa.1 (0.2)
  0x00002a|                              30               |          0     |                                  form: "constructed" (1) 0x2aa.2-0x2aa.2 (0.1)
  0x00002a|                              30               |          0     |                                  tag: "sequence" (0x10) 0x2aa.3-0x2aa.7 (0.5)
  0x00002a|                                 1f            |           .    |                                  length: 31 0x2ab-0x2ab.7 (1)
          |                                               |                |                                  constructed[0:2]: 0x2ac-0x2ca.7 (31)
          |                                               |                |                                    [0]{}: object 0x2ac-0x2b0.7 (5)
  0x00002a|                                    06         |            .   |                                      class: "universal" (0) 0x2ac-0x2ac.1 (0.2)
  0x00002a|                                    06         |            .   |                                      form: "primitive" (0) 0x2ac.2-0x2ac.2 (0.1)
  0x00002a|                                    06         |            .   |                                      tag: "object_identifier" (0x6) 0x2ac.3-0x2ac.7 (0.5)
  0x00002a|                                       03      |             .  |                                      length: 3 0x2ad-0x2ad.7 (1)
          |                                               |                |                                      value[0:4]: 0x2ae-0x2b0.7 (3)
  0x00002a|                                          55   |              U |                                        [0]: 2 oid 0x2ae-0x2ae.7 (1)
  0x00002a|                                          55   |              U |                                        [1]: 5 oid 0x2ae-0x2ae.7 (1)
  0x00002a|                                             1d|               .|                                        [2]: 29 oid 0x2af-0x2af.7 (1)
  0x00002b|23                                             |#               |                                        [3]: 35 oid 0x2b0-0x2b0.7 (1)
          |                                               |                |                                    [1]{}: object 0x2b1-0x2ca.7 (26)
  0x00002b|   04                                          | .              |                                      class: "universal" (0) 0x2b1-0x2b1.1 (0.2)
  0x00002b|   04                                          | .              |                                      form: "primitive" (0) 0x2b1.2-0x2b1.2 (0.1)
  0x00002b|   04                                          | .              |                                      tag: "octet_string" (0x4) 0x2b1.3-0x2b1.7 (0.5)
  0x00002b|      18                                       |  .             |                                      length: 24 0x2b2-0x2b2.7 (1)
  0x00002b|         30 16 80 14 14 2e b3 17 b7 58 56 cb ae|   0........XV..|                                      value: raw bits 0x2b3-0x2ca.7 (24)
  0x00002c|50 09 40 e6 1f af 9d 8b 14 c2 c6               |P.@........     |
          |                                               |                |                                [5]{}: object 0x2cb-0x321.7 (87)
  0x00002c|                                 30            |           0    |                                  class: "universal" (0) 0x2cb-0x2cb.1 (0.2)
  0x00002c|                                 30            |           0    |                                  form: "constructed" (1) 0x2cb.2-0x2cb.2 (0.1)
  0x00002c|                                 30            |           0    |                                  tag: "sequence" (0x10) 0x2cb.3-0x2cb.7 (0.5)
  0x00002c|                                    55         |            U   |                                  length: 85 0x2cc-0x2cc.7 (1)
          |                                               |                |                                  constructed[0:2]: 0x2cd-0x321.7 (85)
          |                                               |                |                                    [0]{}: object 0x2cd-0x2d6.7 (10)
  0x00002c|                                       06      |             .  |                                      class: "universal" (0) 0x2cd-0x2cd.1 (0.2)
  0x00002c|                                       06      |             .  |                                      form: "primitive" (0) 0x2cd.2-0x2cd.2 (0.1)
  0x00002c|                                       06      |             .  |                                      tag: "object_identifier" (0x6) 0x2cd.3-0x2cd.7 (0.5)
  0x00002c|                                          08   |              . |                                      length: 8 0x2ce-0x2ce.7 (1)
          |                                               |                |                                      value[0:9]: 0x2cf-0x2d6.7 (8)
  0x00002c|                                             2b|               +|                                        [0]: 1 oid 0x2cf-0x2cf.7 (1)
  0x00002c|                                             2b|               +|                                        [1]: 3 oid 0x2cf-0x2cf.7 (1)
  0x00002d|06                                             |.               |                                        [2]: 6 oid 0x2d0-0x2d0.7 (1)
  0x00002d|   01                                          | .              |                                        [3]: 1 oid 0x2d1-0x2d1.7 (1)
  0x00002d|      05                                       |  .             |                                        [4]: 5 oid 0x2d2-0x2d2.7 (1)
  0x00002d|         05                                    |   .            |                                        [5]: 5 oid 0x2d3-0x2d3.7 (1)
  0x00002d|            07                                 |    .           |                                        [6]: 7 oid 0x2d4-0x2d4.7 (1)
  0x00002d|               01                              |     .          |                                        [7]: 1 oid 0x2d5-0x2d5.7 (1)
  0x00002d|                  01                           |      .         |                                        [8]: 1 oid 0x2d6-0x2d6.7 (1)
          |                                               |                |                                    [1]{}: object 0x2d7-0x321.7 (75)
  0x00002d|                     04                        |       .        |                                      class: "universal" (0) 0x2d7-0x2d7.1 (0.2)
  0x00002d|                     04                        |       .        |                                      form: "primitive" (0) 0x2d7.2-0x2d7.2 (0.1)
  0x00002d|                     04                        |       .        |                                      tag: "octet_string" (0x4) 0x2d7.3-0x2d7.7 (0.5)
  0x00002d|                        49                     |        I       |                                      length: 73 0x2d8-0x2d8.7 (1)
  0x00002d|                           30 47 30 21 06 08 2b|         0G0!..+|                                      value: raw bits 0x2d9-0x321.7 (73)
  0x00002e|06 01 05 05 07 30 01 86 15 68 74 74 70 3a 2f 2f|.....0...http://|
  *       |until 0x321.7 (73)                             |                |
          |                                               |                |                                [6]{}: object 0x322-0x35c.7 (59)
  0x000032|      30                                       |  0             |                                  class: "universal" (0) 0x322-0x322.1 (0.2)
  0x000032|      30                                       |  0             |                                  form: "constructed" (1) 0x322.2-0x322.2 (0.1)
  0x000032|      30                                       |  0             |                                  tag: "sequence" (0x10) 0x322.3-0x322.7 (0.5)
  0x000032|         39                                    |   9            |                                  length: 57 0x323-0x323.7 (1)
          |                                               |                |                                  constructed[0:2]: 0x324-0x35c.7 (57)
          |                                               |                |                                    [0]{}: object 0x324-0x328.7 (5)
  0x000032|            06                                 |    .           |                                      class: "universal" (0) 0x324-0x324.1 (0.2)
  0x000032|            06                                 |    .           |                                      form: "primitive" (0) 0x324.2-0x324.2 (0.1)
  0x000032|            06                                 |    .           |                                      tag: "object_identifier" (0x6) 0x324.3-0x324.7 (0.5)
  0x000032|               03                              |     .          |                                      length: 3 0x325-0x325.7 (1)
          |                                               |                |                                      value[0:4]: 0x326-0x328.7 (3)
  0x000032|                  55                           |      U         |                                        [0]: 2 oid 0x326-0x326.7 (1)
  0x000032|                  55                           |      U         |                                        [1]: 5 oid 0x326-0x326.7 (1)
  0x000032|                     1d                        |       .        |                                        [2]: 29 oid 0x327-0x327.7 (1)
  0x000032|                        11                     |        .       |                                        [3]: 17 oid 0x328-0x328.7 (1)
          |                                               |                |                                    [1]{}: object 0x329-0x35c.7 (52)
  0x000032|                           04                  |         .      |                                      class: "universal" (0) 0x329-0x329.1 (0.2)
  0x000032|                           04                  |         .      |                                      form: "primitive" (0) 0x329.2-0x329.2 (0.1)
  0x000032|                           04                  |         .      |                                      tag: "octet_string" (0x4) 0x329.3-0x329.7 (0.5)
  0x000032|                              32               |          2     |                                      length: 50 0x32a-0x32a.7 (1)
  0x000032|                                 30 30 82 10 69|           00..i|                                      value: raw bits 0x32b-0x35c.7 (50)
  0x000033|70 76 36 2e 74 65 73 74 74 6c 73 2e 63 6f 6d 82|pv6.testtls.com.|
  *       |until 0x35c.7 (50)                             |                |
          |                                               |                |                                [7]{}: object 0x35d-0x3aa.7 (78)
  0x000035|                                       30      |             0  |                                  class: "universal" (0) 0x35d-0x35d.1 (0.2)
  0x000035|                                       30      |             0  |                                  form: "constructed" (1) 0x35d.2-0x35d.2 (0.1)
  0x000035|                                       30      |             0  |                                  tag: "sequence" (0x10) 0x35d.3-0x35d.7 (0.5)
  0x000035|                                          4c   |              L |                                  length: 76 0x35e-0x35e.7 (1)
          |                                               |                |                                  constructed[0:2]: 0x35f-0x3aa.7 (76)
          |                                               |                |                                    [0]{}: object 0x35f-0x363.7 (5)
  0x000035|                                             06|               .|                                      class: "universal" (0) 0x35f-0x35f.1 (0.2)
  0x000035|                                             06|               .|                                      form: "primitive" (0) 0x35f.2-0x35f.2 (0.1)
  0x000035|                                             06|               .|                                      tag: "object_identifier" (0x6) 0x35f.3-0x35f.7 (0.5)
  0x000036|03                                             |.               |                                      length: 3 0x360-0x360.7 (1)
          |                                               |                |                                      value[0:4]: 0x361-0x363.7 (3)
  0x000036|   55                                          | U              |                                        [0]: 2 oid 0x361-0x361.7 (1)
  0x000036|   55                                          | U              |                                        [1]: 5 oid 0x361-0x361.7 (1)
  0x000036|      1d                                       |  .             |                                        [2]: 29 oid 0x362-0x362.7 (1)
  0x000036|         20                                    |                |                                        [3]: 32 oid 0x363-0x363.7 (1)
          |                                               |                |                                    [1]{}: object 0x364-0x3aa.7 (71)
  0x000036|            04                                 |    .           |                                      class: "universal" (0) 0x364-0x364.1 (0.2)
  0x000036|            04                                 |    .           |                                      form: "primitive" (0) 0x364.2-0x364.2 (0.1)
  0x000036|            04                                 |    .           |                                      tag: "octet_string" (0x4) 0x364.3-0x364.7 (0.5)
  0x000036|               45                              |     E          |                                      length: 69 0x365-0x365.7 (1)
  0x000036|                  30 43 30 08 06 06 67 81 0c 01|      0C0...g...|                                      value: raw bits 0x366-0x3aa.7 (69)
  0x000037|02 01 30 37 06 0b 2b 06 01 04 01 82 df 13 01 01|..07..+.........|
  *       |until 0x3aa.7 (69)                             |                |
          |                                               |                |                                [8]{}: object 0x3ab-0x4b2.7 (264)
  0x00003a|                                 30            |           0    |                                  class: "universal" (0) 0x3ab-0x3ab.1 (0.2)
  0x00003a|                                 30            |           0    |                                  form: "constructed" (1) 0x3ab.2-0x3ab.2 (0.1)
  0x00003a|                                 30            |           0    |                                  tag: "sequence" (0x10) 0x3ab.3-0x3ab.7 (0.5)
  0x00003a|                                    82 01 04   |            ... |                                  length: 260 0x3ac-0x3ae.7 (3)
          |                                               |                |                                  constructed[0:2]: 0x3af-0x4b2.7 (260)
          |                                               |                |                                    [0]{}: object 0x3af-0x3ba.7 (12)
  0x00003a|                                             06|               .|                                      class: "universal" (0) 0x3af-0x3af.1 (0.2)
  0x00003a|                                             06|               .|                                      form: "primitive" (0) 0x3af.2-0x3af.2 (0.1)
  0x00003a|                                             06|               .|                                      tag: "object_identifier" (0x6) 0x3af.3-0x3af.7 (0.5)
  0x00003b|0a                                             |.               |                                      length: 10 0x3b0-0x3b0.7 (1)
          |                                               |                |                                      value[0:10]: 0x3b1-0x3ba.7 (10)
  0x00003b|   2b                                          | +              |                                        [0]: 1 oid 0x3b1-0x3b1.7 (1)
  0x00003b|   2b                                          | +              |                                        [1]: 3 oid 0x3b1-0x3b1.7 (1)
  0x00003b|      06                                       |  .             |                                        [2]: 6 oid 0x3b2-0x3b2.7 (1)
  0x00003b|         01                                    |   .            |                                        [3]: 1 oid 0x3b3-0x3b3.7 (1)
  0x00003b|            04                                 |    .           |                                        [4]: 4 oid 0x3b4-0x3b4.7 (1)
  0x00003b|               01                              |     .          |                                        [5]: 1 oid 0x3b5-0x3b5.7 (1)
  0x00003b|                  d6 79                        |      .y        |                                        [6]: 11129 oid 0x3b6-0x3b7.7 (2)
  0x00003b|                        02                     |        .       |                                        [7]: 2 oid 0x3b8-0x3b8.7 (1)
  0x00003b|                           04                  |         .      |                                        [8]: 4 oid 0x3b9-0x3b9.7 (1)
  0x00003b|                              02               |          .     |                                        [9]: 2 oid 0x3ba-0x3ba.7 (1)
          |                                               |                |                                    [1]{}: object 0x3bb-0x4b2.7 (248)
  0x00003b|                                 04            |           .    |                                      class: "universal" (0) 0x3bb-0x3bb.1 (0.2)
  0x00003b|                                 04            |           .    |                                      form: "primitive" (0) 0x3bb.2-0x3bb.2 (0.1)
  0x00003b|                                 04            |           .    |                                      tag: "octet_string" (0x4) 0x3bb.3-0x3bb.7 (0.5)
  0x00003b|                                    81 f5      |            ..  |                                      length: 245 0x3bc-0x3bd.7 (2)
  0x00003b|                                          04 81|              ..|                                      value: raw bits 0x3be-0x4b2.7 (245)
  0x00003c|f2 00 f0 00 76 00 7a 32 8c 54 d8 b7 2d b6 20 ea|....v.z2.T..-. .|
  *       |until 0x4b2.7 (245)                            |                |
          |00 01 02 03 04 05 06 07 08 09 0a 0b 0c 0d 0e 0f|0123456789abcdef|
    0x0000|03 02 05 a0 30 14 06 08 2b 06 01 05 05 07 03 01|....0...+.......|                          value: raw bits 0x0-0x1fe.7 (511)
    *     |until 0x1fe.7 (end) (511)                      |                |
          |                                               |                |                    [1]{}: object 0x4b3-0x4c1.7 (15)
  0x00004b|         30                                    |   0            |                      class: "universal" (0) 0x4b3-0x4b3.1 (0.2)
  0x00004b|         30                                    |   0            |                      form: "constructed" (1) 0x4b3.2-0x4b3.2 (0.1)
  0x00004b|         30                                    |   0            |                      tag: "sequence" (0x10) 0x4b3.3-0x4b3.7 (0.5)
  0x00004b|            0d                                 |    .           |                      length: 13 0x4b4-0x4b4.7 (1)
          |                                               |                |                      constructed[0:2]: 0x4b5-0x4c1.7 (13)
          |                                               |                |                        [0]{}: object 0x4b5-0x4bf.7 (11)
  0x00004b|               06                              |     .          |                          class: "universal" (0) 0x4b5-0x4b5.1 (0.2)
  0x00004b|               06                              |     .          |                          form: "primitive" (0) 0x4b5.2-0x4b5.2 (0.1)
  0x00004b|               06                              |     .          |                          tag: "object_identifier" (0x6) 0x4b5.3-0x4b5.7 (0.5)
  0x00004b|                  09                           |      .         |                          length: 9 0x4b6-0x4b6.7 (1)
          |                                               |                |                          value[0:7]: 0x4b7-0x4bf.7 (9)
  0x00004b|                     2a                        |       *        |                            [0]: 1 oid 0x4b7-0x4b7.7 (1)
  0x00004b|                     2a                        |       *        |                            [1]: 2 oid 0x4b7-0x4b7.7 (1)
  0x00004b|                        86 48                  |        .H      |                            [2]: 840 oid 0x4b8-0x4b9.7 (2)
  0x00004b|                              86 f7 0d         |          ...   |                            [3]: 113549 oid 0x4ba-0x4bc.7 (3)
  0x00004b|                                       01      |             .  |                            [4]: 1 oid 0x4bd-0x4bd.7 (1)
  0x00004b|                                          01   |              . |                            [5]: 1 oid 0x4be-0x4be.7 (1)
  0x00004b|                                             0b|               .|                            [6]: 11 oid 0x4bf-0x4bf.7 (1)
          |                                               |                |                        [1]{}: object 0x4c0-0x4c1.7 (2)
  0x00004c|05                                             |.               |                          class: "universal" (0) 0x4c0-0x4c0.1 (0.2)
  0x00004c|05                                             |.               |                          form: "primitive" (0) 0x4c0.2-0x4c0.2 (0.1)
  0x00004c|05                                             |.               |                          tag: "null" (0x5) 0x4c0.3-0x4c0.7 (0.5)
  0x00004c|   00                                          | .              |                          length: "indefinite" (0) 0x4c1-0x4c1.7 (1)
          |                                               |                |                          value: null
          |                                               |                |                    [2]{}: object 0x4c2-0x5c6.7 (261)
  0x00004c|      03                                       |  .             |                      class: "universal" (0) 0x4c2-0x4c2.1 (0.2)
  0x00004c|      03                                       |  .             |                      form: "primitive" (0) 0x4c2.2-0x4c2.2 (0.1)
  0x00004c|      03                                       |  .             |                      tag: "bit_string" (0x3) 0x4c2.3-0x4c2.7 (0.5)
  0x00004c|         82 01 01                              |   ...          |                      length: 257 0x4c3-0x4c5.7 (3)
  0x00004c|                  00                           |      .         |                      unused_bits_count: 0 0x4c6-0x4c6.7 (1)
  0x00004c|                     1a a6 4e 3f 9a 6a d5 6c da|       ..N?.j.l.|                      value: raw bits 0x4c7-0x5c6.7 (256)
  0x00004d|1e 76 1a 4a c2 41 00 46 c5 f2 23 16 ec 3d 3d 2c|.v.J.A.F..#..==,|
  *       |until 0x5c6.7 (256)                            |                |
          |                                               |                |              [1]{}: certificate 0x5c7-0xae3.7 (1309)
  0x00005c|                     00 05 1a                  |       ...      |                length: 1306 0x5c7-0x5c9.7 (3)
          |00 01 02 03 04 05 06 07 08 09 0a 0b 0c 0d 0e 0f|0123456789abcdef|                data{}: (asn1_ber) 0x5ca-0xae3.7 (1306)
  0x00005c|                              30               |          0     |                  class: "universal" (0) 0x5ca-0x5ca.1 (0.2)
  0x00005c|                              30               |          0     |                  form: "constructed" (1) 0x5ca.2-0x5ca.2 (0.1)
  0x00005c|                              30               |          0     |                  tag: "sequence" (0x10) 0x5ca.3-0x5ca.7 (0.5)
  0x00005c|                                 82 05 16      |           ...  |                  length: 1302 0x5cb-0x5cd.7 (3)
          |                                               |                |                  constructed[0:3]: 0x5ce-0xae3.7 (1302)
          |                                               |                |                    [0]{}: object 0x5ce-0x8cf.7 (770)
  0x00005c|                                          30   |              0 |                      class: "universal" (0) 0x5ce-0x5ce.1 (0.2)
  0x00005c|                                          30   |              0 |                      form: "constructed" (1) 0x5ce.2-0x5ce.2 (0.1)
  0x00005c|                                          30   |              0 |                      tag: "sequence" (0x10) 0x5ce.3-0x5ce.7 (0.5)
  0x00005c|                                             82|               .|                      length: 766 0x5cf-0x5d1.7 (3)
  0x00005d|02 fe                                          |..              |
          |                                               |                |                      constructed[0:8]: 0x5d2-0x8cf.7 (766)
          |                                               |                |                        [0]{}: object 0x5d2-0x5d6.7 (5)
  0x00005d|      a0                                       |  .             |                          class: "context" (2) 0x5d2-0x5d2.1 (0.2)
  0x00005d|      a0                                       |  .             |                          form: "constructed" (1) 0x5d2.2-0x5d2.2 (0.1)
  0x00005d|      a0                                       |  .             |                          tag: 0 0x5d2.3-0x5d2.7 (0.5)
  0x00005d|         03                                    |   .            |                          length: 3 0x5d3-0x5d3.7 (1)
          |                                               |                |                          constructed[0:1]: 0x5d4-0x5d6.7 (3)
          |                                               |                |                            [0]{}: object 0x5d4-0x5d6.7 (3)
  0x00005d|            02                                 |    .           |                              class: "universal" (0) 0x5d4-0x5d4.1 (0.2)
  0x00005d|            02                                 |    .           |                              form: "primitive" (0) 0x5d4.2-0x5d4.2 (0.1)
  0x00005d|            02                                 |    .           |                              tag: "integer" (0x2) 0x5d4.3-0x5d4.7 (0.5)
  0x00005d|               01                              |     .          |                              length: 1 0x5d5-0x5d5.7 (1)
  0x00005d|                  02                           |      .         |                              value: 2 0x5d6-0x5d6.7 (1)
          |                                               |                |                        [1]{}: object 0x5d7-0x5e9.7 (19)
  0x00005d|                     02                        |       .        |                          class: "universal" (0) 0x5d7-0x5d7.1 (0.2)
  0x00005d|                     02                        |       .        |                          form: "primitive" (0) 0x5d7.2-0x5d7.2 (0.1)
  0x00005d|                     02                        |       .        |                          tag: "integer" (0x2) 0x5d7.3-0x5d7.7 (0.5)
  0x00005d|                        11                     |        .       |                          length: 17 0x5d8-0x5d8.7 (1)
  0x00005d|                           00 91 2b 08 4a cf 0c|         ..+.J..|                          value: 192961496339968674994309121183282847578 0x5d9-0x5e9.7 (17)
  0x00005e|18 a7 53 f6 d6 2e 25 a7 5f 5a                  |..S...%._Z      |
          |                                               |                |                        [2]{}: object 0x5ea-0x5f8.7 (15)
  0x00005e|                              30               |          0     |                          class: "universal" (0) 0x5ea-0x5ea.1 (0.2)
  0x00005e|                              30               |          0     |                          form: "constructed" (1) 0x5ea.2-0x5ea.2 (0.1)
  0x00005e|                              30               |          0     |                          tag: "sequence" (0x10) 0x5ea.3-0x5ea.7 (0.5)
  0x00005e|                                 0d            |           .    |                          length: 13 0x5eb-0x5eb.7 (1)
          |                                               |                |                          constructed[0:2]: 0x5ec-0x5f8.7 (13)
          |                                               |                |                            [0]{}: object 0x5ec-0x5f6.7 (11)
  0x00005e|                                    06         |            .   |                              class: "universal" (0) 0x5ec-0x5ec.1 (0.2)
  0x00005e|                                    06         |            .   |                              form: "primitive" (0) 0x5ec.2-0x5ec.2 (0.1)
  0x00005e|                                    06         |            .   |                              tag: "object_identifier" (0x6) 0x5ec.3-0x5ec.7 (0.5)
  0x00005e|                                       09      |             .  |                              length: 9 0x5ed-0x5ed.7 (1)
          |                                               |                |                              value[0:7]: 0x5ee-0x5f6.7 (9)
  0x00005e|                                          2a   |              * |                                [0]: 1 oid 0x5ee-0x5ee.7 (1)
  0x00005e|                                          2a   |              * |                                [1]: 2 oid 0x5ee-0x5ee.7 (1)
  0x00005e|                                             86|               .|                                [2]: 840 oid 0x5ef-0x5f0.7 (2)
  0x00005f|48                                             |H               |
  0x00005f|   86 f7 0d                                    | ...            |                                [3]: 113549 oid 0x5f1-0x5f3.7 (3)
  0x00005f|            01                                 |    .           |                                [4]: 1 oid 0x5f4-0x5f4.7 (1)
  0x00005f|               01                              |     .          |                                [5]: 1 oid 0x5f5-0x5f5.7 (1)
  0x00005f|                  0b                           |      .         |                                [6]: 11 oid 0x5f6-0x5f6.7 (1)
          |                                               |                |                            [1]{}: object 0x5f7-0x5f8.7 (2)
  0x00005f|                     05                        |       .        |                              class: "universal" (0) 0x5f7-0x5f7.1 (0.2)
  0x00005f|                     05                        |       .        |                              form: "primitive" (0) 0x5f7.2-0x5f7.2 (0.1)
  0x00005f|                     05                        |       .        |                              tag: "null" (0x5) 0x5f7.3-0x5f7.7 (0.5)
  0x00005f|                        00                     |        .       |                              length: "indefinite" (0) 0x5f8-0x5f8.7 (1)
          |                                               |                |                              value: null
          |                                               |                |                        [3]{}: object 0x5f9-0x649.7 (81)
  0x00005f|                           30                  |         0      |                          class: "universal" (0) 0x5f9-0x5f9.1 (0.2)
  0x00005f|                           30                  |         0      |                          form: "constructed" (1) 0x5f9.2-0x5f9.2 (0.1)
  0x00005f|                           30                  |         0      |                          tag: "sequence" (0x10) 0x5f9.3-0x5f9.7 (0.5)
  0x00005f|                              4f               |          O     |                          length: 79 0x5fa-0x5fa.7 (1)
          |                                               |                |                          constructed[0:3]: 0x5fb-0x649.7 (79)
          |                                               |                |                            [0]{}: object 0x5fb-0x607.7 (13)
  0x00005f|                                 31            |           1    |                              class: "universal" (0) 0x5fb-0x5fb.1 (0.2)
  0x00005f|                                 31            |           1    |                              form: "constructed" (1) 0x5fb.2-0x5fb.2 (0.1)
  0x00005f|                                 31            |           1    |                              tag: "set" (0x11) 0x5fb.3-0x5fb.7 (0.5)
  0x00005f|                                    0b         |            .   |                              length: 11 0x5fc-0x5fc.7 (1)
          |                                               |                |                              constructed[0:1]: 0x5fd-0x607.7 (11)
          |                                               |                |                                [0]{}: object 0x5fd-0x607.7 (11)
  0x00005f|                                       30      |             0  |                                  class: "universal" (0) 0x5fd-0x5fd.1 (0.2)
  0x00005f|                                       30      |             0  |                                  form: "constructed" (1) 0x5fd.2-0x5fd.2 (0.1)
  0x00005f|                                       30      |             0  |                                  tag: "sequence" (0x10) 0x5fd.3-0x5fd.7 (0.5)
  0x00005f|                                          09   |              . |                                  length: 9 0x5fe-0x5fe.7 (1)
          |                                               |                |                                  constructed[0:2]: 0x5ff-0x607.7 (9)
          |                                               |                |                                    [0]{}: object 0x5ff-0x603.7 (5)
  0x00005f|                                             06|               .|                                      class: "universal" (0) 0x5ff-0x5ff.1 (0.2)
  0x00005f|                                             06|               .|                                      form: "primitive" (0) 0x5ff.2-0x5ff.2 (0.1)
  0x00005f|                                             06|               .|                                      tag: "object_identifier" (0x6) 0x5ff.3-0x5ff.7 (0.5)
  0x000060|03                                             |.               |                                      length: 3 0x600-0x600.7 (1)
          |                                               |                |                                      value[0:4]: 0x601-0x603.7 (3)
  0x000060|   55                                          | U              |                                        [0]: 2 oid 0x601-0x601.7 (1)
  0x000060|   55                                          | U              |                                        [1]: 5 oid 0x601-0x601.7 (1)
  0x000060|      04                                       |  .             |                                        [2]: 4 oid 0x602-0x602.7 (1)
  0x000060|         06                                    |   .            |                                        [3]: 6 oid 0x603-0x603.7 (1)
          |                                               |                |                                    [1]{}: object 0x604-0x607.7 (4)
  0x000060|            13                                 |    .           |                                      class: "universal" (0) 0x604-0x604.1 (0.2)
  0x000060|            13                                 |    .           |                                      form: "primitive" (0) 0x604.2-0x604.2 (0.1)
  0x000060|            13                                 |    .           |                                      tag: "printable_string" (0x13) 0x604.3-0x604.7 (0.5)
  0x000060|               02                              |     .          |                                      length: 2 0x605-0x605.7 (1)
  0x000060|                  55 53                        |      US        |                                      value: "US" 0x606-0x607.7 (2)
          |                                               |                |                            [1]{}: object 0x608-0x632.7 (43)
  0x000060|                        31                     |        1       |                              class: "universal" (0) 0x608-0x608.1 (0.2)
  0x000060|                        31                     |        1       |                              form: "constructed" (1) 0x608.2-0x608.2 (0.1)
  0x000060|                        31                     |        1       |                              tag: "set" (0x11) 0x608.3-0x608.7 (0.5)
  0x000060|                           29                  |         )      |                              length: 41 0x609-0x609.7 (1)
          |                                               |                |                              constructed[0:1]: 0x60a-0x632.7 (41)
          |                                               |                |                                [0]{}: object 0x60a-0x632.7 (41)
  0x000060|                              30               |          0     |                                  class: "universal" (0) 0x60a-0x60a.1 (0.2)
  0x000060|                              30               |          0     |                                  form: "constructed" (1) 0x60a.2-0x60a.2 (0.1)
  0x000060|                              30               |          0     |                                  tag: "sequence" (0x10) 0x60a.3-0x60a.7 (0.5)
  0x000060|                                 27            |           '    |                                  length: 39 0x60b-0x60b.7 (1)
          |                                               |                |                                  constructed[0:2]: 0x60c-0x632.7 (39)
          |                                               |                |                                    [0]{}: object 0x60c-0x610.7 (5)
  0x000060|                                    06         |            .   |                                      class: "universal" (0) 0x60c-0x60c.1 (0.2)
  0x000060|                                    06         |            .   |                                      form: "primitive" (0) 0x60c.2-0x60c.2 (0.1)
  0x000060|                                    06         |            .   |                                      tag: "object_identifier" (0x6) 0x60c.3-0x60c.7 (0.5)
  0x000060|                                       03      |             .  |                                      length: 3 0x60d-0x60d.7 (1)
          |                                               |                |                                      value[0:4]: 0x60e-0x610.7 (3)
  0x000060|                                          55   |              U |                                        [0]: 2 oid 0x60e-0x60e.7 (1)
  0x000060|                                          55   |              U |                                        [1]: 5 oid 0x60e-0x60e.7 (1)
  0x000060|                                             04|               .|                                        [2]: 4 oid 0x60f-0x60f.7 (1)
  0x000061|0a                                             |.               |                                        [3]: 10 oid 0x610-0x610.7 (1)
          |                                               |                |                                    [1]{}: object 0x611-0x632.7 (34)
  0x000061|   13                                          | .              |                                      class: "universal" (0) 0x611-0x611.1 (0.2)
  0x000061|   13                                          | .              |                                      form: "primitive" (0) 0x611.2-0x611.2 (0.1)
  0x000061|   13                                          | .              |                                      tag: "printable_string" (0x13) 0x611.3-0x611.7 (0.5)
  0x000061|      20                                       |                |                                      length: 32 0x612-0x612.7 (1)
  0x000061|         49 6e 74 65 72 6e 65 74 20 53 65 63 75|   Internet Secu|                                      value: "Internet Security Research Group" 0x613-0x632.7 (32)
  0x000062|72 69 74 79 20 52 65 73 65 61 72 63 68 20 47 72|rity Research Gr|
  0x000063|6f 75 70                                       |oup             |
          |                                               |                |                            [2]{}: object 0x633-0x649.7 (23)
  0x000063|         31                                    |   1            |                              class: "universal" (0) 0x633-0x633.1 (0.2)
  0x000063|         31                                    |   1            |                              form: "constructed" (1) 0x633.2-0x633.2 (0.1)
  0x000063|         31                                    |   1            |                              tag: "set" (0x11) 0x633.3-0x633.7 (0.5)
  0x000063|            15                                 |    .           |                              length: 21 0x634-0x634.7 (1)
          |                                               |                |                              constructed[0:1]: 0x635-0x649.7 (21)
          |                                               |                |                                [0]{}: object 0x635-0x649.7 (21)
  0x000063|               30                              |     0          |                                  class: "universal" (0) 0x635-0x635.1 (0.2)
  0x000063|               30                              |     0          |                                  form: "constructed" (1) 0x635.2-0x635.2 (0.1)
  0x000063|               30                              |     0          |                                  tag: "sequence" (0x10) 0x635.3-0x635.7 (0.5)
  0x000063|                  13                           |      .         |                                  length: 19 0x636-0x636.7 (1)
          |                                               |                |                                  constructed[0:2]: 0x637-0x649.7 (19)
          |                                               |                |                                    [0]{}: object 0x637-0x63b.7 (5)
  0x000063|                     06                        |       .        |                                      class: "universal" (0) 0x637-0x637.1 (0.2)
  0x000063|                     06                        |       .        |                                      form: "primitive" (0) 0x637.2-0x637.2 (0.1)
  0x000063|                     06                        |       .        |                                      tag: "object_identifier" (0x6) 0x637.3-0x637.7 (0.5)
  0x000063|                        03                     |        .       |                                      length: 3 0x638-0x638.7 (1)
          |                                               |                |                                      value[0:4]: 0x639-0x63b.7 (3)
  0x000063|                           55                  |         U      |                                        [0]: 2 oid 0x639-0x639.7 (1)
  0x000063|                           55                  |         U      |                                        [1]: 5 oid 0x639-0x639.7 (1)
  0x000063|                              04               |          .     |                                        [2]: 4 oid 0x63a-0x63a.7 (1)
  0x000063|                                 03            |           .    |                                        [3]: 3 oid 0x63b-0x63b.7 (1)
          |                                               |                |                                    [1]{}: object 0x63c-0x649.7 (14)
  0x000063|                                    13         |            .   |                                      class: "universal" (0) 0x63c-0x63c.1 (0.2)
  0x000063|                                    13         |            .   |                                      form: "primitive" (0) 0x63c.2-0x63c.2 (0.1)
  0x000063|                                    13         |            .   |                                      tag: "printable_string" (0x13) 0x63c.3-0x63c.7 (0.5)
  0x000063|                                       0c      |             .  |                                      length: 12 0x63d-0x63d.7 (1)
  0x000063|                                          49 53|              IS|                                      value: "ISRG Root X1" 0x63e-0x649.7 (12)
  0x000064|52 47 20 52 6f 6f 74 20 58 31                  |RG Root X1      |
          |                                               |                |                        [4]{}: object 0x64a-0x669.7 (32)
  0x000064|                              30               |          0     |                          class: "universal" (0) 0x64a-0x64a.1 (0.2)
  0x000064|                              30               |          0     |                          form: "constructed" (1) 0x64a.2-0x64a.2 (0.1)
  0x000064|                              30               |          0     |                          tag: "sequence" (0x10) 0x64a.3-0x64a.7 (0.5)
  0x000064|                                 1e            |           .    |                          length: 30 0x64b-0x64b.7 (1)
          |                                               |                |                          constructed[0:2]: 0x64c-0x669.7 (30)
          |                                               |                |                            [0]{}: object 0x64c-0x65a.7 (15)
  0x000064|                                    17         |            .   |                              class: "universal" (0) 0x64c-0x64c.1 (0.2)
  0x000064|                                    17         |            .   |                              form: "primitive" (0) 0x64c.2-0x64c.2 (0.1)
  0x000064|                                    17         |            .   |                              tag: "utc_time" (0x17) 0x64c.3-0x64c.7 (0.5)
  0x000064|                                       0d      |             .  |                              length: 13 0x64d-0x64d.7 (1)
  0x000064|                                          32 30|              20|                              value: "200904000000Z" 0x64e-0x65a.7 (13)
  0x000065|30 39 30 34 30 30 30 30 30 30 5a               |0904000000Z     |
          |                                               |                |                            [1]{}: object 0x65b-0x669.7 (15)
  0x000065|                                 17            |           .    |                              class: "universal" (0) 0x65b-0x65b.1 (0.2)
  0x000065|                                 17            |           .    |                              form: "primitive" (0) 0x65b.2-0x65b.2 (0.1)
  0x000065|                                 17            |           .    |                              tag: "utc_time" (0x17) 0x65b.3-0x65b.7 (0.5)
  0x000065|                                    0d         |            .   |                              length: 13 0x65c-0x65c.7 (1)
  0x000065|                                       32 35 30|             250|                              value: "250915160000Z" 0x65d-0x669.7 (13)
  0x000066|39 31 35 31 36 30 30 30 30 5a                  |915160000Z      |
          |                                               |                |                        [5]{}: object 0x66a-0x69d.7 (52)
  0x000066|                              30               |          0     |                          class: "universal" (0) 0x66a-0x66a.1 (0.2)
  0x000066|                              30               |          0     |                          form: "constructed" (1) 0x66a.2-0x66a.2 (0.1)
  0x000066|                              30               |          0     |                          tag: "sequence" (0x10) 0x66a.3-0x66a.7 (0.5)
  0x000066|                                 32            |           2    |                          length: 50 0x66b-0x66b.7 (1)
          |                                               |                |                          constructed[0:3]: 0x66c-0x69d.7 (50)
          |                                               |                |                            [0]{}: object 0x66c-0x678.7 (13)
  0x000066|                                    31         |            1   |                              class: "universal" (0) 0x66c-0x66c.1 (0.2)
  0x000066|                                    31         |            1   |                              form: "constructed" (1) 0x66c.2-0x66c.2 (0.1)
  0x000066|                                    31         |            1   |                              tag: "set" (0x11) 0x66c.3-0x66c.7 (0.5)
  0x000066|                                       0b      |             .  |                              length: 11 0x66d-0x66d.7 (1)
          |                                               |                |                              constructed[0:1]: 0x66e-0x678.7 (11)
          |                                               |                |                                [0]{}: object 0x66e-0x678.7 (11)
  0x000066|                                          30   |              0 |                                  class: "universal" (0) 0x66e-0x66e.1 (0.2)
  0x000066|                                          30   |              0 |                                  form: "constructed" (1) 0x66e.2-0x66e.2 (0.1)
  0x000066|                                          30   |              0 |                                  tag: "sequence" (0x10) 0x66e.3-0x66e.7 (0.5)
  0x000066|                                             09|               .|                                  length: 9 0x66f-0x66f.7 (1)
          |                                               |                |                                  constructed[0:2]: 0x670-0x678.7 (9)
          |                                               |                |                                    [0]{}: object 0x670-0x674.7 (5)
  0x000067|06                                             |.               |                                      class: "universal" (0) 0x670-0x670.1 (0.2)
  0x000067|06                                             |.               |                                      form: "primitive" (0) 0x670.2-0x670.2 (0.1)
  0x000067|06                                             |.               |                                      tag: "object_identifier" (0x6) 0x670.3-0x670.7 (0.5)
  0x000067|   03                                          | .              |                                      length: 3 0x671-0x671.7 (1)
          |                                               |                |                                      value[0:4]: 0x672-0x674.7 (3)
  0x000067|      55                                       |  U             |                                        [0]: 2 oid 0x672-0x672.7 (1)
  0x000067|      55                                       |  U             |                                        [1]: 5 oid 0x672-0x672.7 (1)
  0x000067|         04                                    |   .            |                                        [2]: 4 oid 0x673-0x673.7 (1)
  0x000067|            06                                 |    .           |                                        [3]: 6 oid 0x674-0x674.7 (1)
          |                                               |                |                                    [1]{}: object 0x675-0x678.7 (4)
  0x000067|               13                              |     .          |                                      class: "universal" (0) 0x675-0x675.1 (0.2)
  0x000067|               13                              |     .          |                                      form: "primitive" (0) 0x675.2-0x675.2 (0.1)
  0x000067|               13                              |     .          |                                      tag: "printable_string" (0x13) 0x675.3-0x675.7 (0.5)
  0x000067|                  02                           |      .         |                                      length: 2 0x676-0x676.7 (1)
  0x000067|                     55 53                     |       US       |                                      value: "US" 0x677-0x678.7 (2)
          |                                               |                |                            [1]{}: object 0x679-0x690.7 (24)
  0x000067|                           31                  |         1      |                              class: "universal" (0) 0x679-0x679.1 (0.2)
  0x000067|                           31                  |         1      |                              form: "constructed" (1) 0x679.2-0x679.2 (0.1)
  0x000067|                           31                  |         1      |                              tag: "set" (0x11) 0x679.3-0x679.7 (0.5)
  0x000067|                              16               |          .     |                              length: 22 0x67a-0x67a.7 (1)
          |                                               |                |                              constructed[0:1]: 0x67b-0x690.7 (22)
          |                                               |                |                                [0]{}: object 0x67b-0x690.7 (22)
  0x000067|                                 30            |           0    |                                  class: "universal" (0) 0x67b-0x67b.1 (0.2)
  0x000067|                                 30            |           0    |                                  form: "constructed" (1) 0x67b.2-0x67b.2 (0.1)
  0x000067|                                 30            |           0    |                                  tag: "sequence" (0x10) 0x67b.3-0x67b.7 (0.5)
  0x000067|                                    14         |            .   |                                  length: 20 0x67c-0x67c.7 (1)
          |                                               |                |                                  constructed[0:2]: 0x67d-0x690.7 (20)
          |                                               |                |                                    [0]{}: object 0x67d-0x681.7 (5)
  0x000067|                                       06      |             .  |                                      class: "universal" (0) 0x67d-0x67d.1 (0.2)
  0x000067|                                       06      |             .  |                                      form: "primitive" (0) 0x67d.2-0x67d.2 (0.1)
  0x000067|                                       06      |             .  |                                      tag: "object_identifier" (0x6) 0x67d.3-0x67d.7 (0.5)
  0x000067|                                          03   |              . |                                      length: 3 0x67e-0x67e.7 (1)
          |                                               |                |                                      value[0:4]: 0x67f-0x681.7 (3)
  0x000067|                                             55|               U|                                        [0]: 2 oid 0x67f-0x67f.7 (1)
  0x000067|                                             55|               U|                                        [1]: 5 oid 0x67f-0x67f.7 (1)
  0x000068|04                                             |.               |                                        [2]: 4 oid 0x680-0x680.7 (1)
  0x000068|   0a                                          | .              |                                        [3]: 10 oid 0x681-0x681.7 (1)
          |                                               |                |                                    [1]{}: object 0x682-0x690.7 (15)
  0x000068|      13                                       |  .             |                                      class: "universal" (0) 0x682-0x682.1 (0.2)
  0x000068|      13                                       |  .             |                                      form: "primitive" (0) 0x682.2-0x682.2 (0.1)
  0x000068|      13                                       |  .             |                                      tag: "printable_string" (0x13) 0x682.3-0x682.7 (0.5)
  0x000068|         0d                                    |   .            |                                      length: 13 0x683-0x683.7 (1)
  0x000068|            4c 65 74 27 73 20 45 6e 63 72 79 70|    Let's Encryp|                                      value: "Let's Encrypt" 0x684-0x690.7 (13)
  0x000069|74                                             |t               |
          |                                               |                |                            [2]{}: object 0x691-0x69d.7 (13)
  0x000069|   31                                          | 1              |                              class: "universal" (0) 0x691-0x691.1 (0.2)
  0x000069|   31                                          | 1              |                              form: "constructed" (1) 0x691.2-0x691.2 (0.1)
  0x000069|   31                                          | 1              |                              tag: "set" (0x11) 0x691.3-0x691.7 (0.5)
  0x000069|      0b                                       |  .             |                              length: 11 0x692-0x692.7 (1)
          |                                               |                |                              constructed[0:1]: 0x693-0x69d.7 (11)
          |                                               |                |                                [0]{}: object 0x693-0x69d.7 (11)
  0x000069|         30                                    |   0            |                                  class: "universal" (0) 0x693-0x693.1 (0.2)
  0x000069|         30                                    |   0            |                                  form: "constructed" (1) 0x693.2-0x693.2 (0.1)
  0x000069|         30                                    |   0            |                                  tag: "sequence" (0x10) 0x693.3-0x693.7 (0.5)
  0x000069|            09                                 |    .           |                                  length: 9 0x694-0x694.7 (1)
          |                                               |                |                                  constructed[0:2]: 0x695-0x69d.7 (9)
          |                                               |                |                                    [0]{}: object 0x695-0x699.7 (5)
  0x000069|               06                              |     .          |                                      class: "universal" (0) 0x695-0x695.1 (0.2)
  0x000069|               06                              |     .          |                                      form: "primitive" (0) 0x695.2-0x695.2 (0.1)
  0x000069|               06                              |     .          |                                      tag: "object_identifier" (0x6) 0x695.3-0x695.7 (0.5)
  0x000069|                  03                           |      .         |                                      length: 3 0x696-0x696.7 (1)
          |                                               |                |                                      value[0:4]: 0x697-0x699.7 (3)
  0x000069|                     55                        |       U        |                                        [0]: 2 oid 0x697-0x697.7 (1)
  0x000069|                     55                        |       U        |                                        [1]: 5 oid 0x697-0x697.7 (1)
  0x000069|                        04                     |        .       |                                        [2]: 4 oid 0x698-0x698.7 (1)
  0x000069|                           03                  |         .      |                                        [3]: 3 oid 0x699-0x699.7 (1)
          |                                               |                |                                    [1]{}: object 0x69a-0x69d.7 (4)
  0x000069|                              13               |          .     |                                      class: "universal" (0) 0x69a-0x69a.1 (0.2)
  0x000069|                              13               |          .     |                                      form: "primitive" (0) 0x69a.2-0x69a.2 (0.1)
  0x000069|                              13               |          .     |                                      tag: "printable_string" (0x13) 0x69a.3-0x69a.7 (0.5)
  0x000069|                                 02            |           .    |                                      length: 2 0x69b-0x69b.7 (1)
  0x000069|                                    52 33      |            R3  |                                      value: "R3" 0x69c-0x69d.7 (2)
          |                                               |                |                        [6]{}: object 0x69e-0x7c3.7 (294)
  0x000069|                                          30   |              0 |                          class: "universal" (0) 0x69e-0x69e.1 (0.2)
  0x000069|                                          30   |              0 |                          form: "constructed" (1) 0x69e.2-0x69e.2 (0.1)
  0x000069|                                          30   |              0 |                          tag: "sequence" (0x10) 0x69e.3-0x69e.7 (0.5)
  0x000069|                                             82|               .|                          length: 290 0x69f-0x6a1.7 (3)
  0x00006a|01 22                                          |."              |
          |                                               |                |                          constructed[0:2]: 0x6a2-0x7c3.7 (290)
          |                                               |                |                            [0]{}: object 0x6a2-0x6b0.7 (15)
  0x00006a|      30                                       |  0             |                              class: "universal" (0) 0x6a2-0x6a2.1 (0.2)
  0x00006a|      30                                       |  0             |                              form: "constructed" (1) 0x6a2.2-0x6a2.2 (0.1)
  0x00006a|      30                                       |  0             |                              tag: "sequence" (0x10) 0x6a2.3-0x6a2.7 (0.5)
  0x00006a|         0d                                    |   .            |                              length: 13 0x6a3-0x6a3.7 (1)
          |                                               |                |                              constructed[0:2]: 0x6a4-0x6b0.7 (13)
          |                                               |                |                                [0]{}: object 0x6a4-0x6ae.7 (11)
  0x00006a|            06                                 |    .           |                                  class: "universal" (0) 0x6a4-0x6a4.1 (0.2)
  0x00006a|            06                                 |    .           |                                  form: "primitive" (0) 0x6a4.2-0x6a4.2 (0.1)
  0x00006a|            06                                 |    .           |                                  tag: "object_identifier" (0x6) 0x6a4.3-0x6a4.7 (0.5)
  0x00006a|               09                              |     .          |                                  length: 9 0x6a5-0x6a5.7 (1)
          |                                               |                |                                  value[0:7]: 0x6a6-0x6ae.7 (9)
  0x00006a|                  2a                           |      *         |                                    [0]: 1 oid 0x6a6-0x6a6.7 (1)
  0x00006a|                  2a                           |      *         |                                    [1]: 2 oid 0x6a6-0x6a6.7 (1)
  0x00006a|                     86 48                     |       .H       |                                    [2]: 840 oid 0x6a7-0x6a8.7 (2)
  0x00006a|                           86 f7 0d            |         ...    |                                    [3]: 113549 oid 0x6a9-0x6ab.7 (3)
  0x00006a|                                    01         |            .   |                                    [4]: 1 oid 0x6ac-0x6ac.7 (1)
  0x00006a|                                       01      |             .  |                                    [5]: 1 oid 0x6ad-0x6ad.7 (1)
  0x00006a|                                          01   |              . |                                    [6]: 1 oid 0x6ae-0x6ae.7 (1)
          |                                               |                |                                [1]{}: object 0x6af-0x6b0.7 (2)
  0x00006a|                                             05|               .|                                  class: "universal" (0) 0x6af-0x6af.1 (0.2)
  0x00006a|                                             05|               .|                                  form: "primitive" (0) 0x6af.2-0x6af.2 (0.1)
  0x00006a|                                             05|               .|                                  tag: "null" (0x5) 0x6af.3-0x6af.7 (0.5)
  0x00006b|00                                             |.               |                                  length: "indefinite" (0) 0x6b0-0x6b0.7 (1)
          |                                               |                |                                  value: null
          |                                               |                |                            [1]{}: object 0x6b1-0x7c3.7 (275)
  0x00006b|   03                                          | .              |                              class: "universal" (0) 0x6b1-0x6b1.1 (0.2)
  0x00006b|   03                                          | .              |                              form: "primitive" (0) 0x6b1.2-0x6b1.2 (0.1)
  0x00006b|   03                                          | .              |                              tag: "bit_string" (0x3) 0x6b1.3-0x6b1.7 (0.5)
  0x00006b|      82 01 0f                                 |  ...           |                              length: 271 0x6b2-0x6b4.7 (3)
  0x00006b|               00                              |     .          |                              unused_bits_count: 0 0x6b5-0x6b5.7 (1)
  0x00006b|                  30 82 01 0a 02 82 01 01 00 bb|      0.........|                              value: raw bits 0x6b6-0x7c3.7 (270)
  0x00006c|02 15 28 cc f6 a0 94 d3 0f 12 ec 8d 55 92 c3 f8|..(.........U...|
  *       |until 0x7c3.7 (270)                            |                |
          |                                               |                |                        [7]{}: object 0x7c4-0x8cf.7 (268)
          |00 01 02 03 04 05 06 07 08 09 0a 0b 0c 0d 0e 0f|0123456789abcdef|
    0x0000|03 02 01 86 30 14 06 08 2b 06 01 05 05 07 03 02|....0...+.......|                          value: raw bits 0x0-0xb0.7 (177)
    *     |until 0xb0.7 (end) (177)                       |                |
  0x00007c|            a3                                 |    .           |                          class: "context" (2) 0x7c4-0x7c4.1 (0.2)
  0x00007c|            a3                                 |    .           |                          form: "constructed" (1) 0x7c4.2-0x7c4.2 (0.1)
  0x00007c|            a3                                 |    .           |                          tag: 3 0x7c4.3-0x7c4.7 (0.5)
  0x00007c|               82 01 08                        |     ...        |                          length: 264 0x7c5-0x7c7.7 (3)
          |                                               |                |                          constructed[0:1]: 0x7c8-0x8cf.7 (264)
          |                                               |                |                            [0]{}: object 0x7c8-0x8cf.7 (264)
  0x00007c|                        30                     |        0       |                              class: "universal" (0) 0x7c8-0x7c8.1 (0.2)
  0x00007c|                        30                     |        0       |                              form: "constructed" (1) 0x7c8.2-0x7c8.2 (0.1)
  0x00007c|                        30                     |        0       |                              tag: "sequence" (0x10) 0x7c8.3-0x7c8.7 (0.5)
  0x00007c|                           82 01 04            |         ...    |                              length: 260 0x7c9-0x7cb.7 (3)
          |                                               |                |                              constructed[0:8]: 0x7cc-0x8cf.7 (260)
          |                                               |                |                                [0]{}: object 0x7cc-0x7db.7 (16)
  0x00007c|                                    30         |            0   |                                  class: "universal" (0) 0x7cc-0x7cc.1 (0.2)
  0x00007c|                                    30         |            0   |                                  form: "constructed" (1) 0x7cc.2-0x7cc.2 (0.1)
  0x00007c|                                    30         |            0   |                                  tag: "sequence" (0x10) 0x7cc.3-0x7cc.7 (0.5)
  0x00007c|                                       0e      |             .  |                                  length: 14 0x7cd-0x7cd.7 (1)
          |                                               |                |                                  constructed[0:3]: 0x7ce-0x7db.7 (14)
          |                                               |                |                                    [0]{}: object 0x7ce-0x7d2.7 (5)
  0x00007c|                                          06   |              . |                                      class: "universal" (0) 0x7ce-0x7ce.1 (0.2)
  0x00007c|                                          06   |              . |                                      form: "primitive" (0) 0x7ce.2-0x7ce.2 (0.1)
  0x00007c|                                          06   |              . |                                      tag: "object_identifier" (0x6) 0x7ce.3-0x7ce.7 (0.5)
  0x00007c|                                             03|               .|                                      length: 3 0x7cf-0x7cf.7 (1)
          |                                               |                |                                      value[0:4]: 0x7d0-0x7d2.7 (3)
  0x00007d|55                                             |U               |                                        [0]: 2 oid 0x7d0-0x7d0.7 (1)
  0x00007d|55                                             |U               |                                        [1]: 5 oid 0x7d0-0x7d0.7 (1)
  0x00007d|   1d                                          | .              |                                        [2]: 29 oid 0x7d1-0x7d1.7 (1)
  0x00007d|      0f                                       |  .             |                                        [3]: 15 oid 0x7d2-0x7d2.7 (1)
          |                                               |                |                                    [1]{}: object 0x7d3-0x7d5.7 (3)
  0x00007d|         01                                    |   .            |                                      class: "universal" (0) 0x7d3-0x7d3.1 (0.2)
  0x00007d|         01                                    |   .            |                                      form: "primitive" (0) 0x7d3.2-0x7d3.2 (0.1)
  0x00007d|         01                                    |   .            |                                      tag: "boolean" (0x1) 0x7d3.3-0x7d3.7 (0.5)
  0x00007d|            01                                 |    .           |                                      length: 1 0x7d4-0x7d4.7 (1)
  0x00007d|               ff                              |     .          |                                      value: true (255) 0x7d5-0x7d5.7 (1)
          |                                               |                |                                    [2]{}: object 0x7d6-0x7db.7 (6)
  0x00007d|                  04                           |      .         |                                      class: "universal" (0) 0x7d6-0x7d6.1 (0.2)
  0x00007d|                  04                           |      .         |                                      form: "primitive" (0) 0x7d6.2-0x7d6.2 (0.1)
  0x00007d|                  04                           |      .         |                                      tag: "octet_string" (0x4) 0x7d6.3-0x7d6.7 (0.5)
  0x00007d|                     04                        |       .        |                                      length: 4 0x7d7-0x7d7.7 (1)
  0x00007d|                        03 02 01 86            |        ....    |                                      value: raw bits 0x7d8-0x7db.7 (4)
          |                                               |                |                                [1]{}: object 0x7dc-0x7fa.7 (31)
  0x00007d|                                    30         |            0   |                                  class: "universal" (0) 0x7dc-0x7dc.1 (0.2)
  0x00007d|                                    30         |            0   |                                  form: "constructed" (1) 0x7dc.2-0x7dc.2 (0.1)
  0x00007d|                                    30         |            0   |                                  tag: "sequence" (0x10) 0x7dc.3-0x7dc.7 (0.5)
  0x00007d|                                       1d      |             .  |                                  length: 29 0x7dd-0x7dd.7 (1)
          |                                               |                |                                  constructed[0:2]: 0x7de-0x7fa.7 (29)
          |                                               |                |                                    [0]{}: object 0x7de-0x7e2.7 (5)
  0x00007d|                                          06   |              . |                                      class: "universal" (0) 0x7de-0x7de.1 (0.2)
  0x00007d|                                          06   |              . |                                      form: "primitive" (0) 0x7de.2-0x7de.2 (0.1)
  0x00007d|                                          06   |              . |                                      tag: "object_identifier" (0x6) 0x7de.3-0x7de.7 (0.5)
  0x00007d|                                             03|               .|                                      length: 3 0x7df-0x7df.7 (1)
          |                                               |                |                                      value[0:4]: 0x7e0-0x7e2.7 (3)
  0x00007e|55                                             |U               |                                        [0]: 2 oid 0x7e0-0x7e0.7 (1)
  0x00007e|55                                             |U               |                                        [1]: 5 oid 0x7e0-0x7e0.7 (1)
  0x00007e|   1d                                          | .              |                                        [2]: 29 oid 0x7e1-0x7e1.7 (1)
  0x00007e|      25                                       |  %             |                                        [3]: 37 oid 0x7e2-0x7e2.7 (1)
          |                                               |                |                                    [1]{}: object 0x7e3-0x7fa.7 (24)
  0x00007e|         04                                    |   .            |                                      class: "universal" (0) 0x7e3-0x7e3.1 (0.2)
  0x00007e|         04                                    |   .            |                                      form: "primitive" (0) 0x7e3.2-0x7e3.2 (0.1)
  0x00007e|         04                                    |   .            |                                      tag: "octet_string" (0x4) 0x7e3.3-0x7e3.7 (0.5)
  0x00007e|            16                                 |    .           |                                      length: 22 0x7e4-0x7e4.7 (1)
  0x00007e|               30 14 06 08 2b 06 01 05 05 07 03|     0...+......|                                      value: raw bits 0x7e5-0x7fa.7 (22)
  0x00007f|02 06 08 2b 06 01 05 05 07 03 01               |...+.......     |
          |                                               |                |                                [2]{}: object 0x7fb-0x80e.7 (20)
  0x00007f|                                 30            |           0    |                                  class: "universal" (0) 0x7fb-0x7fb.1 (0.2)
  0x00007f|                                 30            |           0    |                                  form: "constructed" (1) 0x7fb.2-0x7fb.2 (0.1)
  0x00007f|                                 30            |           0    |                                  tag: "sequence" (0x10) 0x7fb.3-0x7fb.7 (0.5)
  0x00007f|                                    12         |            .   |                                  length: 18 0x7fc-0x7fc.7 (1)
          |                                               |                |                                  constructed[0:3]: 0x7fd-0x80e.7 (18)
          |                                               |                |                                    [0]{}: object 0x7fd-0x801.7 (5)
  0x00007f|                                       06      |             .  |                                      class: "universal" (0) 0x7fd-0x7fd.1 (0.2)
  0x00007f|                                       06      |             .  |                                      form: "primitive" (0) 0x7fd.2-0x7fd.2 (0.1)
  0x00007f|                                       06      |             .  |                                      tag: "object_identifier" (0x6) 0x7fd.3-0x7fd.7 (0.5)
  0x00007f|                                          03   |              . |                                      length: 3 0x7fe-0x7fe.7 (1)
          |                                               |                |                                      value[0:4]: 0x7ff-0x801.7 (3)
  0x00007f|                                             55|               U|                                        [0]: 2 oid 0x7ff-0x7ff.7 (1)
  0x00007f|                                             55|               U|                                        [1]: 5 oid 0x7ff-0x7ff.7 (1)
  0x000080|1d                                             |.               |                                        [2]: 29 oid 0x800-0x800.7 (1)
  0x000080|   13                                          | .              |                                        [3]: 19 oid 0x801-0x801.7 (1)
          |                                               |                |                                    [1]{}: object 0x802-0x804.7 (3)
  0x000080|      01                                       |  .             |                                      class: "universal" (0) 0x802-0x802.1 (0.2)
  0x000080|      01                                       |  .             |                                      form: "primitive" (0) 0x802.2-0x802.2 (0.1)
  0x000080|      01                                       |  .             |                                      tag: "boolean" (0x1) 0x802.3-0x802.7 (0.5)
  0x000080|         01                                    |   .            |                                      length: 1 0x803-0x803.7 (1)
  0x000080|            ff                                 |    .           |                                      value: true (255) 0x804-0x804.7 (1)
          |                                               |                |                                    [2]{}: object 0x805-0x80e.7 (10)
  0x000080|               04                              |     .          |                                      class: "universal" (0) 0x805-0x805.1 (0.2)
  0x000080|               04                              |     .          |                                      form: "primitive" (0) 0x805.2-0x805.2 (0.1)
  0x000080|               04                              |     .          |                                      tag: "octet_string" (0x4) 0x805.3-0x805.7 (0.5)
  0x000080|                  08                           |      .         |                                      length: 8 0x806-0x806.7 (1)
  0x000080|                     30 06 01 01 ff 02 01 00   |       0....... |                                      value: raw bits 0x807-0x80e.7 (8)
          |                                               |                |                                [3]{}: object 0x80f-0x82d.7 (31)
  0x000080|                                             30|               0|                                  class: "universal" (0) 0x80f-0x80f.1 (0.2)
  0x000080|                                             30|               0|                                  form: "constructed" (1) 0x80f.2-0x80f.2 (0.1)
  0x000080|                                             30|               0|                                  tag: "sequence" (0x10) 0x80f.3-0x80f.7 (0.5)
  0x000081|1d                                             |.               |                                  length: 29 0x810-0x810.7 (1)
          |                                               |                |                                  constructed[0:2]: 0x811-0x82d.7 (29)
          |                                               |                |                                    [0]{}: object 0x811-0x815.7 (5)
  0x000081|   06                                          | .              |                                      class: "universal" (0) 0x811-0x811.1 (0.2)
  0x000081|   06                                          | .              |                                      form: "primitive" (0) 0x811.2-0x811.2 (0.1)
  0x000081|   06                                          | .              |                                      tag: "object_identifier" (0x6) 0x811.3-0x811.7 (0.5)
  0x000081|      03                                       |  .             |                                      length: 3 0x812-0x812.7 (1)
          |                                               |                |                                      value[0:4]: 0x813-0x815.7 (3)
  0x000081|         55                                    |   U            |                                        [0]: 2 oid 0x813-0x813.7 (1)
  0x000081|         55                                    |   U            |                                        [1]: 5 oid 0x813-0x813.7 (1)
  0x000081|            1d                                 |    .           |                                        [2]: 29 oid 0x814-0x814.7 (1)
  0x000081|               0e                              |     .          |                                        [3]: 14 oid 0x815-0x815.7 (1)
          |                                               |                |                                    [1]{}: object 0x816-0x82d.7 (24)
  0x000081|                  04                           |      .         |                                      class: "universal" (0) 0x816-0x816.1 (0.2)
  0x000081|                  04                           |      .         |                                      form: "primitive" (0) 0x816.2-0x816.2 (0.1)
  0x000081|                  04                           |      .         |                                      tag: "octet_string" (0x4) 0x816.3-0x816.7 (0.5)
  0x000081|                     16                        |       .        |                                      length: 22 0x817-0x817.7 (1)
  0x000081|                        04 14 14 2e b3 17 b7 58|        .......X|                                      value: raw bits 0x818-0x82d.7 (22)
  0x000082|56 cb ae 50 09 40 e6 1f af 9d 8b 14 c2 c6      |V..P.@........  |
          |                                               |                |                                [4]{}: object 0x82e-0x84e.7 (33)
  0x000082|                                          30   |              0 |                                  class: "universal" (0) 0x82e-0x82e.1 (0.2)
  0x000082|                                          30   |              0 |                                  form: "constructed" (1) 0x82e.2-0x82e.2 (0.1)
  0x000082|                                          30   |              0 |                                  tag: "sequence" (0x10) 0x82e.3-0x82e.7 (0.5)
  0x000082|                                             1f|               .|                                  length: 31 0x82f-0x82f.7 (1)
          |                                               |                |                                  constructed[0:2]: 0x830-0x84e.7 (31)
          |                                               |                |                                    [0]{}: object 0x830-0x834.7 (5)
  0x000083|06                                             |.               |                                      class: "universal" (0) 0x830-0x830.1 (0.2)
  0x000083|06                                             |.               |                                      form: "primitive" (0) 0x830.2-0x830.2 (0.1)
  0x000083|06                                             |.               |                                      tag: "object_identifier" (0x6) 0x830.3-0x830.7 (0.5)
  0x000083|   03                                          | .              |                                      length: 3 0x831-0x831.7 (1)
          |                                               |                |                                      value[0:4]: 0x832-0x834.7 (3)
  0x000083|      55                                       |  U             |                                        [0]: 2 oid 0x832-0x832.7 (1)
  0x000083|      55                                       |  U             |                                        [1]: 5 oid 0x832-0x832.7 (1)
  0x000083|         1d                                    |   .            |                                        [2]: 29 oid 0x833-0x833.7 (1)
  0x000083|            23                                 |    #           |                                        [3]: 35 oid 0x834-0x834.7 (1)
          |                                               |                |                                    [1]{}: object 0x835-0x84e.7 (26)
  0x000083|               04                              |     .          |                                      class: "universal" (0) 0x835-0x835.1 (0.2)
  0x000083|               04                              |     .          |                                      form: "primitive" (0) 0x835.2-0x835.2 (0.1)
  0x000083|               04                              |     .          |                                      tag: "octet_string" (0x4) 0x835.3-0x835.7 (0.5)
  0x000083|                  18                           |      .         |                                      length: 24 0x836-0x836.7 (1)
  0x000083|                     30 16 80 14 79 b4 59 e6 7b|       0...y.Y.{|                                      value: raw bits 0x837-0x84e.7 (24)
  0x000084|b6 e5 e4 01 73 80 08 88 c8 1a 58 f6 e9 9b 6e   |....s.....X...n |
          |                                               |                |                                [5]{}: object 0x84f-0x882.7 (52)
  0x000084|                                             30|               0|                                  class: "universal" (0) 0x84f-0x84f.1 (0.2)
  0x000084|                                             30|               0|                                  form: "constructed" (1) 0x84f.2-0x84f.2 (0.1)
  0x000084|                                             30|               0|                                  tag: "sequence" (0x10) 0x84f.3-0x84f.7 (0.5)
  0x000085|32                                             |2               |                                  length: 50 0x850-0x850.7 (1)
          |                                               |                |                                  constructed[0:2]: 0x851-0x882.7 (50)
          |                                               |                |                                    [0]{}: object 0x851-0x85a.7 (10)
  0x000085|   06                                          | .              |                                      class: "universal" (0) 0x851-0x851.1 (0.2)
  0x000085|   06                                          | .              |                                      form: "primitive" (0) 0x851.2-0x851.2 (0.1)
  0x000085|   06                                          | .              |                                      tag: "object_identifier" (0x6) 0x851.3-0x851.7 (0.5)
  0x000085|      08                                       |  .             |                                      length: 8 0x852-0x852.7 (1)
          |                                               |                |                                      value[0:9]: 0x853-0x85a.7 (8)
  0x000085|         2b                                    |   +            |                                        [0]: 1 oid 0x853-0x853.7 (1)
  0x000085|         2b                                    |   +            |                                        [1]: 3 oid 0x853-0x853.7 (1)
  0x000085|            06                                 |    .           |                                        [2]: 6 oid 0x854-0x854.7 (1)
  0x000085|               01                              |     .          |                                        [3]: 1 oid 0x855-0x855.7 (1)
  0x000085|                  05                           |      .         |                                        [4]: 5 oid 0x856-0x856.7 (1)
  0x000085|                     05                        |       .        |                                        [5]: 5 oid 0x857-0x857.7 (1)
  0x000085|                        07                     |        .       |                                        [6]: 7 oid 0x858-0x858.7 (1)
  0x000085|                           01                  |         .      |                                        [7]: 1 oid 0x859-0x859.7 (1)
  0x000085|                              01               |          .     |                                        [8]: 1 oid 0x85a-0x85a.7 (1)
          |                                               |                |                                    [1]{}: object 0x85b-0x882.7 (40)
  0x000085|                                 04            |           .    |                                      class: "universal" (0) 0x85b-0x85b.1 (0.2)
  0x000085|                                 04            |           .    |                                      form: "primitive" (0) 0x85b.2-0x85b.2 (0.1)
  0x000085|                                 04            |           .    |                                      tag: "octet_string" (0x4) 0x85b.3-0x85b.7 (0.5)
  0x000085|                                    26         |            &   |                                      length: 38 0x85c-0x85c.7 (1)
  0x000085|                                       30 24 30|             0$0|                                      value: raw bits 0x85d-0x882.7 (38)
  0x000086|22 06 08 2b 06 01 05 05 07 30 02 86 16 68 74 74|"..+.....0...htt|
  *       |until 0x882.7 (38)                             |                |
          |                                               |                |                                [6]{}: object 0x883-0x8ab.7 (41)
  0x000088|         30                                    |   0            |                                  class: "universal" (0) 0x883-0x883.1 (0.2)
  0x000088|         30                                    |   0            |                                  form: "constructed" (1) 0x883.2-0x883.2 (0.1)
  0x000088|         30                                    |   0            |                                  tag: "sequence" (0x10) 0x883.3-0x883.7 (0.5)
  0x000088|            27                                 |    '           |                                  length: 39 0x884-0x884.7 (1)
          |                                               |                |                                  constructed[0:2]: 0x885-0x8ab.7 (39)
          |                                               |                |                                    [0]{}: object 0x885-0x889.7 (5)
  0x000088|               06                              |     .          |                                      class: "universal" (0) 0x885-0x885.1 (0.2)
  0x000088|               06                              |     .          |                                      form: "primitive" (0) 0x885.2-0x885.2 (0.1)
  0x000088|               06                              |     .          |                                      tag: "object_identifier" (0x6) 0x885.3-0x885.7 (0.5)
  0x000088|                  03                           |      .         |                                      length: 3 0x886-0x886.7 (1)
          |                                               |                |                                      value[0:4]: 0x887-0x889.7 (3)
  0x000088|                     55                        |       U        |                                        [0]: 2 oid 0x887-0x887.7 (1)
  0x000088|                     55                        |       U        |                                        [1]: 5 oid 0x887-0x887.7 (1)
  0x000088|                        1d                     |        .       |                                        [2]: 29 oid 0x888-0x888.7 (1)
  0x000088|                           1f                  |         .      |                                        [3]: 31 oid 0x889-0x889.7 (1)
          |                                               |                |                                    [1]{}: object 0x88a-0x8ab.7 (34)
  0x000088|                              04               |          .     |                                      class: "universal" (0) 0x88a-0x88a.1 (0.2)
  0x000088|                              04               |          .     |                                      form: "primitive" (0) 0x88a.2-0x88a.2 (0.1)
  0x000088|                              04               |          .     |                                      tag: "octet_string" (0x4) 0x88a.3-0x88a.7 (0.5)
  0x000088|                                 20            |                |                                      length: 32 0x88b-0x88b.7 (1)
  0x000088|                                    30 1e 30 1c|            0.0.|                                      value: raw bits 0x88c-0x8ab.7 (32)
  0x000089|a0 1a a0 18 86 16 68 74 74 70 3a 2f 2f 78 31 2e|......http://x1.|
  0x00008a|63 2e 6c 65 6e 63 72 2e 6f 72 67 2f            |c.lencr.org/    |
          |                                               |                |                                [7]{}: object 0x8ac-0x8cf.7 (36)
  0x00008a|                                    30         |            0   |                                  class: "universal" (0) 0x8ac-0x8ac.1 (0.2)
  0x00008a|                                    30         |            0   |                                  form: "constructed" (1) 0x8ac.2-0x8ac.2 (0.1)
  0x00008a|                                    30         |            0   |                                  tag: "sequence" (0x10) 0x8ac.3-0x8ac.7 (0.5)
  0x00008a|                                       22      |             "  |                                  length: 34 0x8ad-0x8ad.7 (1)
          |                                               |                |                                  constructed[0:2]: 0x8ae-0x8cf.7 (34)
          |                                               |                |                                    [0]{}: object 0x8ae-0x8b2.7 (5)
  0x00008a|                                          06   |              . |                                      class: "universal" (0) 0x8ae-0x8ae.1 (0.2)
  0x00008a|                                          06   |              . |                                      form: "primitive" (0) 0x8ae.2-0x8ae.2 (0.1)
  0x00008a|                                          06   |              . |                                      tag: "object_identifier" (0x6) 0x8ae.3-0x8ae.7 (0.5)
  0x00008a|                                             03|               .|                                      length: 3 0x8af-0x8af.7 (1)
          |                                               |                |                                      value[0:4]: 0x8b0-0x8b2.7 (3)
  0x00008b|55                                             |U               |                                        [0]: 2 oid 0x8b0-0x8b0.7 (1)
  0x00008b|55                                             |U               |                                        [1]: 5 oid 0x8b0-0x8b0.7 (1)
  0x00008b|   1d                                          | .              |                                        [2]: 29 oid 0x8b1-0x8b1.7 (1)
  0x00008b|      20                                       |                |                                        [3]: 32 oid 0x8b2-0x8b2.7 (1)
          |                                               |                |                                    [1]{}: object 0x8b3-0x8cf.7 (29)
  0x00008b|         04                                    |   .            |                                      class: "universal" (0) 0x8b3-0x8b3.1 (0.2)
  0x00008b|         04                                    |   .            |                                      form: "primitive" (0) 0x8b3.2-0x8b3.2 (0.1)
  0x00008b|         04                                    |   .            |                                      tag: "octet_string" (0x4) 0x8b3.3-0x8b3.7 (0.5)
  0x00008b|            1b                                 |    .           |                                      length: 27 0x8b4-0x8b4.7 (1)
  0x00008b|               30 19 30 08 06 06 67 81 0c 01 02|     0.0...g....|                                      value: raw bits 0x8b5-0x8cf.7 (27)
  0x00008c|01 30 0d 06 0b 2b 06 01 04 01 82 df 13 01 01 01|.0...+..........|
          |                                               |                |                    [1]{}: object 0x8d0-0x8de.7 (15)
  0x00008d|30                                             |0               |                      class: "universal" (0) 0x8d0-0x8d0.1 (0.2)
  0x00008d|30                                             |0               |                      form: "constructed" (1) 0x8d0.2-0x8d0.2 (0.1)
  0x00008d|30                                             |0               |                      tag: "sequence" (0x10) 0x8d0.3-0x8d0.7 (0.5)
  0x00008d|   0d                                          | .              |                      length: 13 0x8d1-0x8d1.7 (1)
          |                                               |                |                      constructed[0:2]: 0x8d2-0x8de.7 (13)
          |                                               |                |                        [0]{}: object 0x8d2-0x8dc.7 (11)
  0x00008d|      06                                       |  .             |                          class: "universal" (0) 0x8d2-0x8d2.1 (0.2)
  0x00008d|      06                                       |  .             |                          form: "primitive" (0) 0x8d2.2-0x8d2.2 (0.1)
  0x00008d|      06                                       |  .             |                          tag: "object_identifier" (0x6) 0x8d2.3-0x8d2.7 (0.5)
  0x00008d|         09                                    |   .            |                          length: 9 0x8d3-0x8d3.7 (1)
          |                                               |                |                          value[0:7]: 0x8d4-0x8dc.7 (9)
  0x00008d|            2a                                 |    *           |                            [0]: 1 oid 0x8d4-0x8d4.7 (1)
  0x00008d|            2a                                 |    *           |                            [1]: 2 oid 0x8d4-0x8d4.7 (1)
  0x00008d|               86 48                           |     .H         |                            [2]: 840 oid 0x8d5-0x8d6.7 (2)
  0x00008d|                     86 f7 0d                  |       ...      |                            [3]: 113549 oid 0x8d7-0x8d9.7 (3)
  0x00008d|                              01               |          .     |                            [4]: 1 oid 0x8da-0x8da.7 (1)
  0x00008d|                                 01            |           .    |                            [5]: 1 oid 0x8db-0x8db.7 (1)
  0x00008d|                                    0b         |            .   |                            [6]: 11 oid 0x8dc-0x8dc.7 (1)
          |                                               |                |                        [1]{}: object 0x8dd-0x8de.7 (2)
  0x00008d|                                       05      |             .  |                          class: "universal" (0) 0x8dd-0x8dd.1 (0.2)
  0x00008d|                                       05      |             .  |                          form: "primitive" (0) 0x8dd.2-0x8dd.2 (0.1)
  0x00008d|                                       05      |             .  |                          tag: "null" (0x5) 0x8dd.3-0x8dd.7 (0.5)
  0x00008d|                                          00   |              . |                          length: "indefinite" (0) 0x8de-0x8de.7 (1)
          |                                               |                |                          value: null
          |                                               |                |                    [2]{}: object 0x8df-0xae3.7 (517)
  0x00008d|                                             03|               .|                      class: "universal" (0) 0x8df-0x8df.1 (0.2)
  0x00008d|                                             03|               .|                      form: "primitive" (0) 0x8df.2-0x8df.2 (0.1)
  0x00008d|                                             03|               .|                      tag: "bit_string" (0x3) 0x8df.3-0x8df.7 (0.5)
  0x00008e|82 02 01                                       |...             |                      length: 513 0x8e0-0x8e2.7 (3)
  0x00008e|         00                                    |   .            |                      unused_bits_count: 0 0x8e3-0x8e3.7 (1)
  0x00008e|            85 ca 4e 47 3e a3 f7 85 44 85 bc d5|    ..NG>...D...|                      value: raw bits 0x8e4-0xae3.7 (512)
  0x00008f|67 78 b2 98 63 ad 75 4d 1e 96 3d 33 65 72 54 2d|gx..c.uM..=3erT-|
  *       |until 0xae3.7 (512)                            |                |
          |                                               |                |              [2]{}: certificate 0xae4-0x104a.7 (1383)
  0x0000ae|            00 05 64                           |    ..d         |                length: 1380 0xae4-0xae6.7 (3)
          |00 01 02 03 04 05 06 07 08 09 0a 0b 0c 0d 0e 0f|0123456789abcdef|                data{}: (asn1_ber) 0xae7-0x104a.7 (1380)
  0x0000ae|                     30                        |       0        |                  class: "universal" (0) 0xae7-0xae7.1 (0.2)
  0x0000ae|                     30                        |       0        |                  form: "constructed" (1) 0xae7.2-0xae7.2 (0.1)
  0x0000ae|                     30                        |       0        |                  tag: "sequence" (0x10) 0xae7.3-0xae7.7 (0.5)
  0x0000ae|                        82 05 60               |        ..`     |                  length: 1376 0xae8-0xaea.7 (3)
          |                                               |                |                  constructed[0:3]: 0xaeb-0x104a.7 (1376)
          |                                               |                |                    [0]{}: object 0xaeb-0xf36.7 (1100)
  0x0000ae|                                 30            |           0    |                      class: "universal" (0) 0xaeb-0xaeb.1 (0.2)
  0x0000ae|                                 30            |           0    |                      form: "constructed" (1) 0xaeb.2-0xaeb.2 (0.1)
  0x0000ae|                                 30            |           0    |                      tag: "sequence" (0x10) 0xaeb.3-0xaeb.7 (0.5)
  0x0000ae|                                    82 04 48   |            ..H |                      length: 1096 0xaec-0xaee.7 (3)
          |                                               |                |                      constructed[0:8]: 0xaef-0xf36.7 (1096)
          |                                               |                |                        [0]{}: object 0xaef-0xaf3.7 (5)
  0x0000ae|                                             a0|               .|                          class: "context" (2) 0xaef-0xaef.1 (0.2)
  0x0000ae|                                             a0|               .|                          form: "constructed" (1) 0xaef.2-0xaef.2 (0.1)
  0x0000ae|                                             a0|               .|                          tag: 0 0xaef.3-0xaef.7 (0.5)
  0x0000af|03                                             |.               |                          length: 3 0xaf0-0xaf0.7 (1)
          |                                               |                |                          constructed[0:1]: 0xaf1-0xaf3.7 (3)
          |                                               |                |                            [0]{}: object 0xaf1-0xaf3.7 (3)
  0x0000af|   02                                          | .              |                              class: "universal" (0) 0xaf1-0xaf1.1 (0.2)
  0x0000af|   02                                          | .              |                              form: "primitive" (0) 0xaf1.2-0xaf1.2 (0.1)
  0x0000af|   02                                          | .              |                              tag: "integer" (0x2) 0xaf1.3-0xaf1.7 (0.5)
  0x0000af|      01                                       |  .             |                              length: 1 0xaf2-0xaf2.7 (1)
  0x0000af|         02                                    |   .            |                              value: 2 0xaf3-0xaf3.7 (1)
          |                                               |                |                        [1]{}: object 0xaf4-0xb05.7 (18)
  0x0000af|            02                                 |    .           |                          class: "universal" (0) 0xaf4-0xaf4.1 (0.2)
  0x0000af|            02                                 |    .           |                          form: "primitive" (0) 0xaf4.2-0xaf4.2 (0.1)
  0x0000af|            02                                 |    .           |                          tag: "integer" (0x2) 0xaf4.3-0xaf4.7 (0.5)
  0x0000af|               10                              |     .          |                          length: 16 0xaf5-0xaf5.7 (1)
  0x0000af|                  40 01 77 21 37 d4 e9 42 b8 ee|      @.w!7..B..|                          value: 85078200265644417569109389142156118711 0xaf6-0xb05.7 (16)
  0x0000b0|76 aa 3c 64 0a b7                              |v.<d..          |
          |                                               |                |                        [2]{}: object 0xb06-0xb14.7 (15)
  0x0000b0|                  30                           |      0         |                          class: "universal" (0) 0xb06-0xb06.1 (0.2)
  0x0000b0|                  30                           |      0         |                          form: "constructed" (1) 0xb06.2-0xb06.2 (0.1)
  0x0000b0|                  30                           |      0         |                          tag: "sequence" (0x10) 0xb06.3-0xb06.7 (0.5)
  0x0000b0|                     0d                        |       .        |                          length: 13 0xb07-0xb07.7 (1)
          |                                               |                |                          constructed[0:2]: 0xb08-0xb14.7 (13)
          |                                               |                |                            [0]{}: object 0xb08-0xb12.7 (11)
  0x0000b0|                        06                     |        .       |                              class: "universal" (0) 0xb08-0xb08.1 (0.2)
  0x0000b0|                        06                     |        .       |                              form: "primitive" (0) 0xb08.2-0xb08.2 (0.1)
  0x0000b0|                        06                     |        .       |                              tag: "object_identifier" (0x6) 0xb08.3-0xb08.7 (0.5)
  0x0000b0|                           09                  |         .      |                              length: 9 0xb09-0xb09.7 (1)
          |                                               |                |                              value[0:7]: 0xb0a-0xb12.7 (9)
  0x0000b0|                              2a               |          *     |                                [0]: 1 oid 0xb0a-0xb0a.7 (1)
  0x0000b0|                              2a               |          *     |                                [1]: 2 oid 0xb0a-0xb0a.7 (1)
  0x0000b0|                                 86 48         |           .H   |                                [2]: 840 oid 0xb0b-0xb0c.7 (2)
  0x0000b0|                                       86 f7 0d|             ...|                                [3]: 113549 oid 0xb0d-0xb0f.7 (3)
  0x0000b1|01                                             |.               |                                [4]: 1 oid 0xb10-0xb10.7 (1)
  0x0000b1|   01                                          | .              |                                [5]: 1 oid 0xb11-0xb11.7 (1)
  0x0000b1|      0b                                       |  .             |                                [6]: 11 oid 0xb12-0xb12.7 (1)
          |                                               |                |                            [1]{}: object 0xb13-0xb14.7 (2)
  0x0000b1|         05                                    |   .            |                              class: "universal" (0) 0xb13-0xb13.1 (0.2)
  0x0000b1|         05                                    |   .            |                              form: "primitive" (0) 0xb13.2-0xb13.2 (0.1)
  0x0000b1|         05                                    |   .            |                              tag: "null" (0x5) 0xb13.3-0xb13.7 (0.5)
  0x0000b1|            00                                 |    .           |                              length: "indefinite" (0) 0xb14-0xb14.7 (1)
          |                                               |                |                              value: null
          |                                               |                |                        [3]{}: object 0xb15-0xb55.7 (65)
  0x0000b1|               30                              |     0          |                          class: "universal" (0) 0xb15-0xb15.1 (0.2)
  0x0000b1|               30                              |     0          |                          form: "constructed" (1) 0xb15.2-0xb15.2 (0.1)
  0x0000b1|               30                              |     0          |                          tag: "sequence" (0x10) 0xb15.3-0xb15.7 (0.5)
  0x0000b1|                  3f                           |      ?         |                          length: 63 0xb16-0xb16.7 (1)
          |                                               |                |                          constructed[0:2]: 0xb17-0xb55.7 (63)
          |                                               |                |                            [0]{}: object 0xb17-0xb3c.7 (38)
  0x0000b1|                     31                        |       1        |                              class: "universal" (0) 0xb17-0xb17.1 (0.2)
  0x0000b1|                     31                        |       1        |                              form: "constructed" (1) 0xb17.2-0xb17.2 (0.1)
  0x0000b1|                     31                        |       1        |                              tag: "set" (0x11) 0xb17.3-0xb17.7 (0.5)
  0x0000b1|                        24                     |        $       |                              length: 36 0xb18-0xb18.7 (1)
          |                                               |                |                              constructed[0:1]: 0xb19-0xb3c.7 (36)
          |                                               |                |                                [0]{}: object 0xb19-0xb3c.7 (36)
  0x0000b1|                           30                  |         0      |                                  class: "universal" (0) 0xb19-0xb19.1 (0.2)
  0x0000b1|                           30                  |         0      |                                  form: "constructed" (1) 0xb19.2-0xb19.2 (0.1)
  0x0000b1|                           30                  |         0      |                                  tag: "sequence" (0x10) 0xb19.3-0xb19.7 (0.5)
  0x0000b1|                              22               |          "     |                                  length: 34 0xb1a-0xb1a.7 (1)
          |                                               |                |                                  constructed[0:2]: 0xb1b-0xb3c.7 (34)
          |                                               |                |                                    [0]{}: object 0xb1b-0xb1f.7 (5)
  0x0000b1|                                 06            |           .    |                                      class: "universal" (0) 0xb1b-0xb1b.1 (0.2)
  0x0000b1|                                 06            |           .    |                                      form: "primitive" (0) 0xb1b.2-0xb1b.2 (0.1)
  0x0000b1|                                 06            |           .    |                                      tag: "object_identifier" (0x6) 0xb1b.3-0xb1b.7 (0.5)
  0x0000b1|                                    03         |            .   |                                      length: 3 0xb1c-0xb1c.7 (1)
          |                                               |                |                                      value[0:4]: 0xb1d-0xb1f.7 (3)
  0x0000b1|                                       55      |             U  |                                        [0]: 2 oid 0xb1d-0xb1d.7 (1)
  0x0000b1|                                       55      |             U  |                                        [1]: 5 oid 0xb1d-0xb1d.7 (1)
  0x0000b1|                                          04   |              . |                                        [2]: 4 oid 0xb1e-0xb1e.7 (1)
  0x0000b1|                                             0a|               .|                                        [3]: 10 oid 0xb1f-0xb1f.7 (1)
          |                                               |                |                                    [1]{}: object 0xb20-0xb3c.7 (29)
  0x0000b2|13                                             |.               |                                      class: "universal" (0) 0xb20-0xb20.1 (0.2)
  0x0000b2|13                                             |.               |                                      form: "primitive" (0) 0xb20.2-0xb20.2 (0.1)
  0x0000b2|13                                             |.               |                                      tag: "printable_string" (0x13) 0xb20.3-0xb20.7 (0.5)
  0x0000b2|   1b                                          | .              |                                      length: 27 0xb21-0xb21.7 (1)
  0x0000b2|      44 69 67 69 74 61 6c 20 53 69 67 6e 61 74|  Digital Signat|                                      value: "Digital Signature Trust Co." 0xb22-0xb3c.7 (27)
  0x0000b3|75 72 65 20 54 72 75 73 74 20 43 6f 2e         |ure Trust Co.   |
          |                                               |                |                            [1]{}: object 0xb3d-0xb55.7 (25)
  0x0000b3|                                       31      |             1  |                              class: "universal" (0) 0xb3d-0xb3d.1 (0.2)
  0x0000b3|                                       31      |             1  |                              form: "constructed" (1) 0xb3d.2-0xb3d.2 (0.1)
  0x0000b3|                                       31      |             1  |                              tag: "set" (0x11) 0xb3d.3-0xb3d.7 (0.5)
  0x0000b3|                                          17   |              . |                              length: 23 0xb3e-0xb3e.7 (1)
          |                                               |                |                              constructed[0:1]: 0xb3f-0xb55.7 (23)
          |                                               |                |                                [0]{}: object 0xb3f-0xb55.7 (23)
  0x0000b3|                                             30|               0|                                  class: "universal" (0) 0xb3f-0xb3f.1 (0.2)
  0x0000b3|                                             30|               0|                                  form: "constructed" (1) 0xb3f.2-0xb3f.2 (0.1)
  0x0000b3|                                             30|               0|                                  tag: "sequence" (0x10) 0xb3f.3-0xb3f.7 (0.5)
  0x0000b4|15                                             |.               |                                  length: 21 0xb40-0xb40.7 (1)
          |                                               |                |                                  constructed[0:2]: 0xb41-0xb55.7 (21)
          |                                               |                |                                    [0]{}: object 0xb41-0xb45.7 (5)
  0x0000b4|   06                                          | .              |                                      class: "universal" (0) 0xb41-0xb41.1 (0.2)
  0x0000b4|   06                                          | .              |                                      form: "primitive" (0) 0xb41.2-0xb41.2 (0.1)
  0x0000b4|   06                                          | .              |                                      tag: "object_identifier" (0x6) 0xb41.3-0xb41.7 (0.5)
  0x0000b4|      03                                       |  .             |                                      length: 3 0xb42-0xb42.7 (1)
          |                                               |                |                                      value[0:4]: 0xb43-0xb45.7 (3)
  0x0000b4|         55                                    |   U            |                                        [0]: 2 oid 0xb43-0xb43.7 (1)
  0x0000b4|         55                                    |   U            |                                        [1]: 5 oid 0xb43-0xb43.7 (1)
  0x0000b4|            04                                 |    .           |                                        [2]: 4 oid 0xb44-0xb44.7 (1)
  0x0000b4|               03                              |     .          |                                        [3]: 3 oid 0xb45-0xb45.7 (1)
          |                                               |                |                                    [1]{}: object 0xb46-0xb55.7 (16)
  0x0000b4|                  13                           |      .         |                                      class: "universal" (0) 0xb46-0xb46.1 (0.2)
  0x0000b4|                  13                           |      .         |                                      form: "primitive" (0) 0xb46.2-0xb46.2 (0.1)
  0x0000b4|                  13                           |      .         |                                      tag: "printable_string" (0x13) 0xb46.3-0xb46.7 (0.5)
  0x0000b4|                     0e                        |       .        |                                      length: 14 0xb47-0xb47.7 (1)
  0x0000b4|                        44 53 54 20 52 6f 6f 74|        DST Root|                                      value: "DST Root CA X3" 0xb48-0xb55.7 (14)
  0x0000b5|20 43 41 20 58 33                              | CA X3          |
          |                                               |                |                        [4]{}: object 0xb56-0xb75.7 (32)
  0x0000b5|                  30                           |      0         |                          class: "universal" (0) 0xb56-0xb56.1 (0.2)
  0x0000b5|                  30                           |      0         |                          form: "constructed" (1) 0xb56.2-0xb56.2 (0.1)
  0x0000b5|                  30                           |      0         |                          tag: "sequence" (0x10) 0xb56.3-0xb56.7 (0.5)
  0x0000b5|                     1e                        |       .        |                          length: 30 0xb57-0xb57.7 (1)
          |                                               |                |                          constructed[0:2]: 0xb58-0xb75.7 (30)
          |                                               |                |                            [0]{}: object 0xb58-0xb66.7 (15)
  0x0000b5|                        17                     |        .       |                              class: "universal" (0) 0xb58-0xb58.1 (0.2)
  0x0000b5|                        17                     |        .       |                              form: "primitive" (0) 0xb58.2-0xb58.2 (0.1)
  0x0000b5|                        17                     |        .       |                              tag: "utc_time" (0x17) 0xb58.3-0xb58.7 (0.5)
  0x0000b5|                           0d                  |         .      |                              length: 13 0xb59-0xb59.7 (1)
  0x0000b5|                              32 31 30 31 32 30|          210120|                              value: "210120191403Z" 0xb5a-0xb66.7 (13)
  0x0000b6|31 39 31 34 30 33 5a                           |191403Z         |
          |                                               |                |                            [1]{}: object 0xb67-0xb75.7 (15)
  0x0000b6|                     17                        |       .        |                              class: "universal" (0) 0xb67-0xb67.1 (0.2)
  0x0000b6|                     17                        |       .        |                              form: "primitive" (0) 0xb67.2-0xb67.2 (0.1)
  0x0000b6|                     17                        |       .        |                              tag: "utc_time" (0x17) 0xb67.3-0xb67.7 (0.5)
  0x0000b6|                        0d                     |        .       |                              length: 13 0xb68-0xb68.7 (1)
  0x0000b6|                           32 34 30 39 33 30 31|         2409301|                              value: "240930181403Z" 0xb69-0xb75.7 (13)
  0x0000b7|38 31 34 30 33 5a                              |81403Z          |
          |                                               |                |                        [5]{}: object 0xb76-0xbc6.7 (81)
  0x0000b7|                  30                           |      0         |                          class: "universal" (0) 0xb76-0xb76.1 (0.2)
  0x0000b7|                  30                           |      0         |                          form: "constructed" (1) 0xb76.2-0xb76.2 (0.1)
  0x0000b7|                  30                           |      0         |                          tag: "sequence" (0x10) 0xb76.3-0xb76.7 (0.5)
  0x0000b7|                     4f                        |       O        |                          length: 79 0xb77-0xb77.7 (1)
          |                                               |                |                          constructed[0:3]: 0xb78-0xbc6.7 (79)
          |                                               |                |                            [0]{}: object 0xb78-0xb84.7 (13)
  0x0000b7|                        31                     |        1       |                              class: "universal" (0) 0xb78-0xb78.1 (0.2)
  0x0000b7|                        31                     |        1       |                              form: "constructed" (1) 0xb78.2-0xb78.2 (0.1)
  0x0000b7|                        31                     |        1       |                              tag: "set" (0x11) 0xb78.3-0xb78.7 (0.5)
  0x0000b7|                           0b                  |         .      |                              length: 11 0xb79-0xb79.7 (1)
          |                                               |                |                              constructed[0:1]: 0xb7a-0xb84.7 (11)
          |                                               |                |                                [0]{}: object 0xb7a-0xb84.7 (11)
  0x0000b7|                              30               |          0     |                                  class: "universal" (0) 0xb7a-0xb7a.1 (0.2)
  0x0000b7|                              30               |          0     |                                  form: "constructed" (1) 0xb7a.2-0xb7a.2 (0.1)
  0x0000b7|                              30               |          0     |                                  tag: "sequence" (0x10) 0xb7a.3-0xb7a.7 (0.5)
  0x0000b7|                                 09            |           .    |                                  length: 9 0xb7b-0xb7b.7 (1)
          |                                               |                |                                  constructed[0:2]: 0xb7c-0xb84.7 (9)
          |                                               |                |                                    [0]{}: object 0xb7c-0xb80.7 (5)
  0x0000b7|                                    06         |            .   |                                      class: "universal" (0) 0xb7c-0xb7c.1 (0.2)
  0x0000b7|                                    06         |            .   |                                      form: "primitive" (0) 0xb7c.2-0xb7c.2 (0.1)
  0x0000b7|                                    06         |            .   |                                      tag: "object_identifier" (0x6) 0xb7c.3-0xb7c.7 (0.5)
  0x0000b7|                                       03      |             .  |                                      length: 3 0xb7d-0xb7d.7 (1)
          |                                               |                |                                      value[0:4]: 0xb7e-0xb80.7 (3)
  0x0000b7|                                          55   |              U |                                        [0]: 2 oid 0xb7e-0xb7e.7 (1)
  0x0000b7|                                          55   |              U |                                        [1]: 5 oid 0xb7e-0xb7e.7 (1)
  0x0000b7|                                             04|               .|                                        [2]: 4 oid 0xb7f-0xb7f.7 (1)
  0x0000b8|06                                             |.               |                                        [3]: 6 oid 0xb80-0xb80.7 (1)
          |                                               |                |                                    [1]{}: object 0xb81-0xb84.7 (4)
  0x0000b8|   13                                          | .              |                                      class: "universal" (0) 0xb81-0xb81.1 (0.2)
  0x0000b8|   13                                          | .              |                                      form: "primitive" (0) 0xb81.2-0xb81.2 (0.1)
  0x0000b8|   13                                          | .              |                                      tag: "printable_string" (0x13) 0xb81.3-0xb81.7 (0.5)
  0x0000b8|      02                                       |  .             |                                      length: 2 0xb82-0xb82.7 (1)
  0x0000b8|         55 53                                 |   US           |                                      value: "US" 0xb83-0xb84.7 (2)
          |                                               |                |                            [1]{}: object 0xb85-0xbaf.7 (43)
  0x0000b8|               31                              |     1          |                              class: "universal" (0) 0xb85-0xb85.1 (0.2)
  0x0000b8|               31                              |     1          |                              form: "constructed" (1) 0xb85.2-0xb85.2 (0.1)
  0x0000b8|               31                              |     1          |                              tag: "set" (0x11) 0xb85.3-0xb85.7 (0.5)
  0x0000b8|                  29                           |      )         |                              length: 41 0xb86-0xb86.7 (1)
          |                                               |                |                              constructed[0:1]: 0xb87-0xbaf.7 (41)
          |                                               |                |                                [0]{}: object 0xb87-0xbaf.7 (41)
  0x0000b8|                     30                        |       0        |                                  class: "universal" (0) 0xb87-0xb87.1 (0.2)
  0x0000b8|                     30                        |       0        |                                  form: "constructed" (1) 0xb87.2-0xb87.2 (0.1)
  0x0000b8|                     30                        |       0        |                                  tag: "sequence" (0x10) 0xb87.3-0xb87.7 (0.5)
  0x0000b8|                        27                     |        '       |                                  length: 39 0xb88-0xb88.7 (1)
          |                                               |                |                                  constructed[0:2]: 0xb89-0xbaf.7 (39)
          |                                               |                |                                    [0]{}: object 0xb89-0xb8d.7 (5)
  0x0000b8|                           06                  |         .      |                                      class: "universal" (0) 0xb89-0xb89.1 (0.2)
  0x0000b8|                           06                  |         .      |                                      form: "primitive" (0) 0xb89.2-0xb89.2 (0.1)
  0x0000b8|                           06                  |         .      |                                      tag: "object_identifier" (0x6) 0xb89.3-0xb89.7 (0.5)
  0x0000b8|                              03               |          .     |                                      length: 3 0xb8a-0xb8a.7 (1)
          |                                               |                |                                      value[0:4]: 0xb8b-0xb8d.7 (3)
  0x0000b8|                                 55            |           U    |                                        [0]: 2 oid 0xb8b-0xb8b.7 (1)
  0x0000b8|                                 55            |           U    |                                        [1]: 5 oid 0xb8b-0xb8b.7 (1)
  0x0000b8|                                    04         |            .   |                                        [2]: 4 oid 0xb8c-0xb8c.7 (1)
  0x0000b8|                                       0a      |             .  |                                        [3]: 10 oid 0xb8d-0xb8d.7 (1)
          |                                               |                |                                    [1]{}: object 0xb8e-0xbaf.7 (34)
  0x0000b8|                                          13   |              . |                                      class: "universal" (0) 0xb8e-0xb8e.1 (0.2)
  0x0000b8|                                          13   |              . |                                      form: "primitive" (0) 0xb8e.2-0xb8e.2 (0.1)
  0x0000b8|                                          13   |              . |                                      tag: "printable_string" (0x13) 0xb8e.3-0xb8e.7 (0.5)
  0x0000b8|                                             20|                |                                      length: 32 0xb8f-0xb8f.7 (1)
  0x0000b9|49 6e 74 65 72 6e 65 74 20 53 65 63 75 72 69 74|Internet Securit|                                      value: "Internet Security Research Group" 0xb90-0xbaf.7 (32)
  0x0000ba|79 20 52 65 73 65 61 72 63 68 20 47 72 6f 75 70|y Research Group|
          |                                               |                |                            [2]{}: object 0xbb0-0xbc6.7 (23)
  0x0000bb|31                                             |1               |                              class: "universal" (0) 0xbb0-0xbb0.1 (0.2)
  0x0000bb|31                                             |1               |                              form: "constructed" (1) 0xbb0.2-0xbb0.2 (0.1)
  0x0000bb|31                                             |1               |                              tag: "set" (0x11) 0xbb0.3-0xbb0.7 (0.5)
  0x0000bb|   15                                          | .              |                              length: 21 0xbb1-0xbb1.7 (1)
          |                                               |                |                              constructed[0:1]: 0xbb2-0xbc6.7 (21)
          |                                               |                |                                [0]{}: object 0xbb2-0xbc6.7 (21)
  0x0000bb|      30                                       |  0             |                                  class: "universal" (0) 0xbb2-0xbb2.1 (0.2)
  0x0000bb|      30                                       |  0             |                                  form: "constructed" (1) 0xbb2.2-0xbb2.2 (0.1)
  0x0000bb|      30                                       |  0             |                                  tag: "sequence" (0x10) 0xbb2.3-0xbb2.7 (0.5)
  0x0000bb|         13                                    |   .            |                                  length: 19 0xbb3-0xbb3.7 (1)
          |                                               |                |                                  constructed[0:2]: 0xbb4-0xbc6.7 (19)
          |                                               |                |                                    [0]{}: object 0xbb4-0xbb8.7 (5)
  0x0000bb|            06                                 |    .           |                                      class: "universal" (0) 0xbb4-0xbb4.1 (0.2)
  0x0000bb|            06                                 |    .           |                                      form: "primitive" (0) 0xbb4.2-0xbb4.2 (0.1)
  0x0000bb|            06                                 |    .           |                                      tag: "object_identifier" (0x6) 0xbb4.3-0xbb4.7 (0.5)
  0x0000bb|               03                              |     .          |                                      length: 3 0xbb5-0xbb5.7 (1)
          |                                               |                |                                      value[0:4]: 0xbb6-0xbb8.7 (3)
  0x0000bb|                  55                           |      U         |                                        [0]: 2 oid 0xbb6-0xbb6.7 (1)
  0x0000bb|                  55                           |      U         |                                        [1]: 5 oid 0xbb6-0xbb6.7 (1)
  0x0000bb|                     04                        |       .        |                                        [2]: 4 oid 0xbb7-0xbb7.7 (1)
  0x0000bb|                        03                     |        .       |                                        [3]: 3 oid 0xbb8-0xbb8.7 (1)
          |                                               |                |                                    [1]{}: object 0xbb9-0xbc6.7 (14)
  0x0000bb|                           13                  |         .      |                                      class: "universal" (0) 0xbb9-0xbb9.1 (0.2)
  0x0000bb|                           13                  |         .      |                                      form: "primitive" (0) 0xbb9.2-0xbb9.2 (0.1)
  0x0000bb|                           13                  |         .      |                                      tag: "printable_string" (0x13) 0xbb9.3-0xbb9.7 (0.5)
  0x0000bb|                              0c               |          .     |                                      length: 12 0xbba-0xbba.7 (1)
  0x0000bb|                                 49 53 52 47 20|           ISRG |                                      value: "ISRG Root X1" 0xbbb-0xbc6.7 (12)
  0x0000bc|52 6f 6f 74 20 58 31                           |Root X1         |
          |                                               |                |                        [6]{}: object 0xbc7-0xdec.7 (550)
  0x0000bc|                     30                        |       0        |                          class: "universal" (0) 0xbc7-0xbc7.1 (0.2)
  0x0000bc|                     30                        |       0        |                          form: "constructed" (1) 0xbc7.2-0xbc7.2 (0.1)
  0x0000bc|                     30                        |       0        |                          tag: "sequence" (0x10) 0xbc7.3-0xbc7.7 (0.5)
  0x0000bc|                        82 02 22               |        .."     |                          length: 546 0xbc8-0xbca.7 (3)
          |                                               |                |                          constructed[0:2]: 0xbcb-0xdec.7 (546)
          |                                               |                |                            [0]{}: object 0xbcb-0xbd9.7 (15)
  0x0000bc|                                 30            |           0    |                              class: "universal" (0) 0xbcb-0xbcb.1 (0.2)
  0x0000bc|                                 30            |           0    |                              form: "constructed" (1) 0xbcb.2-0xbcb.2 (0.1)
  0x0000bc|                                 30            |           0    |                              tag: "sequence" (0x10) 0xbcb.3-0xbcb.7 (0.5)
  0x0000bc|                                    0d         |            .   |                              length: 13 0xbcc-0xbcc.7 (1)
          |                                               |                |                              constructed[0:2]: 0xbcd-0xbd9.7 (13)
          |                                               |                |                                [0]{}: object 0xbcd-0xbd7.7 (11)
  0x0000bc|                                       06      |             .  |                                  class: "universal" (0) 0xbcd-0xbcd.1 (0.2)
  0x0000bc|                                       06      |             .  |                                  form: "primitive" (0) 0xbcd.2-0xbcd.2 (0.1)
  0x0000bc|                                       06      |             .  |                                  tag: "object_identifier" (0x6) 0xbcd.3-0xbcd.7 (0.5)
  0x0000bc|                                          09   |              . |                                  length: 9 0xbce-0xbce.7 (1)
          |                                               |                |                                  value[0:7]: 0xbcf-0xbd7.7 (9)
  0x0000bc|                                             2a|               *|                                    [0]: 1 oid 0xbcf-0xbcf.7 (1)
  0x0000bc|                                             2a|               *|                                    [1]: 2 oid 0xbcf-0xbcf.7 (1)
  0x0000bd|86 48                                          |.H              |                                    [2]: 840 oid 0xbd0-0xbd1.7 (2)
  0x0000bd|      86 f7 0d                                 |  ...           |                                    [3]: 113549 oid 0xbd2-0xbd4.7 (3)
  0x0000bd|               01                              |     .          |                                    [4]: 1 oid 0xbd5-0xbd5.7 (1)
  0x0000bd|                  01                           |      .         |                                    [5]: 1 oid 0xbd6-0xbd6.7 (1)
  0x0000bd|                     01                        |       .        |                                    [6]: 1 oid 0xbd7-0xbd7.7 (1)
          |                                               |                |                                [1]{}: object 0xbd8-0xbd9.7 (2)
  0x0000bd|                        05                     |        .       |                                  class: "universal" (0) 0xbd8-0xbd8.1 (0.2)
  0x0000bd|                        05                     |        .       |                                  form: "primitive" (0) 0xbd8.2-0xbd8.2 (0.1)
  0x0000bd|                        05                     |        .       |                                  tag: "null" (0x5) 0xbd8.3-0xbd8.7 (0.5)
  0x0000bd|                           00                  |         .      |                                  length: "indefinite" (0) 0xbd9-0xbd9.7 (1)
          |                                               |                |                                  value: null
          |                                               |                |                            [1]{}: object 0xbda-0xdec.7 (531)
  0x0000bd|                              03               |          .     |                              class: "universal" (0) 0xbda-0xbda.1 (0.2)
  0x0000bd|                              03               |          .     |                              form: "primitive" (0) 0xbda.2-0xbda.2 (0.1)
  0x0000bd|                              03               |          .     |                              tag: "bit_string" (0x3) 0xbda.3-0xbda.7 (0.5)
  0x0000bd|                                 82 02 0f      |           ...  |                              length: 527 0xbdb-0xbdd.7 (3)
  0x0000bd|                                          00   |              . |                              unused_bits_count: 0 0xbde-0xbde.7 (1)
  0x0000bd|                                             30|               0|                              value: raw bits 0xbdf-0xdec.7 (526)
  0x0000be|82 02 0a 02 82 02 01 00 ad e8 24 73 f4 14 37 f3|..........$s..7.|
  *       |until 0xdec.7 (526)                            |                |
          |                                               |                |                        [7]{}: object 0xded-0xf36.7 (330)
          |00 01 02 03 04 05 06 07 08 09 0a 0b 0c 0d 0e 0f|0123456789abcdef|
    0x0000|30 03 01 01 ff 03 02 01 06 30 3d 30 3b 06 08 2b|0........0=0;..+|                          value: raw bits 0x0-0xf7.7 (248)
    *     |until 0xf7.7 (end) (248)                       |                |
  0x0000de|                                       a3      |             .  |                          class: "context" (2) 0xded-0xded.1 (0.2)
  0x0000de|                                       a3      |             .  |                          form: "constructed" (1) 0xded.2-0xded.2 (0.1)
  0x0000de|                                       a3      |             .  |                          tag: 3 0xded.3-0xded.7 (0.5)
  0x0000de|                                          82 01|              ..|                          length: 326 0xdee-0xdf0.7 (3)
  0x0000df|46                                             |F               |
          |                                               |                |                          constructed[0:1]: 0xdf1-0xf36.7 (326)
          |                                               |                |                            [0]{}: object 0xdf1-0xf36.7 (326)
  0x0000df|   30                                          | 0              |                              class: "universal" (0) 0xdf1-0xdf1.1 (0.2)
  0x0000df|   30                                          | 0              |                              form: "constructed" (1) 0xdf1.2-0xdf1.2 (0.1)
  0x0000df|   30                                          | 0              |                              tag: "sequence" (0x10) 0xdf1.3-0xdf1.7 (0.5)
  0x0000df|      82 01 42                                 |  ..B           |                              length: 322 0xdf2-0xdf4.7 (3)
          |                                               |                |                              constructed[0:7]: 0xdf5-0xf36.7 (322)
          |                                               |                |                                [0]{}: object 0xdf5-0xe05.7 (17)
  0x0000df|               30                              |     0          |                                  class: "universal" (0) 0xdf5-0xdf5.1 (0.2)
  0x0000df|               30                              |     0          |                                  form: "constructed" (1) 0xdf5.2-0xdf5.2 (0.1)
  0x0000df|               30                              |     0          |                                  tag: "sequence" (0x10) 0xdf5.3-0xdf5.7 (0.5)
  0x0000df|                  0f                           |      .         |                                  length: 15 0xdf6-0xdf6.7 (1)
          |                                               |                |                                  constructed[0:3]: 0xdf7-0xe05.7 (15)
          |                                               |                |                                    [0]{}: object 0xdf7-0xdfb.7 (5)
  0x0000df|                     06                        |       .        |                                      class: "universal" (0) 0xdf7-0xdf7.1 (0.2)
  0x0000df|                     06                        |       .        |                                      form: "primitive" (0) 0xdf7.2-0xdf7.2 (0.1)
  0x0000df|                     06                        |       .        |                                      tag: "object_identifier" (0x6) 0xdf7.3-0xdf7.7 (0.5)
  0x0000df|                        03                     |        .       |                                      length: 3 0xdf8-0xdf8.7 (1)
          |                                               |                |                                      value[0:4]: 0xdf9-0xdfb.7 (3)
  0x0000df|                           55                  |         U      |                                        [0]: 2 oid 0xdf9-0xdf9.7 (1)
  0x0000df|                           55                  |         U      |                                        [1]: 5 oid 0xdf9-0xdf9.7 (1)
  0x0000df|                              1d               |          .     |                                        [2]: 29 oid 0xdfa-0xdfa.7 (1)
  0x0000df|                                 13            |           .    |                                        [3]: 19 oid 0xdfb-0xdfb.7 (1)
          |                                               |                |                                    [1]{}: object 0xdfc-0xdfe.7 (3)
  0x0000df|                                    01         |            .   |                                      class: "universal" (0) 0xdfc-0xdfc.1 (0.2)
  0x0000df|                                    01         |            .   |                                      form: "primitive" (0) 0xdfc.2-0xdfc.2 (0.1)
  0x0000df|                                    01         |            .   |                                      tag: "boolean" (0x1) 0xdfc.3-0xdfc.7 (0.5)
  0x0000df|                                       01      |             .  |                                      length: 1 0xdfd-0xdfd.7 (1)
  0x0000df|                                          ff   |              . |                                      value: true (255) 0xdfe-0xdfe.7 (1)
          |                                               |                |                                    [2]{}: object 0xdff-0xe05.7 (7)
  0x0000df|                                             04|               .|                                      class: "universal" (0) 0xdff-0xdff.1 (0.2)
  0x0000df|                                             04|               .|                                      form: "primitive" (0) 0xdff.2-0xdff.2 (0.1)
  0x0000df|                                             04|               .|                                      tag: "octet_string" (0x4) 0xdff.3-0xdff.7 (0.5)
  0x0000e0|05                                             |.               |                                      length: 5 0xe00-0xe00.7 (1)
  0x0000e0|   30 03 01 01 ff                              | 0....          |                                      value: raw bits 0xe01-0xe05.7 (5)
          |                                               |                |                                [1]{}: object 0xe06-0xe15.7 (16)
  0x0000e0|                  30                           |      0         |                                  class: "universal" (0) 0xe06-0xe06.1 (0.2)
  0x0000e0|                  30                           |      0         |                                  form: "constructed" (1) 0xe06.2-0xe06.2 (0.1)
  0x0000e0|                  30                           |      0         |                                  tag: "sequence" (0x10) 0xe06.3-0xe06.7 (0.5)
  0x0000e0|                     0e                        |       .        |                                  length: 14 0xe07-0xe07.7 (1)
          |                                               |                |                                  constructed[0:3]: 0xe08-0xe15.7 (14)
          |                                               |                |                                    [0]{}: object 0xe08-0xe0c.7 (5)
  0x0000e0|                        06                     |        .       |                                      class: "universal" (0) 0xe08-0xe08.1 (0.2)
  0x0000e0|                        06                     |        .       |                                      form: "primitive" (0) 0xe08.2-0xe08.2 (0.1)
  0x0000e0|                        06                     |        .       |                                      tag: "object_identifier" (0x6) 0xe08.3-0xe08.7 (0.5)
  0x0000e0|                           03                  |         .      |                                      length: 3 0xe09-0xe09.7 (1)
          |                                               |                |                                      value[0:4]: 0xe0a-0xe0c.7 (3)
  0x0000e0|                              55               |          U     |                                        [0]: 2 oid 0xe0a-0xe0a.7 (1)
  0x0000e0|                              55               |          U     |                                        [1]: 5 oid 0xe0a-0xe0a.7 (1)
  0x0000e0|                                 1d            |           .    |                                        [2]: 29 oid 0xe0b-0xe0b.7 (1)
  0x0000e0|                                    0f         |            .   |                                        [3]: 15 oid 0xe0c-0xe0c.7 (1)
          |                                               |                |                                    [1]{}: object 0xe0d-0xe0f.7 (3)
  0x0000e0|                                       01      |             .  |                                      class: "universal" (0) 0xe0d-0xe0d.1 (0.2)
  0x0000e0|                                       01      |             .  |                                      form: "primitive" (0) 0xe0d.2-0xe0d.2 (0.1)
  0x0000e0|                                       01      |             .  |                                      tag: "boolean" (0x1) 0xe0d.3-0xe0d.7 (0.5)
  0x0000e0|                                          01   |              . |                                      length: 1 0xe0e-0xe0e.7 (1)
  0x0000e0|                                             ff|               .|                                      value: true (255) 0xe0f-0xe0f.7 (1)
          |                                               |                |                                    [2]{}: object 0xe10-0xe15.7 (6)
  0x0000e1|04                                             |.               |                                      class: "universal" (0) 0xe10-0xe10.1 (0.2)
  0x0000e1|04                                             |.               |                                      form: "primitive" (0) 0xe10.2-0xe10.2 (0.1)
  0x0000e1|04                                             |.               |                                      tag: "octet_string" (0x4) 0xe10.3-0xe10.7 (0.5)
  0x0000e1|   04                                          | .              |                                      length: 4 0xe11-0xe11.7 (1)
  0x0000e1|      03 02 01 06                              |  ....          |                                      value: raw bits 0xe12-0xe15.7 (4)
          |                                               |                |                                [2]{}: object 0xe16-0xe62.7 (77)
  0x0000e1|                  30                           |      0         |                                  class: "universal" (0) 0xe16-0xe16.1 (0.2)
  0x0000e1|                  30                           |      0         |                                  form: "constructed" (1) 0xe16.2-0xe16.2 (0.1)
  0x0000e1|                  30                           |      0         |                                  tag: "sequence" (0x10) 0xe16.3-0xe16.7 (0.5)
  0x0000e1|                     4b                        |       K        |                                  length: 75 0xe17-0xe17.7 (1)
          |                                               |                |                                  constructed[0:2]: 0xe18-0xe62.7 (75)
          |                                               |                |                                    [0]{}: object 0xe18-0xe21.7 (10)
  0x0000e1|                        06                     |        .       |                                      class: "universal" (0) 0xe18-0xe18.1 (0.2)
  0x0000e1|                        06                     |        .       |                                      form: "primitive" (0) 0xe18.2-0xe18.2 (0.1)
  0x0000e1|                        06                     |        .       |                                      tag: "object_identifier" (0x6) 0xe18.3-0xe18.7 (0.5)
  0x0000e1|                           08                  |         .      |                                      length: 8 0xe19-0xe19.7 (1)
          |                                               |                |                                      value[0:9]: 0xe1a-0xe21.7 (8)
  0x0000e1|                              2b               |          +     |                                        [0]: 1 oid 0xe1a-0xe1a.7 (1)
  0x0000e1|                              2b               |          +     |                                        [1]: 3 oid 0xe1a-0xe1a.7 (1)
  0x0000e1|                                 06            |           .    |                                        [2]: 6 oid 0xe1b-0xe1b.7 (1)
  0x0000e1|                                    01         |            .   |                                        [3]: 1 oid 0xe1c-0xe1c.7 (1)
  0x0000e1|                                       05      |             .  |                                        [4]: 5 oid 0xe1d-0xe1d.7 (1)
  0x0000e1|                                          05   |              . |                                        [5]: 5 oid 0xe1e-0xe1e.7 (1)
  0x0000e1|                                             07|               .|                                        [6]: 7 oid 0xe1f-0xe1f.7 (1)
  0x0000e2|01                                             |.               |                                        [7]: 1 oid 0xe20-0xe20.7 (1)
  0x0000e2|   01                                          | .              |                                        [8]: 1 oid 0xe21-0xe21.7 (1)
          |                                               |                |                                    [1]{}: object 0xe22-0xe62.7 (65)
  0x0000e2|      04                                       |  .             |                                      class: "universal" (0) 0xe22-0xe22.1 (0.2)
  0x0000e2|      04                                       |  .             |                                      form: "primitive" (0) 0xe22.2-0xe22.2 (0.1)
  0x0000e2|      04                                       |  .             |                                      tag: "octet_string" (0x4) 0xe22.3-0xe22.7 (0.5)
  0x0000e2|         3f                                    |   ?            |                                      length: 63 0xe23-0xe23.7 (1)
  0x0000e2|            30 3d 30 3b 06 08 2b 06 01 05 05 07|    0=0;..+.....|                                      value: raw bits 0xe24-0xe62.7 (63)
  0x0000e3|30 02 86 2f 68 74 74 70 3a 2f 2f 61 70 70 73 2e|0../http://apps.|
  *       |until 0xe62.7 (63)                             |                |
          |                                               |                |                                [3]{}: object 0xe63-0xe83.7 (33)
  0x0000e6|         30                                    |   0            |                                  class: "universal" (0) 0xe63-0xe63.1 (0.2)
  0x0000e6|         30                                    |   0            |                                  form: "constructed" (1) 0xe63.2-0xe63.2 (0.1)
  0x0000e6|         30                                    |   0            |                                  tag: "sequence" (0x10) 0xe63.3-0xe63.7 (0.5)
  0x0000e6|            1f                                 |    .           |                                  length: 31 0xe64-0xe64.7 (1)
          |                                               |                |                                  constructed[0:2]: 0xe65-0xe83.7 (31)
          |                                               |                |                                    [0]{}: object 0xe65-0xe69.7 (5)
  0x0000e6|               06                              |     .          |                                      class: "universal" (0) 0xe65-0xe65.1 (0.2)
  0x0000e6|               06                              |     .          |                                      form: "primitive" (0) 0xe65.2-0xe65.2 (0.1)
  0x0000e6|               06                              |     .          |                                      tag: "object_identifier" (0x6) 0xe65.3-0xe65.7 (0.5)
  0x0000e6|                  03                           |      .         |                                      length: 3 0xe66-0xe66.7 (1)
          |                                               |                |                                      value[0:4]: 0xe67-0xe69.7 (3)
  0x0000e6|                     55                        |       U        |                                        [0]: 2 oid 0xe67-0xe67.7 (1)
  0x0000e6|                     55                        |       U        |                                        [1]: 5 oid 0xe67-0xe67.7 (1)
  0x0000e6|                        1d                     |        .       |                                        [2]: 29 oid 0xe68-0xe68.7 (1)
  0x0000e6|                           23                  |         #      |                                        [3]: 35 oid 0xe69-0xe69.7 (1)
          |                                               |                |                                    [1]{}: object 0xe6a-0xe83.7 (26)
  0x0000e6|                              04               |          .     |                                      class: "universal" (0) 0xe6a-0xe6a.1 (0.2)
  0x0000e6|                              04               |          .     |                                      form: "primitive" (0) 0xe6a.2-0xe6a.2 (0.1)
  0x0000e6|                              04               |          .     |                                      tag: "octet_string" (0x4) 0xe6a.3-0xe6a.7 (0.5)
  0x0000e6|                                 18            |           .    |                                      length: 24 0xe6b-0xe6b.7 (1)
  0x0000e6|                                    30 16 80 14|            0...|                                      value: raw bits 0xe6c-0xe83.7 (24)
  0x0000e7|c4 a7 b1 a4 7b 2c 71 fa db e1 4b 90 75 ff c4 15|....{,q...K.u...|
  0x0000e8|60 85 89 10                                    |`...            |
          |                                               |                |                                [4]{}: object 0xe84-0xed9.7 (86)
  0x0000e8|            30                                 |    0           |                                  class: "universal" (0) 0xe84-0xe84.1 (0.2)
  0x0000e8|            30                                 |    0           |                                  form: "constructed" (1) 0xe84.2-0xe84.2 (0.1)
  0x0000e8|            30                                 |    0           |                                  tag: "sequence" (0x10) 0xe84.3-0xe84.7 (0.5)
  0x0000e8|               54                              |     T          |                                  length: 84 0xe85-0xe85.7 (1)
          |                                               |                |                                  constructed[0:2]: 0xe86-0xed9.7 (84)
          |                                               |                |                                    [0]{}: object 0xe86-0xe8a.7 (5)
  0x0000e8|                  06                           |      .         |                                      class: "universal" (0) 0xe86-0xe86.1 (0.2)
  0x0000e8|                  06                           |      .         |                                      form: "primitive" (0) 0xe86.2-0xe86.2 (0.1)
  0x0000e8|                  06                           |      .         |                                      tag: "object_identifier" (0x6) 0xe86.3-0xe86.7 (0.5)
  0x0000e8|                     03                        |       .        |                                      length: 3 0xe87-0xe87.7 (1)
          |                                               |                |                                      value[0:4]: 0xe88-0xe8a.7 (3)
  0x0000e8|                        55                     |        U       |                                        [0]: 2 oid 0xe88-0xe88.7 (1)
  0x0000e8|                        55                     |        U       |                                        [1]: 5 oid 0xe88-0xe88.7 (1)
  0x0000e8|                           1d                  |         .      |                                        [2]: 29 oid 0xe89-0xe89.7 (1)
  0x0000e8|                              20               |                |                                        [3]: 32 oid 0xe8a-0xe8a.7 (1)
          |                                               |                |                                    [1]{}: object 0xe8b-0xed9.7 (79)
  0x0000e8|                                 04            |           .    |                                      class: "universal" (0) 0xe8b-0xe8b.1 (0.2)
  0x0000e8|                                 04            |           .    |                                      form: "primitive" (0) 0xe8b.2-0xe8b.2 (0.1)
  0x0000e8|                                 04            |           .    |                                      tag: "octet_string" (0x4) 0xe8b.3-0xe8b.7 (0.5)
  0x0000e8|                                    4d         |            M   |                                      length: 77 0xe8c-0xe8c.7 (1)
  0x0000e8|                                       30 4b 30|             0K0|                                      value: raw bits 0xe8d-0xed9.7 (77)
  0x0000e9|08 06 06 67 81 0c 01 02 01 30 3f 06 0b 2b 06 01|...g.....0?..+..|
  *       |until 0xed9.7 (77)                             |                |
          |                                               |                |                                [5]{}: object 0xeda-0xf17.7 (62)
  0x0000ed|                              30               |          0     |                                  class: "universal" (0) 0xeda-0xeda.1 (0.2)
  0x0000ed|                              30               |          0     |                                  form: "constructed" (1) 0xeda.2-0xeda.2 (0.1)
  0x0000ed|                              30               |          0     |                                  tag: "sequence" (0x10) 0xeda.3-0xeda.7 (0.5)
  0x0000ed|                                 3c            |           <    |                                  length: 60 0xedb-0xedb.7 (1)
          |                                               |                |                                  constructed[0:2]: 0xedc-0xf17.7 (60)
          |                                               |                |                                    [0]{}: object 0xedc-0xee0.7 (5)
  0x0000ed|                                    06         |            .   |                                      class: "universal" (0) 0xedc-0xedc.1 (0.2)
  0x0000ed|                                    06         |            .   |                                      form: "primitive" (0) 0xedc.2-0xedc.2 (0.1)
  0x0000ed|                                    06         |            .   |                                      tag: "object_identifier" (0x6) 0xedc.3-0xedc.7 (0.5)
  0x0000ed|                                       03      |             .  |                                      length: 3 0xedd-0xedd.7 (1)
          |                                               |                |                                      value[0:4]: 0xede-0xee0.7 (3)
  0x0000ed|                                          55   |              U |                                        [0]: 2 oid 0xede-0xede.7 (1)
  0x0000ed|                                          55   |              U |                                        [1]: 5 oid 0xede-0xede.7 (1)
  0x0000ed|                                             1d|               .|                                        [2]: 29 oid 0xedf-0xedf.7 (1)
  0x0000ee|1f                                             |.               |                                        [3]: 31 oid 0xee0-0xee0.7 (1)
          |                                               |                |                                    [1]{}: object 0xee1-0xf17.7 (55)
  0x0000ee|   04                                          | .              |                                      class: "universal" (0) 0xee1-0xee1.1 (0.2)
  0x0000ee|   04                                          | .              |                                      form: "primitive" (0) 0xee1.2-0xee1.2 (0.1)
  0x0000ee|   04                                          | .              |                                      tag: "octet_string" (0x4) 0xee1.3-0xee1.7 (0.5)
  0x0000ee|      35                                       |  5             |                                      length: 53 0xee2-0xee2.7 (1)
  0x0000ee|         30 33 30 31 a0 2f a0 2d 86 2b 68 74 74|   0301./.-.+htt|                                      value: raw bits 0xee3-0xf17.7 (53)
  0x0000ef|70 3a 2f 2f 63 72 6c 2e 69 64 65 6e 74 72 75 73|p://crl.identrus|
  *       |until 0xf17.7 (53)                             |                |
          |                                               |                |                                [6]{}: object 0xf18-0xf36.7 (31)
  0x0000f1|                        30                     |        0       |                                  class: "universal" (0) 0xf18-0xf18.1 (0.2)
  0x0000f1|                        30                     |        0       |                                  form: "constructed" (1) 0xf18.2-0xf18.2 (0.1)
  0x0000f1|                        30                     |        0       |                                  tag: "sequence" (0x10) 0xf18.3-0xf18.7 (0.5)
  0x0000f1|                           1d                  |         .      |                                  length: 29 0xf19-0xf19.7 (1)
          |                                               |                |                                  constructed[0:2]: 0xf1a-0xf36.7 (29)
          |                                               |                |                                    [0]{}: object 0xf1a-0xf1e.7 (5)
  0x0000f1|                              06               |          .     |                                      class: "universal" (0) 0xf1a-0xf1a.1 (0.2)
  0x0000f1|                              06               |          .     |                                      form: "primitive" (0) 0xf1a.2-0xf1a.2 (0.1)
  0x0000f1|                              06               |          .     |                                      tag: "object_identifier" (0x6) 0xf1a.3-0xf1a.7 (0.5)
  0x0000f1|                                 03            |           .    |                                      length: 3 0xf1b-0xf1b.7 (1)
          |                                               |                |                                      value[0:4]: 0xf1c-0xf1e.7 (3)
  0x0000f1|                                    55         |            U   |                                        [0]: 2 oid 0xf1c-0xf1c.7 (1)
  0x0000f1|                                    55         |            U   |                                        [1]: 5 oid 0xf1c-0xf1c.7 (1)
  0x0000f1|                                       1d      |             .  |                                        [2]: 29 oid 0xf1d-0xf1d.7 (1)
  0x0000f1|                                          0e   |              . |                                        [3]: 14 oid 0xf1e-0xf1e.7 (1)
          |                                               |                |                                    [1]{}: object 0xf1f-0xf36.7 (24)
  0x0000f1|                                             04|               .|                                      class: "universal" (0) 0xf1f-0xf1f.1 (0.2)
  0x0000f1|                                             04|               .|                                      form: "primitive" (0) 0xf1f.2-0xf1f.2 (0.1)
  0x0000f1|                                             04|               .|                                      tag: "octet_string" (0x4) 0xf1f.3-0xf1f.7 (0.5)
  0x0000f2|16                                             |.               |                                      length: 22 0xf20-0xf20.7 (1)
  0x0000f2|   04 14 79 b4 59 e6 7b b6 e5 e4 01 73 80 08 88| ..y.Y.{....s...|                                      value: raw bits 0xf21-0xf36.7 (22)
  0x0000f3|c8 1a 58 f6 e9 9b 6e                           |..X...n         |
          |                                               |                |                    [1]{}: object 0xf37-0xf45.7 (15)
  0x0000f3|                     30                        |       0        |                      class: "universal" (0) 0xf37-0xf37.1 (0.2)
  0x0000f3|                     30                        |       0        |                      form: "constructed" (1) 0xf37.2-0xf37.2 (0.1)
  0x0000f3|                     30                        |       0        |                      tag: "sequence" (0x10) 0xf37.3-0xf37.7 (0.5)
  0x0000f3|                        0d                     |        .       |                      length: 13 0xf38-0xf38.7 (1)
          |                                               |                |                      constructed[0:2]: 0xf39-0xf45.7 (13)
          |                                               |                |                        [0]{}: object 0xf39-0xf43.7 (11)
  0x0000f3|                           06                  |         .      |                          class: "universal" (0) 0xf39-0xf39.1 (0.2)
  0x0000f3|                           06                  |         .      |                          form: "primitive" (0) 0xf39.2-0xf39.2 (0.1)
  0x0000f3|                           06                  |         .      |                          tag: "object_identifier" (0x6) 0xf39.3-0xf39.7 (0.5)
  0x0000f3|                              09               |          .     |                          length: 9 0xf3a-0xf3a.7 (1)
          |                                               |                |                          value[0:7]: 0xf3b-0xf43.7 (9)
  0x0000f3|                                 2a            |           *    |                            [0]: 1 oid 0xf3b-0xf3b.7 (1)
  0x0000f3|                                 2a            |           *    |                            [1]: 2 oid 0xf3b-0xf3b.7 (1)
  0x0000f3|                                    86 48      |            .H  |                            [2]: 840 oid 0xf3c-0xf3d.7 (2)
  0x0000f3|                                          86 f7|              ..|                            [3]: 113549 oid 0xf3e-0xf40.7 (3)
  0x0000f4|0d                                             |.               |
  0x0000f4|   01                                          | .              |                            [4]: 1 oid 0xf41-0xf41.7 (1)
  0x0000f4|      01                                       |  .             |                            [5]: 1 oid 0xf42-0xf42.7 (1)
  0x0000f4|         0b                                    |   .            |                            [6]: 11 oid 0xf43-0xf43.7 (1)
          |                                               |                |                        [1]{}: object 0xf44-0xf45.7 (2)
  0x0000f4|            05                                 |    .           |                          class: "universal" (0) 0xf44-0xf44.1 (0.2)
  0x0000f4|            05                                 |    .           |                          form: "primitive" (0) 0xf44.2-0xf44.2 (0.1)
  0x0000f4|            05                                 |    .           |                          tag: "null" (0x5) 0xf44.3-0xf44.7 (0.5)
  0x0000f4|               00                              |     .          |                          length: "indefinite" (0) 0xf45-0xf45.7 (1)
          |                                               |                |                          value: null
          |                                               |                |                    [2]{}: object 0xf46-0x104a.7 (261)
  0x0000f4|                  03                           |      .         |                      class: "universal" (0) 0xf46-0xf46.1 (0.2)
  0x0000f4|                  03                           |      .         |                      form: "primitive" (0) 0xf46.2-0xf46.2 (0.1)
  0x0000f4|                  03                           |      .         |                      tag: "bit_string" (0x3) 0xf46.3-0xf46.7 (0.5)
  0x0000f4|                     82 01 01                  |       ...      |                      length: 257 0xf47-0xf49.7 (3)
  0x0000f4|                              00               |          .     |                      unused_bits_count: 0 0xf4a-0xf4a.7 (1)
  0x0000f4|                                 0a 73 00 6c 96|           .s.l.|                      value: raw bits 0xf4b-0x104a.7 (256)
  0x0000f5|6e ff 0e 52 d0 ae dd 8c e7 5a 06 ad 2f a8 e3 8f|n..R.....Z../...|
  *       |until 0x104a.7 (256)                           |                |
          |                                               |                |        [2]{}: record 0x104b-0x117b.7 (305)
  0x000104|                                 16            |           .    |          type: "handshake" (22) (valid) 0x104b-0x104b.7 (1)
  0x000104|                                    03 03      |            ..  |          version: "tls1.2" (0x303) (valid) 0x104c-0x104d.7 (2)
  0x000104|                                          01 2c|              .,|          length: 300 0x104e-0x104f.7 (2)
          |                                               |                |          message{}: 0x1050-0x117b.7 (300)
  0x000105|0c                                             |.               |            type: "server_key_exchange" (12) 0x1050-0x1050.7 (1)
  0x000105|   00 01 28                                    | ..(            |            length: 296 0x1051-0x1053.7 (3)
          |                                               |                |            curve_params{}: 0x1054-NA (0)
  0x000105|            03                                 |    .           |              curve_type: 3 0x1054-0x1054.7 (1)
  0x000105|               00 1d                           |     ..         |              named_curve: 29 0x1055-0x1056.7 (2)
          |                                               |                |            public{}: 0x1057-NA (0)
  0x000105|                     20                        |                |              length: 32 0x1057-0x1057.7 (1)
  0x000105|                        6d a0 4a 00 d6 d8 b4 3c|        m.J....<|              data: raw bits 0x1058-0x1077.7 (32)
  0x000106|df 78 01 3c 5c 2c 1e 31 11 cf f7 35 c2 f6 7e f7|.x.<\,.1...5..~.|
  0x000107|e5 1e 49 fd 93 24 46 4f                        |..I..$FO        |
          |                                               |                |            signature_algorithm{}: 0x1078-NA (0)
  0x000107|                        08                     |        .       |              hash: "intrinsic" (8) 0x1078-0x1078.7 (1)
  0x000107|                           04                  |         .      |              signature: 4 0x1079-0x1079.7 (1)
  0x000107|                              01 00            |          ..    |              length: 256 0x107a-0x107b.7 (2)
  0x000107|                                    b3 c2 9f 84|            ....|              data: raw bits 0x107c-0x117b.7 (256)
  0x000108|0e 8f 07 f3 bd ab 85 fb 6d 14 e6 f1 81 57 a3 91|........m....W..|
  *       |until 0x117b.7 (256)                           |                |
          |                                               |                |        [3]{}: record 0x117c-0x1184.7 (9)
  0x000117|                                    16         |            .   |          type: "handshake" (22) (valid) 0x117c-0x117c.7 (1)
  0x000117|                                       03 03   |             .. |          version: "tls1.2" (0x303) (valid) 0x117d-0x117e.7 (2)
  0x000117|                                             00|               .|          length: 4 0x117f-0x1180.7 (2)
  0x000118|04                                             |.               |
          |                                               |                |          message{}: 0x1181-0x1184.7 (4)
  0x000118|   0e                                          | .              |            type: "server_hello_done" (14) 0x1181-0x1181.7 (1)
  0x000118|      00 00 00                                 |  ...           |            length: 0 0x1182-0x1184.7 (3)
          |                                               |                |            data: raw bits 0x1185-NA (0)
          |                                               |                |        [4]{}: record 0x1185-0x118a.7 (6)
  0x000118|               14                              |     .          |          type: "change_cipher_spec" (20) (valid) 0x1185-0x1185.7 (1)
  0x000118|                  03 03                        |      ..        |          version: "tls1.2" (0x303) (valid) 0x1186-0x1187.7 (2)
  0x000118|                        00 01                  |        ..      |          length: 1 0x1188-0x1189.7 (2)
          |                                               |                |          message{}: 0x118a-0x118a.7 (1)
  0x000118|                              01               |          .     |            type: 1 0x118a-0x118a.7 (1)
          |                                               |                |        [5]{}: record 0x118b-0x11b7.7 (45)
  0x000118|                                 16            |           .    |          type: "handshake" (22) (valid) 0x118b-0x118b.7 (1)
  0x000118|                                    03 03      |            ..  |          version: "tls1.2" (0x303) (valid) 0x118c-0x118d.7 (2)
  0x000118|                                          00 28|              .(|          length: 40 0x118e-0x118f.7 (2)
  0x000119|66 71 e7 de 79 d8 25 25 8a 75 a7 5e 7f 71 d3 69|fq..y.%%.u.^.q.i|          encrypted_data: raw bits 0x1190-0x11b7.7 (40)
  *       |until 0x11b7.7 (40)                            |                |
          |00 01 02 03 04 05 06 07 08 09 0a 0b 0c 0d 0e 0f|0123456789abcdef|          message{}: 0x0-0xf.7 (16)
    0x0000|14                                             |.               |            type: "finished" (20) 0x0-0x0.7 (1)
    0x0000|   00 00 0c                                    | ...            |            length: 12 0x1-0x3.7 (3)
    0x0000|            d4 84 25 b1 72 47 e6 30 b1 87 f4 9b|    ..%.rG.0....|            verify_data: raw bits 0x4-0xf.7 (12)
          |                                               |                |        [6]{}: record 0x11b8-0x51d4.7 (16413)
  0x00011b|                        17                     |        .       |          type: "application_data" (23) (valid) 0x11b8-0x11b8.7 (1)
  0x00011b|                           03 03               |         ..     |          version: "tls1.2" (0x303) (valid) 0x11b9-0x11ba.7 (2)
  0x00011b|                                 40 18         |           @.   |          length: 16408 0x11bb-0x11bc.7 (2)
  0x00011b|                                       66 71 e7|             fq.|          encrypted_data: raw bits 0x11bd-0x51d4.7 (16408)
  0x00011c|de 79 d8 25 26 34 b2 d6 63 07 8b 12 69 c1 33 66|.y.%&4..c...i.3f|
  *       |until 0x51d4.7 (16408)                         |                |
          |00 01 02 03 04 05 06 07 08 09 0a 0b 0c 0d 0e 0f|0123456789abcdef|
    0x0000|48 54 54 50 2f 31 2e 31 20 32 30 30 20 4f 4b 0d|HTTP/1.1 200 OK.|          message: raw bits 0x0-0x3fff.7 (16384)
    *     |until 0x3fff.7 (end) (16384)                   |                |
          |                                               |                |        [7]{}: record 0x51d5-0x5d33.7 (2911)
  0x00051d|               17                              |     .          |          type: "application_data" (23) (valid) 0x51d5-0x51d5.7 (1)
  0x00051d|                  03 03                        |      ..        |          version: "tls1.2" (0x303) (valid) 0x51d6-0x51d7.7 (2)
  0x00051d|                        0b 5a                  |        .Z      |          length: 2906 0x51d8-0x51d9.7 (2)
  0x00051d|                              66 71 e7 de 79 d8|          fq..y.|          encrypted_data: raw bits 0x51da-0x5d33.7 (2906)
  0x00051e|25 27 3e d4 b7 34 84 6b aa da d0 d7 73 eb fe 1a|%'>..4.k....s...|
  *       |until 0x5d33.7 (end) (2906)                    |                |
          |00 01 02 03 04 05 06 07 08 09 0a 0b 0c 0d 0e 0f|0123456789abcdef|
    0x0000|6e 20 6a 75 73 74 20 77 65 62 73 69 74 65 73 2c|n just websites,|          message: raw bits 0x0-0xb41.7 (2882)
    *     |until 0xb41.7 (end) (2882)                     |                |
          |00 01 02 03 04 05 06 07 08 09 0a 0b 0c 0d 0e 0f|0123456789abcdef|
    0x0000|48 54 54 50 2f 31 2e 31 20 32 30 30 20 4f 4b 0d|HTTP/1.1 200 OK.|      stream: raw bits 0x0-0x4b41.7 (19266)
    *     |until 0x4b41.7 (end) (19266)                   |                |
