$ fq -o keylog=@testtls.com.http1.1-tls1.2.pcap.keylog '.tcp_connections[0] | dv' testtls.com.http1.1-tls1.2.pcap
          |00 01 02 03 04 05 06 07 08 09 0a 0b 0c 0d 0e 0f|0123456789abcdef|.tcp_connections[0]{}: tcp_connection 0x6e4d-0x6e4d (0)
          |                                               |                |  client{}: 0x6e4d-0x6e4d (0)
          |                                               |                |    ip: "192.168.1.230"
          |                                               |                |    port: 61925
          |                                               |                |    has_start: true
          |                                               |                |    has_end: true
          |                                               |                |    skipped_bytes: 0
          |00 01 02 03 04 05 06 07 08 09 0a 0b 0c 0d 0e 0f|0123456789abcdef|    stream{}: (tls) 0x0-0x1c5 (453)
          |                                               |                |      records[0:6]: 0x0-0x1c5 (453)
          |                                               |                |        [0]{}: record 0x0-0xe1 (225)
  0x000000|16                                             |.               |          type: "handshake" (22) (valid) 0x0-0x1 (1)
  0x000000|   03 01                                       | ..             |          version: "tls1.0" (0x301) (valid) 0x1-0x3 (2)
  0x000000|         00 dc                                 |   ..           |          length: 220 0x3-0x5 (2)
          |                                               |                |          message{}: 0x5-0xe1 (220)
  0x000000|               01                              |     .          |            type: "client_hello" (1) 0x5-0x6 (1)
  0x000000|                  00 00 d8                     |      ...       |            length: 216 0x6-0x9 (3)
  0x000000|                           03 03               |         ..     |            version: "tls1.2" (0x303) 0x9-0xb (2)
          |                                               |                |            random{}: 0xb-0x2b (32)
  0x000000|                                 0a e9 3f 8b   |           ..?. |              gmt_unix_time: 183058315 (1975-10-20T17:31:55Z) 0xb-0xf (4)
  0x000000|                                             ef|               .|              random_bytes: raw bits 0xf-0x2b (28)
  0x000001|ae 62 f4 75 36 31 f2 14 4f 93 43 21 91 39 8f 83|.b.u61..O.C!.9..|
  0x000002|fe 9c 2b df c3 64 7d f3 da 80 37               |..+..d}...7     |
  0x000002|                                 00            |           .    |            session_id_length: 0 0x2b-0x2c (1)
          |                                               |                |            session_id: raw bits 0x2c-0x2c (0)
  0x000002|                                    00 38      |            .8  |            cipher_suits_length: 56 0x2c-0x2e (2)
          |                                               |                |            cipher_suits[0:28]: 0x2e-0x66 (56)
  0x000002|                                          c0 2c|              .,|              [0]: "TLS_ECDHE_ECDSA_WITH_AES_256_GCM_SHA384" (0xc02c) cipher_suit 0x2e-0x30 (2)
  0x000003|c0 30                                          |.0              |              [1]: "TLS_ECDHE_RSA_WITH_AES_256_GCM_SHA384" (0xc030) cipher_suit 0x30-0x32 (2)
  0x000003|      00 9f                                    |  ..            |              [2]: "TLS_DHE_RSA_WITH_AES_256_GCM_SHA384" (0x9f) cipher_suit 0x32-0x34 (2)
  0x000003|            cc a9                              |    ..          |              [3]: "TLS_ECDHE_ECDSA_WITH_CHACHA20_POLY1305_SHA256" (0xcca9) cipher_suit 0x34-0x36 (2)
  0x000003|                  cc a8                        |      ..        |              [4]: "TLS_ECDHE_RSA_WITH_CHACHA20_POLY1305_SHA256" (0xcca8) cipher_suit 0x36-0x38 (2)
  0x000003|                        cc aa                  |        ..      |              [5]: "TLS_DHE_RSA_WITH_CHACHA20_POLY1305_SHA256" (0xccaa) cipher_suit 0x38-0x3a (2)
  0x000003|                              c0 2b            |          .+    |              [6]: "TLS_ECDHE_ECDSA_WITH_AES_128_GCM_SHA256" (0xc02b) cipher_suit 0x3a-0x3c (2)
  0x000003|                                    c0 2f      |            ./  |              [7]: "TLS_ECDHE_RSA_WITH_AES_128_GCM_SHA256" (0xc02f) cipher_suit 0x3c-0x3e (2)
  0x000003|                                          00 9e|              ..|              [8]: "TLS_DHE_RSA_WITH_AES_128_GCM_SHA256" (0x9e) cipher_suit 0x3e-0x40 (2)
  0x000004|c0 24                                          |.$              |              [9]: "TLS_ECDHE_ECDSA_WITH_AES_256_CBC_SHA384" (0xc024) cipher_suit 0x40-0x42 (2)
  0x000004|      c0 28                                    |  .(            |              [10]: "TLS_ECDHE_RSA_WITH_AES_256_CBC_SHA384" (0xc028) cipher_suit 0x42-0x44 (2)
  0x000004|            00 6b                              |    .k          |              [11]: "TLS_DHE_RSA_WITH_AES_256_CBC_SHA256" (0x6b) cipher_suit 0x44-0x46 (2)
  0x000004|                  c0 23                        |      .#        |              [12]: "TLS_ECDHE_ECDSA_WITH_AES_128_CBC_SHA256" (0xc023) cipher_suit 0x46-0x48 (2)
  0x000004|                        c0 27                  |        .'      |              [13]: "TLS_ECDHE_RSA_WITH_AES_128_CBC_SHA256" (0xc027) cipher_suit 0x48-0x4a (2)
  0x000004|                              00 67            |          .g    |              [14]: "TLS_DHE_RSA_WITH_AES_128_CBC_SHA256" (0x67) cipher_suit 0x4a-0x4c (2)
  0x000004|                                    c0 0a      |            ..  |              [15]: "TLS_ECDHE_ECDSA_WITH_AES_256_CBC_SHA" (0xc00a) cipher_suit 0x4c-0x4e (2)
  0x000004|                                          c0 14|              ..|              [16]: "TLS_ECDHE_RSA_WITH_AES_256_CBC_SHA" (0xc014) cipher_suit 0x4e-0x50 (2)
  0x000005|00 39                                          |.9              |              [17]: "TLS_DHE_RSA_WITH_AES_256_CBC_SHA" (0x39) cipher_suit 0x50-0x52 (2)
  0x000005|      c0 09                                    |  ..            |              [18]: "TLS_ECDHE_ECDSA_WITH_AES_128_CBC_SHA" (0xc009) cipher_suit 0x52-0x54 (2)
  0x000005|            c0 13                              |    ..          |              [19]: "TLS_ECDHE_RSA_WITH_AES_128_CBC_SHA" (0xc013) cipher_suit 0x54-0x56 (2)
  0x000005|                  00 33                        |      .3        |              [20]: "TLS_DHE_RSA_WITH_AES_128_CBC_SHA" (0x33) cipher_suit 0x56-0x58 (2)
  0x000005|                        00 9d                  |        ..      |              [21]: "TLS_RSA_WITH_AES_256_GCM_SHA384" (0x9d) cipher_suit 0x58-0x5a (2)
  0x000005|                              00 9c            |          ..    |              [22]: "TLS_RSA_WITH_AES_128_GCM_SHA256" (0x9c) cipher_suit 0x5a-0x5c (2)
  0x000005|                                    00 3d      |            .=  |              [23]: "TLS_RSA_WITH_AES_256_CBC_SHA256" (0x3d) cipher_suit 0x5c-0x5e (2)
  0x000005|                                          00 3c|              .<|              [24]: "TLS_RSA_WITH_AES_128_CBC_SHA256" (0x3c) cipher_suit 0x5e-0x60 (2)
  0x000006|00 35                                          |.5              |              [25]: "TLS_RSA_WITH_AES_256_CBC_SHA" (0x35) cipher_suit 0x60-0x62 (2)
  0x000006|      00 2f                                    |  ./            |              [26]: "TLS_RSA_WITH_AES_128_CBC_SHA" (0x2f) cipher_suit 0x62-0x64 (2)
  0x000006|            00 ff                              |    ..          |              [27]: "TLS_EMPTY_RENEGOTIATION_INFO_SCSV" (0xff) cipher_suit 0x64-0x66 (2)
  0x000006|                  01                           |      .         |            compression_methods_length: 1 0x66-0x67 (1)
          |                                               |                |            compression_methods[0:1]: 0x67-0x68 (1)
  0x000006|                     00                        |       .        |              [0]: "null" (0x0) compression_method 0x67-0x68 (1)
  0x000006|                        00 77                  |        .w      |            extensions_length: 119 0x68-0x6a (2)
          |                                               |                |            extensions[0:7]: 0x6a-0xe1 (119)
          |                                               |                |              [0]{}: extension 0x6a-0x7e (20)
  0x000006|                              00 00            |          ..    |                type: "server_name" (0) 0x6a-0x6c (2)
  0x000006|                                    00 10      |            ..  |                length: 16 0x6c-0x6e (2)
  0x000006|                                          00 0e|              ..|                server_names_length: 14 0x6e-0x70 (2)
          |                                               |                |                server_names[0:1]: 0x70-0x7e (14)
          |                                               |                |                  [0]{}: server_name 0x70-0x7e (14)
  0x000007|00                                             |.               |                    type: 0 0x70-0x71 (1)
  0x000007|   00 0b                                       | ..             |                    length: 11 0x71-0x73 (2)
  0x000007|         74 65 73 74 74 6c 73 2e 63 6f 6d      |   testtls.com  |                    name: "testtls.com" 0x73-0x7e (11)
          |                                               |                |              [1]{}: extension 0x7e-0x86 (8)
  0x000007|                                          00 0b|              ..|                type: "ec_point_formats" (11) 0x7e-0x80 (2)
  0x000008|00 04                                          |..              |                length: 4 0x80-0x82 (2)
  0x000008|      03                                       |  .             |                ex_points_formats_length: 3 0x82-0x83 (1)
          |                                               |                |                ex_points_formats[0:3]: 0x83-0x86 (3)
  0x000008|         00                                    |   .            |                  [0]: 0x0 ex_points_format 0x83-0x84 (1)
  0x000008|            01                                 |    .           |                  [1]: 0x1 ex_points_format 0x84-0x85 (1)
  0x000008|               02                              |     .          |                  [2]: 0x2 ex_points_format 0x85-0x86 (1)
          |                                               |                |              [2]{}: extension 0x86-0x96 (16)
  0x000008|                  00 0a                        |      ..        |                type: "supported_groups" (10) 0x86-0x88 (2)
  0x000008|                        00 0c                  |        ..      |                length: 12 0x88-0x8a (2)
  0x000008|                              00 0a            |          ..    |                supported_groups_length: 10 0x8a-0x8c (2)
          |                                               |                |                supported_groups[0:5]: 0x8c-0x96 (10)
  0x000008|                                    00 1d      |            ..  |                  [0]: 0x1d supported_group 0x8c-0x8e (2)
  0x000008|                                          00 17|              ..|                  [1]: 0x17 supported_group 0x8e-0x90 (2)
  0x000009|00 1e                                          |..              |                  [2]: 0x1e supported_group 0x90-0x92 (2)
  0x000009|      00 19                                    |  ..            |                  [3]: 0x19 supported_group 0x92-0x94 (2)
  0x000009|            00 18                              |    ..          |                  [4]: 0x18 supported_group 0x94-0x96 (2)
          |                                               |                |              [3]{}: extension 0x96-0xa5 (15)
  0x000009|                  00 10                        |      ..        |                type: "application_layer_protocol_negotiation" (16) 0x96-0x98 (2)
  0x000009|                        00 0b                  |        ..      |                length: 11 0x98-0x9a (2)
  0x000009|                              00 09            |          ..    |                protocols_length: 9 0x9a-0x9c (2)
          |                                               |                |                protocols[0:1]: 0x9c-0xa5 (9)
          |                                               |                |                  [0]{}: protocol 0x9c-0xa5 (9)
  0x000009|                                    08         |            .   |                    length: 8 0x9c-0x9d (1)
  0x000009|                                       68 74 74|             htt|                    name: "http/1.1" 0x9d-0xa5 (8)
  0x00000a|70 2f 31 2e 31                                 |p/1.1           |
          |                                               |                |              [4]{}: extension 0xa5-0xa9 (4)
  0x00000a|               00 16                           |     ..         |                type: "encrypt_then_mac" (22) 0xa5-0xa7 (2)
  0x00000a|                     00 00                     |       ..       |                length: 0 0xa7-0xa9 (2)
          |                                               |                |              [5]{}: extension 0xa9-0xad (4)
  0x00000a|                           00 17               |         ..     |                type: "extended_master_secret" (23) 0xa9-0xab (2)
  0x00000a|                                 00 00         |           ..   |                length: 0 0xab-0xad (2)
          |                                               |                |              [6]{}: extension 0xad-0xe1 (52)
  0x00000a|                                       00 0d   |             .. |                type: "signature_algorithms" (13) 0xad-0xaf (2)
  0x00000a|                                             00|               .|                length: 48 0xaf-0xb1 (2)
  0x00000b|30                                             |0               |
  0x00000b|   00 2e                                       | ..             |                signature_algorithms_length: 46 0xb1-0xb3 (2)
          |                                               |                |                signature_algorithms[0:23]: 0xb3-0xe1 (46)
          |                                               |                |                  [0]{}: signature_algorithm 0xb3-0xb5 (2)
  0x00000b|         04                                    |   .            |                    hash: "sha256" (4) 0xb3-0xb4 (1)
  0x00000b|            03                                 |    .           |                    signature: "ecdsa" (3) 0xb4-0xb5 (1)
          |                                               |                |                  [1]{}: signature_algorithm 0xb5-0xb7 (2)
  0x00000b|               05                              |     .          |                    hash: "sha384" (5) 0xb5-0xb6 (1)
  0x00000b|                  03                           |      .         |                    signature: "ecdsa" (3) 0xb6-0xb7 (1)
          |                                               |                |                  [2]{}: signature_algorithm 0xb7-0xb9 (2)
  0x00000b|                     06                        |       .        |                    hash: "sha512" (6) 0xb7-0xb8 (1)
  0x00000b|                        03                     |        .       |                    signature: "ecdsa" (3) 0xb8-0xb9 (1)
          |                                               |                |                  [3]{}: signature_algorithm 0xb9-0xbb (2)
  0x00000b|                           08                  |         .      |                    hash: "intrinsic" (8) 0xb9-0xba (1)
  0x00000b|                              07               |          .     |                    signature: "ed25519" (7) 0xba-0xbb (1)
          |                                               |                |                  [4]{}: signature_algorithm 0xbb-0xbd (2)
  0x00000b|                                 08            |           .    |                    hash: "intrinsic" (8) 0xbb-0xbc (1)
  0x00000b|                                    08         |            .   |                    signature: "ed448" (8) 0xbc-0xbd (1)
          |                                               |                |                  [5]{}: signature_algorithm 0xbd-0xbf (2)
  0x00000b|                                       08      |             .  |                    hash: "intrinsic" (8) 0xbd-0xbe (1)
  0x00000b|                                          09   |              . |                    signature: 9 0xbe-0xbf (1)
          |                                               |                |                  [6]{}: signature_algorithm 0xbf-0xc1 (2)
  0x00000b|                                             08|               .|                    hash: "intrinsic" (8) 0xbf-0xc0 (1)
  0x00000c|0a                                             |.               |                    signature: 10 0xc0-0xc1 (1)
          |                                               |                |                  [7]{}: signature_algorithm 0xc1-0xc3 (2)
  0x00000c|   08                                          | .              |                    hash: "intrinsic" (8) 0xc1-0xc2 (1)
  0x00000c|      0b                                       |  .             |                    signature: 11 0xc2-0xc3 (1)
          |                                               |                |                  [8]{}: signature_algorithm 0xc3-0xc5 (2)
  0x00000c|         08                                    |   .            |                    hash: "intrinsic" (8) 0xc3-0xc4 (1)
  0x00000c|            04                                 |    .           |                    signature: 4 0xc4-0xc5 (1)
          |                                               |                |                  [9]{}: signature_algorithm 0xc5-0xc7 (2)
  0x00000c|               08                              |     .          |                    hash: "intrinsic" (8) 0xc5-0xc6 (1)
  0x00000c|                  05                           |      .         |                    signature: 5 0xc6-0xc7 (1)
          |                                               |                |                  [10]{}: signature_algorithm 0xc7-0xc9 (2)
  0x00000c|                     08                        |       .        |                    hash: "intrinsic" (8) 0xc7-0xc8 (1)
  0x00000c|                        06                     |        .       |                    signature: 6 0xc8-0xc9 (1)
          |                                               |                |                  [11]{}: signature_algorithm 0xc9-0xcb (2)
  0x00000c|                           04                  |         .      |                    hash: "sha256" (4) 0xc9-0xca (1)
  0x00000c|                              01               |          .     |                    signature: "rsa" (1) 0xca-0xcb (1)
          |                                               |                |                  [12]{}: signature_algorithm 0xcb-0xcd (2)
  0x00000c|                                 05            |           .    |                    hash: "sha384" (5) 0xcb-0xcc (1)
  0x00000c|                                    01         |            .   |                    signature: "rsa" (1) 0xcc-0xcd (1)
          |                                               |                |                  [13]{}: signature_algorithm 0xcd-0xcf (2)
  0x00000c|                                       06      |             .  |                    hash: "sha512" (6) 0xcd-0xce (1)
  0x00000c|                                          01   |              . |                    signature: "rsa" (1) 0xce-0xcf (1)
          |                                               |                |                  [14]{}: signature_algorithm 0xcf-0xd1 (2)
  0x00000c|                                             03|               .|                    hash: "sha224" (3) 0xcf-0xd0 (1)
  0x00000d|03                                             |.               |                    signature: "ecdsa" (3) 0xd0-0xd1 (1)
          |                                               |                |                  [15]{}: signature_algorithm 0xd1-0xd3 (2)
  0x00000d|   02                                          | .              |                    hash: "sha1" (2) 0xd1-0xd2 (1)
  0x00000d|      03                                       |  .             |                    signature: "ecdsa" (3) 0xd2-0xd3 (1)
          |                                               |                |                  [16]{}: signature_algorithm 0xd3-0xd5 (2)
  0x00000d|         03                                    |   .            |                    hash: "sha224" (3) 0xd3-0xd4 (1)
  0x00000d|            01                                 |    .           |                    signature: "rsa" (1) 0xd4-0xd5 (1)
          |                                               |                |                  [17]{}: signature_algorithm 0xd5-0xd7 (2)
  0x00000d|               02                              |     .          |                    hash: "sha1" (2) 0xd5-0xd6 (1)
  0x00000d|                  01                           |      .         |                    signature: "rsa" (1) 0xd6-0xd7 (1)
          |                                               |                |                  [18]{}: signature_algorithm 0xd7-0xd9 (2)
  0x00000d|                     03                        |       .        |                    hash: "sha224" (3) 0xd7-0xd8 (1)
  0x00000d|                        02                     |        .       |                    signature: "dsa" (2) 0xd8-0xd9 (1)
          |                                               |                |                  [19]{}: signature_algorithm 0xd9-0xdb (2)
  0x00000d|                           02                  |         .      |                    hash: "sha1" (2) 0xd9-0xda (1)
  0x00000d|                              02               |          .     |                    signature: "dsa" (2) 0xda-0xdb (1)
          |                                               |                |                  [20]{}: signature_algorithm 0xdb-0xdd (2)
  0x00000d|                                 04            |           .    |                    hash: "sha256" (4) 0xdb-0xdc (1)
  0x00000d|                                    02         |            .   |                    signature: "dsa" (2) 0xdc-0xdd (1)
          |                                               |                |                  [21]{}: signature_algorithm 0xdd-0xdf (2)
  0x00000d|                                       05      |             .  |                    hash: "sha384" (5) 0xdd-0xde (1)
  0x00000d|                                          02   |              . |                    signature: "dsa" (2) 0xde-0xdf (1)
          |                                               |                |                  [22]{}: signature_algorithm 0xdf-0xe1 (2)
  0x00000d|                                             06|               .|                    hash: "sha512" (6) 0xdf-0xe0 (1)
  0x00000e|02                                             |.               |                    signature: "dsa" (2) 0xe0-0xe1 (1)
          |                                               |                |        [1]{}: record 0xe1-0x10b (42)
  0x00000e|   16                                          | .              |          type: "handshake" (22) (valid) 0xe1-0xe2 (1)
  0x00000e|      03 03                                    |  ..            |          version: "tls1.2" (0x303) (valid) 0xe2-0xe4 (2)
  0x00000e|            00 25                              |    .%          |          length: 37 0xe4-0xe6 (2)
          |                                               |                |          message{}: 0xe6-0x10b (37)
  0x00000e|                  10                           |      .         |            type: "client_key_exchange" (16) 0xe6-0xe7 (1)
  0x00000e|                     00 00 21                  |       ..!      |            length: 33 0xe7-0xea (3)
          |                                               |                |            public{}: 0xea-0xea (0)
  0x00000e|                              20               |                |              length: 32 0xea-0xeb (1)
  0x00000e|                                 f6 88 a8 a3 c6|           .....|              data: raw bits 0xeb-0x10b (32)
  0x00000f|71 70 e2 75 cb 25 8e c8 f0 fb 14 57 31 2a c3 e5|qp.u.%.....W1*..|
  0x000010|5c 9e 0d a1 43 bc 23 8e 25 4a 17               |\...C.#.%J.     |
          |                                               |                |        [2]{}: record 0x10b-0x111 (6)
  0x000010|                                 14            |           .    |          type: "change_cipher_spec" (20) (valid) 0x10b-0x10c (1)
  0x000010|                                    03 03      |            ..  |          version: "tls1.2" (0x303) (valid) 0x10c-0x10e (2)
  0x000010|                                          00 01|              ..|          length: 1 0x10e-0x110 (2)
          |                                               |                |          message{}: 0x110-0x111 (1)
  0x000011|01                                             |.               |            type: 1 0x110-0x111 (1)
          |                                               |                |        [3]{}: record 0x111-0x13e (45)
  0x000011|   16                                          | .              |          type: "handshake" (22) (valid) 0x111-0x112 (1)
  0x000011|      03 03                                    |  ..            |          version: "tls1.2" (0x303) (valid) 0x112-0x114 (2)
  0x000011|            00 28                              |    .(          |          length: 40 0x114-0x116 (2)
  0x000011|                  ac 91 98 bd 48 6b 6e 3c d8 84|      ....Hkn<..|          encrypted_data: raw bits 0x116-0x13e (40)
  0x000012|6a e9 30 57 0c 87 68 82 17 58 bc c4 23 69 a8 68|j.0W..h..X..#i.h|
  0x000013|e5 d1 70 80 ff 08 6f 3f cf f6 b4 b3 51 d9      |..p...o?....Q.  |
          |00 01 02 03 04 05 06 07 08 09 0a 0b 0c 0d 0e 0f|0123456789abcdef|          message{}: 0x0-0x10 (16)
    0x0000|14                                             |.               |            type: "finished" (20) 0x0-0x1 (1)
    0x0000|   00 00 0c                                    | ...            |            length: 12 0x1-0x4 (3)
    0x0000|            b0 0b c8 f1 b1 48 23 1c eb 5c e8 82|    .....H#..\..|            verify_data: raw bits 0x4-0x10 (12)
          |                                               |                |        [4]{}: record 0x13e-0x1a6 (104)
  0x000013|                                          17   |              . |          type: "application_data" (23) (valid) 0x13e-0x13f (1)
  0x000013|                                             03|               .|          version: "tls1.2" (0x303) (valid) 0x13f-0x141 (2)
  0x000014|03                                             |.               |
  0x000014|   00 63                                       | .c             |          length: 99 0x141-0x143 (2)
  0x000014|         ac 91 98 bd 48 6b 6e 3d 76 cf c0 2e 0f|   ....Hkn=v....|          encrypted_data: raw bits 0x143-0x1a6 (99)
  0x000015|40 1c de f0 2d d4 23 49 ba 99 1b c4 ba 2e b1 84|@...-.#I........|
  *       |until 0x1a5.7 (99)                             |                |
          |00 01 02 03 04 05 06 07 08 09 0a 0b 0c 0d 0e 0f|0123456789abcdef|
    0x0000|47 45 54 20 2f 20 48 54 54 50 2f 31 2e 31 0d 0a|GET / HTTP/1.1..|          message: raw bits 0x0-0x4b (75)
    *     |until 0x4a.7 (end) (75)                        |                |
          |                                               |                |        [5]{}: record 0x1a6-0x1c5 (31)
  0x00001a|                  15                           |      .         |          type: "alert" (21) (valid) 0x1a6-0x1a7 (1)
  0x00001a|                     03 03                     |       ..       |          version: "tls1.2" (0x303) (valid) 0x1a7-0x1a9 (2)
  0x00001a|                           00 1a               |         ..     |          length: 26 0x1a9-0x1ab (2)
  0x00001a|                                 ac 91 98 bd 48|           ....H|          encrypted_data: raw bits 0x1ab-0x1c5 (26)
  0x00001b|6b 6e 3e 56 f4 62 cc e8 aa b6 c9 af 10 7b db aa|kn>V.b.......{..|
  0x00001c|9b aa 57 53 9a|                                |..WS.|          |
          |00 01 02 03 04 05 06 07 08 09 0a 0b 0c 0d 0e 0f|0123456789abcdef|          message{}: 0x0-0x2 (2)
    0x0000|01                                             |.               |            level: "warning" (1) 0x0-0x1 (1)
    0x0000|   00|                                         | .|             |            description: "close_notify" (0) 0x1-0x2 (1)
          |00 01 02 03 04 05 06 07 08 09 0a 0b 0c 0d 0e 0f|0123456789abcdef|
    0x0000|47 45 54 20 2f 20 48 54 54 50 2f 31 2e 31 0d 0a|GET / HTTP/1.1..|      stream: raw bits 0x0-0x4b (75)
    *     |until 0x4a.7 (end) (75)                        |                |
          |                                               |                |  server{}: 0x6e4d-0x6e4d (0)
          |                                               |                |    ip: "116.203.76.237"
          |                                               |                |    port: "https" (443) (http protocol over TLS/SSL) 0x6e4d-0x6e4d (0)
          |                                               |                |    has_start: true
          |                                               |                |    has_end: true
          |                                               |                |    skipped_bytes: 0
          |00 01 02 03 04 05 06 07 08 09 0a 0b 0c 0d 0e 0f|0123456789abcdef|    stream{}: (tls) 0x0-0x5d34 (23860)
          |                                               |                |      records[0:8]: 0x0-0x5d34 (23860)
          |                                               |                |        [0]{}: record 0x0-0x75 (117)
  0x000000|16                                             |.               |          type: "handshake" (22) (valid) 0x0-0x1 (1)
  0x000000|   03 03                                       | ..             |          version: "tls1.2" (0x303) (valid) 0x1-0x3 (2)
  0x000000|         00 70                                 |   .p           |          length: 112 0x3-0x5 (2)
          |                                               |                |          message{}: 0x5-0x75 (112)
  0x000000|               02                              |     .          |            type: "server_hello" (2) 0x5-0x6 (1)
  0x000000|                  00 00 6c                     |      ..l       |            length: 108 0x6-0x9 (3)
  0x000000|                           03 03               |         ..     |            version: "tls1.2" (0x303) 0x9-0xb (2)
          |                                               |                |            random{}: 0xb-0x2b (32)
  0x000000|                                 32 60 fa 11   |           2`.. |              gmt_unix_time: 845216273 (1996-10-13T14:17:53Z) 0xb-0xf (4)
  0x000000|                                             60|               `|              random_bytes: raw bits 0xf-0x2b (28)
  0x000001|5a 58 17 74 fc 44 27 78 48 33 37 b7 e1 51 dd 58|ZX.t.D'xH37..Q.X|
  0x000002|3c 7c 69 44 4f 57 4e 47 52 44 01               |<|iDOWNGRD.     |
  0x000002|                                 20            |                |            session_id_length: 32 0x2b-0x2c (1)
  0x000002|                                    98 88 f5 a7|            ....|            session_id: raw bits 0x2c-0x4c (32)
  0x000003|9d 5a 02 a4 ba 46 71 78 39 4d e1 15 b7 68 87 ef|.Z...Fqx9M...h..|
  0x000004|81 94 37 c5 db e0 d7 fa 81 ed e0 14            |..7.........    |
  0x000004|                                    c0 2f      |            ./  |            cipher_suit: "TLS_ECDHE_RSA_WITH_AES_128_GCM_SHA256" (0xc02f) 0x4c-0x4e (2)
  0x000004|                                          00   |              . |            compression_method: "null" (0x0) 0x4e-0x4f (1)
  0x000004|                                             00|               .|            extensions_length: 36 0x4f-0x51 (2)
  0x000005|24                                             |$               |
          |                                               |                |            extensions[0:5]: 0x51-0x75 (36)
          |                                               |                |              [0]{}: extension 0x51-0x56 (5)
  0x000005|   ff 01                                       | ..             |                type: "renegotiation_info" (65281) 0x51-0x53 (2)
  0x000005|         00 01                                 |   ..           |                length: 1 0x53-0x55 (2)
  0x000005|               00                              |     .          |                data: raw bits 0x55-0x56 (1)
          |                                               |                |              [1]{}: extension 0x56-0x5a (4)
  0x000005|                  00 00                        |      ..        |                type: "server_name" (0) 0x56-0x58 (2)
  0x000005|                        00 00                  |        ..      |                length: 0 0x58-0x5a (2)
          |                                               |                |              [2]{}: extension 0x5a-0x62 (8)
  0x000005|                              00 0b            |          ..    |                type: "ec_point_formats" (11) 0x5a-0x5c (2)
  0x000005|                                    00 04      |            ..  |                length: 4 0x5c-0x5e (2)
  0x000005|                                          03   |              . |                ex_points_formats_length: 3 0x5e-0x5f (1)
          |                                               |                |                ex_points_formats[0:3]: 0x5f-0x62 (3)
  0x000005|                                             00|               .|                  [0]: 0x0 ex_points_format 0x5f-0x60 (1)
  0x000006|01                                             |.               |                  [1]: 0x1 ex_points_format 0x60-0x61 (1)
  0x000006|   02                                          | .              |                  [2]: 0x2 ex_points_format 0x61-0x62 (1)
          |                                               |                |              [3]{}: extension 0x62-0x71 (15)
  0x000006|      00 10                                    |  ..            |                type: "application_layer_protocol_negotiation" (16) 0x62-0x64 (2)
  0x000006|            00 0b                              |    ..          |                length: 11 0x64-0x66 (2)
  0x000006|                  00 09                        |      ..        |                protocols_length: 9 0x66-0x68 (2)
          |                                               |                |                protocols[0:1]: 0x68-0x71 (9)
          |                                               |                |                  [0]{}: protocol 0x68-0x71 (9)
  0x000006|                        08                     |        .       |                    length: 8 0x68-0x69 (1)
  0x000006|                           68 74 74 70 2f 31 2e|         http/1.|                    name: "http/1.1" 0x69-0x71 (8)
  0x000007|31                                             |1               |
          |                                               |                |              [4]{}: extension 0x71-0x75 (4)
  0x000007|   00 17                                       | ..             |                type: "extended_master_secret" (23) 0x71-0x73 (2)
  0x000007|         00 00                                 |   ..           |                length: 0 0x73-0x75 (2)
          |                                               |                |        [1]{}: record 0x75-0x104b (4054)
  0x000007|               16                              |     .          |          type: "handshake" (22) (valid) 0x75-0x76 (1)
  0x000007|                  03 03                        |      ..        |          version: "tls1.2" (0x303) (valid) 0x76-0x78 (2)
  0x000007|                        0f d1                  |        ..      |          length: 4049 0x78-0x7a (2)
          |                                               |                |          message{}: 0x7a-0x104b (4049)
  0x000007|                              0b               |          .     |            type: "certificate" (11) 0x7a-0x7b (1)
  0x000007|                                 00 0f cd      |           ...  |            length: 4045 0x7b-0x7e (3)
  0x000007|                                          00 0f|              ..|            certificates_length: 4042 0x7e-0x81 (3)
  0x000008|ca                                             |.               |
          |                                               |                |            certificates[0:3]: 0x81-0x104b (4042)
          |                                               |                |              [0]{}: certificate 0x81-0x5c7 (1350)
  0x000008|   00 05 43                                    | ..C            |                length: 1347 0x81-0x84 (3)
          |00 01 02 03 04 05 06 07 08 09 0a 0b 0c 0d 0e 0f|0123456789abcdef|                data{}: (asn1_ber) 0x84-0x5c7 (1347)
  0x000008|            30                                 |    0           |                  class: "universal" (0) 0x84-0x84.2 (0.2)
  0x000008|            30                                 |    0           |                  form: "constructed" (1) 0x84.2-0x84.3 (0.1)
  0x000008|            30                                 |    0           |                  tag: "sequence" (0x10) 0x84.3-0x85 (0.5)
  0x000008|               82 05 3f                        |     ..?        |                  length: 1343 0x85-0x88 (3)
          |                                               |                |                  constructed[0:3]: 0x88-0x5c7 (1343)
          |                                               |                |                    [0]{}: object 0x88-0x4b3 (1067)
  0x000008|                        30                     |        0       |                      class: "universal" (0) 0x88-0x88.2 (0.2)
  0x000008|                        30                     |        0       |                      form: "constructed" (1) 0x88.2-0x88.3 (0.1)
  0x000008|                        30                     |        0       |                      tag: "sequence" (0x10) 0x88.3-0x89 (0.5)
  0x000008|                           82 04 27            |         ..'    |                      length: 1063 0x89-0x8c (3)
          |                                               |                |                      constructed[0:8]: 0x8c-0x4b3 (1063)
          |                                               |                |                        [0]{}: object 0x8c-0x91 (5)
  0x000008|                                    a0         |            .   |                          class: "context" (2) 0x8c-0x8c.2 (0.2)
  0x000008|                                    a0         |            .   |                          form: "constructed" (1) 0x8c.2-0x8c.3 (0.1)
  0x000008|                                    a0         |            .   |                          tag: 0 0x8c.3-0x8d (0.5)
  0x000008|                                       03      |             .  |                          length: 3 0x8d-0x8e (1)
          |                                               |                |                          constructed[0:1]: 0x8e-0x91 (3)
          |                                               |                |                            [0]{}: object 0x8e-0x91 (3)
  0x000008|                                          02   |              . |                              class: "universal" (0) 0x8e-0x8e.2 (0.2)
  0x000008|                                          02   |              . |                              form: "primitive" (0) 0x8e.2-0x8e.3 (0.1)
  0x000008|                                          02   |              . |                              tag: "integer" (0x2) 0x8e.3-0x8f (0.5)
  0x000008|                                             01|               .|                              length: 1 0x8f-0x90 (1)
  0x000009|02                                             |.               |                              value: 2 0x90-0x91 (1)
          |                                               |                |                        [1]{}: object 0x91-0xa5 (20)
  0x000009|   02                                          | .              |                          class: "universal" (0) 0x91-0x91.2 (0.2)
  0x000009|   02                                          | .              |                          form: "primitive" (0) 0x91.2-0x91.3 (0.1)
  0x000009|   02                                          | .              |                          tag: "integer" (0x2) 0x91.3-0x92 (0.5)
  0x000009|      12                                       |  .             |                          length: 18 0x92-0x93 (1)
  0x000009|         03 6b 1d d8 07 21 66 14 a0 68 62 40 ae|   .k...!f..hb@.|                          value: 297786740348443350609089518586106012555867 0x93-0xa5 (18)
  0x00000a|bb 3c b8 da 5b                                 |.<..[           |
          |                                               |                |                        [2]{}: object 0xa5-0xb4 (15)
  0x00000a|               30                              |     0          |                          class: "universal" (0) 0xa5-0xa5.2 (0.2)
  0x00000a|               30                              |     0          |                          form: "constructed" (1) 0xa5.2-0xa5.3 (0.1)
  0x00000a|               30                              |     0          |                          tag: "sequence" (0x10) 0xa5.3-0xa6 (0.5)
  0x00000a|                  0d                           |      .         |                          length: 13 0xa6-0xa7 (1)
          |                                               |                |                          constructed[0:2]: 0xa7-0xb4 (13)
          |                                               |                |                            [0]{}: object 0xa7-0xb2 (11)
  0x00000a|                     06                        |       .        |                              class: "universal" (0) 0xa7-0xa7.2 (0.2)
  0x00000a|                     06                        |       .        |                              form: "primitive" (0) 0xa7.2-0xa7.3 (0.1)
  0x00000a|                     06                        |       .        |                              tag: "object_identifier" (0x6) 0xa7.3-0xa8 (0.5)
  0x00000a|                        09                     |        .       |                              length: 9 0xa8-0xa9 (1)
          |                                               |                |                              value[0:7]: 0xa9-0xb2 (9)
  0x00000a|                           2a                  |         *      |                                [0]: 1 oid 0xa9-0xaa (1)
  0x00000a|                           2a                  |         *      |                                [1]: 2 oid 0xa9-0xaa (1)
  0x00000a|                              86 48            |          .H    |                                [2]: 840 oid 0xaa-0xac (2)
  0x00000a|                                    86 f7 0d   |            ... |                                [3]: 113549 oid 0xac-0xaf (3)
  0x00000a|                                             01|               .|                                [4]: 1 oid 0xaf-0xb0 (1)
  0x00000b|01                                             |.               |                                [5]: 1 oid 0xb0-0xb1 (1)
  0x00000b|   0b                                          | .              |                                [6]: 11 oid 0xb1-0xb2 (1)
          |                                               |                |                            [1]{}: object 0xb2-0xb4 (2)
  0x00000b|      05                                       |  .             |                              class: "universal" (0) 0xb2-0xb2.2 (0.2)
  0x00000b|      05                                       |  .             |                              form: "primitive" (0) 0xb2.2-0xb2.3 (0.1)
  0x00000b|      05                                       |  .             |                              tag: "null" (0x5) 0xb2.3-0xb3 (0.5)
  0x00000b|         00                                    |   .            |                              length: "indefinite" (0) 0xb3-0xb4 (1)
          |                                               |                |                              value: null
          |                                               |                |                        [3]{}: object 0xb4-0xe8 (52)
  0x00000b|            30                                 |    0           |                          class: "universal" (0) 0xb4-0xb4.2 (0.2)
  0x00000b|            30                                 |    0           |                          form: "constructed" (1) 0xb4.2-0xb4.3 (0.1)
  0x00000b|            30                                 |    0           |                          tag: "sequence" (0x10) 0xb4.3-0xb5 (0.5)
  0x00000b|               32                              |     2          |                          length: 50 0xb5-0xb6 (1)
          |                                               |                |                          constructed[0:3]: 0xb6-0xe8 (50)
          |                                               |                |                            [0]{}: object 0xb6-0xc3 (13)
  0x00000b|                  31                           |      1         |                              class: "universal" (0) 0xb6-0xb6.2 (0.2)
  0x00000b|                  31                           |      1         |                              form: "constructed" (1) 0xb6.2-0xb6.3 (0.1)
  0x00000b|                  31                           |      1         |                              tag: "set" (0x11) 0xb6.3-0xb7 (0.5)
  0x00000b|                     0b                        |       .        |                              length: 11 0xb7-0xb8 (1)
          |                                               |                |                              constructed[0:1]: 0xb8-0xc3 (11)
          |                                               |                |                                [0]{}: object 0xb8-0xc3 (11)
  0x00000b|                        30                     |        0       |                                  class: "universal" (0) 0xb8-0xb8.2 (0.2)
  0x00000b|                        30                     |        0       |                                  form: "constructed" (1) 0xb8.2-0xb8.3 (0.1)
  0x00000b|                        30                     |        0       |                                  tag: "sequence" (0x10) 0xb8.3-0xb9 (0.5)
  0x00000b|                           09                  |         .      |                                  length: 9 0xb9-0xba (1)
          |                                               |                |                                  constructed[0:2]: 0xba-0xc3 (9)
          |                                               |                |                                    [0]{}: object 0xba-0xbf (5)
  0x00000b|                              06               |          .     |                                      class: "universal" (0) 0xba-0xba.2 (0.2)
  0x00000b|                              06               |          .     |                                      form: "primitive" (0) 0xba.2-0xba.3 (0.1)
  0x00000b|                              06               |          .     |                                      tag: "object_identifier" (0x6) 0xba.3-0xbb (0.5)
  0x00000b|                                 03            |           .    |                                      length: 3 0xbb-0xbc (1)
          |                                               |                |                                      value[0:4]: 0xbc-0xbf (3)
  0x00000b|                                    55         |            U   |                                        [0]: 2 oid 0xbc-0xbd (1)
  0x00000b|                                    55         |            U   |                                        [1]: 5 oid 0xbc-0xbd (1)
  0x00000b|                                       04      |             .  |                                        [2]: 4 oid 0xbd-0xbe (1)
  0x00000b|                                          06   |              . |                                        [3]: 6 oid 0xbe-0xbf (1)
          |                                               |                |                                    [1]{}: object 0xbf-0xc3 (4)
  0x00000b|                                             13|               .|                                      class: "universal" (0) 0xbf-0xbf.2 (0.2)
  0x00000b|                                             13|               .|                                      form: "primitive" (0) 0xbf.2-0xbf.3 (0.1)
  0x00000b|                                             13|               .|                                      tag: "printable_string" (0x13) 0xbf.3-0xc0 (0.5)
  0x00000c|02                                             |.               |                                      length: 2 0xc0-0xc1 (1)
  0x00000c|   55 53                                       | US             |                                      value: "US" 0xc1-0xc3 (2)
          |                                               |                |                            [1]{}: object 0xc3-0xdb (24)
  0x00000c|         31                                    |   1            |                              class: "universal" (0) 0xc3-0xc3.2 (0.2)
  0x00000c|         31                                    |   1            |                              form: "constructed" (1) 0xc3.2-0xc3.3 (0.1)
  0x00000c|         31                                    |   1            |                              tag: "set" (0x11) 0xc3.3-0xc4 (0.5)
  0x00000c|            16                                 |    .           |                              length: 22 0xc4-0xc5 (1)
          |                                               |                |                              constructed[0:1]: 0xc5-0xdb (22)
          |                                               |                |                                [0]{}: object 0xc5-0xdb (22)
  0x00000c|               30                              |     0          |                                  class: "universal" (0) 0xc5-0xc5.2 (0.2)
  0x00000c|               30                              |     0          |                                  form: "constructed" (1) 0xc5.2-0xc5.3 (0.1)
  0x00000c|               30                              |     0          |                                  tag: "sequence" (0x10) 0xc5.3-0xc6 (0.5)
  0x00000c|                  14                           |      .         |                                  length: 20 0xc6-0xc7 (1)
          |                                               |                |                                  constructed[0:2]: 0xc7-0xdb (20)
          |                                               |                |                                    [0]{}: object 0xc7-0xcc (5)
  0x00000c|                     06                        |       .        |                                      class: "universal" (0) 0xc7-0xc7.2 (0.2)
  0x00000c|                     06                        |       .        |                                      form: "primitive" (0) 0xc7.2-0xc7.3 (0.1)
  0x00000c|                     06                        |       .        |                                      tag: "object_identifier" (0x6) 0xc7.3-0xc8 (0.5)
  0x00000c|                        03                     |        .       |                                      length: 3 0xc8-0xc9 (1)
          |                                               |                |                                      value[0:4]: 0xc9-0xcc (3)
  0x00000c|                           55                  |         U      |                                        [0]: 2 oid 0xc9-0xca (1)
  0x00000c|                           55                  |         U      |                                        [1]: 5 oid 0xc9-0xca (1)
  0x00000c|                              04               |          .     |                                        [2]: 4 oid 0xca-0xcb (1)
  0x00000c|                                 0a            |           .    |                                        [3]: 10 oid 0xcb-0xcc (1)
          |                                               |                |                                    [1]{}: object 0xcc-0xdb (15)
  0x00000c|                                    13         |            .   |                                      class: "universal" (0) 0xcc-0xcc.2 (0.2)
  0x00000c|                                    13         |            .   |                                      form: "primitive" (0) 0xcc.2-0xcc.3 (0.1)
  0x00000c|                                    13         |            .   |                                      tag: "printable_string" (0x13) 0xcc.3-0xcd (0.5)
  0x00000c|                                       0d      |             .  |                                      length: 13 0xcd-0xce (1)
  0x00000c|                                          4c 65|              Le|                                      value: "Let's Encrypt" 0xce-0xdb (13)
  0x00000d|74 27 73 20 45 6e 63 72 79 70 74               |t's Encrypt     |
          |                                               |                |                            [2]{}: object 0xdb-0xe8 (13)
  0x00000d|                                 31            |           1    |                              class: "universal" (0) 0xdb-0xdb.2 (0.2)
  0x00000d|                                 31            |           1    |                              form: "constructed" (1) 0xdb.2-0xdb.3 (0.1)
  0x00000d|                                 31            |           1    |                              tag: "set" (0x11) 0xdb.3-0xdc (0.5)
  0x00000d|                                    0b         |            .   |                              length: 11 0xdc-0xdd (1)
          |                                               |                |                              constructed[0:1]: 0xdd-0xe8 (11)
          |                                               |                |                                [0]{}: object 0xdd-0xe8 (11)
  0x00000d|                                       30      |             0  |                                  class: "universal" (0) 0xdd-0xdd.2 (0.2)
  0x00000d|                                       30      |             0  |                                  form: "constructed" (1) 0xdd.2-0xdd.3 (0.1)
  0x00000d|                                       30      |             0  |                                  tag: "sequence" (0x10) 0xdd.3-0xde (0.5)
  0x00000d|                                          09   |              . |                                  length: 9 0xde-0xdf (1)
          |                                               |                |                                  constructed[0:2]: 0xdf-0xe8 (9)
          |                                               |                |                                    [0]{}: object 0xdf-0xe4 (5)
  0x00000d|                                             06|               .|                                      class: "universal" (0) 0xdf-0xdf.2 (0.2)
  0x00000d|                                             06|               .|                                      form: "primitive" (0) 0xdf.2-0xdf.3 (0.1)
  0x00000d|                                             06|               .|                                      tag: "object_identifier" (0x6) 0xdf.3-0xe0 (0.5)
  0x00000e|03                                             |.               |                                      length: 3 0xe0-0xe1 (1)
          |                                               |                |                                      value[0:4]: 0xe1-0xe4 (3)
  0x00000e|   55                                          | U              |                                        [0]: 2 oid 0xe1-0xe2 (1)
  0x00000e|   55                                          | U              |                                        [1]: 5 oid 0xe1-0xe2 (1)
  0x00000e|      04                                       |  .             |                                        [2]: 4 oid 0xe2-0xe3 (1)
  0x00000e|         03                                    |   .            |                                        [3]: 3 oid 0xe3-0xe4 (1)
          |                                               |                |                                    [1]{}: object 0xe4-0xe8 (4)
  0x00000e|            13                                 |    .           |                                      class: "universal" (0) 0xe4-0xe4.2 (0.2)
  0x00000e|            13                                 |    .           |                                      form: "primitive" (0) 0xe4.2-0xe4.3 (0.1)
  0x00000e|            13                                 |    .           |                                      tag: "printable_string" (0x13) 0xe4.3-0xe5 (0.5)
  0x00000e|               02                              |     .          |                                      length: 2 0xe5-0xe6 (1)
  0x00000e|                  52 33                        |      R3        |                                      value: "R3" 0xe6-0xe8 (2)
          |                                               |                |                        [4]{}: object 0xe8-0x108 (32)
  0x00000e|                        30                     |        0       |                          class: "universal" (0) 0xe8-0xe8.2 (0.2)
  0x00000e|                        30                     |        0       |                          form: "constructed" (1) 0xe8.2-0xe8.3 (0.1)
  0x00000e|                        30                     |        0       |                          tag: "sequence" (0x10) 0xe8.3-0xe9 (0.5)
  0x00000e|                           1e                  |         .      |                          length: 30 0xe9-0xea (1)
          |                                               |                |                          constructed[0:2]: 0xea-0x108 (30)
          |                                               |                |                            [0]{}: object 0xea-0xf9 (15)
  0x00000e|                              17               |          .     |                              class: "universal" (0) 0xea-0xea.2 (0.2)
  0x00000e|                              17               |          .     |                              form: "primitive" (0) 0xea.2-0xea.3 (0.1)
  0x00000e|                              17               |          .     |                              tag: "utc_time" (0x17) 0xea.3-0xeb (0.5)
  0x00000e|                                 0d            |           .    |                              length: 13 0xeb-0xec (1)
  0x00000e|                                    32 33 30 31|            2301|                              value: "230105073238Z" 0xec-0xf9 (13)
  0x00000f|30 35 30 37 33 32 33 38 5a                     |05073238Z       |
          |                                               |                |                            [1]{}: object 0xf9-0x108 (15)
  0x00000f|                           17                  |         .      |                              class: "universal" (0) 0xf9-0xf9.2 (0.2)
  0x00000f|                           17                  |         .      |                              form: "primitive" (0) 0xf9.2-0xf9.3 (0.1)
  0x00000f|                           17                  |         .      |                              tag: "utc_time" (0x17) 0xf9.3-0xfa (0.5)
  0x00000f|                              0d               |          .     |                              length: 13 0xfa-0xfb (1)
  0x00000f|                                 32 33 30 34 30|           23040|                              value: "230405073237Z" 0xfb-0x108 (13)
  0x000010|35 30 37 33 32 33 37 5a                        |5073237Z        |
          |                                               |                |                        [5]{}: object 0x108-0x120 (24)
  0x000010|                        30                     |        0       |                          class: "universal" (0) 0x108-0x108.2 (0.2)
  0x000010|                        30                     |        0       |                          form: "constructed" (1) 0x108.2-0x108.3 (0.1)
  0x000010|                        30                     |        0       |                          tag: "sequence" (0x10) 0x108.3-0x109 (0.5)
  0x000010|                           16                  |         .      |                          length: 22 0x109-0x10a (1)
          |                                               |                |                          constructed[0:1]: 0x10a-0x120 (22)
          |                                               |                |                            [0]{}: object 0x10a-0x120 (22)
  0x000010|                              31               |          1     |                              class: "universal" (0) 0x10a-0x10a.2 (0.2)
  0x000010|                              31               |          1     |                              form: "constructed" (1) 0x10a.2-0x10a.3 (0.1)
  0x000010|                              31               |          1     |                              tag: "set" (0x11) 0x10a.3-0x10b (0.5)
  0x000010|                                 14            |           .    |                              length: 20 0x10b-0x10c (1)
          |                                               |                |                              constructed[0:1]: 0x10c-0x120 (20)
          |                                               |                |                                [0]{}: object 0x10c-0x120 (20)
  0x000010|                                    30         |            0   |                                  class: "universal" (0) 0x10c-0x10c.2 (0.2)
  0x000010|                                    30         |            0   |                                  form: "constructed" (1) 0x10c.2-0x10c.3 (0.1)
  0x000010|                                    30         |            0   |                                  tag: "sequence" (0x10) 0x10c.3-0x10d (0.5)
  0x000010|                                       12      |             .  |                                  length: 18 0x10d-0x10e (1)
          |                                               |                |                                  constructed[0:2]: 0x10e-0x120 (18)
          |                                               |                |                                    [0]{}: object 0x10e-0x113 (5)
  0x000010|                                          06   |              . |                                      class: "universal" (0) 0x10e-0x10e.2 (0.2)
  0x000010|                                          06   |              . |                                      form: "primitive" (0) 0x10e.2-0x10e.3 (0.1)
  0x000010|                                          06   |              . |                                      tag: "object_identifier" (0x6) 0x10e.3-0x10f (0.5)
  0x000010|                                             03|               .|                                      length: 3 0x10f-0x110 (1)
          |                                               |                |                                      value[0:4]: 0x110-0x113 (3)
  0x000011|55                                             |U               |                                        [0]: 2 oid 0x110-0x111 (1)
  0x000011|55                                             |U               |                                        [1]: 5 oid 0x110-0x111 (1)
  0x000011|   04                                          | .              |                                        [2]: 4 oid 0x111-0x112 (1)
  0x000011|      03                                       |  .             |                                        [3]: 3 oid 0x112-0x113 (1)
          |                                               |                |                                    [1]{}: object 0x113-0x120 (13)
  0x000011|         13                                    |   .            |                                      class: "universal" (0) 0x113-0x113.2 (0.2)
  0x000011|         13                                    |   .            |                                      form: "primitive" (0) 0x113.2-0x113.3 (0.1)
  0x000011|         13                                    |   .            |                                      tag: "printable_string" (0x13) 0x113.3-0x114 (0.5)
  0x000011|            0b                                 |    .           |                                      length: 11 0x114-0x115 (1)
  0x000011|               74 65 73 74 74 6c 73 2e 63 6f 6d|     testtls.com|                                      value: "testtls.com" 0x115-0x120 (11)
          |                                               |                |                        [6]{}: object 0x120-0x246 (294)
  0x000012|30                                             |0               |                          class: "universal" (0) 0x120-0x120.2 (0.2)
  0x000012|30                                             |0               |                          form: "constructed" (1) 0x120.2-0x120.3 (0.1)
  0x000012|30                                             |0               |                          tag: "sequence" (0x10) 0x120.3-0x121 (0.5)
  0x000012|   82 01 22                                    | .."            |                          length: 290 0x121-0x124 (3)
          |                                               |                |                          constructed[0:2]: 0x124-0x246 (290)
          |                                               |                |                            [0]{}: object 0x124-0x133 (15)
  0x000012|            30                                 |    0           |                              class: "universal" (0) 0x124-0x124.2 (0.2)
  0x000012|            30                                 |    0           |                              form: "constructed" (1) 0x124.2-0x124.3 (0.1)
  0x000012|            30                                 |    0           |                              tag: "sequence" (0x10) 0x124.3-0x125 (0.5)
  0x000012|               0d                              |     .          |                              length: 13 0x125-0x126 (1)
          |                                               |                |                              constructed[0:2]: 0x126-0x133 (13)
          |                                               |                |                                [0]{}: object 0x126-0x131 (11)
  0x000012|                  06                           |      .         |                                  class: "universal" (0) 0x126-0x126.2 (0.2)
  0x000012|                  06                           |      .         |                                  form: "primitive" (0) 0x126.2-0x126.3 (0.1)
  0x000012|                  06                           |      .         |                                  tag: "object_identifier" (0x6) 0x126.3-0x127 (0.5)
  0x000012|                     09                        |       .        |                                  length: 9 0x127-0x128 (1)
          |                                               |                |                                  value[0:7]: 0x128-0x131 (9)
  0x000012|                        2a                     |        *       |                                    [0]: 1 oid 0x128-0x129 (1)
  0x000012|                        2a                     |        *       |                                    [1]: 2 oid 0x128-0x129 (1)
  0x000012|                           86 48               |         .H     |                                    [2]: 840 oid 0x129-0x12b (2)
  0x000012|                                 86 f7 0d      |           ...  |                                    [3]: 113549 oid 0x12b-0x12e (3)
  0x000012|                                          01   |              . |                                    [4]: 1 oid 0x12e-0x12f (1)
  0x000012|                                             01|               .|                                    [5]: 1 oid 0x12f-0x130 (1)
  0x000013|01                                             |.               |                                    [6]: 1 oid 0x130-0x131 (1)
          |                                               |                |                                [1]{}: object 0x131-0x133 (2)
  0x000013|   05                                          | .              |                                  class: "universal" (0) 0x131-0x131.2 (0.2)
  0x000013|   05                                          | .              |                                  form: "primitive" (0) 0x131.2-0x131.3 (0.1)
  0x000013|   05                                          | .              |                                  tag: "null" (0x5) 0x131.3-0x132 (0.5)
  0x000013|      00                                       |  .             |                                  length: "indefinite" (0) 0x132-0x133 (1)
          |                                               |                |                                  value: null
          |                                               |                |                            [1]{}: object 0x133-0x246 (275)
  0x000013|         03                                    |   .            |                              class: "universal" (0) 0x133-0x133.2 (0.2)
  0x000013|         03                                    |   .            |                              form: "primitive" (0) 0x133.2-0x133.3 (0.1)
  0x000013|         03                                    |   .            |                              tag: "bit_string" (0x3) 0x133.3-0x134 (0.5)
  0x000013|            82 01 0f                           |    ...         |                              length: 271 0x134-0x137 (3)
  0x000013|                     00                        |       .        |                              unused_bits_count: 0 0x137-0x138 (1)
  0x000013|                        30 82 01 0a 02 82 01 01|        0.......|                              value: raw bits 0x138-0x246 (270)
  0x000014|00 bb bb f0 34 b1 bc 32 67 54 38 0d 44 f6 64 97|....4..2gT8.D.d.|
  *       |until 0x245.7 (270)                            |                |
          |                                               |                |                        [7]{}: object 0x246-0x4b3 (621)
  0x000024|                  a3                           |      .         |                          class: "context" (2) 0x246-0x246.2 (0.2)
  0x000024|                  a3                           |      .         |                          form: "constructed" (1) 0x246.2-0x246.3 (0.1)
  0x000024|                  a3                           |      .         |                          tag: 3 0x246.3-0x247 (0.5)
  0x000024|                     82 02 69                  |       ..i      |                          length: 617 0x247-0x24a (3)
          |                                               |                |                          constructed[0:1]: 0x24a-0x4b3 (617)
          |                                               |                |                            [0]{}: object 0x24a-0x4b3 (617)
  0x000024|                              30               |          0     |                              class: "universal" (0) 0x24a-0x24a.2 (0.2)
  0x000024|                              30               |          0     |                              form: "constructed" (1) 0x24a.2-0x24a.3 (0.1)
  0x000024|                              30               |          0     |                              tag: "sequence" (0x10) 0x24a.3-0x24b (0.5)
  0x000024|                                 82 02 65      |           ..e  |                              length: 613 0x24b-0x24e (3)
          |                                               |                |                              constructed[0:9]: 0x24e-0x4b3 (613)
          |                                               |                |                                [0]{}: object 0x24e-0x25e (16)
  0x000024|                                          30   |              0 |                                  class: "universal" (0) 0x24e-0x24e.2 (0.2)
  0x000024|                                          30   |              0 |                                  form: "constructed" (1) 0x24e.2-0x24e.3 (0.1)
  0x000024|                                          30   |              0 |                                  tag: "sequence" (0x10) 0x24e.3-0x24f (0.5)
  0x000024|                                             0e|               .|                                  length: 14 0x24f-0x250 (1)
          |                                               |                |                                  constructed[0:3]: 0x250-0x25e (14)
          |                                               |                |                                    [0]{}: object 0x250-0x255 (5)
  0x000025|06                                             |.               |                                      class: "universal" (0) 0x250-0x250.2 (0.2)
  0x000025|06                                             |.               |                                      form: "primitive" (0) 0x250.2-0x250.3 (0.1)
  0x000025|06                                             |.               |                                      tag: "object_identifier" (0x6) 0x250.3-0x251 (0.5)
  0x000025|   03                                          | .              |                                      length: 3 0x251-0x252 (1)
          |                                               |                |                                      value[0:4]: 0x252-0x255 (3)
  0x000025|      55                                       |  U             |                                        [0]: 2 oid 0x252-0x253 (1)
  0x000025|      55                                       |  U             |                                        [1]: 5 oid 0x252-0x253 (1)
  0x000025|         1d                                    |   .            |                                        [2]: 29 oid 0x253-0x254 (1)
  0x000025|            0f                                 |    .           |                                        [3]: 15 oid 0x254-0x255 (1)
          |                                               |                |                                    [1]{}: object 0x255-0x258 (3)
  0x000025|               01                              |     .          |                                      class: "universal" (0) 0x255-0x255.2 (0.2)
  0x000025|               01                              |     .          |                                      form: "primitive" (0) 0x255.2-0x255.3 (0.1)
  0x000025|               01                              |     .          |                                      tag: "boolean" (0x1) 0x255.3-0x256 (0.5)
  0x000025|                  01                           |      .         |                                      length: 1 0x256-0x257 (1)
  0x000025|                     ff                        |       .        |                                      value: true (255) 0x257-0x258 (1)
          |                                               |                |                                    [2]{}: object 0x258-0x25e (6)
  0x000025|                        04                     |        .       |                                      class: "universal" (0) 0x258-0x258.2 (0.2)
  0x000025|                        04                     |        .       |                                      form: "primitive" (0) 0x258.2-0x258.3 (0.1)
  0x000025|                        04                     |        .       |                                      tag: "octet_string" (0x4) 0x258.3-0x259 (0.5)
  0x000025|                           04                  |         .      |                                      length: 4 0x259-0x25a (1)
  0x000025|                              03 02 05 a0      |          ....  |                                      value: raw bits 0x25a-0x25e (4)
          |                                               |                |                                [1]{}: object 0x25e-0x27d (31)
  0x000025|                                          30   |              0 |                                  class: "universal" (0) 0x25e-0x25e.2 (0.2)
  0x000025|                                          30   |              0 |                                  form: "constructed" (1) 0x25e.2-0x25e.3 (0.1)
  0x000025|                                          30   |              0 |                                  tag: "sequence" (0x10) 0x25e.3-0x25f (0.5)
  0x000025|                                             1d|               .|                                  length: 29 0x25f-0x260 (1)
          |                                               |                |                                  constructed[0:2]: 0x260-0x27d (29)
          |                                               |                |                                    [0]{}: object 0x260-0x265 (5)
  0x000026|06                                             |.               |                                      class: "universal" (0) 0x260-0x260.2 (0.2)
  0x000026|06                                             |.               |                                      form: "primitive" (0) 0x260.2-0x260.3 (0.1)
  0x000026|06                                             |.               |                                      tag: "object_identifier" (0x6) 0x260.3-0x261 (0.5)
  0x000026|   03                                          | .              |                                      length: 3 0x261-0x262 (1)
          |                                               |                |                                      value[0:4]: 0x262-0x265 (3)
  0x000026|      55                                       |  U             |                                        [0]: 2 oid 0x262-0x263 (1)
  0x000026|      55                                       |  U             |                                        [1]: 5 oid 0x262-0x263 (1)
  0x000026|         1d                                    |   .            |                                        [2]: 29 oid 0x263-0x264 (1)
  0x000026|            25                                 |    %           |                                        [3]: 37 oid 0x264-0x265 (1)
          |                                               |                |                                    [1]{}: object 0x265-0x27d (24)
  0x000026|               04                              |     .          |                                      class: "universal" (0) 0x265-0x265.2 (0.2)
  0x000026|               04                              |     .          |                                      form: "primitive" (0) 0x265.2-0x265.3 (0.1)
  0x000026|               04                              |     .          |                                      tag: "octet_string" (0x4) 0x265.3-0x266 (0.5)
  0x000026|                  16                           |      .         |                                      length: 22 0x266-0x267 (1)
  0x000026|                     30 14 06 08 2b 06 01 05 05|       0...+....|                                      value: raw bits 0x267-0x27d (22)
  0x000027|07 03 01 06 08 2b 06 01 05 05 07 03 02         |.....+.......   |
          |                                               |                |                                [2]{}: object 0x27d-0x28b (14)
  0x000027|                                       30      |             0  |                                  class: "universal" (0) 0x27d-0x27d.2 (0.2)
  0x000027|                                       30      |             0  |                                  form: "constructed" (1) 0x27d.2-0x27d.3 (0.1)
  0x000027|                                       30      |             0  |                                  tag: "sequence" (0x10) 0x27d.3-0x27e (0.5)
  0x000027|                                          0c   |              . |                                  length: 12 0x27e-0x27f (1)
          |                                               |                |                                  constructed[0:3]: 0x27f-0x28b (12)
          |                                               |                |                                    [0]{}: object 0x27f-0x284 (5)
  0x000027|                                             06|               .|                                      class: "universal" (0) 0x27f-0x27f.2 (0.2)
  0x000027|                                             06|               .|                                      form: "primitive" (0) 0x27f.2-0x27f.3 (0.1)
  0x000027|                                             06|               .|                                      tag: "object_identifier" (0x6) 0x27f.3-0x280 (0.5)
  0x000028|03                                             |.               |                                      length: 3 0x280-0x281 (1)
          |                                               |                |                                      value[0:4]: 0x281-0x284 (3)
  0x000028|   55                                          | U              |                                        [0]: 2 oid 0x281-0x282 (1)
  0x000028|   55                                          | U              |                                        [1]: 5 oid 0x281-0x282 (1)
  0x000028|      1d                                       |  .             |                                        [2]: 29 oid 0x282-0x283 (1)
  0x000028|         13                                    |   .            |                                        [3]: 19 oid 0x283-0x284 (1)
          |                                               |                |                                    [1]{}: object 0x284-0x287 (3)
  0x000028|            01                                 |    .           |                                      class: "universal" (0) 0x284-0x284.2 (0.2)
  0x000028|            01                                 |    .           |                                      form: "primitive" (0) 0x284.2-0x284.3 (0.1)
  0x000028|            01                                 |    .           |                                      tag: "boolean" (0x1) 0x284.3-0x285 (0.5)
  0x000028|               01                              |     .          |                                      length: 1 0x285-0x286 (1)
  0x000028|                  ff                           |      .         |                                      value: true (255) 0x286-0x287 (1)
          |                                               |                |                                    [2]{}: object 0x287-0x28b (4)
  0x000028|                     04                        |       .        |                                      class: "universal" (0) 0x287-0x287.2 (0.2)
  0x000028|                     04                        |       .        |                                      form: "primitive" (0) 0x287.2-0x287.3 (0.1)
  0x000028|                     04                        |       .        |                                      tag: "octet_string" (0x4) 0x287.3-0x288 (0.5)
  0x000028|                        02                     |        .       |                                      length: 2 0x288-0x289 (1)
  0x000028|                           30 00               |         0.     |                                      value: raw bits 0x289-0x28b (2)
          |                                               |                |                                [3]{}: object 0x28b-0x2aa (31)
  0x000028|                                 30            |           0    |                                  class: "universal" (0) 0x28b-0x28b.2 (0.2)
  0x000028|                                 30            |           0    |                                  form: "constructed" (1) 0x28b.2-0x28b.3 (0.1)
  0x000028|                                 30            |           0    |                                  tag: "sequence" (0x10) 0x28b.3-0x28c (0.5)
  0x000028|                                    1d         |            .   |                                  length: 29 0x28c-0x28d (1)
          |                                               |                |                                  constructed[0:2]: 0x28d-0x2aa (29)
          |                                               |                |                                    [0]{}: object 0x28d-0x292 (5)
  0x000028|                                       06      |             .  |                                      class: "universal" (0) 0x28d-0x28d.2 (0.2)
  0x000028|                                       06      |             .  |                                      form: "primitive" (0) 0x28d.2-0x28d.3 (0.1)
  0x000028|                                       06      |             .  |                                      tag: "object_identifier" (0x6) 0x28d.3-0x28e (0.5)
  0x000028|                                          03   |              . |                                      length: 3 0x28e-0x28f (1)
          |                                               |                |                                      value[0:4]: 0x28f-0x292 (3)
  0x000028|                                             55|               U|                                        [0]: 2 oid 0x28f-0x290 (1)
  0x000028|                                             55|               U|                                        [1]: 5 oid 0x28f-0x290 (1)
  0x000029|1d                                             |.               |                                        [2]: 29 oid 0x290-0x291 (1)
  0x000029|   0e                                          | .              |                                        [3]: 14 oid 0x291-0x292 (1)
          |                                               |                |                                    [1]{}: object 0x292-0x2aa (24)
  0x000029|      04                                       |  .             |                                      class: "universal" (0) 0x292-0x292.2 (0.2)
  0x000029|      04                                       |  .             |                                      form: "primitive" (0) 0x292.2-0x292.3 (0.1)
  0x000029|      04                                       |  .             |                                      tag: "octet_string" (0x4) 0x292.3-0x293 (0.5)
  0x000029|         16                                    |   .            |                                      length: 22 0x293-0x294 (1)
  0x000029|            04 14 45 5e c1 6a f0 7e c3 aa 3c 17|    ..E^.j.~..<.|                                      value: raw bits 0x294-0x2aa (22)
  0x00002a|e1 e5 a3 88 fa 0c 23 c6 89 af                  |......#...      |
          |                                               |                |                                [4]{}: object 0x2aa-0x2cb (33)
  0x00002a|                              30               |          0     |                                  class: "universal" (0) 0x2aa-0x2aa.2 (0.2)
  0x00002a|                              30               |          0     |                                  form: "constructed" (1) 0x2aa.2-0x2aa.3 (0.1)
  0x00002a|                              30               |          0     |                                  tag: "sequence" (0x10) 0x2aa.3-0x2ab (0.5)
  0x00002a|                                 1f            |           .    |                                  length: 31 0x2ab-0x2ac (1)
          |                                               |                |                                  constructed[0:2]: 0x2ac-0x2cb (31)
          |                                               |                |                                    [0]{}: object 0x2ac-0x2b1 (5)
  0x00002a|                                    06         |            .   |                                      class: "universal" (0) 0x2ac-0x2ac.2 (0.2)
  0x00002a|                                    06         |            .   |                                      form: "primitive" (0) 0x2ac.2-0x2ac.3 (0.1)
  0x00002a|                                    06         |            .   |                                      tag: "object_identifier" (0x6) 0x2ac.3-0x2ad (0.5)
  0x00002a|                                       03      |             .  |                                      length: 3 0x2ad-0x2ae (1)
          |                                               |                |                                      value[0:4]: 0x2ae-0x2b1 (3)
  0x00002a|                                          55   |              U |                                        [0]: 2 oid 0x2ae-0x2af (1)
  0x00002a|                                          55   |              U |                                        [1]: 5 oid 0x2ae-0x2af (1)
  0x00002a|                                             1d|               .|                                        [2]: 29 oid 0x2af-0x2b0 (1)
  0x00002b|23                                             |#               |                                        [3]: 35 oid 0x2b0-0x2b1 (1)
          |                                               |                |                                    [1]{}: object 0x2b1-0x2cb (26)
  0x00002b|   04                                          | .              |                                      class: "universal" (0) 0x2b1-0x2b1.2 (0.2)
  0x00002b|   04                                          | .              |                                      form: "primitive" (0) 0x2b1.2-0x2b1.3 (0.1)
  0x00002b|   04                                          | .              |                                      tag: "octet_string" (0x4) 0x2b1.3-0x2b2 (0.5)
  0x00002b|      18                                       |  .             |                                      length: 24 0x2b2-0x2b3 (1)
  0x00002b|         30 16 80 14 14 2e b3 17 b7 58 56 cb ae|   0........XV..|                                      value: raw bits 0x2b3-0x2cb (24)
  0x00002c|50 09 40 e6 1f af 9d 8b 14 c2 c6               |P.@........     |
          |                                               |                |                                [5]{}: object 0x2cb-0x322 (87)
  0x00002c|                                 30            |           0    |                                  class: "universal" (0) 0x2cb-0x2cb.2 (0.2)
  0x00002c|                                 30            |           0    |                                  form: "constructed" (1) 0x2cb.2-0x2cb.3 (0.1)
  0x00002c|                                 30            |           0    |                                  tag: "sequence" (0x10) 0x2cb.3-0x2cc (0.5)
  0x00002c|                                    55         |            U   |                                  length: 85 0x2cc-0x2cd (1)
          |                                               |                |                                  constructed[0:2]: 0x2cd-0x322 (85)
          |                                               |                |                                    [0]{}: object 0x2cd-0x2d7 (10)
  0x00002c|                                       06      |             .  |                                      class: "universal" (0) 0x2cd-0x2cd.2 (0.2)
  0x00002c|                                       06      |             .  |                                      form: "primitive" (0) 0x2cd.2-0x2cd.3 (0.1)
  0x00002c|                                       06      |             .  |                                      tag: "object_identifier" (0x6) 0x2cd.3-0x2ce (0.5)
  0x00002c|                                          08   |              . |                                      length: 8 0x2ce-0x2cf (1)
          |                                               |                |                                      value[0:9]: 0x2cf-0x2d7 (8)
  0x00002c|                                             2b|               +|                                        [0]: 1 oid 0x2cf-0x2d0 (1)
  0x00002c|                                             2b|               +|                                        [1]: 3 oid 0x2cf-0x2d0 (1)
  0x00002d|06                                             |.               |                                        [2]: 6 oid 0x2d0-0x2d1 (1)
  0x00002d|   01                                          | .              |                                        [3]: 1 oid 0x2d1-0x2d2 (1)
  0x00002d|      05                                       |  .             |                                        [4]: 5 oid 0x2d2-0x2d3 (1)
  0x00002d|         05                                    |   .            |                                        [5]: 5 oid 0x2d3-0x2d4 (1)
  0x00002d|            07                                 |    .           |                                        [6]: 7 oid 0x2d4-0x2d5 (1)
  0x00002d|               01                              |     .          |                                        [7]: 1 oid 0x2d5-0x2d6 (1)
  0x00002d|                  01                           |      .         |                                        [8]: 1 oid 0x2d6-0x2d7 (1)
          |                                               |                |                                    [1]{}: object 0x2d7-0x322 (75)
  0x00002d|                     04                        |       .        |                                      class: "universal" (0) 0x2d7-0x2d7.2 (0.2)
  0x00002d|                     04                        |       .        |                                      form: "primitive" (0) 0x2d7.2-0x2d7.3 (0.1)
  0x00002d|                     04                        |       .        |                                      tag: "octet_string" (0x4) 0x2d7.3-0x2d8 (0.5)
  0x00002d|                        49                     |        I       |                                      length: 73 0x2d8-0x2d9 (1)
  0x00002d|                           30 47 30 21 06 08 2b|         0G0!..+|                                      value: raw bits 0x2d9-0x322 (73)
  0x00002e|06 01 05 05 07 30 01 86 15 68 74 74 70 3a 2f 2f|.....0...http://|
  *       |until 0x321.7 (73)                             |                |
          |                                               |                |                                [6]{}: object 0x322-0x35d (59)
  0x000032|      30                                       |  0             |                                  class: "universal" (0) 0x322-0x322.2 (0.2)
  0x000032|      30                                       |  0             |                                  form: "constructed" (1) 0x322.2-0x322.3 (0.1)
  0x000032|      30                                       |  0             |                                  tag: "sequence" (0x10) 0x322.3-0x323 (0.5)
  0x000032|         39                                    |   9            |                                  length: 57 0x323-0x324 (1)
          |                                               |                |                                  constructed[0:2]: 0x324-0x35d (57)
          |                                               |                |                                    [0]{}: object 0x324-0x329 (5)
  0x000032|            06                                 |    .           |                                      class: "universal" (0) 0x324-0x324.2 (0.2)
  0x000032|            06                                 |    .           |                                      form: "primitive" (0) 0x324.2-0x324.3 (0.1)
  0x000032|            06                                 |    .           |                                      tag: "object_identifier" (0x6) 0x324.3-0x325 (0.5)
  0x000032|               03                              |     .          |                                      length: 3 0x325-0x326 (1)
          |                                               |                |                                      value[0:4]: 0x326-0x329 (3)
  0x000032|                  55                           |      U         |                                        [0]: 2 oid 0x326-0x327 (1)
  0x000032|                  55                           |      U         |                                        [1]: 5 oid 0x326-0x327 (1)
  0x000032|                     1d                        |       .        |                                        [2]: 29 oid 0x327-0x328 (1)
  0x000032|                        11                     |        .       |                                        [3]: 17 oid 0x328-0x329 (1)
          |                                               |                |                                    [1]{}: object 0x329-0x35d (52)
  0x000032|                           04                  |         .      |                                      class: "universal" (0) 0x329-0x329.2 (0.2)
  0x000032|                           04                  |         .      |                                      form: "primitive" (0) 0x329.2-0x329.3 (0.1)
  0x000032|                           04                  |         .      |                                      tag: "octet_string" (0x4) 0x329.3-0x32a (0.5)
  0x000032|                              32               |          2     |                                      length: 50 0x32a-0x32b (1)
  0x000032|                                 30 30 82 10 69|           00..i|                                      value: raw bits 0x32b-0x35d (50)
  0x000033|70 76 36 2e 74 65 73 74 74 6c 73 2e 63 6f 6d 82|pv6.testtls.com.|
  *       |until 0x35c.7 (50)                             |                |
          |                                               |                |                                [7]{}: object 0x35d-0x3ab (78)
  0x000035|                                       30      |             0  |                                  class: "universal" (0) 0x35d-0x35d.2 (0.2)
  0x000035|                                       30      |             0  |                                  form: "constructed" (1) 0x35d.2-0x35d.3 (0.1)
  0x000035|                                       30      |             0  |                                  tag: "sequence" (0x10) 0x35d.3-0x35e (0.5)
  0x000035|                                          4c   |              L |                                  length: 76 0x35e-0x35f (1)
          |                                               |                |                                  constructed[0:2]: 0x35f-0x3ab (76)
          |                                               |                |                                    [0]{}: object 0x35f-0x364 (5)
  0x000035|                                             06|               .|                                      class: "universal" (0) 0x35f-0x35f.2 (0.2)
  0x000035|                                             06|               .|                                      form: "primitive" (0) 0x35f.2-0x35f.3 (0.1)
  0x000035|                                             06|               .|                                      tag: "object_identifier" (0x6) 0x35f.3-0x360 (0.5)
  0x000036|03                                             |.               |                                      length: 3 0x360-0x361 (1)
          |                                               |                |                                      value[0:4]: 0x361-0x364 (3)
  0x000036|   55                                          | U              |                                        [0]: 2 oid 0x361-0x362 (1)
  0x000036|   55                                          | U              |                                        [1]: 5 oid 0x361-0x362 (1)
  0x000036|      1d                                       |  .             |                                        [2]: 29 oid 0x362-0x363 (1)
  0x000036|         20                                    |                |                                        [3]: 32 oid 0x363-0x364 (1)
          |                                               |                |                                    [1]{}: object 0x364-0x3ab (71)
  0x000036|            04                                 |    .           |                                      class: "universal" (0) 0x364-0x364.2 (0.2)
  0x000036|            04                                 |    .           |                                      form: "primitive" (0) 0x364.2-0x364.3 (0.1)
  0x000036|            04                                 |    .           |                                      tag: "octet_string" (0x4) 0x364.3-0x365 (0.5)
  0x000036|               45                              |     E          |                                      length: 69 0x365-0x366 (1)
  0x000036|                  30 43 30 08 06 06 67 81 0c 01|      0C0...g...|                                      value: raw bits 0x366-0x3ab (69)
  0x000037|02 01 30 37 06 0b 2b 06 01 04 01 82 df 13 01 01|..07..+.........|
  *       |until 0x3aa.7 (69)                             |                |
          |                                               |                |                                [8]{}: object 0x3ab-0x4b3 (264)
  0x00003a|                                 30            |           0    |                                  class: "universal" (0) 0x3ab-0x3ab.2 (0.2)
  0x00003a|                                 30            |           0    |                                  form: "constructed" (1) 0x3ab.2-0x3ab.3 (0.1)
  0x00003a|                                 30            |           0    |                                  tag: "sequence" (0x10) 0x3ab.3-0x3ac (0.5)
  0x00003a|                                    82 01 04   |            ... |                                  length: 260 0x3ac-0x3af (3)
          |                                               |                |                                  constructed[0:2]: 0x3af-0x4b3 (260)
          |                                               |                |                                    [0]{}: object 0x3af-0x3bb (12)
  0x00003a|                                             06|               .|                                      class: "universal" (0) 0x3af-0x3af.2 (0.2)
  0x00003a|                                             06|               .|                                      form: "primitive" (0) 0x3af.2-0x3af.3 (0.1)
  0x00003a|                                             06|               .|                                      tag: "object_identifier" (0x6) 0x3af.3-0x3b0 (0.5)
  0x00003b|0a                                             |.               |                                      length: 10 0x3b0-0x3b1 (1)
          |                                               |                |                                      value[0:10]: 0x3b1-0x3bb (10)
  0x00003b|   2b                                          | +              |                                        [0]: 1 oid 0x3b1-0x3b2 (1)
  0x00003b|   2b                                          | +              |                                        [1]: 3 oid 0x3b1-0x3b2 (1)
  0x00003b|      06                                       |  .             |                                        [2]: 6 oid 0x3b2-0x3b3 (1)
  0x00003b|         01                                    |   .            |                                        [3]: 1 oid 0x3b3-0x3b4 (1)
  0x00003b|            04                                 |    .           |                                        [4]: 4 oid 0x3b4-0x3b5 (1)
  0x00003b|               01                              |     .          |                                        [5]: 1 oid 0x3b5-0x3b6 (1)
  0x00003b|                  d6 79                        |      .y        |                                        [6]: 11129 oid 0x3b6-0x3b8 (2)
  0x00003b|                        02                     |        .       |                                        [7]: 2 oid 0x3b8-0x3b9 (1)
  0x00003b|                           04                  |         .      |                                        [8]: 4 oid 0x3b9-0x3ba (1)
  0x00003b|                              02               |          .     |                                        [9]: 2 oid 0x3ba-0x3bb (1)
          |                                               |                |                                    [1]{}: object 0x3bb-0x4b3 (248)
  0x00003b|                                 04            |           .    |                                      class: "universal" (0) 0x3bb-0x3bb.2 (0.2)
  0x00003b|                                 04            |           .    |                                      form: "primitive" (0) 0x3bb.2-0x3bb.3 (0.1)
  0x00003b|                                 04            |           .    |                                      tag: "octet_string" (0x4) 0x3bb.3-0x3bc (0.5)
  0x00003b|                                    81 f5      |            ..  |                                      length: 245 0x3bc-0x3be (2)
  0x00003b|                                          04 81|              ..|                                      value: raw bits 0x3be-0x4b3 (245)
  0x00003c|f2 00 f0 00 76 00 7a 32 8c 54 d8 b7 2d b6 20 ea|....v.z2.T..-. .|
  *       |until 0x4b2.7 (245)                            |                |
          |00 01 02 03 04 05 06 07 08 09 0a 0b 0c 0d 0e 0f|0123456789abcdef|
    0x0000|03 02 05 a0 30 14 06 08 2b 06 01 05 05 07 03 01|....0...+.......|                          value: raw bits 0x0-0x1ff (511)
    *     |until 0x1fe.7 (end) (511)                      |                |
          |                                               |                |                    [1]{}: object 0x4b3-0x4c2 (15)
  0x00004b|         30                                    |   0            |                      class: "universal" (0) 0x4b3-0x4b3.2 (0.2)
  0x00004b|         30                                    |   0            |                      form: "constructed" (1) 0x4b3.2-0x4b3.3 (0.1)
  0x00004b|         30                                    |   0            |                      tag: "sequence" (0x10) 0x4b3.3-0x4b4 (0.5)
  0x00004b|            0d                                 |    .           |                      length: 13 0x4b4-0x4b5 (1)
          |                                               |                |                      constructed[0:2]: 0x4b5-0x4c2 (13)
          |                                               |                |                        [0]{}: object 0x4b5-0x4c0 (11)
  0x00004b|               06                              |     .          |                          class: "universal" (0) 0x4b5-0x4b5.2 (0.2)
  0x00004b|               06                              |     .          |                          form: "primitive" (0) 0x4b5.2-0x4b5.3 (0.1)
  0x00004b|               06                              |     .          |                          tag: "object_identifier" (0x6) 0x4b5.3-0x4b6 (0.5)
  0x00004b|                  09                           |      .         |                          length: 9 0x4b6-0x4b7 (1)
          |                                               |                |                          value[0:7]: 0x4b7-0x4c0 (9)
  0x00004b|                     2a                        |       *        |                            [0]: 1 oid 0x4b7-0x4b8 (1)
  0x00004b|                     2a                        |       *        |                            [1]: 2 oid 0x4b7-0x4b8 (1)
  0x00004b|                        86 48                  |        .H      |                            [2]: 840 oid 0x4b8-0x4ba (2)
  0x00004b|                              86 f7 0d         |          ...   |                            [3]: 113549 oid 0x4ba-0x4bd (3)
  0x00004b|                                       01      |             .  |                            [4]: 1 oid 0x4bd-0x4be (1)
  0x00004b|                                          01   |              . |                            [5]: 1 oid 0x4be-0x4bf (1)
  0x00004b|                                             0b|               .|                            [6]: 11 oid 0x4bf-0x4c0 (1)
          |                                               |                |                        [1]{}: object 0x4c0-0x4c2 (2)
  0x00004c|05                                             |.               |                          class: "universal" (0) 0x4c0-0x4c0.2 (0.2)
  0x00004c|05                                             |.               |                          form: "primitive" (0) 0x4c0.2-0x4c0.3 (0.1)
  0x00004c|05                                             |.               |                          tag: "null" (0x5) 0x4c0.3-0x4c1 (0.5)
  0x00004c|   00                                          | .              |                          length: "indefinite" (0) 0x4c1-0x4c2 (1)
          |                                               |                |                          value: null
          |                                               |                |                    [2]{}: object 0x4c2-0x5c7 (261)
  0x00004c|      03                                       |  .             |                      class: "universal" (0) 0x4c2-0x4c2.2 (0.2)
  0x00004c|      03                                       |  .             |                      form: "primitive" (0) 0x4c2.2-0x4c2.3 (0.1)
  0x00004c|      03                                       |  .             |                      tag: "bit_string" (0x3) 0x4c2.3-0x4c3 (0.5)
  0x00004c|         82 01 01                              |   ...          |                      length: 257 0x4c3-0x4c6 (3)
  0x00004c|                  00                           |      .         |                      unused_bits_count: 0 0x4c6-0x4c7 (1)
  0x00004c|                     1a a6 4e 3f 9a 6a d5 6c da|       ..N?.j.l.|                      value: raw bits 0x4c7-0x5c7 (256)
  0x00004d|1e 76 1a 4a c2 41 00 46 c5 f2 23 16 ec 3d 3d 2c|.v.J.A.F..#..==,|
  *       |until 0x5c6.7 (256)                            |                |
          |                                               |                |              [1]{}: certificate 0x5c7-0xae4 (1309)
  0x00005c|                     00 05 1a                  |       ...      |                length: 1306 0x5c7-0x5ca (3)
          |00 01 02 03 04 05 06 07 08 09 0a 0b 0c 0d 0e 0f|0123456789abcdef|                data{}: (asn1_ber) 0x5ca-0xae4 (1306)
  0x00005c|                              30               |          0     |                  class: "universal" (0) 0x5ca-0x5ca.2 (0.2)
  0x00005c|                              30               |          0     |                  form: "constructed" (1) 0x5ca.2-0x5ca.3 (0.1)
  0x00005c|                              30               |          0     |                  tag: "sequence" (0x10) 0x5ca.3-0x5cb (0.5)
  0x00005c|                                 82 05 16      |           ...  |                  length: 1302 0x5cb-0x5ce (3)
          |                                               |                |                  constructed[0:3]: 0x5ce-0xae4 (1302)
          |                                               |                |                    [0]{}: object 0x5ce-0x8d0 (770)
  0x00005c|                                          30   |              0 |                      class: "universal" (0) 0x5ce-0x5ce.2 (0.2)
  0x00005c|                                          30   |              0 |                      form: "constructed" (1) 0x5ce.2-0x5ce.3 (0.1)
  0x00005c|                                          30   |              0 |                      tag: "sequence" (0x10) 0x5ce.3-0x5cf (0.5)
  0x00005c|                                             82|               .|                      length: 766 0x5cf-0x5d2 (3)
  0x00005d|02 fe                                          |..              |
          |                                               |                |                      constructed[0:8]: 0x5d2-0x8d0 (766)
          |                                               |                |                        [0]{}: object 0x5d2-0x5d7 (5)
  0x00005d|      a0                                       |  .             |                          class: "context" (2) 0x5d2-0x5d2.2 (0.2)
  0x00005d|      a0                                       |  .             |                          form: "constructed" (1) 0x5d2.2-0x5d2.3 (0.1)
  0x00005d|      a0                                       |  .             |                          tag: 0 0x5d2.3-0x5d3 (0.5)
  0x00005d|         03                                    |   .            |                          length: 3 0x5d3-0x5d4 (1)
          |                                               |                |                          constructed[0:1]: 0x5d4-0x5d7 (3)
          |                                               |                |                            [0]{}: object 0x5d4-0x5d7 (3)
  0x00005d|            02                                 |    .           |                              class: "universal" (0) 0x5d4-0x5d4.2 (0.2)
  0x00005d|            02                                 |    .           |                              form: "primitive" (0) 0x5d4.2-0x5d4.3 (0.1)
  0x00005d|            02                                 |    .           |                              tag: "integer" (0x2) 0x5d4.3-0x5d5 (0.5)
  0x00005d|               01                              |     .          |                              length: 1 0x5d5-0x5d6 (1)
  0x00005d|                  02                           |      .         |                              value: 2 0x5d6-0x5d7 (1)
          |                                               |                |                        [1]{}: object 0x5d7-0x5ea (19)
  0x00005d|                     02                        |       .        |                          class: "universal" (0) 0x5d7-0x5d7.2 (0.2)
  0x00005d|                     02                        |       .        |                          form: "primitive" (0) 0x5d7.2-0x5d7.3 (0.1)
  0x00005d|                     02                        |       .        |                          tag: "integer" (0x2) 0x5d7.3-0x5d8 (0.5)
  0x00005d|                        11                     |        .       |                          length: 17 0x5d8-0x5d9 (1)
  0x00005d|                           00 91 2b 08 4a cf 0c|         ..+.J..|                          value: 192961496339968674994309121183282847578 0x5d9-0x5ea (17)
  0x00005e|18 a7 53 f6 d6 2e 25 a7 5f 5a                  |..S...%._Z      |
          |                                               |                |                        [2]{}: object 0x5ea-0x5f9 (15)
  0x00005e|                              30               |          0     |                          class: "universal" (0) 0x5ea-0x5ea.2 (0.2)
  0x00005e|                              30               |          0     |                          form: "constructed" (1) 0x5ea.2-0x5ea.3 (0.1)
  0x00005e|                              30               |          0     |                          tag: "sequence" (0x10) 0x5ea.3-0x5eb (0.5)
  0x00005e|                                 0d            |           .    |                          length: 13 0x5eb-0x5ec (1)
          |                                               |                |                          constructed[0:2]: 0x5ec-0x5f9 (13)
          |                                               |                |                            [0]{}: object 0x5ec-0x5f7 (11)
  0x00005e|                                    06         |            .   |                              class: "universal" (0) 0x5ec-0x5ec.2 (0.2)
  0x00005e|                                    06         |            .   |                              form: "primitive" (0) 0x5ec.2-0x5ec.3 (0.1)
  0x00005e|                                    06         |            .   |                              tag: "object_identifier" (0x6) 0x5ec.3-0x5ed (0.5)
  0x00005e|                                       09      |             .  |                              length: 9 0x5ed-0x5ee (1)
          |                                               |                |                              value[0:7]: 0x5ee-0x5f7 (9)
  0x00005e|                                          2a   |              * |                                [0]: 1 oid 0x5ee-0x5ef (1)
  0x00005e|                                          2a   |              * |                                [1]: 2 oid 0x5ee-0x5ef (1)
  0x00005e|                                             86|               .|                                [2]: 840 oid 0x5ef-0x5f1 (2)
  0x00005f|48                                             |H               |
  0x00005f|   86 f7 0d                                    | ...            |                                [3]: 113549 oid 0x5f1-0x5f4 (3)
  0x00005f|            01                                 |    .           |                                [4]: 1 oid 0x5f4-0x5f5 (1)
  0x00005f|               01                              |     .          |                                [5]: 1 oid 0x5f5-0x5f6 (1)
  0x00005f|                  0b                           |      .         |                                [6]: 11 oid 0x5f6-0x5f7 (1)
          |                                               |                |                            [1]{}: object 0x5f7-0x5f9 (2)
  0x00005f|                     05                        |       .        |                              class: "universal" (0) 0x5f7-0x5f7.2 (0.2)
  0x00005f|                     05                        |       .        |                              form: "primitive" (0) 0x5f7.2-0x5f7.3 (0.1)
  0x00005f|                     05                        |       .        |                              tag: "null" (0x5) 0x5f7.3-0x5f8 (0.5)
  0x00005f|                        00                     |        .       |                              length: "indefinite" (0) 0x5f8-0x5f9 (1)
          |                                               |                |                              value: null
          |                                               |                |                        [3]{}: object 0x5f9-0x64a (81)
  0x00005f|                           30                  |         0      |                          class: "universal" (0) 0x5f9-0x5f9.2 (0.2)
  0x00005f|                           30                  |         0      |                          form: "constructed" (1) 0x5f9.2-0x5f9.3 (0.1)
  0x00005f|                           30                  |         0      |                          tag: "sequence" (0x10) 0x5f9.3-0x5fa (0.5)
  0x00005f|                              4f               |          O     |                          length: 79 0x5fa-0x5fb (1)
          |                                               |                |                          constructed[0:3]: 0x5fb-0x64a (79)
          |                                               |                |                            [0]{}: object 0x5fb-0x608 (13)
  0x00005f|                                 31            |           1    |                              class: "universal" (0) 0x5fb-0x5fb.2 (0.2)
  0x00005f|                                 31            |           1    |                              form: "constructed" (1) 0x5fb.2-0x5fb.3 (0.1)
  0x00005f|                                 31            |           1    |                              tag: "set" (0x11) 0x5fb.3-0x5fc (0.5)
  0x00005f|                                    0b         |            .   |                              length: 11 0x5fc-0x5fd (1)
          |                                               |                |                              constructed[0:1]: 0x5fd-0x608 (11)
          |                                               |                |                                [0]{}: object 0x5fd-0x608 (11)
  0x00005f|                                       30      |             0  |                                  class: "universal" (0) 0x5fd-0x5fd.2 (0.2)
  0x00005f|                                       30      |             0  |                                  form: "constructed" (1) 0x5fd.2-0x5fd.3 (0.1)
  0x00005f|                                       30      |             0  |                                  tag: "sequence" (0x10) 0x5fd.3-0x5fe (0.5)
  0x00005f|                                          09   |              . |                                  length: 9 0x5fe-0x5ff (1)
          |                                               |                |                                  constructed[0:2]: 0x5ff-0x608 (9)
          |                                               |                |                                    [0]{}: object 0x5ff-0x604 (5)
  0x00005f|                                             06|               .|                                      class: "universal" (0) 0x5ff-0x5ff.2 (0.2)
  0x00005f|                                             06|               .|                                      form: "primitive" (0) 0x5ff.2-0x5ff.3 (0.1)
  0x00005f|                                             06|               .|                                      tag: "object_identifier" (0x6) 0x5ff.3-0x600 (0.5)
  0x000060|03                                             |.               |                                      length: 3 0x600-0x601 (1)
          |                                               |                |                                      value[0:4]: 0x601-0x604 (3)
  0x000060|   55                                          | U              |                                        [0]: 2 oid 0x601-0x602 (1)
  0x000060|   55                                          | U              |                                        [1]: 5 oid 0x601-0x602 (1)
  0x000060|      04                                       |  .             |                                        [2]: 4 oid 0x602-0x603 (1)
  0x000060|         06                                    |   .            |                                        [3]: 6 oid 0x603-0x604 (1)
          |                                               |                |                                    [1]{}: object 0x604-0x608 (4)
  0x000060|            13                                 |    .           |                                      class: "universal" (0) 0x604-0x604.2 (0.2)
  0x000060|            13                                 |    .           |                                      form: "primitive" (0) 0x604.2-0x604.3 (0.1)
  0x000060|            13                                 |    .           |                                      tag: "printable_string" (0x13) 0x604.3-0x605 (0.5)
  0x000060|               02                              |     .          |                                      length: 2 0x605-0x606 (1)
  0x000060|                  55 53                        |      US        |                                      value: "US" 0x606-0x608 (2)
          |                                               |                |                            [1]{}: object 0x608-0x633 (43)
  0x000060|                        31                     |        1       |                              class: "universal" (0) 0x608-0x608.2 (0.2)
  0x000060|                        31                     |        1       |                              form: "constructed" (1) 0x608.2-0x608.3 (0.1)
  0x000060|                        31                     |        1       |                              tag: "set" (0x11) 0x608.3-0x609 (0.5)
  0x000060|                           29                  |         )      |                              length: 41 0x609-0x60a (1)
          |                                               |                |                              constructed[0:1]: 0x60a-0x633 (41)
          |                                               |                |                                [0]{}: object 0x60a-0x633 (41)
  0x000060|                              30               |          0     |                                  class: "universal" (0) 0x60a-0x60a.2 (0.2)
  0x000060|                              30               |          0     |                                  form: "constructed" (1) 0x60a.2-0x60a.3 (0.1)
  0x000060|                              30               |          0     |                                  tag: "sequence" (0x10) 0x60a.3-0x60b (0.5)
  0x000060|                                 27            |           '    |                                  length: 39 0x60b-0x60c (1)
          |                                               |                |                                  constructed[0:2]: 0x60c-0x633 (39)
          |                                               |                |                                    [0]{}: object 0x60c-0x611 (5)
  0x000060|                                    06         |            .   |                                      class: "universal" (0) 0x60c-0x60c.2 (0.2)
  0x000060|                                    06         |            .   |                                      form: "primitive" (0) 0x60c.2-0x60c.3 (0.1)
  0x000060|                                    06         |            .   |                                      tag: "object_identifier" (0x6) 0x60c.3-0x60d (0.5)
  0x000060|                                       03      |             .  |                                      length: 3 0x60d-0x60e (1)
          |                                               |                |                                      value[0:4]: 0x60e-0x611 (3)
  0x000060|                                          55   |              U |                                        [0]: 2 oid 0x60e-0x60f (1)
  0x000060|                                          55   |              U |                                        [1]: 5 oid 0x60e-0x60f (1)
  0x000060|                                             04|               .|                                        [2]: 4 oid 0x60f-0x610 (1)
  0x000061|0a                                             |.               |                                        [3]: 10 oid 0x610-0x611 (1)
          |                                               |                |                                    [1]{}: object 0x611-0x633 (34)
  0x000061|   13                                          | .              |                                      class: "universal" (0) 0x611-0x611.2 (0.2)
  0x000061|   13                                          | .              |                                      form: "primitive" (0) 0x611.2-0x611.3 (0.1)
  0x000061|   13                                          | .              |                                      tag: "printable_string" (0x13) 0x611.3-0x612 (0.5)
  0x000061|      20                                       |                |                                      length: 32 0x612-0x613 (1)
  0x000061|         49 6e 74 65 72 6e 65 74 20 53 65 63 75|   Internet Secu|                                      value: "Internet Security Research Group" 0x613-0x633 (32)
  0x000062|72 69 74 79 20 52 65 73 65 61 72 63 68 20 47 72|rity Research Gr|
  0x000063|6f 75 70                                       |oup             |
          |                                               |                |                            [2]{}: object 0x633-0x64a (23)
  0x000063|         31                                    |   1            |                              class: "universal" (0) 0x633-0x633.2 (0.2)
  0x000063|         31                                    |   1            |                              form: "constructed" (1) 0x633.2-0x633.3 (0.1)
  0x000063|         31                                    |   1            |                              tag: "set" (0x11) 0x633.3-0x634 (0.5)
  0x000063|            15                                 |    .           |                              length: 21 0x634-0x635 (1)
          |                                               |                |                              constructed[0:1]: 0x635-0x64a (21)
          |                                               |                |                                [0]{}: object 0x635-0x64a (21)
  0x000063|               30                              |     0          |                                  class: "universal" (0) 0x635-0x635.2 (0.2)
  0x000063|               30                              |     0          |                                  form: "constructed" (1) 0x635.2-0x635.3 (0.1)
  0x000063|               30                              |     0          |                                  tag: "sequence" (0x10) 0x635.3-0x636 (0.5)
  0x000063|                  13                           |      .         |                                  length: 19 0x636-0x637 (1)
          |                                               |                |                                  constructed[0:2]: 0x637-0x64a (19)
          |                                               |                |                                    [0]{}: object 0x637-0x63c (5)
  0x000063|                     06                        |       .        |                                      class: "universal" (0) 0x637-0x637.2 (0.2)
  0x000063|                     06                        |       .        |                                      form: "primitive" (0) 0x637.2-0x637.3 (0.1)
  0x000063|                     06                        |       .        |                                      tag: "object_identifier" (0x6) 0x637.3-0x638 (0.5)
  0x000063|                        03                     |        .       |                                      length: 3 0x638-0x639 (1)
          |                                               |                |                                      value[0:4]: 0x639-0x63c (3)
  0x000063|                           55                  |         U      |                                        [0]: 2 oid 0x639-0x63a (1)
  0x000063|                           55                  |         U      |                                        [1]: 5 oid 0x639-0x63a (1)
  0x000063|                              04               |          .     |                                        [2]: 4 oid 0x63a-0x63b (1)
  0x000063|                                 03            |           .    |                                        [3]: 3 oid 0x63b-0x63c (1)
          |                                               |                |                                    [1]{}: object 0x63c-0x64a (14)
  0x000063|                                    13         |            .   |                                      class: "universal" (0) 0x63c-0x63c.2 (0.2)
  0x000063|                                    13         |            .   |                                      form: "primitive" (0) 0x63c.2-0x63c.3 (0.1)
  0x000063|                                    13         |            .   |                                      tag: "printable_string" (0x13) 0x63c.3-0x63d (0.5)
  0x000063|                                       0c      |             .  |                                      length: 12 0x63d-0x63e (1)
  0x000063|                                          49 53|              IS|                                      value: "ISRG Root X1" 0x63e-0x64a (12)
  0x000064|52 47 20 52 6f 6f 74 20 58 31                  |RG Root X1      |
          |                                               |                |                        [4]{}: object 0x64a-0x66a (32)
  0x000064|                              30               |          0     |                          class: "universal" (0) 0x64a-0x64a.2 (0.2)
  0x000064|                              30               |          0     |                          form: "constructed" (1) 0x64a.2-0x64a.3 (0.1)
  0x000064|                              30               |          0     |                          tag: "sequence" (0x10) 0x64a.3-0x64b (0.5)
  0x000064|                                 1e            |           .    |                          length: 30 0x64b-0x64c (1)
          |                                               |                |                          constructed[0:2]: 0x64c-0x66a (30)
          |                                               |                |                            [0]{}: object 0x64c-0x65b (15)
  0x000064|                                    17         |            .   |                              class: "universal" (0) 0x64c-0x64c.2 (0.2)
  0x000064|                                    17         |            .   |                              form: "primitive" (0) 0x64c.2-0x64c.3 (0.1)
  0x000064|                                    17         |            .   |                              tag: "utc_time" (0x17) 0x64c.3-0x64d (0.5)
  0x000064|                                       0d      |             .  |                              length: 13 0x64d-0x64e (1)
  0x000064|                                          32 30|              20|                              value: "200904000000Z" 0x64e-0x65b (13)
  0x000065|30 39 30 34 30 30 30 30 30 30 5a               |0904000000Z     |
          |                                               |                |                            [1]{}: object 0x65b-0x66a (15)
  0x000065|                                 17            |           .    |                              class: "universal" (0) 0x65b-0x65b.2 (0.2)
  0x000065|                                 17            |           .    |                              form: "primitive" (0) 0x65b.2-0x65b.3 (0.1)
  0x000065|                                 17            |           .    |                              tag: "utc_time" (0x17) 0x65b.3-0x65c (0.5)
  0x000065|                                    0d         |            .   |                              length: 13 0x65c-0x65d (1)
  0x000065|                                       32 35 30|             250|                              value: "250915160000Z" 0x65d-0x66a (13)
  0x000066|39 31 35 31 36 30 30 30 30 5a                  |915160000Z      |
          |                                               |                |                        [5]{}: object 0x66a-0x69e (52)
  0x000066|                              30               |          0     |                          class: "universal" (0) 0x66a-0x66a.2 (0.2)
  0x000066|                              30               |          0     |                          form: "constructed" (1) 0x66a.2-0x66a.3 (0.1)
  0x000066|                              30               |          0     |                          tag: "sequence" (0x10) 0x66a.3-0x66b (0.5)
  0x000066|                                 32            |           2    |                          length: 50 0x66b-0x66c (1)
          |                                               |                |                          constructed[0:3]: 0x66c-0x69e (50)
          |                                               |                |                            [0]{}: object 0x66c-0x679 (13)
  0x000066|                                    31         |            1   |                              class: "universal" (0) 0x66c-0x66c.2 (0.2)
  0x000066|                                    31         |            1   |                              form: "constructed" (1) 0x66c.2-0x66c.3 (0.1)
  0x000066|                                    31         |            1   |                              tag: "set" (0x11) 0x66c.3-0x66d (0.5)
  0x000066|                                       0b      |             .  |                              length: 11 0x66d-0x66e (1)
          |                                               |                |                              constructed[0:1]: 0x66e-0x679 (11)
          |                                               |                |                                [0]{}: object 0x66e-0x679 (11)
  0x000066|                                          30   |              0 |                                  class: "universal" (0) 0x66e-0x66e.2 (0.2)
  0x000066|                                          30   |              0 |                                  form: "constructed" (1) 0x66e.2-0x66e.3 (0.1)
  0x000066|                                          30   |              0 |                                  tag: "sequence" (0x10) 0x66e.3-0x66f (0.5)
  0x000066|                                             09|               .|                                  length: 9 0x66f-0x670 (1)
          |                                               |                |                                  constructed[0:2]: 0x670-0x679 (9)
          |                                               |                |                                    [0]{}: object 0x670-0x675 (5)
  0x000067|06                                             |.               |                                      class: "universal" (0) 0x670-0x670.2 (0.2)
  0x000067|06                                             |.               |                                      form: "primitive" (0) 0x670.2-0x670.3 (0.1)
  0x000067|06                                             |.               |                                      tag: "object_identifier" (0x6) 0x670.3-0x671 (0.5)
  0x000067|   03                                          | .              |                                      length: 3 0x671-0x672 (1)
          |                                               |                |                                      value[0:4]: 0x672-0x675 (3)
  0x000067|      55                                       |  U             |                                        [0]: 2 oid 0x672-0x673 (1)
  0x000067|      55                                       |  U             |                                        [1]: 5 oid 0x672-0x673 (1)
  0x000067|         04                                    |   .            |                                        [2]: 4 oid 0x673-0x674 (1)
  0x000067|            06                                 |    .           |                                        [3]: 6 oid 0x674-0x675 (1)
          |                                               |                |                                    [1]{}: object 0x675-0x679 (4)
  0x000067|               13                              |     .          |                                      class: "universal" (0) 0x675-0x675.2 (0.2)
  0x000067|               13                              |     .          |                                      form: "primitive" (0) 0x675.2-0x675.3 (0.1)
  0x000067|               13                              |     .          |                                      tag: "printable_string" (0x13) 0x675.3-0x676 (0.5)
  0x000067|                  02                           |      .         |                                      length: 2 0x676-0x677 (1)
  0x000067|                     55 53                     |       US       |                                      value: "US" 0x677-0x679 (2)
          |                                               |                |                            [1]{}: object 0x679-0x691 (24)
  0x000067|                           31                  |         1      |                              class: "universal" (0) 0x679-0x679.2 (0.2)
  0x000067|                           31                  |         1      |                              form: "constructed" (1) 0x679.2-0x679.3 (0.1)
  0x000067|                           31                  |         1      |                              tag: "set" (0x11) 0x679.3-0x67a (0.5)
  0x000067|                              16               |          .     |                              length: 22 0x67a-0x67b (1)
          |                                               |                |                              constructed[0:1]: 0x67b-0x691 (22)
          |                                               |                |                                [0]{}: object 0x67b-0x691 (22)
  0x000067|                                 30            |           0    |                                  class: "universal" (0) 0x67b-0x67b.2 (0.2)
  0x000067|                                 30            |           0    |                                  form: "constructed" (1) 0x67b.2-0x67b.3 (0.1)
  0x000067|                                 30            |           0    |                                  tag: "sequence" (0x10) 0x67b.3-0x67c (0.5)
  0x000067|                                    14         |            .   |                                  length: 20 0x67c-0x67d (1)
          |                                               |                |                                  constructed[0:2]: 0x67d-0x691 (20)
          |                                               |                |                                    [0]{}: object 0x67d-0x682 (5)
  0x000067|                                       06      |             .  |                                      class: "universal" (0) 0x67d-0x67d.2 (0.2)
  0x000067|                                       06      |             .  |                                      form: "primitive" (0) 0x67d.2-0x67d.3 (0.1)
  0x000067|                                       06      |             .  |                                      tag: "object_identifier" (0x6) 0x67d.3-0x67e (0.5)
  0x000067|                                          03   |              . |                                      length: 3 0x67e-0x67f (1)
          |                                               |                |                                      value[0:4]: 0x67f-0x682 (3)
  0x000067|                                             55|               U|                                        [0]: 2 oid 0x67f-0x680 (1)
  0x000067|                                             55|               U|                                        [1]: 5 oid 0x67f-0x680 (1)
  0x000068|04                                             |.               |                                        [2]: 4 oid 0x680-0x681 (1)
  0x000068|   0a                                          | .              |                                        [3]: 10 oid 0x681-0x682 (1)
          |                                               |                |                                    [1]{}: object 0x682-0x691 (15)
  0x000068|      13                                       |  .             |                                      class: "universal" (0) 0x682-0x682.2 (0.2)
  0x000068|      13                                       |  .             |                                      form: "primitive" (0) 0x682.2-0x682.3 (0.1)
  0x000068|      13                                       |  .             |                                      tag: "printable_string" (0x13) 0x682.3-0x683 (0.5)
  0x000068|         0d                                    |   .            |                                      length: 13 0x683-0x684 (1)
  0x000068|            4c 65 74 27 73 20 45 6e 63 72 79 70|    Let's Encryp|                                      value: "Let's Encrypt" 0x684-0x691 (13)
  0x000069|74                                             |t               |
          |                                               |                |                            [2]{}: object 0x691-0x69e (13)
  0x000069|   31                                          | 1              |                              class: "universal" (0) 0x691-0x691.2 (0.2)
  0x000069|   31                                          | 1              |                              form: "constructed" (1) 0x691.2-0x691.3 (0.1)
  0x000069|   31                                          | 1              |                              tag: "set" (0x11) 0x691.3-0x692 (0.5)
  0x000069|      0b                                       |  .             |                              length: 11 0x692-0x693 (1)
          |                                               |                |                              constructed[0:1]: 0x693-0x69e (11)
          |                                               |                |                                [0]{}: object 0x693-0x69e (11)
  0x000069|         30                                    |   0            |                                  class: "universal" (0) 0x693-0x693.2 (0.2)
  0x000069|         30                                    |   0            |                                  form: "constructed" (1) 0x693.2-0x693.3 (0.1)
  0x000069|         30                                    |   0            |                                  tag: "sequence" (0x10) 0x693.3-0x694 (0.5)
  0x000069|            09                                 |    .           |                                  length: 9 0x694-0x695 (1)
          |                                               |                |                                  constructed[0:2]: 0x695-0x69e (9)
          |                                               |                |                                    [0]{}: object 0x695-0x69a (5)
  0x000069|               06                              |     .          |                                      class: "universal" (0) 0x695-0x695.2 (0.2)
  0x000069|               06                              |     .          |                                      form: "primitive" (0) 0x695.2-0x695.3 (0.1)
  0x000069|               06                              |     .          |                                      tag: "object_identifier" (0x6) 0x695.3-0x696 (0.5)
  0x000069|                  03                           |      .         |                                      length: 3 0x696-0x697 (1)
          |                                               |                |                                      value[0:4]: 0x697-0x69a (3)
  0x000069|                     55                        |       U        |                                        [0]: 2 oid 0x697-0x698 (1)
  0x000069|                     55                        |       U        |                                        [1]: 5 oid 0x697-0x698 (1)
  0x000069|                        04                     |        .       |                                        [2]: 4 oid 0x698-0x699 (1)
  0x000069|                           03                  |         .      |                                        [3]: 3 oid 0x699-0x69a (1)
          |                                               |                |                                    [1]{}: object 0x69a-0x69e (4)
  0x000069|                              13               |          .     |                                      class: "universal" (0) 0x69a-0x69a.2 (0.2)
  0x000069|                              13               |          .     |                                      form: "primitive" (0) 0x69a.2-0x69a.3 (0.1)
  0x000069|                              13               |          .     |                                      tag: "printable_string" (0x13) 0x69a.3-0x69b (0.5)
  0x000069|                                 02            |           .    |                                      length: 2 0x69b-0x69c (1)
  0x000069|                                    52 33      |            R3  |                                      value: "R3" 0x69c-0x69e (2)
          |                                               |                |                        [6]{}: object 0x69e-0x7c4 (294)
  0x000069|                                          30   |              0 |                          class: "universal" (0) 0x69e-0x69e.2 (0.2)
  0x000069|                                          30   |              0 |                          form: "constructed" (1) 0x69e.2-0x69e.3 (0.1)
  0x000069|                                          30   |              0 |                          tag: "sequence" (0x10) 0x69e.3-0x69f (0.5)
  0x000069|                                             82|               .|                          length: 290 0x69f-0x6a2 (3)
  0x00006a|01 22                                          |."              |
          |                                               |                |                          constructed[0:2]: 0x6a2-0x7c4 (290)
          |                                               |                |                            [0]{}: object 0x6a2-0x6b1 (15)
  0x00006a|      30                                       |  0             |                              class: "universal" (0) 0x6a2-0x6a2.2 (0.2)
  0x00006a|      30                                       |  0             |                              form: "constructed" (1) 0x6a2.2-0x6a2.3 (0.1)
  0x00006a|      30                                       |  0             |                              tag: "sequence" (0x10) 0x6a2.3-0x6a3 (0.5)
  0x00006a|         0d                                    |   .            |                              length: 13 0x6a3-0x6a4 (1)
          |                                               |                |                              constructed[0:2]: 0x6a4-0x6b1 (13)
          |                                               |                |                                [0]{}: object 0x6a4-0x6af (11)
  0x00006a|            06                                 |    .           |                                  class: "universal" (0) 0x6a4-0x6a4.2 (0.2)
  0x00006a|            06                                 |    .           |                                  form: "primitive" (0) 0x6a4.2-0x6a4.3 (0.1)
  0x00006a|            06                                 |    .           |                                  tag: "object_identifier" (0x6) 0x6a4.3-0x6a5 (0.5)
  0x00006a|               09                              |     .          |                                  length: 9 0x6a5-0x6a6 (1)
          |                                               |                |                                  value[0:7]: 0x6a6-0x6af (9)
  0x00006a|                  2a                           |      *         |                                    [0]: 1 oid 0x6a6-0x6a7 (1)
  0x00006a|                  2a                           |      *         |                                    [1]: 2 oid 0x6a6-0x6a7 (1)
  0x00006a|                     86 48                     |       .H       |                                    [2]: 840 oid 0x6a7-0x6a9 (2)
  0x00006a|                           86 f7 0d            |         ...    |                                    [3]: 113549 oid 0x6a9-0x6ac (3)
  0x00006a|                                    01         |            .   |                                    [4]: 1 oid 0x6ac-0x6ad (1)
  0x00006a|                                       01      |             .  |                                    [5]: 1 oid 0x6ad-0x6ae (1)
  0x00006a|                                          01   |              . |                                    [6]: 1 oid 0x6ae-0x6af (1)
          |                                               |                |                                [1]{}: object 0x6af-0x6b1 (2)
  0x00006a|                                             05|               .|                                  class: "universal" (0) 0x6af-0x6af.2 (0.2)
  0x00006a|                                             05|               .|                                  form: "primitive" (0) 0x6af.2-0x6af.3 (0.1)
  0x00006a|                                             05|               .|                                  tag: "null" (0x5) 0x6af.3-0x6b0 (0.5)
  0x00006b|00                                             |.               |                                  length: "indefinite" (0) 0x6b0-0x6b1 (1)
          |                                               |                |                                  value: null
          |                                               |                |                            [1]{}: object 0x6b1-0x7c4 (275)
  0x00006b|   03                                          | .              |                              class: "universal" (0) 0x6b1-0x6b1.2 (0.2)
  0x00006b|   03                                          | .              |                              form: "primitive" (0) 0x6b1.2-0x6b1.3 (0.1)
  0x00006b|   03                                          | .              |                              tag: "bit_string" (0x3) 0x6b1.3-0x6b2 (0.5)
  0x00006b|      82 01 0f                                 |  ...           |                              length: 271 0x6b2-0x6b5 (3)
  0x00006b|               00                              |     .          |                              unused_bits_count: 0 0x6b5-0x6b6 (1)
  0x00006b|                  30 82 01 0a 02 82 01 01 00 bb|      0.........|                              value: raw bits 0x6b6-0x7c4 (270)
  0x00006c|02 15 28 cc f6 a0 94 d3 0f 12 ec 8d 55 92 c3 f8|..(.........U...|
  *       |until 0x7c3.7 (270)                            |                |
          |                                               |                |                        [7]{}: object 0x7c4-0x8d0 (268)
          |00 01 02 03 04 05 06 07 08 09 0a 0b 0c 0d 0e 0f|0123456789abcdef|
    0x0000|03 02 01 86 30 14 06 08 2b 06 01 05 05 07 03 02|....0...+.......|                          value: raw bits 0x0-0xb1 (177)
    *     |until 0xb0.7 (end) (177)                       |                |
  0x00007c|            a3                                 |    .           |                          class: "context" (2) 0x7c4-0x7c4.2 (0.2)
  0x00007c|            a3                                 |    .           |                          form: "constructed" (1) 0x7c4.2-0x7c4.3 (0.1)
  0x00007c|            a3                                 |    .           |                          tag: 3 0x7c4.3-0x7c5 (0.5)
  0x00007c|               82 01 08                        |     ...        |                          length: 264 0x7c5-0x7c8 (3)
          |                                               |                |                          constructed[0:1]: 0x7c8-0x8d0 (264)
          |                                               |                |                            [0]{}: object 0x7c8-0x8d0 (264)
  0x00007c|                        30                     |        0       |                              class: "universal" (0) 0x7c8-0x7c8.2 (0.2)
  0x00007c|                        30                     |        0       |                              form: "constructed" (1) 0x7c8.2-0x7c8.3 (0.1)
  0x00007c|                        30                     |        0       |                              tag: "sequence" (0x10) 0x7c8.3-0x7c9 (0.5)
  0x00007c|                           82 01 04            |         ...    |                              length: 260 0x7c9-0x7cc (3)
          |                                               |                |                              constructed[0:8]: 0x7cc-0x8d0 (260)
          |                                               |                |                                [0]{}: object 0x7cc-0x7dc (16)
  0x00007c|                                    30         |            0   |                                  class: "universal" (0) 0x7cc-0x7cc.2 (0.2)
  0x00007c|                                    30         |            0   |                                  form: "constructed" (1) 0x7cc.2-0x7cc.3 (0.1)
  0x00007c|                                    30         |            0   |                                  tag: "sequence" (0x10) 0x7cc.3-0x7cd (0.5)
  0x00007c|                                       0e      |             .  |                                  length: 14 0x7cd-0x7ce (1)
          |                                               |                |                                  constructed[0:3]: 0x7ce-0x7dc (14)
          |                                               |                |                                    [0]{}: object 0x7ce-0x7d3 (5)
  0x00007c|                                          06   |              . |                                      class: "universal" (0) 0x7ce-0x7ce.2 (0.2)
  0x00007c|                                          06   |              . |                                      form: "primitive" (0) 0x7ce.2-0x7ce.3 (0.1)
  0x00007c|                                          06   |              . |                                      tag: "object_identifier" (0x6) 0x7ce.3-0x7cf (0.5)
  0x00007c|                                             03|               .|                                      length: 3 0x7cf-0x7d0 (1)
          |                                               |                |                                      value[0:4]: 0x7d0-0x7d3 (3)
  0x00007d|55                                             |U               |                                        [0]: 2 oid 0x7d0-0x7d1 (1)
  0x00007d|55                                             |U               |                                        [1]: 5 oid 0x7d0-0x7d1 (1)
  0x00007d|   1d                                          | .              |                                        [2]: 29 oid 0x7d1-0x7d2 (1)
  0x00007d|      0f                                       |  .             |                                        [3]: 15 oid 0x7d2-0x7d3 (1)
          |                                               |                |                                    [1]{}: object 0x7d3-0x7d6 (3)
  0x00007d|         01                                    |   .            |                                      class: "universal" (0) 0x7d3-0x7d3.2 (0.2)
  0x00007d|         01                                    |   .            |                                      form: "primitive" (0) 0x7d3.2-0x7d3.3 (0.1)
  0x00007d|         01                                    |   .            |                                      tag: "boolean" (0x1) 0x7d3.3-0x7d4 (0.5)
  0x00007d|            01                                 |    .           |                                      length: 1 0x7d4-0x7d5 (1)
  0x00007d|               ff                              |     .          |                                      value: true (255) 0x7d5-0x7d6 (1)
          |                                               |                |                                    [2]{}: object 0x7d6-0x7dc (6)
  0x00007d|                  04                           |      .         |                                      class: "universal" (0) 0x7d6-0x7d6.2 (0.2)
  0x00007d|                  04                           |      .         |                                      form: "primitive" (0) 0x7d6.2-0x7d6.3 (0.1)
  0x00007d|                  04                           |      .         |                                      tag: "octet_string" (0x4) 0x7d6.3-0x7d7 (0.5)
  0x00007d|                     04                        |       .        |                                      length: 4 0x7d7-0x7d8 (1)
  0x00007d|                        03 02 01 86            |        ....    |                                      value: raw bits 0x7d8-0x7dc (4)
          |                                               |                |                                [1]{}: object 0x7dc-0x7fb (31)
  0x00007d|                                    30         |            0   |                                  class: "universal" (0) 0x7dc-0x7dc.2 (0.2)
  0x00007d|                                    30         |            0   |                                  form: "constructed" (1) 0x7dc.2-0x7dc.3 (0.1)
  0x00007d|                                    30         |            0   |                                  tag: "sequence" (0x10) 0x7dc.3-0x7dd (0.5)
  0x00007d|                                       1d      |             .  |                                  length: 29 0x7dd-0x7de (1)
          |                                               |                |                                  constructed[0:2]: 0x7de-0x7fb (29)
          |                                               |                |                                    [0]{}: object 0x7de-0x7e3 (5)
  0x00007d|                                          06   |              . |                                      class: "universal" (0) 0x7de-0x7de.2 (0.2)
  0x00007d|                                          06   |              . |                                      form: "primitive" (0) 0x7de.2-0x7de.3 (0.1)
  0x00007d|                                          06   |              . |                                      tag: "object_identifier" (0x6) 0x7de.3-0x7df (0.5)
  0x00007d|                                             03|               .|                                      length: 3 0x7df-0x7e0 (1)
          |                                               |                |                                      value[0:4]: 0x7e0-0x7e3 (3)
  0x00007e|55                                             |U               |                                        [0]: 2 oid 0x7e0-0x7e1 (1)
  0x00007e|55                                             |U               |                                        [1]: 5 oid 0x7e0-0x7e1 (1)
  0x00007e|   1d                                          | .              |                                        [2]: 29 oid 0x7e1-0x7e2 (1)
  0x00007e|      25                                       |  %             |                                        [3]: 37 oid 0x7e2-0x7e3 (1)
          |                                               |                |                                    [1]{}: object 0x7e3-0x7fb (24)
  0x00007e|         04                                    |   .            |                                      class: "universal" (0) 0x7e3-0x7e3.2 (0.2)
  0x00007e|         04                                    |   .            |                                      form: "primitive" (0) 0x7e3.2-0x7e3.3 (0.1)
  0x00007e|         04                                    |   .            |                                      tag: "octet_string" (0x4) 0x7e3.3-0x7e4 (0.5)
  0x00007e|            16                                 |    .           |                                      length: 22 0x7e4-0x7e5 (1)
  0x00007e|               30 14 06 08 2b 06 01 05 05 07 03|     0...+......|                                      value: raw bits 0x7e5-0x7fb (22)
  0x00007f|02 06 08 2b 06 01 05 05 07 03 01               |...+.......     |
          |                                               |                |                                [2]{}: object 0x7fb-0x80f (20)
  0x00007f|                                 30            |           0    |                                  class: "universal" (0) 0x7fb-0x7fb.2 (0.2)
  0x00007f|                                 30            |           0    |                                  form: "constructed" (1) 0x7fb.2-0x7fb.3 (0.1)
  0x00007f|                                 30            |           0    |                                  tag: "sequence" (0x10) 0x7fb.3-0x7fc (0.5)
  0x00007f|                                    12         |            .   |                                  length: 18 0x7fc-0x7fd (1)
          |                                               |                |                                  constructed[0:3]: 0x7fd-0x80f (18)
          |                                               |                |                                    [0]{}: object 0x7fd-0x802 (5)
  0x00007f|                                       06      |             .  |                                      class: "universal" (0) 0x7fd-0x7fd.2 (0.2)
  0x00007f|                                       06      |             .  |                                      form: "primitive" (0) 0x7fd.2-0x7fd.3 (0.1)
  0x00007f|                                       06      |             .  |                                      tag: "object_identifier" (0x6) 0x7fd.3-0x7fe (0.5)
  0x00007f|                                          03   |              . |                                      length: 3 0x7fe-0x7ff (1)
          |                                               |                |                                      value[0:4]: 0x7ff-0x802 (3)
  0x00007f|                                             55|               U|                                        [0]: 2 oid 0x7ff-0x800 (1)
  0x00007f|                                             55|               U|                                        [1]: 5 oid 0x7ff-0x800 (1)
  0x000080|1d                                             |.               |                                        [2]: 29 oid 0x800-0x801 (1)
  0x000080|   13                                          | .              |                                        [3]: 19 oid 0x801-0x802 (1)
          |                                               |                |                                    [1]{}: object 0x802-0x805 (3)
  0x000080|      01                                       |  .             |                                      class: "universal" (0) 0x802-0x802.2 (0.2)
  0x000080|      01                                       |  .             |                                      form: "primitive" (0) 0x802.2-0x802.3 (0.1)
  0x000080|      01                                       |  .             |                                      tag: "boolean" (0x1) 0x802.3-0x803 (0.5)
  0x000080|         01                                    |   .            |                                      length: 1 0x803-0x804 (1)
  0x000080|            ff                                 |    .           |                                      value: true (255) 0x804-0x805 (1)
          |                                               |                |                                    [2]{}: object 0x805-0x80f (10)
  0x000080|               04                              |     .          |                                      class: "universal" (0) 0x805-0x805.2 (0.2)
  0x000080|               04                              |     .          |                                      form: "primitive" (0) 0x805.2-0x805.3 (0.1)
  0x000080|               04                              |     .          |                                      tag: "octet_string" (0x4) 0x805.3-0x806 (0.5)
  0x000080|                  08                           |      .         |                                      length: 8 0x806-0x807 (1)
  0x000080|                     30 06 01 01 ff 02 01 00   |       0....... |                                      value: raw bits 0x807-0x80f (8)
          |                                               |                |                                [3]{}: object 0x80f-0x82e (31)
  0x000080|                                             30|               0|                                  class: "universal" (0) 0x80f-0x80f.2 (0.2)
  0x000080|                                             30|               0|                                  form: "constructed" (1) 0x80f.2-0x80f.3 (0.1)
  0x000080|                                             30|               0|                                  tag: "sequence" (0x10) 0x80f.3-0x810 (0.5)
  0x000081|1d                                             |.               |                                  length: 29 0x810-0x811 (1)
          |                                               |                |                                  constructed[0:2]: 0x811-0x82e (29)
          |                                               |                |                                    [0]{}: object 0x811-0x816 (5)
  0x000081|   06                                          | .              |                                      class: "universal" (0) 0x811-0x811.2 (0.2)
  0x000081|   06                                          | .              |                                      form: "primitive" (0) 0x811.2-0x811.3 (0.1)
  0x000081|   06                                          | .              |                                      tag: "object_identifier" (0x6) 0x811.3-0x812 (0.5)
  0x000081|      03                                       |  .             |                                      length: 3 0x812-0x813 (1)
          |                                               |                |                                      value[0:4]: 0x813-0x816 (3)
  0x000081|         55                                    |   U            |                                        [0]: 2 oid 0x813-0x814 (1)
  0x000081|         55                                    |   U            |                                        [1]: 5 oid 0x813-0x814 (1)
  0x000081|            1d                                 |    .           |                                        [2]: 29 oid 0x814-0x815 (1)
  0x000081|               0e                              |     .          |                                        [3]: 14 oid 0x815-0x816 (1)
          |                                               |                |                                    [1]{}: object 0x816-0x82e (24)
  0x000081|                  04                           |      .         |                                      class: "universal" (0) 0x816-0x816.2 (0.2)
  0x000081|                  04                           |      .         |                                      form: "primitive" (0) 0x816.2-0x816.3 (0.1)
  0x000081|                  04                           |      .         |                                      tag: "octet_string" (0x4) 0x816.3-0x817 (0.5)
  0x000081|                     16                        |       .        |                                      length: 22 0x817-0x818 (1)
  0x000081|                        04 14 14 2e b3 17 b7 58|        .......X|                                      value: raw bits 0x818-0x82e (22)
  0x000082|56 cb ae 50 09 40 e6 1f af 9d 8b 14 c2 c6      |V..P.@........  |
          |                                               |                |                                [4]{}: object 0x82e-0x84f (33)
  0x000082|                                          30   |              0 |                                  class: "universal" (0) 0x82e-0x82e.2 (0.2)
  0x000082|                                          30   |              0 |                                  form: "constructed" (1) 0x82e.2-0x82e.3 (0.1)
  0x000082|                                          30   |              0 |                                  tag: "sequence" (0x10) 0x82e.3-0x82f (0.5)
  0x000082|                                             1f|               .|                                  length: 31 0x82f-0x830 (1)
          |                                               |                |                                  constructed[0:2]: 0x830-0x84f (31)
          |                                               |                |                                    [0]{}: object 0x830-0x835 (5)
  0x000083|06                                             |.               |                                      class: "universal" (0) 0x830-0x830.2 (0.2)
  0x000083|06                                             |.               |                                      form: "primitive" (0) 0x830.2-0x830.3 (0.1)
  0x000083|06                                             |.               |                                      tag: "object_identifier" (0x6) 0x830.3-0x831 (0.5)
  0x000083|   03                                          | .              |                                      length: 3 0x831-0x832 (1)
          |                                               |                |                                      value[0:4]: 0x832-0x835 (3)
  0x000083|      55                                       |  U             |                                        [0]: 2 oid 0x832-0x833 (1)
  0x000083|      55                                       |  U             |                                        [1]: 5 oid 0x832-0x833 (1)
  0x000083|         1d                                    |   .            |                                        [2]: 29 oid 0x833-0x834 (1)
  0x000083|            23                                 |    #           |                                        [3]: 35 oid 0x834-0x835 (1)
          |                                               |                |                                    [1]{}: object 0x835-0x84f (26)
  0x000083|               04                              |     .          |                                      class: "universal" (0) 0x835-0x835.2 (0.2)
  0x000083|               04                              |     .          |                                      form: "primitive" (0) 0x835.2-0x835.3 (0.1)
  0x000083|               04                              |     .          |                                      tag: "octet_string" (0x4) 0x835.3-0x836 (0.5)
  0x000083|                  18                           |      .         |                                      length: 24 0x836-0x837 (1)
  0x000083|                     30 16 80 14 79 b4 59 e6 7b|       0...y.Y.{|                                      value: raw bits 0x837-0x84f (24)
  0x000084|b6 e5 e4 01 73 80 08 88 c8 1a 58 f6 e9 9b 6e   |....s.....X...n |
          |                                               |                |                                [5]{}: object 0x84f-0x883 (52)
  0x000084|                                             30|               0|                                  class: "universal" (0) 0x84f-0x84f.2 (0.2)
  0x000084|                                             30|               0|                                  form: "constructed" (1) 0x84f.2-0x84f.3 (0.1)
  0x000084|                                             30|               0|                                  tag: "sequence" (0x10) 0x84f.3-0x850 (0.5)
  0x000085|32                                             |2               |                                  length: 50 0x850-0x851 (1)
          |                                               |                |                                  constructed[0:2]: 0x851-0x883 (50)
          |                                               |                |                                    [0]{}: object 0x851-0x85b (10)
  0x000085|   06                                          | .              |                                      class: "universal" (0) 0x851-0x851.2 (0.2)
  0x000085|   06                                          | .              |                                      form: "primitive" (0) 0x851.2-0x851.3 (0.1)
  0x000085|   06                                          | .              |                                      tag: "object_identifier" (0x6) 0x851.3-0x852 (0.5)
  0x000085|      08                                       |  .             |                                      length: 8 0x852-0x853 (1)
          |                                               |                |                                      value[0:9]: 0x853-0x85b (8)
  0x000085|         2b                                    |   +            |                                        [0]: 1 oid 0x853-0x854 (1)
  0x000085|         2b                                    |   +            |                                        [1]: 3 oid 0x853-0x854 (1)
  0x000085|            06                                 |    .           |                                        [2]: 6 oid 0x854-0x855 (1)
  0x000085|               01                              |     .          |                                        [3]: 1 oid 0x855-0x856 (1)
  0x000085|                  05                           |      .         |                                        [4]: 5 oid 0x856-0x857 (1)
  0x000085|                     05                        |       .        |                                        [5]: 5 oid 0x857-0x858 (1)
  0x000085|                        07                     |        .       |                                        [6]: 7 oid 0x858-0x859 (1)
  0x000085|                           01                  |         .      |                                        [7]: 1 oid 0x859-0x85a (1)
  0x000085|                              01               |          .     |                                        [8]: 1 oid 0x85a-0x85b (1)
          |                                               |                |                                    [1]{}: object 0x85b-0x883 (40)
  0x000085|                                 04            |           .    |                                      class: "universal" (0) 0x85b-0x85b.2 (0.2)
  0x000085|                                 04            |           .    |                                      form: "primitive" (0) 0x85b.2-0x85b.3 (0.1)
  0x000085|                                 04            |           .    |                                      tag: "octet_string" (0x4) 0x85b.3-0x85c (0.5)
  0x000085|                                    26         |            &   |                                      length: 38 0x85c-0x85d (1)
  0x000085|                                       30 24 30|             0$0|                                      value: raw bits 0x85d-0x883 (38)
  0x000086|22 06 08 2b 06 01 05 05 07 30 02 86 16 68 74 74|"..+.....0...htt|
  *       |until 0x882.7 (38)                             |                |
          |                                               |                |                                [6]{}: object 0x883-0x8ac (41)
  0x000088|         30                                    |   0            |                                  class: "universal" (0) 0x883-0x883.2 (0.2)
  0x000088|         30                                    |   0            |                                  form: "constructed" (1) 0x883.2-0x883.3 (0.1)
  0x000088|         30                                    |   0            |                                  tag: "sequence" (0x10) 0x883.3-0x884 (0.5)
  0x000088|            27                                 |    '           |                                  length: 39 0x884-0x885 (1)
          |                                               |                |                                  constructed[0:2]: 0x885-0x8ac (39)
          |                                               |                |                                    [0]{}: object 0x885-0x88a (5)
  0x000088|               06                              |     .          |                                      class: "universal" (0) 0x885-0x885.2 (0.2)
  0x000088|               06                              |     .          |                                      form: "primitive" (0) 0x885.2-0x885.3 (0.1)
  0x000088|               06                              |     .          |                                      tag: "object_identifier" (0x6) 0x885.3-0x886 (0.5)
  0x000088|                  03                           |      .         |                                      length: 3 0x886-0x887 (1)
          |                                               |                |                                      value[0:4]: 0x887-0x88a (3)
  0x000088|                     55                        |       U        |                                        [0]: 2 oid 0x887-0x888 (1)
  0x000088|                     55                        |       U        |                                        [1]: 5 oid 0x887-0x888 (1)
  0x000088|                        1d                     |        .       |                                        [2]: 29 oid 0x888-0x889 (1)
  0x000088|                           1f                  |         .      |                                        [3]: 31 oid 0x889-0x88a (1)
          |                                               |                |                                    [1]{}: object 0x88a-0x8ac (34)
  0x000088|                              04               |          .     |                                      class: "universal" (0) 0x88a-0x88a.2 (0.2)
  0x000088|                              04               |          .     |                                      form: "primitive" (0) 0x88a.2-0x88a.3 (0.1)
  0x000088|                              04               |          .     |                                      tag: "octet_string" (0x4) 0x88a.3-0x88b (0.5)
  0x000088|                                 20            |                |                                      length: 32 0x88b-0x88c (1)
  0x000088|                                    30 1e 30 1c|            0.0.|                                      value: raw bits 0x88c-0x8ac (32)
  0x000089|a0 1a a0 18 86 16 68 74 74 70 3a 2f 2f 78 31 2e|......http://x1.|
  0x00008a|63 2e 6c 65 6e 63 72 2e 6f 72 67 2f            |c.lencr.org/    |
          |                                               |                |                                [7]{}: object 0x8ac-0x8d0 (36)
  0x00008a|                                    30         |            0   |                                  class: "universal" (0) 0x8ac-0x8ac.2 (0.2)
  0x00008a|                                    30         |            0   |                                  form: "constructed" (1) 0x8ac.2-0x8ac.3 (0.1)
  0x00008a|                                    30         |            0   |                                  tag: "sequence" (0x10) 0x8ac.3-0x8ad (0.5)
  0x00008a|                                       22      |             "  |                                  length: 34 0x8ad-0x8ae (1)
          |                                               |                |                                  constructed[0:2]: 0x8ae-0x8d0 (34)
          |                                               |                |                                    [0]{}: object 0x8ae-0x8b3 (5)
  0x00008a|                                          06   |              . |                                      class: "universal" (0) 0x8ae-0x8ae.2 (0.2)
  0x00008a|                                          06   |              . |                                      form: "primitive" (0) 0x8ae.2-0x8ae.3 (0.1)
  0x00008a|                                          06   |              . |                                      tag: "object_identifier" (0x6) 0x8ae.3-0x8af (0.5)
  0x00008a|                                             03|               .|                                      length: 3 0x8af-0x8b0 (1)
          |                                               |                |                                      value[0:4]: 0x8b0-0x8b3 (3)
  0x00008b|55                                             |U               |                                        [0]: 2 oid 0x8b0-0x8b1 (1)
  0x00008b|55                                             |U               |                                        [1]: 5 oid 0x8b0-0x8b1 (1)
  0x00008b|   1d                                          | .              |                                        [2]: 29 oid 0x8b1-0x8b2 (1)
  0x00008b|      20                                       |                |                                        [3]: 32 oid 0x8b2-0x8b3 (1)
          |                                               |                |                                    [1]{}: object 0x8b3-0x8d0 (29)
  0x00008b|         04                                    |   .            |                                      class: "universal" (0) 0x8b3-0x8b3.2 (0.2)
  0x00008b|         04                                    |   .            |                                      form: "primitive" (0) 0x8b3.2-0x8b3.3 (0.1)
  0x00008b|         04                                    |   .            |                                      tag: "octet_string" (0x4) 0x8b3.3-0x8b4 (0.5)
  0x00008b|            1b                                 |    .           |                                      length: 27 0x8b4-0x8b5 (1)
  0x00008b|               30 19 30 08 06 06 67 81 0c 01 02|     0.0...g....|                                      value: raw bits 0x8b5-0x8d0 (27)
  0x00008c|01 30 0d 06 0b 2b 06 01 04 01 82 df 13 01 01 01|.0...+..........|
          |                                               |                |                    [1]{}: object 0x8d0-0x8df (15)
  0x00008d|30                                             |0               |                      class: "universal" (0) 0x8d0-0x8d0.2 (0.2)
  0x00008d|30                                             |0               |                      form: "constructed" (1) 0x8d0.2-0x8d0.3 (0.1)
  0x00008d|30                                             |0               |                      tag: "sequence" (0x10) 0x8d0.3-0x8d1 (0.5)
  0x00008d|   0d                                          | .              |                      length: 13 0x8d1-0x8d2 (1)
          |                                               |                |                      constructed[0:2]: 0x8d2-0x8df (13)
          |                                               |                |                        [0]{}: object 0x8d2-0x8dd (11)
  0x00008d|      06                                       |  .             |                          class: "universal" (0) 0x8d2-0x8d2.2 (0.2)
  0x00008d|      06                                       |  .             |                          form: "primitive" (0) 0x8d2.2-0x8d2.3 (0.1)
  0x00008d|      06                                       |  .             |                          tag: "object_identifier" (0x6) 0x8d2.3-0x8d3 (0.5)
  0x00008d|         09                                    |   .            |                          length: 9 0x8d3-0x8d4 (1)
          |                                               |                |                          value[0:7]: 0x8d4-0x8dd (9)
  0x00008d|            2a                                 |    *           |                            [0]: 1 oid 0x8d4-0x8d5 (1)
  0x00008d|            2a                                 |    *           |                            [1]: 2 oid 0x8d4-0x8d5 (1)
  0x00008d|               86 48                           |     .H         |                            [2]: 840 oid 0x8d5-0x8d7 (2)
  0x00008d|                     86 f7 0d                  |       ...      |                            [3]: 113549 oid 0x8d7-0x8da (3)
  0x00008d|                              01               |          .     |                            [4]: 1 oid 0x8da-0x8db (1)
  0x00008d|                                 01            |           .    |                            [5]: 1 oid 0x8db-0x8dc (1)
  0x00008d|                                    0b         |            .   |                            [6]: 11 oid 0x8dc-0x8dd (1)
          |                                               |                |                        [1]{}: object 0x8dd-0x8df (2)
  0x00008d|                                       05      |             .  |                          class: "universal" (0) 0x8dd-0x8dd.2 (0.2)
  0x00008d|                                       05      |             .  |                          form: "primitive" (0) 0x8dd.2-0x8dd.3 (0.1)
  0x00008d|                                       05      |             .  |                          tag: "null" (0x5) 0x8dd.3-0x8de (0.5)
  0x00008d|                                          00   |              . |                          length: "indefinite" (0) 0x8de-0x8df (1)
          |                                               |                |                          value: null
          |                                               |                |                    [2]{}: object 0x8df-0xae4 (517)
  0x00008d|                                             03|               .|                      class: "universal" (0) 0x8df-0x8df.2 (0.2)
  0x00008d|                                             03|               .|                      form: "primitive" (0) 0x8df.2-0x8df.3 (0.1)
  0x00008d|                                             03|               .|                      tag: "bit_string" (0x3) 0x8df.3-0x8e0 (0.5)
  0x00008e|82 02 01                                       |...             |                      length: 513 0x8e0-0x8e3 (3)
  0x00008e|         00                                    |   .            |                      unused_bits_count: 0 0x8e3-0x8e4 (1)
  0x00008e|            85 ca 4e 47 3e a3 f7 85 44 85 bc d5|    ..NG>...D...|                      value: raw bits 0x8e4-0xae4 (512)
  0x00008f|67 78 b2 98 63 ad 75 4d 1e 96 3d 33 65 72 54 2d|gx..c.uM..=3erT-|
  *       |until 0xae3.7 (512)                            |                |
          |                                               |                |              [2]{}: certificate 0xae4-0x104b (1383)
  0x0000ae|            00 05 64                           |    ..d         |                length: 1380 0xae4-0xae7 (3)
          |00 01 02 03 04 05 06 07 08 09 0a 0b 0c 0d 0e 0f|0123456789abcdef|                data{}: (asn1_ber) 0xae7-0x104b (1380)
  0x0000ae|                     30                        |       0        |                  class: "universal" (0) 0xae7-0xae7.2 (0.2)
  0x0000ae|                     30                        |       0        |                  form: "constructed" (1) 0xae7.2-0xae7.3 (0.1)
  0x0000ae|                     30                        |       0        |                  tag: "sequence" (0x10) 0xae7.3-0xae8 (0.5)
  0x0000ae|                        82 05 60               |        ..`     |                  length: 1376 0xae8-0xaeb (3)
          |                                               |                |                  constructed[0:3]: 0xaeb-0x104b (1376)
          |                                               |                |                    [0]{}: object 0xaeb-0xf37 (1100)
  0x0000ae|                                 30            |           0    |                      class: "universal" (0) 0xaeb-0xaeb.2 (0.2)
  0x0000ae|                                 30            |           0    |                      form: "constructed" (1) 0xaeb.2-0xaeb.3 (0.1)
  0x0000ae|                                 30            |           0    |                      tag: "sequence" (0x10) 0xaeb.3-0xaec (0.5)
  0x0000ae|                                    82 04 48   |            ..H |                      length: 1096 0xaec-0xaef (3)
          |                                               |                |                      constructed[0:8]: 0xaef-0xf37 (1096)
          |                                               |                |                        [0]{}: object 0xaef-0xaf4 (5)
  0x0000ae|                                             a0|               .|                          class: "context" (2) 0xaef-0xaef.2 (0.2)
  0x0000ae|                                             a0|               .|                          form: "constructed" (1) 0xaef.2-0xaef.3 (0.1)
  0x0000ae|                                             a0|               .|                          tag: 0 0xaef.3-0xaf0 (0.5)
  0x0000af|03                                             |.               |                          length: 3 0xaf0-0xaf1 (1)
          |                                               |                |                          constructed[0:1]: 0xaf1-0xaf4 (3)
          |                                               |                |                            [0]{}: object 0xaf1-0xaf4 (3)
  0x0000af|   02                                          | .              |                              class: "universal" (0) 0xaf1-0xaf1.2 (0.2)
  0x0000af|   02                                          | .              |                              form: "primitive" (0) 0xaf1.2-0xaf1.3 (0.1)
  0x0000af|   02                                          | .              |                              tag: "integer" (0x2) 0xaf1.3-0xaf2 (0.5)
  0x0000af|      01                                       |  .             |                              length: 1 0xaf2-0xaf3 (1)
  0x0000af|         02                                    |   .            |                              value: 2 0xaf3-0xaf4 (1)
          |                                               |                |                        [1]{}: object 0xaf4-0xb06 (18)
  0x0000af|            02                                 |    .           |                          class: "universal" (0) 0xaf4-0xaf4.2 (0.2)
  0x0000af|            02                                 |    .           |                          form: "primitive" (0) 0xaf4.2-0xaf4.3 (0.1)
  0x0000af|            02                                 |    .           |                          tag: "integer" (0x2) 0xaf4.3-0xaf5 (0.5)
  0x0000af|               10                              |     .          |                          length: 16 0xaf5-0xaf6 (1)
  0x0000af|                  40 01 77 21 37 d4 e9 42 b8 ee|      @.w!7..B..|                          value: 85078200265644417569109389142156118711 0xaf6-0xb06 (16)
  0x0000b0|76 aa 3c 64 0a b7                              |v.<d..          |
          |                                               |                |                        [2]{}: object 0xb06-0xb15 (15)
  0x0000b0|                  30                           |      0         |                          class: "universal" (0) 0xb06-0xb06.2 (0.2)
  0x0000b0|                  30                           |      0         |                          form: "constructed" (1) 0xb06.2-0xb06.3 (0.1)
  0x0000b0|                  30                           |      0         |                          tag: "sequence" (0x10) 0xb06.3-0xb07 (0.5)
  0x0000b0|                     0d                        |       .        |                          length: 13 0xb07-0xb08 (1)
          |                                               |                |                          constructed[0:2]: 0xb08-0xb15 (13)
          |                                               |                |                            [0]{}: object 0xb08-0xb13 (11)
  0x0000b0|                        06                     |        .       |                              class: "universal" (0) 0xb08-0xb08.2 (0.2)
  0x0000b0|                        06                     |        .       |                              form: "primitive" (0) 0xb08.2-0xb08.3 (0.1)
  0x0000b0|                        06                     |        .       |                              tag: "object_identifier" (0x6) 0xb08.3-0xb09 (0.5)
  0x0000b0|                           09                  |         .      |                              length: 9 0xb09-0xb0a (1)
          |                                               |                |                              value[0:7]: 0xb0a-0xb13 (9)
  0x0000b0|                              2a               |          *     |                                [0]: 1 oid 0xb0a-0xb0b (1)
  0x0000b0|                              2a               |          *     |                                [1]: 2 oid 0xb0a-0xb0b (1)
  0x0000b0|                                 86 48         |           .H   |                                [2]: 840 oid 0xb0b-0xb0d (2)
  0x0000b0|                                       86 f7 0d|             ...|                                [3]: 113549 oid 0xb0d-0xb10 (3)
  0x0000b1|01                                             |.               |                                [4]: 1 oid 0xb10-0xb11 (1)
  0x0000b1|   01                                          | .              |                                [5]: 1 oid 0xb11-0xb12 (1)
  0x0000b1|      0b                                       |  .             |                                [6]: 11 oid 0xb12-0xb13 (1)
          |                                               |                |                            [1]{}: object 0xb13-0xb15 (2)
  0x0000b1|         05                                    |   .            |                              class: "universal" (0) 0xb13-0xb13.2 (0.2)
  0x0000b1|         05                                    |   .            |                              form: "primitive" (0) 0xb13.2-0xb13.3 (0.1)
  0x0000b1|         05                                    |   .            |                              tag: "null" (0x5) 0xb13.3-0xb14 (0.5)
  0x0000b1|            00                                 |    .           |                              length: "indefinite" (0) 0xb14-0xb15 (1)
          |                                               |                |                              value: null
          |                                               |                |                        [3]{}: object 0xb15-0xb56 (65)
  0x0000b1|               30                              |     0          |                          class: "universal" (0) 0xb15-0xb15.2 (0.2)
  0x0000b1|               30                              |     0          |                          form: "constructed" (1) 0xb15.2-0xb15.3 (0.1)
  0x0000b1|               30                              |     0          |                          tag: "sequence" (0x10) 0xb15.3-0xb16 (0.5)
  0x0000b1|                  3f                           |      ?         |                          length: 63 0xb16-0xb17 (1)
          |                                               |                |                          constructed[0:2]: 0xb17-0xb56 (63)
          |                                               |                |                            [0]{}: object 0xb17-0xb3d (38)
  0x0000b1|                     31                        |       1        |                              class: "universal" (0) 0xb17-0xb17.2 (0.2)
  0x0000b1|                     31                        |       1        |                              form: "constructed" (1) 0xb17.2-0xb17.3 (0.1)
  0x0000b1|                     31                        |       1        |                              tag: "set" (0x11) 0xb17.3-0xb18 (0.5)
  0x0000b1|                        24                     |        $       |                              length: 36 0xb18-0xb19 (1)
          |                                               |                |                              constructed[0:1]: 0xb19-0xb3d (36)
          |                                               |                |                                [0]{}: object 0xb19-0xb3d (36)
  0x0000b1|                           30                  |         0      |                                  class: "universal" (0) 0xb19-0xb19.2 (0.2)
  0x0000b1|                           30                  |         0      |                                  form: "constructed" (1) 0xb19.2-0xb19.3 (0.1)
  0x0000b1|                           30                  |         0      |                                  tag: "sequence" (0x10) 0xb19.3-0xb1a (0.5)
  0x0000b1|                              22               |          "     |                                  length: 34 0xb1a-0xb1b (1)
          |                                               |                |                                  constructed[0:2]: 0xb1b-0xb3d (34)
          |                                               |                |                                    [0]{}: object 0xb1b-0xb20 (5)
  0x0000b1|                                 06            |           .    |                                      class: "universal" (0) 0xb1b-0xb1b.2 (0.2)
  0x0000b1|                                 06            |           .    |                                      form: "primitive" (0) 0xb1b.2-0xb1b.3 (0.1)
  0x0000b1|                                 06            |           .    |                                      tag: "object_identifier" (0x6) 0xb1b.3-0xb1c (0.5)
  0x0000b1|                                    03         |            .   |                                      length: 3 0xb1c-0xb1d (1)
          |                                               |                |                                      value[0:4]: 0xb1d-0xb20 (3)
  0x0000b1|                                       55      |             U  |                                        [0]: 2 oid 0xb1d-0xb1e (1)
  0x0000b1|                                       55      |             U  |                                        [1]: 5 oid 0xb1d-0xb1e (1)
  0x0000b1|                                          04   |              . |                                        [2]: 4 oid 0xb1e-0xb1f (1)
  0x0000b1|                                             0a|               .|                                        [3]: 10 oid 0xb1f-0xb20 (1)
          |                                               |                |                                    [1]{}: object 0xb20-0xb3d (29)
  0x0000b2|13                                             |.               |                                      class: "universal" (0) 0xb20-0xb20.2 (0.2)
  0x0000b2|13                                             |.               |                                      form: "primitive" (0) 0xb20.2-0xb20.3 (0.1)
  0x0000b2|13                                             |.               |                                      tag: "printable_string" (0x13) 0xb20.3-0xb21 (0.5)
  0x0000b2|   1b                                          | .              |                                      length: 27 0xb21-0xb22 (1)
  0x0000b2|      44 69 67 69 74 61 6c 20 53 69 67 6e 61 74|  Digital Signat|                                      value: "Digital Signature Trust Co." 0xb22-0xb3d (27)
  0x0000b3|75 72 65 20 54 72 75 73 74 20 43 6f 2e         |ure Trust Co.   |
          |                                               |                |                            [1]{}: object 0xb3d-0xb56 (25)
  0x0000b3|                                       31      |             1  |                              class: "universal" (0) 0xb3d-0xb3d.2 (0.2)
  0x0000b3|                                       31      |             1  |                              form: "constructed" (1) 0xb3d.2-0xb3d.3 (0.1)
  0x0000b3|                                       31      |             1  |                              tag: "set" (0x11) 0xb3d.3-0xb3e (0.5)
  0x0000b3|                                          17   |              . |                              length: 23 0xb3e-0xb3f (1)
          |                                               |                |                              constructed[0:1]: 0xb3f-0xb56 (23)
          |                                               |                |                                [0]{}: object 0xb3f-0xb56 (23)
  0x0000b3|                                             30|               0|                                  class: "universal" (0) 0xb3f-0xb3f.2 (0.2)
  0x0000b3|                                             30|               0|                                  form: "constructed" (1) 0xb3f.2-0xb3f.3 (0.1)
  0x0000b3|                                             30|               0|                                  tag: "sequence" (0x10) 0xb3f.3-0xb40 (0.5)
  0x0000b4|15                                             |.               |                                  length: 21 0xb40-0xb41 (1)
          |                                               |                |                                  constructed[0:2]: 0xb41-0xb56 (21)
          |                                               |                |                                    [0]{}: object 0xb41-0xb46 (5)
  0x0000b4|   06                                          | .              |                                      class: "universal" (0) 0xb41-0xb41.2 (0.2)
  0x0000b4|   06                                          | .              |                                      form: "primitive" (0) 0xb41.2-0xb41.3 (0.1)
  0x0000b4|   06                                          | .              |                                      tag: "object_identifier" (0x6) 0xb41.3-0xb42 (0.5)
  0x0000b4|      03                                       |  .             |                                      length: 3 0xb42-0xb43 (1)
          |                                               |                |                                      value[0:4]: 0xb43-0xb46 (3)
  0x0000b4|         55                                    |   U            |                                        [0]: 2 oid 0xb43-0xb44 (1)
  0x0000b4|         55                                    |   U            |                                        [1]: 5 oid 0xb43-0xb44 (1)
  0x0000b4|            04                                 |    .           |                                        [2]: 4 oid 0xb44-0xb45 (1)
  0x0000b4|               03                              |     .          |                                        [3]: 3 oid 0xb45-0xb46 (1)
          |                                               |                |                                    [1]{}: object 0xb46-0xb56 (16)
  0x0000b4|                  13                           |      .         |                                      class: "universal" (0) 0xb46-0xb46.2 (0.2)
  0x0000b4|                  13                           |      .         |                                      form: "primitive" (0) 0xb46.2-0xb46.3 (0.1)
  0x0000b4|                  13                           |      .         |                                      tag: "printable_string" (0x13) 0xb46.3-0xb47 (0.5)
  0x0000b4|                     0e                        |       .        |                                      length: 14 0xb47-0xb48 (1)
  0x0000b4|                        44 53 54 20 52 6f 6f 74|        DST Root|                                      value: "DST Root CA X3" 0xb48-0xb56 (14)
  0x0000b5|20 43 41 20 58 33                              | CA X3          |
          |                                               |                |                        [4]{}: object 0xb56-0xb76 (32)
  0x0000b5|                  30                           |      0         |                          class: "universal" (0) 0xb56-0xb56.2 (0.2)
  0x0000b5|                  30                           |      0         |                          form: "constructed" (1) 0xb56.2-0xb56.3 (0.1)
  0x0000b5|                  30                           |      0         |                          tag: "sequence" (0x10) 0xb56.3-0xb57 (0.5)
  0x0000b5|                     1e                        |       .        |                          length: 30 0xb57-0xb58 (1)
          |                                               |                |                          constructed[0:2]: 0xb58-0xb76 (30)
          |                                               |                |                            [0]{}: object 0xb58-0xb67 (15)
  0x0000b5|                        17                     |        .       |                              class: "universal" (0) 0xb58-0xb58.2 (0.2)
  0x0000b5|                        17                     |        .       |                              form: "primitive" (0) 0xb58.2-0xb58.3 (0.1)
  0x0000b5|                        17                     |        .       |                              tag: "utc_time" (0x17) 0xb58.3-0xb59 (0.5)
  0x0000b5|                           0d                  |         .      |                              length: 13 0xb59-0xb5a (1)
  0x0000b5|                              32 31 30 31 32 30|          210120|                              value: "210120191403Z" 0xb5a-0xb67 (13)
  0x0000b6|31 39 31 34 30 33 5a                           |191403Z         |
          |                                               |                |                            [1]{}: object 0xb67-0xb76 (15)
  0x0000b6|                     17                        |       .        |                              class: "universal" (0) 0xb67-0xb67.2 (0.2)
  0x0000b6|                     17                        |       .        |                              form: "primitive" (0) 0xb67.2-0xb67.3 (0.1)
  0x0000b6|                     17                        |       .        |                              tag: "utc_time" (0x17) 0xb67.3-0xb68 (0.5)
  0x0000b6|                        0d                     |        .       |                              length: 13 0xb68-0xb69 (1)
  0x0000b6|                           32 34 30 39 33 30 31|         2409301|                              value: "240930181403Z" 0xb69-0xb76 (13)
  0x0000b7|38 31 34 30 33 5a                              |81403Z          |
          |                                               |                |                        [5]{}: object 0xb76-0xbc7 (81)
  0x0000b7|                  30                           |      0         |                          class: "universal" (0) 0xb76-0xb76.2 (0.2)
  0x0000b7|                  30                           |      0         |                          form: "constructed" (1) 0xb76.2-0xb76.3 (0.1)
  0x0000b7|                  30                           |      0         |                          tag: "sequence" (0x10) 0xb76.3-0xb77 (0.5)
  0x0000b7|                     4f                        |       O        |                          length: 79 0xb77-0xb78 (1)
          |                                               |                |                          constructed[0:3]: 0xb78-0xbc7 (79)
          |                                               |                |                            [0]{}: object 0xb78-0xb85 (13)
  0x0000b7|                        31                     |        1       |                              class: "universal" (0) 0xb78-0xb78.2 (0.2)
  0x0000b7|                        31                     |        1       |                              form: "constructed" (1) 0xb78.2-0xb78.3 (0.1)
  0x0000b7|                        31                     |        1       |                              tag: "set" (0x11) 0xb78.3-0xb79 (0.5)
  0x0000b7|                           0b                  |         .      |                              length: 11 0xb79-0xb7a (1)
          |                                               |                |                              constructed[0:1]: 0xb7a-0xb85 (11)
          |                                               |                |                                [0]{}: object 0xb7a-0xb85 (11)
  0x0000b7|                              30               |          0     |                                  class: "universal" (0) 0xb7a-0xb7a.2 (0.2)
  0x0000b7|                              30               |          0     |                                  form: "constructed" (1) 0xb7a.2-0xb7a.3 (0.1)
  0x0000b7|                              30               |          0     |                                  tag: "sequence" (0x10) 0xb7a.3-0xb7b (0.5)
  0x0000b7|                                 09            |           .    |                                  length: 9 0xb7b-0xb7c (1)
          |                                               |                |                                  constructed[0:2]: 0xb7c-0xb85 (9)
          |                                               |                |                                    [0]{}: object 0xb7c-0xb81 (5)
  0x0000b7|                                    06         |            .   |                                      class: "universal" (0) 0xb7c-0xb7c.2 (0.2)
  0x0000b7|                                    06         |            .   |                                      form: "primitive" (0) 0xb7c.2-0xb7c.3 (0.1)
  0x0000b7|                                    06         |            .   |                                      tag: "object_identifier" (0x6) 0xb7c.3-0xb7d (0.5)
  0x0000b7|                                       03      |             .  |                                      length: 3 0xb7d-0xb7e (1)
          |                                               |                |                                      value[0:4]: 0xb7e-0xb81 (3)
  0x0000b7|                                          55   |              U |                                        [0]: 2 oid 0xb7e-0xb7f (1)
  0x0000b7|                                          55   |              U |                                        [1]: 5 oid 0xb7e-0xb7f (1)
  0x0000b7|                                             04|               .|                                        [2]: 4 oid 0xb7f-0xb80 (1)
  0x0000b8|06                                             |.               |                                        [3]: 6 oid 0xb80-0xb81 (1)
          |                                               |                |                                    [1]{}: object 0xb81-0xb85 (4)
  0x0000b8|   13                                          | .              |                                      class: "universal" (0) 0xb81-0xb81.2 (0.2)
  0x0000b8|   13                                          | .              |                                      form: "primitive" (0) 0xb81.2-0xb81.3 (0.1)
  0x0000b8|   13                                          | .              |                                      tag: "printable_string" (0x13) 0xb81.3-0xb82 (0.5)
  0x0000b8|      02                                       |  .             |                                      length: 2 0xb82-0xb83 (1)
  0x0000b8|         55 53                                 |   US           |                                      value: "US" 0xb83-0xb85 (2)
          |                                               |                |                            [1]{}: object 0xb85-0xbb0 (43)
  0x0000b8|               31                              |     1          |                              class: "universal" (0) 0xb85-0xb85.2 (0.2)
  0x0000b8|               31                              |     1          |                              form: "constructed" (1) 0xb85.2-0xb85.3 (0.1)
  0x0000b8|               31                              |     1          |                              tag: "set" (0x11) 0xb85.3-0xb86 (0.5)
  0x0000b8|                  29                           |      )         |                              length: 41 0xb86-0xb87 (1)
          |                                               |                |                              constructed[0:1]: 0xb87-0xbb0 (41)
          |                                               |                |                                [0]{}: object 0xb87-0xbb0 (41)
  0x0000b8|                     30                        |       0        |                                  class: "universal" (0) 0xb87-0xb87.2 (0.2)
  0x0000b8|                     30                        |       0        |                                  form: "constructed" (1) 0xb87.2-0xb87.3 (0.1)
  0x0000b8|                     30                        |       0        |                                  tag: "sequence" (0x10) 0xb87.3-0xb88 (0.5)
  0x0000b8|                        27                     |        '       |                                  length: 39 0xb88-0xb89 (1)
          |                                               |                |                                  constructed[0:2]: 0xb89-0xbb0 (39)
          |                                               |                |                                    [0]{}: object 0xb89-0xb8e (5)
  0x0000b8|                           06                  |         .      |                                      class: "universal" (0) 0xb89-0xb89.2 (0.2)
  0x0000b8|                           06                  |         .      |                                      form: "primitive" (0) 0xb89.2-0xb89.3 (0.1)
  0x0000b8|                           06                  |         .      |                                      tag: "object_identifier" (0x6) 0xb89.3-0xb8a (0.5)
  0x0000b8|                              03               |          .     |                                      length: 3 0xb8a-0xb8b (1)
          |                                               |                |                                      value[0:4]: 0xb8b-0xb8e (3)
  0x0000b8|                                 55            |           U    |                                        [0]: 2 oid 0xb8b-0xb8c (1)
  0x0000b8|                                 55            |           U    |                                        [1]: 5 oid 0xb8b-0xb8c (1)
  0x0000b8|                                    04         |            .   |                                        [2]: 4 oid 0xb8c-0xb8d (1)
  0x0000b8|                                       0a      |             .  |                                        [3]: 10 oid 0xb8d-0xb8e (1)
          |                                               |                |                                    [1]{}: object 0xb8e-0xbb0 (34)
  0x0000b8|                                          13   |              . |                                      class: "universal" (0) 0xb8e-0xb8e.2 (0.2)
  0x0000b8|                                          13   |              . |                                      form: "primitive" (0) 0xb8e.2-0xb8e.3 (0.1)
  0x0000b8|                                          13   |              . |                                      tag: "printable_string" (0x13) 0xb8e.3-0xb8f (0.5)
  0x0000b8|                                             20|                |                                      length: 32 0xb8f-0xb90 (1)
  0x0000b9|49 6e 74 65 72 6e 65 74 20 53 65 63 75 72 69 74|Internet Securit|                                      value: "Internet Security Research Group" 0xb90-0xbb0 (32)
  0x0000ba|79 20 52 65 73 65 61 72 63 68 20 47 72 6f 75 70|y Research Group|
          |                                               |                |                            [2]{}: object 0xbb0-0xbc7 (23)
  0x0000bb|31                                             |1               |                              class: "universal" (0) 0xbb0-0xbb0.2 (0.2)
  0x0000bb|31                                             |1               |                              form: "constructed" (1) 0xbb0.2-0xbb0.3 (0.1)
  0x0000bb|31                                             |1               |                              tag: "set" (0x11) 0xbb0.3-0xbb1 (0.5)
  0x0000bb|   15                                          | .              |                              length: 21 0xbb1-0xbb2 (1)
          |                                               |                |                              constructed[0:1]: 0xbb2-0xbc7 (21)
          |                                               |                |                                [0]{}: object 0xbb2-0xbc7 (21)
  0x0000bb|      30                                       |  0             |                                  class: "universal" (0) 0xbb2-0xbb2.2 (0.2)
  0x0000bb|      30                                       |  0             |                                  form: "constructed" (1) 0xbb2.2-0xbb2.3 (0.1)
  0x0000bb|      30                                       |  0             |                                  tag: "sequence" (0x10) 0xbb2.3-0xbb3 (0.5)
  0x0000bb|         13                                    |   .            |                                  length: 19 0xbb3-0xbb4 (1)
          |                                               |                |                                  constructed[0:2]: 0xbb4-0xbc7 (19)
          |                                               |                |                                    [0]{}: object 0xbb4-0xbb9 (5)
  0x0000bb|            06                                 |    .           |                                      class: "universal" (0) 0xbb4-0xbb4.2 (0.2)
  0x0000bb|            06                                 |    .           |                                      form: "primitive" (0) 0xbb4.2-0xbb4.3 (0.1)
  0x0000bb|            06                                 |    .           |                                      tag: "object_identifier" (0x6) 0xbb4.3-0xbb5 (0.5)
  0x0000bb|               03                              |     .          |                                      length: 3 0xbb5-0xbb6 (1)
          |                                               |                |                                      value[0:4]: 0xbb6-0xbb9 (3)
  0x0000bb|                  55                           |      U         |                                        [0]: 2 oid 0xbb6-0xbb7 (1)
  0x0000bb|                  55                           |      U         |                                        [1]: 5 oid 0xbb6-0xbb7 (1)
  0x0000bb|                     04                        |       .        |                                        [2]: 4 oid 0xbb7-0xbb8 (1)
  0x0000bb|                        03                     |        .       |                                        [3]: 3 oid 0xbb8-0xbb9 (1)
          |                                               |                |                                    [1]{}: object 0xbb9-0xbc7 (14)
  0x0000bb|                           13                  |         .      |                                      class: "universal" (0) 0xbb9-0xbb9.2 (0.2)
  0x0000bb|                           13                  |         .      |                                      form: "primitive" (0) 0xbb9.2-0xbb9.3 (0.1)
  0x0000bb|                           13                  |         .      |                                      tag: "printable_string" (0x13) 0xbb9.3-0xbba (0.5)
  0x0000bb|                              0c               |          .     |                                      length: 12 0xbba-0xbbb (1)
  0x0000bb|                                 49 53 52 47 20|           ISRG |                                      value: "ISRG Root X1" 0xbbb-0xbc7 (12)
  0x0000bc|52 6f 6f 74 20 58 31                           |Root X1         |
          |                                               |                |                        [6]{}: object 0xbc7-0xded (550)
  0x0000bc|                     30                        |       0        |                          class: "universal" (0) 0xbc7-0xbc7.2 (0.2)
  0x0000bc|                     30                        |       0        |                          form: "constructed" (1) 0xbc7.2-0xbc7.3 (0.1)
  0x0000bc|                     30                        |       0        |                          tag: "sequence" (0x10) 0xbc7.3-0xbc8 (0.5)
  0x0000bc|                        82 02 22               |        .."     |                          length: 546 0xbc8-0xbcb (3)
          |                                               |                |                          constructed[0:2]: 0xbcb-0xded (546)
          |                                               |                |                            [0]{}: object 0xbcb-0xbda (15)
  0x0000bc|                                 30            |           0    |                              class: "universal" (0) 0xbcb-0xbcb.2 (0.2)
  0x0000bc|                                 30            |           0    |                              form: "constructed" (1) 0xbcb.2-0xbcb.3 (0.1)
  0x0000bc|                                 30            |           0    |                              tag: "sequence" (0x10) 0xbcb.3-0xbcc (0.5)
  0x0000bc|                                    0d         |            .   |                              length: 13 0xbcc-0xbcd (1)
          |                                               |                |                              constructed[0:2]: 0xbcd-0xbda (13)
          |                                               |                |                                [0]{}: object 0xbcd-0xbd8 (11)
  0x0000bc|                                       06      |             .  |                                  class: "universal" (0) 0xbcd-0xbcd.2 (0.2)
  0x0000bc|                                       06      |             .  |                                  form: "primitive" (0) 0xbcd.2-0xbcd.3 (0.1)
  0x0000bc|                                       06      |             .  |                                  tag: "object_identifier" (0x6) 0xbcd.3-0xbce (0.5)
  0x0000bc|                                          09   |              . |                                  length: 9 0xbce-0xbcf (1)
          |                                               |                |                                  value[0:7]: 0xbcf-0xbd8 (9)
  0x0000bc|                                             2a|               *|                                    [0]: 1 oid 0xbcf-0xbd0 (1)
  0x0000bc|                                             2a|               *|                                    [1]: 2 oid 0xbcf-0xbd0 (1)
  0x0000bd|86 48                                          |.H              |                                    [2]: 840 oid 0xbd0-0xbd2 (2)
  0x0000bd|      86 f7 0d                                 |  ...           |                                    [3]: 113549 oid 0xbd2-0xbd5 (3)
  0x0000bd|               01                              |     .          |                                    [4]: 1 oid 0xbd5-0xbd6 (1)
  0x0000bd|                  01                           |      .         |                                    [5]: 1 oid 0xbd6-0xbd7 (1)
  0x0000bd|                     01                        |       .        |                                    [6]: 1 oid 0xbd7-0xbd8 (1)
          |                                               |                |                                [1]{}: object 0xbd8-0xbda (2)
  0x0000bd|                        05                     |        .       |                                  class: "universal" (0) 0xbd8-0xbd8.2 (0.2)
  0x0000bd|                        05                     |        .       |                                  form: "primitive" (0) 0xbd8.2-0xbd8.3 (0.1)
  0x0000bd|                        05                     |        .       |                                  tag: "null" (0x5) 0xbd8.3-0xbd9 (0.5)
  0x0000bd|                           00                  |         .      |                                  length: "indefinite" (0) 0xbd9-0xbda (1)
          |                                               |                |                                  value: null
          |                                               |                |                            [1]{}: object 0xbda-0xded (531)
  0x0000bd|                              03               |          .     |                              class: "universal" (0) 0xbda-0xbda.2 (0.2)
  0x0000bd|                              03               |          .     |                              form: "primitive" (0) 0xbda.2-0xbda.3 (0.1)
  0x0000bd|                              03               |          .     |                              tag: "bit_string" (0x3) 0xbda.3-0xbdb (0.5)
  0x0000bd|                                 82 02 0f      |           ...  |                              length: 527 0xbdb-0xbde (3)
  0x0000bd|                                          00   |              . |                              unused_bits_count: 0 0xbde-0xbdf (1)
  0x0000bd|                                             30|               0|                              value: raw bits 0xbdf-0xded (526)
  0x0000be|82 02 0a 02 82 02 01 00 ad e8 24 73 f4 14 37 f3|..........$s..7.|
  *       |until 0xdec.7 (526)                            |                |
          |                                               |                |                        [7]{}: object 0xded-0xf37 (330)
          |00 01 02 03 04 05 06 07 08 09 0a 0b 0c 0d 0e 0f|0123456789abcdef|
    0x0000|30 03 01 01 ff 03 02 01 06 30 3d 30 3b 06 08 2b|0........0=0;..+|                          value: raw bits 0x0-0xf8 (248)
    *     |until 0xf7.7 (end) (248)                       |                |
  0x0000de|                                       a3      |             .  |                          class: "context" (2) 0xded-0xded.2 (0.2)
  0x0000de|                                       a3      |             .  |                          form: "constructed" (1) 0xded.2-0xded.3 (0.1)
  0x0000de|                                       a3      |             .  |                          tag: 3 0xded.3-0xdee (0.5)
  0x0000de|                                          82 01|              ..|                          length: 326 0xdee-0xdf1 (3)
  0x0000df|46                                             |F               |
          |                                               |                |                          constructed[0:1]: 0xdf1-0xf37 (326)
          |                                               |                |                            [0]{}: object 0xdf1-0xf37 (326)
  0x0000df|   30                                          | 0              |                              class: "universal" (0) 0xdf1-0xdf1.2 (0.2)
  0x0000df|   30                                          | 0              |                              form: "constructed" (1) 0xdf1.2-0xdf1.3 (0.1)
  0x0000df|   30                                          | 0              |                              tag: "sequence" (0x10) 0xdf1.3-0xdf2 (0.5)
  0x0000df|      82 01 42                                 |  ..B           |                              length: 322 0xdf2-0xdf5 (3)
          |                                               |                |                              constructed[0:7]: 0xdf5-0xf37 (322)
          |                                               |                |                                [0]{}: object 0xdf5-0xe06 (17)
  0x0000df|               30                              |     0          |                                  class: "universal" (0) 0xdf5-0xdf5.2 (0.2)
  0x0000df|               30                              |     0          |                                  form: "constructed" (1) 0xdf5.2-0xdf5.3 (0.1)
  0x0000df|               30                              |     0          |                                  tag: "sequence" (0x10) 0xdf5.3-0xdf6 (0.5)
  0x0000df|                  0f                           |      .         |                                  length: 15 0xdf6-0xdf7 (1)
          |                                               |                |                                  constructed[0:3]: 0xdf7-0xe06 (15)
          |                                               |                |                                    [0]{}: object 0xdf7-0xdfc (5)
  0x0000df|                     06                        |       .        |                                      class: "universal" (0) 0xdf7-0xdf7.2 (0.2)
  0x0000df|                     06                        |       .        |                                      form: "primitive" (0) 0xdf7.2-0xdf7.3 (0.1)
  0x0000df|                     06                        |       .        |                                      tag: "object_identifier" (0x6) 0xdf7.3-0xdf8 (0.5)
  0x0000df|                        03                     |        .       |                                      length: 3 0xdf8-0xdf9 (1)
          |                                               |                |                                      value[0:4]: 0xdf9-0xdfc (3)
  0x0000df|                           55                  |         U      |                                        [0]: 2 oid 0xdf9-0xdfa (1)
  0x0000df|                           55                  |         U      |                                        [1]: 5 oid 0xdf9-0xdfa (1)
  0x0000df|                              1d               |          .     |                                        [2]: 29 oid 0xdfa-0xdfb (1)
  0x0000df|                                 13            |           .    |                                        [3]: 19 oid 0xdfb-0xdfc (1)
          |                                               |                |                                    [1]{}: object 0xdfc-0xdff (3)
  0x0000df|                                    01         |            .   |                                      class: "universal" (0) 0xdfc-0xdfc.2 (0.2)
  0x0000df|                                    01         |            .   |                                      form: "primitive" (0) 0xdfc.2-0xdfc.3 (0.1)
  0x0000df|                                    01         |            .   |                                      tag: "boolean" (0x1) 0xdfc.3-0xdfd (0.5)
  0x0000df|                                       01      |             .  |                                      length: 1 0xdfd-0xdfe (1)
  0x0000df|                                          ff   |              . |                                      value: true (255) 0xdfe-0xdff (1)
          |                                               |                |                                    [2]{}: object 0xdff-0xe06 (7)
  0x0000df|                                             04|               .|                                      class: "universal" (0) 0xdff-0xdff.2 (0.2)
  0x0000df|                                             04|               .|                                      form: "primitive" (0) 0xdff.2-0xdff.3 (0.1)
  0x0000df|                                             04|               .|                                      tag: "octet_string" (0x4) 0xdff.3-0xe00 (0.5)
  0x0000e0|05                                             |.               |                                      length: 5 0xe00-0xe01 (1)
  0x0000e0|   30 03 01 01 ff                              | 0....          |                                      value: raw bits 0xe01-0xe06 (5)
          |                                               |                |                                [1]{}: object 0xe06-0xe16 (16)
  0x0000e0|                  30                           |      0         |                                  class: "universal" (0) 0xe06-0xe06.2 (0.2)
  0x0000e0|                  30                           |      0         |                                  form: "constructed" (1) 0xe06.2-0xe06.3 (0.1)
  0x0000e0|                  30                           |      0         |                                  tag: "sequence" (0x10) 0xe06.3-0xe07 (0.5)
  0x0000e0|                     0e                        |       .        |                                  length: 14 0xe07-0xe08 (1)
          |                                               |                |                                  constructed[0:3]: 0xe08-0xe16 (14)
          |                                               |                |                                    [0]{}: object 0xe08-0xe0d (5)
  0x0000e0|                        06                     |        .       |                                      class: "universal" (0) 0xe08-0xe08.2 (0.2)
  0x0000e0|                        06                     |        .       |                                      form: "primitive" (0) 0xe08.2-0xe08.3 (0.1)
  0x0000e0|                        06                     |        .       |                                      tag: "object_identifier" (0x6) 0xe08.3-0xe09 (0.5)
  0x0000e0|                           03                  |         .      |                                      length: 3 0xe09-0xe0a (1)
          |                                               |                |                                      value[0:4]: 0xe0a-0xe0d (3)
  0x0000e0|                              55               |          U     |                                        [0]: 2 oid 0xe0a-0xe0b (1)
  0x0000e0|                              55               |          U     |                                        [1]: 5 oid 0xe0a-0xe0b (1)
  0x0000e0|                                 1d            |           .    |                                        [2]: 29 oid 0xe0b-0xe0c (1)
  0x0000e0|                                    0f         |            .   |                                        [3]: 15 oid 0xe0c-0xe0d (1)
          |                                               |                |                                    [1]{}: object 0xe0d-0xe10 (3)
  0x0000e0|                                       01      |             .  |                                      class: "universal" (0) 0xe0d-0xe0d.2 (0.2)
  0x0000e0|                                       01      |             .  |                                      form: "primitive" (0) 0xe0d.2-0xe0d.3 (0.1)
  0x0000e0|                                       01      |             .  |                                      tag: "boolean" (0x1) 0xe0d.3-0xe0e (0.5)
  0x0000e0|                                          01   |              . |                                      length: 1 0xe0e-0xe0f (1)
  0x0000e0|                                             ff|               .|                                      value: true (255) 0xe0f-0xe10 (1)
          |                                               |                |                                    [2]{}: object 0xe10-0xe16 (6)
  0x0000e1|04                                             |.               |                                      class: "universal" (0) 0xe10-0xe10.2 (0.2)
  0x0000e1|04                                             |.               |                                      form: "primitive" (0) 0xe10.2-0xe10.3 (0.1)
  0x0000e1|04                                             |.               |                                      tag: "octet_string" (0x4) 0xe10.3-0xe11 (0.5)
  0x0000e1|   04                                          | .              |                                      length: 4 0xe11-0xe12 (1)
  0x0000e1|      03 02 01 06                              |  ....          |                                      value: raw bits 0xe12-0xe16 (4)
          |                                               |                |                                [2]{}: object 0xe16-0xe63 (77)
  0x0000e1|                  30                           |      0         |                                  class: "universal" (0) 0xe16-0xe16.2 (0.2)
  0x0000e1|                  30                           |      0         |                                  form: "constructed" (1) 0xe16.2-0xe16.3 (0.1)
  0x0000e1|                  30                           |      0         |                                  tag: "sequence" (0x10) 0xe16.3-0xe17 (0.5)
  0x0000e1|                     4b                        |       K        |                                  length: 75 0xe17-0xe18 (1)
          |                                               |                |                                  constructed[0:2]: 0xe18-0xe63 (75)
          |                                               |                |                                    [0]{}: object 0xe18-0xe22 (10)
  0x0000e1|                        06                     |        .       |                                      class: "universal" (0) 0xe18-0xe18.2 (0.2)
  0x0000e1|                        06                     |        .       |                                      form: "primitive" (0) 0xe18.2-0xe18.3 (0.1)
  0x0000e1|                        06                     |        .       |                                      tag: "object_identifier" (0x6) 0xe18.3-0xe19 (0.5)
  0x0000e1|                           08                  |         .      |                                      length: 8 0xe19-0xe1a (1)
          |                                               |                |                                      value[0:9]: 0xe1a-0xe22 (8)
  0x0000e1|                              2b               |          +     |                                        [0]: 1 oid 0xe1a-0xe1b (1)
  0x0000e1|                              2b               |          +     |                                        [1]: 3 oid 0xe1a-0xe1b (1)
  0x0000e1|                                 06            |           .    |                                        [2]: 6 oid 0xe1b-0xe1c (1)
  0x0000e1|                                    01         |            .   |                                        [3]: 1 oid 0xe1c-0xe1d (1)
  0x0000e1|                                       05      |             .  |                                        [4]: 5 oid 0xe1d-0xe1e (1)
  0x0000e1|                                          05   |              . |                                        [5]: 5 oid 0xe1e-0xe1f (1)
  0x0000e1|                                             07|               .|                                        [6]: 7 oid 0xe1f-0xe20 (1)
  0x0000e2|01                                             |.               |                                        [7]: 1 oid 0xe20-0xe21 (1)
  0x0000e2|   01                                          | .              |                                        [8]: 1 oid 0xe21-0xe22 (1)
          |                                               |                |                                    [1]{}: object 0xe22-0xe63 (65)
  0x0000e2|      04                                       |  .             |                                      class: "universal" (0) 0xe22-0xe22.2 (0.2)
  0x0000e2|      04                                       |  .             |                                      form: "primitive" (0) 0xe22.2-0xe22.3 (0.1)
  0x0000e2|      04                                       |  .             |                                      tag: "octet_string" (0x4) 0xe22.3-0xe23 (0.5)
  0x0000e2|         3f                                    |   ?            |                                      length: 63 0xe23-0xe24 (1)
  0x0000e2|            30 3d 30 3b 06 08 2b 06 01 05 05 07|    0=0;..+.....|                                      value: raw bits 0xe24-0xe63 (63)
  0x0000e3|30 02 86 2f 68 74 74 70 3a 2f 2f 61 70 70 73 2e|0../http://apps.|
  *       |until 0xe62.7 (63)                             |                |
          |                                               |                |                                [3]{}: object 0xe63-0xe84 (33)
  0x0000e6|         30                                    |   0            |                                  class: "universal" (0) 0xe63-0xe63.2 (0.2)
  0x0000e6|         30                                    |   0            |                                  form: "constructed" (1) 0xe63.2-0xe63.3 (0.1)
  0x0000e6|         30                                    |   0            |                                  tag: "sequence" (0x10) 0xe63.3-0xe64 (0.5)
  0x0000e6|            1f                                 |    .           |                                  length: 31 0xe64-0xe65 (1)
          |                                               |                |                                  constructed[0:2]: 0xe65-0xe84 (31)
          |                                               |                |                                    [0]{}: object 0xe65-0xe6a (5)
  0x0000e6|               06                              |     .          |                                      class: "universal" (0) 0xe65-0xe65.2 (0.2)
  0x0000e6|               06                              |     .          |                                      form: "primitive" (0) 0xe65.2-0xe65.3 (0.1)
  0x0000e6|               06                              |     .          |                                      tag: "object_identifier" (0x6) 0xe65.3-0xe66 (0.5)
  0x0000e6|                  03                           |      .         |                                      length: 3 0xe66-0xe67 (1)
          |                                               |                |                                      value[0:4]: 0xe67-0xe6a (3)
  0x0000e6|                     55                        |       U        |                                        [0]: 2 oid 0xe67-0xe68 (1)
  0x0000e6|                     55                        |       U        |                                        [1]: 5 oid 0xe67-0xe68 (1)
  0x0000e6|                        1d                     |        .       |                                        [2]: 29 oid 0xe68-0xe69 (1)
  0x0000e6|                           23                  |         #      |                                        [3]: 35 oid 0xe69-0xe6a (1)
          |                                               |                |                                    [1]{}: object 0xe6a-0xe84 (26)
  0x0000e6|                              04               |          .     |                                      class: "universal" (0) 0xe6a-0xe6a.2 (0.2)
  0x0000e6|                              04               |          .     |                                      form: "primitive" (0) 0xe6a.2-0xe6a.3 (0.1)
  0x0000e6|                              04               |          .     |                                      tag: "octet_string" (0x4) 0xe6a.3-0xe6b (0.5)
  0x0000e6|                                 18            |           .    |                                      length: 24 0xe6b-0xe6c (1)
  0x0000e6|                                    30 16 80 14|            0...|                                      value: raw bits 0xe6c-0xe84 (24)
  0x0000e7|c4 a7 b1 a4 7b 2c 71 fa db e1 4b 90 75 ff c4 15|....{,q...K.u...|
  0x0000e8|60 85 89 10                                    |`...            |
          |                                               |                |                                [4]{}: object 0xe84-0xeda (86)
  0x0000e8|            30                                 |    0           |                                  class: "universal" (0) 0xe84-0xe84.2 (0.2)
  0x0000e8|            30                                 |    0           |                                  form: "constructed" (1) 0xe84.2-0xe84.3 (0.1)
  0x0000e8|            30                                 |    0           |                                  tag: "sequence" (0x10) 0xe84.3-0xe85 (0.5)
  0x0000e8|               54                              |     T          |                                  length: 84 0xe85-0xe86 (1)
          |                                               |                |                                  constructed[0:2]: 0xe86-0xeda (84)
          |                                               |                |                                    [0]{}: object 0xe86-0xe8b (5)
  0x0000e8|                  06                           |      .         |                                      class: "universal" (0) 0xe86-0xe86.2 (0.2)
  0x0000e8|                  06                           |      .         |                                      form: "primitive" (0) 0xe86.2-0xe86.3 (0.1)
  0x0000e8|                  06                           |      .         |                                      tag: "object_identifier" (0x6) 0xe86.3-0xe87 (0.5)
  0x0000e8|                     03                        |       .        |                                      length: 3 0xe87-0xe88 (1)
          |                                               |                |                                      value[0:4]: 0xe88-0xe8b (3)
  0x0000e8|                        55                     |        U       |                                        [0]: 2 oid 0xe88-0xe89 (1)
  0x0000e8|                        55                     |        U       |                                        [1]: 5 oid 0xe88-0xe89 (1)
  0x0000e8|                           1d                  |         .      |                                        [2]: 29 oid 0xe89-0xe8a (1)
  0x0000e8|                              20               |                |                                        [3]: 32 oid 0xe8a-0xe8b (1)
          |                                               |                |                                    [1]{}: object 0xe8b-0xeda (79)
  0x0000e8|                                 04            |           .    |                                      class: "universal" (0) 0xe8b-0xe8b.2 (0.2)
  0x0000e8|                                 04            |           .    |                                      form: "primitive" (0) 0xe8b.2-0xe8b.3 (0.1)
  0x0000e8|                                 04            |           .    |                                      tag: "octet_string" (0x4) 0xe8b.3-0xe8c (0.5)
  0x0000e8|                                    4d         |            M   |                                      length: 77 0xe8c-0xe8d (1)
  0x0000e8|                                       30 4b 30|             0K0|                                      value: raw bits 0xe8d-0xeda (77)
  0x0000e9|08 06 06 67 81 0c 01 02 01 30 3f 06 0b 2b 06 01|...g.....0?..+..|
  *       |until 0xed9.7 (77)                             |                |
          |                                               |                |                                [5]{}: object 0xeda-0xf18 (62)
  0x0000ed|                              30               |          0     |                                  class: "universal" (0) 0xeda-0xeda.2 (0.2)
  0x0000ed|                              30               |          0     |                                  form: "constructed" (1) 0xeda.2-0xeda.3 (0.1)
  0x0000ed|                              30               |          0     |                                  tag: "sequence" (0x10) 0xeda.3-0xedb (0.5)
  0x0000ed|                                 3c            |           <    |                                  length: 60 0xedb-0xedc (1)
          |                                               |                |                                  constructed[0:2]: 0xedc-0xf18 (60)
          |                                               |                |                                    [0]{}: object 0xedc-0xee1 (5)
  0x0000ed|                                    06         |            .   |                                      class: "universal" (0) 0xedc-0xedc.2 (0.2)
  0x0000ed|                                    06         |            .   |                                      form: "primitive" (0) 0xedc.2-0xedc.3 (0.1)
  0x0000ed|                                    06         |            .   |                                      tag: "object_identifier" (0x6) 0xedc.3-0xedd (0.5)
  0x0000ed|                                       03      |             .  |                                      length: 3 0xedd-0xede (1)
          |                                               |                |                                      value[0:4]: 0xede-0xee1 (3)
  0x0000ed|                                          55   |              U |                                        [0]: 2 oid 0xede-0xedf (1)
  0x0000ed|                                          55   |              U |                                        [1]: 5 oid 0xede-0xedf (1)
  0x0000ed|                                             1d|               .|                                        [2]: 29 oid 0xedf-0xee0 (1)
  0x0000ee|1f                                             |.               |                                        [3]: 31 oid 0xee0-0xee1 (1)
          |                                               |                |                                    [1]{}: object 0xee1-0xf18 (55)
  0x0000ee|   04                                          | .              |                                      class: "universal" (0) 0xee1-0xee1.2 (0.2)
  0x0000ee|   04                                          | .              |                                      form: "primitive" (0) 0xee1.2-0xee1.3 (0.1)
  0x0000ee|   04                                          | .              |                                      tag: "octet_string" (0x4) 0xee1.3-0xee2 (0.5)
  0x0000ee|      35                                       |  5             |                                      length: 53 0xee2-0xee3 (1)
  0x0000ee|         30 33 30 31 a0 2f a0 2d 86 2b 68 74 74|   0301./.-.+htt|                                      value: raw bits 0xee3-0xf18 (53)
  0x0000ef|70 3a 2f 2f 63 72 6c 2e 69 64 65 6e 74 72 75 73|p://crl.identrus|
  *       |until 0xf17.7 (53)                             |                |
          |                                               |                |                                [6]{}: object 0xf18-0xf37 (31)
  0x0000f1|                        30                     |        0       |                                  class: "universal" (0) 0xf18-0xf18.2 (0.2)
  0x0000f1|                        30                     |        0       |                                  form: "constructed" (1) 0xf18.2-0xf18.3 (0.1)
  0x0000f1|                        30                     |        0       |                                  tag: "sequence" (0x10) 0xf18.3-0xf19 (0.5)
  0x0000f1|                           1d                  |         .      |                                  length: 29 0xf19-0xf1a (1)
          |                                               |                |                                  constructed[0:2]: 0xf1a-0xf37 (29)
          |                                               |                |                                    [0]{}: object 0xf1a-0xf1f (5)
  0x0000f1|                              06               |          .     |                                      class: "universal" (0) 0xf1a-0xf1a.2 (0.2)
  0x0000f1|                              06               |          .     |                                      form: "primitive" (0) 0xf1a.2-0xf1a.3 (0.1)
  0x0000f1|                              06               |          .     |                                      tag: "object_identifier" (0x6) 0xf1a.3-0xf1b (0.5)
  0x0000f1|                                 03            |           .    |                                      length: 3 0xf1b-0xf1c (1)
          |                                               |                |                                      value[0:4]: 0xf1c-0xf1f (3)
  0x0000f1|                                    55         |            U   |                                        [0]: 2 oid 0xf1c-0xf1d (1)
  0x0000f1|                                    55         |            U   |                                        [1]: 5 oid 0xf1c-0xf1d (1)
  0x0000f1|                                       1d      |             .  |                                        [2]: 29 oid 0xf1d-0xf1e (1)
  0x0000f1|                                          0e   |              . |                                        [3]: 14 oid 0xf1e-0xf1f (1)
          |                                               |                |                                    [1]{}: object 0xf1f-0xf37 (24)
  0x0000f1|                                             04|               .|                                      class: "universal" (0) 0xf1f-0xf1f.2 (0.2)
  0x0000f1|                                             04|               .|                                      form: "primitive" (0) 0xf1f.2-0xf1f.3 (0.1)
  0x0000f1|                                             04|               .|                                      tag: "octet_string" (0x4) 0xf1f.3-0xf20 (0.5)
  0x0000f2|16                                             |.               |                                      length: 22 0xf20-0xf21 (1)
  0x0000f2|   04 14 79 b4 59 e6 7b b6 e5 e4 01 73 80 08 88| ..y.Y.{....s...|                                      value: raw bits 0xf21-0xf37 (22)
  0x0000f3|c8 1a 58 f6 e9 9b 6e                           |..X...n         |
          |                                               |                |                    [1]{}: object 0xf37-0xf46 (15)
  0x0000f3|                     30                        |       0        |                      class: "universal" (0) 0xf37-0xf37.2 (0.2)
  0x0000f3|                     30                        |       0        |                      form: "constructed" (1) 0xf37.2-0xf37.3 (0.1)
  0x0000f3|                     30                        |       0        |                      tag: "sequence" (0x10) 0xf37.3-0xf38 (0.5)
  0x0000f3|                        0d                     |        .       |                      length: 13 0xf38-0xf39 (1)
          |                                               |                |                      constructed[0:2]: 0xf39-0xf46 (13)
          |                                               |                |                        [0]{}: object 0xf39-0xf44 (11)
  0x0000f3|                           06                  |         .      |                          class: "universal" (0) 0xf39-0xf39.2 (0.2)
  0x0000f3|                           06                  |         .      |                          form: "primitive" (0) 0xf39.2-0xf39.3 (0.1)
  0x0000f3|                           06                  |         .      |                          tag: "object_identifier" (0x6) 0xf39.3-0xf3a (0.5)
  0x0000f3|                              09               |          .     |                          length: 9 0xf3a-0xf3b (1)
          |                                               |                |                          value[0:7]: 0xf3b-0xf44 (9)
  0x0000f3|                                 2a            |           *    |                            [0]: 1 oid 0xf3b-0xf3c (1)
  0x0000f3|                                 2a            |           *    |                            [1]: 2 oid 0xf3b-0xf3c (1)
  0x0000f3|                                    86 48      |            .H  |                            [2]: 840 oid 0xf3c-0xf3e (2)
  0x0000f3|                                          86 f7|              ..|                            [3]: 113549 oid 0xf3e-0xf41 (3)
  0x0000f4|0d                                             |.               |
  0x0000f4|   01                                          | .              |                            [4]: 1 oid 0xf41-0xf42 (1)
  0x0000f4|      01                                       |  .             |                            [5]: 1 oid 0xf42-0xf43 (1)
  0x0000f4|         0b                                    |   .            |                            [6]: 11 oid 0xf43-0xf44 (1)
          |                                               |                |                        [1]{}: object 0xf44-0xf46 (2)
  0x0000f4|            05                                 |    .           |                          class: "universal" (0) 0xf44-0xf44.2 (0.2)
  0x0000f4|            05                                 |    .           |                          form: "primitive" (0) 0xf44.2-0xf44.3 (0.1)
  0x0000f4|            05                                 |    .           |                          tag: "null" (0x5) 0xf44.3-0xf45 (0.5)
  0x0000f4|               00                              |     .          |                          length: "indefinite" (0) 0xf45-0xf46 (1)
          |                                               |                |                          value: null
          |                                               |                |                    [2]{}: object 0xf46-0x104b (261)
  0x0000f4|                  03                           |      .         |                      class: "universal" (0) 0xf46-0xf46.2 (0.2)
  0x0000f4|                  03                           |      .         |                      form: "primitive" (0) 0xf46.2-0xf46.3 (0.1)
  0x0000f4|                  03                           |      .         |                      tag: "bit_string" (0x3) 0xf46.3-0xf47 (0.5)
  0x0000f4|                     82 01 01                  |       ...      |                      length: 257 0xf47-0xf4a (3)
  0x0000f4|                              00               |          .     |                      unused_bits_count: 0 0xf4a-0xf4b (1)
  0x0000f4|                                 0a 73 00 6c 96|           .s.l.|                      value: raw bits 0xf4b-0x104b (256)
  0x0000f5|6e ff 0e 52 d0 ae dd 8c e7 5a 06 ad 2f a8 e3 8f|n..R.....Z../...|
  *       |until 0x104a.7 (256)                           |                |
          |                                               |                |        [2]{}: record 0x104b-0x117c (305)
  0x000104|                                 16            |           .    |          type: "handshake" (22) (valid) 0x104b-0x104c (1)
  0x000104|                                    03 03      |            ..  |          version: "tls1.2" (0x303) (valid) 0x104c-0x104e (2)
  0x000104|                                          01 2c|              .,|          length: 300 0x104e-0x1050 (2)
          |                                               |                |          message{}: 0x1050-0x117c (300)
  0x000105|0c                                             |.               |            type: "server_key_exchange" (12) 0x1050-0x1051 (1)
  0x000105|   00 01 28                                    | ..(            |            length: 296 0x1051-0x1054 (3)
          |                                               |                |            curve_params{}: 0x1054-0x1054 (0)
  0x000105|            03                                 |    .           |              curve_type: 3 0x1054-0x1055 (1)
  0x000105|               00 1d                           |     ..         |              named_curve: 29 0x1055-0x1057 (2)
          |                                               |                |            public{}: 0x1057-0x1057 (0)
  0x000105|                     20                        |                |              length: 32 0x1057-0x1058 (1)
  0x000105|                        6d a0 4a 00 d6 d8 b4 3c|        m.J....<|              data: raw bits 0x1058-0x1078 (32)
  0x000106|df 78 01 3c 5c 2c 1e 31 11 cf f7 35 c2 f6 7e f7|.x.<\,.1...5..~.|
  0x000107|e5 1e 49 fd 93 24 46 4f                        |..I..$FO        |
          |                                               |                |            signature_algorithm{}: 0x1078-0x1078 (0)
  0x000107|                        08                     |        .       |              hash: "intrinsic" (8) 0x1078-0x1079 (1)
  0x000107|                           04                  |         .      |              signature: 4 0x1079-0x107a (1)
  0x000107|                              01 00            |          ..    |              length: 256 0x107a-0x107c (2)
  0x000107|                                    b3 c2 9f 84|            ....|              data: raw bits 0x107c-0x117c (256)
  0x000108|0e 8f 07 f3 bd ab 85 fb 6d 14 e6 f1 81 57 a3 91|........m....W..|
  *       |until 0x117b.7 (256)                           |                |
          |                                               |                |        [3]{}: record 0x117c-0x1185 (9)
  0x000117|                                    16         |            .   |          type: "handshake" (22) (valid) 0x117c-0x117d (1)
  0x000117|                                       03 03   |             .. |          version: "tls1.2" (0x303) (valid) 0x117d-0x117f (2)
  0x000117|                                             00|               .|          length: 4 0x117f-0x1181 (2)
  0x000118|04                                             |.               |
          |                                               |                |          message{}: 0x1181-0x1185 (4)
  0x000118|   0e                                          | .              |            type: "server_hello_done" (14) 0x1181-0x1182 (1)
  0x000118|      00 00 00                                 |  ...           |            length: 0 0x1182-0x1185 (3)
          |                                               |                |            data: raw bits 0x1185-0x1185 (0)
          |                                               |                |        [4]{}: record 0x1185-0x118b (6)
  0x000118|               14                              |     .          |          type: "change_cipher_spec" (20) (valid) 0x1185-0x1186 (1)
  0x000118|                  03 03                        |      ..        |          version: "tls1.2" (0x303) (valid) 0x1186-0x1188 (2)
  0x000118|                        00 01                  |        ..      |          length: 1 0x1188-0x118a (2)
          |                                               |                |          message{}: 0x118a-0x118b (1)
  0x000118|                              01               |          .     |            type: 1 0x118a-0x118b (1)
          |                                               |                |        [5]{}: record 0x118b-0x11b8 (45)
  0x000118|                                 16            |           .    |          type: "handshake" (22) (valid) 0x118b-0x118c (1)
  0x000118|                                    03 03      |            ..  |          version: "tls1.2" (0x303) (valid) 0x118c-0x118e (2)
  0x000118|                                          00 28|              .(|          length: 40 0x118e-0x1190 (2)
  0x000119|66 71 e7 de 79 d8 25 25 8a 75 a7 5e 7f 71 d3 69|fq..y.%%.u.^.q.i|          encrypted_data: raw bits 0x1190-0x11b8 (40)
  *       |until 0x11b7.7 (40)                            |                |
          |00 01 02 03 04 05 06 07 08 09 0a 0b 0c 0d 0e 0f|0123456789abcdef|          message{}: 0x0-0x10 (16)
    0x0000|14                                             |.               |            type: "finished" (20) 0x0-0x1 (1)
    0x0000|   00 00 0c                                    | ...            |            length: 12 0x1-0x4 (3)
    0x0000|            d4 84 25 b1 72 47 e6 30 b1 87 f4 9b|    ..%.rG.0....|            verify_data: raw bits 0x4-0x10 (12)
          |                                               |                |        [6]{}: record 0x11b8-0x51d5 (16413)
  0x00011b|                        17                     |        .       |          type: "application_data" (23) (valid) 0x11b8-0x11b9 (1)
  0x00011b|                           03 03               |         ..     |          version: "tls1.2" (0x303) (valid) 0x11b9-0x11bb (2)
  0x00011b|                                 40 18         |           @.   |          length: 16408 0x11bb-0x11bd (2)
  0x00011b|                                       66 71 e7|             fq.|          encrypted_data: raw bits 0x11bd-0x51d5 (16408)
  0x00011c|de 79 d8 25 26 34 b2 d6 63 07 8b 12 69 c1 33 66|.y.%&4..c...i.3f|
  *       |until 0x51d4.7 (16408)                         |                |
          |00 01 02 03 04 05 06 07 08 09 0a 0b 0c 0d 0e 0f|0123456789abcdef|
    0x0000|48 54 54 50 2f 31 2e 31 20 32 30 30 20 4f 4b 0d|HTTP/1.1 200 OK.|          message: raw bits 0x0-0x4000 (16384)
    *     |until 0x3fff.7 (end) (16384)                   |                |
          |                                               |                |        [7]{}: record 0x51d5-0x5d34 (2911)
  0x00051d|               17                              |     .          |          type: "application_data" (23) (valid) 0x51d5-0x51d6 (1)
  0x00051d|                  03 03                        |      ..        |          version: "tls1.2" (0x303) (valid) 0x51d6-0x51d8 (2)
  0x00051d|                        0b 5a                  |        .Z      |          length: 2906 0x51d8-0x51da (2)
  0x00051d|                              66 71 e7 de 79 d8|          fq..y.|          encrypted_data: raw bits 0x51da-0x5d34 (2906)
  0x00051e|25 27 3e d4 b7 34 84 6b aa da d0 d7 73 eb fe 1a|%'>..4.k....s...|
  *       |until 0x5d33.7 (end) (2906)                    |                |
          |00 01 02 03 04 05 06 07 08 09 0a 0b 0c 0d 0e 0f|0123456789abcdef|
    0x0000|6e 20 6a 75 73 74 20 77 65 62 73 69 74 65 73 2c|n just websites,|          message: raw bits 0x0-0xb42 (2882)
    *     |until 0xb41.7 (end) (2882)                     |                |
          |00 01 02 03 04 05 06 07 08 09 0a 0b 0c 0d 0e 0f|0123456789abcdef|
    0x0000|48 54 54 50 2f 31 2e 31 20 32 30 30 20 4f 4b 0d|HTTP/1.1 200 OK.|      stream: raw bits 0x0-0x4b42 (19266)
    *     |until 0x4b41.7 (end) (19266)                   |                |
