$ fq 'dv({array_truncate: 3, display_bytes: 4})' archchan_sdk5.moc3
       |00 01 02 03 04 05 06 07 08 09 0a 0b 0c 0d 0e 0f|0123456789abcdef|.{}: archchan_sdk5.moc3 (moc3) 0x0-0xd3140 (864576)
0x00000|4d 4f 43 33                                    |MOC3            |  magic: "MOC3" (valid) 0x0-0x4 (4)
0x00000|            05                                 |    .           |  version: "V5_00_00" (5) (5.0.00) 0x4-0x5 (1)
0x00000|               00                              |     .          |  is_big_endian: false (0) 0x5-0x6 (1)
0x00000|                  00 00 00 00 00 00 00 00 00 00|      ..........|  unused0: raw bits 0x6-0x40 (58)
*      |until 0x3f.7 (58)                              |                |
       |                                               |                |  section_offsets{}: 0x40-0x2c0 (640)
0x00040|c0 07 00 00                                    |....            |    count_info: 0x7c0 0x40-0x44 (4)
0x00040|            c0 08 00 00                        |    ....        |    canvas_info: 0x8c0 0x44-0x48 (4)
       |                                               |                |    parts{}: 0x48-0x68 (32)
0x00040|                        00 09 00 00            |        ....    |      runtime_space0: 0x900 0x48-0x4c (4)
0x00040|                                    50 09 00 00|            P...|      ids: 0x950 0x4c-0x50 (4)
0x00050|00 0c 00 00                                    |....            |      keyform_binding_sources_indices: 0xc00 0x50-0x54 (4)
0x00050|            40 0c 00 00                        |    @...        |      keyform_sources_begin_indices: 0xc40 0x54-0x58 (4)
0x00050|                        80 0c 00 00            |        ....    |      keyform_sources_counts: 0xc80 0x58-0x5c (4)
0x00050|                                    c0 0c 00 00|            ....|      is_visible: 0xcc0 0x5c-0x60 (4)
0x00060|00 0d 00 00                                    |....            |      is_enabled: 0xd00 0x60-0x64 (4)
0x00060|            40 0d 00 00                        |    @...        |      parent_part_indices: 0xd40 0x64-0x68 (4)
       |                                               |                |    deformers{}: 0x68-0x8c (36)
0x00060|                        80 0d 00 00            |        ....    |      runtime_space0: 0xd80 0x68-0x6c (4)
0x00060|                                    08 0e 00 00|            ....|      ids: 0xe08 0x6c-0x70 (4)
0x00070|80 12 00 00                                    |....            |      keyform_binding_sources_indices: 0x1280 0x70-0x74 (4)
0x00070|            00 13 00 00                        |    ....        |      is_visible: 0x1300 0x74-0x78 (4)
0x00070|                        80 13 00 00            |        ....    |      is_enabled: 0x1380 0x78-0x7c (4)
0x00070|                                    00 14 00 00|            ....|      parent_part_indices: 0x1400 0x7c-0x80 (4)
0x00080|80 14 00 00                                    |....            |      parent_deformer_indices: 0x1480 0x80-0x84 (4)
0x00080|            00 15 00 00                        |    ....        |      types: 0x1500 0x84-0x88 (4)
0x00080|                        80 15 00 00            |        ....    |      specific_sources_indices: 0x1580 0x88-0x8c (4)
       |                                               |                |    warp_deformers{}: 0x8c-0xa4 (24)
0x00080|                                    00 16 00 00|            ....|      keyform_binding_sources_indices: 0x1600 0x8c-0x90 (4)
0x00090|40 16 00 00                                    |@...            |      keyform_sources_begin_indices: 0x1640 0x90-0x94 (4)
0x00090|            80 16 00 00                        |    ....        |      keyform_sources_counts: 0x1680 0x94-0x98 (4)
0x00090|                        c0 16 00 00            |        ....    |      vertex_counts: 0x16c0 0x98-0x9c (4)
0x00090|                                    00 17 00 00|            ....|      rows: 0x1700 0x9c-0xa0 (4)
0x000a0|40 17 00 00                                    |@...            |      columns: 0x1740 0xa0-0xa4 (4)
       |                                               |                |    rotation_deformers{}: 0xa4-0xb4 (16)
0x000a0|            80 17 00 00                        |    ....        |      keyform_binding_sources_indices: 0x1780 0xa4-0xa8 (4)
0x000a0|                        c0 17 00 00            |        ....    |      keyform_sources_begin_indices: 0x17c0 0xa8-0xac (4)
0x000a0|                                    00 18 00 00|            ....|      keyform_sources_counts: 0x1800 0xac-0xb0 (4)
0x000b0|40 18 00 00                                    |@...            |      base_angles: 0x1840 0xb0-0xb4 (4)
       |                                               |                |    art_meshes{}: 0xb4-0x104 (80)
0x000b0|            80 18 00 00                        |    ....        |      runtime_space0: 0x1880 0xb4-0xb8 (4)
0x000b0|                        80 19 00 00            |        ....    |      runtime_space1: 0x1980 0xb8-0xbc (4)
0x000b0|                                    80 1a 00 00|            ....|      runtime_space2: 0x1a80 0xbc-0xc0 (4)
0x000c0|80 1b 00 00                                    |....            |      runtime_space3: 0x1b80 0xc0-0xc4 (4)
0x000c0|            68 1c 00 00                        |    h...        |      ids: 0x1c68 0xc4-0xc8 (4)
0x000c0|                        c0 23 00 00            |        .#..    |      keyform_binding_sources_indices: 0x23c0 0xc8-0xcc (4)
0x000c0|                                    40 24 00 00|            @$..|      keyform_sources_begin_indices: 0x2440 0xcc-0xd0 (4)
0x000d0|c0 24 00 00                                    |.$..            |      keyform_sources_counts: 0x24c0 0xd0-0xd4 (4)
0x000d0|            40 25 00 00                        |    @%..        |      is_visible: 0x2540 0xd4-0xd8 (4)
0x000d0|                        c0 25 00 00            |        .%..    |      is_enabled: 0x25c0 0xd8-0xdc (4)
0x000d0|                                    40 26 00 00|            @&..|      parent_part_indices: 0x2640 0xdc-0xe0 (4)
0x000e0|c0 26 00 00                                    |.&..            |      parent_deformer_indices: 0x26c0 0xe0-0xe4 (4)
0x000e0|            40 27 00 00                        |    @'..        |      texture_nos: 0x2740 0xe4-0xe8 (4)
0x000e0|                        c0 27 00 00            |        .'..    |      drawable_flags: 0x27c0 0xe8-0xec (4)
0x000e0|                                    00 28 00 00|            .(..|      vertex_counts: 0x2800 0xec-0xf0 (4)
0x000f0|80 28 00 00                                    |.(..            |      uv_sources_begin_indices: 0x2880 0xf0-0xf4 (4)
0x000f0|            00 29 00 00                        |    .)..        |      position_index_sources_begin_indices: 0x2900 0xf4-0xf8 (4)
0x000f0|                        80 29 00 00            |        .)..    |      position_index_sources_counts: 0x2980 0xf8-0xfc (4)
0x000f0|                                    00 2a 00 00|            .*..|      drawable_mask_sources_begin_indices: 0x2a00 0xfc-0x100 (4)
0x00100|80 2a 00 00                                    |.*..            |      drawable_mask_sources_counts: 0x2a80 0x100-0x104 (4)
       |                                               |                |    parameters{}: 0x104-0x128 (36)
0x00100|            00 2b 00 00                        |    .+..        |      runtime_space0: 0x2b00 0x104-0x108 (4)
0x00100|                        00 2c 00 00            |        .,..    |      ids: 0x2c00 0x108-0x10c (4)
0x00100|                                    00 34 00 00|            .4..|      max_values: 0x3400 0x10c-0x110 (4)
0x00110|80 34 00 00                                    |.4..            |      min_values: 0x3480 0x110-0x114 (4)
0x00110|            00 35 00 00                        |    .5..        |      default_values: 0x3500 0x114-0x118 (4)
0x00110|                        80 35 00 00            |        .5..    |      is_repeat: 0x3580 0x118-0x11c (4)
0x00110|                                    00 36 00 00|            .6..|      decimal_places: 0x3600 0x11c-0x120 (4)
0x00120|80 36 00 00                                    |.6..            |      parameter_binding_sources_begin_indices: 0x3680 0x120-0x124 (4)
0x00120|            00 37 00 00                        |    .7..        |      parameter_binding_sources_counts: 0x3700 0x124-0x128 (4)
       |                                               |                |    part_keyforms{}: 0x128-0x12c (4)
0x00120|                        80 37 00 00            |        .7..    |      draw_orders: 0x3780 0x128-0x12c (4)
       |                                               |                |    warp_deformer_keyforms{}: 0x12c-0x134 (8)
0x00120|                                    c0 37 00 00|            .7..|      opacities: 0x37c0 0x12c-0x130 (4)
0x00130|40 39 00 00                                    |@9..            |      keyform_position_sources_begin_indices: 0x3940 0x130-0x134 (4)
       |                                               |                |    rotation_deformer_keyforms{}: 0x134-0x150 (28)
0x00130|            c0 3a 00 00                        |    .:..        |      opacities: 0x3ac0 0x134-0x138 (4)
0x00130|                        00 3b 00 00            |        .;..    |      angles: 0x3b00 0x138-0x13c (4)
0x00130|                                    40 3b 00 00|            @;..|      origin_x: 0x3b40 0x13c-0x140 (4)
0x00140|80 3b 00 00                                    |.;..            |      origin_y: 0x3b80 0x140-0x144 (4)
0x00140|            c0 3b 00 00                        |    .;..        |      scales: 0x3bc0 0x144-0x148 (4)
0x00140|                        00 3c 00 00            |        .<..    |      is_reflect_x: 0x3c00 0x148-0x14c (4)
0x00140|                                    40 3c 00 00|            @<..|      is_reflect_y: 0x3c40 0x14c-0x150 (4)
       |                                               |                |    art_mesh_keyforms{}: 0x150-0x15c (12)
0x00150|80 3c 00 00                                    |.<..            |      opacities: 0x3c80 0x150-0x154 (4)
0x00150|            80 41 00 00                        |    .A..        |      draw_orders: 0x4180 0x154-0x158 (4)
0x00150|                        80 46 00 00            |        .F..    |      keyform_position_sources_begin_indices: 0x4680 0x158-0x15c (4)
       |                                               |                |    keyform_positions{}: 0x15c-0x160 (4)
0x00150|                                    80 4b 00 00|            .K..|      xys: 0x4b80 0x15c-0x160 (4)
       |                                               |                |    parameter_binding_indices{}: 0x160-0x164 (4)
0x00160|00 1b 0c 00                                    |....            |      binding_sources_indices: 0xc1b00 0x160-0x164 (4)
       |                                               |                |    keyform_bindings{}: 0x164-0x16c (8)
0x00160|            80 1b 0c 00                        |    ....        |      parameter_binding_index_sources_begin_indices: 0xc1b80 0x164-0x168 (4)
0x00160|                        00 1c 0c 00            |        ....    |      parameter_binding_index_sources_counts: 0xc1c00 0x168-0x16c (4)
       |                                               |                |    parameter_bindings{}: 0x16c-0x174 (8)
0x00160|                                    80 1c 0c 00|            ....|      keys_sources_begin_indices: 0xc1c80 0x16c-0x170 (4)
0x00170|00 1d 0c 00                                    |....            |      keys_sources_counts: 0xc1d00 0x170-0x174 (4)
       |                                               |                |    keys{}: 0x174-0x178 (4)
0x00170|            80 1d 0c 00                        |    ....        |      values: 0xc1d80 0x174-0x178 (4)
       |                                               |                |    uvs{}: 0x178-0x17c (4)
0x00170|                        40 1f 0c 00            |        @...    |      uvs: 0xc1f40 0x178-0x17c (4)
       |                                               |                |    position_indices{}: 0x17c-0x180 (4)
0x00170|                                    c0 84 0c 00|            ....|      indices: 0xc84c0 0x17c-0x180 (4)
       |                                               |                |    drawable_masks{}: 0x180-0x184 (4)
0x00180|00 f5 0c 00                                    |....            |      art_mesh_sources_indices: 0xcf500 0x180-0x184 (4)
       |                                               |                |    draw_order_groups{}: 0x184-0x198 (20)
0x00180|            40 f5 0c 00                        |    @...        |      object_sources_begin_indices: 0xcf540 0x184-0x188 (4)
0x00180|                        80 f5 0c 00            |        ....    |      object_sources_counts: 0xcf580 0x188-0x18c (4)
0x00180|                                    c0 f5 0c 00|            ....|      object_sources_total_counts: 0xcf5c0 0x18c-0x190 (4)
0x00190|00 f6 0c 00                                    |....            |      maximum_draw_orders: 0xcf600 0x190-0x194 (4)
0x00190|            40 f6 0c 00                        |    @...        |      minimum_draw_orders: 0xcf640 0x194-0x198 (4)
       |                                               |                |    draw_order_group_objects{}: 0x198-0x1a4 (12)
0x00190|                        80 f6 0c 00            |        ....    |      types: 0xcf680 0x198-0x19c (4)
0x00190|                                    00 f7 0c 00|            ....|      indices: 0xcf700 0x19c-0x1a0 (4)
0x001a0|80 f7 0c 00                                    |....            |      self_indices: 0xcf780 0x1a0-0x1a4 (4)
       |                                               |                |    glue{}: 0x1a4-0x1c8 (36)
0x001a0|            00 f8 0c 00                        |    ....        |      runtime_space0: 0xcf800 0x1a4-0x1a8 (4)
0x001a0|                        00 f8 0c 00            |        ....    |      ids: 0xcf800 0x1a8-0x1ac (4)
0x001a0|                                    00 f8 0c 00|            ....|      keyform_binding_sources_indices: 0xcf800 0x1ac-0x1b0 (4)
0x001b0|00 f8 0c 00                                    |....            |      keyform_sources_begin_indices: 0xcf800 0x1b0-0x1b4 (4)
0x001b0|            00 f8 0c 00                        |    ....        |      keyform_sources_counts: 0xcf800 0x1b4-0x1b8 (4)
0x001b0|                        00 f8 0c 00            |        ....    |      art_mesh_indices_a: 0xcf800 0x1b8-0x1bc (4)
0x001b0|                                    00 f8 0c 00|            ....|      art_mesh_indices_b: 0xcf800 0x1bc-0x1c0 (4)
0x001c0|00 f8 0c 00                                    |....            |      glue_info_sources_begin_indices: 0xcf800 0x1c0-0x1c4 (4)
0x001c0|            00 f8 0c 00                        |    ....        |      glue_info_sources_counts: 0xcf800 0x1c4-0x1c8 (4)
       |                                               |                |    glue_info{}: 0x1c8-0x1d0 (8)
0x001c0|                        00 f8 0c 00            |        ....    |      weights: 0xcf800 0x1c8-0x1cc (4)
0x001c0|                                    00 f8 0c 00|            ....|      position_indices: 0xcf800 0x1cc-0x1d0 (4)
       |                                               |                |    glue_keyforms{}: 0x1d0-0x1d4 (4)
0x001d0|00 f8 0c 00                                    |....            |      intensities: 0xcf800 0x1d0-0x1d4 (4)
       |                                               |                |    warp_deformers_v3_3{}: 0x1d4-0x1d8 (4)
0x001d0|            00 f8 0c 00                        |    ....        |      is_quad_source: 0xcf800 0x1d4-0x1d8 (4)
       |                                               |                |    parameter_extensions{}: 0x1d8-0x1e4 (12)
0x001d0|                        40 f8 0c 00            |        @...    |      runtime_space0: 0xcf840 0x1d8-0x1dc (4)
0x001d0|                                    40 f9 0c 00|            @...|      keys_sources_begin_indices: 0xcf940 0x1dc-0x1e0 (4)
0x001e0|c0 f9 0c 00                                    |....            |      keys_sources_counts: 0xcf9c0 0x1e0-0x1e4 (4)
       |                                               |                |    warp_deformers_v4_2{}: 0x1e4-0x1e8 (4)
0x001e0|            40 fa 0c 00                        |    @...        |      keyform_color_sources_begin_indices: 0xcfa40 0x1e4-0x1e8 (4)
       |                                               |                |    rotation_deformers_v4_2{}: 0x1e8-0x1ec (4)
0x001e0|                        80 fa 0c 00            |        ....    |      keyform_color_sources_begin_indices: 0xcfa80 0x1e8-0x1ec (4)
       |                                               |                |    art_meshes_v4_2{}: 0x1ec-0x1f0 (4)
0x001e0|                                    c0 fa 0c 00|            ....|      keyform_color_sources_begin_indices: 0xcfac0 0x1ec-0x1f0 (4)
       |                                               |                |    keyform_multiply_colors{}: 0x1f0-0x1fc (12)
0x001f0|40 fb 0c 00                                    |@...            |      r: 0xcfb40 0x1f0-0x1f4 (4)
0x001f0|            c0 01 0d 00                        |    ....        |      g: 0xd01c0 0x1f4-0x1f8 (4)
0x001f0|                        40 08 0d 00            |        @...    |      b: 0xd0840 0x1f8-0x1fc (4)
       |                                               |                |    keyform_screen_colors{}: 0x1fc-0x208 (12)
0x001f0|                                    c0 0e 0d 00|            ....|      r: 0xd0ec0 0x1fc-0x200 (4)
0x00200|40 15 0d 00                                    |@...            |      g: 0xd1540 0x200-0x204 (4)
0x00200|            c0 1b 0d 00                        |    ....        |      b: 0xd1bc0 0x204-0x208 (4)
       |                                               |                |    parameters_v4_2{}: 0x208-0x214 (12)
0x00200|                        40 22 0d 00            |        @"..    |      parameter_types: 0xd2240 0x208-0x20c (4)
0x00200|                                    c0 22 0d 00|            ."..|      blend_shape_parameter_binding_sources_begin_indices: 0xd22c0 0x20c-0x210 (4)
0x00210|40 23 0d 00                                    |@#..            |      blend_shape_parameter_binding_sources_counts: 0xd2340 0x210-0x214 (4)
       |                                               |                |    blend_shape_parameter_bindings{}: 0x214-0x220 (12)
0x00210|            c0 23 0d 00                        |    .#..        |      keys_sources_begin_indices: 0xd23c0 0x214-0x218 (4)
0x00210|                        c0 23 0d 00            |        .#..    |      keys_sources_counts: 0xd23c0 0x218-0x21c (4)
0x00210|                                    c0 23 0d 00|            .#..|      base_key_indices: 0xd23c0 0x21c-0x220 (4)
       |                                               |                |    blend_shape_keyform_bindings{}: 0x220-0x234 (20)
0x00220|c0 23 0d 00                                    |.#..            |      parameter_binding_sources_indices: 0xd23c0 0x220-0x224 (4)
0x00220|            c0 23 0d 00                        |    .#..        |      keyform_sources_blend_shape_indices: 0xd23c0 0x224-0x228 (4)
0x00220|                        c0 23 0d 00            |        .#..    |      keyform_sources_blend_shape_counts: 0xd23c0 0x228-0x22c (4)
0x00220|                                    c0 23 0d 00|            .#..|      blend_shape_constraint_index_sources_begin_indices: 0xd23c0 0x22c-0x230 (4)
0x00230|c0 23 0d 00                                    |.#..            |      blend_shape_constraint_index_sources_counts: 0xd23c0 0x230-0x234 (4)
       |                                               |                |    blend_shapes_warp_deformers{}: 0x234-0x240 (12)
0x00230|            c0 23 0d 00                        |    .#..        |      target_indices: 0xd23c0 0x234-0x238 (4)
0x00230|                        c0 23 0d 00            |        .#..    |      blend_shape_keyform_binding_sources_begin_indices: 0xd23c0 0x238-0x23c (4)
0x00230|                                    c0 23 0d 00|            .#..|      blend_shape_keyform_binding_sources_counts: 0xd23c0 0x23c-0x240 (4)
       |                                               |                |    blend_shapes_art_meshes{}: 0x240-0x24c (12)
0x00240|c0 23 0d 00                                    |.#..            |      target_indices: 0xd23c0 0x240-0x244 (4)
0x00240|            c0 23 0d 00                        |    .#..        |      blend_shape_keyform_binding_sources_begin_indices: 0xd23c0 0x244-0x248 (4)
0x00240|                        c0 23 0d 00            |        .#..    |      blend_shape_keyform_binding_sources_counts: 0xd23c0 0x248-0x24c (4)
       |                                               |                |    blend_shape_constraint_indices{}: 0x24c-0x250 (4)
0x00240|                                    c0 23 0d 00|            .#..|      blend_shape_constraint_sources_indices: 0xd23c0 0x24c-0x250 (4)
       |                                               |                |    blend_shape_constraints{}: 0x250-0x25c (12)
0x00250|c0 23 0d 00                                    |.#..            |      parameter_indices: 0xd23c0 0x250-0x254 (4)
0x00250|            c0 23 0d 00                        |    .#..        |      blend_shape_constraint_value_sources_begin_indices: 0xd23c0 0x254-0x258 (4)
0x00250|                        c0 23 0d 00            |        .#..    |      blend_shape_constraint_value_sources_counts: 0xd23c0 0x258-0x25c (4)
       |                                               |                |    blend_shape_constraint_values{}: 0x25c-0x264 (8)
0x00250|                                    c0 23 0d 00|            .#..|      keys: 0xd23c0 0x25c-0x260 (4)
0x00260|c0 23 0d 00                                    |.#..            |      weights: 0xd23c0 0x260-0x264 (4)
       |                                               |                |    warp_deformer_keyforms_v5_0{}: 0x264-0x26c (8)
0x00260|            c0 23 0d 00                        |    .#..        |      keyform_multiply_color_sources_begin_indices: 0xd23c0 0x264-0x268 (4)
0x00260|                        40 25 0d 00            |        @%..    |      keyform_screen_color_sources_begin_indices: 0xd2540 0x268-0x26c (4)
       |                                               |                |    rotation_deformer_keyforms_v5_0{}: 0x26c-0x274 (8)
0x00260|                                    c0 26 0d 00|            .&..|      keyform_multiply_color_sources_begin_indices: 0xd26c0 0x26c-0x270 (4)
0x00270|00 27 0d 00                                    |.'..            |      keyform_screen_color_sources_begin_indices: 0xd2700 0x270-0x274 (4)
       |                                               |                |    art_mesh_keyforms_v5_0{}: 0x274-0x27c (8)
0x00270|            40 27 0d 00                        |    @'..        |      keyform_multiply_color_sources_begin_indices: 0xd2740 0x274-0x278 (4)
0x00270|                        40 2c 0d 00            |        @,..    |      keyform_screen_color_sources_begin_indices: 0xd2c40 0x278-0x27c (4)
       |                                               |                |    blend_shapes_parts{}: 0x27c-0x288 (12)
0x00270|                                    40 31 0d 00|            @1..|      target_indices: 0xd3140 0x27c-0x280 (4)
0x00280|40 31 0d 00                                    |@1..            |      blend_shape_keyform_binding_sources_begin_indices: 0xd3140 0x280-0x284 (4)
0x00280|            40 31 0d 00                        |    @1..        |      blend_shape_keyform_binding_sources_counts: 0xd3140 0x284-0x288 (4)
       |                                               |                |    blend_shapes_rotation_deformers{}: 0x288-0x294 (12)
0x00280|                        40 31 0d 00            |        @1..    |      target_indices: 0xd3140 0x288-0x28c (4)
0x00280|                                    40 31 0d 00|            @1..|      blend_shape_keyform_binding_sources_begin_indices: 0xd3140 0x28c-0x290 (4)
0x00290|40 31 0d 00                                    |@1..            |      blend_shape_keyform_binding_sources_counts: 0xd3140 0x290-0x294 (4)
       |                                               |                |    blend_shapes_glue{}: 0x294-0x2a0 (12)
0x00290|            40 31 0d 00                        |    @1..        |      target_indices: 0xd3140 0x294-0x298 (4)
0x00290|                        40 31 0d 00            |        @1..    |      blend_shape_keyform_binding_sources_begin_indices: 0xd3140 0x298-0x29c (4)
0x00290|                                    40 31 0d 00|            @1..|      blend_shape_keyform_binding_sources_counts: 0xd3140 0x29c-0x2a0 (4)
0x002a0|00 00 00 00 00 00 00 00 00 00 00 00 00 00 00 00|................|    reserved: raw bits 0x2a0-0x2c0 (32)
0x002b0|00 00 00 00 00 00 00 00 00 00 00 00 00 00 00 00|................|
0x002c0|00 00 00 00 00 00 00 00 00 00 00 00 00 00 00 00|................|  runtime_address_map: raw bits 0x2c0-0x740 (1152)
*      |until 0x73f.7 (1152)                           |                |
0x00740|00 00 00 00 00 00 00 00 00 00 00 00 00 00 00 00|................|  unused1: raw bits 0x740-0x7c0 (128)
*      |until 0x7bf.7 (128)                            |                |
       |                                               |                |  sections{}: 0x7c0-0xd3140 (862592)
       |                                               |                |    count_info{}: 0x7c0-0x900 (320)
0x007c0|0a 00 00 00                                    |....            |      parts: 10 0x7c0-0x7c4 (4)
0x007c0|            11 00 00 00                        |    ....        |      deformers: 17 0x7c4-0x7c8 (4)
0x007c0|                        0f 00 00 00            |        ....    |      warp_deformers: 15 0x7c8-0x7cc (4)
0x007c0|                                    02 00 00 00|            ....|      rotation_deformers: 2 0x7cc-0x7d0 (4)
0x007d0|1d 00 00 00                                    |....            |      art_meshes: 29 0x7d0-0x7d4 (4)
0x007d0|            20 00 00 00                        |     ...        |      parameters: 32 0x7d4-0x7d8 (4)
0x007d0|                        0a 00 00 00            |        ....    |      part_keyforms: 10 0x7d8-0x7dc (4)
0x007d0|                                    56 00 00 00|            V...|      warp_deformer_keyforms: 86 0x7dc-0x7e0 (4)
0x007e0|06 00 00 00                                    |....            |      rotation_deformer_keyforms: 6 0x7e0-0x7e4 (4)
0x007e0|            3b 01 00 00                        |    ;...        |      art_mesh_keyforms: 315 0x7e4-0x7e8 (4)
0x007e0|                        e0 f3 02 00            |        ....    |      keyform_positions: 193504 0x7e8-0x7ec (4)
0x007e0|                                    20 00 00 00|             ...|      parameter_binding_indices: 32 0x7ec-0x7f0 (4)
0x007f0|14 00 00 00                                    |....            |      keyform_bindings: 20 0x7f0-0x7f4 (4)
0x007f0|            13 00 00 00                        |    ....        |      parameter_bindings: 19 0x7f4-0x7f8 (4)
0x007f0|                        62 00 00 00            |        b...    |      keys: 98 0x7f8-0x7fc (4)
0x007f0|                                    5c 19 00 00|            \...|      uvs: 6492 0x7fc-0x800 (4)
0x00800|16 38 00 00                                    |.8..            |      position_indices: 14358 0x800-0x804 (4)
0x00800|            03 00 00 00                        |    ....        |      drawable_masks: 3 0x804-0x808 (4)
0x00800|                        01 00 00 00            |        ....    |      draw_order_groups: 1 0x808-0x80c (4)
0x00800|                                    1d 00 00 00|            ....|      draw_order_group_objects: 29 0x80c-0x810 (4)
0x00810|00 00 00 00                                    |....            |      glue: 0 0x810-0x814 (4)
0x00810|            00 00 00 00                        |    ....        |      glue_info: 0 0x814-0x818 (4)
0x00810|                        00 00 00 00            |        ....    |      glue_keyforms: 0 0x818-0x81c (4)
0x00810|                                    97 01 00 00|            ....|      keyform_multiply_colors: 407 0x81c-0x820 (4)
0x00820|97 01 00 00                                    |....            |      keyform_screen_colors: 407 0x820-0x824 (4)
0x00820|            00 00 00 00                        |    ....        |      blend_shape_parameter_bindings: 0 0x824-0x828 (4)
0x00820|                        00 00 00 00            |        ....    |      blend_shape_keyform_bindings: 0 0x828-0x82c (4)
0x00820|                                    00 00 00 00|            ....|      blend_shapes_warp_deformers: 0 0x82c-0x830 (4)
0x00830|00 00 00 00                                    |....            |      blend_shapes_art_meshes: 0 0x830-0x834 (4)
0x00830|            00 00 00 00                        |    ....        |      blend_shape_constraint_indices: 0 0x834-0x838 (4)
0x00830|                        00 00 00 00            |        ....    |      blend_shape_constraints: 0 0x838-0x83c (4)
0x00830|                                    00 00 00 00|            ....|      blend_shape_constraint_values: 0 0x83c-0x840 (4)
0x00840|00 00 00 00                                    |....            |      blend_shapes_parts: 0 0x840-0x844 (4)
0x00840|            00 00 00 00                        |    ....        |      blend_shapes_rotation_deformers: 0 0x844-0x848 (4)
0x00840|                        00 00 00 00            |        ....    |      blend_shapes_glue: 0 0x848-0x84c (4)
0x00840|                                    00 00 00 00|            ....|      reserved: raw bits 0x84c-0x900 (180)
*      |until 0x8ff.7 (180)                            |                |
       |                                               |                |    canvas_info{}: 0x8c0-0x900 (64)
0x008c0|00 40 5b 45                                    |.@[E            |      pixels_per_unit: 3508 0x8c0-0x8c4 (4)
0x008c0|            00 40 db 44                        |    .@.D        |      origin_x: 1754 0x8c4-0x8c8 (4)
0x008c0|                        00 00 1b 45            |        ...E    |      origin_y: 2480 0x8c8-0x8cc (4)
0x008c0|                                    00 40 5b 45|            .@[E|      canvas_width: 3508 0x8cc-0x8d0 (4)
0x008d0|00 00 9b 45                                    |...E            |      canvas_height: 4960 0x8d0-0x8d4 (4)
       |                                               |                |      canvas_flags{}: 0x8d4-0x8d5 (1)
0x008d0|            00                                 |    .           |        reserved: 0 0x8d4-0x8d4.7 (0.7)
0x008d0|            00                                 |    .           |        reverse_y_coordinate: false 0x8d4.7-0x8d5 (0.1)
0x008d0|               00 00 00 00 00 00 00 00 00 00 00|     ...........|      padding: raw bits 0x8d5-0x900 (43)
*      |until 0x8ff.7 (43)                             |                |
       |                                               |                |    parts{}: 0x900-0xd80 (1152)
0x00900|00 00 00 00 00 00 00 00 00 00 00 00 00 00 00 00|................|      runtime_space0: raw bits 0x900-0x950 (80)
*      |until 0x94f.7 (80)                             |                |
       |                                               |                |      ids{}: 0x950-0xc00 (688)
       |                                               |                |        array[0:10]: 0x950-0xbd0 (640)
0x00950|50 61 72 74 32 00 00 00 00 00 00 00 00 00 00 00|Part2...........|          [0]: "Part2" id 0x950-0x990 (64)
*      |until 0x98f.7 (64)                             |                |
0x00990|50 61 72 74 00 00 00 00 00 00 00 00 00 00 00 00|Part............|          [1]: "Part" id 0x990-0x9d0 (64)
*      |until 0x9cf.7 (64)                             |                |
0x009d0|52 00 00 00 00 00 00 00 00 00 00 00 00 00 00 00|R...............|          [2]: "R" id 0x9d0-0xa10 (64)
*      |until 0xa0f.7 (64)                             |                |
       |                                               |                |          [3:10]: ...
0x00bd0|00 00 00 00 00 00 00 00 00 00 00 00 00 00 00 00|................|        padding: raw bits 0xbd0-0xc00 (48)
*      |until 0xbff.7 (48)                             |                |
       |                                               |                |      keyform_binding_sources_indices{}: 0xc00-0xc40 (64)
       |                                               |                |        array[0:10]: 0xc00-0xc28 (40)
0x00c00|00 00 00 00                                    |....            |          [0]: 0 index 0xc00-0xc04 (4)
0x00c00|            00 00 00 00                        |    ....        |          [1]: 0 index 0xc04-0xc08 (4)
0x00c00|                        00 00 00 00            |        ....    |          [2]: 0 index 0xc08-0xc0c (4)
       |                                               |                |          [3:10]: ...
0x00c20|                        00 00 00 00 00 00 00 00|        ........|        padding: raw bits 0xc28-0xc40 (24)
0x00c30|00 00 00 00 00 00 00 00 00 00 00 00 00 00 00 00|................|
       |                                               |                |      keyform_sources_begin_indices{}: 0xc40-0xc80 (64)
       |                                               |                |        array[0:10]: 0xc40-0xc68 (40)
0x00c40|00 00 00 00                                    |....            |          [0]: 0 index 0xc40-0xc44 (4)
0x00c40|            01 00 00 00                        |    ....        |          [1]: 1 index 0xc44-0xc48 (4)
0x00c40|                        02 00 00 00            |        ....    |          [2]: 2 index 0xc48-0xc4c (4)
       |                                               |                |          [3:10]: ...
0x00c60|                        00 00 00 00 00 00 00 00|        ........|        padding: raw bits 0xc68-0xc80 (24)
0x00c70|00 00 00 00 00 00 00 00 00 00 00 00 00 00 00 00|................|
       |                                               |                |      keyform_sources_counts{}: 0xc80-0xcc0 (64)
       |                                               |                |        array[0:10]: 0xc80-0xca8 (40)
0x00c80|01 00 00 00                                    |....            |          [0]: 1 index 0xc80-0xc84 (4)
0x00c80|            01 00 00 00                        |    ....        |          [1]: 1 index 0xc84-0xc88 (4)
0x00c80|                        01 00 00 00            |        ....    |          [2]: 1 index 0xc88-0xc8c (4)
       |                                               |                |          [3:10]: ...
0x00ca0|                        00 00 00 00 00 00 00 00|        ........|        padding: raw bits 0xca8-0xcc0 (24)
0x00cb0|00 00 00 00 00 00 00 00 00 00 00 00 00 00 00 00|................|
       |                                               |                |      is_visible{}: 0xcc0-0xd00 (64)
       |                                               |                |        array[0:10]: 0xcc0-0xce8 (40)
0x00cc0|01 00 00 00                                    |....            |          [0]: true (1) visible 0xcc0-0xcc4 (4)
0x00cc0|            01 00 00 00                        |    ....        |          [1]: true (1) visible 0xcc4-0xcc8 (4)
0x00cc0|                        01 00 00 00            |        ....    |          [2]: true (1) visible 0xcc8-0xccc (4)
       |                                               |                |          [3:10]: ...
0x00ce0|                        00 00 00 00 00 00 00 00|        ........|        padding: raw bits 0xce8-0xd00 (24)
0x00cf0|00 00 00 00 00 00 00 00 00 00 00 00 00 00 00 00|................|
       |                                               |                |      is_enabled{}: 0xd00-0xd40 (64)
       |                                               |                |        array[0:10]: 0xd00-0xd28 (40)
0x00d00|01 00 00 00                                    |....            |          [0]: true (1) enabled 0xd00-0xd04 (4)
0x00d00|            01 00 00 00                        |    ....        |          [1]: true (1) enabled 0xd04-0xd08 (4)
0x00d00|                        01 00 00 00            |        ....    |          [2]: true (1) enabled 0xd08-0xd0c (4)
       |                                               |                |          [3:10]: ...
0x00d20|                        00 00 00 00 00 00 00 00|        ........|        padding: raw bits 0xd28-0xd40 (24)
0x00d30|00 00 00 00 00 00 00 00 00 00 00 00 00 00 00 00|................|
       |                                               |                |      parent_part_indices{}: 0xd40-0xd80 (64)
       |                                               |                |        array[0:10]: 0xd40-0xd68 (40)
0x00d40|ff ff ff ff                                    |....            |          [0]: -1 index 0xd40-0xd44 (4)
0x00d40|            ff ff ff ff                        |    ....        |          [1]: -1 index 0xd44-0xd48 (4)
0x00d40|                        ff ff ff ff            |        ....    |          [2]: -1 index 0xd48-0xd4c (4)
       |                                               |                |          [3:10]: ...
0x00d60|                        00 00 00 00 00 00 00 00|        ........|        padding: raw bits 0xd68-0xd80 (24)
0x00d70|00 00 00 00 00 00 00 00 00 00 00 00 00 00 00 00|................|
       |                                               |                |    deformers{}: 0xd80-0x1600 (2176)
0x00d80|00 00 00 00 00 00 00 00 00 00 00 00 00 00 00 00|................|      runtime_space0: raw bits 0xd80-0xe08 (136)
*      |until 0xe07.7 (136)                            |                |
       |                                               |                |      ids{}: 0xe08-0x1280 (1144)
       |                                               |                |        array[0:17]: 0xe08-0x1248 (1088)
0x00e00|                        57 61 72 70 31 34 00 00|        Warp14..|          [0]: "Warp14" id 0xe08-0xe48 (64)
*      |until 0xe47.7 (64)                             |                |
0x00e40|                        57 61 72 70 31 35 00 00|        Warp15..|          [1]: "Warp15" id 0xe48-0xe88 (64)
*      |until 0xe87.7 (64)                             |                |
0x00e80|                        52 6f 74 61 74 69 6f 6e|        Rotation|          [2]: "Rotation" id 0xe88-0xec8 (64)
*      |until 0xec7.7 (64)                             |                |
       |                                               |                |          [3:17]: ...
0x01240|                        00 00 00 00 00 00 00 00|        ........|        padding: raw bits 0x1248-0x1280 (56)
*      |until 0x127f.7 (56)                            |                |
       |                                               |                |      keyform_binding_sources_indices{}: 0x1280-0x1300 (128)
       |                                               |                |        array[0:17]: 0x1280-0x12c4 (68)
0x01280|10 00 00 00                                    |....            |          [0]: 16 index 0x1280-0x1284 (4)
0x01280|            11 00 00 00                        |    ....        |          [1]: 17 index 0x1284-0x1288 (4)
0x01280|                        12 00 00 00            |        ....    |          [2]: 18 index 0x1288-0x128c (4)
       |                                               |                |          [3:17]: ...
0x012c0|            00 00 00 00 00 00 00 00 00 00 00 00|    ............|        padding: raw bits 0x12c4-0x1300 (60)
*      |until 0x12ff.7 (60)                            |                |
       |                                               |                |      is_visible{}: 0x1300-0x1380 (128)
       |                                               |                |        array[0:17]: 0x1300-0x1344 (68)
0x01300|01 00 00 00                                    |....            |          [0]: true (1) visible 0x1300-0x1304 (4)
0x01300|            01 00 00 00                        |    ....        |          [1]: true (1) visible 0x1304-0x1308 (4)
0x01300|                        01 00 00 00            |        ....    |          [2]: true (1) visible 0x1308-0x130c (4)
       |                                               |                |          [3:17]: ...
0x01340|            00 00 00 00 00 00 00 00 00 00 00 00|    ............|        padding: raw bits 0x1344-0x1380 (60)
*      |until 0x137f.7 (60)                            |                |
       |                                               |                |      is_enabled{}: 0x1380-0x1400 (128)
       |                                               |                |        array[0:17]: 0x1380-0x13c4 (68)
0x01380|01 00 00 00                                    |....            |          [0]: true (1) enabled 0x1380-0x1384 (4)
0x01380|            01 00 00 00                        |    ....        |          [1]: true (1) enabled 0x1384-0x1388 (4)
0x01380|                        01 00 00 00            |        ....    |          [2]: true (1) enabled 0x1388-0x138c (4)
       |                                               |                |          [3:17]: ...
0x013c0|            00 00 00 00 00 00 00 00 00 00 00 00|    ............|        padding: raw bits 0x13c4-0x1400 (60)
*      |until 0x13ff.7 (60)                            |                |
       |                                               |                |      parent_part_indices{}: 0x1400-0x1480 (128)
       |                                               |                |        array[0:17]: 0x1400-0x1444 (68)
0x01400|ff ff ff ff                                    |....            |          [0]: -1 index 0x1400-0x1404 (4)
0x01400|            00 00 00 00                        |    ....        |          [1]: 0 index 0x1404-0x1408 (4)
0x01400|                        ff ff ff ff            |        ....    |          [2]: -1 index 0x1408-0x140c (4)
       |                                               |                |          [3:17]: ...
0x01440|            00 00 00 00 00 00 00 00 00 00 00 00|    ............|        padding: raw bits 0x1444-0x1480 (60)
*      |until 0x147f.7 (60)                            |                |
       |                                               |                |      parent_deformer_indices{}: 0x1480-0x1500 (128)
       |                                               |                |        array[0:17]: 0x1480-0x14c4 (68)
0x01480|ff ff ff ff                                    |....            |          [0]: -1 index 0x1480-0x1484 (4)
0x01480|            ff ff ff ff                        |    ....        |          [1]: -1 index 0x1484-0x1488 (4)
0x01480|                        00 00 00 00            |        ....    |          [2]: 0 index 0x1488-0x148c (4)
       |                                               |                |          [3:17]: ...
0x014c0|            00 00 00 00 00 00 00 00 00 00 00 00|    ............|        padding: raw bits 0x14c4-0x1500 (60)
*      |until 0x14ff.7 (60)                            |                |
       |                                               |                |      types{}: 0x1500-0x1580 (128)
       |                                               |                |        array[0:17]: 0x1500-0x1544 (68)
0x01500|00 00 00 00                                    |....            |          [0]: "warp" (0) type 0x1500-0x1504 (4)
0x01500|            00 00 00 00                        |    ....        |          [1]: "warp" (0) type 0x1504-0x1508 (4)
0x01500|                        01 00 00 00            |        ....    |          [2]: "rotation" (1) type 0x1508-0x150c (4)
       |                                               |                |          [3:17]: ...
0x01540|            00 00 00 00 00 00 00 00 00 00 00 00|    ............|        padding: raw bits 0x1544-0x1580 (60)
*      |until 0x157f.7 (60)                            |                |
       |                                               |                |      specific_sources_indices{}: 0x1580-0x1600 (128)
       |                                               |                |        array[0:17]: 0x1580-0x15c4 (68)
0x01580|00 00 00 00                                    |....            |          [0]: 0 index 0x1580-0x1584 (4)
0x01580|            01 00 00 00                        |    ....        |          [1]: 1 index 0x1584-0x1588 (4)
0x01580|                        00 00 00 00            |        ....    |          [2]: 0 index 0x1588-0x158c (4)
       |                                               |                |          [3:17]: ...
0x015c0|            00 00 00 00 00 00 00 00 00 00 00 00|    ............|        padding: raw bits 0x15c4-0x1600 (60)
*      |until 0x15ff.7 (60)                            |                |
       |                                               |                |    warp_deformers{}: 0x1600-0xcfa80 (844928)
       |                                               |                |      keyform_binding_sources_indices{}: 0x1600-0x1640 (64)
       |                                               |                |        array[0:15]: 0x1600-0x163c (60)
0x01600|10 00 00 00                                    |....            |          [0]: 16 index 0x1600-0x1604 (4)
0x01600|            11 00 00 00                        |    ....        |          [1]: 17 index 0x1604-0x1608 (4)
0x01600|                        12 00 00 00            |        ....    |          [2]: 18 index 0x1608-0x160c (4)
       |                                               |                |          [3:15]: ...
0x01630|                                    00 00 00 00|            ....|        padding: raw bits 0x163c-0x1640 (4)
       |                                               |                |      keyform_sources_begin_indices{}: 0x1640-0x1680 (64)
       |                                               |                |        array[0:15]: 0x1640-0x167c (60)
0x01640|00 00 00 00                                    |....            |          [0]: 0 index 0x1640-0x1644 (4)
0x01640|            02 00 00 00                        |    ....        |          [1]: 2 index 0x1644-0x1648 (4)
0x01640|                        0b 00 00 00            |        ....    |          [2]: 11 index 0x1648-0x164c (4)
       |                                               |                |          [3:15]: ...
0x01670|                                    00 00 00 00|            ....|        padding: raw bits 0x167c-0x1680 (4)
       |                                               |                |      keyform_sources_counts{}: 0x1680-0x16c0 (64)
       |                                               |                |        array[0:15]: 0x1680-0x16bc (60)
0x01680|02 00 00 00                                    |....            |          [0]: 2 index 0x1680-0x1684 (4)
0x01680|            09 00 00 00                        |    ....        |          [1]: 9 index 0x1684-0x1688 (4)
0x01680|                        03 00 00 00            |        ....    |          [2]: 3 index 0x1688-0x168c (4)
       |                                               |                |          [3:15]: ...
0x016b0|                                    00 00 00 00|            ....|        padding: raw bits 0x16bc-0x16c0 (4)
       |                                               |                |      vertex_counts{}: 0x16c0-0x1700 (64)
       |                                               |                |        array[0:15]: 0x16c0-0x16fc (60)
0x016c0|24 00 00 00                                    |$...            |          [0]: 36 count 0x16c0-0x16c4 (4)
0x016c0|            24 00 00 00                        |    $...        |          [1]: 36 count 0x16c4-0x16c8 (4)
0x016c0|                        24 00 00 00            |        $...    |          [2]: 36 count 0x16c8-0x16cc (4)
       |                                               |                |          [3:15]: ...
0x016f0|                                    00 00 00 00|            ....|        padding: raw bits 0x16fc-0x1700 (4)
       |                                               |                |      rows{}: 0x1700-0x1740 (64)
       |                                               |                |        array[0:15]: 0x1700-0x173c (60)
0x01700|05 00 00 00                                    |....            |          [0]: 5 row 0x1700-0x1704 (4)
0x01700|            05 00 00 00                        |    ....        |          [1]: 5 row 0x1704-0x1708 (4)
0x01700|                        05 00 00 00            |        ....    |          [2]: 5 row 0x1708-0x170c (4)
       |                                               |                |          [3:15]: ...
0x01730|                                    00 00 00 00|            ....|        padding: raw bits 0x173c-0x1740 (4)
       |                                               |                |      columns{}: 0x1740-0x1780 (64)
       |                                               |                |        array[0:15]: 0x1740-0x177c (60)
0x01740|05 00 00 00                                    |....            |          [0]: 5 column 0x1740-0x1744 (4)
0x01740|            05 00 00 00                        |    ....        |          [1]: 5 column 0x1744-0x1748 (4)
0x01740|                        05 00 00 00            |        ....    |          [2]: 5 column 0x1748-0x174c (4)
       |                                               |                |          [3:15]: ...
0x01770|                                    00 00 00 00|            ....|        padding: raw bits 0x177c-0x1780 (4)
       |                                               |                |      is_quad_source{}: 0xcf800-0xcf840 (64)
       |                                               |                |        array[0:15]: 0xcf800-0xcf83c (60)
0xcf800|01 00 00 00                                    |....            |          [0]: true (1) quad_source 0xcf800-0xcf804 (4)
0xcf800|            01 00 00 00                        |    ....        |          [1]: true (1) quad_source 0xcf804-0xcf808 (4)
0xcf800|                        01 00 00 00            |        ....    |          [2]: true (1) quad_source 0xcf808-0xcf80c (4)
       |                                               |                |          [3:15]: ...
0xcf830|                                    00 00 00 00|            ....|        padding: raw bits 0xcf83c-0xcf840 (4)
       |                                               |                |      keyform_color_sources_begin_indices{}: 0xcfa40-0xcfa80 (64)
       |                                               |                |        array[0:15]: 0xcfa40-0xcfa7c (60)
0xcfa40|00 00 00 00                                    |....            |          [0]: 0 index 0xcfa40-0xcfa44 (4)
0xcfa40|            02 00 00 00                        |    ....        |          [1]: 2 index 0xcfa44-0xcfa48 (4)
0xcfa40|                        11 00 00 00            |        ....    |          [2]: 17 index 0xcfa48-0xcfa4c (4)
       |                                               |                |          [3:15]: ...
0xcfa70|                                    00 00 00 00|            ....|        padding: raw bits 0xcfa7c-0xcfa80 (4)
       |                                               |                |    rotation_deformers{}: 0x1780-0xcfac0 (844608)
       |                                               |                |      keyform_binding_sources_indices{}: 0x1780-0x17c0 (64)
       |                                               |                |        array[0:2]: 0x1780-0x1788 (8)
0x01780|12 00 00 00                                    |....            |          [0]: 18 index 0x1780-0x1784 (4)
0x01780|            12 00 00 00                        |    ....        |          [1]: 18 index 0x1784-0x1788 (4)
0x01780|                        00 00 00 00 00 00 00 00|        ........|        padding: raw bits 0x1788-0x17c0 (56)
*      |until 0x17bf.7 (56)                            |                |
       |                                               |                |      keyform_sources_begin_indices{}: 0x17c0-0x1800 (64)
       |                                               |                |        array[0:2]: 0x17c0-0x17c8 (8)
0x017c0|00 00 00 00                                    |....            |          [0]: 0 index 0x17c0-0x17c4 (4)
0x017c0|            03 00 00 00                        |    ....        |          [1]: 3 index 0x17c4-0x17c8 (4)
0x017c0|                        00 00 00 00 00 00 00 00|        ........|        padding: raw bits 0x17c8-0x1800 (56)
*      |until 0x17ff.7 (56)                            |                |
       |                                               |                |      keyform_sources_counts{}: 0x1800-0x1840 (64)
       |                                               |                |        array[0:2]: 0x1800-0x1808 (8)
0x01800|03 00 00 00                                    |....            |          [0]: 3 index 0x1800-0x1804 (4)
0x01800|            03 00 00 00                        |    ....        |          [1]: 3 index 0x1804-0x1808 (4)
0x01800|                        00 00 00 00 00 00 00 00|        ........|        padding: raw bits 0x1808-0x1840 (56)
*      |until 0x183f.7 (56)                            |                |
       |                                               |                |      base_angles{}: 0x1840-0x1880 (64)
       |                                               |                |        array[0:2]: 0x1840-0x1848 (8)
0x01840|00 00 00 00                                    |....            |          [0]: 0 angle 0x1840-0x1844 (4)
0x01840|            00 00 00 00                        |    ....        |          [1]: 0 angle 0x1844-0x1848 (4)
0x01840|                        00 00 00 00 00 00 00 00|        ........|        padding: raw bits 0x1848-0x1880 (56)
*      |until 0x187f.7 (56)                            |                |
       |                                               |                |      keyform_color_sources_begin_indices{}: 0xcfa80-0xcfac0 (64)
       |                                               |                |        array[0:2]: 0xcfa80-0xcfa88 (8)
0xcfa80|0b 00 00 00                                    |....            |          [0]: 11 index 0xcfa80-0xcfa84 (4)
0xcfa80|            0e 00 00 00                        |    ....        |          [1]: 14 index 0xcfa84-0xcfa88 (4)
0xcfa80|                        00 00 00 00 00 00 00 00|        ........|        padding: raw bits 0xcfa88-0xcfac0 (56)
*      |until 0xcfabf.7 (56)                           |                |
       |                                               |                |    art_meshes{}: 0x1880-0xcfb40 (844480)
0x01880|00 00 00 00 00 00 00 00 00 00 00 00 00 00 00 00|................|      runtime_space0: raw bits 0x1880-0x1980 (256)
*      |until 0x197f.7 (256)                           |                |
0x01980|00 00 00 00 00 00 00 00 00 00 00 00 00 00 00 00|................|      runtime_space1: raw bits 0x1980-0x1a80 (256)
*      |until 0x1a7f.7 (256)                           |                |
0x01a80|00 00 00 00 00 00 00 00 00 00 00 00 00 00 00 00|................|      runtime_space2: raw bits 0x1a80-0x1b80 (256)
*      |until 0x1b7f.7 (256)                           |                |
0x01b80|00 00 00 00 00 00 00 00 00 00 00 00 00 00 00 00|................|      runtime_space3: raw bits 0x1b80-0x1c68 (232)
*      |until 0x1c67.7 (232)                           |                |
       |                                               |                |      ids{}: 0x1c68-0x23c0 (1880)
       |                                               |                |        array[0:29]: 0x1c68-0x23a8 (1856)
0x01c60|                        41 72 74 4d 65 73 68 32|        ArtMesh2|          [0]: "ArtMesh2" id 0x1c68-0x1ca8 (64)
*      |until 0x1ca7.7 (64)                            |                |
0x01ca0|                        41 72 74 4d 65 73 68 33|        ArtMesh3|          [1]: "ArtMesh3" id 0x1ca8-0x1ce8 (64)
*      |until 0x1ce7.7 (64)                            |                |
0x01ce0|                        45 79 65 62 72 6f 77 00|        Eyebrow.|          [2]: "Eyebrow" id 0x1ce8-0x1d28 (64)
*      |until 0x1d27.7 (64)                            |                |
       |                                               |                |          [3:29]: ...
0x023a0|                        00 00 00 00 00 00 00 00|        ........|        padding: raw bits 0x23a8-0x23c0 (24)
0x023b0|00 00 00 00 00 00 00 00 00 00 00 00 00 00 00 00|................|
       |                                               |                |      keyform_binding_sources_indices{}: 0x23c0-0x2440 (128)
       |                                               |                |        array[0:29]: 0x23c0-0x2434 (116)
0x023c0|01 00 00 00                                    |....            |          [0]: 1 index 0x23c0-0x23c4 (4)
0x023c0|            00 00 00 00                        |    ....        |          [1]: 0 index 0x23c4-0x23c8 (4)
0x023c0|                        02 00 00 00            |        ....    |          [2]: 2 index 0x23c8-0x23cc (4)
       |                                               |                |          [3:29]: ...
0x02430|            00 00 00 00 00 00 00 00 00 00 00 00|    ............|        padding: raw bits 0x2434-0x2440 (12)
       |                                               |                |      keyform_sources_begin_indices{}: 0x2440-0x24c0 (128)
       |                                               |                |        array[0:29]: 0x2440-0x24b4 (116)
0x02440|00 00 00 00                                    |....            |          [0]: 0 index 0x2440-0x2444 (4)
0x02440|            09 00 00 00                        |    ....        |          [1]: 9 index 0x2444-0x2448 (4)
0x02440|                        0a 00 00 00            |        ....    |          [2]: 10 index 0x2448-0x244c (4)
       |                                               |                |          [3:29]: ...
0x024b0|            00 00 00 00 00 00 00 00 00 00 00 00|    ............|        padding: raw bits 0x24b4-0x24c0 (12)
       |                                               |                |      keyform_sources_counts{}: 0x24c0-0x2540 (128)
       |                                               |                |        array[0:29]: 0x24c0-0x2534 (116)
0x024c0|09 00 00 00                                    |....            |          [0]: 9 index 0x24c0-0x24c4 (4)
0x024c0|            01 00 00 00                        |    ....        |          [1]: 1 index 0x24c4-0x24c8 (4)
0x024c0|                        03 00 00 00            |        ....    |          [2]: 3 index 0x24c8-0x24cc (4)
       |                                               |                |          [3:29]: ...
0x02530|            00 00 00 00 00 00 00 00 00 00 00 00|    ............|        padding: raw bits 0x2534-0x2540 (12)
       |                                               |                |      is_visible{}: 0x2540-0x25c0 (128)
       |                                               |                |        array[0:29]: 0x2540-0x25b4 (116)
0x02540|01 00 00 00                                    |....            |          [0]: true (1) visible 0x2540-0x2544 (4)
0x02540|            01 00 00 00                        |    ....        |          [1]: true (1) visible 0x2544-0x2548 (4)
0x02540|                        01 00 00 00            |        ....    |          [2]: true (1) visible 0x2548-0x254c (4)
       |                                               |                |          [3:29]: ...
0x025b0|            00 00 00 00 00 00 00 00 00 00 00 00|    ............|        padding: raw bits 0x25b4-0x25c0 (12)
       |                                               |                |      is_enabled{}: 0x25c0-0x2640 (128)
       |                                               |                |        array[0:29]: 0x25c0-0x2634 (116)
0x025c0|01 00 00 00                                    |....            |          [0]: true (1) enabled 0x25c0-0x25c4 (4)
0x025c0|            01 00 00 00                        |    ....        |          [1]: true (1) enabled 0x25c4-0x25c8 (4)
0x025c0|                        01 00 00 00            |        ....    |          [2]: true (1) enabled 0x25c8-0x25cc (4)
       |                                               |                |          [3:29]: ...
0x02630|            00 00 00 00 00 00 00 00 00 00 00 00|    ............|        padding: raw bits 0x2634-0x2640 (12)
       |                                               |                |      parent_part_indices{}: 0x2640-0x26c0 (128)
       |                                               |                |        array[0:29]: 0x2640-0x26b4 (116)
0x02640|06 00 00 00                                    |....            |          [0]: 6 index 0x2640-0x2644 (4)
0x02640|            06 00 00 00                        |    ....        |          [1]: 6 index 0x2644-0x2648 (4)
0x02640|                        02 00 00 00            |        ....    |          [2]: 2 index 0x2648-0x264c (4)
       |                                               |                |          [3:29]: ...
0x026b0|            00 00 00 00 00 00 00 00 00 00 00 00|    ............|        padding: raw bits 0x26b4-0x26c0 (12)
       |                                               |                |      parent_deformer_indices{}: 0x26c0-0x2740 (128)
       |                                               |                |        array[0:29]: 0x26c0-0x2734 (116)
0x026c0|0b 00 00 00                                    |....            |          [0]: 11 index 0x26c0-0x26c4 (4)
0x026c0|            0e 00 00 00                        |    ....        |          [1]: 14 index 0x26c4-0x26c8 (4)
0x026c0|                        0b 00 00 00            |        ....    |          [2]: 11 index 0x26c8-0x26cc (4)
       |                                               |                |          [3:29]: ...
0x02730|            00 00 00 00 00 00 00 00 00 00 00 00|    ............|        padding: raw bits 0x2734-0x2740 (12)
       |                                               |                |      texture_nos{}: 0x2740-0x27c0 (128)
       |                                               |                |        array[0:29]: 0x2740-0x27b4 (116)
0x02740|00 00 00 00                                    |....            |          [0]: 0 texture_no 0x2740-0x2744 (4)
0x02740|            00 00 00 00                        |    ....        |          [1]: 0 texture_no 0x2744-0x2748 (4)
0x02740|                        00 00 00 00            |        ....    |          [2]: 0 texture_no 0x2748-0x274c (4)
       |                                               |                |          [3:29]: ...
0x027b0|            00 00 00 00 00 00 00 00 00 00 00 00|    ............|        padding: raw bits 0x27b4-0x27c0 (12)
       |                                               |                |      drawable_flags{}: 0x27c0-0x2800 (64)
       |                                               |                |        array[0:29]: 0x27c0-0x27dd (29)
       |                                               |                |          [0]{}: flags 0x27c0-0x27c1 (1)
0x027c0|04                                             |.               |            reserved: 0 0x27c0-0x27c0.4 (0.4)
0x027c0|04                                             |.               |            is_inverted: false 0x27c0.4-0x27c0.5 (0.1)
0x027c0|04                                             |.               |            is_double_sided: true 0x27c0.5-0x27c0.6 (0.1)
0x027c0|04                                             |.               |            blend_mode: "normal" (0) 0x27c0.6-0x27c1 (0.2)
       |                                               |                |          [1]{}: flags 0x27c1-0x27c2 (1)
0x027c0|   04                                          | .              |            reserved: 0 0x27c1-0x27c1.4 (0.4)
0x027c0|   04                                          | .              |            is_inverted: false 0x27c1.4-0x27c1.5 (0.1)
0x027c0|   04                                          | .              |            is_double_sided: true 0x27c1.5-0x27c1.6 (0.1)
0x027c0|   04                                          | .              |            blend_mode: "normal" (0) 0x27c1.6-0x27c2 (0.2)
       |                                               |                |          [2]{}: flags 0x27c2-0x27c3 (1)
0x027c0|      04                                       |  .             |            reserved: 0 0x27c2-0x27c2.4 (0.4)
0x027c0|      04                                       |  .             |            is_inverted: false 0x27c2.4-0x27c2.5 (0.1)
0x027c0|      04                                       |  .             |            is_double_sided: true 0x27c2.5-0x27c2.6 (0.1)
0x027c0|      04                                       |  .             |            blend_mode: "normal" (0) 0x27c2.6-0x27c3 (0.2)
       |                                               |                |          [3:29]: ...
0x027d0|                                       00 00 00|             ...|        padding: raw bits 0x27dd-0x2800 (35)
0x027e0|00 00 00 00 00 00 00 00 00 00 00 00 00 00 00 00|................|
0x027f0|00 00 00 00 00 00 00 00 00 00 00 00 00 00 00 00|................|
       |                                               |                |      vertex_counts{}: 0x2800-0x2880 (128)
       |                                               |                |        array[0:29]: 0x2800-0x2874 (116)
0x02800|12 00 00 00                                    |....            |          [0]: 18 count 0x2800-0x2804 (4)
0x02800|            48 00 00 00                        |    H...        |          [1]: 72 count 0x2804-0x2808 (4)
0x02800|                        3b 00 00 00            |        ;...    |          [2]: 59 count 0x2808-0x280c (4)
       |                                               |                |          [3:29]: ...
0x02870|            00 00 00 00 00 00 00 00 00 00 00 00|    ............|        padding: raw bits 0x2874-0x2880 (12)
       |                                               |                |      uv_sources_begin_indices{}: 0x2880-0x2900 (128)
       |                                               |                |        array[0:29]: 0x2880-0x28f4 (116)
0x02880|00 00 00 00                                    |....            |          [0]: 0 index 0x2880-0x2884 (4)
0x02880|            24 00 00 00                        |    $...        |          [1]: 36 index 0x2884-0x2888 (4)
0x02880|                        b4 00 00 00            |        ....    |          [2]: 180 index 0x2888-0x288c (4)
       |                                               |                |          [3:29]: ...
0x028f0|            00 00 00 00 00 00 00 00 00 00 00 00|    ............|        padding: raw bits 0x28f4-0x2900 (12)
       |                                               |                |      position_index_sources_begin_indices{}: 0x2900-0x2980 (128)
       |                                               |                |        array[0:29]: 0x2900-0x2974 (116)
0x02900|00 00 00 00                                    |....            |          [0]: 0 index 0x2900-0x2904 (4)
0x02900|            48 00 00 00                        |    H...        |          [1]: 72 index 0x2904-0x2908 (4)
0x02900|                        95 01 00 00            |        ....    |          [2]: 405 index 0x2908-0x290c (4)
       |                                               |                |          [3:29]: ...
0x02970|            00 00 00 00 00 00 00 00 00 00 00 00|    ............|        padding: raw bits 0x2974-0x2980 (12)
       |                                               |                |      position_index_sources_counts{}: 0x2980-0x2a00 (128)
       |                                               |                |        array[0:29]: 0x2980-0x29f4 (116)
0x02980|48 00 00 00                                    |H...            |          [0]: 72 count 0x2980-0x2984 (4)
0x02980|            4d 01 00 00                        |    M...        |          [1]: 333 count 0x2984-0x2988 (4)
0x02980|                        e1 00 00 00            |        ....    |          [2]: 225 count 0x2988-0x298c (4)
       |                                               |                |          [3:29]: ...
0x029f0|            00 00 00 00 00 00 00 00 00 00 00 00|    ............|        padding: raw bits 0x29f4-0x2a00 (12)
       |                                               |                |      drawable_mask_sources_begin_indices{}: 0x2a00-0x2a80 (128)
       |                                               |                |        array[0:29]: 0x2a00-0x2a74 (116)
0x02a00|00 00 00 00                                    |....            |          [0]: 0 index 0x2a00-0x2a04 (4)
0x02a00|            01 00 00 00                        |    ....        |          [1]: 1 index 0x2a04-0x2a08 (4)
0x02a00|                        01 00 00 00            |        ....    |          [2]: 1 index 0x2a08-0x2a0c (4)
       |                                               |                |          [3:29]: ...
0x02a70|            00 00 00 00 00 00 00 00 00 00 00 00|    ............|        padding: raw bits 0x2a74-0x2a80 (12)
       |                                               |                |      drawable_mask_sources_counts{}: 0x2a80-0x2b00 (128)
       |                                               |                |        array[0:29]: 0x2a80-0x2af4 (116)
0x02a80|01 00 00 00                                    |....            |          [0]: 1 count 0x2a80-0x2a84 (4)
0x02a80|            00 00 00 00                        |    ....        |          [1]: 0 count 0x2a84-0x2a88 (4)
0x02a80|                        00 00 00 00            |        ....    |          [2]: 0 count 0x2a88-0x2a8c (4)
       |                                               |                |          [3:29]: ...
0x02af0|            00 00 00 00 00 00 00 00 00 00 00 00|    ............|        padding: raw bits 0x2af4-0x2b00 (12)
       |                                               |                |      keyform_color_sources_begin_indices{}: 0xcfac0-0xcfb40 (128)
       |                                               |                |        array[0:29]: 0xcfac0-0xcfb34 (116)
0xcfac0|5c 00 00 00                                    |\...            |          [0]: 92 index 0xcfac0-0xcfac4 (4)
0xcfac0|            65 00 00 00                        |    e...        |          [1]: 101 index 0xcfac4-0xcfac8 (4)
0xcfac0|                        66 00 00 00            |        f...    |          [2]: 102 index 0xcfac8-0xcfacc (4)
       |                                               |                |          [3:29]: ...
0xcfb30|            00 00 00 00 00 00 00 00 00 00 00 00|    ............|        padding: raw bits 0xcfb34-0xcfb40 (12)
       |                                               |                |    parameters{}: 0x2b00-0xd23c0 (850112)
0x02b00|00 00 00 00 00 00 00 00 00 00 00 00 00 00 00 00|................|      runtime_space0: raw bits 0x2b00-0x2c00 (256)
*      |until 0x2bff.7 (256)                           |                |
       |                                               |                |      ids{}: 0x2c00-0x3400 (2048)
       |                                               |                |        array[0:32]: 0x2c00-0x3400 (2048)
0x02c00|50 61 72 61 6d 41 6e 67 6c 65 59 00 00 00 00 00|ParamAngleY.....|          [0]: "ParamAngleY" id 0x2c00-0x2c40 (64)
*      |until 0x2c3f.7 (64)                            |                |
0x02c40|50 61 72 61 6d 41 6e 67 6c 65 58 00 00 00 00 00|ParamAngleX.....|          [1]: "ParamAngleX" id 0x2c40-0x2c80 (64)
*      |until 0x2c7f.7 (64)                            |                |
0x02c80|50 61 72 61 6d 41 6e 67 6c 65 5a 00 00 00 00 00|ParamAngleZ.....|          [2]: "ParamAngleZ" id 0x2c80-0x2cc0 (64)
*      |until 0x2cbf.7 (64)                            |                |
       |                                               |                |          [3:32]: ...
       |                                               |                |        padding: raw bits 0x3400-0x3400 (0)
       |                                               |                |      max_values{}: 0x3400-0x3480 (128)
       |                                               |                |        array[0:32]: 0x3400-0x3480 (128)
0x03400|00 00 f0 41                                    |...A            |          [0]: 30 value 0x3400-0x3404 (4)
0x03400|            00 00 f0 41                        |    ...A        |          [1]: 30 value 0x3404-0x3408 (4)
0x03400|                        00 00 f0 41            |        ...A    |          [2]: 30 value 0x3408-0x340c (4)
       |                                               |                |          [3:32]: ...
       |                                               |                |        padding: raw bits 0x3480-0x3480 (0)
       |                                               |                |      min_values{}: 0x3480-0x3500 (128)
       |                                               |                |        array[0:32]: 0x3480-0x3500 (128)
0x03480|00 00 f0 c1                                    |....            |          [0]: -30 value 0x3480-0x3484 (4)
0x03480|            00 00 f0 c1                        |    ....        |          [1]: -30 value 0x3484-0x3488 (4)
0x03480|                        00 00 f0 c1            |        ....    |          [2]: -30 value 0x3488-0x348c (4)
       |                                               |                |          [3:32]: ...
       |                                               |                |        padding: raw bits 0x3500-0x3500 (0)
       |                                               |                |      default_values{}: 0x3500-0x3580 (128)
       |                                               |                |        array[0:32]: 0x3500-0x3580 (128)
0x03500|00 00 00 00                                    |....            |          [0]: 0 value 0x3500-0x3504 (4)
0x03500|            00 00 00 00                        |    ....        |          [1]: 0 value 0x3504-0x3508 (4)
0x03500|                        00 00 00 00            |        ....    |          [2]: 0 value 0x3508-0x350c (4)
       |                                               |                |          [3:32]: ...
       |                                               |                |        padding: raw bits 0x3580-0x3580 (0)
       |                                               |                |      is_repeat{}: 0x3580-0x3600 (128)
       |                                               |                |        array[0:32]: 0x3580-0x3600 (128)
0x03580|00 00 00 00                                    |....            |          [0]: false (0) repeat 0x3580-0x3584 (4)
0x03580|            00 00 00 00                        |    ....        |          [1]: false (0) repeat 0x3584-0x3588 (4)
0x03580|                        00 00 00 00            |        ....    |          [2]: false (0) repeat 0x3588-0x358c (4)
       |                                               |                |          [3:32]: ...
       |                                               |                |        padding: raw bits 0x3600-0x3600 (0)
       |                                               |                |      decimal_places{}: 0x3600-0x3680 (128)
       |                                               |                |        array[0:32]: 0x3600-0x3680 (128)
0x03600|03 00 00 00                                    |....            |          [0]: 3 value 0x3600-0x3604 (4)
0x03600|            03 00 00 00                        |    ....        |          [1]: 3 value 0x3604-0x3608 (4)
0x03600|                        03 00 00 00            |        ....    |          [2]: 3 value 0x3608-0x360c (4)
       |                                               |                |          [3:32]: ...
       |                                               |                |        padding: raw bits 0x3680-0x3680 (0)
       |                                               |                |      parameter_binding_sources_begin_indices{}: 0x3680-0x3700 (128)
       |                                               |                |        array[0:32]: 0x3680-0x3700 (128)
0x03680|00 00 00 00                                    |....            |          [0]: 0 index 0x3680-0x3684 (4)
0x03680|            01 00 00 00                        |    ....        |          [1]: 1 index 0x3684-0x3688 (4)
0x03680|                        02 00 00 00            |        ....    |          [2]: 2 index 0x3688-0x368c (4)
       |                                               |                |          [3:32]: ...
       |                                               |                |        padding: raw bits 0x3700-0x3700 (0)
       |                                               |                |      parameter_binding_sources_counts{}: 0x3700-0x3780 (128)
       |                                               |                |        array[0:32]: 0x3700-0x3780 (128)
0x03700|01 00 00 00                                    |....            |          [0]: 1 count 0x3700-0x3704 (4)
0x03700|            01 00 00 00                        |    ....        |          [1]: 1 count 0x3704-0x3708 (4)
0x03700|                        01 00 00 00            |        ....    |          [2]: 1 count 0x3708-0x370c (4)
       |                                               |                |          [3:32]: ...
       |                                               |                |        padding: raw bits 0x3780-0x3780 (0)
       |                                               |                |      parameter_types{}: 0xd2240-0xd22c0 (128)
       |                                               |                |        array[0:32]: 0xd2240-0xd22c0 (128)
0xd2240|00 00 00 00                                    |....            |          [0]: "normal" (0) type 0xd2240-0xd2244 (4)
0xd2240|            00 00 00 00                        |    ....        |          [1]: "normal" (0) type 0xd2244-0xd2248 (4)
0xd2240|                        00 00 00 00            |        ....    |          [2]: "normal" (0) type 0xd2248-0xd224c (4)
       |                                               |                |          [3:32]: ...
       |                                               |                |        padding: raw bits 0xd22c0-0xd22c0 (0)
       |                                               |                |      blend_shape_parameter_binding_sources_begin_indices{}: 0xd22c0-0xd2340 (128)
       |                                               |                |        array[0:32]: 0xd22c0-0xd2340 (128)
0xd22c0|00 00 00 00                                    |....            |          [0]: 0 index 0xd22c0-0xd22c4 (4)
0xd22c0|            00 00 00 00                        |    ....        |          [1]: 0 index 0xd22c4-0xd22c8 (4)
0xd22c0|                        00 00 00 00            |        ....    |          [2]: 0 index 0xd22c8-0xd22cc (4)
       |                                               |                |          [3:32]: ...
       |                                               |                |        padding: raw bits 0xd2340-0xd2340 (0)
       |                                               |                |      blend_shape_parameter_binding_sources_counts{}: 0xd2340-0xd23c0 (128)
       |                                               |                |        array[0:32]: 0xd2340-0xd23c0 (128)
0xd2340|00 00 00 00                                    |....            |          [0]: 0 count 0xd2340-0xd2344 (4)
0xd2340|            00 00 00 00                        |    ....        |          [1]: 0 count 0xd2344-0xd2348 (4)
0xd2340|                        00 00 00 00            |        ....    |          [2]: 0 count 0xd2348-0xd234c (4)
       |                                               |                |          [3:32]: ...
       |                                               |                |        padding: raw bits 0xd23c0-0xd23c0 (0)
       |                                               |                |    part_keyforms{}: 0x3780-0x37c0 (64)
       |                                               |                |      draw_orders{}: 0x3780-0x37c0 (64)
       |                                               |                |        array[0:10]: 0x3780-0x37a8 (40)
0x03780|00 00 fa 43                                    |...C            |          [0]: 500 draw_order 0x3780-0x3784 (4)
0x03780|            00 00 fa 43                        |    ...C        |          [1]: 500 draw_order 0x3784-0x3788 (4)
0x03780|                        00 00 fa 43            |        ...C    |          [2]: 500 draw_order 0x3788-0x378c (4)
       |                                               |                |          [3:10]: ...
0x037a0|                        00 00 00 00 00 00 00 00|        ........|        padding: raw bits 0x37a8-0x37c0 (24)
0x037b0|00 00 00 00 00 00 00 00 00 00 00 00 00 00 00 00|................|
       |                                               |                |    warp_deformer_keyforms{}: 0x37c0-0xd26c0 (847616)
       |                                               |                |      opacities{}: 0x37c0-0x3940 (384)
       |                                               |                |        array[0:86]: 0x37c0-0x3918 (344)
0x037c0|00 00 80 3f                                    |...?            |          [0]: 1 opacity 0x37c0-0x37c4 (4)
0x037c0|            00 00 80 3f                        |    ...?        |          [1]: 1 opacity 0x37c4-0x37c8 (4)
0x037c0|                        00 00 80 3f            |        ...?    |          [2]: 1 opacity 0x37c8-0x37cc (4)
       |                                               |                |          [3:86]: ...
0x03910|                        00 00 00 00 00 00 00 00|        ........|        padding: raw bits 0x3918-0x3940 (40)
*      |until 0x393f.7 (40)                            |                |
       |                                               |                |      keyform_position_sources_begin_indices{}: 0x3940-0x3ac0 (384)
       |                                               |                |        array[0:86]: 0x3940-0x3a98 (344)
0x03940|00 00 00 00                                    |....            |          [0]: 0 index 0x3940-0x3944 (4)
0x03940|            50 00 00 00                        |    P...        |          [1]: 80 index 0x3944-0x3948 (4)
0x03940|                        a0 00 00 00            |        ....    |          [2]: 160 index 0x3948-0x394c (4)
       |                                               |                |          [3:86]: ...
0x03a90|                        00 00 00 00 00 00 00 00|        ........|        padding: raw bits 0x3a98-0x3ac0 (40)
*      |until 0x3abf.7 (40)                            |                |
       |                                               |                |      keyform_multiply_color_sources_begin_indices{}: 0xd23c0-0xd2540 (384)
       |                                               |                |        array[0:86]: 0xd23c0-0xd2518 (344)
0xd23c0|00 00 00 00                                    |....            |          [0]: 0 index 0xd23c0-0xd23c4 (4)
0xd23c0|            01 00 00 00                        |    ....        |          [1]: 1 index 0xd23c4-0xd23c8 (4)
0xd23c0|                        02 00 00 00            |        ....    |          [2]: 2 index 0xd23c8-0xd23cc (4)
       |                                               |                |          [3:86]: ...
0xd2510|                        00 00 00 00 00 00 00 00|        ........|        padding: raw bits 0xd2518-0xd2540 (40)
*      |until 0xd253f.7 (40)                           |                |
       |                                               |                |      keyform_screen_color_sources_begin_indices{}: 0xd2540-0xd26c0 (384)
       |                                               |                |        array[0:86]: 0xd2540-0xd2698 (344)
0xd2540|00 00 00 00                                    |....            |          [0]: 0 index 0xd2540-0xd2544 (4)
0xd2540|            01 00 00 00                        |    ....        |          [1]: 1 index 0xd2544-0xd2548 (4)
0xd2540|                        02 00 00 00            |        ....    |          [2]: 2 index 0xd2548-0xd254c (4)
       |                                               |                |          [3:86]: ...
0xd2690|                        00 00 00 00 00 00 00 00|        ........|        padding: raw bits 0xd2698-0xd26c0 (40)
*      |until 0xd26bf.7 (40)                           |                |
       |                                               |                |    rotation_deformer_keyforms{}: 0x3ac0-0xd2740 (846976)
       |                                               |                |      opacities{}: 0x3ac0-0x3b00 (64)
       |                                               |                |        array[0:6]: 0x3ac0-0x3ad8 (24)
0x03ac0|00 00 80 3f                                    |...?            |          [0]: 1 value 0x3ac0-0x3ac4 (4)
0x03ac0|            00 00 80 3f                        |    ...?        |          [1]: 1 value 0x3ac4-0x3ac8 (4)
0x03ac0|                        00 00 80 3f            |        ...?    |          [2]: 1 value 0x3ac8-0x3acc (4)
       |                                               |                |          [3:6]: ...
0x03ad0|                        00 00 00 00 00 00 00 00|        ........|        padding: raw bits 0x3ad8-0x3b00 (40)
*      |until 0x3aff.7 (40)                            |                |
       |                                               |                |      angles{}: 0x3b00-0x3b40 (64)
       |                                               |                |        array[0:6]: 0x3b00-0x3b18 (24)
0x03b00|4c 33 f3 c0                                    |L3..            |          [0]: -7.600011825561523 angle 0x3b00-0x3b04 (4)
0x03b00|            c2 8c 4b b7                        |    ..K.        |          [1]: -1.2132515621487983e-05 angle 0x3b04-0x3b08 (4)
0x03b00|                        66 66 06 41            |        ff.A    |          [2]: 8.399999618530273 angle 0x3b08-0x3b0c (4)
       |                                               |                |          [3:6]: ...
0x03b10|                        00 00 00 00 00 00 00 00|        ........|        padding: raw bits 0x3b18-0x3b40 (40)
*      |until 0x3b3f.7 (40)                            |                |
       |                                               |                |      origin_x{}: 0x3b40-0x3b80 (64)
       |                                               |                |        array[0:6]: 0x3b40-0x3b58 (24)
0x03b40|9e f0 d1 3e                                    |...>            |          [0]: 0.41003888845443726 x 0x3b40-0x3b44 (4)
0x03b40|            3d 01 ef 3e                        |    =..>        |          [1]: 0.4668063223361969 x 0x3b44-0x3b48 (4)
0x03b40|                        27 b4 08 3f            |        '..?    |          [2]: 0.5339989066123962 x 0x3b48-0x3b4c (4)
       |                                               |                |          [3:6]: ...
0x03b50|                        00 00 00 00 00 00 00 00|        ........|        padding: raw bits 0x3b58-0x3b80 (40)
*      |until 0x3b7f.7 (40)                            |                |
       |                                               |                |      origin_y{}: 0x3b80-0x3bc0 (64)
       |                                               |                |        array[0:6]: 0x3b80-0x3b98 (24)
0x03b80|1b ba 36 3e                                    |..6>            |          [0]: 0.17844431102275848 y 0x3b80-0x3b84 (4)
0x03b80|            2a fd 33 3e                        |    *.3>        |          [1]: 0.17577043175697327 y 0x3b84-0x3b88 (4)
0x03b80|                        9f 8a 37 3e            |        ..7>    |          [2]: 0.17923973500728607 y 0x3b88-0x3b8c (4)
       |                                               |                |          [3:6]: ...
0x03b90|                        00 00 00 00 00 00 00 00|        ........|        padding: raw bits 0x3b98-0x3bc0 (40)
*      |until 0x3bbf.7 (40)                            |                |
       |                                               |                |      scales{}: 0x3bc0-0x3c00 (64)
       |                                               |                |        array[0:6]: 0x3bc0-0x3bd8 (24)
0x03bc0|78 74 95 39                                    |xt.9            |          [0]: 0.00028506270609796047 value 0x3bc0-0x3bc4 (4)
0x03bc0|            78 74 95 39                        |    xt.9        |          [1]: 0.00028506270609796047 value 0x3bc4-0x3bc8 (4)
0x03bc0|                        78 74 95 39            |        xt.9    |          [2]: 0.00028506270609796047 value 0x3bc8-0x3bcc (4)
       |                                               |                |          [3:6]: ...
0x03bd0|                        00 00 00 00 00 00 00 00|        ........|        padding: raw bits 0x3bd8-0x3c00 (40)
*      |until 0x3bff.7 (40)                            |                |
       |                                               |                |      is_reflect_x{}: 0x3c00-0x3c40 (64)
       |                                               |                |        array[0:6]: 0x3c00-0x3c18 (24)
0x03c00|00 00 00 00                                    |....            |          [0]: false (0) reflect_x 0x3c00-0x3c04 (4)
0x03c00|            00 00 00 00                        |    ....        |          [1]: false (0) reflect_x 0x3c04-0x3c08 (4)
0x03c00|                        00 00 00 00            |        ....    |          [2]: false (0) reflect_x 0x3c08-0x3c0c (4)
       |                                               |                |          [3:6]: ...
0x03c10|                        00 00 00 00 00 00 00 00|        ........|        padding: raw bits 0x3c18-0x3c40 (40)
*      |until 0x3c3f.7 (40)                            |                |
       |                                               |                |      is_reflect_y{}: 0x3c40-0x3c80 (64)
       |                                               |                |        array[0:6]: 0x3c40-0x3c58 (24)
0x03c40|00 00 00 00                                    |....            |          [0]: false (0) reflect_y 0x3c40-0x3c44 (4)
0x03c40|            00 00 00 00                        |    ....        |          [1]: false (0) reflect_y 0x3c44-0x3c48 (4)
0x03c40|                        00 00 00 00            |        ....    |          [2]: false (0) reflect_y 0x3c48-0x3c4c (4)
       |                                               |                |          [3:6]: ...
0x03c50|                        00 00 00 00 00 00 00 00|        ........|        padding: raw bits 0x3c58-0x3c80 (40)
*      |until 0x3c7f.7 (40)                            |                |
       |                                               |                |      keyform_multiply_color_sources_begin_indices{}: 0xd26c0-0xd2700 (64)
       |                                               |                |        array[0:6]: 0xd26c0-0xd26d8 (24)
0xd26c0|0b 00 00 00                                    |....            |          [0]: 11 index 0xd26c0-0xd26c4 (4)
0xd26c0|            0c 00 00 00                        |    ....        |          [1]: 12 index 0xd26c4-0xd26c8 (4)
0xd26c0|                        0d 00 00 00            |        ....    |          [2]: 13 index 0xd26c8-0xd26cc (4)
       |                                               |                |          [3:6]: ...
0xd26d0|                        00 00 00 00 00 00 00 00|        ........|        padding: raw bits 0xd26d8-0xd2700 (40)
*      |until 0xd26ff.7 (40)                           |                |
       |                                               |                |      keyform_screen_color_sources_begin_indices{}: 0xd2700-0xd2740 (64)
       |                                               |                |        array[0:6]: 0xd2700-0xd2718 (24)
0xd2700|0b 00 00 00                                    |....            |          [0]: 11 index 0xd2700-0xd2704 (4)
0xd2700|            0c 00 00 00                        |    ....        |          [1]: 12 index 0xd2704-0xd2708 (4)
0xd2700|                        0d 00 00 00            |        ....    |          [2]: 13 index 0xd2708-0xd270c (4)
       |                                               |                |          [3:6]: ...
0xd2710|                        00 00 00 00 00 00 00 00|        ........|        padding: raw bits 0xd2718-0xd2740 (40)
*      |until 0xd273f.7 (40)                           |                |
       |                                               |                |    art_mesh_keyforms{}: 0x3c80-0xd3140 (849088)
       |                                               |                |      opacities{}: 0x3c80-0x4180 (1280)
       |                                               |                |        array[0:315]: 0x3c80-0x416c (1260)
0x03c80|00 00 80 3f                                    |...?            |          [0]: 1 value 0x3c80-0x3c84 (4)
0x03c80|            00 00 80 3f                        |    ...?        |          [1]: 1 value 0x3c84-0x3c88 (4)
0x03c80|                        00 00 80 3f            |        ...?    |          [2]: 1 value 0x3c88-0x3c8c (4)
       |                                               |                |          [3:315]: ...
0x04160|                                    00 00 00 00|            ....|        padding: raw bits 0x416c-0x4180 (20)
0x04170|00 00 00 00 00 00 00 00 00 00 00 00 00 00 00 00|................|
       |                                               |                |      draw_orders{}: 0x4180-0x4680 (1280)
       |                                               |                |        array[0:315]: 0x4180-0x466c (1260)
0x04180|00 00 fa 43                                    |...C            |          [0]: 500 draw_order 0x4180-0x4184 (4)
0x04180|            00 00 fa 43                        |    ...C        |          [1]: 500 draw_order 0x4184-0x4188 (4)
0x04180|                        00 00 fa 43            |        ...C    |          [2]: 500 draw_order 0x4188-0x418c (4)
       |                                               |                |          [3:315]: ...
0x04660|                                    00 00 00 00|            ....|        padding: raw bits 0x466c-0x4680 (20)
0x04670|00 00 00 00 00 00 00 00 00 00 00 00 00 00 00 00|................|
       |                                               |                |      keyform_position_sources_begin_indices{}: 0x4680-0x4b80 (1280)
       |                                               |                |        array[0:315]: 0x4680-0x4b6c (1260)
0x04680|e0 1a 00 00                                    |....            |          [0]: 6880 index 0x4680-0x4684 (4)
0x04680|            10 1b 00 00                        |    ....        |          [1]: 6928 index 0x4684-0x4688 (4)
0x04680|                        40 1b 00 00            |        @...    |          [2]: 6976 index 0x4688-0x468c (4)
       |                                               |                |          [3:315]: ...
0x04b60|                                    00 00 00 00|            ....|        padding: raw bits 0x4b6c-0x4b80 (20)
0x04b70|00 00 00 00 00 00 00 00 00 00 00 00 00 00 00 00|................|
       |                                               |                |      keyform_multiply_color_sources_begin_indices{}: 0xd2740-0xd2c40 (1280)
       |                                               |                |        array[0:315]: 0xd2740-0xd2c2c (1260)
0xd2740|5c 00 00 00                                    |\...            |          [0]: 92 index 0xd2740-0xd2744 (4)
0xd2740|            5d 00 00 00                        |    ]...        |          [1]: 93 index 0xd2744-0xd2748 (4)
0xd2740|                        5e 00 00 00            |        ^...    |          [2]: 94 index 0xd2748-0xd274c (4)
       |                                               |                |          [3:315]: ...
0xd2c20|                                    00 00 00 00|            ....|        padding: raw bits 0xd2c2c-0xd2c40 (20)
0xd2c30|00 00 00 00 00 00 00 00 00 00 00 00 00 00 00 00|................|
       |                                               |                |      keyform_screen_color_sources_begin_indices{}: 0xd2c40-0xd3140 (1280)
       |                                               |                |        array[0:315]: 0xd2c40-0xd312c (1260)
0xd2c40|5c 00 00 00                                    |\...            |          [0]: 92 index 0xd2c40-0xd2c44 (4)
0xd2c40|            5d 00 00 00                        |    ]...        |          [1]: 93 index 0xd2c44-0xd2c48 (4)
0xd2c40|                        5e 00 00 00            |        ^...    |          [2]: 94 index 0xd2c48-0xd2c4c (4)
       |                                               |                |          [3:315]: ...
0xd3120|                                    00 00 00 00|            ....|        padding: raw bits 0xd312c-0xd3140 (20)
0xd3130|00 00 00 00 00 00 00 00 00 00 00 00 00 00 00 00|................|
       |                                               |                |    keyform_positions{}: 0x4b80-0xc1b00 (774016)
       |                                               |                |      xys{}: 0x4b80-0xc1b00 (774016)
       |                                               |                |        array[0:193504]: 0x4b80-0xc1b00 (774016)
0x04b80|f5 03 79 be                                    |..y.            |          [0]: -0.24317915737628937 x 0x4b80-0x4b84 (4)
0x04b80|            7b fe 4d bf                        |    {.M.        |          [1]: -0.8046643137931824 y 0x4b84-0x4b88 (4)
0x04b80|                        cb 03 0f be            |        ....    |          [2]: -0.13966290652751923 x 0x4b88-0x4b8c (4)
       |                                               |                |          [3:193504]: ...
       |                                               |                |        padding: raw bits 0xc1b00-0xc1b00 (0)
       |                                               |                |    parameter_binding_indices{}: 0xc1b00-0xc1b80 (128)
       |                                               |                |      binding_sources_indices{}: 0xc1b00-0xc1b80 (128)
       |                                               |                |        array[0:32]: 0xc1b00-0xc1b80 (128)
0xc1b00|07 00 00 00                                    |....            |          [0]: 7 index 0xc1b00-0xc1b04 (4)
0xc1b00|            08 00 00 00                        |    ....        |          [1]: 8 index 0xc1b04-0xc1b08 (4)
0xc1b00|                        0a 00 00 00            |        ....    |          [2]: 10 index 0xc1b08-0xc1b0c (4)
       |                                               |                |          [3:32]: ...
       |                                               |                |        padding: raw bits 0xc1b80-0xc1b80 (0)
       |                                               |                |    keyform_bindings{}: 0xc1b80-0xc1c80 (256)
       |                                               |                |      parameter_binding_index_sources_begin_indices{}: 0xc1b80-0xc1c00 (128)
       |                                               |                |        array[0:20]: 0xc1b80-0xc1bd0 (80)
0xc1b80|00 00 00 00                                    |....            |          [0]: 0 index 0xc1b80-0xc1b84 (4)
0xc1b80|            00 00 00 00                        |    ....        |          [1]: 0 index 0xc1b84-0xc1b88 (4)
0xc1b80|                        02 00 00 00            |        ....    |          [2]: 2 index 0xc1b88-0xc1b8c (4)
       |                                               |                |          [3:20]: ...
0xc1bd0|00 00 00 00 00 00 00 00 00 00 00 00 00 00 00 00|................|        padding: raw bits 0xc1bd0-0xc1c00 (48)
*      |until 0xc1bff.7 (48)                           |                |
       |                                               |                |      parameter_binding_index_sources_counts{}: 0xc1c00-0xc1c80 (128)
       |                                               |                |        array[0:20]: 0xc1c00-0xc1c50 (80)
0xc1c00|00 00 00 00                                    |....            |          [0]: 0 count 0xc1c00-0xc1c04 (4)
0xc1c00|            02 00 00 00                        |    ....        |          [1]: 2 count 0xc1c04-0xc1c08 (4)
0xc1c00|                        01 00 00 00            |        ....    |          [2]: 1 count 0xc1c08-0xc1c0c (4)
       |                                               |                |          [3:20]: ...
0xc1c50|00 00 00 00 00 00 00 00 00 00 00 00 00 00 00 00|................|        padding: raw bits 0xc1c50-0xc1c80 (48)
*      |until 0xc1c7f.7 (48)                           |                |
       |                                               |                |    parameter_bindings{}: 0xc1c80-0xc1d80 (256)
       |                                               |                |      keys_sources_begin_indices{}: 0xc1c80-0xc1d00 (128)
       |                                               |                |        array[0:19]: 0xc1c80-0xc1ccc (76)
0xc1c80|00 00 00 00                                    |....            |          [0]: 0 index 0xc1c80-0xc1c84 (4)
0xc1c80|            03 00 00 00                        |    ....        |          [1]: 3 index 0xc1c84-0xc1c88 (4)
0xc1c80|                        06 00 00 00            |        ....    |          [2]: 6 index 0xc1c88-0xc1c8c (4)
       |                                               |                |          [3:19]: ...
0xc1cc0|                                    00 00 00 00|            ....|        padding: raw bits 0xc1ccc-0xc1d00 (52)
*      |until 0xc1cff.7 (52)                           |                |
       |                                               |                |      keys_sources_counts{}: 0xc1d00-0xc1d80 (128)
       |                                               |                |        array[0:19]: 0xc1d00-0xc1d4c (76)
0xc1d00|03 00 00 00                                    |....            |          [0]: 3 count 0xc1d00-0xc1d04 (4)
0xc1d00|            03 00 00 00                        |    ....        |          [1]: 3 count 0xc1d04-0xc1d08 (4)
0xc1d00|                        03 00 00 00            |        ....    |          [2]: 3 count 0xc1d08-0xc1d0c (4)
       |                                               |                |          [3:19]: ...
0xc1d40|                                    00 00 00 00|            ....|        padding: raw bits 0xc1d4c-0xc1d80 (52)
*      |until 0xc1d7f.7 (52)                           |                |
       |                                               |                |    keys{}: 0xc1d80-0xc1f40 (448)
       |                                               |                |      values{}: 0xc1d80-0xc1f40 (448)
       |                                               |                |        array[0:98]: 0xc1d80-0xc1f08 (392)
0xc1d80|00 00 f0 c1                                    |....            |          [0]: -30 value 0xc1d80-0xc1d84 (4)
0xc1d80|            00 00 00 00                        |    ....        |          [1]: 0 value 0xc1d84-0xc1d88 (4)
0xc1d80|                        00 00 f0 41            |        ...A    |          [2]: 30 value 0xc1d88-0xc1d8c (4)
       |                                               |                |          [3:98]: ...
0xc1f00|                        00 00 00 00 00 00 00 00|        ........|        padding: raw bits 0xc1f08-0xc1f40 (56)
*      |until 0xc1f3f.7 (56)                           |                |
       |                                               |                |    uvs{}: 0xc1f40-0xc84c0 (25984)
       |                                               |                |      uvs{}: 0xc1f40-0xc84c0 (25984)
       |                                               |                |        array[0:6492]: 0xc1f40-0xc84b0 (25968)
0xc1f40|80 3e d5 3e                                    |.>.>            |          [0]: 0.4164924621582031 u 0xc1f40-0xc1f44 (4)
0xc1f40|            e5 de 0b 3f                        |    ...?        |          [1]: 0.5463698506355286 v 0xc1f44-0xc1f48 (4)
0xc1f40|                        8e 8f d9 3e            |        ...>    |          [2]: 0.4249233603477478 u 0xc1f48-0xc1f4c (4)
       |                                               |                |          [3:6492]: ...
0xc84b0|00 00 00 00 00 00 00 00 00 00 00 00 00 00 00 00|................|        padding: raw bits 0xc84b0-0xc84c0 (16)
       |                                               |                |    position_indices{}: 0xc84c0-0xcf500 (28736)
       |                                               |                |      indices{}: 0xc84c0-0xcf500 (28736)
       |                                               |                |        array[0:14358]: 0xc84c0-0xcf4ec (28716)
0xc84c0|01 00                                          |..              |          [0]: 1 index 0xc84c0-0xc84c2 (2)
0xc84c0|      0a 00                                    |  ..            |          [1]: 10 index 0xc84c2-0xc84c4 (2)
0xc84c0|            00 00                              |    ..          |          [2]: 0 index 0xc84c4-0xc84c6 (2)
       |                                               |                |          [3:14358]: ...
0xcf4e0|                                    00 00 00 00|            ....|        padding: raw bits 0xcf4ec-0xcf500 (20)
0xcf4f0|00 00 00 00 00 00 00 00 00 00 00 00 00 00 00 00|................|
       |                                               |                |    drawable_masks{}: 0xcf500-0xcf540 (64)
       |                                               |                |      art_mesh_sources_indices{}: 0xcf500-0xcf540 (64)
       |                                               |                |        array[0:3]: 0xcf500-0xcf50c (12)
0xcf500|01 00 00 00                                    |....            |          [0]: 1 index 0xcf500-0xcf504 (4)
0xcf500|            06 00 00 00                        |    ....        |          [1]: 6 index 0xcf504-0xcf508 (4)
0xcf500|                        0f 00 00 00            |        ....    |          [2]: 15 index 0xcf508-0xcf50c (4)
0xcf500|                                    00 00 00 00|            ....|        padding: raw bits 0xcf50c-0xcf540 (52)
*      |until 0xcf53f.7 (52)                           |                |
       |                                               |                |    draw_order_groups{}: 0xcf540-0xcf680 (320)
       |                                               |                |      object_sources_begin_indices{}: 0xcf540-0xcf580 (64)
       |                                               |                |        array[0:1]: 0xcf540-0xcf544 (4)
0xcf540|00 00 00 00                                    |....            |          [0]: 0 index 0xcf540-0xcf544 (4)
0xcf540|            00 00 00 00 00 00 00 00 00 00 00 00|    ............|        padding: raw bits 0xcf544-0xcf580 (60)
*      |until 0xcf57f.7 (60)                           |                |
       |                                               |                |      object_sources_counts{}: 0xcf580-0xcf5c0 (64)
       |                                               |                |        array[0:1]: 0xcf580-0xcf584 (4)
0xcf580|1d 00 00 00                                    |....            |          [0]: 29 count 0xcf580-0xcf584 (4)
0xcf580|            00 00 00 00 00 00 00 00 00 00 00 00|    ............|        padding: raw bits 0xcf584-0xcf5c0 (60)
*      |until 0xcf5bf.7 (60)                           |                |
       |                                               |                |      object_sources_total_counts{}: 0xcf5c0-0xcf600 (64)
       |                                               |                |        array[0:1]: 0xcf5c0-0xcf5c4 (4)
0xcf5c0|1d 00 00 00                                    |....            |          [0]: 29 count 0xcf5c0-0xcf5c4 (4)
0xcf5c0|            00 00 00 00 00 00 00 00 00 00 00 00|    ............|        padding: raw bits 0xcf5c4-0xcf600 (60)
*      |until 0xcf5ff.7 (60)                           |                |
       |                                               |                |      maximum_draw_orders{}: 0xcf600-0xcf640 (64)
       |                                               |                |        array[0:1]: 0xcf600-0xcf604 (4)
0xcf600|f4 01 00 00                                    |....            |          [0]: 500 draw_order 0xcf600-0xcf604 (4)
0xcf600|            00 00 00 00 00 00 00 00 00 00 00 00|    ............|        padding: raw bits 0xcf604-0xcf640 (60)
*      |until 0xcf63f.7 (60)                           |                |
       |                                               |                |      minimum_draw_orders{}: 0xcf640-0xcf680 (64)
       |                                               |                |        array[0:1]: 0xcf640-0xcf644 (4)
0xcf640|f4 01 00 00                                    |....            |          [0]: 500 draw_order 0xcf640-0xcf644 (4)
0xcf640|            00 00 00 00 00 00 00 00 00 00 00 00|    ............|        padding: raw bits 0xcf644-0xcf680 (60)
*      |until 0xcf67f.7 (60)                           |                |
       |                                               |                |    draw_order_group_objects{}: 0xcf680-0xcf800 (384)
       |                                               |                |      types{}: 0xcf680-0xcf700 (128)
       |                                               |                |        array[0:29]: 0xcf680-0xcf6f4 (116)
0xcf680|00 00 00 00                                    |....            |          [0]: "art_mesh" (0) type 0xcf680-0xcf684 (4)
0xcf680|            00 00 00 00                        |    ....        |          [1]: "art_mesh" (0) type 0xcf684-0xcf688 (4)
0xcf680|                        00 00 00 00            |        ....    |          [2]: "art_mesh" (0) type 0xcf688-0xcf68c (4)
       |                                               |                |          [3:29]: ...
0xcf6f0|            00 00 00 00 00 00 00 00 00 00 00 00|    ............|        padding: raw bits 0xcf6f4-0xcf700 (12)
       |                                               |                |      indices{}: 0xcf700-0xcf780 (128)
       |                                               |                |        array[0:29]: 0xcf700-0xcf774 (116)
0xcf700|14 00 00 00                                    |....            |          [0]: 20 index 0xcf700-0xcf704 (4)
0xcf700|            1c 00 00 00                        |    ....        |          [1]: 28 index 0xcf704-0xcf708 (4)
0xcf700|                        19 00 00 00            |        ....    |          [2]: 25 index 0xcf708-0xcf70c (4)
       |                                               |                |          [3:29]: ...
0xcf770|            00 00 00 00 00 00 00 00 00 00 00 00|    ............|        padding: raw bits 0xcf774-0xcf780 (12)
       |                                               |                |      self_indices{}: 0xcf780-0xcf800 (128)
       |                                               |                |        array[0:29]: 0xcf780-0xcf7f4 (116)
0xcf780|ff ff ff ff                                    |....            |          [0]: -1 index 0xcf780-0xcf784 (4)
0xcf780|            ff ff ff ff                        |    ....        |          [1]: -1 index 0xcf784-0xcf788 (4)
0xcf780|                        ff ff ff ff            |        ....    |          [2]: -1 index 0xcf788-0xcf78c (4)
       |                                               |                |          [3:29]: ...
0xcf7f0|            00 00 00 00 00 00 00 00 00 00 00 00|    ............|        padding: raw bits 0xcf7f4-0xcf800 (12)
       |                                               |                |    glue{}: 0xcf800-0xcf800 (0)
       |                                               |                |      runtime_space0: raw bits 0xcf800-0xcf800 (0)
       |                                               |                |      ids{}: 0xcf800-0xcf800 (0)
       |                                               |                |        array[0:0]: 0xcf800-0xcf800 (0)
       |                                               |                |        padding: raw bits 0xcf800-0xcf800 (0)
       |                                               |                |      keyform_binding_sources_indices{}: 0xcf800-0xcf800 (0)
       |                                               |                |        array[0:0]: 0xcf800-0xcf800 (0)
       |                                               |                |        padding: raw bits 0xcf800-0xcf800 (0)
       |                                               |                |      keyform_sources_begin_indices{}: 0xcf800-0xcf800 (0)
       |                                               |                |        array[0:0]: 0xcf800-0xcf800 (0)
       |                                               |                |        padding: raw bits 0xcf800-0xcf800 (0)
       |                                               |                |      keyform_sources_counts{}: 0xcf800-0xcf800 (0)
       |                                               |                |        array[0:0]: 0xcf800-0xcf800 (0)
       |                                               |                |        padding: raw bits 0xcf800-0xcf800 (0)
       |                                               |                |      art_mesh_indices_a{}: 0xcf800-0xcf800 (0)
       |                                               |                |        array[0:0]: 0xcf800-0xcf800 (0)
       |                                               |                |        padding: raw bits 0xcf800-0xcf800 (0)
       |                                               |                |      art_mesh_indices_b{}: 0xcf800-0xcf800 (0)
       |                                               |                |        array[0:0]: 0xcf800-0xcf800 (0)
       |                                               |                |        padding: raw bits 0xcf800-0xcf800 (0)
       |                                               |                |      glue_info_sources_begin_indices{}: 0xcf800-0xcf800 (0)
       |                                               |                |        array[0:0]: 0xcf800-0xcf800 (0)
       |                                               |                |        padding: raw bits 0xcf800-0xcf800 (0)
       |                                               |                |      glue_info_sources_counts{}: 0xcf800-0xcf800 (0)
       |                                               |                |        array[0:0]: 0xcf800-0xcf800 (0)
       |                                               |                |        padding: raw bits 0xcf800-0xcf800 (0)
       |                                               |                |    glue_info{}: 0xcf800-0xcf800 (0)
       |                                               |                |      weights{}: 0xcf800-0xcf800 (0)
       |                                               |                |        array[0:0]: 0xcf800-0xcf800 (0)
       |                                               |                |        padding: raw bits 0xcf800-0xcf800 (0)
       |                                               |                |      position_indices{}: 0xcf800-0xcf800 (0)
       |                                               |                |        array[0:0]: 0xcf800-0xcf800 (0)
       |                                               |                |        padding: raw bits 0xcf800-0xcf800 (0)
       |                                               |                |    glue_keyforms{}: 0xcf800-0xcf800 (0)
       |                                               |                |      intensities{}: 0xcf800-0xcf800 (0)
       |                                               |                |        array[0:0]: 0xcf800-0xcf800 (0)
       |                                               |                |        padding: raw bits 0xcf800-0xcf800 (0)
       |                                               |                |    parameter_extensions{}: 0xcf840-0xcfa40 (512)
0xcf840|00 00 00 00 00 00 00 00 00 00 00 00 00 00 00 00|................|      runtime_space0: raw bits 0xcf840-0xcf940 (256)
*      |until 0xcf93f.7 (256)                          |                |
       |                                               |                |      keys_sources_begin_indices{}: 0xcf940-0xcf9c0 (128)
       |                                               |                |        array[0:32]: 0xcf940-0xcf9c0 (128)
0xcf940|33 00 00 00                                    |3...            |          [0]: 51 index 0xcf940-0xcf944 (4)
0xcf940|            36 00 00 00                        |    6...        |          [1]: 54 index 0xcf944-0xcf948 (4)
0xcf940|                        39 00 00 00            |        9...    |          [2]: 57 index 0xcf948-0xcf94c (4)
       |                                               |                |          [3:32]: ...
       |                                               |                |        padding: raw bits 0xcf9c0-0xcf9c0 (0)
       |                                               |                |      keys_sources_counts{}: 0xcf9c0-0xcfa40 (128)
       |                                               |                |        array[0:32]: 0xcf9c0-0xcfa40 (128)
0xcf9c0|03 00 00 00                                    |....            |          [0]: 3 count 0xcf9c0-0xcf9c4 (4)
0xcf9c0|            03 00 00 00                        |    ....        |          [1]: 3 count 0xcf9c4-0xcf9c8 (4)
0xcf9c0|                        03 00 00 00            |        ....    |          [2]: 3 count 0xcf9c8-0xcf9cc (4)
       |                                               |                |          [3:32]: ...
       |                                               |                |        padding: raw bits 0xcfa40-0xcfa40 (0)
       |                                               |                |    keyform_multiply_colors{}: 0xcfb40-0xd0ec0 (4992)
       |                                               |                |      r{}: 0xcfb40-0xd01c0 (1664)
       |                                               |                |        array[0:407]: 0xcfb40-0xd019c (1628)
0xcfb40|00 00 80 3f                                    |...?            |          [0]: 1 value 0xcfb40-0xcfb44 (4)
0xcfb40|            00 00 80 3f                        |    ...?        |          [1]: 1 value 0xcfb44-0xcfb48 (4)
0xcfb40|                        00 00 80 3f            |        ...?    |          [2]: 1 value 0xcfb48-0xcfb4c (4)
       |                                               |                |          [3:407]: ...
0xd0190|                                    00 00 00 00|            ....|        padding: raw bits 0xd019c-0xd01c0 (36)
*      |until 0xd01bf.7 (36)                           |                |
       |                                               |                |      g{}: 0xd01c0-0xd0840 (1664)
       |                                               |                |        array[0:407]: 0xd01c0-0xd081c (1628)
0xd01c0|00 00 80 3f                                    |...?            |          [0]: 1 value 0xd01c0-0xd01c4 (4)
0xd01c0|            00 00 80 3f                        |    ...?        |          [1]: 1 value 0xd01c4-0xd01c8 (4)
0xd01c0|                        00 00 80 3f            |        ...?    |          [2]: 1 value 0xd01c8-0xd01cc (4)
       |                                               |                |          [3:407]: ...
0xd0810|                                    00 00 00 00|            ....|        padding: raw bits 0xd081c-0xd0840 (36)
*      |until 0xd083f.7 (36)                           |                |
       |                                               |                |      b{}: 0xd0840-0xd0ec0 (1664)
       |                                               |                |        array[0:407]: 0xd0840-0xd0e9c (1628)
0xd0840|00 00 80 3f                                    |...?            |          [0]: 1 value 0xd0840-0xd0844 (4)
0xd0840|            00 00 80 3f                        |    ...?        |          [1]: 1 value 0xd0844-0xd0848 (4)
0xd0840|                        00 00 80 3f            |        ...?    |          [2]: 1 value 0xd0848-0xd084c (4)
       |                                               |                |          [3:407]: ...
0xd0e90|                                    00 00 00 00|            ....|        padding: raw bits 0xd0e9c-0xd0ec0 (36)
*      |until 0xd0ebf.7 (36)                           |                |
       |                                               |                |    keyform_screen_colors{}: 0xd0ec0-0xd2240 (4992)
       |                                               |                |      r{}: 0xd0ec0-0xd1540 (1664)
       |                                               |                |        array[0:407]: 0xd0ec0-0xd151c (1628)
0xd0ec0|00 00 00 00                                    |....            |          [0]: 0 value 0xd0ec0-0xd0ec4 (4)
0xd0ec0|            00 00 00 00                        |    ....        |          [1]: 0 value 0xd0ec4-0xd0ec8 (4)
0xd0ec0|                        00 00 00 00            |        ....    |          [2]: 0 value 0xd0ec8-0xd0ecc (4)
       |                                               |                |          [3:407]: ...
0xd1510|                                    00 00 00 00|            ....|        padding: raw bits 0xd151c-0xd1540 (36)
*      |until 0xd153f.7 (36)                           |                |
       |                                               |                |      g{}: 0xd1540-0xd1bc0 (1664)
       |                                               |                |        array[0:407]: 0xd1540-0xd1b9c (1628)
0xd1540|00 00 00 00                                    |....            |          [0]: 0 value 0xd1540-0xd1544 (4)
0xd1540|            00 00 00 00                        |    ....        |          [1]: 0 value 0xd1544-0xd1548 (4)
0xd1540|                        00 00 00 00            |        ....    |          [2]: 0 value 0xd1548-0xd154c (4)
       |                                               |                |          [3:407]: ...
0xd1b90|                                    00 00 00 00|            ....|        padding: raw bits 0xd1b9c-0xd1bc0 (36)
*      |until 0xd1bbf.7 (36)                           |                |
       |                                               |                |      b{}: 0xd1bc0-0xd2240 (1664)
       |                                               |                |        array[0:407]: 0xd1bc0-0xd221c (1628)
0xd1bc0|00 00 00 00                                    |....            |          [0]: 0 value 0xd1bc0-0xd1bc4 (4)
0xd1bc0|            00 00 00 00                        |    ....        |          [1]: 0 value 0xd1bc4-0xd1bc8 (4)
0xd1bc0|                        00 00 00 00            |        ....    |          [2]: 0 value 0xd1bc8-0xd1bcc (4)
       |                                               |                |          [3:407]: ...
0xd2210|                                    00 00 00 00|            ....|        padding: raw bits 0xd221c-0xd2240 (36)
*      |until 0xd223f.7 (36)                           |                |
       |                                               |                |    blend_shape_parameter_bindings{}: 0xd23c0-0xd23c0 (0)
       |                                               |                |      keys_sources_begin_indices{}: 0xd23c0-0xd23c0 (0)
       |                                               |                |        array[0:0]: 0xd23c0-0xd23c0 (0)
       |                                               |                |        padding: raw bits 0xd23c0-0xd23c0 (0)
       |                                               |                |      keys_sources_counts{}: 0xd23c0-0xd23c0 (0)
       |                                               |                |        array[0:0]: 0xd23c0-0xd23c0 (0)
       |                                               |                |        padding: raw bits 0xd23c0-0xd23c0 (0)
       |                                               |                |      base_key_indices{}: 0xd23c0-0xd23c0 (0)
       |                                               |                |        array[0:0]: 0xd23c0-0xd23c0 (0)
       |                                               |                |        padding: raw bits 0xd23c0-0xd23c0 (0)
       |                                               |                |    blend_shape_keyform_bindings{}: 0xd23c0-0xd23c0 (0)
       |                                               |                |      parameter_binding_sources_indices{}: 0xd23c0-0xd23c0 (0)
       |                                               |                |        array[0:0]: 0xd23c0-0xd23c0 (0)
       |                                               |                |        padding: raw bits 0xd23c0-0xd23c0 (0)
       |                                               |                |      keyform_sources_blend_shape_indices{}: 0xd23c0-0xd23c0 (0)
       |                                               |                |        array[0:0]: 0xd23c0-0xd23c0 (0)
       |                                               |                |        padding: raw bits 0xd23c0-0xd23c0 (0)
       |                                               |                |      keyform_sources_blend_shape_counts{}: 0xd23c0-0xd23c0 (0)
       |                                               |                |        array[0:0]: 0xd23c0-0xd23c0 (0)
       |                                               |                |        padding: raw bits 0xd23c0-0xd23c0 (0)
       |                                               |                |      blend_shape_constraint_index_sources_begin_indices{}: 0xd23c0-0xd23c0 (0)
       |                                               |                |        array[0:0]: 0xd23c0-0xd23c0 (0)
       |                                               |                |        padding: raw bits 0xd23c0-0xd23c0 (0)
       |                                               |                |      blend_shape_constraint_index_sources_counts{}: 0xd23c0-0xd23c0 (0)
       |                                               |                |        array[0:0]: 0xd23c0-0xd23c0 (0)
       |                                               |                |        padding: raw bits 0xd23c0-0xd23c0 (0)
       |                                               |                |    blend_shapes_warp_deformers{}: 0xd23c0-0xd23c0 (0)
       |                                               |                |      target_indices{}: 0xd23c0-0xd23c0 (0)
       |                                               |                |        array[0:0]: 0xd23c0-0xd23c0 (0)
       |                                               |                |        padding: raw bits 0xd23c0-0xd23c0 (0)
       |                                               |                |      blend_shape_keyform_binding_sources_begin_indices{}: 0xd23c0-0xd23c0 (0)
       |                                               |                |        array[0:0]: 0xd23c0-0xd23c0 (0)
       |                                               |                |        padding: raw bits 0xd23c0-0xd23c0 (0)
       |                                               |                |      blend_shape_keyform_binding_sources_counts{}: 0xd23c0-0xd23c0 (0)
       |                                               |                |        array[0:0]: 0xd23c0-0xd23c0 (0)
       |                                               |                |        padding: raw bits 0xd23c0-0xd23c0 (0)
       |                                               |                |    blend_shapes_art_meshes{}: 0xd23c0-0xd23c0 (0)
       |                                               |                |      target_indices{}: 0xd23c0-0xd23c0 (0)
       |                                               |                |        array[0:0]: 0xd23c0-0xd23c0 (0)
       |                                               |                |        padding: raw bits 0xd23c0-0xd23c0 (0)
       |                                               |                |      blend_shape_keyform_binding_sources_begin_indices{}: 0xd23c0-0xd23c0 (0)
       |                                               |                |        array[0:0]: 0xd23c0-0xd23c0 (0)
       |                                               |                |        padding: raw bits 0xd23c0-0xd23c0 (0)
       |                                               |                |      blend_shape_keyform_binding_sources_counts{}: 0xd23c0-0xd23c0 (0)
       |                                               |                |        array[0:0]: 0xd23c0-0xd23c0 (0)
       |                                               |                |        padding: raw bits 0xd23c0-0xd23c0 (0)
       |                                               |                |    blend_shape_constraint_indices{}: 0xd23c0-0xd23c0 (0)
       |                                               |                |      blend_shape_constraint_sources_indices{}: 0xd23c0-0xd23c0 (0)
       |                                               |                |        array[0:0]: 0xd23c0-0xd23c0 (0)
       |                                               |                |        padding: raw bits 0xd23c0-0xd23c0 (0)
       |                                               |                |    blend_shape_constraints{}: 0xd23c0-0xd23c0 (0)
       |                                               |                |      parameter_indices{}: 0xd23c0-0xd23c0 (0)
       |                                               |                |        array[0:0]: 0xd23c0-0xd23c0 (0)
       |                                               |                |        padding: raw bits 0xd23c0-0xd23c0 (0)
       |                                               |                |      blend_shape_constraint_value_sources_begin_indices{}: 0xd23c0-0xd23c0 (0)
       |                                               |                |        array[0:0]: 0xd23c0-0xd23c0 (0)
       |                                               |                |        padding: raw bits 0xd23c0-0xd23c0 (0)
       |                                               |                |      blend_shape_constraint_value_sources_counts{}: 0xd23c0-0xd23c0 (0)
       |                                               |                |        array[0:0]: 0xd23c0-0xd23c0 (0)
       |                                               |                |        padding: raw bits 0xd23c0-0xd23c0 (0)
       |                                               |                |    blend_shape_constraint_values{}: 0xd23c0-0xd23c0 (0)
       |                                               |                |      keys{}: 0xd23c0-0xd23c0 (0)
       |                                               |                |        array[0:0]: 0xd23c0-0xd23c0 (0)
       |                                               |                |        padding: raw bits 0xd23c0-0xd23c0 (0)
       |                                               |                |      weights{}: 0xd23c0-0xd23c0 (0)
       |                                               |                |        array[0:0]: 0xd23c0-0xd23c0 (0)
       |                                               |                |        padding: raw bits 0xd23c0-0xd23c0 (0)
       |                                               |                |    blend_shapes_parts{}: 0xd3140-0xd3140 (0)
       |                                               |                |      target_indices{}: 0xd3140-0xd3140 (0)
       |                                               |                |        array[0:0]: 0xd3140-0xd3140 (0)
       |                                               |                |        padding: raw bits 0xd3140-0xd3140 (0)
       |                                               |                |      blend_shape_keyform_binding_sources_begin_indices{}: 0xd3140-0xd3140 (0)
       |                                               |                |        array[0:0]: 0xd3140-0xd3140 (0)
       |                                               |                |        padding: raw bits 0xd3140-0xd3140 (0)
       |                                               |                |      blend_shape_keyform_binding_sources_counts{}: 0xd3140-0xd3140 (0)
       |                                               |                |        array[0:0]: 0xd3140-0xd3140 (0)
       |                                               |                |        padding: raw bits 0xd3140-0xd3140 (0)
       |                                               |                |    blend_shapes_rotation_deformers{}: 0xd3140-0xd3140 (0)
       |                                               |                |      target_indices{}: 0xd3140-0xd3140 (0)
       |                                               |                |        array[0:0]: 0xd3140-0xd3140 (0)
       |                                               |                |        padding: raw bits 0xd3140-0xd3140 (0)
       |                                               |                |      blend_shape_keyform_binding_sources_begin_indices{}: 0xd3140-0xd3140 (0)
       |                                               |                |        array[0:0]: 0xd3140-0xd3140 (0)
       |                                               |                |        padding: raw bits 0xd3140-0xd3140 (0)
       |                                               |                |      blend_shape_keyform_binding_sources_counts{}: 0xd3140-0xd3140 (0)
       |                                               |                |        array[0:0]: 0xd3140-0xd3140 (0)
       |                                               |                |        padding: raw bits 0xd3140-0xd3140 (0)
       |                                               |                |    blend_shapes_glue{}: 0xd3140-0xd3140 (0)
       |                                               |                |      target_indices{}: 0xd3140-0xd3140 (0)
       |                                               |                |        array[0:0]: 0xd3140-0xd3140 (0)
       |                                               |                |        padding: raw bits 0xd3140-0xd3140 (0)
       |                                               |                |      blend_shape_keyform_binding_sources_begin_indices{}: 0xd3140-0xd3140 (0)
       |                                               |                |        array[0:0]: 0xd3140-0xd3140 (0)
       |                                               |                |        padding: raw bits 0xd3140-0xd3140 (0)
       |                                               |                |      blend_shape_keyform_binding_sources_counts{}: 0xd3140-0xd3140 (0)
       |                                               |                |        array[0:0]: 0xd3140-0xd3140 (0)
       |                                               |                |        padding: raw bits 0xd3140-0xd3140 (0)
