# gm convert -size 4x4 'xc:#000' 4x4.gif
/4x4.gif:
> fq -d gif 4x4.gif verbose
    |00 01 02 03 04 05 06 07 08 09 0a 0b 0c 0d 0e 0f|                |.: gif 0x0-0x2c.7 (45)
0x00|47 49 46 38 39 61                              |GIF89a          |  header: "GIF89a" (Correct) 0x0-0x5.7 (6)
0x00|                  04 00                        |      ..        |  width: 4 0x6-0x7.7 (2)
0x00|                        04 00                  |        ..      |  height: 4 0x8-0x9.7 (2)
0x00|                              f0               |          .     |  gcp_follows: true 0xa-0xa (0.1)
0x00|                              f0               |          .     |  color_resolution: 8 0xa.1-0xa.3 (0.3)
0x00|                              f0               |          .     |  zero: 0 0xa.4-0xa.4 (0.1)
0x00|                              f0               |          .     |  bit_depth: 1 0xa.5-0xa.7 (0.3)
0x00|                                 00            |           .    |  black_color: 0 0xb-0xb.7 (1)
0x00|                                    00         |            .   |  pixel_aspect_ratio: 0 0xc-0xc.7 (1)
    |                                               |                |  global_color_map[2]: 0xd-0x12.7 (6)
    |                                               |                |    [0][3]: (global_color_map) 0xd-0xf.7 (3)
0x00|                                       00      |             .  |      [0]: 0 (r) 0xd-0xd.7 (1)
0x00|                                          00   |              . |      [1]: 0 (g) 0xe-0xe.7 (1)
0x00|                                             00|               .|      [2]: 0 (b) 0xf-0xf.7 (1)
    |                                               |                |    [1][3]: (global_color_map) 0x10-0x12.7 (3)
0x10|00                                             |.               |      [0]: 0 (r) 0x10-0x10.7 (1)
0x10|   00                                          | .              |      [1]: 0 (g) 0x11-0x11.7 (1)
0x10|      00                                       |  .             |      [2]: 0 (b) 0x12-0x12.7 (1)
    |                                               |                |  blocks[2]: 0x13-0x2b.7 (25)
    |                                               |                |    [0]: {} (extension_block) 0x13-0x1a.7 (8)
0x10|         21                                    |   !            |      introducer: 33 0x13-0x13.7 (1)
0x10|            f9                                 |    .           |      function code: 249 0x14-0x14.7 (1)
    |                                               |                |      func_data_bytes[1]: 0x15-0x1a.7 (6)
    |                                               |                |        [0]: {} (func_data_byte) 0x15-0x1a.7 (6)
0x10|               04                              |     .          |          byte_count: 4 0x15-0x15.7 (1)
0x10|                  00 00 00 00                  |      ....      |          data: 00000000 0x16-0x19.7 (4)
0x10|                              00               |          .     |          terminator: 0 0x1a-0x1a.7 (1)
    |                                               |                |    [1]: {} (image) 0x1b-0x2b.7 (17)
0x10|                                 2c            |           ,    |      image_separator_character: 44 0x1b-0x1b.7 (1)
0x10|                                    00 00      |            ..  |      left: 0 0x1c-0x1d.7 (2)
0x10|                                          00 00|              ..|      top: 0 0x1e-0x1f.7 (2)
0x20|04 00                                          |..              |      width: 4 0x20-0x21.7 (2)
0x20|      04 00                                    |  ..            |      height: 4 0x22-0x23.7 (2)
0x20|            00                                 |    .           |      use_global_color_map: false 0x24-0x24 (0.1)
0x20|            00                                 |    .           |      local_color_follows: false 0x24.1-0x24.1 (0.1)
0x20|            00                                 |    .           |      image_sequential: false 0x24.2-0x24.2 (0.1)
0x20|            00                                 |    .           |      image_interlaced: false 0x24.3-0x24.3 (0.1)
0x20|            00                                 |    .           |      zero: 0 0x24.4-0x24.4 (0.1)
0x20|            00                                 |    .           |      bit_depth: 1 0x24.5-0x24.7 (0.3)
0x20|               02                              |     .          |      code_size: 2 0x25-0x25.7 (1)
    |                                               |                |      image_bytes[1]: 0x26-0x2b.7 (6)
    |                                               |                |        [0]: {} (func_data_byte) 0x26-0x2b.7 (6)
0x20|                  04                           |      .         |          byte_count: 4 0x26-0x26.7 (1)
0x20|                     84 8f 09 05               |       ....     |          data: 848f0905 0x27-0x2a.7 (4)
0x20|                                 00            |           .    |          terminator: 0 0x2b-0x2b.7 (1)
0x20|                                    3b|        |            ;|  |  terminator: 59 0x2c-0x2c.7 (1)
