$ fq -d id3v2 dv ctoc
    |00 01 02 03 04 05 06 07 08 09 0a 0b 0c 0d 0e 0f|0123456789abcdef|.{}: ctoc (id3v2) 0x0-0x9f (159)
    |                                               |                |  header{}: 0x0-0xa (10)
0x00|49 44 33                                       |ID3             |    magic: "ID3" (valid) 0x0-0x3 (3)
0x00|         03                                    |   .            |    version: 3 (valid) 0x3-0x4 (1)
0x00|            00                                 |    .           |    revision: 0 0x4-0x5 (1)
    |                                               |                |    flags{}: 0x5-0x6 (1)
0x00|               00                              |     .          |      unsynchronisation: false 0x5-0x5.1 (0.1)
0x00|               00                              |     .          |      extended_header: false 0x5.1-0x5.2 (0.1)
0x00|               00                              |     .          |      experimental_indicator: false 0x5.2-0x5.3 (0.1)
0x00|               00                              |     .          |      unused: 0 0x5.3-0x6 (0.5)
0x00|                  00 00 01 95                  |      ....      |    size: 149 0x6-0xa (4)
    |                                               |                |  frames[0:1]: 0xa-0x9f (149)
    |                                               |                |    [0]{}: frame 0xa-0x9f (149)
0x00|                              43 54 4f 43      |          CTOC  |      id: "CTOC" (Table of contents) 0xa-0xe (4)
0x00|                                          00 00|              ..|      size: 139 0xe-0x12 (4)
0x10|00 8b                                          |..              |
    |                                               |                |      flags{}: 0x12-0x14 (2)
0x10|      00                                       |  .             |        tag_alter_preservation: false 0x12-0x12.1 (0.1)
0x10|      00                                       |  .             |        file_alter_preservation: false 0x12.1-0x12.2 (0.1)
0x10|      00                                       |  .             |        read_only: false 0x12.2-0x12.3 (0.1)
0x10|      00                                       |  .             |        unused0: 0 0x12.3-0x13 (0.5)
0x10|         00                                    |   .            |        compression: false 0x13-0x13.1 (0.1)
0x10|         00                                    |   .            |        encryption: false 0x13.1-0x13.2 (0.1)
0x10|         00                                    |   .            |        grouping_identity: false 0x13.2-0x13.3 (0.1)
0x10|         00                                    |   .            |        unused1: 0 0x13.3-0x14 (0.5)
0x10|            54 4f 43 4d 00                     |    TOCM.       |      element_id: "TOCM" 0x14-0x19 (5)
    |                                               |                |      ctoc_flags{}: 0x19-0x1a (1)
0x10|                           03                  |         .      |        unused0: 0 0x19-0x19.6 (0.6)
0x10|                           03                  |         .      |        top_level: true 0x19.6-0x19.7 (0.1)
0x10|                           03                  |         .      |        order: true 0x19.7-0x1a (0.1)
0x10|                              13               |          .     |      entry_count: 19 0x1a-0x1b (1)
    |                                               |                |      entries[0:19]: 0x1b-0x70 (85)
0x10|                                 63 68 30 00   |           ch0. |        [0]: "ch0" entry 0x1b-0x1f (4)
0x10|                                             63|               c|        [1]: "ch1" entry 0x1f-0x23 (4)
0x20|68 31 00                                       |h1.             |
0x20|         63 68 32 00                           |   ch2.         |        [2]: "ch2" entry 0x23-0x27 (4)
0x20|                     63 68 33 00               |       ch3.     |        [3]: "ch3" entry 0x27-0x2b (4)
0x20|                                 63 68 34 00   |           ch4. |        [4]: "ch4" entry 0x2b-0x2f (4)
0x20|                                             63|               c|        [5]: "ch5" entry 0x2f-0x33 (4)
0x30|68 35 00                                       |h5.             |
0x30|         63 68 36 00                           |   ch6.         |        [6]: "ch6" entry 0x33-0x37 (4)
0x30|                     63 68 37 00               |       ch7.     |        [7]: "ch7" entry 0x37-0x3b (4)
0x30|                                 63 68 38 00   |           ch8. |        [8]: "ch8" entry 0x3b-0x3f (4)
0x30|                                             63|               c|        [9]: "ch9" entry 0x3f-0x43 (4)
0x40|68 39 00                                       |h9.             |
0x40|         63 68 31 30 00                        |   ch10.        |        [10]: "ch10" entry 0x43-0x48 (5)
0x40|                        63 68 31 31 00         |        ch11.   |        [11]: "ch11" entry 0x48-0x4d (5)
0x40|                                       63 68 31|             ch1|        [12]: "ch12" entry 0x4d-0x52 (5)
0x50|32 00                                          |2.              |
0x50|      63 68 31 33 00                           |  ch13.         |        [13]: "ch13" entry 0x52-0x57 (5)
0x50|                     63 68 31 34 00            |       ch14.    |        [14]: "ch14" entry 0x57-0x5c (5)
0x50|                                    63 68 31 35|            ch15|        [15]: "ch15" entry 0x5c-0x61 (5)
0x60|00                                             |.               |
0x60|   63 68 31 36 00                              | ch16.          |        [16]: "ch16" entry 0x61-0x66 (5)
0x60|                  63 68 31 37 00               |      ch17.     |        [17]: "ch17" entry 0x66-0x6b (5)
0x60|                                 63 68 31 38 00|           ch18.|        [18]: "ch18" entry 0x6b-0x70 (5)
    |                                               |                |      frames[0:1]: 0x70-0x9f (47)
    |                                               |                |        [0]{}: frame 0x70-0x9f (47)
0x70|54 49 54 32                                    |TIT2            |          id: "TIT2" (Title/songname/content description) 0x70-0x74 (4)
0x70|            00 00 00 25                        |    ...%        |          size: 37 0x74-0x78 (4)
    |                                               |                |          flags{}: 0x78-0x7a (2)
0x70|                        00                     |        .       |            tag_alter_preservation: false 0x78-0x78.1 (0.1)
0x70|                        00                     |        .       |            file_alter_preservation: false 0x78.1-0x78.2 (0.1)
0x70|                        00                     |        .       |            read_only: false 0x78.2-0x78.3 (0.1)
0x70|                        00                     |        .       |            unused0: 0 0x78.3-0x79 (0.5)
0x70|                           00                  |         .      |            compression: false 0x79-0x79.1 (0.1)
0x70|                           00                  |         .      |            encryption: false 0x79.1-0x79.2 (0.1)
0x70|                           00                  |         .      |            grouping_identity: false 0x79.2-0x79.3 (0.1)
0x70|                           00                  |         .      |            unused1: 0 0x79.3-0x7a (0.5)
0x70|                              01               |          .     |          text_encoding: "utf16" (1) 0x7a-0x7b (1)
0x70|                                 ff fe 54 00 61|           ..T.a|          text: "Table of contents" 0x7b-0x9f (36)
0x80|00 62 00 6c 00 65 00 20 00 6f 00 66 00 20 00 63|.b.l.e. .o.f. .c|
0x90|00 6f 00 6e 00 74 00 65 00 6e 00 74 00 73 00|  |.o.n.t.e.n.t.s.||
