$ fq -d pg_heap -o flavour=postgres15 ".[0].tuples[0,-1] | dv" 16401
      |00 01 02 03 04 05 06 07 08 09 0a 0b 0c 0d 0e 0f|0123456789abcdef|.[0].tuples[0]{}: tuple 0x1fe0-0x2000 (32)
      |                                               |                |  header{}: 0x1fe0-0x1ff8 (24)
      |                                               |                |    t_choice{}: 0x1fe0-0x1fec (12)
      |                                               |                |      t_heap{}: 0x1fe0-0x1fec (12)
0x1fe0|e3 02 00 00                                    |....            |        t_xmin: 739 0x1fe0-0x1fe4 (4)
0x1fe0|            00 00 00 00                        |    ....        |        t_xmax: 0 0x1fe4-0x1fe8 (4)
      |                                               |                |        t_field3{}: 0x1fe8-0x1fec (4)
0x1fe0|                        04 00 00 00            |        ....    |          t_cid: 4 0x1fe8-0x1fec (4)
0x1fe0|                        04 00 00 00            |        ....    |          t_xvac: 4 0x1fe8-0x1fec (4)
      |                                               |                |      t_datum{}: 0x1fe0-0x1fec (12)
0x1fe0|e3 02 00 00                                    |....            |        datum_len_: 739 0x1fe0-0x1fe4 (4)
0x1fe0|            00 00 00 00                        |    ....        |        datum_typmod: 0 0x1fe4-0x1fe8 (4)
0x1fe0|                        04 00 00 00            |        ....    |        datum_typeid: 4 0x1fe8-0x1fec (4)
      |                                               |                |    t_ctid{}: 0x1fec-0x1ff2 (6)
0x1fe0|                                    00 00 00 00|            ....|      ip_blkid: 0 0x1fec-0x1ff0 (4)
0x1ff0|01 00                                          |..              |      ip_posid: 1 0x1ff0-0x1ff2 (2)
0x1ff0|      03 00                                    |  ..            |    t_infomask2: 3 0x1ff2-0x1ff4 (2)
      |                                               |                |    infomask2{}: 0x1ff4-0x1ff4 (0)
      |                                               |                |      heap_keys_updated: false
      |                                               |                |      heap_hot_updated: false
      |                                               |                |      heap_only_tuple: false
0x1ff0|            01 09                              |    ..          |    t_infomask: 2305 0x1ff4-0x1ff6 (2)
      |                                               |                |    infomask{}: 0x1ff6-0x1ff6 (0)
      |                                               |                |      heap_hasnull: true
      |                                               |                |      heap_hasvarwidth: false
      |                                               |                |      heap_hasexternal: false
      |                                               |                |      heap_hasoid_old: false
      |                                               |                |      heap_xmax_keyshr_lock: false
      |                                               |                |      heap_combocid: false
      |                                               |                |      heap_xmax_excl_lock: false
      |                                               |                |      heap_xmax_lock_only: false
      |                                               |                |      heap_xmax_shr_lock: false
      |                                               |                |      heap_lock_mask: false
      |                                               |                |      heap_xmin_committed: true
      |                                               |                |      heap_xmin_invalid: false
      |                                               |                |      heap_xmin_frozen: true
      |                                               |                |      heap_xmax_committed: false
      |                                               |                |      heap_xmax_invalid: true
      |                                               |                |      heap_xmax_is_multi: false
      |                                               |                |      heap_updated: false
      |                                               |                |      heap_moved_off: false
      |                                               |                |      heap_moved_in: false
      |                                               |                |      heap_moved: false
0x1ff0|                  18                           |      .         |    t_hoff: 24 0x1ff6-0x1ff7 (1)
0x1ff0|                     03                        |       .        |    padding0: 3 0x1ff7-0x1ff8 (1)
0x1ff0|                        01 00 00 00 00 00 00 00|        ........|  data: "0100000000000000" (raw bits) 0x1ff8-0x2000 (8)
      |00 01 02 03 04 05 06 07 08 09 0a 0b 0c 0d 0e 0f|0123456789abcdef|.[0].tuples[0]{}: tuple 0x1fe0-0x2000 (32)
      |                                               |                |  header{}: 0x1fe0-0x1ff8 (24)
      |                                               |                |    t_choice{}: 0x1fe0-0x1fec (12)
      |                                               |                |      t_heap{}: 0x1fe0-0x1fec (12)
0x1fe0|e3 02 00 00                                    |....            |        t_xmin: 739 0x1fe0-0x1fe4 (4)
0x1fe0|            00 00 00 00                        |    ....        |        t_xmax: 0 0x1fe4-0x1fe8 (4)
      |                                               |                |        t_field3{}: 0x1fe8-0x1fec (4)
0x1fe0|                        04 00 00 00            |        ....    |          t_cid: 4 0x1fe8-0x1fec (4)
0x1fe0|                        04 00 00 00            |        ....    |          t_xvac: 4 0x1fe8-0x1fec (4)
      |                                               |                |      t_datum{}: 0x1fe0-0x1fec (12)
0x1fe0|e3 02 00 00                                    |....            |        datum_len_: 739 0x1fe0-0x1fe4 (4)
0x1fe0|            00 00 00 00                        |    ....        |        datum_typmod: 0 0x1fe4-0x1fe8 (4)
0x1fe0|                        04 00 00 00            |        ....    |        datum_typeid: 4 0x1fe8-0x1fec (4)
      |                                               |                |    t_ctid{}: 0x1fec-0x1ff2 (6)
0x1fe0|                                    00 00 00 00|            ....|      ip_blkid: 0 0x1fec-0x1ff0 (4)
0x1ff0|01 00                                          |..              |      ip_posid: 1 0x1ff0-0x1ff2 (2)
0x1ff0|      03 00                                    |  ..            |    t_infomask2: 3 0x1ff2-0x1ff4 (2)
      |                                               |                |    infomask2{}: 0x1ff4-0x1ff4 (0)
      |                                               |                |      heap_keys_updated: false
      |                                               |                |      heap_hot_updated: false
      |                                               |                |      heap_only_tuple: false
0x1ff0|            01 09                              |    ..          |    t_infomask: 2305 0x1ff4-0x1ff6 (2)
      |                                               |                |    infomask{}: 0x1ff6-0x1ff6 (0)
      |                                               |                |      heap_hasnull: true
      |                                               |                |      heap_hasvarwidth: false
      |                                               |                |      heap_hasexternal: false
      |                                               |                |      heap_hasoid_old: false
      |                                               |                |      heap_xmax_keyshr_lock: false
      |                                               |                |      heap_combocid: false
      |                                               |                |      heap_xmax_excl_lock: false
      |                                               |                |      heap_xmax_lock_only: false
      |                                               |                |      heap_xmax_shr_lock: false
      |                                               |                |      heap_lock_mask: false
      |                                               |                |      heap_xmin_committed: true
      |                                               |                |      heap_xmin_invalid: false
      |                                               |                |      heap_xmin_frozen: true
      |                                               |                |      heap_xmax_committed: false
      |                                               |                |      heap_xmax_invalid: true
      |                                               |                |      heap_xmax_is_multi: false
      |                                               |                |      heap_updated: false
      |                                               |                |      heap_moved_off: false
      |                                               |                |      heap_moved_in: false
      |                                               |                |      heap_moved: false
0x1ff0|                  18                           |      .         |    t_hoff: 24 0x1ff6-0x1ff7 (1)
0x1ff0|                     03                        |       .        |    padding0: 3 0x1ff7-0x1ff8 (1)
0x1ff0|                        01 00 00 00 00 00 00 00|        ........|  data: "0100000000000000" (raw bits) 0x1ff8-0x2000 (8)
