$ fq -d elf dv a_dynamic
      |00 01 02 03 04 05 06 07 08 09 0a 0b 0c 0d 0e 0f|0123456789abcdef|.{}: a_dynamic (elf) 0x0-0x255c (9564)
      |                                               |                |  header{}: 0x0-0x34 (52)
      |                                               |                |    ident{}: 0x0-0x10 (16)
0x0000|7f 45 4c 46                                    |.ELF            |      magic: raw bits (valid) 0x0-0x4 (4)
0x0000|            01                                 |    .           |      class: 32 (1) 0x4-0x5 (1)
0x0000|               01                              |     .          |      data: "little_endian" (1) 0x5-0x6 (1)
0x0000|                  01                           |      .         |      version: 1 0x6-0x7 (1)
0x0000|                     00                        |       .        |      os_abi: "sysv" (0) 0x7-0x8 (1)
0x0000|                        00                     |        .       |      abi_version: 0 0x8-0x9 (1)
0x0000|                           00 00 00 00 00 00 00|         .......|      pad: raw bits (all zero) 0x9-0x10 (7)
0x0010|03 00                                          |..              |    type: "dyn" (0x3) 0x10-0x12 (2)
0x0010|      28 00                                    |  (.            |    machine: "arm" (0x28) (ARM (up to ARMv7/Aarch32)) 0x12-0x14 (2)
0x0010|            01 00 00 00                        |    ....        |    version: 1 0x14-0x18 (4)
0x0010|                        d4 03 00 00            |        ....    |    entry: 980 0x18-0x1c (4)
0x0010|                                    34 00 00 00|            4...|    phoff: 52 0x1c-0x20 (4)
0x0020|5c 20 00 00                                    |\ ..            |    shoff: 8284 0x20-0x24 (4)
0x0020|            00 04 00 05                        |    ....        |    flags: 83887104 0x24-0x28 (4)
0x0020|                        34 00                  |        4.      |    ehsize: 52 0x28-0x2a (2)
0x0020|                              20 00            |           .    |    phentsize: 32 0x2a-0x2c (2)
0x0020|                                    07 00      |            ..  |    phnum: 7 0x2c-0x2e (2)
0x0020|                                          28 00|              (.|    shentsize: 40 0x2e-0x30 (2)
0x0030|20 00                                          | .              |    shnum: 32 0x30-0x32 (2)
0x0030|      1f 00                                    |  ..            |    shstrndx: 31 0x32-0x34 (2)
      |                                               |                |  program_headers[0:7]: 0x0-0x1004 (4100)
      |                                               |                |    [0]{}: program_header 0x34-0x114 (224)
0x0030|            06 00 00 00                        |    ....        |      type: "phdr" (6) (Program header location and size) 0x34-0x38 (4)
0x0030|            06 00 00 00 34 00 00 00 34 00 00 00|    ....4...4...|      data: raw bits 0x34-0x114 (224)
0x0040|34 00 00 00 e0 00 00 00 e0 00 00 00 04 00 00 00|4...............|
*     |until 0x113.7 (224)                            |                |
0x0030|                        34 00 00 00            |        4...    |      offset: 0x34 0x38-0x3c (4)
0x0030|                                    34 00 00 00|            4...|      vaddr: 0x34 0x3c-0x40 (4)
0x0040|34 00 00 00                                    |4...            |      paddr: 0x34 0x40-0x44 (4)
0x0040|            e0 00 00 00                        |    ....        |      filesz: 224 0x44-0x48 (4)
0x0040|                        e0 00 00 00            |        ....    |      memsz: 224 0x48-0x4c (4)
      |                                               |                |      flags{}: 0x4c-0x50 (4)
0x0040|                                    04         |            .   |        unused0: 0 0x4c-0x4c.5 (0.5)
0x0040|                                    04         |            .   |        r: true 0x4c.5-0x4c.6 (0.1)
0x0040|                                    04         |            .   |        w: false 0x4c.6-0x4c.7 (0.1)
0x0040|                                    04         |            .   |        x: false 0x4c.7-0x4d (0.1)
0x0040|                                       00 00 00|             ...|        unused1: 0 0x4d-0x50 (3)
0x0050|04 00 00 00                                    |....            |      align: 4 0x50-0x54 (4)
      |                                               |                |    [1]{}: program_header 0x54-0x12c (216)
0x0050|            03 00 00 00                        |    ....        |      type: "interp" (3) (Interpreter to invoke) 0x54-0x58 (4)
0x0050|                        14 01 00 00            |        ....    |      offset: 0x114 0x58-0x5c (4)
0x0050|                                    14 01 00 00|            ....|      vaddr: 0x114 0x5c-0x60 (4)
0x0060|14 01 00 00                                    |....            |      paddr: 0x114 0x60-0x64 (4)
0x0060|            18 00 00 00                        |    ....        |      filesz: 24 0x64-0x68 (4)
0x0060|                        18 00 00 00            |        ....    |      memsz: 24 0x68-0x6c (4)
      |                                               |                |      flags{}: 0x6c-0x70 (4)
0x0060|                                    04         |            .   |        unused0: 0 0x6c-0x6c.5 (0.5)
0x0060|                                    04         |            .   |        r: true 0x6c.5-0x6c.6 (0.1)
0x0060|                                    04         |            .   |        w: false 0x6c.6-0x6c.7 (0.1)
0x0060|                                    04         |            .   |        x: false 0x6c.7-0x6d (0.1)
0x0060|                                       00 00 00|             ...|        unused1: 0 0x6d-0x70 (3)
0x0070|01 00 00 00                                    |....            |      align: 1 0x70-0x74 (4)
0x0110|            2f 6c 69 62 2f 6c 64 2d 6d 75 73 6c|    /lib/ld-musl|      data: raw bits 0x114-0x12c (24)
0x0120|2d 61 72 6d 68 66 2e 73 6f 2e 31 00            |-armhf.so.1.    |
      |                                               |                |    [2]{}: program_header 0x0-0x73c (1852)
0x0000|7f 45 4c 46 01 01 01 00 00 00 00 00 00 00 00 00|.ELF............|      data: raw bits 0x0-0x73c (1852)
*     |until 0x73b.7 (1852)                           |                |
0x0070|            01 00 00 00                        |    ....        |      type: "load" (1) (Loadable segment) 0x74-0x78 (4)
0x0070|                        00 00 00 00            |        ....    |      offset: 0x0 0x78-0x7c (4)
0x0070|                                    00 00 00 00|            ....|      vaddr: 0x0 0x7c-0x80 (4)
0x0080|00 00 00 00                                    |....            |      paddr: 0x0 0x80-0x84 (4)
0x0080|            3c 07 00 00                        |    <...        |      filesz: 1852 0x84-0x88 (4)
0x0080|                        3c 07 00 00            |        <...    |      memsz: 1852 0x88-0x8c (4)
      |                                               |                |      flags{}: 0x8c-0x90 (4)
0x0080|                                    05         |            .   |        unused0: 0 0x8c-0x8c.5 (0.5)
0x0080|                                    05         |            .   |        r: true 0x8c.5-0x8c.6 (0.1)
0x0080|                                    05         |            .   |        w: false 0x8c.6-0x8c.7 (0.1)
0x0080|                                    05         |            .   |        x: true 0x8c.7-0x8d (0.1)
0x0080|                                       00 00 00|             ...|        unused1: 0 0x8d-0x90 (3)
0x0090|00 00 01 00                                    |....            |      align: 65536 0x90-0x94 (4)
      |                                               |                |    [3]{}: program_header 0x94-0x1004 (3952)
0x0090|            01 00 00 00                        |    ....        |      type: "load" (1) (Loadable segment) 0x94-0x98 (4)
0x0090|                        cc 0e 00 00            |        ....    |      offset: 0xecc 0x98-0x9c (4)
0x0090|                                    cc 0e 01 00|            ....|      vaddr: 0x10ecc 0x9c-0xa0 (4)
0x00a0|cc 0e 01 00                                    |....            |      paddr: 0x10ecc 0xa0-0xa4 (4)
0x00a0|            38 01 00 00                        |    8...        |      filesz: 312 0xa4-0xa8 (4)
0x00a0|                        54 01 00 00            |        T...    |      memsz: 340 0xa8-0xac (4)
      |                                               |                |      flags{}: 0xac-0xb0 (4)
0x00a0|                                    06         |            .   |        unused0: 0 0xac-0xac.5 (0.5)
0x00a0|                                    06         |            .   |        r: true 0xac.5-0xac.6 (0.1)
0x00a0|                                    06         |            .   |        w: true 0xac.6-0xac.7 (0.1)
0x00a0|                                    06         |            .   |        x: false 0xac.7-0xad (0.1)
0x00a0|                                       00 00 00|             ...|        unused1: 0 0xad-0xb0 (3)
0x00b0|00 00 01 00                                    |....            |      align: 65536 0xb0-0xb4 (4)
0x0ec0|                                    7c 05 00 00|            |...|      data: raw bits 0xecc-0x1004 (312)
0x0ed0|f0 04 00 00 01 00 00 00 a2 00 00 00 01 00 00 00|................|
*     |until 0x1003.7 (312)                           |                |
      |                                               |                |    [4]{}: program_header 0xb4-0xfbc (3848)
0x00b0|            02 00 00 00                        |    ....        |      type: "dynamic" (2) (Dynamic linking information) 0xb4-0xb8 (4)
0x00b0|                        d4 0e 00 00            |        ....    |      offset: 0xed4 0xb8-0xbc (4)
0x00b0|                                    d4 0e 01 00|            ....|      vaddr: 0x10ed4 0xbc-0xc0 (4)
0x00c0|d4 0e 01 00                                    |....            |      paddr: 0x10ed4 0xc0-0xc4 (4)
0x00c0|            e8 00 00 00                        |    ....        |      filesz: 232 0xc4-0xc8 (4)
0x00c0|                        e8 00 00 00            |        ....    |      memsz: 232 0xc8-0xcc (4)
      |                                               |                |      flags{}: 0xcc-0xd0 (4)
0x00c0|                                    06         |            .   |        unused0: 0 0xcc-0xcc.5 (0.5)
0x00c0|                                    06         |            .   |        r: true 0xcc.5-0xcc.6 (0.1)
0x00c0|                                    06         |            .   |        w: true 0xcc.6-0xcc.7 (0.1)
0x00c0|                                    06         |            .   |        x: false 0xcc.7-0xcd (0.1)
0x00c0|                                       00 00 00|             ...|        unused1: 0 0xcd-0xd0 (3)
0x00d0|04 00 00 00                                    |....            |      align: 4 0xd0-0xd4 (4)
0x0ed0|            01 00 00 00 a2 00 00 00 01 00 00 00|    ............|      data: raw bits 0xed4-0xfbc (232)
0x0ee0|ac 00 00 00 0c 00 00 00 6c 03 00 00 0d 00 00 00|........l.......|
*     |until 0xfbb.7 (232)                            |                |
      |                                               |                |    [5]{}: program_header 0x0-0xf4 (244)
      |                                               |                |      data: raw bits 0x0-0x0 (0)
0x00d0|            51 e5 74 64                        |    Q.td        |      type: "gnu_stack" (1685382481) (GNU stack permission) 0xd4-0xd8 (4)
0x00d0|                        00 00 00 00            |        ....    |      offset: 0x0 0xd8-0xdc (4)
0x00d0|                                    00 00 00 00|            ....|      vaddr: 0x0 0xdc-0xe0 (4)
0x00e0|00 00 00 00                                    |....            |      paddr: 0x0 0xe0-0xe4 (4)
0x00e0|            00 00 00 00                        |    ....        |      filesz: 0 0xe4-0xe8 (4)
0x00e0|                        00 00 00 00            |        ....    |      memsz: 0 0xe8-0xec (4)
      |                                               |                |      flags{}: 0xec-0xf0 (4)
0x00e0|                                    06         |            .   |        unused0: 0 0xec-0xec.5 (0.5)
0x00e0|                                    06         |            .   |        r: true 0xec.5-0xec.6 (0.1)
0x00e0|                                    06         |            .   |        w: true 0xec.6-0xec.7 (0.1)
0x00e0|                                    06         |            .   |        x: false 0xec.7-0xed (0.1)
0x00e0|                                       00 00 00|             ...|        unused1: 0 0xed-0xf0 (3)
0x00f0|10 00 00 00                                    |....            |      align: 16 0xf0-0xf4 (4)
      |                                               |                |    [6]{}: program_header 0xf4-0x1000 (3852)
0x00f0|            52 e5 74 64                        |    R.td        |      type: "gnu_relro" (1685382482) (GNU read-only after relocation) 0xf4-0xf8 (4)
0x00f0|                        cc 0e 00 00            |        ....    |      offset: 0xecc 0xf8-0xfc (4)
0x00f0|                                    cc 0e 01 00|            ....|      vaddr: 0x10ecc 0xfc-0x100 (4)
0x0100|cc 0e 01 00                                    |....            |      paddr: 0x10ecc 0x100-0x104 (4)
0x0100|            34 01 00 00                        |    4...        |      filesz: 308 0x104-0x108 (4)
0x0100|                        34 01 00 00            |        4...    |      memsz: 308 0x108-0x10c (4)
      |                                               |                |      flags{}: 0x10c-0x110 (4)
0x0100|                                    04         |            .   |        unused0: 0 0x10c-0x10c.5 (0.5)
0x0100|                                    04         |            .   |        r: true 0x10c.5-0x10c.6 (0.1)
0x0100|                                    04         |            .   |        w: false 0x10c.6-0x10c.7 (0.1)
0x0100|                                    04         |            .   |        x: false 0x10c.7-0x10d (0.1)
0x0100|                                       00 00 00|             ...|        unused1: 0 0x10d-0x110 (3)
0x0110|01 00 00 00                                    |....            |      align: 1 0x110-0x114 (4)
0x0ec0|                                    7c 05 00 00|            |...|      data: raw bits 0xecc-0x1000 (308)
0x0ed0|f0 04 00 00 01 00 00 00 a2 00 00 00 01 00 00 00|................|
*     |until 0xfff.7 (308)                            |                |
      |                                               |                |  section_headers[0:32]: 0x114-0x255c (9288)
      |                                               |                |    [0]{}: section_header 0x205c-0x2084 (40)
0x2050|                                    00 00 00 00|            ....|      name: "" (0) 0x205c-0x2060 (4)
0x2060|00 00 00 00                                    |....            |      type: "null" (0x0) (Header inactive) 0x2060-0x2064 (4)
      |                                               |                |      flags{}: 0x2064-0x2068 (4)
0x2060|            00                                 |    .           |        link_order: false 0x2064-0x2064.1 (0.1)
0x2060|            00                                 |    .           |        info_link: false 0x2064.1-0x2064.2 (0.1)
0x2060|            00                                 |    .           |        strings: false 0x2064.2-0x2064.3 (0.1)
0x2060|            00                                 |    .           |        merge: false 0x2064.3-0x2064.4 (0.1)
0x2060|            00                                 |    .           |        unused0: 0 0x2064.4-0x2064.5 (0.1)
0x2060|            00                                 |    .           |        execinstr: false 0x2064.5-0x2064.6 (0.1)
0x2060|            00                                 |    .           |        alloc: false 0x2064.6-0x2064.7 (0.1)
0x2060|            00                                 |    .           |        write: false 0x2064.7-0x2065 (0.1)
0x2060|               00                              |     .          |        tls: false 0x2065-0x2065.1 (0.1)
0x2060|               00                              |     .          |        group: false 0x2065.1-0x2065.2 (0.1)
0x2060|               00                              |     .          |        os_nonconforming: false 0x2065.2-0x2065.3 (0.1)
0x2060|               00 00                           |     ..         |        unused1: 0 0x2065.3-0x2066.4 (1.1)
0x2060|                  00 00                        |      ..        |        os_specific: 0 0x2066.4-0x2067.4 (1)
0x2060|                     00                        |       .        |        processor_specific: 0 0x2067.4-0x2068 (0.4)
0x2060|                        00 00 00 00            |        ....    |      addr: 0x0 0x2068-0x206c (4)
0x2060|                                    00 00 00 00|            ....|      offset: 0 0x206c-0x2070 (4)
0x2070|00 00 00 00                                    |....            |      size: 0x0 0x2070-0x2074 (4)
0x2070|            00 00 00 00                        |    ....        |      link: 0 0x2074-0x2078 (4)
0x2070|                        00 00 00 00            |        ....    |      info: 0 0x2078-0x207c (4)
0x2070|                                    00 00 00 00|            ....|      addralign: 0 0x207c-0x2080 (4)
0x2080|00 00 00 00                                    |....            |      entsize: 0 0x2080-0x2084 (4)
      |                                               |                |    [1]{}: section_header 0x114-0x20ac (8088)
0x0110|            2f 6c 69 62 2f 6c 64 2d 6d 75 73 6c|    /lib/ld-musl|      data: raw bits 0x114-0x12c (24)
0x0120|2d 61 72 6d 68 66 2e 73 6f 2e 31 00            |-armhf.so.1.    |
0x2080|            1b 00 00 00                        |    ....        |      name: ".interp" (27) 0x2084-0x2088 (4)
0x2080|                        01 00 00 00            |        ....    |      type: "progbits" (0x1) (Information defined by the program) 0x2088-0x208c (4)
      |                                               |                |      flags{}: 0x208c-0x2090 (4)
0x2080|                                    02         |            .   |        link_order: false 0x208c-0x208c.1 (0.1)
0x2080|                                    02         |            .   |        info_link: false 0x208c.1-0x208c.2 (0.1)
0x2080|                                    02         |            .   |        strings: false 0x208c.2-0x208c.3 (0.1)
0x2080|                                    02         |            .   |        merge: false 0x208c.3-0x208c.4 (0.1)
0x2080|                                    02         |            .   |        unused0: 0 0x208c.4-0x208c.5 (0.1)
0x2080|                                    02         |            .   |        execinstr: false 0x208c.5-0x208c.6 (0.1)
0x2080|                                    02         |            .   |        alloc: true 0x208c.6-0x208c.7 (0.1)
0x2080|                                    02         |            .   |        write: false 0x208c.7-0x208d (0.1)
0x2080|                                       00      |             .  |        tls: false 0x208d-0x208d.1 (0.1)
0x2080|                                       00      |             .  |        group: false 0x208d.1-0x208d.2 (0.1)
0x2080|                                       00      |             .  |        os_nonconforming: false 0x208d.2-0x208d.3 (0.1)
0x2080|                                       00 00   |             .. |        unused1: 0 0x208d.3-0x208e.4 (1.1)
0x2080|                                          00 00|              ..|        os_specific: 0 0x208e.4-0x208f.4 (1)
0x2080|                                             00|               .|        processor_specific: 0 0x208f.4-0x2090 (0.4)
0x2090|14 01 00 00                                    |....            |      addr: 0x114 0x2090-0x2094 (4)
0x2090|            14 01 00 00                        |    ....        |      offset: 276 0x2094-0x2098 (4)
0x2090|                        18 00 00 00            |        ....    |      size: 0x18 0x2098-0x209c (4)
0x2090|                                    00 00 00 00|            ....|      link: 0 0x209c-0x20a0 (4)
0x20a0|00 00 00 00                                    |....            |      info: 0 0x20a0-0x20a4 (4)
0x20a0|            01 00 00 00                        |    ....        |      addralign: 1 0x20a4-0x20a8 (4)
0x20a0|                        00 00 00 00            |        ....    |      entsize: 0 0x20a8-0x20ac (4)
      |                                               |                |    [2]{}: section_header 0x12c-0x20d4 (8104)
      |                                               |                |      gnu_hash{}: 0x12c-0x150 (36)
0x0120|                                    02 00 00 00|            ....|        nbuckets: 2 0x12c-0x130 (4)
0x0130|0b 00 00 00                                    |....            |        symndx: 11 0x130-0x134 (4)
0x0130|            01 00 00 00                        |    ....        |        maskwords: 1 0x134-0x138 (4)
0x0130|                        05 00 00 00            |        ....    |        shift2: 5 0x138-0x13c (4)
      |                                               |                |        bloom_filter[0:1]: 0x13c-0x140 (4)
0x0130|                                    00 24 00 81|            .$..|          [0]: 2164270080 maskword 0x13c-0x140 (4)
      |                                               |                |        buckets[0:2]: 0x140-0x148 (8)
0x0140|0b 00 00 00                                    |....            |          [0]: 11 bucket 0x140-0x144 (4)
0x0140|            00 00 00 00                        |    ....        |          [1]: 0 bucket 0x144-0x148 (4)
      |                                               |                |        values[0:2]: 0x148-0x150 (8)
0x0140|                        b8 8d f1 0e            |        ....    |          [0]: 250711480 value 0x148-0x14c (4)
0x0140|                                    eb d3 ef 0e|            ....|          [1]: 250598379 value 0x14c-0x150 (4)
0x20a0|                                    23 00 00 00|            #...|      name: ".gnu.hash" (35) 0x20ac-0x20b0 (4)
0x20b0|f6 ff ff 6f                                    |...o            |      type: "gnu_hash" (0x6ffffff6) (GNU symbol hash table) 0x20b0-0x20b4 (4)
      |                                               |                |      flags{}: 0x20b4-0x20b8 (4)
0x20b0|            02                                 |    .           |        link_order: false 0x20b4-0x20b4.1 (0.1)
0x20b0|            02                                 |    .           |        info_link: false 0x20b4.1-0x20b4.2 (0.1)
0x20b0|            02                                 |    .           |        strings: false 0x20b4.2-0x20b4.3 (0.1)
0x20b0|            02                                 |    .           |        merge: false 0x20b4.3-0x20b4.4 (0.1)
0x20b0|            02                                 |    .           |        unused0: 0 0x20b4.4-0x20b4.5 (0.1)
0x20b0|            02                                 |    .           |        execinstr: false 0x20b4.5-0x20b4.6 (0.1)
0x20b0|            02                                 |    .           |        alloc: true 0x20b4.6-0x20b4.7 (0.1)
0x20b0|            02                                 |    .           |        write: false 0x20b4.7-0x20b5 (0.1)
0x20b0|               00                              |     .          |        tls: false 0x20b5-0x20b5.1 (0.1)
0x20b0|               00                              |     .          |        group: false 0x20b5.1-0x20b5.2 (0.1)
0x20b0|               00                              |     .          |        os_nonconforming: false 0x20b5.2-0x20b5.3 (0.1)
0x20b0|               00 00                           |     ..         |        unused1: 0 0x20b5.3-0x20b6.4 (1.1)
0x20b0|                  00 00                        |      ..        |        os_specific: 0 0x20b6.4-0x20b7.4 (1)
0x20b0|                     00                        |       .        |        processor_specific: 0 0x20b7.4-0x20b8 (0.4)
0x20b0|                        2c 01 00 00            |        ,...    |      addr: 0x12c 0x20b8-0x20bc (4)
0x20b0|                                    2c 01 00 00|            ,...|      offset: 300 0x20bc-0x20c0 (4)
0x20c0|24 00 00 00                                    |$...            |      size: 0x24 0x20c0-0x20c4 (4)
0x20c0|            03 00 00 00                        |    ....        |      link: 3 0x20c4-0x20c8 (4)
0x20c0|                        00 00 00 00            |        ....    |      info: 0 0x20c8-0x20cc (4)
0x20c0|                                    04 00 00 00|            ....|      addralign: 4 0x20cc-0x20d0 (4)
0x20d0|04 00 00 00                                    |....            |      entsize: 4 0x20d0-0x20d4 (4)
      |                                               |                |    [3]{}: section_header 0x150-0x20fc (8108)
      |                                               |                |      symbol_table[0:13]: 0x150-0x220 (208)
      |                                               |                |        [0]{}: symbol 0x150-0x160 (16)
0x0150|00 00 00 00                                    |....            |          name: "" (0) 0x150-0x154 (4)
0x0150|            00 00 00 00                        |    ....        |          value: 0 0x154-0x158 (4)
0x0150|                        00 00 00 00            |        ....    |          size: 0 0x158-0x15c (4)
0x0150|                                    00         |            .   |          bind: "local" (0) 0x15c-0x15c.4 (0.4)
0x0150|                                    00         |            .   |          type: "notype" (0) 0x15c.4-0x15d (0.4)
0x0150|                                       00      |             .  |          other_unused: 0 0x15d-0x15d.6 (0.6)
0x0150|                                       00      |             .  |          visibility: "default" (0) 0x15d.6-0x15e (0.2)
0x0150|                                          00 00|              ..|          shndx: 0 0x15e-0x160 (2)
      |                                               |                |        [1]{}: symbol 0x160-0x170 (16)
0x0160|00 00 00 00                                    |....            |          name: "" (0) 0x160-0x164 (4)
0x0160|            6c 03 00 00                        |    l...        |          value: 876 0x164-0x168 (4)
0x0160|                        00 00 00 00            |        ....    |          size: 0 0x168-0x16c (4)
0x0160|                                    03         |            .   |          bind: "local" (0) 0x16c-0x16c.4 (0.4)
0x0160|                                    03         |            .   |          type: "section" (3) 0x16c.4-0x16d (0.4)
0x0160|                                       00      |             .  |          other_unused: 0 0x16d-0x16d.6 (0.6)
0x0160|                                       00      |             .  |          visibility: "default" (0) 0x16d.6-0x16e (0.2)
0x0160|                                          07 00|              ..|          shndx: 7 0x16e-0x170 (2)
      |                                               |                |        [2]{}: symbol 0x170-0x180 (16)
0x0170|00 00 00 00                                    |....            |          name: "" (0) 0x170-0x174 (4)
0x0170|            00 10 01 00                        |    ....        |          value: 69632 0x174-0x178 (4)
0x0170|                        00 00 00 00            |        ....    |          size: 0 0x178-0x17c (4)
0x0170|                                    03         |            .   |          bind: "local" (0) 0x17c-0x17c.4 (0.4)
0x0170|                                    03         |            .   |          type: "section" (3) 0x17c.4-0x17d (0.4)
0x0170|                                       00      |             .  |          other_unused: 0 0x17d-0x17d.6 (0.6)
0x0170|                                       00      |             .  |          visibility: "default" (0) 0x17d.6-0x17e (0.2)
0x0170|                                          11 00|              ..|          shndx: 17 0x17e-0x180 (2)
      |                                               |                |        [3]{}: symbol 0x180-0x190 (16)
0x0180|01 00 00 00                                    |....            |          name: "puts" (1) 0x180-0x184 (4)
0x0180|            00 00 00 00                        |    ....        |          value: 0 0x184-0x188 (4)
0x0180|                        00 00 00 00            |        ....    |          size: 0 0x188-0x18c (4)
0x0180|                                    12         |            .   |          bind: "global" (1) 0x18c-0x18c.4 (0.4)
0x0180|                                    12         |            .   |          type: "func" (2) 0x18c.4-0x18d (0.4)
0x0180|                                       00      |             .  |          other_unused: 0 0x18d-0x18d.6 (0.6)
0x0180|                                       00      |             .  |          visibility: "default" (0) 0x18d.6-0x18e (0.2)
0x0180|                                          00 00|              ..|          shndx: 0 0x18e-0x190 (2)
      |                                               |                |        [4]{}: symbol 0x190-0x1a0 (16)
0x0190|06 00 00 00                                    |....            |          name: "__cxa_finalize" (6) 0x190-0x194 (4)
0x0190|            00 00 00 00                        |    ....        |          value: 0 0x194-0x198 (4)
0x0190|                        00 00 00 00            |        ....    |          size: 0 0x198-0x19c (4)
0x0190|                                    22         |            "   |          bind: "weak" (2) 0x19c-0x19c.4 (0.4)
0x0190|                                    22         |            "   |          type: "func" (2) 0x19c.4-0x19d (0.4)
0x0190|                                       00      |             .  |          other_unused: 0 0x19d-0x19d.6 (0.6)
0x0190|                                       00      |             .  |          visibility: "default" (0) 0x19d.6-0x19e (0.2)
0x0190|                                          00 00|              ..|          shndx: 0 0x19e-0x1a0 (2)
      |                                               |                |        [5]{}: symbol 0x1a0-0x1b0 (16)
0x01a0|15 00 00 00                                    |....            |          name: "__deregister_frame_info" (21) 0x1a0-0x1a4 (4)
0x01a0|            00 00 00 00                        |    ....        |          value: 0 0x1a4-0x1a8 (4)
0x01a0|                        00 00 00 00            |        ....    |          size: 0 0x1a8-0x1ac (4)
0x01a0|                                    20         |                |          bind: "weak" (2) 0x1ac-0x1ac.4 (0.4)
0x01a0|                                    20         |                |          type: "notype" (0) 0x1ac.4-0x1ad (0.4)
0x01a0|                                       00      |             .  |          other_unused: 0 0x1ad-0x1ad.6 (0.6)
0x01a0|                                       00      |             .  |          visibility: "default" (0) 0x1ad.6-0x1ae (0.2)
0x01a0|                                          00 00|              ..|          shndx: 0 0x1ae-0x1b0 (2)
      |                                               |                |        [6]{}: symbol 0x1b0-0x1c0 (16)
0x01b0|2d 00 00 00                                    |-...            |          name: "_ITM_registerTMCloneTable" (45) 0x1b0-0x1b4 (4)
0x01b0|            00 00 00 00                        |    ....        |          value: 0 0x1b4-0x1b8 (4)
0x01b0|                        00 00 00 00            |        ....    |          size: 0 0x1b8-0x1bc (4)
0x01b0|                                    20         |                |          bind: "weak" (2) 0x1bc-0x1bc.4 (0.4)
0x01b0|                                    20         |                |          type: "notype" (0) 0x1bc.4-0x1bd (0.4)
0x01b0|                                       00      |             .  |          other_unused: 0 0x1bd-0x1bd.6 (0.6)
0x01b0|                                       00      |             .  |          visibility: "default" (0) 0x1bd.6-0x1be (0.2)
0x01b0|                                          00 00|              ..|          shndx: 0 0x1be-0x1c0 (2)
      |                                               |                |        [7]{}: symbol 0x1c0-0x1d0 (16)
0x01c0|47 00 00 00                                    |G...            |          name: "_ITM_deregisterTMCloneTable" (71) 0x1c0-0x1c4 (4)
0x01c0|            00 00 00 00                        |    ....        |          value: 0 0x1c4-0x1c8 (4)
0x01c0|                        00 00 00 00            |        ....    |          size: 0 0x1c8-0x1cc (4)
0x01c0|                                    20         |                |          bind: "weak" (2) 0x1cc-0x1cc.4 (0.4)
0x01c0|                                    20         |                |          type: "notype" (0) 0x1cc.4-0x1cd (0.4)
0x01c0|                                       00      |             .  |          other_unused: 0 0x1cd-0x1cd.6 (0.6)
0x01c0|                                       00      |             .  |          visibility: "default" (0) 0x1cd.6-0x1ce (0.2)
0x01c0|                                          00 00|              ..|          shndx: 0 0x1ce-0x1d0 (2)
      |                                               |                |        [8]{}: symbol 0x1d0-0x1e0 (16)
0x01d0|85 00 00 00                                    |....            |          name: "libbbb_bbb" (133) 0x1d0-0x1d4 (4)
0x01d0|            00 00 00 00                        |    ....        |          value: 0 0x1d4-0x1d8 (4)
0x01d0|                        00 00 00 00            |        ....    |          size: 0 0x1d8-0x1dc (4)
0x01d0|                                    12         |            .   |          bind: "global" (1) 0x1dc-0x1dc.4 (0.4)
0x01d0|                                    12         |            .   |          type: "func" (2) 0x1dc.4-0x1dd (0.4)
0x01d0|                                       00      |             .  |          other_unused: 0 0x1dd-0x1dd.6 (0.6)
0x01d0|                                       00      |             .  |          visibility: "default" (0) 0x1dd.6-0x1de (0.2)
0x01d0|                                          00 00|              ..|          shndx: 0 0x1de-0x1e0 (2)
      |                                               |                |        [9]{}: symbol 0x1e0-0x1f0 (16)
0x01e0|90 00 00 00                                    |....            |          name: "__libc_start_main" (144) 0x1e0-0x1e4 (4)
0x01e0|            00 00 00 00                        |    ....        |          value: 0 0x1e4-0x1e8 (4)
0x01e0|                        00 00 00 00            |        ....    |          size: 0 0x1e8-0x1ec (4)
0x01e0|                                    12         |            .   |          bind: "global" (1) 0x1ec-0x1ec.4 (0.4)
0x01e0|                                    12         |            .   |          type: "func" (2) 0x1ec.4-0x1ed (0.4)
0x01e0|                                       00      |             .  |          other_unused: 0 0x1ed-0x1ed.6 (0.6)
0x01e0|                                       00      |             .  |          visibility: "default" (0) 0x1ed.6-0x1ee (0.2)
0x01e0|                                          00 00|              ..|          shndx: 0 0x1ee-0x1f0 (2)
      |                                               |                |        [10]{}: symbol 0x1f0-0x200 (16)
0x01f0|63 00 00 00                                    |c...            |          name: "__register_frame_info" (99) 0x1f0-0x1f4 (4)
0x01f0|            00 00 00 00                        |    ....        |          value: 0 0x1f4-0x1f8 (4)
0x01f0|                        00 00 00 00            |        ....    |          size: 0 0x1f8-0x1fc (4)
0x01f0|                                    20         |                |          bind: "weak" (2) 0x1fc-0x1fc.4 (0.4)
0x01f0|                                    20         |                |          type: "notype" (0) 0x1fc.4-0x1fd (0.4)
0x01f0|                                       00      |             .  |          other_unused: 0 0x1fd-0x1fd.6 (0.6)
0x01f0|                                       00      |             .  |          visibility: "default" (0) 0x1fd.6-0x1fe (0.2)
0x01f0|                                          00 00|              ..|          shndx: 0 0x1fe-0x200 (2)
      |                                               |                |        [11]{}: symbol 0x200-0x210 (16)
0x0200|79 00 00 00                                    |y...            |          name: "_init" (121) 0x200-0x204 (4)
0x0200|            6c 03 00 00                        |    l...        |          value: 876 0x204-0x208 (4)
0x0200|                        04 00 00 00            |        ....    |          size: 4 0x208-0x20c (4)
0x0200|                                    12         |            .   |          bind: "global" (1) 0x20c-0x20c.4 (0.4)
0x0200|                                    12         |            .   |          type: "func" (2) 0x20c.4-0x20d (0.4)
0x0200|                                       00      |             .  |          other_unused: 0 0x20d-0x20d.6 (0.6)
0x0200|                                       00      |             .  |          visibility: "default" (0) 0x20d.6-0x20e (0.2)
0x0200|                                          07 00|              ..|          shndx: 7 0x20e-0x210 (2)
      |                                               |                |        [12]{}: symbol 0x210-0x220 (16)
0x0210|7f 00 00 00                                    |....            |          name: "_fini" (127) 0x210-0x214 (4)
0x0210|            08 06 00 00                        |    ....        |          value: 1544 0x214-0x218 (4)
0x0210|                        04 00 00 00            |        ....    |          size: 4 0x218-0x21c (4)
0x0210|                                    12         |            .   |          bind: "global" (1) 0x21c-0x21c.4 (0.4)
0x0210|                                    12         |            .   |          type: "func" (2) 0x21c.4-0x21d (0.4)
0x0210|                                       00      |             .  |          other_unused: 0 0x21d-0x21d.6 (0.6)
0x0210|                                       00      |             .  |          visibility: "default" (0) 0x21d.6-0x21e (0.2)
0x0210|                                          0a 00|              ..|          shndx: 10 0x21e-0x220 (2)
0x20d0|            2d 00 00 00                        |    -...        |      name: ".dynsym" (45) 0x20d4-0x20d8 (4)
0x20d0|                        0b 00 00 00            |        ....    |      type: "dynsym" (0xb) (Dynamic linking symbol table) 0x20d8-0x20dc (4)
      |                                               |                |      flags{}: 0x20dc-0x20e0 (4)
0x20d0|                                    02         |            .   |        link_order: false 0x20dc-0x20dc.1 (0.1)
0x20d0|                                    02         |            .   |        info_link: false 0x20dc.1-0x20dc.2 (0.1)
0x20d0|                                    02         |            .   |        strings: false 0x20dc.2-0x20dc.3 (0.1)
0x20d0|                                    02         |            .   |        merge: false 0x20dc.3-0x20dc.4 (0.1)
0x20d0|                                    02         |            .   |        unused0: 0 0x20dc.4-0x20dc.5 (0.1)
0x20d0|                                    02         |            .   |        execinstr: false 0x20dc.5-0x20dc.6 (0.1)
0x20d0|                                    02         |            .   |        alloc: true 0x20dc.6-0x20dc.7 (0.1)
0x20d0|                                    02         |            .   |        write: false 0x20dc.7-0x20dd (0.1)
0x20d0|                                       00      |             .  |        tls: false 0x20dd-0x20dd.1 (0.1)
0x20d0|                                       00      |             .  |        group: false 0x20dd.1-0x20dd.2 (0.1)
0x20d0|                                       00      |             .  |        os_nonconforming: false 0x20dd.2-0x20dd.3 (0.1)
0x20d0|                                       00 00   |             .. |        unused1: 0 0x20dd.3-0x20de.4 (1.1)
0x20d0|                                          00 00|              ..|        os_specific: 0 0x20de.4-0x20df.4 (1)
0x20d0|                                             00|               .|        processor_specific: 0 0x20df.4-0x20e0 (0.4)
0x20e0|50 01 00 00                                    |P...            |      addr: 0x150 0x20e0-0x20e4 (4)
0x20e0|            50 01 00 00                        |    P...        |      offset: 336 0x20e4-0x20e8 (4)
0x20e0|                        d0 00 00 00            |        ....    |      size: 0xd0 0x20e8-0x20ec (4)
0x20e0|                                    04 00 00 00|            ....|      link: 4 0x20ec-0x20f0 (4)
0x20f0|03 00 00 00                                    |....            |      info: 3 0x20f0-0x20f4 (4)
0x20f0|            04 00 00 00                        |    ....        |      addralign: 4 0x20f4-0x20f8 (4)
0x20f0|                        10 00 00 00            |        ....    |      entsize: 16 0x20f8-0x20fc (4)
      |                                               |                |    [4]{}: section_header 0x220-0x2124 (7940)
0x0220|00 70 75 74 73 00 5f 5f 63 78 61 5f 66 69 6e 61|.puts.__cxa_fina|      string: "\x00puts\x00__cxa_finalize\x00__deregister_frame_info\x00_ITM_registerTMCloneTable\x00_ITM_deregisterTMCloneTable\x00__register_frame_info\x00_init\x00_fini\x00libbbb_bbb\x00__libc_start_main\x00libbbb.so\x00libc.musl-armhf.so.1\x00" 0x220-0x2e1 (193)
*     |until 0x2e0.7 (193)                            |                |
0x20f0|                                    35 00 00 00|            5...|      name: ".dynstr" (53) 0x20fc-0x2100 (4)
0x2100|03 00 00 00                                    |....            |      type: "strtab" (0x3) (String table) 0x2100-0x2104 (4)
      |                                               |                |      flags{}: 0x2104-0x2108 (4)
0x2100|            02                                 |    .           |        link_order: false 0x2104-0x2104.1 (0.1)
0x2100|            02                                 |    .           |        info_link: false 0x2104.1-0x2104.2 (0.1)
0x2100|            02                                 |    .           |        strings: false 0x2104.2-0x2104.3 (0.1)
0x2100|            02                                 |    .           |        merge: false 0x2104.3-0x2104.4 (0.1)
0x2100|            02                                 |    .           |        unused0: 0 0x2104.4-0x2104.5 (0.1)
0x2100|            02                                 |    .           |        execinstr: false 0x2104.5-0x2104.6 (0.1)
0x2100|            02                                 |    .           |        alloc: true 0x2104.6-0x2104.7 (0.1)
0x2100|            02                                 |    .           |        write: false 0x2104.7-0x2105 (0.1)
0x2100|               00                              |     .          |        tls: false 0x2105-0x2105.1 (0.1)
0x2100|               00                              |     .          |        group: false 0x2105.1-0x2105.2 (0.1)
0x2100|               00                              |     .          |        os_nonconforming: false 0x2105.2-0x2105.3 (0.1)
0x2100|               00 00                           |     ..         |        unused1: 0 0x2105.3-0x2106.4 (1.1)
0x2100|                  00 00                        |      ..        |        os_specific: 0 0x2106.4-0x2107.4 (1)
0x2100|                     00                        |       .        |        processor_specific: 0 0x2107.4-0x2108 (0.4)
0x2100|                        20 02 00 00            |         ...    |      addr: 0x220 0x2108-0x210c (4)
0x2100|                                    20 02 00 00|             ...|      offset: 544 0x210c-0x2110 (4)
0x2110|c1 00 00 00                                    |....            |      size: 0xc1 0x2110-0x2114 (4)
0x2110|            00 00 00 00                        |    ....        |      link: 0 0x2114-0x2118 (4)
0x2110|                        00 00 00 00            |        ....    |      info: 0 0x2118-0x211c (4)
0x2110|                                    01 00 00 00|            ....|      addralign: 1 0x211c-0x2120 (4)
0x2120|00 00 00 00                                    |....            |      entsize: 0 0x2120-0x2124 (4)
      |                                               |                |    [5]{}: section_header 0x2e4-0x214c (7784)
0x02e0|            cc 0e 01 00 17 00 00 00 d0 0e 01 00|    ............|      data: raw bits 0x2e4-0x33c (88)
0x02f0|17 00 00 00 e4 0f 01 00 17 00 00 00 f4 0f 01 00|................|
*     |until 0x33b.7 (88)                             |                |
0x2120|            3d 00 00 00                        |    =...        |      name: ".rel.dyn" (61) 0x2124-0x2128 (4)
0x2120|                        09 00 00 00            |        ....    |      type: "rel" (0x9) (Relocation entries without explicit addends) 0x2128-0x212c (4)
      |                                               |                |      flags{}: 0x212c-0x2130 (4)
0x2120|                                    02         |            .   |        link_order: false 0x212c-0x212c.1 (0.1)
0x2120|                                    02         |            .   |        info_link: false 0x212c.1-0x212c.2 (0.1)
0x2120|                                    02         |            .   |        strings: false 0x212c.2-0x212c.3 (0.1)
0x2120|                                    02         |            .   |        merge: false 0x212c.3-0x212c.4 (0.1)
0x2120|                                    02         |            .   |        unused0: 0 0x212c.4-0x212c.5 (0.1)
0x2120|                                    02         |            .   |        execinstr: false 0x212c.5-0x212c.6 (0.1)
0x2120|                                    02         |            .   |        alloc: true 0x212c.6-0x212c.7 (0.1)
0x2120|                                    02         |            .   |        write: false 0x212c.7-0x212d (0.1)
0x2120|                                       00      |             .  |        tls: false 0x212d-0x212d.1 (0.1)
0x2120|                                       00      |             .  |        group: false 0x212d.1-0x212d.2 (0.1)
0x2120|                                       00      |             .  |        os_nonconforming: false 0x212d.2-0x212d.3 (0.1)
0x2120|                                       00 00   |             .. |        unused1: 0 0x212d.3-0x212e.4 (1.1)
0x2120|                                          00 00|              ..|        os_specific: 0 0x212e.4-0x212f.4 (1)
0x2120|                                             00|               .|        processor_specific: 0 0x212f.4-0x2130 (0.4)
0x2130|e4 02 00 00                                    |....            |      addr: 0x2e4 0x2130-0x2134 (4)
0x2130|            e4 02 00 00                        |    ....        |      offset: 740 0x2134-0x2138 (4)
0x2130|                        58 00 00 00            |        X...    |      size: 0x58 0x2138-0x213c (4)
0x2130|                                    03 00 00 00|            ....|      link: 3 0x213c-0x2140 (4)
0x2140|00 00 00 00                                    |....            |      info: 0 0x2140-0x2144 (4)
0x2140|            04 00 00 00                        |    ....        |      addralign: 4 0x2144-0x2148 (4)
0x2140|                        08 00 00 00            |        ....    |      entsize: 8 0x2148-0x214c (4)
      |                                               |                |    [6]{}: section_header 0x33c-0x2174 (7736)
0x0330|                                    c8 0f 01 00|            ....|      data: raw bits 0x33c-0x36c (48)
0x0340|16 03 00 00 cc 0f 01 00 16 04 00 00 d0 0f 01 00|................|
*     |until 0x36b.7 (48)                             |                |
0x2140|                                    46 00 00 00|            F...|      name: ".rel.plt" (70) 0x214c-0x2150 (4)
0x2150|09 00 00 00                                    |....            |      type: "rel" (0x9) (Relocation entries without explicit addends) 0x2150-0x2154 (4)
      |                                               |                |      flags{}: 0x2154-0x2158 (4)
0x2150|            42                                 |    B           |        link_order: false 0x2154-0x2154.1 (0.1)
0x2150|            42                                 |    B           |        info_link: true 0x2154.1-0x2154.2 (0.1)
0x2150|            42                                 |    B           |        strings: false 0x2154.2-0x2154.3 (0.1)
0x2150|            42                                 |    B           |        merge: false 0x2154.3-0x2154.4 (0.1)
0x2150|            42                                 |    B           |        unused0: 0 0x2154.4-0x2154.5 (0.1)
0x2150|            42                                 |    B           |        execinstr: false 0x2154.5-0x2154.6 (0.1)
0x2150|            42                                 |    B           |        alloc: true 0x2154.6-0x2154.7 (0.1)
0x2150|            42                                 |    B           |        write: false 0x2154.7-0x2155 (0.1)
0x2150|               00                              |     .          |        tls: false 0x2155-0x2155.1 (0.1)
0x2150|               00                              |     .          |        group: false 0x2155.1-0x2155.2 (0.1)
0x2150|               00                              |     .          |        os_nonconforming: false 0x2155.2-0x2155.3 (0.1)
0x2150|               00 00                           |     ..         |        unused1: 0 0x2155.3-0x2156.4 (1.1)
0x2150|                  00 00                        |      ..        |        os_specific: 0 0x2156.4-0x2157.4 (1)
0x2150|                     00                        |       .        |        processor_specific: 0 0x2157.4-0x2158 (0.4)
0x2150|                        3c 03 00 00            |        <...    |      addr: 0x33c 0x2158-0x215c (4)
0x2150|                                    3c 03 00 00|            <...|      offset: 828 0x215c-0x2160 (4)
0x2160|30 00 00 00                                    |0...            |      size: 0x30 0x2160-0x2164 (4)
0x2160|            03 00 00 00                        |    ....        |      link: 3 0x2164-0x2168 (4)
0x2160|                        10 00 00 00            |        ....    |      info: 16 0x2168-0x216c (4)
0x2160|                                    04 00 00 00|            ....|      addralign: 4 0x216c-0x2170 (4)
0x2170|08 00 00 00                                    |....            |      entsize: 8 0x2170-0x2174 (4)
      |                                               |                |    [7]{}: section_header 0x36c-0x219c (7728)
0x0360|                                    01 40 2d e9|            .@-.|      data: raw bits 0x36c-0x378 (12)
0x0370|01 40 bd e8 1e ff 2f e1                        |.@..../.        |
0x2170|            4f 00 00 00                        |    O...        |      name: ".init" (79) 0x2174-0x2178 (4)
0x2170|                        01 00 00 00            |        ....    |      type: "progbits" (0x1) (Information defined by the program) 0x2178-0x217c (4)
      |                                               |                |      flags{}: 0x217c-0x2180 (4)
0x2170|                                    06         |            .   |        link_order: false 0x217c-0x217c.1 (0.1)
0x2170|                                    06         |            .   |        info_link: false 0x217c.1-0x217c.2 (0.1)
0x2170|                                    06         |            .   |        strings: false 0x217c.2-0x217c.3 (0.1)
0x2170|                                    06         |            .   |        merge: false 0x217c.3-0x217c.4 (0.1)
0x2170|                                    06         |            .   |        unused0: 0 0x217c.4-0x217c.5 (0.1)
0x2170|                                    06         |            .   |        execinstr: true 0x217c.5-0x217c.6 (0.1)
0x2170|                                    06         |            .   |        alloc: true 0x217c.6-0x217c.7 (0.1)
0x2170|                                    06         |            .   |        write: false 0x217c.7-0x217d (0.1)
0x2170|                                       00      |             .  |        tls: false 0x217d-0x217d.1 (0.1)
0x2170|                                       00      |             .  |        group: false 0x217d.1-0x217d.2 (0.1)
0x2170|                                       00      |             .  |        os_nonconforming: false 0x217d.2-0x217d.3 (0.1)
0x2170|                                       00 00   |             .. |        unused1: 0 0x217d.3-0x217e.4 (1.1)
0x2170|                                          00 00|              ..|        os_specific: 0 0x217e.4-0x217f.4 (1)
0x2170|                                             00|               .|        processor_specific: 0 0x217f.4-0x2180 (0.4)
0x2180|6c 03 00 00                                    |l...            |      addr: 0x36c 0x2180-0x2184 (4)
0x2180|            6c 03 00 00                        |    l...        |      offset: 876 0x2184-0x2188 (4)
0x2180|                        0c 00 00 00            |        ....    |      size: 0xc 0x2188-0x218c (4)
0x2180|                                    00 00 00 00|            ....|      link: 0 0x218c-0x2190 (4)
0x2190|00 00 00 00                                    |....            |      info: 0 0x2190-0x2194 (4)
0x2190|            04 00 00 00                        |    ....        |      addralign: 4 0x2194-0x2198 (4)
0x2190|                        00 00 00 00            |        ....    |      entsize: 0 0x2198-0x219c (4)
      |                                               |                |    [8]{}: section_header 0x378-0x21c4 (7756)
0x0370|                        04 e0 2d e5 04 e0 9f e5|        ..-.....|      data: raw bits 0x378-0x3d4 (92)
0x0380|0e e0 8f e0 08 f0 be e5 34 0c 01 00 00 c6 8f e2|........4.......|
*     |until 0x3d3.7 (92)                             |                |
0x2190|                                    4a 00 00 00|            J...|      name: ".plt" (74) 0x219c-0x21a0 (4)
0x21a0|01 00 00 00                                    |....            |      type: "progbits" (0x1) (Information defined by the program) 0x21a0-0x21a4 (4)
      |                                               |                |      flags{}: 0x21a4-0x21a8 (4)
0x21a0|            06                                 |    .           |        link_order: false 0x21a4-0x21a4.1 (0.1)
0x21a0|            06                                 |    .           |        info_link: false 0x21a4.1-0x21a4.2 (0.1)
0x21a0|            06                                 |    .           |        strings: false 0x21a4.2-0x21a4.3 (0.1)
0x21a0|            06                                 |    .           |        merge: false 0x21a4.3-0x21a4.4 (0.1)
0x21a0|            06                                 |    .           |        unused0: 0 0x21a4.4-0x21a4.5 (0.1)
0x21a0|            06                                 |    .           |        execinstr: true 0x21a4.5-0x21a4.6 (0.1)
0x21a0|            06                                 |    .           |        alloc: true 0x21a4.6-0x21a4.7 (0.1)
0x21a0|            06                                 |    .           |        write: false 0x21a4.7-0x21a5 (0.1)
0x21a0|               00                              |     .          |        tls: false 0x21a5-0x21a5.1 (0.1)
0x21a0|               00                              |     .          |        group: false 0x21a5.1-0x21a5.2 (0.1)
0x21a0|               00                              |     .          |        os_nonconforming: false 0x21a5.2-0x21a5.3 (0.1)
0x21a0|               00 00                           |     ..         |        unused1: 0 0x21a5.3-0x21a6.4 (1.1)
0x21a0|                  00 00                        |      ..        |        os_specific: 0 0x21a6.4-0x21a7.4 (1)
0x21a0|                     00                        |       .        |        processor_specific: 0 0x21a7.4-0x21a8 (0.4)
0x21a0|                        78 03 00 00            |        x...    |      addr: 0x378 0x21a8-0x21ac (4)
0x21a0|                                    78 03 00 00|            x...|      offset: 888 0x21ac-0x21b0 (4)
0x21b0|5c 00 00 00                                    |\...            |      size: 0x5c 0x21b0-0x21b4 (4)
0x21b0|            00 00 00 00                        |    ....        |      link: 0 0x21b4-0x21b8 (4)
0x21b0|                        00 00 00 00            |        ....    |      info: 0 0x21b8-0x21bc (4)
0x21b0|                                    04 00 00 00|            ....|      addralign: 4 0x21bc-0x21c0 (4)
0x21c0|04 00 00 00                                    |....            |      entsize: 4 0x21c0-0x21c4 (4)
      |                                               |                |    [9]{}: section_header 0x3d4-0x21ec (7704)
0x03d0|            00 b0 a0 e3 00 e0 a0 e3 10 10 9f e5|    ............|      data: raw bits 0x3d4-0x608 (564)
0x03e0|01 10 8f e0 0d 00 a0 e1 0f c0 c0 e3 0c d0 a0 e1|................|
*     |until 0x607.7 (564)                            |                |
0x21c0|            55 00 00 00                        |    U...        |      name: ".text" (85) 0x21c4-0x21c8 (4)
0x21c0|                        01 00 00 00            |        ....    |      type: "progbits" (0x1) (Information defined by the program) 0x21c8-0x21cc (4)
      |                                               |                |      flags{}: 0x21cc-0x21d0 (4)
0x21c0|                                    06         |            .   |        link_order: false 0x21cc-0x21cc.1 (0.1)
0x21c0|                                    06         |            .   |        info_link: false 0x21cc.1-0x21cc.2 (0.1)
0x21c0|                                    06         |            .   |        strings: false 0x21cc.2-0x21cc.3 (0.1)
0x21c0|                                    06         |            .   |        merge: false 0x21cc.3-0x21cc.4 (0.1)
0x21c0|                                    06         |            .   |        unused0: 0 0x21cc.4-0x21cc.5 (0.1)
0x21c0|                                    06         |            .   |        execinstr: true 0x21cc.5-0x21cc.6 (0.1)
0x21c0|                                    06         |            .   |        alloc: true 0x21cc.6-0x21cc.7 (0.1)
0x21c0|                                    06         |            .   |        write: false 0x21cc.7-0x21cd (0.1)
0x21c0|                                       00      |             .  |        tls: false 0x21cd-0x21cd.1 (0.1)
0x21c0|                                       00      |             .  |        group: false 0x21cd.1-0x21cd.2 (0.1)
0x21c0|                                       00      |             .  |        os_nonconforming: false 0x21cd.2-0x21cd.3 (0.1)
0x21c0|                                       00 00   |             .. |        unused1: 0 0x21cd.3-0x21ce.4 (1.1)
0x21c0|                                          00 00|              ..|        os_specific: 0 0x21ce.4-0x21cf.4 (1)
0x21c0|                                             00|               .|        processor_specific: 0 0x21cf.4-0x21d0 (0.4)
0x21d0|d4 03 00 00                                    |....            |      addr: 0x3d4 0x21d0-0x21d4 (4)
0x21d0|            d4 03 00 00                        |    ....        |      offset: 980 0x21d4-0x21d8 (4)
0x21d0|                        34 02 00 00            |        4...    |      size: 0x234 0x21d8-0x21dc (4)
0x21d0|                                    00 00 00 00|            ....|      link: 0 0x21dc-0x21e0 (4)
0x21e0|00 00 00 00                                    |....            |      info: 0 0x21e0-0x21e4 (4)
0x21e0|            04 00 00 00                        |    ....        |      addralign: 4 0x21e4-0x21e8 (4)
0x21e0|                        00 00 00 00            |        ....    |      entsize: 0 0x21e8-0x21ec (4)
      |                                               |                |    [10]{}: section_header 0x608-0x2214 (7180)
0x0600|                        01 40 2d e9 01 40 bd e8|        .@-..@..|      data: raw bits 0x608-0x614 (12)
0x0610|1e ff 2f e1                                    |../.            |
0x21e0|                                    5b 00 00 00|            [...|      name: ".fini" (91) 0x21ec-0x21f0 (4)
0x21f0|01 00 00 00                                    |....            |      type: "progbits" (0x1) (Information defined by the program) 0x21f0-0x21f4 (4)
      |                                               |                |      flags{}: 0x21f4-0x21f8 (4)
0x21f0|            06                                 |    .           |        link_order: false 0x21f4-0x21f4.1 (0.1)
0x21f0|            06                                 |    .           |        info_link: false 0x21f4.1-0x21f4.2 (0.1)
0x21f0|            06                                 |    .           |        strings: false 0x21f4.2-0x21f4.3 (0.1)
0x21f0|            06                                 |    .           |        merge: false 0x21f4.3-0x21f4.4 (0.1)
0x21f0|            06                                 |    .           |        unused0: 0 0x21f4.4-0x21f4.5 (0.1)
0x21f0|            06                                 |    .           |        execinstr: true 0x21f4.5-0x21f4.6 (0.1)
0x21f0|            06                                 |    .           |        alloc: true 0x21f4.6-0x21f4.7 (0.1)
0x21f0|            06                                 |    .           |        write: false 0x21f4.7-0x21f5 (0.1)
0x21f0|               00                              |     .          |        tls: false 0x21f5-0x21f5.1 (0.1)
0x21f0|               00                              |     .          |        group: false 0x21f5.1-0x21f5.2 (0.1)
0x21f0|               00                              |     .          |        os_nonconforming: false 0x21f5.2-0x21f5.3 (0.1)
0x21f0|               00 00                           |     ..         |        unused1: 0 0x21f5.3-0x21f6.4 (1.1)
0x21f0|                  00 00                        |      ..        |        os_specific: 0 0x21f6.4-0x21f7.4 (1)
0x21f0|                     00                        |       .        |        processor_specific: 0 0x21f7.4-0x21f8 (0.4)
0x21f0|                        08 06 00 00            |        ....    |      addr: 0x608 0x21f8-0x21fc (4)
0x21f0|                                    08 06 00 00|            ....|      offset: 1544 0x21fc-0x2200 (4)
0x2200|0c 00 00 00                                    |....            |      size: 0xc 0x2200-0x2204 (4)
0x2200|            00 00 00 00                        |    ....        |      link: 0 0x2204-0x2208 (4)
0x2200|                        00 00 00 00            |        ....    |      info: 0 0x2208-0x220c (4)
0x2200|                                    04 00 00 00|            ....|      addralign: 4 0x220c-0x2210 (4)
0x2210|00 00 00 00                                    |....            |      entsize: 0 0x2210-0x2214 (4)
      |                                               |                |    [11]{}: section_header 0x614-0x223c (7208)
0x0610|            3b 00 00 00 3e 00 00 00 0b 00 00 00|    ;...>.......|      data: raw bits 0x614-0x738 (292)
0x0620|3e 00 00 00 10 00 00 00 3e 00 00 00 25 00 00 00|>.......>...%...|
*     |until 0x737.7 (292)                            |                |
0x2210|            61 00 00 00                        |    a...        |      name: ".rodata" (97) 0x2214-0x2218 (4)
0x2210|                        01 00 00 00            |        ....    |      type: "progbits" (0x1) (Information defined by the program) 0x2218-0x221c (4)
      |                                               |                |      flags{}: 0x221c-0x2220 (4)
0x2210|                                    02         |            .   |        link_order: false 0x221c-0x221c.1 (0.1)
0x2210|                                    02         |            .   |        info_link: false 0x221c.1-0x221c.2 (0.1)
0x2210|                                    02         |            .   |        strings: false 0x221c.2-0x221c.3 (0.1)
0x2210|                                    02         |            .   |        merge: false 0x221c.3-0x221c.4 (0.1)
0x2210|                                    02         |            .   |        unused0: 0 0x221c.4-0x221c.5 (0.1)
0x2210|                                    02         |            .   |        execinstr: false 0x221c.5-0x221c.6 (0.1)
0x2210|                                    02         |            .   |        alloc: true 0x221c.6-0x221c.7 (0.1)
0x2210|                                    02         |            .   |        write: false 0x221c.7-0x221d (0.1)
0x2210|                                       00      |             .  |        tls: false 0x221d-0x221d.1 (0.1)
0x2210|                                       00      |             .  |        group: false 0x221d.1-0x221d.2 (0.1)
0x2210|                                       00      |             .  |        os_nonconforming: false 0x221d.2-0x221d.3 (0.1)
0x2210|                                       00 00   |             .. |        unused1: 0 0x221d.3-0x221e.4 (1.1)
0x2210|                                          00 00|              ..|        os_specific: 0 0x221e.4-0x221f.4 (1)
0x2210|                                             00|               .|        processor_specific: 0 0x221f.4-0x2220 (0.4)
0x2220|14 06 00 00                                    |....            |      addr: 0x614 0x2220-0x2224 (4)
0x2220|            14 06 00 00                        |    ....        |      offset: 1556 0x2224-0x2228 (4)
0x2220|                        24 01 00 00            |        $...    |      size: 0x124 0x2228-0x222c (4)
0x2220|                                    00 00 00 00|            ....|      link: 0 0x222c-0x2230 (4)
0x2230|00 00 00 00                                    |....            |      info: 0 0x2230-0x2234 (4)
0x2230|            04 00 00 00                        |    ....        |      addralign: 4 0x2234-0x2238 (4)
0x2230|                        00 00 00 00            |        ....    |      entsize: 0 0x2238-0x223c (4)
      |                                               |                |    [12]{}: section_header 0x738-0x2264 (6956)
0x0730|                        00 00 00 00            |        ....    |      data: raw bits 0x738-0x73c (4)
0x2230|                                    69 00 00 00|            i...|      name: ".eh_frame" (105) 0x223c-0x2240 (4)
0x2240|01 00 00 00                                    |....            |      type: "progbits" (0x1) (Information defined by the program) 0x2240-0x2244 (4)
      |                                               |                |      flags{}: 0x2244-0x2248 (4)
0x2240|            02                                 |    .           |        link_order: false 0x2244-0x2244.1 (0.1)
0x2240|            02                                 |    .           |        info_link: false 0x2244.1-0x2244.2 (0.1)
0x2240|            02                                 |    .           |        strings: false 0x2244.2-0x2244.3 (0.1)
0x2240|            02                                 |    .           |        merge: false 0x2244.3-0x2244.4 (0.1)
0x2240|            02                                 |    .           |        unused0: 0 0x2244.4-0x2244.5 (0.1)
0x2240|            02                                 |    .           |        execinstr: false 0x2244.5-0x2244.6 (0.1)
0x2240|            02                                 |    .           |        alloc: true 0x2244.6-0x2244.7 (0.1)
0x2240|            02                                 |    .           |        write: false 0x2244.7-0x2245 (0.1)
0x2240|               00                              |     .          |        tls: false 0x2245-0x2245.1 (0.1)
0x2240|               00                              |     .          |        group: false 0x2245.1-0x2245.2 (0.1)
0x2240|               00                              |     .          |        os_nonconforming: false 0x2245.2-0x2245.3 (0.1)
0x2240|               00 00                           |     ..         |        unused1: 0 0x2245.3-0x2246.4 (1.1)
0x2240|                  00 00                        |      ..        |        os_specific: 0 0x2246.4-0x2247.4 (1)
0x2240|                     00                        |       .        |        processor_specific: 0 0x2247.4-0x2248 (0.4)
0x2240|                        38 07 00 00            |        8...    |      addr: 0x738 0x2248-0x224c (4)
0x2240|                                    38 07 00 00|            8...|      offset: 1848 0x224c-0x2250 (4)
0x2250|04 00 00 00                                    |....            |      size: 0x4 0x2250-0x2254 (4)
0x2250|            00 00 00 00                        |    ....        |      link: 0 0x2254-0x2258 (4)
0x2250|                        00 00 00 00            |        ....    |      info: 0 0x2258-0x225c (4)
0x2250|                                    04 00 00 00|            ....|      addralign: 4 0x225c-0x2260 (4)
0x2260|00 00 00 00                                    |....            |      entsize: 0 0x2260-0x2264 (4)
      |                                               |                |    [13]{}: section_header 0xecc-0x228c (5056)
0x0ec0|                                    7c 05 00 00|            |...|      data: raw bits 0xecc-0xed0 (4)
0x2260|            73 00 00 00                        |    s...        |      name: ".init_array" (115) 0x2264-0x2268 (4)
0x2260|                        0e 00 00 00            |        ....    |      type: "init_array" (0xe) (Initialization functions) 0x2268-0x226c (4)
      |                                               |                |      flags{}: 0x226c-0x2270 (4)
0x2260|                                    03         |            .   |        link_order: false 0x226c-0x226c.1 (0.1)
0x2260|                                    03         |            .   |        info_link: false 0x226c.1-0x226c.2 (0.1)
0x2260|                                    03         |            .   |        strings: false 0x226c.2-0x226c.3 (0.1)
0x2260|                                    03         |            .   |        merge: false 0x226c.3-0x226c.4 (0.1)
0x2260|                                    03         |            .   |        unused0: 0 0x226c.4-0x226c.5 (0.1)
0x2260|                                    03         |            .   |        execinstr: false 0x226c.5-0x226c.6 (0.1)
0x2260|                                    03         |            .   |        alloc: true 0x226c.6-0x226c.7 (0.1)
0x2260|                                    03         |            .   |        write: true 0x226c.7-0x226d (0.1)
0x2260|                                       00      |             .  |        tls: false 0x226d-0x226d.1 (0.1)
0x2260|                                       00      |             .  |        group: false 0x226d.1-0x226d.2 (0.1)
0x2260|                                       00      |             .  |        os_nonconforming: false 0x226d.2-0x226d.3 (0.1)
0x2260|                                       00 00   |             .. |        unused1: 0 0x226d.3-0x226e.4 (1.1)
0x2260|                                          00 00|              ..|        os_specific: 0 0x226e.4-0x226f.4 (1)
0x2260|                                             00|               .|        processor_specific: 0 0x226f.4-0x2270 (0.4)
0x2270|cc 0e 01 00                                    |....            |      addr: 0x10ecc 0x2270-0x2274 (4)
0x2270|            cc 0e 00 00                        |    ....        |      offset: 3788 0x2274-0x2278 (4)
0x2270|                        04 00 00 00            |        ....    |      size: 0x4 0x2278-0x227c (4)
0x2270|                                    00 00 00 00|            ....|      link: 0 0x227c-0x2280 (4)
0x2280|00 00 00 00                                    |....            |      info: 0 0x2280-0x2284 (4)
0x2280|            04 00 00 00                        |    ....        |      addralign: 4 0x2284-0x2288 (4)
0x2280|                        04 00 00 00            |        ....    |      entsize: 4 0x2288-0x228c (4)
      |                                               |                |    [14]{}: section_header 0xed0-0x22b4 (5092)
0x0ed0|f0 04 00 00                                    |....            |      data: raw bits 0xed0-0xed4 (4)
0x2280|                                    7f 00 00 00|            ....|      name: ".fini_array" (127) 0x228c-0x2290 (4)
0x2290|0f 00 00 00                                    |....            |      type: "fini_array" (0xf) (Termination functions) 0x2290-0x2294 (4)
      |                                               |                |      flags{}: 0x2294-0x2298 (4)
0x2290|            03                                 |    .           |        link_order: false 0x2294-0x2294.1 (0.1)
0x2290|            03                                 |    .           |        info_link: false 0x2294.1-0x2294.2 (0.1)
0x2290|            03                                 |    .           |        strings: false 0x2294.2-0x2294.3 (0.1)
0x2290|            03                                 |    .           |        merge: false 0x2294.3-0x2294.4 (0.1)
0x2290|            03                                 |    .           |        unused0: 0 0x2294.4-0x2294.5 (0.1)
0x2290|            03                                 |    .           |        execinstr: false 0x2294.5-0x2294.6 (0.1)
0x2290|            03                                 |    .           |        alloc: true 0x2294.6-0x2294.7 (0.1)
0x2290|            03                                 |    .           |        write: true 0x2294.7-0x2295 (0.1)
0x2290|               00                              |     .          |        tls: false 0x2295-0x2295.1 (0.1)
0x2290|               00                              |     .          |        group: false 0x2295.1-0x2295.2 (0.1)
0x2290|               00                              |     .          |        os_nonconforming: false 0x2295.2-0x2295.3 (0.1)
0x2290|               00 00                           |     ..         |        unused1: 0 0x2295.3-0x2296.4 (1.1)
0x2290|                  00 00                        |      ..        |        os_specific: 0 0x2296.4-0x2297.4 (1)
0x2290|                     00                        |       .        |        processor_specific: 0 0x2297.4-0x2298 (0.4)
0x2290|                        d0 0e 01 00            |        ....    |      addr: 0x10ed0 0x2298-0x229c (4)
0x2290|                                    d0 0e 00 00|            ....|      offset: 3792 0x229c-0x22a0 (4)
0x22a0|04 00 00 00                                    |....            |      size: 0x4 0x22a0-0x22a4 (4)
0x22a0|            00 00 00 00                        |    ....        |      link: 0 0x22a4-0x22a8 (4)
0x22a0|                        00 00 00 00            |        ....    |      info: 0 0x22a8-0x22ac (4)
0x22a0|                                    04 00 00 00|            ....|      addralign: 4 0x22ac-0x22b0 (4)
0x22b0|04 00 00 00                                    |....            |      entsize: 4 0x22b0-0x22b4 (4)
      |                                               |                |    [15]{}: section_header 0xed4-0x22dc (5128)
      |                                               |                |      dynamic_tags[0:25]: 0xed4-0xf9c (200)
      |                                               |                |        [0]{}: dynamic_tags 0xed4-0xedc (8)
0x0ed0|            01 00 00 00                        |    ....        |          tag: "needed" (1) (String table offset to name of a needed library) 0xed4-0xed8 (4)
0x0ed0|                        a2 00 00 00            |        ....    |          val: "libbbb.so" (162) 0xed8-0xedc (4)
      |                                               |                |        [1]{}: dynamic_tags 0xedc-0xee4 (8)
0x0ed0|                                    01 00 00 00|            ....|          tag: "needed" (1) (String table offset to name of a needed library) 0xedc-0xee0 (4)
0x0ee0|ac 00 00 00                                    |....            |          val: "libc.musl-armhf.so.1" (172) 0xee0-0xee4 (4)
      |                                               |                |        [2]{}: dynamic_tags 0xee4-0xeec (8)
0x0ee0|            0c 00 00 00                        |    ....        |          tag: "init" (12) (Address of the initialization function) 0xee4-0xee8 (4)
0x0ee0|                        6c 03 00 00            |        l...    |          ptr: 0x36c 0xee8-0xeec (4)
      |                                               |                |          section_index: 7
      |                                               |                |        [3]{}: dynamic_tags 0xeec-0xef4 (8)
0x0ee0|                                    0d 00 00 00|            ....|          tag: "fini" (13) (Address of the termination function) 0xeec-0xef0 (4)
0x0ef0|08 06 00 00                                    |....            |          ptr: 0x608 0xef0-0xef4 (4)
      |                                               |                |          section_index: 10
      |                                               |                |        [4]{}: dynamic_tags 0xef4-0xefc (8)
0x0ef0|            19 00 00 00                        |    ....        |          tag: "init_array" (25) (Address of the array of pointers to initialization functions) 0xef4-0xef8 (4)
0x0ef0|                        cc 0e 01 00            |        ....    |          ptr: 0x10ecc 0xef8-0xefc (4)
      |                                               |                |        [5]{}: dynamic_tags 0xefc-0xf04 (8)
0x0ef0|                                    1b 00 00 00|            ....|          tag: "init_arraysz" (27) (Size in bytes of the array of initialization functions) 0xefc-0xf00 (4)
0x0f00|04 00 00 00                                    |....            |          val: 4 0xf00-0xf04 (4)
      |                                               |                |        [6]{}: dynamic_tags 0xf04-0xf0c (8)
0x0f00|            1a 00 00 00                        |    ....        |          tag: "fini_array" (26) (Address of the array of pointers to termination functions) 0xf04-0xf08 (4)
0x0f00|                        d0 0e 01 00            |        ....    |          ptr: 0x10ed0 0xf08-0xf0c (4)
      |                                               |                |        [7]{}: dynamic_tags 0xf0c-0xf14 (8)
0x0f00|                                    1c 00 00 00|            ....|          tag: "fini_arraysz" (28) (Size in bytes of the array of termination functions ) 0xf0c-0xf10 (4)
0x0f10|04 00 00 00                                    |....            |          val: 4 0xf10-0xf14 (4)
      |                                               |                |        [8]{}: dynamic_tags 0xf14-0xf1c (8)
0x0f10|            f5 fe ff 6f                        |    ...o        |          tag: 1879047925 0xf14-0xf18 (4)
0x0f10|                        2c 01 00 00            |        ,...    |          unspecified: 0x12c 0xf18-0xf1c (4)
      |                                               |                |        [9]{}: dynamic_tags 0xf1c-0xf24 (8)
0x0f10|                                    05 00 00 00|            ....|          tag: "strtab" (5) (Address of string table) 0xf1c-0xf20 (4)
0x0f20|20 02 00 00                                    | ...            |          ptr: 0x220 0xf20-0xf24 (4)
      |                                               |                |          section_index: 4
      |                                               |                |        [10]{}: dynamic_tags 0xf24-0xf2c (8)
0x0f20|            06 00 00 00                        |    ....        |          tag: "symtab" (6) (Address of symbol table) 0xf24-0xf28 (4)
0x0f20|                        50 01 00 00            |        P...    |          ptr: 0x150 0xf28-0xf2c (4)
      |                                               |                |          section_index: 3
      |                                               |                |        [11]{}: dynamic_tags 0xf2c-0xf34 (8)
0x0f20|                                    0a 00 00 00|            ....|          tag: "strsz" (10) (Size in bytes of string table) 0xf2c-0xf30 (4)
0x0f30|c1 00 00 00                                    |....            |          val: 193 0xf30-0xf34 (4)
      |                                               |                |        [12]{}: dynamic_tags 0xf34-0xf3c (8)
0x0f30|            0b 00 00 00                        |    ....        |          tag: "syment" (11) (Size in bytes of a symbol table entry) 0xf34-0xf38 (4)
0x0f30|                        10 00 00 00            |        ....    |          val: 16 0xf38-0xf3c (4)
      |                                               |                |        [13]{}: dynamic_tags 0xf3c-0xf44 (8)
0x0f30|                                    15 00 00 00|            ....|          tag: "debug" (21) (Undefined use for debugging) 0xf3c-0xf40 (4)
0x0f40|00 00 00 00                                    |....            |          ptr: 0x0 0xf40-0xf44 (4)
      |                                               |                |        [14]{}: dynamic_tags 0xf44-0xf4c (8)
0x0f40|            03 00 00 00                        |    ....        |          tag: "pltgot" (3) (Address of PLT and/or GOT) 0xf44-0xf48 (4)
0x0f40|                        bc 0f 01 00            |        ....    |          ptr: 0x10fbc 0xf48-0xf4c (4)
      |                                               |                |          section_index: 16
      |                                               |                |        [15]{}: dynamic_tags 0xf4c-0xf54 (8)
0x0f40|                                    02 00 00 00|            ....|          tag: "pltrelsz" (2) (Size in bytes of PLT relocation entries) 0xf4c-0xf50 (4)
0x0f50|30 00 00 00                                    |0...            |          val: 48 0xf50-0xf54 (4)
      |                                               |                |        [16]{}: dynamic_tags 0xf54-0xf5c (8)
0x0f50|            14 00 00 00                        |    ....        |          tag: "pltrel" (20) (Type of relocation entry to which the PLT refers (Rela or Rel)) 0xf54-0xf58 (4)
0x0f50|                        11 00 00 00            |        ....    |          val: 17 0xf58-0xf5c (4)
      |                                               |                |        [17]{}: dynamic_tags 0xf5c-0xf64 (8)
0x0f50|                                    17 00 00 00|            ....|          tag: "jmprel" (23) (Address of relocation entries associated solely with the PLT) 0xf5c-0xf60 (4)
0x0f60|3c 03 00 00                                    |<...            |          ptr: 0x33c 0xf60-0xf64 (4)
      |                                               |                |          section_index: 6
      |                                               |                |        [18]{}: dynamic_tags 0xf64-0xf6c (8)
0x0f60|            11 00 00 00                        |    ....        |          tag: "rel" (17) 0xf64-0xf68 (4)
0x0f60|                        e4 02 00 00            |        ....    |          ptr: 0x2e4 0xf68-0xf6c (4)
      |                                               |                |        [19]{}: dynamic_tags 0xf6c-0xf74 (8)
0x0f60|                                    12 00 00 00|            ....|          tag: "relsz" (18) (Size in bytes of Rel relocation table) 0xf6c-0xf70 (4)
0x0f70|58 00 00 00                                    |X...            |          val: 88 0xf70-0xf74 (4)
      |                                               |                |        [20]{}: dynamic_tags 0xf74-0xf7c (8)
0x0f70|            13 00 00 00                        |    ....        |          tag: "relent" (19) (Size in bytes of a Rel table entry) 0xf74-0xf78 (4)
0x0f70|                        08 00 00 00            |        ....    |          val: 8 0xf78-0xf7c (4)
      |                                               |                |        [21]{}: dynamic_tags 0xf7c-0xf84 (8)
0x0f70|                                    18 00 00 00|            ....|          tag: "bind_now" (24) (Instruct dynamic linker to process all relocations before transferring control to the executable) 0xf7c-0xf80 (4)
0x0f80|00 00 00 00                                    |....            |          ignored: 0x0 0xf80-0xf84 (4)
      |                                               |                |        [22]{}: dynamic_tags 0xf84-0xf8c (8)
0x0f80|            fb ff ff 6f                        |    ...o        |          tag: 1879048187 0xf84-0xf88 (4)
0x0f80|                        01 00 00 08            |        ....    |          unspecified: 0x8000001 0xf88-0xf8c (4)
      |                                               |                |        [23]{}: dynamic_tags 0xf8c-0xf94 (8)
0x0f80|                                    fa ff ff 6f|            ...o|          tag: 1879048186 0xf8c-0xf90 (4)
0x0f90|06 00 00 00                                    |....            |          unspecified: 0x6 0xf90-0xf94 (4)
      |                                               |                |        [24]{}: dynamic_tags 0xf94-0xf9c (8)
0x0f90|            00 00 00 00                        |    ....        |          tag: "null" (0) (Marks end of dynamic section) 0xf94-0xf98 (4)
0x0f90|                        00 00 00 00            |        ....    |          ignored: 0x0 0xf98-0xf9c (4)
0x22b0|            8b 00 00 00                        |    ....        |      name: ".dynamic" (139) 0x22b4-0x22b8 (4)
0x22b0|                        06 00 00 00            |        ....    |      type: "dynamic" (0x6) (Information for dynamic linking) 0x22b8-0x22bc (4)
      |                                               |                |      flags{}: 0x22bc-0x22c0 (4)
0x22b0|                                    03         |            .   |        link_order: false 0x22bc-0x22bc.1 (0.1)
0x22b0|                                    03         |            .   |        info_link: false 0x22bc.1-0x22bc.2 (0.1)
0x22b0|                                    03         |            .   |        strings: false 0x22bc.2-0x22bc.3 (0.1)
0x22b0|                                    03         |            .   |        merge: false 0x22bc.3-0x22bc.4 (0.1)
0x22b0|                                    03         |            .   |        unused0: 0 0x22bc.4-0x22bc.5 (0.1)
0x22b0|                                    03         |            .   |        execinstr: false 0x22bc.5-0x22bc.6 (0.1)
0x22b0|                                    03         |            .   |        alloc: true 0x22bc.6-0x22bc.7 (0.1)
0x22b0|                                    03         |            .   |        write: true 0x22bc.7-0x22bd (0.1)
0x22b0|                                       00      |             .  |        tls: false 0x22bd-0x22bd.1 (0.1)
0x22b0|                                       00      |             .  |        group: false 0x22bd.1-0x22bd.2 (0.1)
0x22b0|                                       00      |             .  |        os_nonconforming: false 0x22bd.2-0x22bd.3 (0.1)
0x22b0|                                       00 00   |             .. |        unused1: 0 0x22bd.3-0x22be.4 (1.1)
0x22b0|                                          00 00|              ..|        os_specific: 0 0x22be.4-0x22bf.4 (1)
0x22b0|                                             00|               .|        processor_specific: 0 0x22bf.4-0x22c0 (0.4)
0x22c0|d4 0e 01 00                                    |....            |      addr: 0x10ed4 0x22c0-0x22c4 (4)
0x22c0|            d4 0e 00 00                        |    ....        |      offset: 3796 0x22c4-0x22c8 (4)
0x22c0|                        e8 00 00 00            |        ....    |      size: 0xe8 0x22c8-0x22cc (4)
0x22c0|                                    04 00 00 00|            ....|      link: 4 0x22cc-0x22d0 (4)
0x22d0|00 00 00 00                                    |....            |      info: 0 0x22d0-0x22d4 (4)
0x22d0|            04 00 00 00                        |    ....        |      addralign: 4 0x22d4-0x22d8 (4)
0x22d0|                        08 00 00 00            |        ....    |      entsize: 8 0x22d8-0x22dc (4)
      |                                               |                |    [16]{}: section_header 0xfbc-0x2304 (4936)
0x0fb0|                                    d4 0e 01 00|            ....|      data: raw bits 0xfbc-0x1000 (68)
0x0fc0|00 00 00 00 00 00 00 00 78 03 00 00 78 03 00 00|........x...x...|
*     |until 0xfff.7 (68)                             |                |
0x22d0|                                    94 00 00 00|            ....|      name: ".got" (148) 0x22dc-0x22e0 (4)
0x22e0|01 00 00 00                                    |....            |      type: "progbits" (0x1) (Information defined by the program) 0x22e0-0x22e4 (4)
      |                                               |                |      flags{}: 0x22e4-0x22e8 (4)
0x22e0|            03                                 |    .           |        link_order: false 0x22e4-0x22e4.1 (0.1)
0x22e0|            03                                 |    .           |        info_link: false 0x22e4.1-0x22e4.2 (0.1)
0x22e0|            03                                 |    .           |        strings: false 0x22e4.2-0x22e4.3 (0.1)
0x22e0|            03                                 |    .           |        merge: false 0x22e4.3-0x22e4.4 (0.1)
0x22e0|            03                                 |    .           |        unused0: 0 0x22e4.4-0x22e4.5 (0.1)
0x22e0|            03                                 |    .           |        execinstr: false 0x22e4.5-0x22e4.6 (0.1)
0x22e0|            03                                 |    .           |        alloc: true 0x22e4.6-0x22e4.7 (0.1)
0x22e0|            03                                 |    .           |        write: true 0x22e4.7-0x22e5 (0.1)
0x22e0|               00                              |     .          |        tls: false 0x22e5-0x22e5.1 (0.1)
0x22e0|               00                              |     .          |        group: false 0x22e5.1-0x22e5.2 (0.1)
0x22e0|               00                              |     .          |        os_nonconforming: false 0x22e5.2-0x22e5.3 (0.1)
0x22e0|               00 00                           |     ..         |        unused1: 0 0x22e5.3-0x22e6.4 (1.1)
0x22e0|                  00 00                        |      ..        |        os_specific: 0 0x22e6.4-0x22e7.4 (1)
0x22e0|                     00                        |       .        |        processor_specific: 0 0x22e7.4-0x22e8 (0.4)
0x22e0|                        bc 0f 01 00            |        ....    |      addr: 0x10fbc 0x22e8-0x22ec (4)
0x22e0|                                    bc 0f 00 00|            ....|      offset: 4028 0x22ec-0x22f0 (4)
0x22f0|44 00 00 00                                    |D...            |      size: 0x44 0x22f0-0x22f4 (4)
0x22f0|            00 00 00 00                        |    ....        |      link: 0 0x22f4-0x22f8 (4)
0x22f0|                        00 00 00 00            |        ....    |      info: 0 0x22f8-0x22fc (4)
0x22f0|                                    04 00 00 00|            ....|      addralign: 4 0x22fc-0x2300 (4)
0x2300|04 00 00 00                                    |....            |      entsize: 4 0x2300-0x2304 (4)
      |                                               |                |    [17]{}: section_header 0x1000-0x232c (4908)
0x1000|00 10 01 00                                    |....            |      data: raw bits 0x1000-0x1004 (4)
0x2300|            99 00 00 00                        |    ....        |      name: ".data" (153) 0x2304-0x2308 (4)
0x2300|                        01 00 00 00            |        ....    |      type: "progbits" (0x1) (Information defined by the program) 0x2308-0x230c (4)
      |                                               |                |      flags{}: 0x230c-0x2310 (4)
0x2300|                                    03         |            .   |        link_order: false 0x230c-0x230c.1 (0.1)
0x2300|                                    03         |            .   |        info_link: false 0x230c.1-0x230c.2 (0.1)
0x2300|                                    03         |            .   |        strings: false 0x230c.2-0x230c.3 (0.1)
0x2300|                                    03         |            .   |        merge: false 0x230c.3-0x230c.4 (0.1)
0x2300|                                    03         |            .   |        unused0: 0 0x230c.4-0x230c.5 (0.1)
0x2300|                                    03         |            .   |        execinstr: false 0x230c.5-0x230c.6 (0.1)
0x2300|                                    03         |            .   |        alloc: true 0x230c.6-0x230c.7 (0.1)
0x2300|                                    03         |            .   |        write: true 0x230c.7-0x230d (0.1)
0x2300|                                       00      |             .  |        tls: false 0x230d-0x230d.1 (0.1)
0x2300|                                       00      |             .  |        group: false 0x230d.1-0x230d.2 (0.1)
0x2300|                                       00      |             .  |        os_nonconforming: false 0x230d.2-0x230d.3 (0.1)
0x2300|                                       00 00   |             .. |        unused1: 0 0x230d.3-0x230e.4 (1.1)
0x2300|                                          00 00|              ..|        os_specific: 0 0x230e.4-0x230f.4 (1)
0x2300|                                             00|               .|        processor_specific: 0 0x230f.4-0x2310 (0.4)
0x2310|00 10 01 00                                    |....            |      addr: 0x11000 0x2310-0x2314 (4)
0x2310|            00 10 00 00                        |    ....        |      offset: 4096 0x2314-0x2318 (4)
0x2310|                        04 00 00 00            |        ....    |      size: 0x4 0x2318-0x231c (4)
0x2310|                                    00 00 00 00|            ....|      link: 0 0x231c-0x2320 (4)
0x2320|00 00 00 00                                    |....            |      info: 0 0x2320-0x2324 (4)
0x2320|            04 00 00 00                        |    ....        |      addralign: 4 0x2324-0x2328 (4)
0x2320|                        00 00 00 00            |        ....    |      entsize: 0 0x2328-0x232c (4)
      |                                               |                |    [18]{}: section_header 0x232c-0x2354 (40)
0x2320|                                    9f 00 00 00|            ....|      name: ".bss" (159) 0x232c-0x2330 (4)
0x2330|08 00 00 00                                    |....            |      type: "nobits" (0x8) (No space in the file) 0x2330-0x2334 (4)
      |                                               |                |      flags{}: 0x2334-0x2338 (4)
0x2330|            03                                 |    .           |        link_order: false 0x2334-0x2334.1 (0.1)
0x2330|            03                                 |    .           |        info_link: false 0x2334.1-0x2334.2 (0.1)
0x2330|            03                                 |    .           |        strings: false 0x2334.2-0x2334.3 (0.1)
0x2330|            03                                 |    .           |        merge: false 0x2334.3-0x2334.4 (0.1)
0x2330|            03                                 |    .           |        unused0: 0 0x2334.4-0x2334.5 (0.1)
0x2330|            03                                 |    .           |        execinstr: false 0x2334.5-0x2334.6 (0.1)
0x2330|            03                                 |    .           |        alloc: true 0x2334.6-0x2334.7 (0.1)
0x2330|            03                                 |    .           |        write: true 0x2334.7-0x2335 (0.1)
0x2330|               00                              |     .          |        tls: false 0x2335-0x2335.1 (0.1)
0x2330|               00                              |     .          |        group: false 0x2335.1-0x2335.2 (0.1)
0x2330|               00                              |     .          |        os_nonconforming: false 0x2335.2-0x2335.3 (0.1)
0x2330|               00 00                           |     ..         |        unused1: 0 0x2335.3-0x2336.4 (1.1)
0x2330|                  00 00                        |      ..        |        os_specific: 0 0x2336.4-0x2337.4 (1)
0x2330|                     00                        |       .        |        processor_specific: 0 0x2337.4-0x2338 (0.4)
0x2330|                        04 10 01 00            |        ....    |      addr: 0x11004 0x2338-0x233c (4)
0x2330|                                    04 10 00 00|            ....|      offset: 4100 0x233c-0x2340 (4)
0x2340|1c 00 00 00                                    |....            |      size: 0x1c 0x2340-0x2344 (4)
0x2340|            00 00 00 00                        |    ....        |      link: 0 0x2344-0x2348 (4)
0x2340|                        00 00 00 00            |        ....    |      info: 0 0x2348-0x234c (4)
0x2340|                                    04 00 00 00|            ....|      addralign: 4 0x234c-0x2350 (4)
0x2350|00 00 00 00                                    |....            |      entsize: 0 0x2350-0x2354 (4)
      |                                               |                |    [19]{}: section_header 0x1004-0x237c (4984)
0x1000|            47 43 43 3a 20 28 41 6c 70 69 6e 65|    GCC: (Alpine|      data: raw bits 0x1004-0x1035 (49)
0x1010|20 31 30 2e 33 2e 31 5f 67 69 74 32 30 32 31 31| 10.3.1_git20211|
*     |until 0x1034.7 (49)                            |                |
0x2350|            a4 00 00 00                        |    ....        |      name: ".comment" (164) 0x2354-0x2358 (4)
0x2350|                        01 00 00 00            |        ....    |      type: "progbits" (0x1) (Information defined by the program) 0x2358-0x235c (4)
      |                                               |                |      flags{}: 0x235c-0x2360 (4)
0x2350|                                    30         |            0   |        link_order: false 0x235c-0x235c.1 (0.1)
0x2350|                                    30         |            0   |        info_link: false 0x235c.1-0x235c.2 (0.1)
0x2350|                                    30         |            0   |        strings: true 0x235c.2-0x235c.3 (0.1)
0x2350|                                    30         |            0   |        merge: true 0x235c.3-0x235c.4 (0.1)
0x2350|                                    30         |            0   |        unused0: 0 0x235c.4-0x235c.5 (0.1)
0x2350|                                    30         |            0   |        execinstr: false 0x235c.5-0x235c.6 (0.1)
0x2350|                                    30         |            0   |        alloc: false 0x235c.6-0x235c.7 (0.1)
0x2350|                                    30         |            0   |        write: false 0x235c.7-0x235d (0.1)
0x2350|                                       00      |             .  |        tls: false 0x235d-0x235d.1 (0.1)
0x2350|                                       00      |             .  |        group: false 0x235d.1-0x235d.2 (0.1)
0x2350|                                       00      |             .  |        os_nonconforming: false 0x235d.2-0x235d.3 (0.1)
0x2350|                                       00 00   |             .. |        unused1: 0 0x235d.3-0x235e.4 (1.1)
0x2350|                                          00 00|              ..|        os_specific: 0 0x235e.4-0x235f.4 (1)
0x2350|                                             00|               .|        processor_specific: 0 0x235f.4-0x2360 (0.4)
0x2360|00 00 00 00                                    |....            |      addr: 0x0 0x2360-0x2364 (4)
0x2360|            04 10 00 00                        |    ....        |      offset: 4100 0x2364-0x2368 (4)
0x2360|                        31 00 00 00            |        1...    |      size: 0x31 0x2368-0x236c (4)
0x2360|                                    00 00 00 00|            ....|      link: 0 0x236c-0x2370 (4)
0x2370|00 00 00 00                                    |....            |      info: 0 0x2370-0x2374 (4)
0x2370|            01 00 00 00                        |    ....        |      addralign: 1 0x2374-0x2378 (4)
0x2370|                        01 00 00 00            |        ....    |      entsize: 1 0x2378-0x237c (4)
      |                                               |                |    [20]{}: section_header 0x1035-0x23a4 (4975)
0x1030|               41 32 00 00 00 61 65 61 62 69 00|     A2...aeabi.|      data: raw bits 0x1035-0x1068 (51)
0x1040|01 28 00 00 00 05 36 5a 4b 00 06 07 08 01 09 01|.(....6ZK.......|
*     |until 0x1067.7 (51)                            |                |
0x2370|                                    ad 00 00 00|            ....|      name: ".ARM.attributes" (173) 0x237c-0x2380 (4)
0x2380|03 00 00 70                                    |...p            |      type: 0x70000003 0x2380-0x2384 (4)
      |                                               |                |      flags{}: 0x2384-0x2388 (4)
0x2380|            00                                 |    .           |        link_order: false 0x2384-0x2384.1 (0.1)
0x2380|            00                                 |    .           |        info_link: false 0x2384.1-0x2384.2 (0.1)
0x2380|            00                                 |    .           |        strings: false 0x2384.2-0x2384.3 (0.1)
0x2380|            00                                 |    .           |        merge: false 0x2384.3-0x2384.4 (0.1)
0x2380|            00                                 |    .           |        unused0: 0 0x2384.4-0x2384.5 (0.1)
0x2380|            00                                 |    .           |        execinstr: false 0x2384.5-0x2384.6 (0.1)
0x2380|            00                                 |    .           |        alloc: false 0x2384.6-0x2384.7 (0.1)
0x2380|            00                                 |    .           |        write: false 0x2384.7-0x2385 (0.1)
0x2380|               00                              |     .          |        tls: false 0x2385-0x2385.1 (0.1)
0x2380|               00                              |     .          |        group: false 0x2385.1-0x2385.2 (0.1)
0x2380|               00                              |     .          |        os_nonconforming: false 0x2385.2-0x2385.3 (0.1)
0x2380|               00 00                           |     ..         |        unused1: 0 0x2385.3-0x2386.4 (1.1)
0x2380|                  00 00                        |      ..        |        os_specific: 0 0x2386.4-0x2387.4 (1)
0x2380|                     00                        |       .        |        processor_specific: 0 0x2387.4-0x2388 (0.4)
0x2380|                        00 00 00 00            |        ....    |      addr: 0x0 0x2388-0x238c (4)
0x2380|                                    35 10 00 00|            5...|      offset: 4149 0x238c-0x2390 (4)
0x2390|33 00 00 00                                    |3...            |      size: 0x33 0x2390-0x2394 (4)
0x2390|            00 00 00 00                        |    ....        |      link: 0 0x2394-0x2398 (4)
0x2390|                        00 00 00 00            |        ....    |      info: 0 0x2398-0x239c (4)
0x2390|                                    01 00 00 00|            ....|      addralign: 1 0x239c-0x23a0 (4)
0x23a0|00 00 00 00                                    |....            |      entsize: 0 0x23a0-0x23a4 (4)
      |                                               |                |    [21]{}: section_header 0x1068-0x23cc (4964)
0x1060|                        1c 00 00 00 02 00 00 00|        ........|      data: raw bits 0x1068-0x10d8 (112)
0x1070|00 00 04 00 00 00 00 00 f8 03 00 00 64 00 00 00|............d...|
*     |until 0x10d7.7 (112)                           |                |
0x23a0|            bd 00 00 00                        |    ....        |      name: ".debug_aranges" (189) 0x23a4-0x23a8 (4)
0x23a0|                        01 00 00 00            |        ....    |      type: "progbits" (0x1) (Information defined by the program) 0x23a8-0x23ac (4)
      |                                               |                |      flags{}: 0x23ac-0x23b0 (4)
0x23a0|                                    00         |            .   |        link_order: false 0x23ac-0x23ac.1 (0.1)
0x23a0|                                    00         |            .   |        info_link: false 0x23ac.1-0x23ac.2 (0.1)
0x23a0|                                    00         |            .   |        strings: false 0x23ac.2-0x23ac.3 (0.1)
0x23a0|                                    00         |            .   |        merge: false 0x23ac.3-0x23ac.4 (0.1)
0x23a0|                                    00         |            .   |        unused0: 0 0x23ac.4-0x23ac.5 (0.1)
0x23a0|                                    00         |            .   |        execinstr: false 0x23ac.5-0x23ac.6 (0.1)
0x23a0|                                    00         |            .   |        alloc: false 0x23ac.6-0x23ac.7 (0.1)
0x23a0|                                    00         |            .   |        write: false 0x23ac.7-0x23ad (0.1)
0x23a0|                                       00      |             .  |        tls: false 0x23ad-0x23ad.1 (0.1)
0x23a0|                                       00      |             .  |        group: false 0x23ad.1-0x23ad.2 (0.1)
0x23a0|                                       00      |             .  |        os_nonconforming: false 0x23ad.2-0x23ad.3 (0.1)
0x23a0|                                       00 00   |             .. |        unused1: 0 0x23ad.3-0x23ae.4 (1.1)
0x23a0|                                          00 00|              ..|        os_specific: 0 0x23ae.4-0x23af.4 (1)
0x23a0|                                             00|               .|        processor_specific: 0 0x23af.4-0x23b0 (0.4)
0x23b0|00 00 00 00                                    |....            |      addr: 0x0 0x23b0-0x23b4 (4)
0x23b0|            68 10 00 00                        |    h...        |      offset: 4200 0x23b4-0x23b8 (4)
0x23b0|                        70 00 00 00            |        p...    |      size: 0x70 0x23b8-0x23bc (4)
0x23b0|                                    00 00 00 00|            ....|      link: 0 0x23bc-0x23c0 (4)
0x23c0|00 00 00 00                                    |....            |      info: 0 0x23c0-0x23c4 (4)
0x23c0|            08 00 00 00                        |    ....        |      addralign: 8 0x23c4-0x23c8 (4)
0x23c0|                        00 00 00 00            |        ....    |      entsize: 0 0x23c8-0x23cc (4)
      |                                               |                |    [22]{}: section_header 0x10d8-0x23f4 (4892)
0x10d0|                        e9 00 00 00 04 00 00 00|        ........|      data: raw bits 0x10d8-0x1209 (305)
0x10e0|00 00 04 01 2a 00 00 00 0c 0d 00 00 00 9b 01 00|....*...........|
*     |until 0x1208.7 (305)                           |                |
0x23c0|                                    cc 00 00 00|            ....|      name: ".debug_info" (204) 0x23cc-0x23d0 (4)
0x23d0|01 00 00 00                                    |....            |      type: "progbits" (0x1) (Information defined by the program) 0x23d0-0x23d4 (4)
      |                                               |                |      flags{}: 0x23d4-0x23d8 (4)
0x23d0|            00                                 |    .           |        link_order: false 0x23d4-0x23d4.1 (0.1)
0x23d0|            00                                 |    .           |        info_link: false 0x23d4.1-0x23d4.2 (0.1)
0x23d0|            00                                 |    .           |        strings: false 0x23d4.2-0x23d4.3 (0.1)
0x23d0|            00                                 |    .           |        merge: false 0x23d4.3-0x23d4.4 (0.1)
0x23d0|            00                                 |    .           |        unused0: 0 0x23d4.4-0x23d4.5 (0.1)
0x23d0|            00                                 |    .           |        execinstr: false 0x23d4.5-0x23d4.6 (0.1)
0x23d0|            00                                 |    .           |        alloc: false 0x23d4.6-0x23d4.7 (0.1)
0x23d0|            00                                 |    .           |        write: false 0x23d4.7-0x23d5 (0.1)
0x23d0|               00                              |     .          |        tls: false 0x23d5-0x23d5.1 (0.1)
0x23d0|               00                              |     .          |        group: false 0x23d5.1-0x23d5.2 (0.1)
0x23d0|               00                              |     .          |        os_nonconforming: false 0x23d5.2-0x23d5.3 (0.1)
0x23d0|               00 00                           |     ..         |        unused1: 0 0x23d5.3-0x23d6.4 (1.1)
0x23d0|                  00 00                        |      ..        |        os_specific: 0 0x23d6.4-0x23d7.4 (1)
0x23d0|                     00                        |       .        |        processor_specific: 0 0x23d7.4-0x23d8 (0.4)
0x23d0|                        00 00 00 00            |        ....    |      addr: 0x0 0x23d8-0x23dc (4)
0x23d0|                                    d8 10 00 00|            ....|      offset: 4312 0x23dc-0x23e0 (4)
0x23e0|31 01 00 00                                    |1...            |      size: 0x131 0x23e0-0x23e4 (4)
0x23e0|            00 00 00 00                        |    ....        |      link: 0 0x23e4-0x23e8 (4)
0x23e0|                        00 00 00 00            |        ....    |      info: 0 0x23e8-0x23ec (4)
0x23e0|                                    01 00 00 00|            ....|      addralign: 1 0x23ec-0x23f0 (4)
0x23f0|00 00 00 00                                    |....            |      entsize: 0 0x23f0-0x23f4 (4)
      |                                               |                |    [23]{}: section_header 0x1209-0x241c (4627)
0x1200|                           01 11 01 25 0e 13 0b|         ...%...|      data: raw bits 0x1209-0x12ce (197)
0x1210|03 0e 1b 0e 55 17 11 01 10 17 00 00 02 24 00 0b|....U........$..|
*     |until 0x12cd.7 (197)                           |                |
0x23f0|            d8 00 00 00                        |    ....        |      name: ".debug_abbrev" (216) 0x23f4-0x23f8 (4)
0x23f0|                        01 00 00 00            |        ....    |      type: "progbits" (0x1) (Information defined by the program) 0x23f8-0x23fc (4)
      |                                               |                |      flags{}: 0x23fc-0x2400 (4)
0x23f0|                                    00         |            .   |        link_order: false 0x23fc-0x23fc.1 (0.1)
0x23f0|                                    00         |            .   |        info_link: false 0x23fc.1-0x23fc.2 (0.1)
0x23f0|                                    00         |            .   |        strings: false 0x23fc.2-0x23fc.3 (0.1)
0x23f0|                                    00         |            .   |        merge: false 0x23fc.3-0x23fc.4 (0.1)
0x23f0|                                    00         |            .   |        unused0: 0 0x23fc.4-0x23fc.5 (0.1)
0x23f0|                                    00         |            .   |        execinstr: false 0x23fc.5-0x23fc.6 (0.1)
0x23f0|                                    00         |            .   |        alloc: false 0x23fc.6-0x23fc.7 (0.1)
0x23f0|                                    00         |            .   |        write: false 0x23fc.7-0x23fd (0.1)
0x23f0|                                       00      |             .  |        tls: false 0x23fd-0x23fd.1 (0.1)
0x23f0|                                       00      |             .  |        group: false 0x23fd.1-0x23fd.2 (0.1)
0x23f0|                                       00      |             .  |        os_nonconforming: false 0x23fd.2-0x23fd.3 (0.1)
0x23f0|                                       00 00   |             .. |        unused1: 0 0x23fd.3-0x23fe.4 (1.1)
0x23f0|                                          00 00|              ..|        os_specific: 0 0x23fe.4-0x23ff.4 (1)
0x23f0|                                             00|               .|        processor_specific: 0 0x23ff.4-0x2400 (0.4)
0x2400|00 00 00 00                                    |....            |      addr: 0x0 0x2400-0x2404 (4)
0x2400|            09 12 00 00                        |    ....        |      offset: 4617 0x2404-0x2408 (4)
0x2400|                        c5 00 00 00            |        ....    |      size: 0xc5 0x2408-0x240c (4)
0x2400|                                    00 00 00 00|            ....|      link: 0 0x240c-0x2410 (4)
0x2410|00 00 00 00                                    |....            |      info: 0 0x2410-0x2414 (4)
0x2410|            01 00 00 00                        |    ....        |      addralign: 1 0x2414-0x2418 (4)
0x2410|                        00 00 00 00            |        ....    |      entsize: 0 0x2418-0x241c (4)
      |                                               |                |    [24]{}: section_header 0x12ce-0x2444 (4470)
0x12c0|                                          51 00|              Q.|      data: raw bits 0x12ce-0x13b9 (235)
0x12d0|00 00 03 00 21 00 00 00 02 01 fb 0e 0d 00 01 01|....!...........|
*     |until 0x13b8.7 (235)                           |                |
0x2410|                                    e6 00 00 00|            ....|      name: ".debug_line" (230) 0x241c-0x2420 (4)
0x2420|01 00 00 00                                    |....            |      type: "progbits" (0x1) (Information defined by the program) 0x2420-0x2424 (4)
      |                                               |                |      flags{}: 0x2424-0x2428 (4)
0x2420|            00                                 |    .           |        link_order: false 0x2424-0x2424.1 (0.1)
0x2420|            00                                 |    .           |        info_link: false 0x2424.1-0x2424.2 (0.1)
0x2420|            00                                 |    .           |        strings: false 0x2424.2-0x2424.3 (0.1)
0x2420|            00                                 |    .           |        merge: false 0x2424.3-0x2424.4 (0.1)
0x2420|            00                                 |    .           |        unused0: 0 0x2424.4-0x2424.5 (0.1)
0x2420|            00                                 |    .           |        execinstr: false 0x2424.5-0x2424.6 (0.1)
0x2420|            00                                 |    .           |        alloc: false 0x2424.6-0x2424.7 (0.1)
0x2420|            00                                 |    .           |        write: false 0x2424.7-0x2425 (0.1)
0x2420|               00                              |     .          |        tls: false 0x2425-0x2425.1 (0.1)
0x2420|               00                              |     .          |        group: false 0x2425.1-0x2425.2 (0.1)
0x2420|               00                              |     .          |        os_nonconforming: false 0x2425.2-0x2425.3 (0.1)
0x2420|               00 00                           |     ..         |        unused1: 0 0x2425.3-0x2426.4 (1.1)
0x2420|                  00 00                        |      ..        |        os_specific: 0 0x2426.4-0x2427.4 (1)
0x2420|                     00                        |       .        |        processor_specific: 0 0x2427.4-0x2428 (0.4)
0x2420|                        00 00 00 00            |        ....    |      addr: 0x0 0x2428-0x242c (4)
0x2420|                                    ce 12 00 00|            ....|      offset: 4814 0x242c-0x2430 (4)
0x2430|eb 00 00 00                                    |....            |      size: 0xeb 0x2430-0x2434 (4)
0x2430|            00 00 00 00                        |    ....        |      link: 0 0x2434-0x2438 (4)
0x2430|                        00 00 00 00            |        ....    |      info: 0 0x2438-0x243c (4)
0x2430|                                    01 00 00 00|            ....|      addralign: 1 0x243c-0x2440 (4)
0x2440|00 00 00 00                                    |....            |      entsize: 0 0x2440-0x2444 (4)
      |                                               |                |    [25]{}: section_header 0x13bc-0x246c (4272)
0x13b0|                                    0c 00 00 00|            ....|      data: raw bits 0x13bc-0x13e4 (40)
0x13c0|ff ff ff ff 01 00 02 7c 0e 0c 0d 00 14 00 00 00|.......|........|
*     |until 0x13e3.7 (40)                            |                |
0x2440|            f2 00 00 00                        |    ....        |      name: ".debug_frame" (242) 0x2444-0x2448 (4)
0x2440|                        01 00 00 00            |        ....    |      type: "progbits" (0x1) (Information defined by the program) 0x2448-0x244c (4)
      |                                               |                |      flags{}: 0x244c-0x2450 (4)
0x2440|                                    00         |            .   |        link_order: false 0x244c-0x244c.1 (0.1)
0x2440|                                    00         |            .   |        info_link: false 0x244c.1-0x244c.2 (0.1)
0x2440|                                    00         |            .   |        strings: false 0x244c.2-0x244c.3 (0.1)
0x2440|                                    00         |            .   |        merge: false 0x244c.3-0x244c.4 (0.1)
0x2440|                                    00         |            .   |        unused0: 0 0x244c.4-0x244c.5 (0.1)
0x2440|                                    00         |            .   |        execinstr: false 0x244c.5-0x244c.6 (0.1)
0x2440|                                    00         |            .   |        alloc: false 0x244c.6-0x244c.7 (0.1)
0x2440|                                    00         |            .   |        write: false 0x244c.7-0x244d (0.1)
0x2440|                                       00      |             .  |        tls: false 0x244d-0x244d.1 (0.1)
0x2440|                                       00      |             .  |        group: false 0x244d.1-0x244d.2 (0.1)
0x2440|                                       00      |             .  |        os_nonconforming: false 0x244d.2-0x244d.3 (0.1)
0x2440|                                       00 00   |             .. |        unused1: 0 0x244d.3-0x244e.4 (1.1)
0x2440|                                          00 00|              ..|        os_specific: 0 0x244e.4-0x244f.4 (1)
0x2440|                                             00|               .|        processor_specific: 0 0x244f.4-0x2450 (0.4)
0x2450|00 00 00 00                                    |....            |      addr: 0x0 0x2450-0x2454 (4)
0x2450|            bc 13 00 00                        |    ....        |      offset: 5052 0x2454-0x2458 (4)
0x2450|                        28 00 00 00            |        (...    |      size: 0x28 0x2458-0x245c (4)
0x2450|                                    00 00 00 00|            ....|      link: 0 0x245c-0x2460 (4)
0x2460|00 00 00 00                                    |....            |      info: 0 0x2460-0x2464 (4)
0x2460|            04 00 00 00                        |    ....        |      addralign: 4 0x2464-0x2468 (4)
0x2460|                        00 00 00 00            |        ....    |      entsize: 0 0x2468-0x246c (4)
      |                                               |                |    [26]{}: section_header 0x13e4-0x2494 (4272)
0x13e0|            75 6e 73 69 67 6e 65 64 20 69 6e 74|    unsigned int|      data: raw bits 0x13e4-0x15f5 (529)
0x13f0|00 63 72 74 2f 53 63 72 74 31 2e 63 00 73 69 67|.crt/Scrt1.c.sig|
*     |until 0x15f4.7 (529)                           |                |
0x2460|                                    ff 00 00 00|            ....|      name: ".debug_str" (255) 0x246c-0x2470 (4)
0x2470|01 00 00 00                                    |....            |      type: "progbits" (0x1) (Information defined by the program) 0x2470-0x2474 (4)
      |                                               |                |      flags{}: 0x2474-0x2478 (4)
0x2470|            30                                 |    0           |        link_order: false 0x2474-0x2474.1 (0.1)
0x2470|            30                                 |    0           |        info_link: false 0x2474.1-0x2474.2 (0.1)
0x2470|            30                                 |    0           |        strings: true 0x2474.2-0x2474.3 (0.1)
0x2470|            30                                 |    0           |        merge: true 0x2474.3-0x2474.4 (0.1)
0x2470|            30                                 |    0           |        unused0: 0 0x2474.4-0x2474.5 (0.1)
0x2470|            30                                 |    0           |        execinstr: false 0x2474.5-0x2474.6 (0.1)
0x2470|            30                                 |    0           |        alloc: false 0x2474.6-0x2474.7 (0.1)
0x2470|            30                                 |    0           |        write: false 0x2474.7-0x2475 (0.1)
0x2470|               00                              |     .          |        tls: false 0x2475-0x2475.1 (0.1)
0x2470|               00                              |     .          |        group: false 0x2475.1-0x2475.2 (0.1)
0x2470|               00                              |     .          |        os_nonconforming: false 0x2475.2-0x2475.3 (0.1)
0x2470|               00 00                           |     ..         |        unused1: 0 0x2475.3-0x2476.4 (1.1)
0x2470|                  00 00                        |      ..        |        os_specific: 0 0x2476.4-0x2477.4 (1)
0x2470|                     00                        |       .        |        processor_specific: 0 0x2477.4-0x2478 (0.4)
0x2470|                        00 00 00 00            |        ....    |      addr: 0x0 0x2478-0x247c (4)
0x2470|                                    e4 13 00 00|            ....|      offset: 5092 0x247c-0x2480 (4)
0x2480|11 02 00 00                                    |....            |      size: 0x211 0x2480-0x2484 (4)
0x2480|            00 00 00 00                        |    ....        |      link: 0 0x2484-0x2488 (4)
0x2480|                        00 00 00 00            |        ....    |      info: 0 0x2488-0x248c (4)
0x2480|                                    01 00 00 00|            ....|      addralign: 1 0x248c-0x2490 (4)
0x2490|01 00 00 00                                    |....            |      entsize: 1 0x2490-0x2494 (4)
      |                                               |                |    [27]{}: section_header 0x15f5-0x24bc (3783)
0x15f0|               00 00 00 00 00 00 f8 03 00 00 40|     ..........@|      data: raw bits 0x15f5-0x1675 (128)
0x1600|04 00 00 01 00 50 40 04 00 00 43 04 00 00 03 00|.....P@...C.....|
*     |until 0x1674.7 (128)                           |                |
0x2490|            0a 01 00 00                        |    ....        |      name: ".debug_loc" (266) 0x2494-0x2498 (4)
0x2490|                        01 00 00 00            |        ....    |      type: "progbits" (0x1) (Information defined by the program) 0x2498-0x249c (4)
      |                                               |                |      flags{}: 0x249c-0x24a0 (4)
0x2490|                                    00         |            .   |        link_order: false 0x249c-0x249c.1 (0.1)
0x2490|                                    00         |            .   |        info_link: false 0x249c.1-0x249c.2 (0.1)
0x2490|                                    00         |            .   |        strings: false 0x249c.2-0x249c.3 (0.1)
0x2490|                                    00         |            .   |        merge: false 0x249c.3-0x249c.4 (0.1)
0x2490|                                    00         |            .   |        unused0: 0 0x249c.4-0x249c.5 (0.1)
0x2490|                                    00         |            .   |        execinstr: false 0x249c.5-0x249c.6 (0.1)
0x2490|                                    00         |            .   |        alloc: false 0x249c.6-0x249c.7 (0.1)
0x2490|                                    00         |            .   |        write: false 0x249c.7-0x249d (0.1)
0x2490|                                       00      |             .  |        tls: false 0x249d-0x249d.1 (0.1)
0x2490|                                       00      |             .  |        group: false 0x249d.1-0x249d.2 (0.1)
0x2490|                                       00      |             .  |        os_nonconforming: false 0x249d.2-0x249d.3 (0.1)
0x2490|                                       00 00   |             .. |        unused1: 0 0x249d.3-0x249e.4 (1.1)
0x2490|                                          00 00|              ..|        os_specific: 0 0x249e.4-0x249f.4 (1)
0x2490|                                             00|               .|        processor_specific: 0 0x249f.4-0x24a0 (0.4)
0x24a0|00 00 00 00                                    |....            |      addr: 0x0 0x24a0-0x24a4 (4)
0x24a0|            f5 15 00 00                        |    ....        |      offset: 5621 0x24a4-0x24a8 (4)
0x24a0|                        80 00 00 00            |        ....    |      size: 0x80 0x24a8-0x24ac (4)
0x24a0|                                    00 00 00 00|            ....|      link: 0 0x24ac-0x24b0 (4)
0x24b0|00 00 00 00                                    |....            |      info: 0 0x24b0-0x24b4 (4)
0x24b0|            01 00 00 00                        |    ....        |      addralign: 1 0x24b4-0x24b8 (4)
0x24b0|                        00 00 00 00            |        ....    |      entsize: 0 0x24b8-0x24bc (4)
      |                                               |                |    [28]{}: section_header 0x1678-0x24e4 (3692)
0x1670|                        f8 03 00 00 5c 04 00 00|        ....\...|      data: raw bits 0x1678-0x16c8 (80)
0x1680|00 00 00 00 00 00 00 00 ff ff ff ff 00 00 00 00|................|
*     |until 0x16c7.7 (80)                            |                |
0x24b0|                                    15 01 00 00|            ....|      name: ".debug_ranges" (277) 0x24bc-0x24c0 (4)
0x24c0|01 00 00 00                                    |....            |      type: "progbits" (0x1) (Information defined by the program) 0x24c0-0x24c4 (4)
      |                                               |                |      flags{}: 0x24c4-0x24c8 (4)
0x24c0|            00                                 |    .           |        link_order: false 0x24c4-0x24c4.1 (0.1)
0x24c0|            00                                 |    .           |        info_link: false 0x24c4.1-0x24c4.2 (0.1)
0x24c0|            00                                 |    .           |        strings: false 0x24c4.2-0x24c4.3 (0.1)
0x24c0|            00                                 |    .           |        merge: false 0x24c4.3-0x24c4.4 (0.1)
0x24c0|            00                                 |    .           |        unused0: 0 0x24c4.4-0x24c4.5 (0.1)
0x24c0|            00                                 |    .           |        execinstr: false 0x24c4.5-0x24c4.6 (0.1)
0x24c0|            00                                 |    .           |        alloc: false 0x24c4.6-0x24c4.7 (0.1)
0x24c0|            00                                 |    .           |        write: false 0x24c4.7-0x24c5 (0.1)
0x24c0|               00                              |     .          |        tls: false 0x24c5-0x24c5.1 (0.1)
0x24c0|               00                              |     .          |        group: false 0x24c5.1-0x24c5.2 (0.1)
0x24c0|               00                              |     .          |        os_nonconforming: false 0x24c5.2-0x24c5.3 (0.1)
0x24c0|               00 00                           |     ..         |        unused1: 0 0x24c5.3-0x24c6.4 (1.1)
0x24c0|                  00 00                        |      ..        |        os_specific: 0 0x24c6.4-0x24c7.4 (1)
0x24c0|                     00                        |       .        |        processor_specific: 0 0x24c7.4-0x24c8 (0.4)
0x24c0|                        00 00 00 00            |        ....    |      addr: 0x0 0x24c8-0x24cc (4)
0x24c0|                                    78 16 00 00|            x...|      offset: 5752 0x24cc-0x24d0 (4)
0x24d0|50 00 00 00                                    |P...            |      size: 0x50 0x24d0-0x24d4 (4)
0x24d0|            00 00 00 00                        |    ....        |      link: 0 0x24d4-0x24d8 (4)
0x24d0|                        00 00 00 00            |        ....    |      info: 0 0x24d8-0x24dc (4)
0x24d0|                                    08 00 00 00|            ....|      addralign: 8 0x24dc-0x24e0 (4)
0x24e0|00 00 00 00                                    |....            |      entsize: 0 0x24e0-0x24e4 (4)
      |                                               |                |    [29]{}: section_header 0x16c8-0x250c (3652)
      |                                               |                |      symbol_table[0:103]: 0x16c8-0x1d38 (1648)
      |                                               |                |        [0]{}: symbol 0x16c8-0x16d8 (16)
0x16c0|                        00 00 00 00            |        ....    |          name: "" (0) 0x16c8-0x16cc (4)
0x16c0|                                    00 00 00 00|            ....|          value: 0 0x16cc-0x16d0 (4)
0x16d0|00 00 00 00                                    |....            |          size: 0 0x16d0-0x16d4 (4)
0x16d0|            00                                 |    .           |          bind: "local" (0) 0x16d4-0x16d4.4 (0.4)
0x16d0|            00                                 |    .           |          type: "notype" (0) 0x16d4.4-0x16d5 (0.4)
0x16d0|               00                              |     .          |          other_unused: 0 0x16d5-0x16d5.6 (0.6)
0x16d0|               00                              |     .          |          visibility: "default" (0) 0x16d5.6-0x16d6 (0.2)
0x16d0|                  00 00                        |      ..        |          shndx: 0 0x16d6-0x16d8 (2)
      |                                               |                |        [1]{}: symbol 0x16d8-0x16e8 (16)
0x16d0|                        00 00 00 00            |        ....    |          name: "" (0) 0x16d8-0x16dc (4)
0x16d0|                                    14 01 00 00|            ....|          value: 276 0x16dc-0x16e0 (4)
0x16e0|00 00 00 00                                    |....            |          size: 0 0x16e0-0x16e4 (4)
0x16e0|            03                                 |    .           |          bind: "local" (0) 0x16e4-0x16e4.4 (0.4)
0x16e0|            03                                 |    .           |          type: "section" (3) 0x16e4.4-0x16e5 (0.4)
0x16e0|               00                              |     .          |          other_unused: 0 0x16e5-0x16e5.6 (0.6)
0x16e0|               00                              |     .          |          visibility: "default" (0) 0x16e5.6-0x16e6 (0.2)
0x16e0|                  01 00                        |      ..        |          shndx: 1 0x16e6-0x16e8 (2)
      |                                               |                |        [2]{}: symbol 0x16e8-0x16f8 (16)
0x16e0|                        00 00 00 00            |        ....    |          name: "" (0) 0x16e8-0x16ec (4)
0x16e0|                                    2c 01 00 00|            ,...|          value: 300 0x16ec-0x16f0 (4)
0x16f0|00 00 00 00                                    |....            |          size: 0 0x16f0-0x16f4 (4)
0x16f0|            03                                 |    .           |          bind: "local" (0) 0x16f4-0x16f4.4 (0.4)
0x16f0|            03                                 |    .           |          type: "section" (3) 0x16f4.4-0x16f5 (0.4)
0x16f0|               00                              |     .          |          other_unused: 0 0x16f5-0x16f5.6 (0.6)
0x16f0|               00                              |     .          |          visibility: "default" (0) 0x16f5.6-0x16f6 (0.2)
0x16f0|                  02 00                        |      ..        |          shndx: 2 0x16f6-0x16f8 (2)
      |                                               |                |        [3]{}: symbol 0x16f8-0x1708 (16)
0x16f0|                        00 00 00 00            |        ....    |          name: "" (0) 0x16f8-0x16fc (4)
0x16f0|                                    50 01 00 00|            P...|          value: 336 0x16fc-0x1700 (4)
0x1700|00 00 00 00                                    |....            |          size: 0 0x1700-0x1704 (4)
0x1700|            03                                 |    .           |          bind: "local" (0) 0x1704-0x1704.4 (0.4)
0x1700|            03                                 |    .           |          type: "section" (3) 0x1704.4-0x1705 (0.4)
0x1700|               00                              |     .          |          other_unused: 0 0x1705-0x1705.6 (0.6)
0x1700|               00                              |     .          |          visibility: "default" (0) 0x1705.6-0x1706 (0.2)
0x1700|                  03 00                        |      ..        |          shndx: 3 0x1706-0x1708 (2)
      |                                               |                |        [4]{}: symbol 0x1708-0x1718 (16)
0x1700|                        00 00 00 00            |        ....    |          name: "" (0) 0x1708-0x170c (4)
0x1700|                                    20 02 00 00|             ...|          value: 544 0x170c-0x1710 (4)
0x1710|00 00 00 00                                    |....            |          size: 0 0x1710-0x1714 (4)
0x1710|            03                                 |    .           |          bind: "local" (0) 0x1714-0x1714.4 (0.4)
0x1710|            03                                 |    .           |          type: "section" (3) 0x1714.4-0x1715 (0.4)
0x1710|               00                              |     .          |          other_unused: 0 0x1715-0x1715.6 (0.6)
0x1710|               00                              |     .          |          visibility: "default" (0) 0x1715.6-0x1716 (0.2)
0x1710|                  04 00                        |      ..        |          shndx: 4 0x1716-0x1718 (2)
      |                                               |                |        [5]{}: symbol 0x1718-0x1728 (16)
0x1710|                        00 00 00 00            |        ....    |          name: "" (0) 0x1718-0x171c (4)
0x1710|                                    e4 02 00 00|            ....|          value: 740 0x171c-0x1720 (4)
0x1720|00 00 00 00                                    |....            |          size: 0 0x1720-0x1724 (4)
0x1720|            03                                 |    .           |          bind: "local" (0) 0x1724-0x1724.4 (0.4)
0x1720|            03                                 |    .           |          type: "section" (3) 0x1724.4-0x1725 (0.4)
0x1720|               00                              |     .          |          other_unused: 0 0x1725-0x1725.6 (0.6)
0x1720|               00                              |     .          |          visibility: "default" (0) 0x1725.6-0x1726 (0.2)
0x1720|                  05 00                        |      ..        |          shndx: 5 0x1726-0x1728 (2)
      |                                               |                |        [6]{}: symbol 0x1728-0x1738 (16)
0x1720|                        00 00 00 00            |        ....    |          name: "" (0) 0x1728-0x172c (4)
0x1720|                                    3c 03 00 00|            <...|          value: 828 0x172c-0x1730 (4)
0x1730|00 00 00 00                                    |....            |          size: 0 0x1730-0x1734 (4)
0x1730|            03                                 |    .           |          bind: "local" (0) 0x1734-0x1734.4 (0.4)
0x1730|            03                                 |    .           |          type: "section" (3) 0x1734.4-0x1735 (0.4)
0x1730|               00                              |     .          |          other_unused: 0 0x1735-0x1735.6 (0.6)
0x1730|               00                              |     .          |          visibility: "default" (0) 0x1735.6-0x1736 (0.2)
0x1730|                  06 00                        |      ..        |          shndx: 6 0x1736-0x1738 (2)
      |                                               |                |        [7]{}: symbol 0x1738-0x1748 (16)
0x1730|                        00 00 00 00            |        ....    |          name: "" (0) 0x1738-0x173c (4)
0x1730|                                    6c 03 00 00|            l...|          value: 876 0x173c-0x1740 (4)
0x1740|00 00 00 00                                    |....            |          size: 0 0x1740-0x1744 (4)
0x1740|            03                                 |    .           |          bind: "local" (0) 0x1744-0x1744.4 (0.4)
0x1740|            03                                 |    .           |          type: "section" (3) 0x1744.4-0x1745 (0.4)
0x1740|               00                              |     .          |          other_unused: 0 0x1745-0x1745.6 (0.6)
0x1740|               00                              |     .          |          visibility: "default" (0) 0x1745.6-0x1746 (0.2)
0x1740|                  07 00                        |      ..        |          shndx: 7 0x1746-0x1748 (2)
      |                                               |                |        [8]{}: symbol 0x1748-0x1758 (16)
0x1740|                        00 00 00 00            |        ....    |          name: "" (0) 0x1748-0x174c (4)
0x1740|                                    78 03 00 00|            x...|          value: 888 0x174c-0x1750 (4)
0x1750|00 00 00 00                                    |....            |          size: 0 0x1750-0x1754 (4)
0x1750|            03                                 |    .           |          bind: "local" (0) 0x1754-0x1754.4 (0.4)
0x1750|            03                                 |    .           |          type: "section" (3) 0x1754.4-0x1755 (0.4)
0x1750|               00                              |     .          |          other_unused: 0 0x1755-0x1755.6 (0.6)
0x1750|               00                              |     .          |          visibility: "default" (0) 0x1755.6-0x1756 (0.2)
0x1750|                  08 00                        |      ..        |          shndx: 8 0x1756-0x1758 (2)
      |                                               |                |        [9]{}: symbol 0x1758-0x1768 (16)
0x1750|                        00 00 00 00            |        ....    |          name: "" (0) 0x1758-0x175c (4)
0x1750|                                    d4 03 00 00|            ....|          value: 980 0x175c-0x1760 (4)
0x1760|00 00 00 00                                    |....            |          size: 0 0x1760-0x1764 (4)
0x1760|            03                                 |    .           |          bind: "local" (0) 0x1764-0x1764.4 (0.4)
0x1760|            03                                 |    .           |          type: "section" (3) 0x1764.4-0x1765 (0.4)
0x1760|               00                              |     .          |          other_unused: 0 0x1765-0x1765.6 (0.6)
0x1760|               00                              |     .          |          visibility: "default" (0) 0x1765.6-0x1766 (0.2)
0x1760|                  09 00                        |      ..        |          shndx: 9 0x1766-0x1768 (2)
      |                                               |                |        [10]{}: symbol 0x1768-0x1778 (16)
0x1760|                        00 00 00 00            |        ....    |          name: "" (0) 0x1768-0x176c (4)
0x1760|                                    08 06 00 00|            ....|          value: 1544 0x176c-0x1770 (4)
0x1770|00 00 00 00                                    |....            |          size: 0 0x1770-0x1774 (4)
0x1770|            03                                 |    .           |          bind: "local" (0) 0x1774-0x1774.4 (0.4)
0x1770|            03                                 |    .           |          type: "section" (3) 0x1774.4-0x1775 (0.4)
0x1770|               00                              |     .          |          other_unused: 0 0x1775-0x1775.6 (0.6)
0x1770|               00                              |     .          |          visibility: "default" (0) 0x1775.6-0x1776 (0.2)
0x1770|                  0a 00                        |      ..        |          shndx: 10 0x1776-0x1778 (2)
      |                                               |                |        [11]{}: symbol 0x1778-0x1788 (16)
0x1770|                        00 00 00 00            |        ....    |          name: "" (0) 0x1778-0x177c (4)
0x1770|                                    14 06 00 00|            ....|          value: 1556 0x177c-0x1780 (4)
0x1780|00 00 00 00                                    |....            |          size: 0 0x1780-0x1784 (4)
0x1780|            03                                 |    .           |          bind: "local" (0) 0x1784-0x1784.4 (0.4)
0x1780|            03                                 |    .           |          type: "section" (3) 0x1784.4-0x1785 (0.4)
0x1780|               00                              |     .          |          other_unused: 0 0x1785-0x1785.6 (0.6)
0x1780|               00                              |     .          |          visibility: "default" (0) 0x1785.6-0x1786 (0.2)
0x1780|                  0b 00                        |      ..        |          shndx: 11 0x1786-0x1788 (2)
      |                                               |                |        [12]{}: symbol 0x1788-0x1798 (16)
0x1780|                        00 00 00 00            |        ....    |          name: "" (0) 0x1788-0x178c (4)
0x1780|                                    38 07 00 00|            8...|          value: 1848 0x178c-0x1790 (4)
0x1790|00 00 00 00                                    |....            |          size: 0 0x1790-0x1794 (4)
0x1790|            03                                 |    .           |          bind: "local" (0) 0x1794-0x1794.4 (0.4)
0x1790|            03                                 |    .           |          type: "section" (3) 0x1794.4-0x1795 (0.4)
0x1790|               00                              |     .          |          other_unused: 0 0x1795-0x1795.6 (0.6)
0x1790|               00                              |     .          |          visibility: "default" (0) 0x1795.6-0x1796 (0.2)
0x1790|                  0c 00                        |      ..        |          shndx: 12 0x1796-0x1798 (2)
      |                                               |                |        [13]{}: symbol 0x1798-0x17a8 (16)
0x1790|                        00 00 00 00            |        ....    |          name: "" (0) 0x1798-0x179c (4)
0x1790|                                    cc 0e 01 00|            ....|          value: 69324 0x179c-0x17a0 (4)
0x17a0|00 00 00 00                                    |....            |          size: 0 0x17a0-0x17a4 (4)
0x17a0|            03                                 |    .           |          bind: "local" (0) 0x17a4-0x17a4.4 (0.4)
0x17a0|            03                                 |    .           |          type: "section" (3) 0x17a4.4-0x17a5 (0.4)
0x17a0|               00                              |     .          |          other_unused: 0 0x17a5-0x17a5.6 (0.6)
0x17a0|               00                              |     .          |          visibility: "default" (0) 0x17a5.6-0x17a6 (0.2)
0x17a0|                  0d 00                        |      ..        |          shndx: 13 0x17a6-0x17a8 (2)
      |                                               |                |        [14]{}: symbol 0x17a8-0x17b8 (16)
0x17a0|                        00 00 00 00            |        ....    |          name: "" (0) 0x17a8-0x17ac (4)
0x17a0|                                    d0 0e 01 00|            ....|          value: 69328 0x17ac-0x17b0 (4)
0x17b0|00 00 00 00                                    |....            |          size: 0 0x17b0-0x17b4 (4)
0x17b0|            03                                 |    .           |          bind: "local" (0) 0x17b4-0x17b4.4 (0.4)
0x17b0|            03                                 |    .           |          type: "section" (3) 0x17b4.4-0x17b5 (0.4)
0x17b0|               00                              |     .          |          other_unused: 0 0x17b5-0x17b5.6 (0.6)
0x17b0|               00                              |     .          |          visibility: "default" (0) 0x17b5.6-0x17b6 (0.2)
0x17b0|                  0e 00                        |      ..        |          shndx: 14 0x17b6-0x17b8 (2)
      |                                               |                |        [15]{}: symbol 0x17b8-0x17c8 (16)
0x17b0|                        00 00 00 00            |        ....    |          name: "" (0) 0x17b8-0x17bc (4)
0x17b0|                                    d4 0e 01 00|            ....|          value: 69332 0x17bc-0x17c0 (4)
0x17c0|00 00 00 00                                    |....            |          size: 0 0x17c0-0x17c4 (4)
0x17c0|            03                                 |    .           |          bind: "local" (0) 0x17c4-0x17c4.4 (0.4)
0x17c0|            03                                 |    .           |          type: "section" (3) 0x17c4.4-0x17c5 (0.4)
0x17c0|               00                              |     .          |          other_unused: 0 0x17c5-0x17c5.6 (0.6)
0x17c0|               00                              |     .          |          visibility: "default" (0) 0x17c5.6-0x17c6 (0.2)
0x17c0|                  0f 00                        |      ..        |          shndx: 15 0x17c6-0x17c8 (2)
      |                                               |                |        [16]{}: symbol 0x17c8-0x17d8 (16)
0x17c0|                        00 00 00 00            |        ....    |          name: "" (0) 0x17c8-0x17cc (4)
0x17c0|                                    bc 0f 01 00|            ....|          value: 69564 0x17cc-0x17d0 (4)
0x17d0|00 00 00 00                                    |....            |          size: 0 0x17d0-0x17d4 (4)
0x17d0|            03                                 |    .           |          bind: "local" (0) 0x17d4-0x17d4.4 (0.4)
0x17d0|            03                                 |    .           |          type: "section" (3) 0x17d4.4-0x17d5 (0.4)
0x17d0|               00                              |     .          |          other_unused: 0 0x17d5-0x17d5.6 (0.6)
0x17d0|               00                              |     .          |          visibility: "default" (0) 0x17d5.6-0x17d6 (0.2)
0x17d0|                  10 00                        |      ..        |          shndx: 16 0x17d6-0x17d8 (2)
      |                                               |                |        [17]{}: symbol 0x17d8-0x17e8 (16)
0x17d0|                        00 00 00 00            |        ....    |          name: "" (0) 0x17d8-0x17dc (4)
0x17d0|                                    00 10 01 00|            ....|          value: 69632 0x17dc-0x17e0 (4)
0x17e0|00 00 00 00                                    |....            |          size: 0 0x17e0-0x17e4 (4)
0x17e0|            03                                 |    .           |          bind: "local" (0) 0x17e4-0x17e4.4 (0.4)
0x17e0|            03                                 |    .           |          type: "section" (3) 0x17e4.4-0x17e5 (0.4)
0x17e0|               00                              |     .          |          other_unused: 0 0x17e5-0x17e5.6 (0.6)
0x17e0|               00                              |     .          |          visibility: "default" (0) 0x17e5.6-0x17e6 (0.2)
0x17e0|                  11 00                        |      ..        |          shndx: 17 0x17e6-0x17e8 (2)
      |                                               |                |        [18]{}: symbol 0x17e8-0x17f8 (16)
0x17e0|                        00 00 00 00            |        ....    |          name: "" (0) 0x17e8-0x17ec (4)
0x17e0|                                    04 10 01 00|            ....|          value: 69636 0x17ec-0x17f0 (4)
0x17f0|00 00 00 00                                    |....            |          size: 0 0x17f0-0x17f4 (4)
0x17f0|            03                                 |    .           |          bind: "local" (0) 0x17f4-0x17f4.4 (0.4)
0x17f0|            03                                 |    .           |          type: "section" (3) 0x17f4.4-0x17f5 (0.4)
0x17f0|               00                              |     .          |          other_unused: 0 0x17f5-0x17f5.6 (0.6)
0x17f0|               00                              |     .          |          visibility: "default" (0) 0x17f5.6-0x17f6 (0.2)
0x17f0|                  12 00                        |      ..        |          shndx: 18 0x17f6-0x17f8 (2)
      |                                               |                |        [19]{}: symbol 0x17f8-0x1808 (16)
0x17f0|                        00 00 00 00            |        ....    |          name: "" (0) 0x17f8-0x17fc (4)
0x17f0|                                    00 00 00 00|            ....|          value: 0 0x17fc-0x1800 (4)
0x1800|00 00 00 00                                    |....            |          size: 0 0x1800-0x1804 (4)
0x1800|            03                                 |    .           |          bind: "local" (0) 0x1804-0x1804.4 (0.4)
0x1800|            03                                 |    .           |          type: "section" (3) 0x1804.4-0x1805 (0.4)
0x1800|               00                              |     .          |          other_unused: 0 0x1805-0x1805.6 (0.6)
0x1800|               00                              |     .          |          visibility: "default" (0) 0x1805.6-0x1806 (0.2)
0x1800|                  13 00                        |      ..        |          shndx: 19 0x1806-0x1808 (2)
      |                                               |                |        [20]{}: symbol 0x1808-0x1818 (16)
0x1800|                        00 00 00 00            |        ....    |          name: "" (0) 0x1808-0x180c (4)
0x1800|                                    00 00 00 00|            ....|          value: 0 0x180c-0x1810 (4)
0x1810|00 00 00 00                                    |....            |          size: 0 0x1810-0x1814 (4)
0x1810|            03                                 |    .           |          bind: "local" (0) 0x1814-0x1814.4 (0.4)
0x1810|            03                                 |    .           |          type: "section" (3) 0x1814.4-0x1815 (0.4)
0x1810|               00                              |     .          |          other_unused: 0 0x1815-0x1815.6 (0.6)
0x1810|               00                              |     .          |          visibility: "default" (0) 0x1815.6-0x1816 (0.2)
0x1810|                  14 00                        |      ..        |          shndx: 20 0x1816-0x1818 (2)
      |                                               |                |        [21]{}: symbol 0x1818-0x1828 (16)
0x1810|                        00 00 00 00            |        ....    |          name: "" (0) 0x1818-0x181c (4)
0x1810|                                    00 00 00 00|            ....|          value: 0 0x181c-0x1820 (4)
0x1820|00 00 00 00                                    |....            |          size: 0 0x1820-0x1824 (4)
0x1820|            03                                 |    .           |          bind: "local" (0) 0x1824-0x1824.4 (0.4)
0x1820|            03                                 |    .           |          type: "section" (3) 0x1824.4-0x1825 (0.4)
0x1820|               00                              |     .          |          other_unused: 0 0x1825-0x1825.6 (0.6)
0x1820|               00                              |     .          |          visibility: "default" (0) 0x1825.6-0x1826 (0.2)
0x1820|                  15 00                        |      ..        |          shndx: 21 0x1826-0x1828 (2)
      |                                               |                |        [22]{}: symbol 0x1828-0x1838 (16)
0x1820|                        00 00 00 00            |        ....    |          name: "" (0) 0x1828-0x182c (4)
0x1820|                                    00 00 00 00|            ....|          value: 0 0x182c-0x1830 (4)
0x1830|00 00 00 00                                    |....            |          size: 0 0x1830-0x1834 (4)
0x1830|            03                                 |    .           |          bind: "local" (0) 0x1834-0x1834.4 (0.4)
0x1830|            03                                 |    .           |          type: "section" (3) 0x1834.4-0x1835 (0.4)
0x1830|               00                              |     .          |          other_unused: 0 0x1835-0x1835.6 (0.6)
0x1830|               00                              |     .          |          visibility: "default" (0) 0x1835.6-0x1836 (0.2)
0x1830|                  16 00                        |      ..        |          shndx: 22 0x1836-0x1838 (2)
      |                                               |                |        [23]{}: symbol 0x1838-0x1848 (16)
0x1830|                        00 00 00 00            |        ....    |          name: "" (0) 0x1838-0x183c (4)
0x1830|                                    00 00 00 00|            ....|          value: 0 0x183c-0x1840 (4)
0x1840|00 00 00 00                                    |....            |          size: 0 0x1840-0x1844 (4)
0x1840|            03                                 |    .           |          bind: "local" (0) 0x1844-0x1844.4 (0.4)
0x1840|            03                                 |    .           |          type: "section" (3) 0x1844.4-0x1845 (0.4)
0x1840|               00                              |     .          |          other_unused: 0 0x1845-0x1845.6 (0.6)
0x1840|               00                              |     .          |          visibility: "default" (0) 0x1845.6-0x1846 (0.2)
0x1840|                  17 00                        |      ..        |          shndx: 23 0x1846-0x1848 (2)
      |                                               |                |        [24]{}: symbol 0x1848-0x1858 (16)
0x1840|                        00 00 00 00            |        ....    |          name: "" (0) 0x1848-0x184c (4)
0x1840|                                    00 00 00 00|            ....|          value: 0 0x184c-0x1850 (4)
0x1850|00 00 00 00                                    |....            |          size: 0 0x1850-0x1854 (4)
0x1850|            03                                 |    .           |          bind: "local" (0) 0x1854-0x1854.4 (0.4)
0x1850|            03                                 |    .           |          type: "section" (3) 0x1854.4-0x1855 (0.4)
0x1850|               00                              |     .          |          other_unused: 0 0x1855-0x1855.6 (0.6)
0x1850|               00                              |     .          |          visibility: "default" (0) 0x1855.6-0x1856 (0.2)
0x1850|                  18 00                        |      ..        |          shndx: 24 0x1856-0x1858 (2)
      |                                               |                |        [25]{}: symbol 0x1858-0x1868 (16)
0x1850|                        00 00 00 00            |        ....    |          name: "" (0) 0x1858-0x185c (4)
0x1850|                                    00 00 00 00|            ....|          value: 0 0x185c-0x1860 (4)
0x1860|00 00 00 00                                    |....            |          size: 0 0x1860-0x1864 (4)
0x1860|            03                                 |    .           |          bind: "local" (0) 0x1864-0x1864.4 (0.4)
0x1860|            03                                 |    .           |          type: "section" (3) 0x1864.4-0x1865 (0.4)
0x1860|               00                              |     .          |          other_unused: 0 0x1865-0x1865.6 (0.6)
0x1860|               00                              |     .          |          visibility: "default" (0) 0x1865.6-0x1866 (0.2)
0x1860|                  19 00                        |      ..        |          shndx: 25 0x1866-0x1868 (2)
      |                                               |                |        [26]{}: symbol 0x1868-0x1878 (16)
0x1860|                        00 00 00 00            |        ....    |          name: "" (0) 0x1868-0x186c (4)
0x1860|                                    00 00 00 00|            ....|          value: 0 0x186c-0x1870 (4)
0x1870|00 00 00 00                                    |....            |          size: 0 0x1870-0x1874 (4)
0x1870|            03                                 |    .           |          bind: "local" (0) 0x1874-0x1874.4 (0.4)
0x1870|            03                                 |    .           |          type: "section" (3) 0x1874.4-0x1875 (0.4)
0x1870|               00                              |     .          |          other_unused: 0 0x1875-0x1875.6 (0.6)
0x1870|               00                              |     .          |          visibility: "default" (0) 0x1875.6-0x1876 (0.2)
0x1870|                  1a 00                        |      ..        |          shndx: 26 0x1876-0x1878 (2)
      |                                               |                |        [27]{}: symbol 0x1878-0x1888 (16)
0x1870|                        00 00 00 00            |        ....    |          name: "" (0) 0x1878-0x187c (4)
0x1870|                                    00 00 00 00|            ....|          value: 0 0x187c-0x1880 (4)
0x1880|00 00 00 00                                    |....            |          size: 0 0x1880-0x1884 (4)
0x1880|            03                                 |    .           |          bind: "local" (0) 0x1884-0x1884.4 (0.4)
0x1880|            03                                 |    .           |          type: "section" (3) 0x1884.4-0x1885 (0.4)
0x1880|               00                              |     .          |          other_unused: 0 0x1885-0x1885.6 (0.6)
0x1880|               00                              |     .          |          visibility: "default" (0) 0x1885.6-0x1886 (0.2)
0x1880|                  1b 00                        |      ..        |          shndx: 27 0x1886-0x1888 (2)
      |                                               |                |        [28]{}: symbol 0x1888-0x1898 (16)
0x1880|                        00 00 00 00            |        ....    |          name: "" (0) 0x1888-0x188c (4)
0x1880|                                    00 00 00 00|            ....|          value: 0 0x188c-0x1890 (4)
0x1890|00 00 00 00                                    |....            |          size: 0 0x1890-0x1894 (4)
0x1890|            03                                 |    .           |          bind: "local" (0) 0x1894-0x1894.4 (0.4)
0x1890|            03                                 |    .           |          type: "section" (3) 0x1894.4-0x1895 (0.4)
0x1890|               00                              |     .          |          other_unused: 0 0x1895-0x1895.6 (0.6)
0x1890|               00                              |     .          |          visibility: "default" (0) 0x1895.6-0x1896 (0.2)
0x1890|                  1c 00                        |      ..        |          shndx: 28 0x1896-0x1898 (2)
      |                                               |                |        [29]{}: symbol 0x1898-0x18a8 (16)
0x1890|                        01 00 00 00            |        ....    |          name: "Scrt1.c" (1) 0x1898-0x189c (4)
0x1890|                                    00 00 00 00|            ....|          value: 0 0x189c-0x18a0 (4)
0x18a0|00 00 00 00                                    |....            |          size: 0 0x18a0-0x18a4 (4)
0x18a0|            04                                 |    .           |          bind: "local" (0) 0x18a4-0x18a4.4 (0.4)
0x18a0|            04                                 |    .           |          type: "file" (4) 0x18a4.4-0x18a5 (0.4)
0x18a0|               00                              |     .          |          other_unused: 0 0x18a5-0x18a5.6 (0.6)
0x18a0|               00                              |     .          |          visibility: "default" (0) 0x18a5.6-0x18a6 (0.2)
0x18a0|                  f1 ff                        |      ..        |          shndx: 65521 0x18a6-0x18a8 (2)
      |                                               |                |        [30]{}: symbol 0x18a8-0x18b8 (16)
0x18a0|                        09 00 00 00            |        ....    |          name: "$a" (9) 0x18a8-0x18ac (4)
0x18a0|                                    d4 03 00 00|            ....|          value: 980 0x18ac-0x18b0 (4)
0x18b0|00 00 00 00                                    |....            |          size: 0 0x18b0-0x18b4 (4)
0x18b0|            00                                 |    .           |          bind: "local" (0) 0x18b4-0x18b4.4 (0.4)
0x18b0|            00                                 |    .           |          type: "notype" (0) 0x18b4.4-0x18b5 (0.4)
0x18b0|               00                              |     .          |          other_unused: 0 0x18b5-0x18b5.6 (0.6)
0x18b0|               00                              |     .          |          visibility: "default" (0) 0x18b5.6-0x18b6 (0.2)
0x18b0|                  09 00                        |      ..        |          shndx: 9 0x18b6-0x18b8 (2)
      |                                               |                |        [31]{}: symbol 0x18b8-0x18c8 (16)
0x18b0|                        0c 00 00 00            |        ....    |          name: "$d" (12) 0x18b8-0x18bc (4)
0x18b0|                                    f4 03 00 00|            ....|          value: 1012 0x18bc-0x18c0 (4)
0x18c0|00 00 00 00                                    |....            |          size: 0 0x18c0-0x18c4 (4)
0x18c0|            00                                 |    .           |          bind: "local" (0) 0x18c4-0x18c4.4 (0.4)
0x18c0|            00                                 |    .           |          type: "notype" (0) 0x18c4.4-0x18c5 (0.4)
0x18c0|               00                              |     .          |          other_unused: 0 0x18c5-0x18c5.6 (0.6)
0x18c0|               00                              |     .          |          visibility: "default" (0) 0x18c5.6-0x18c6 (0.2)
0x18c0|                  09 00                        |      ..        |          shndx: 9 0x18c6-0x18c8 (2)
      |                                               |                |        [32]{}: symbol 0x18c8-0x18d8 (16)
0x18c0|                        09 00 00 00            |        ....    |          name: "$a" (9) 0x18c8-0x18cc (4)
0x18c0|                                    f8 03 00 00|            ....|          value: 1016 0x18cc-0x18d0 (4)
0x18d0|00 00 00 00                                    |....            |          size: 0 0x18d0-0x18d4 (4)
0x18d0|            00                                 |    .           |          bind: "local" (0) 0x18d4-0x18d4.4 (0.4)
0x18d0|            00                                 |    .           |          type: "notype" (0) 0x18d4.4-0x18d5 (0.4)
0x18d0|               00                              |     .          |          other_unused: 0 0x18d5-0x18d5.6 (0.6)
0x18d0|               00                              |     .          |          visibility: "default" (0) 0x18d5.6-0x18d6 (0.2)
0x18d0|                  09 00                        |      ..        |          shndx: 9 0x18d6-0x18d8 (2)
      |                                               |                |        [33]{}: symbol 0x18d8-0x18e8 (16)
0x18d0|                        0c 00 00 00            |        ....    |          name: "$d" (12) 0x18d8-0x18dc (4)
0x18d0|                                    4c 04 00 00|            L...|          value: 1100 0x18dc-0x18e0 (4)
0x18e0|00 00 00 00                                    |....            |          size: 0 0x18e0-0x18e4 (4)
0x18e0|            00                                 |    .           |          bind: "local" (0) 0x18e4-0x18e4.4 (0.4)
0x18e0|            00                                 |    .           |          type: "notype" (0) 0x18e4.4-0x18e5 (0.4)
0x18e0|               00                              |     .          |          other_unused: 0 0x18e5-0x18e5.6 (0.6)
0x18e0|               00                              |     .          |          visibility: "default" (0) 0x18e5.6-0x18e6 (0.2)
0x18e0|                  09 00                        |      ..        |          shndx: 9 0x18e6-0x18e8 (2)
      |                                               |                |        [34]{}: symbol 0x18e8-0x18f8 (16)
0x18e0|                        0f 00 00 00            |        ....    |          name: "crti.o" (15) 0x18e8-0x18ec (4)
0x18e0|                                    00 00 00 00|            ....|          value: 0 0x18ec-0x18f0 (4)
0x18f0|00 00 00 00                                    |....            |          size: 0 0x18f0-0x18f4 (4)
0x18f0|            04                                 |    .           |          bind: "local" (0) 0x18f4-0x18f4.4 (0.4)
0x18f0|            04                                 |    .           |          type: "file" (4) 0x18f4.4-0x18f5 (0.4)
0x18f0|               00                              |     .          |          other_unused: 0 0x18f5-0x18f5.6 (0.6)
0x18f0|               00                              |     .          |          visibility: "default" (0) 0x18f5.6-0x18f6 (0.2)
0x18f0|                  f1 ff                        |      ..        |          shndx: 65521 0x18f6-0x18f8 (2)
      |                                               |                |        [35]{}: symbol 0x18f8-0x1908 (16)
0x18f0|                        09 00 00 00            |        ....    |          name: "$a" (9) 0x18f8-0x18fc (4)
0x18f0|                                    6c 03 00 00|            l...|          value: 876 0x18fc-0x1900 (4)
0x1900|00 00 00 00                                    |....            |          size: 0 0x1900-0x1904 (4)
0x1900|            00                                 |    .           |          bind: "local" (0) 0x1904-0x1904.4 (0.4)
0x1900|            00                                 |    .           |          type: "notype" (0) 0x1904.4-0x1905 (0.4)
0x1900|               00                              |     .          |          other_unused: 0 0x1905-0x1905.6 (0.6)
0x1900|               00                              |     .          |          visibility: "default" (0) 0x1905.6-0x1906 (0.2)
0x1900|                  07 00                        |      ..        |          shndx: 7 0x1906-0x1908 (2)
      |                                               |                |        [36]{}: symbol 0x1908-0x1918 (16)
0x1900|                        09 00 00 00            |        ....    |          name: "$a" (9) 0x1908-0x190c (4)
0x1900|                                    08 06 00 00|            ....|          value: 1544 0x190c-0x1910 (4)
0x1910|00 00 00 00                                    |....            |          size: 0 0x1910-0x1914 (4)
0x1910|            00                                 |    .           |          bind: "local" (0) 0x1914-0x1914.4 (0.4)
0x1910|            00                                 |    .           |          type: "notype" (0) 0x1914.4-0x1915 (0.4)
0x1910|               00                              |     .          |          other_unused: 0 0x1915-0x1915.6 (0.6)
0x1910|               00                              |     .          |          visibility: "default" (0) 0x1915.6-0x1916 (0.2)
0x1910|                  0a 00                        |      ..        |          shndx: 10 0x1916-0x1918 (2)
      |                                               |                |        [37]{}: symbol 0x1918-0x1928 (16)
0x1910|                        16 00 00 00            |        ....    |          name: "crtn.o" (22) 0x1918-0x191c (4)
0x1910|                                    00 00 00 00|            ....|          value: 0 0x191c-0x1920 (4)
0x1920|00 00 00 00                                    |....            |          size: 0 0x1920-0x1924 (4)
0x1920|            04                                 |    .           |          bind: "local" (0) 0x1924-0x1924.4 (0.4)
0x1920|            04                                 |    .           |          type: "file" (4) 0x1924.4-0x1925 (0.4)
0x1920|               00                              |     .          |          other_unused: 0 0x1925-0x1925.6 (0.6)
0x1920|               00                              |     .          |          visibility: "default" (0) 0x1925.6-0x1926 (0.2)
0x1920|                  f1 ff                        |      ..        |          shndx: 65521 0x1926-0x1928 (2)
      |                                               |                |        [38]{}: symbol 0x1928-0x1938 (16)
0x1920|                        09 00 00 00            |        ....    |          name: "$a" (9) 0x1928-0x192c (4)
0x1920|                                    70 03 00 00|            p...|          value: 880 0x192c-0x1930 (4)
0x1930|00 00 00 00                                    |....            |          size: 0 0x1930-0x1934 (4)
0x1930|            00                                 |    .           |          bind: "local" (0) 0x1934-0x1934.4 (0.4)
0x1930|            00                                 |    .           |          type: "notype" (0) 0x1934.4-0x1935 (0.4)
0x1930|               00                              |     .          |          other_unused: 0 0x1935-0x1935.6 (0.6)
0x1930|               00                              |     .          |          visibility: "default" (0) 0x1935.6-0x1936 (0.2)
0x1930|                  07 00                        |      ..        |          shndx: 7 0x1936-0x1938 (2)
      |                                               |                |        [39]{}: symbol 0x1938-0x1948 (16)
0x1930|                        09 00 00 00            |        ....    |          name: "$a" (9) 0x1938-0x193c (4)
0x1930|                                    0c 06 00 00|            ....|          value: 1548 0x193c-0x1940 (4)
0x1940|00 00 00 00                                    |....            |          size: 0 0x1940-0x1944 (4)
0x1940|            00                                 |    .           |          bind: "local" (0) 0x1944-0x1944.4 (0.4)
0x1940|            00                                 |    .           |          type: "notype" (0) 0x1944.4-0x1945 (0.4)
0x1940|               00                              |     .          |          other_unused: 0 0x1945-0x1945.6 (0.6)
0x1940|               00                              |     .          |          visibility: "default" (0) 0x1945.6-0x1946 (0.2)
0x1940|                  0a 00                        |      ..        |          shndx: 10 0x1946-0x1948 (2)
      |                                               |                |        [40]{}: symbol 0x1948-0x1958 (16)
0x1940|                        1d 00 00 00            |        ....    |          name: "crtstuff.c" (29) 0x1948-0x194c (4)
0x1940|                                    00 00 00 00|            ....|          value: 0 0x194c-0x1950 (4)
0x1950|00 00 00 00                                    |....            |          size: 0 0x1950-0x1954 (4)
0x1950|            04                                 |    .           |          bind: "local" (0) 0x1954-0x1954.4 (0.4)
0x1950|            04                                 |    .           |          type: "file" (4) 0x1954.4-0x1955 (0.4)
0x1950|               00                              |     .          |          other_unused: 0 0x1955-0x1955.6 (0.6)
0x1950|               00                              |     .          |          visibility: "default" (0) 0x1955.6-0x1956 (0.2)
0x1950|                  f1 ff                        |      ..        |          shndx: 65521 0x1956-0x1958 (2)
      |                                               |                |        [41]{}: symbol 0x1958-0x1968 (16)
0x1950|                        0c 00 00 00            |        ....    |          name: "$d" (12) 0x1958-0x195c (4)
0x1950|                                    14 06 00 00|            ....|          value: 1556 0x195c-0x1960 (4)
0x1960|00 00 00 00                                    |....            |          size: 0 0x1960-0x1964 (4)
0x1960|            00                                 |    .           |          bind: "local" (0) 0x1964-0x1964.4 (0.4)
0x1960|            00                                 |    .           |          type: "notype" (0) 0x1964.4-0x1965 (0.4)
0x1960|               00                              |     .          |          other_unused: 0 0x1965-0x1965.6 (0.6)
0x1960|               00                              |     .          |          visibility: "default" (0) 0x1965.6-0x1966 (0.2)
0x1960|                  0b 00                        |      ..        |          shndx: 11 0x1966-0x1968 (2)
      |                                               |                |        [42]{}: symbol 0x1968-0x1978 (16)
0x1960|                        28 00 00 00            |        (...    |          name: "all_implied_fbits" (40) 0x1968-0x196c (4)
0x1960|                                    14 06 00 00|            ....|          value: 1556 0x196c-0x1970 (4)
0x1970|00 00 00 00                                    |....            |          size: 0 0x1970-0x1974 (4)
0x1970|            01                                 |    .           |          bind: "local" (0) 0x1974-0x1974.4 (0.4)
0x1970|            01                                 |    .           |          type: "object" (1) 0x1974.4-0x1975 (0.4)
0x1970|               00                              |     .          |          other_unused: 0 0x1975-0x1975.6 (0.6)
0x1970|               00                              |     .          |          visibility: "default" (0) 0x1975.6-0x1976 (0.2)
0x1970|                  0b 00                        |      ..        |          shndx: 11 0x1976-0x1978 (2)
      |                                               |                |        [43]{}: symbol 0x1978-0x1988 (16)
0x1970|                        00 00 00 00            |        ....    |          name: "" (0) 0x1978-0x197c (4)
0x1970|                                    38 07 00 00|            8...|          value: 1848 0x197c-0x1980 (4)
0x1980|00 00 00 00                                    |....            |          size: 0 0x1980-0x1984 (4)
0x1980|            01                                 |    .           |          bind: "local" (0) 0x1984-0x1984.4 (0.4)
0x1980|            01                                 |    .           |          type: "object" (1) 0x1984.4-0x1985 (0.4)
0x1980|               00                              |     .          |          other_unused: 0 0x1985-0x1985.6 (0.6)
0x1980|               00                              |     .          |          visibility: "default" (0) 0x1985.6-0x1986 (0.2)
0x1980|                  0c 00                        |      ..        |          shndx: 12 0x1986-0x1988 (2)
      |                                               |                |        [44]{}: symbol 0x1988-0x1998 (16)
0x1980|                        09 00 00 00            |        ....    |          name: "$a" (9) 0x1988-0x198c (4)
0x1980|                                    5c 04 00 00|            \...|          value: 1116 0x198c-0x1990 (4)
0x1990|00 00 00 00                                    |....            |          size: 0 0x1990-0x1994 (4)
0x1990|            00                                 |    .           |          bind: "local" (0) 0x1994-0x1994.4 (0.4)
0x1990|            00                                 |    .           |          type: "notype" (0) 0x1994.4-0x1995 (0.4)
0x1990|               00                              |     .          |          other_unused: 0 0x1995-0x1995.6 (0.6)
0x1990|               00                              |     .          |          visibility: "default" (0) 0x1995.6-0x1996 (0.2)
0x1990|                  09 00                        |      ..        |          shndx: 9 0x1996-0x1998 (2)
      |                                               |                |        [45]{}: symbol 0x1998-0x19a8 (16)
0x1990|                        3a 00 00 00            |        :...    |          name: "deregister_tm_clones" (58) 0x1998-0x199c (4)
0x1990|                                    5c 04 00 00|            \...|          value: 1116 0x199c-0x19a0 (4)
0x19a0|00 00 00 00                                    |....            |          size: 0 0x19a0-0x19a4 (4)
0x19a0|            02                                 |    .           |          bind: "local" (0) 0x19a4-0x19a4.4 (0.4)
0x19a0|            02                                 |    .           |          type: "func" (2) 0x19a4.4-0x19a5 (0.4)
0x19a0|               00                              |     .          |          other_unused: 0 0x19a5-0x19a5.6 (0.6)
0x19a0|               00                              |     .          |          visibility: "default" (0) 0x19a5.6-0x19a6 (0.2)
0x19a0|                  09 00                        |      ..        |          shndx: 9 0x19a6-0x19a8 (2)
      |                                               |                |        [46]{}: symbol 0x19a8-0x19b8 (16)
0x19a0|                        0c 00 00 00            |        ....    |          name: "$d" (12) 0x19a8-0x19ac (4)
0x19a0|                                    90 04 00 00|            ....|          value: 1168 0x19ac-0x19b0 (4)
0x19b0|00 00 00 00                                    |....            |          size: 0 0x19b0-0x19b4 (4)
0x19b0|            00                                 |    .           |          bind: "local" (0) 0x19b4-0x19b4.4 (0.4)
0x19b0|            00                                 |    .           |          type: "notype" (0) 0x19b4.4-0x19b5 (0.4)
0x19b0|               00                              |     .          |          other_unused: 0 0x19b5-0x19b5.6 (0.6)
0x19b0|               00                              |     .          |          visibility: "default" (0) 0x19b5.6-0x19b6 (0.2)
0x19b0|                  09 00                        |      ..        |          shndx: 9 0x19b6-0x19b8 (2)
      |                                               |                |        [47]{}: symbol 0x19b8-0x19c8 (16)
0x19b0|                        09 00 00 00            |        ....    |          name: "$a" (9) 0x19b8-0x19bc (4)
0x19b0|                                    a0 04 00 00|            ....|          value: 1184 0x19bc-0x19c0 (4)
0x19c0|00 00 00 00                                    |....            |          size: 0 0x19c0-0x19c4 (4)
0x19c0|            00                                 |    .           |          bind: "local" (0) 0x19c4-0x19c4.4 (0.4)
0x19c0|            00                                 |    .           |          type: "notype" (0) 0x19c4.4-0x19c5 (0.4)
0x19c0|               00                              |     .          |          other_unused: 0 0x19c5-0x19c5.6 (0.6)
0x19c0|               00                              |     .          |          visibility: "default" (0) 0x19c5.6-0x19c6 (0.2)
0x19c0|                  09 00                        |      ..        |          shndx: 9 0x19c6-0x19c8 (2)
      |                                               |                |        [48]{}: symbol 0x19c8-0x19d8 (16)
0x19c0|                        3c 00 00 00            |        <...    |          name: "register_tm_clones" (60) 0x19c8-0x19cc (4)
0x19c0|                                    a0 04 00 00|            ....|          value: 1184 0x19cc-0x19d0 (4)
0x19d0|00 00 00 00                                    |....            |          size: 0 0x19d0-0x19d4 (4)
0x19d0|            02                                 |    .           |          bind: "local" (0) 0x19d4-0x19d4.4 (0.4)
0x19d0|            02                                 |    .           |          type: "func" (2) 0x19d4.4-0x19d5 (0.4)
0x19d0|               00                              |     .          |          other_unused: 0 0x19d5-0x19d5.6 (0.6)
0x19d0|               00                              |     .          |          visibility: "default" (0) 0x19d5.6-0x19d6 (0.2)
0x19d0|                  09 00                        |      ..        |          shndx: 9 0x19d6-0x19d8 (2)
      |                                               |                |        [49]{}: symbol 0x19d8-0x19e8 (16)
0x19d0|                        0c 00 00 00            |        ....    |          name: "$d" (12) 0x19d8-0x19dc (4)
0x19d0|                                    e0 04 00 00|            ....|          value: 1248 0x19dc-0x19e0 (4)
0x19e0|00 00 00 00                                    |....            |          size: 0 0x19e0-0x19e4 (4)
0x19e0|            00                                 |    .           |          bind: "local" (0) 0x19e4-0x19e4.4 (0.4)
0x19e0|            00                                 |    .           |          type: "notype" (0) 0x19e4.4-0x19e5 (0.4)
0x19e0|               00                              |     .          |          other_unused: 0 0x19e5-0x19e5.6 (0.6)
0x19e0|               00                              |     .          |          visibility: "default" (0) 0x19e5.6-0x19e6 (0.2)
0x19e0|                  09 00                        |      ..        |          shndx: 9 0x19e6-0x19e8 (2)
      |                                               |                |        [50]{}: symbol 0x19e8-0x19f8 (16)
0x19e0|                        0c 00 00 00            |        ....    |          name: "$d" (12) 0x19e8-0x19ec (4)
0x19e0|                                    00 10 01 00|            ....|          value: 69632 0x19ec-0x19f0 (4)
0x19f0|00 00 00 00                                    |....            |          size: 0 0x19f0-0x19f4 (4)
0x19f0|            00                                 |    .           |          bind: "local" (0) 0x19f4-0x19f4.4 (0.4)
0x19f0|            00                                 |    .           |          type: "notype" (0) 0x19f4.4-0x19f5 (0.4)
0x19f0|               00                              |     .          |          other_unused: 0 0x19f5-0x19f5.6 (0.6)
0x19f0|               00                              |     .          |          visibility: "default" (0) 0x19f5.6-0x19f6 (0.2)
0x19f0|                  11 00                        |      ..        |          shndx: 17 0x19f6-0x19f8 (2)
      |                                               |                |        [51]{}: symbol 0x19f8-0x1a08 (16)
0x19f0|                        09 00 00 00            |        ....    |          name: "$a" (9) 0x19f8-0x19fc (4)
0x19f0|                                    f0 04 00 00|            ....|          value: 1264 0x19fc-0x1a00 (4)
0x1a00|00 00 00 00                                    |....            |          size: 0 0x1a00-0x1a04 (4)
0x1a00|            00                                 |    .           |          bind: "local" (0) 0x1a04-0x1a04.4 (0.4)
0x1a00|            00                                 |    .           |          type: "notype" (0) 0x1a04.4-0x1a05 (0.4)
0x1a00|               00                              |     .          |          other_unused: 0 0x1a05-0x1a05.6 (0.6)
0x1a00|               00                              |     .          |          visibility: "default" (0) 0x1a05.6-0x1a06 (0.2)
0x1a00|                  09 00                        |      ..        |          shndx: 9 0x1a06-0x1a08 (2)
      |                                               |                |        [52]{}: symbol 0x1a08-0x1a18 (16)
0x1a00|                        4f 00 00 00            |        O...    |          name: "__do_global_dtors_aux" (79) 0x1a08-0x1a0c (4)
0x1a00|                                    f0 04 00 00|            ....|          value: 1264 0x1a0c-0x1a10 (4)
0x1a10|00 00 00 00                                    |....            |          size: 0 0x1a10-0x1a14 (4)
0x1a10|            02                                 |    .           |          bind: "local" (0) 0x1a14-0x1a14.4 (0.4)
0x1a10|            02                                 |    .           |          type: "func" (2) 0x1a14.4-0x1a15 (0.4)
0x1a10|               00                              |     .          |          other_unused: 0 0x1a15-0x1a15.6 (0.6)
0x1a10|               00                              |     .          |          visibility: "default" (0) 0x1a15.6-0x1a16 (0.2)
0x1a10|                  09 00                        |      ..        |          shndx: 9 0x1a16-0x1a18 (2)
      |                                               |                |        [53]{}: symbol 0x1a18-0x1a28 (16)
0x1a10|                        0c 00 00 00            |        ....    |          name: "$d" (12) 0x1a18-0x1a1c (4)
0x1a10|                                    60 05 00 00|            `...|          value: 1376 0x1a1c-0x1a20 (4)
0x1a20|00 00 00 00                                    |....            |          size: 0 0x1a20-0x1a24 (4)
0x1a20|            00                                 |    .           |          bind: "local" (0) 0x1a24-0x1a24.4 (0.4)
0x1a20|            00                                 |    .           |          type: "notype" (0) 0x1a24.4-0x1a25 (0.4)
0x1a20|               00                              |     .          |          other_unused: 0 0x1a25-0x1a25.6 (0.6)
0x1a20|               00                              |     .          |          visibility: "default" (0) 0x1a25.6-0x1a26 (0.2)
0x1a20|                  09 00                        |      ..        |          shndx: 9 0x1a26-0x1a28 (2)
      |                                               |                |        [54]{}: symbol 0x1a28-0x1a38 (16)
0x1a20|                        65 00 00 00            |        e...    |          name: "completed.1" (101) 0x1a28-0x1a2c (4)
0x1a20|                                    04 10 01 00|            ....|          value: 69636 0x1a2c-0x1a30 (4)
0x1a30|01 00 00 00                                    |....            |          size: 1 0x1a30-0x1a34 (4)
0x1a30|            01                                 |    .           |          bind: "local" (0) 0x1a34-0x1a34.4 (0.4)
0x1a30|            01                                 |    .           |          type: "object" (1) 0x1a34.4-0x1a35 (0.4)
0x1a30|               00                              |     .          |          other_unused: 0 0x1a35-0x1a35.6 (0.6)
0x1a30|               00                              |     .          |          visibility: "default" (0) 0x1a35.6-0x1a36 (0.2)
0x1a30|                  12 00                        |      ..        |          shndx: 18 0x1a36-0x1a38 (2)
      |                                               |                |        [55]{}: symbol 0x1a38-0x1a48 (16)
0x1a30|                        0c 00 00 00            |        ....    |          name: "$d" (12) 0x1a38-0x1a3c (4)
0x1a30|                                    d0 0e 01 00|            ....|          value: 69328 0x1a3c-0x1a40 (4)
0x1a40|00 00 00 00                                    |....            |          size: 0 0x1a40-0x1a44 (4)
0x1a40|            00                                 |    .           |          bind: "local" (0) 0x1a44-0x1a44.4 (0.4)
0x1a40|            00                                 |    .           |          type: "notype" (0) 0x1a44.4-0x1a45 (0.4)
0x1a40|               00                              |     .          |          other_unused: 0 0x1a45-0x1a45.6 (0.6)
0x1a40|               00                              |     .          |          visibility: "default" (0) 0x1a45.6-0x1a46 (0.2)
0x1a40|                  0e 00                        |      ..        |          shndx: 14 0x1a46-0x1a48 (2)
      |                                               |                |        [56]{}: symbol 0x1a48-0x1a58 (16)
0x1a40|                        71 00 00 00            |        q...    |          name: "__do_global_dtors_aux_fini_array_entry" (113) 0x1a48-0x1a4c (4)
0x1a40|                                    d0 0e 01 00|            ....|          value: 69328 0x1a4c-0x1a50 (4)
0x1a50|00 00 00 00                                    |....            |          size: 0 0x1a50-0x1a54 (4)
0x1a50|            01                                 |    .           |          bind: "local" (0) 0x1a54-0x1a54.4 (0.4)
0x1a50|            01                                 |    .           |          type: "object" (1) 0x1a54.4-0x1a55 (0.4)
0x1a50|               00                              |     .          |          other_unused: 0 0x1a55-0x1a55.6 (0.6)
0x1a50|               00                              |     .          |          visibility: "default" (0) 0x1a55.6-0x1a56 (0.2)
0x1a50|                  0e 00                        |      ..        |          shndx: 14 0x1a56-0x1a58 (2)
      |                                               |                |        [57]{}: symbol 0x1a58-0x1a68 (16)
0x1a50|                        09 00 00 00            |        ....    |          name: "$a" (9) 0x1a58-0x1a5c (4)
0x1a50|                                    7c 05 00 00|            |...|          value: 1404 0x1a5c-0x1a60 (4)
0x1a60|00 00 00 00                                    |....            |          size: 0 0x1a60-0x1a64 (4)
0x1a60|            00                                 |    .           |          bind: "local" (0) 0x1a64-0x1a64.4 (0.4)
0x1a60|            00                                 |    .           |          type: "notype" (0) 0x1a64.4-0x1a65 (0.4)
0x1a60|               00                              |     .          |          other_unused: 0 0x1a65-0x1a65.6 (0.6)
0x1a60|               00                              |     .          |          visibility: "default" (0) 0x1a65.6-0x1a66 (0.2)
0x1a60|                  09 00                        |      ..        |          shndx: 9 0x1a66-0x1a68 (2)
      |                                               |                |        [58]{}: symbol 0x1a68-0x1a78 (16)
0x1a60|                        98 00 00 00            |        ....    |          name: "frame_dummy" (152) 0x1a68-0x1a6c (4)
0x1a60|                                    7c 05 00 00|            |...|          value: 1404 0x1a6c-0x1a70 (4)
0x1a70|00 00 00 00                                    |....            |          size: 0 0x1a70-0x1a74 (4)
0x1a70|            02                                 |    .           |          bind: "local" (0) 0x1a74-0x1a74.4 (0.4)
0x1a70|            02                                 |    .           |          type: "func" (2) 0x1a74.4-0x1a75 (0.4)
0x1a70|               00                              |     .          |          other_unused: 0 0x1a75-0x1a75.6 (0.6)
0x1a70|               00                              |     .          |          visibility: "default" (0) 0x1a75.6-0x1a76 (0.2)
0x1a70|                  09 00                        |      ..        |          shndx: 9 0x1a76-0x1a78 (2)
      |                                               |                |        [59]{}: symbol 0x1a78-0x1a88 (16)
0x1a70|                        0c 00 00 00            |        ....    |          name: "$d" (12) 0x1a78-0x1a7c (4)
0x1a70|                                    b8 05 00 00|            ....|          value: 1464 0x1a7c-0x1a80 (4)
0x1a80|00 00 00 00                                    |....            |          size: 0 0x1a80-0x1a84 (4)
0x1a80|            00                                 |    .           |          bind: "local" (0) 0x1a84-0x1a84.4 (0.4)
0x1a80|            00                                 |    .           |          type: "notype" (0) 0x1a84.4-0x1a85 (0.4)
0x1a80|               00                              |     .          |          other_unused: 0 0x1a85-0x1a85.6 (0.6)
0x1a80|               00                              |     .          |          visibility: "default" (0) 0x1a85.6-0x1a86 (0.2)
0x1a80|                  09 00                        |      ..        |          shndx: 9 0x1a86-0x1a88 (2)
      |                                               |                |        [60]{}: symbol 0x1a88-0x1a98 (16)
0x1a80|                        a4 00 00 00            |        ....    |          name: "object.0" (164) 0x1a88-0x1a8c (4)
0x1a80|                                    08 10 01 00|            ....|          value: 69640 0x1a8c-0x1a90 (4)
0x1a90|18 00 00 00                                    |....            |          size: 24 0x1a90-0x1a94 (4)
0x1a90|            01                                 |    .           |          bind: "local" (0) 0x1a94-0x1a94.4 (0.4)
0x1a90|            01                                 |    .           |          type: "object" (1) 0x1a94.4-0x1a95 (0.4)
0x1a90|               00                              |     .          |          other_unused: 0 0x1a95-0x1a95.6 (0.6)
0x1a90|               00                              |     .          |          visibility: "default" (0) 0x1a95.6-0x1a96 (0.2)
0x1a90|                  12 00                        |      ..        |          shndx: 18 0x1a96-0x1a98 (2)
      |                                               |                |        [61]{}: symbol 0x1a98-0x1aa8 (16)
0x1a90|                        0c 00 00 00            |        ....    |          name: "$d" (12) 0x1a98-0x1a9c (4)
0x1a90|                                    cc 0e 01 00|            ....|          value: 69324 0x1a9c-0x1aa0 (4)
0x1aa0|00 00 00 00                                    |....            |          size: 0 0x1aa0-0x1aa4 (4)
0x1aa0|            00                                 |    .           |          bind: "local" (0) 0x1aa4-0x1aa4.4 (0.4)
0x1aa0|            00                                 |    .           |          type: "notype" (0) 0x1aa4.4-0x1aa5 (0.4)
0x1aa0|               00                              |     .          |          other_unused: 0 0x1aa5-0x1aa5.6 (0.6)
0x1aa0|               00                              |     .          |          visibility: "default" (0) 0x1aa5.6-0x1aa6 (0.2)
0x1aa0|                  0d 00                        |      ..        |          shndx: 13 0x1aa6-0x1aa8 (2)
      |                                               |                |        [62]{}: symbol 0x1aa8-0x1ab8 (16)
0x1aa0|                        ad 00 00 00            |        ....    |          name: "__frame_dummy_init_array_entry" (173) 0x1aa8-0x1aac (4)
0x1aa0|                                    cc 0e 01 00|            ....|          value: 69324 0x1aac-0x1ab0 (4)
0x1ab0|00 00 00 00                                    |....            |          size: 0 0x1ab0-0x1ab4 (4)
0x1ab0|            01                                 |    .           |          bind: "local" (0) 0x1ab4-0x1ab4.4 (0.4)
0x1ab0|            01                                 |    .           |          type: "object" (1) 0x1ab4.4-0x1ab5 (0.4)
0x1ab0|               00                              |     .          |          other_unused: 0 0x1ab5-0x1ab5.6 (0.6)
0x1ab0|               00                              |     .          |          visibility: "default" (0) 0x1ab5.6-0x1ab6 (0.2)
0x1ab0|                  0d 00                        |      ..        |          shndx: 13 0x1ab6-0x1ab8 (2)
      |                                               |                |        [63]{}: symbol 0x1ab8-0x1ac8 (16)
0x1ab0|                        0c 00 00 00            |        ....    |          name: "$d" (12) 0x1ab8-0x1abc (4)
0x1ab0|                                    05 10 01 00|            ....|          value: 69637 0x1abc-0x1ac0 (4)
0x1ac0|00 00 00 00                                    |....            |          size: 0 0x1ac0-0x1ac4 (4)
0x1ac0|            00                                 |    .           |          bind: "local" (0) 0x1ac4-0x1ac4.4 (0.4)
0x1ac0|            00                                 |    .           |          type: "notype" (0) 0x1ac4.4-0x1ac5 (0.4)
0x1ac0|               00                              |     .          |          other_unused: 0 0x1ac5-0x1ac5.6 (0.6)
0x1ac0|               00                              |     .          |          visibility: "default" (0) 0x1ac5.6-0x1ac6 (0.2)
0x1ac0|                  12 00                        |      ..        |          shndx: 18 0x1ac6-0x1ac8 (2)
      |                                               |                |        [64]{}: symbol 0x1ac8-0x1ad8 (16)
0x1ac0|                        cc 00 00 00            |        ....    |          name: "a.c" (204) 0x1ac8-0x1acc (4)
0x1ac0|                                    00 00 00 00|            ....|          value: 0 0x1acc-0x1ad0 (4)
0x1ad0|00 00 00 00                                    |....            |          size: 0 0x1ad0-0x1ad4 (4)
0x1ad0|            04                                 |    .           |          bind: "local" (0) 0x1ad4-0x1ad4.4 (0.4)
0x1ad0|            04                                 |    .           |          type: "file" (4) 0x1ad4.4-0x1ad5 (0.4)
0x1ad0|               00                              |     .          |          other_unused: 0 0x1ad5-0x1ad5.6 (0.6)
0x1ad0|               00                              |     .          |          visibility: "default" (0) 0x1ad5.6-0x1ad6 (0.2)
0x1ad0|                  f1 ff                        |      ..        |          shndx: 65521 0x1ad6-0x1ad8 (2)
      |                                               |                |        [65]{}: symbol 0x1ad8-0x1ae8 (16)
0x1ad0|                        0c 00 00 00            |        ....    |          name: "$d" (12) 0x1ad8-0x1adc (4)
0x1ad0|                                    a4 06 00 00|            ....|          value: 1700 0x1adc-0x1ae0 (4)
0x1ae0|00 00 00 00                                    |....            |          size: 0 0x1ae0-0x1ae4 (4)
0x1ae0|            00                                 |    .           |          bind: "local" (0) 0x1ae4-0x1ae4.4 (0.4)
0x1ae0|            00                                 |    .           |          type: "notype" (0) 0x1ae4.4-0x1ae5 (0.4)
0x1ae0|               00                              |     .          |          other_unused: 0 0x1ae5-0x1ae5.6 (0.6)
0x1ae0|               00                              |     .          |          visibility: "default" (0) 0x1ae5.6-0x1ae6 (0.2)
0x1ae0|                  0b 00                        |      ..        |          shndx: 11 0x1ae6-0x1ae8 (2)
      |                                               |                |        [66]{}: symbol 0x1ae8-0x1af8 (16)
0x1ae0|                        09 00 00 00            |        ....    |          name: "$a" (9) 0x1ae8-0x1aec (4)
0x1ae0|                                    c8 05 00 00|            ....|          value: 1480 0x1aec-0x1af0 (4)
0x1af0|00 00 00 00                                    |....            |          size: 0 0x1af0-0x1af4 (4)
0x1af0|            00                                 |    .           |          bind: "local" (0) 0x1af4-0x1af4.4 (0.4)
0x1af0|            00                                 |    .           |          type: "notype" (0) 0x1af4.4-0x1af5 (0.4)
0x1af0|               00                              |     .          |          other_unused: 0 0x1af5-0x1af5.6 (0.6)
0x1af0|               00                              |     .          |          visibility: "default" (0) 0x1af5.6-0x1af6 (0.2)
0x1af0|                  09 00                        |      ..        |          shndx: 9 0x1af6-0x1af8 (2)
      |                                               |                |        [67]{}: symbol 0x1af8-0x1b08 (16)
0x1af0|                        0c 00 00 00            |        ....    |          name: "$d" (12) 0x1af8-0x1afc (4)
0x1af0|                                    e8 05 00 00|            ....|          value: 1512 0x1afc-0x1b00 (4)
0x1b00|00 00 00 00                                    |....            |          size: 0 0x1b00-0x1b04 (4)
0x1b00|            00                                 |    .           |          bind: "local" (0) 0x1b04-0x1b04.4 (0.4)
0x1b00|            00                                 |    .           |          type: "notype" (0) 0x1b04.4-0x1b05 (0.4)
0x1b00|               00                              |     .          |          other_unused: 0 0x1b05-0x1b05.6 (0.6)
0x1b00|               00                              |     .          |          visibility: "default" (0) 0x1b05.6-0x1b06 (0.2)
0x1b00|                  09 00                        |      ..        |          shndx: 9 0x1b06-0x1b08 (2)
      |                                               |                |        [68]{}: symbol 0x1b08-0x1b18 (16)
0x1b00|                        09 00 00 00            |        ....    |          name: "$a" (9) 0x1b08-0x1b0c (4)
0x1b00|                                    ec 05 00 00|            ....|          value: 1516 0x1b0c-0x1b10 (4)
0x1b10|00 00 00 00                                    |....            |          size: 0 0x1b10-0x1b14 (4)
0x1b10|            00                                 |    .           |          bind: "local" (0) 0x1b14-0x1b14.4 (0.4)
0x1b10|            00                                 |    .           |          type: "notype" (0) 0x1b14.4-0x1b15 (0.4)
0x1b10|               00                              |     .          |          other_unused: 0 0x1b15-0x1b15.6 (0.6)
0x1b10|               00                              |     .          |          visibility: "default" (0) 0x1b15.6-0x1b16 (0.2)
0x1b10|                  09 00                        |      ..        |          shndx: 9 0x1b16-0x1b18 (2)
      |                                               |                |        [69]{}: symbol 0x1b18-0x1b28 (16)
0x1b10|                        1d 00 00 00            |        ....    |          name: "crtstuff.c" (29) 0x1b18-0x1b1c (4)
0x1b10|                                    00 00 00 00|            ....|          value: 0 0x1b1c-0x1b20 (4)
0x1b20|00 00 00 00                                    |....            |          size: 0 0x1b20-0x1b24 (4)
0x1b20|            04                                 |    .           |          bind: "local" (0) 0x1b24-0x1b24.4 (0.4)
0x1b20|            04                                 |    .           |          type: "file" (4) 0x1b24.4-0x1b25 (0.4)
0x1b20|               00                              |     .          |          other_unused: 0 0x1b25-0x1b25.6 (0.6)
0x1b20|               00                              |     .          |          visibility: "default" (0) 0x1b25.6-0x1b26 (0.2)
0x1b20|                  f1 ff                        |      ..        |          shndx: 65521 0x1b26-0x1b28 (2)
      |                                               |                |        [70]{}: symbol 0x1b28-0x1b38 (16)
0x1b20|                        0c 00 00 00            |        ....    |          name: "$d" (12) 0x1b28-0x1b2c (4)
0x1b20|                                    a8 06 00 00|            ....|          value: 1704 0x1b2c-0x1b30 (4)
0x1b30|00 00 00 00                                    |....            |          size: 0 0x1b30-0x1b34 (4)
0x1b30|            00                                 |    .           |          bind: "local" (0) 0x1b34-0x1b34.4 (0.4)
0x1b30|            00                                 |    .           |          type: "notype" (0) 0x1b34.4-0x1b35 (0.4)
0x1b30|               00                              |     .          |          other_unused: 0 0x1b35-0x1b35.6 (0.6)
0x1b30|               00                              |     .          |          visibility: "default" (0) 0x1b35.6-0x1b36 (0.2)
0x1b30|                  0b 00                        |      ..        |          shndx: 11 0x1b36-0x1b38 (2)
      |                                               |                |        [71]{}: symbol 0x1b38-0x1b48 (16)
0x1b30|                        28 00 00 00            |        (...    |          name: "all_implied_fbits" (40) 0x1b38-0x1b3c (4)
0x1b30|                                    a8 06 00 00|            ....|          value: 1704 0x1b3c-0x1b40 (4)
0x1b40|00 00 00 00                                    |....            |          size: 0 0x1b40-0x1b44 (4)
0x1b40|            01                                 |    .           |          bind: "local" (0) 0x1b44-0x1b44.4 (0.4)
0x1b40|            01                                 |    .           |          type: "object" (1) 0x1b44.4-0x1b45 (0.4)
0x1b40|               00                              |     .          |          other_unused: 0 0x1b45-0x1b45.6 (0.6)
0x1b40|               00                              |     .          |          visibility: "default" (0) 0x1b45.6-0x1b46 (0.2)
0x1b40|                  0b 00                        |      ..        |          shndx: 11 0x1b46-0x1b48 (2)
      |                                               |                |        [72]{}: symbol 0x1b48-0x1b58 (16)
0x1b40|                        0c 00 00 00            |        ....    |          name: "$d" (12) 0x1b48-0x1b4c (4)
0x1b40|                                    38 07 00 00|            8...|          value: 1848 0x1b4c-0x1b50 (4)
0x1b50|00 00 00 00                                    |....            |          size: 0 0x1b50-0x1b54 (4)
0x1b50|            00                                 |    .           |          bind: "local" (0) 0x1b54-0x1b54.4 (0.4)
0x1b50|            00                                 |    .           |          type: "notype" (0) 0x1b54.4-0x1b55 (0.4)
0x1b50|               00                              |     .          |          other_unused: 0 0x1b55-0x1b55.6 (0.6)
0x1b50|               00                              |     .          |          visibility: "default" (0) 0x1b55.6-0x1b56 (0.2)
0x1b50|                  0c 00                        |      ..        |          shndx: 12 0x1b56-0x1b58 (2)
      |                                               |                |        [73]{}: symbol 0x1b58-0x1b68 (16)
0x1b50|                        d0 00 00 00            |        ....    |          name: "__FRAME_END__" (208) 0x1b58-0x1b5c (4)
0x1b50|                                    38 07 00 00|            8...|          value: 1848 0x1b5c-0x1b60 (4)
0x1b60|00 00 00 00                                    |....            |          size: 0 0x1b60-0x1b64 (4)
0x1b60|            01                                 |    .           |          bind: "local" (0) 0x1b64-0x1b64.4 (0.4)
0x1b60|            01                                 |    .           |          type: "object" (1) 0x1b64.4-0x1b65 (0.4)
0x1b60|               00                              |     .          |          other_unused: 0 0x1b65-0x1b65.6 (0.6)
0x1b60|               00                              |     .          |          visibility: "default" (0) 0x1b65.6-0x1b66 (0.2)
0x1b60|                  0c 00                        |      ..        |          shndx: 12 0x1b66-0x1b68 (2)
      |                                               |                |        [74]{}: symbol 0x1b68-0x1b78 (16)
0x1b60|                        00 00 00 00            |        ....    |          name: "" (0) 0x1b68-0x1b6c (4)
0x1b60|                                    00 00 00 00|            ....|          value: 0 0x1b6c-0x1b70 (4)
0x1b70|00 00 00 00                                    |....            |          size: 0 0x1b70-0x1b74 (4)
0x1b70|            04                                 |    .           |          bind: "local" (0) 0x1b74-0x1b74.4 (0.4)
0x1b70|            04                                 |    .           |          type: "file" (4) 0x1b74.4-0x1b75 (0.4)
0x1b70|               00                              |     .          |          other_unused: 0 0x1b75-0x1b75.6 (0.6)
0x1b70|               00                              |     .          |          visibility: "default" (0) 0x1b75.6-0x1b76 (0.2)
0x1b70|                  f1 ff                        |      ..        |          shndx: 65521 0x1b76-0x1b78 (2)
      |                                               |                |        [75]{}: symbol 0x1b78-0x1b88 (16)
0x1b70|                        de 00 00 00            |        ....    |          name: "_DYNAMIC" (222) 0x1b78-0x1b7c (4)
0x1b70|                                    d4 0e 01 00|            ....|          value: 69332 0x1b7c-0x1b80 (4)
0x1b80|00 00 00 00                                    |....            |          size: 0 0x1b80-0x1b84 (4)
0x1b80|            01                                 |    .           |          bind: "local" (0) 0x1b84-0x1b84.4 (0.4)
0x1b80|            01                                 |    .           |          type: "object" (1) 0x1b84.4-0x1b85 (0.4)
0x1b80|               00                              |     .          |          other_unused: 0 0x1b85-0x1b85.6 (0.6)
0x1b80|               00                              |     .          |          visibility: "default" (0) 0x1b85.6-0x1b86 (0.2)
0x1b80|                  f1 ff                        |      ..        |          shndx: 65521 0x1b86-0x1b88 (2)
      |                                               |                |        [76]{}: symbol 0x1b88-0x1b98 (16)
0x1b80|                        e7 00 00 00            |        ....    |          name: "_GLOBAL_OFFSET_TABLE_" (231) 0x1b88-0x1b8c (4)
0x1b80|                                    bc 0f 01 00|            ....|          value: 69564 0x1b8c-0x1b90 (4)
0x1b90|00 00 00 00                                    |....            |          size: 0 0x1b90-0x1b94 (4)
0x1b90|            01                                 |    .           |          bind: "local" (0) 0x1b94-0x1b94.4 (0.4)
0x1b90|            01                                 |    .           |          type: "object" (1) 0x1b94.4-0x1b95 (0.4)
0x1b90|               00                              |     .          |          other_unused: 0 0x1b95-0x1b95.6 (0.6)
0x1b90|               00                              |     .          |          visibility: "default" (0) 0x1b95.6-0x1b96 (0.2)
0x1b90|                  f1 ff                        |      ..        |          shndx: 65521 0x1b96-0x1b98 (2)
      |                                               |                |        [77]{}: symbol 0x1b98-0x1ba8 (16)
0x1b90|                        09 00 00 00            |        ....    |          name: "$a" (9) 0x1b98-0x1b9c (4)
0x1b90|                                    78 03 00 00|            x...|          value: 888 0x1b9c-0x1ba0 (4)
0x1ba0|00 00 00 00                                    |....            |          size: 0 0x1ba0-0x1ba4 (4)
0x1ba0|            00                                 |    .           |          bind: "local" (0) 0x1ba4-0x1ba4.4 (0.4)
0x1ba0|            00                                 |    .           |          type: "notype" (0) 0x1ba4.4-0x1ba5 (0.4)
0x1ba0|               00                              |     .          |          other_unused: 0 0x1ba5-0x1ba5.6 (0.6)
0x1ba0|               00                              |     .          |          visibility: "default" (0) 0x1ba5.6-0x1ba6 (0.2)
0x1ba0|                  08 00                        |      ..        |          shndx: 8 0x1ba6-0x1ba8 (2)
      |                                               |                |        [78]{}: symbol 0x1ba8-0x1bb8 (16)
0x1ba0|                        0c 00 00 00            |        ....    |          name: "$d" (12) 0x1ba8-0x1bac (4)
0x1ba0|                                    88 03 00 00|            ....|          value: 904 0x1bac-0x1bb0 (4)
0x1bb0|00 00 00 00                                    |....            |          size: 0 0x1bb0-0x1bb4 (4)
0x1bb0|            00                                 |    .           |          bind: "local" (0) 0x1bb4-0x1bb4.4 (0.4)
0x1bb0|            00                                 |    .           |          type: "notype" (0) 0x1bb4.4-0x1bb5 (0.4)
0x1bb0|               00                              |     .          |          other_unused: 0 0x1bb5-0x1bb5.6 (0.6)
0x1bb0|               00                              |     .          |          visibility: "default" (0) 0x1bb5.6-0x1bb6 (0.2)
0x1bb0|                  08 00                        |      ..        |          shndx: 8 0x1bb6-0x1bb8 (2)
      |                                               |                |        [79]{}: symbol 0x1bb8-0x1bc8 (16)
0x1bb0|                        09 00 00 00            |        ....    |          name: "$a" (9) 0x1bb8-0x1bbc (4)
0x1bb0|                                    8c 03 00 00|            ....|          value: 908 0x1bbc-0x1bc0 (4)
0x1bc0|00 00 00 00                                    |....            |          size: 0 0x1bc0-0x1bc4 (4)
0x1bc0|            00                                 |    .           |          bind: "local" (0) 0x1bc4-0x1bc4.4 (0.4)
0x1bc0|            00                                 |    .           |          type: "notype" (0) 0x1bc4.4-0x1bc5 (0.4)
0x1bc0|               00                              |     .          |          other_unused: 0 0x1bc5-0x1bc5.6 (0.6)
0x1bc0|               00                              |     .          |          visibility: "default" (0) 0x1bc5.6-0x1bc6 (0.2)
0x1bc0|                  08 00                        |      ..        |          shndx: 8 0x1bc6-0x1bc8 (2)
      |                                               |                |        [80]{}: symbol 0x1bc8-0x1bd8 (16)
0x1bc0|                        75 01 00 00            |        u...    |          name: "_bss_end__" (373) 0x1bc8-0x1bcc (4)
0x1bc0|                                    20 10 01 00|             ...|          value: 69664 0x1bcc-0x1bd0 (4)
0x1bd0|00 00 00 00                                    |....            |          size: 0 0x1bd0-0x1bd4 (4)
0x1bd0|            10                                 |    .           |          bind: "global" (1) 0x1bd4-0x1bd4.4 (0.4)
0x1bd0|            10                                 |    .           |          type: "notype" (0) 0x1bd4.4-0x1bd5 (0.4)
0x1bd0|               00                              |     .          |          other_unused: 0 0x1bd5-0x1bd5.6 (0.6)
0x1bd0|               00                              |     .          |          visibility: "default" (0) 0x1bd5.6-0x1bd6 (0.2)
0x1bd0|                  12 00                        |      ..        |          shndx: 18 0x1bd6-0x1bd8 (2)
      |                                               |                |        [81]{}: symbol 0x1bd8-0x1be8 (16)
0x1bd0|                        fd 00 00 00            |        ....    |          name: "__TMC_END__" (253) 0x1bd8-0x1bdc (4)
0x1bd0|                                    04 10 01 00|            ....|          value: 69636 0x1bdc-0x1be0 (4)
0x1be0|00 00 00 00                                    |....            |          size: 0 0x1be0-0x1be4 (4)
0x1be0|            11                                 |    .           |          bind: "global" (1) 0x1be4-0x1be4.4 (0.4)
0x1be0|            11                                 |    .           |          type: "object" (1) 0x1be4.4-0x1be5 (0.4)
0x1be0|               02                              |     .          |          other_unused: 0 0x1be5-0x1be5.6 (0.6)
0x1be0|               02                              |     .          |          visibility: "hidden" (2) 0x1be5.6-0x1be6 (0.2)
0x1be0|                  11 00                        |      ..        |          shndx: 17 0x1be6-0x1be8 (2)
      |                                               |                |        [82]{}: symbol 0x1be8-0x1bf8 (16)
0x1be0|                        09 01 00 00            |        ....    |          name: "puts" (265) 0x1be8-0x1bec (4)
0x1be0|                                    00 00 00 00|            ....|          value: 0 0x1bec-0x1bf0 (4)
0x1bf0|00 00 00 00                                    |....            |          size: 0 0x1bf0-0x1bf4 (4)
0x1bf0|            12                                 |    .           |          bind: "global" (1) 0x1bf4-0x1bf4.4 (0.4)
0x1bf0|            12                                 |    .           |          type: "func" (2) 0x1bf4.4-0x1bf5 (0.4)
0x1bf0|               00                              |     .          |          other_unused: 0 0x1bf5-0x1bf5.6 (0.6)
0x1bf0|               00                              |     .          |          visibility: "default" (0) 0x1bf5.6-0x1bf6 (0.2)
0x1bf0|                  00 00                        |      ..        |          shndx: 0 0x1bf6-0x1bf8 (2)
      |                                               |                |        [83]{}: symbol 0x1bf8-0x1c08 (16)
0x1bf0|                        0e 01 00 00            |        ....    |          name: "__cxa_finalize" (270) 0x1bf8-0x1bfc (4)
0x1bf0|                                    00 00 00 00|            ....|          value: 0 0x1bfc-0x1c00 (4)
0x1c00|00 00 00 00                                    |....            |          size: 0 0x1c00-0x1c04 (4)
0x1c00|            22                                 |    "           |          bind: "weak" (2) 0x1c04-0x1c04.4 (0.4)
0x1c00|            22                                 |    "           |          type: "func" (2) 0x1c04.4-0x1c05 (0.4)
0x1c00|               00                              |     .          |          other_unused: 0 0x1c05-0x1c05.6 (0.6)
0x1c00|               00                              |     .          |          visibility: "default" (0) 0x1c05.6-0x1c06 (0.2)
0x1c00|                  00 00                        |      ..        |          shndx: 0 0x1c06-0x1c08 (2)
      |                                               |                |        [84]{}: symbol 0x1c08-0x1c18 (16)
0x1c00|                        1d 01 00 00            |        ....    |          name: "__bss_start__" (285) 0x1c08-0x1c0c (4)
0x1c00|                                    04 10 01 00|            ....|          value: 69636 0x1c0c-0x1c10 (4)
0x1c10|00 00 00 00                                    |....            |          size: 0 0x1c10-0x1c14 (4)
0x1c10|            10                                 |    .           |          bind: "global" (1) 0x1c14-0x1c14.4 (0.4)
0x1c10|            10                                 |    .           |          type: "notype" (0) 0x1c14.4-0x1c15 (0.4)
0x1c10|               00                              |     .          |          other_unused: 0 0x1c15-0x1c15.6 (0.6)
0x1c10|               00                              |     .          |          visibility: "default" (0) 0x1c15.6-0x1c16 (0.2)
0x1c10|                  12 00                        |      ..        |          shndx: 18 0x1c16-0x1c18 (2)
      |                                               |                |        [85]{}: symbol 0x1c18-0x1c28 (16)
0x1c10|                        2b 01 00 00            |        +...    |          name: "__dso_handle" (299) 0x1c18-0x1c1c (4)
0x1c10|                                    00 10 01 00|            ....|          value: 69632 0x1c1c-0x1c20 (4)
0x1c20|00 00 00 00                                    |....            |          size: 0 0x1c20-0x1c24 (4)
0x1c20|            11                                 |    .           |          bind: "global" (1) 0x1c24-0x1c24.4 (0.4)
0x1c20|            11                                 |    .           |          type: "object" (1) 0x1c24.4-0x1c25 (0.4)
0x1c20|               02                              |     .          |          other_unused: 0 0x1c25-0x1c25.6 (0.6)
0x1c20|               02                              |     .          |          visibility: "hidden" (2) 0x1c25.6-0x1c26 (0.2)
0x1c20|                  11 00                        |      ..        |          shndx: 17 0x1c26-0x1c28 (2)
      |                                               |                |        [86]{}: symbol 0x1c28-0x1c38 (16)
0x1c20|                        38 01 00 00            |        8...    |          name: "aaa" (312) 0x1c28-0x1c2c (4)
0x1c20|                                    c8 05 00 00|            ....|          value: 1480 0x1c2c-0x1c30 (4)
0x1c30|24 00 00 00                                    |$...            |          size: 36 0x1c30-0x1c34 (4)
0x1c30|            12                                 |    .           |          bind: "global" (1) 0x1c34-0x1c34.4 (0.4)
0x1c30|            12                                 |    .           |          type: "func" (2) 0x1c34.4-0x1c35 (0.4)
0x1c30|               00                              |     .          |          other_unused: 0 0x1c35-0x1c35.6 (0.6)
0x1c30|               00                              |     .          |          visibility: "default" (0) 0x1c35.6-0x1c36 (0.2)
0x1c30|                  09 00                        |      ..        |          shndx: 9 0x1c36-0x1c38 (2)
      |                                               |                |        [87]{}: symbol 0x1c38-0x1c48 (16)
0x1c30|                        3c 01 00 00            |        <...    |          name: "_init" (316) 0x1c38-0x1c3c (4)
0x1c30|                                    6c 03 00 00|            l...|          value: 876 0x1c3c-0x1c40 (4)
0x1c40|04 00 00 00                                    |....            |          size: 4 0x1c40-0x1c44 (4)
0x1c40|            12                                 |    .           |          bind: "global" (1) 0x1c44-0x1c44.4 (0.4)
0x1c40|            12                                 |    .           |          type: "func" (2) 0x1c44.4-0x1c45 (0.4)
0x1c40|               00                              |     .          |          other_unused: 0 0x1c45-0x1c45.6 (0.6)
0x1c40|               00                              |     .          |          visibility: "default" (0) 0x1c45.6-0x1c46 (0.2)
0x1c40|                  07 00                        |      ..        |          shndx: 7 0x1c46-0x1c48 (2)
      |                                               |                |        [88]{}: symbol 0x1c48-0x1c58 (16)
0x1c40|                        42 01 00 00            |        B...    |          name: "__deregister_frame_info" (322) 0x1c48-0x1c4c (4)
0x1c40|                                    00 00 00 00|            ....|          value: 0 0x1c4c-0x1c50 (4)
0x1c50|00 00 00 00                                    |....            |          size: 0 0x1c50-0x1c54 (4)
0x1c50|            20                                 |                |          bind: "weak" (2) 0x1c54-0x1c54.4 (0.4)
0x1c50|            20                                 |                |          type: "notype" (0) 0x1c54.4-0x1c55 (0.4)
0x1c50|               00                              |     .          |          other_unused: 0 0x1c55-0x1c55.6 (0.6)
0x1c50|               00                              |     .          |          visibility: "default" (0) 0x1c55.6-0x1c56 (0.2)
0x1c50|                  00 00                        |      ..        |          shndx: 0 0x1c56-0x1c58 (2)
      |                                               |                |        [89]{}: symbol 0x1c58-0x1c68 (16)
0x1c50|                        5a 01 00 00            |        Z...    |          name: "_ITM_registerTMCloneTable" (346) 0x1c58-0x1c5c (4)
0x1c50|                                    00 00 00 00|            ....|          value: 0 0x1c5c-0x1c60 (4)
0x1c60|00 00 00 00                                    |....            |          size: 0 0x1c60-0x1c64 (4)
0x1c60|            20                                 |                |          bind: "weak" (2) 0x1c64-0x1c64.4 (0.4)
0x1c60|            20                                 |                |          type: "notype" (0) 0x1c64.4-0x1c65 (0.4)
0x1c60|               00                              |     .          |          other_unused: 0 0x1c65-0x1c65.6 (0.6)
0x1c60|               00                              |     .          |          visibility: "default" (0) 0x1c65.6-0x1c66 (0.2)
0x1c60|                  00 00                        |      ..        |          shndx: 0 0x1c66-0x1c68 (2)
      |                                               |                |        [90]{}: symbol 0x1c68-0x1c78 (16)
0x1c60|                        74 01 00 00            |        t...    |          name: "__bss_end__" (372) 0x1c68-0x1c6c (4)
0x1c60|                                    20 10 01 00|             ...|          value: 69664 0x1c6c-0x1c70 (4)
0x1c70|00 00 00 00                                    |....            |          size: 0 0x1c70-0x1c74 (4)
0x1c70|            10                                 |    .           |          bind: "global" (1) 0x1c74-0x1c74.4 (0.4)
0x1c70|            10                                 |    .           |          type: "notype" (0) 0x1c74.4-0x1c75 (0.4)
0x1c70|               00                              |     .          |          other_unused: 0 0x1c75-0x1c75.6 (0.6)
0x1c70|               00                              |     .          |          visibility: "default" (0) 0x1c75.6-0x1c76 (0.2)
0x1c70|                  12 00                        |      ..        |          shndx: 18 0x1c76-0x1c78 (2)
      |                                               |                |        [91]{}: symbol 0x1c78-0x1c88 (16)
0x1c70|                        aa 01 00 00            |        ....    |          name: "_start" (426) 0x1c78-0x1c7c (4)
0x1c70|                                    d4 03 00 00|            ....|          value: 980 0x1c7c-0x1c80 (4)
0x1c80|00 00 00 00                                    |....            |          size: 0 0x1c80-0x1c84 (4)
0x1c80|            12                                 |    .           |          bind: "global" (1) 0x1c84-0x1c84.4 (0.4)
0x1c80|            12                                 |    .           |          type: "func" (2) 0x1c84.4-0x1c85 (0.4)
0x1c80|               00                              |     .          |          other_unused: 0 0x1c85-0x1c85.6 (0.6)
0x1c80|               00                              |     .          |          visibility: "default" (0) 0x1c85.6-0x1c86 (0.2)
0x1c80|                  09 00                        |      ..        |          shndx: 9 0x1c86-0x1c88 (2)
      |                                               |                |        [92]{}: symbol 0x1c88-0x1c98 (16)
0x1c80|                        80 01 00 00            |        ....    |          name: "_start_c" (384) 0x1c88-0x1c8c (4)
0x1c80|                                    f8 03 00 00|            ....|          value: 1016 0x1c8c-0x1c90 (4)
0x1c90|64 00 00 00                                    |d...            |          size: 100 0x1c90-0x1c94 (4)
0x1c90|            12                                 |    .           |          bind: "global" (1) 0x1c94-0x1c94.4 (0.4)
0x1c90|            12                                 |    .           |          type: "func" (2) 0x1c94.4-0x1c95 (0.4)
0x1c90|               00                              |     .          |          other_unused: 0 0x1c95-0x1c95.6 (0.6)
0x1c90|               00                              |     .          |          visibility: "default" (0) 0x1c95.6-0x1c96 (0.2)
0x1c90|                  09 00                        |      ..        |          shndx: 9 0x1c96-0x1c98 (2)
      |                                               |                |        [93]{}: symbol 0x1c98-0x1ca8 (16)
0x1c90|                        89 01 00 00            |        ....    |          name: "_ITM_deregisterTMCloneTable" (393) 0x1c98-0x1c9c (4)
0x1c90|                                    00 00 00 00|            ....|          value: 0 0x1c9c-0x1ca0 (4)
0x1ca0|00 00 00 00                                    |....            |          size: 0 0x1ca0-0x1ca4 (4)
0x1ca0|            20                                 |                |          bind: "weak" (2) 0x1ca4-0x1ca4.4 (0.4)
0x1ca0|            20                                 |                |          type: "notype" (0) 0x1ca4.4-0x1ca5 (0.4)
0x1ca0|               00                              |     .          |          other_unused: 0 0x1ca5-0x1ca5.6 (0.6)
0x1ca0|               00                              |     .          |          visibility: "default" (0) 0x1ca5.6-0x1ca6 (0.2)
0x1ca0|                  00 00                        |      ..        |          shndx: 0 0x1ca6-0x1ca8 (2)
      |                                               |                |        [94]{}: symbol 0x1ca8-0x1cb8 (16)
0x1ca0|                        a5 01 00 00            |        ....    |          name: "__bss_start" (421) 0x1ca8-0x1cac (4)
0x1ca0|                                    04 10 01 00|            ....|          value: 69636 0x1cac-0x1cb0 (4)
0x1cb0|00 00 00 00                                    |....            |          size: 0 0x1cb0-0x1cb4 (4)
0x1cb0|            10                                 |    .           |          bind: "global" (1) 0x1cb4-0x1cb4.4 (0.4)
0x1cb0|            10                                 |    .           |          type: "notype" (0) 0x1cb4.4-0x1cb5 (0.4)
0x1cb0|               00                              |     .          |          other_unused: 0 0x1cb5-0x1cb5.6 (0.6)
0x1cb0|               00                              |     .          |          visibility: "default" (0) 0x1cb5.6-0x1cb6 (0.2)
0x1cb0|                  12 00                        |      ..        |          shndx: 18 0x1cb6-0x1cb8 (2)
      |                                               |                |        [95]{}: symbol 0x1cb8-0x1cc8 (16)
0x1cb0|                        e3 01 00 00            |        ....    |          name: "main" (483) 0x1cb8-0x1cbc (4)
0x1cb0|                                    ec 05 00 00|            ....|          value: 1516 0x1cbc-0x1cc0 (4)
0x1cc0|1c 00 00 00                                    |....            |          size: 28 0x1cc0-0x1cc4 (4)
0x1cc0|            12                                 |    .           |          bind: "global" (1) 0x1cc4-0x1cc4.4 (0.4)
0x1cc0|            12                                 |    .           |          type: "func" (2) 0x1cc4.4-0x1cc5 (0.4)
0x1cc0|               00                              |     .          |          other_unused: 0 0x1cc5-0x1cc5.6 (0.6)
0x1cc0|               00                              |     .          |          visibility: "default" (0) 0x1cc5.6-0x1cc6 (0.2)
0x1cc0|                  09 00                        |      ..        |          shndx: 9 0x1cc6-0x1cc8 (2)
      |                                               |                |        [96]{}: symbol 0x1cc8-0x1cd8 (16)
0x1cc0|                        b1 01 00 00            |        ....    |          name: "__end__" (433) 0x1cc8-0x1ccc (4)
0x1cc0|                                    20 10 01 00|             ...|          value: 69664 0x1ccc-0x1cd0 (4)
0x1cd0|00 00 00 00                                    |....            |          size: 0 0x1cd0-0x1cd4 (4)
0x1cd0|            10                                 |    .           |          bind: "global" (1) 0x1cd4-0x1cd4.4 (0.4)
0x1cd0|            10                                 |    .           |          type: "notype" (0) 0x1cd4.4-0x1cd5 (0.4)
0x1cd0|               00                              |     .          |          other_unused: 0 0x1cd5-0x1cd5.6 (0.6)
0x1cd0|               00                              |     .          |          visibility: "default" (0) 0x1cd5.6-0x1cd6 (0.2)
0x1cd0|                  12 00                        |      ..        |          shndx: 18 0x1cd6-0x1cd8 (2)
      |                                               |                |        [97]{}: symbol 0x1cd8-0x1ce8 (16)
0x1cd0|                        b9 01 00 00            |        ....    |          name: "_fini" (441) 0x1cd8-0x1cdc (4)
0x1cd0|                                    08 06 00 00|            ....|          value: 1544 0x1cdc-0x1ce0 (4)
0x1ce0|04 00 00 00                                    |....            |          size: 4 0x1ce0-0x1ce4 (4)
0x1ce0|            12                                 |    .           |          bind: "global" (1) 0x1ce4-0x1ce4.4 (0.4)
0x1ce0|            12                                 |    .           |          type: "func" (2) 0x1ce4.4-0x1ce5 (0.4)
0x1ce0|               00                              |     .          |          other_unused: 0 0x1ce5-0x1ce5.6 (0.6)
0x1ce0|               00                              |     .          |          visibility: "default" (0) 0x1ce5.6-0x1ce6 (0.2)
0x1ce0|                  0a 00                        |      ..        |          shndx: 10 0x1ce6-0x1ce8 (2)
      |                                               |                |        [98]{}: symbol 0x1ce8-0x1cf8 (16)
0x1ce0|                        bf 01 00 00            |        ....    |          name: "_edata" (447) 0x1ce8-0x1cec (4)
0x1ce0|                                    04 10 01 00|            ....|          value: 69636 0x1cec-0x1cf0 (4)
0x1cf0|00 00 00 00                                    |....            |          size: 0 0x1cf0-0x1cf4 (4)
0x1cf0|            10                                 |    .           |          bind: "global" (1) 0x1cf4-0x1cf4.4 (0.4)
0x1cf0|            10                                 |    .           |          type: "notype" (0) 0x1cf4.4-0x1cf5 (0.4)
0x1cf0|               00                              |     .          |          other_unused: 0 0x1cf5-0x1cf5.6 (0.6)
0x1cf0|               00                              |     .          |          visibility: "default" (0) 0x1cf5.6-0x1cf6 (0.2)
0x1cf0|                  11 00                        |      ..        |          shndx: 17 0x1cf6-0x1cf8 (2)
      |                                               |                |        [99]{}: symbol 0x1cf8-0x1d08 (16)
0x1cf0|                        c6 01 00 00            |        ....    |          name: "_end" (454) 0x1cf8-0x1cfc (4)
0x1cf0|                                    20 10 01 00|             ...|          value: 69664 0x1cfc-0x1d00 (4)
0x1d00|00 00 00 00                                    |....            |          size: 0 0x1d00-0x1d04 (4)
0x1d00|            10                                 |    .           |          bind: "global" (1) 0x1d04-0x1d04.4 (0.4)
0x1d00|            10                                 |    .           |          type: "notype" (0) 0x1d04.4-0x1d05 (0.4)
0x1d00|               00                              |     .          |          other_unused: 0 0x1d05-0x1d05.6 (0.6)
0x1d00|               00                              |     .          |          visibility: "default" (0) 0x1d05.6-0x1d06 (0.2)
0x1d00|                  12 00                        |      ..        |          shndx: 18 0x1d06-0x1d08 (2)
      |                                               |                |        [100]{}: symbol 0x1d08-0x1d18 (16)
0x1d00|                        cb 01 00 00            |        ....    |          name: "libbbb_bbb" (459) 0x1d08-0x1d0c (4)
0x1d00|                                    00 00 00 00|            ....|          value: 0 0x1d0c-0x1d10 (4)
0x1d10|00 00 00 00                                    |....            |          size: 0 0x1d10-0x1d14 (4)
0x1d10|            12                                 |    .           |          bind: "global" (1) 0x1d14-0x1d14.4 (0.4)
0x1d10|            12                                 |    .           |          type: "func" (2) 0x1d14.4-0x1d15 (0.4)
0x1d10|               00                              |     .          |          other_unused: 0 0x1d15-0x1d15.6 (0.6)
0x1d10|               00                              |     .          |          visibility: "default" (0) 0x1d15.6-0x1d16 (0.2)
0x1d10|                  00 00                        |      ..        |          shndx: 0 0x1d16-0x1d18 (2)
      |                                               |                |        [101]{}: symbol 0x1d18-0x1d28 (16)
0x1d10|                        d6 01 00 00            |        ....    |          name: "__libc_start_main" (470) 0x1d18-0x1d1c (4)
0x1d10|                                    00 00 00 00|            ....|          value: 0 0x1d1c-0x1d20 (4)
0x1d20|00 00 00 00                                    |....            |          size: 0 0x1d20-0x1d24 (4)
0x1d20|            12                                 |    .           |          bind: "global" (1) 0x1d24-0x1d24.4 (0.4)
0x1d20|            12                                 |    .           |          type: "func" (2) 0x1d24.4-0x1d25 (0.4)
0x1d20|               00                              |     .          |          other_unused: 0 0x1d25-0x1d25.6 (0.6)
0x1d20|               00                              |     .          |          visibility: "default" (0) 0x1d25.6-0x1d26 (0.2)
0x1d20|                  00 00                        |      ..        |          shndx: 0 0x1d26-0x1d28 (2)
      |                                               |                |        [102]{}: symbol 0x1d28-0x1d38 (16)
0x1d20|                        e8 01 00 00            |        ....    |          name: "__register_frame_info" (488) 0x1d28-0x1d2c (4)
0x1d20|                                    00 00 00 00|            ....|          value: 0 0x1d2c-0x1d30 (4)
0x1d30|00 00 00 00                                    |....            |          size: 0 0x1d30-0x1d34 (4)
0x1d30|            20                                 |                |          bind: "weak" (2) 0x1d34-0x1d34.4 (0.4)
0x1d30|            20                                 |                |          type: "notype" (0) 0x1d34.4-0x1d35 (0.4)
0x1d30|               00                              |     .          |          other_unused: 0 0x1d35-0x1d35.6 (0.6)
0x1d30|               00                              |     .          |          visibility: "default" (0) 0x1d35.6-0x1d36 (0.2)
0x1d30|                  00 00                        |      ..        |          shndx: 0 0x1d36-0x1d38 (2)
0x24e0|            01 00 00 00                        |    ....        |      name: ".symtab" (1) 0x24e4-0x24e8 (4)
0x24e0|                        02 00 00 00            |        ....    |      type: "symtab" (0x2) (Symbol table) 0x24e8-0x24ec (4)
      |                                               |                |      flags{}: 0x24ec-0x24f0 (4)
0x24e0|                                    00         |            .   |        link_order: false 0x24ec-0x24ec.1 (0.1)
0x24e0|                                    00         |            .   |        info_link: false 0x24ec.1-0x24ec.2 (0.1)
0x24e0|                                    00         |            .   |        strings: false 0x24ec.2-0x24ec.3 (0.1)
0x24e0|                                    00         |            .   |        merge: false 0x24ec.3-0x24ec.4 (0.1)
0x24e0|                                    00         |            .   |        unused0: 0 0x24ec.4-0x24ec.5 (0.1)
0x24e0|                                    00         |            .   |        execinstr: false 0x24ec.5-0x24ec.6 (0.1)
0x24e0|                                    00         |            .   |        alloc: false 0x24ec.6-0x24ec.7 (0.1)
0x24e0|                                    00         |            .   |        write: false 0x24ec.7-0x24ed (0.1)
0x24e0|                                       00      |             .  |        tls: false 0x24ed-0x24ed.1 (0.1)
0x24e0|                                       00      |             .  |        group: false 0x24ed.1-0x24ed.2 (0.1)
0x24e0|                                       00      |             .  |        os_nonconforming: false 0x24ed.2-0x24ed.3 (0.1)
0x24e0|                                       00 00   |             .. |        unused1: 0 0x24ed.3-0x24ee.4 (1.1)
0x24e0|                                          00 00|              ..|        os_specific: 0 0x24ee.4-0x24ef.4 (1)
0x24e0|                                             00|               .|        processor_specific: 0 0x24ef.4-0x24f0 (0.4)
0x24f0|00 00 00 00                                    |....            |      addr: 0x0 0x24f0-0x24f4 (4)
0x24f0|            c8 16 00 00                        |    ....        |      offset: 5832 0x24f4-0x24f8 (4)
0x24f0|                        70 06 00 00            |        p...    |      size: 0x670 0x24f8-0x24fc (4)
0x24f0|                                    1e 00 00 00|            ....|      link: 30 0x24fc-0x2500 (4)
0x2500|50 00 00 00                                    |P...            |      info: 80 0x2500-0x2504 (4)
0x2500|            04 00 00 00                        |    ....        |      addralign: 4 0x2504-0x2508 (4)
0x2500|                        10 00 00 00            |        ....    |      entsize: 16 0x2508-0x250c (4)
      |                                               |                |    [30]{}: section_header 0x1d38-0x2534 (2044)
0x1d30|                        00 53 63 72 74 31 2e 63|        .Scrt1.c|      string: "\x00Scrt1.c\x00$a\x00$d\x00crti.o\x00crtn.o\x00crtstuff.c\x00all_implied_fbits\x00deregister_tm_clones\x00__do_global_dtors_aux\x00completed.1\x00__do_global_dtors_aux_fini_array_entry\x00frame_dummy\x00object.0\x00__frame_dummy_init_array_entry\x00a.c\x00__FRAME_END__\x00_DYNAMIC\x00_GLOBAL_OFFSET_TABLE_\x00__TMC_END__\x00puts\x00__cxa_finalize\x00__bss_start__\x00__dso_handle\x00aaa\x00_init\x00__deregister_frame_info\x00_ITM_registerTMCloneTable\x00__bss_end__\x00_start_c\x00_ITM_deregisterTMCloneTable\x00__bss_start\x00__end__\x00_fini\x00_edata\x00_end\x00libbbb_bbb\x00__libc_start_main\x00__register_frame_info\x00" 0x1d38-0x1f36 (510)
0x1d40|00 24 61 00 24 64 00 63 72 74 69 2e 6f 00 63 72|.$a.$d.crti.o.cr|
*     |until 0x1f35.7 (510)                           |                |
0x2500|                                    09 00 00 00|            ....|      name: ".strtab" (9) 0x250c-0x2510 (4)
0x2510|03 00 00 00                                    |....            |      type: "strtab" (0x3) (String table) 0x2510-0x2514 (4)
      |                                               |                |      flags{}: 0x2514-0x2518 (4)
0x2510|            00                                 |    .           |        link_order: false 0x2514-0x2514.1 (0.1)
0x2510|            00                                 |    .           |        info_link: false 0x2514.1-0x2514.2 (0.1)
0x2510|            00                                 |    .           |        strings: false 0x2514.2-0x2514.3 (0.1)
0x2510|            00                                 |    .           |        merge: false 0x2514.3-0x2514.4 (0.1)
0x2510|            00                                 |    .           |        unused0: 0 0x2514.4-0x2514.5 (0.1)
0x2510|            00                                 |    .           |        execinstr: false 0x2514.5-0x2514.6 (0.1)
0x2510|            00                                 |    .           |        alloc: false 0x2514.6-0x2514.7 (0.1)
0x2510|            00                                 |    .           |        write: false 0x2514.7-0x2515 (0.1)
0x2510|               00                              |     .          |        tls: false 0x2515-0x2515.1 (0.1)
0x2510|               00                              |     .          |        group: false 0x2515.1-0x2515.2 (0.1)
0x2510|               00                              |     .          |        os_nonconforming: false 0x2515.2-0x2515.3 (0.1)
0x2510|               00 00                           |     ..         |        unused1: 0 0x2515.3-0x2516.4 (1.1)
0x2510|                  00 00                        |      ..        |        os_specific: 0 0x2516.4-0x2517.4 (1)
0x2510|                     00                        |       .        |        processor_specific: 0 0x2517.4-0x2518 (0.4)
0x2510|                        00 00 00 00            |        ....    |      addr: 0x0 0x2518-0x251c (4)
0x2510|                                    38 1d 00 00|            8...|      offset: 7480 0x251c-0x2520 (4)
0x2520|fe 01 00 00                                    |....            |      size: 0x1fe 0x2520-0x2524 (4)
0x2520|            00 00 00 00                        |    ....        |      link: 0 0x2524-0x2528 (4)
0x2520|                        00 00 00 00            |        ....    |      info: 0 0x2528-0x252c (4)
0x2520|                                    01 00 00 00|            ....|      addralign: 1 0x252c-0x2530 (4)
0x2530|00 00 00 00                                    |....            |      entsize: 0 0x2530-0x2534 (4)
      |                                               |                |    [31]{}: section_header 0x1f36-0x255c (1574)
0x1f30|                  00 2e 73 79 6d 74 61 62 00 2e|      ..symtab..|      string: "\x00.symtab\x00.strtab\x00.shstrtab\x00.interp\x00.gnu.hash\x00.dynsym\x00.dynstr\x00.rel.dyn\x00.rel.plt\x00.init\x00.text\x00.fini\x00.rodata\x00.eh_frame\x00.init_array\x00.fini_array\x00.dynamic\x00.got\x00.data\x00.bss\x00.comment\x00.ARM.attributes\x00.debug_aranges\x00.debug_info\x00.debug_abbrev\x00.debug_line\x00.debug_frame\x00.debug_str\x00.debug_loc\x00.debug_ranges\x00" 0x1f36-0x2059 (291)
0x1f40|73 74 72 74 61 62 00 2e 73 68 73 74 72 74 61 62|strtab..shstrtab|
*     |until 0x2058.7 (291)                           |                |
0x2530|            11 00 00 00                        |    ....        |      name: ".shstrtab" (17) 0x2534-0x2538 (4)
0x2530|                        03 00 00 00            |        ....    |      type: "strtab" (0x3) (String table) 0x2538-0x253c (4)
      |                                               |                |      flags{}: 0x253c-0x2540 (4)
0x2530|                                    00         |            .   |        link_order: false 0x253c-0x253c.1 (0.1)
0x2530|                                    00         |            .   |        info_link: false 0x253c.1-0x253c.2 (0.1)
0x2530|                                    00         |            .   |        strings: false 0x253c.2-0x253c.3 (0.1)
0x2530|                                    00         |            .   |        merge: false 0x253c.3-0x253c.4 (0.1)
0x2530|                                    00         |            .   |        unused0: 0 0x253c.4-0x253c.5 (0.1)
0x2530|                                    00         |            .   |        execinstr: false 0x253c.5-0x253c.6 (0.1)
0x2530|                                    00         |            .   |        alloc: false 0x253c.6-0x253c.7 (0.1)
0x2530|                                    00         |            .   |        write: false 0x253c.7-0x253d (0.1)
0x2530|                                       00      |             .  |        tls: false 0x253d-0x253d.1 (0.1)
0x2530|                                       00      |             .  |        group: false 0x253d.1-0x253d.2 (0.1)
0x2530|                                       00      |             .  |        os_nonconforming: false 0x253d.2-0x253d.3 (0.1)
0x2530|                                       00 00   |             .. |        unused1: 0 0x253d.3-0x253e.4 (1.1)
0x2530|                                          00 00|              ..|        os_specific: 0 0x253e.4-0x253f.4 (1)
0x2530|                                             00|               .|        processor_specific: 0 0x253f.4-0x2540 (0.4)
0x2540|00 00 00 00                                    |....            |      addr: 0x0 0x2540-0x2544 (4)
0x2540|            36 1f 00 00                        |    6...        |      offset: 7990 0x2544-0x2548 (4)
0x2540|                        23 01 00 00            |        #...    |      size: 0x123 0x2548-0x254c (4)
0x2540|                                    00 00 00 00|            ....|      link: 0 0x254c-0x2550 (4)
0x2550|00 00 00 00                                    |....            |      info: 0 0x2550-0x2554 (4)
0x2550|            01 00 00 00                        |    ....        |      addralign: 1 0x2554-0x2558 (4)
0x2550|                        00 00 00 00|           |        ....|   |      entsize: 0 0x2558-0x255c (4)
0x0730|                                    00 00 00 00|            ....|  gap0: raw bits 0x73c-0xecc (1936)
0x0740|00 00 00 00 00 00 00 00 00 00 00 00 00 00 00 00|................|
*     |until 0xecb.7 (1936)                           |                |
0x13b0|                           00 00 00            |         ...    |  gap1: raw bits 0x13b9-0x13bc (3)
0x1670|               00 00 00                        |     ...        |  gap2: raw bits 0x1675-0x1678 (3)
0x2050|                           00 00 00            |         ...    |  gap3: raw bits 0x2059-0x205c (3)
