$ fq -d elf dv libbbb.so
      |00 01 02 03 04 05 06 07 08 09 0a 0b 0c 0d 0e 0f|0123456789abcdef|.{}: libbbb.so (elf) 0x0-0x1e9f.7 (7840)
      |                                               |                |  header{}: 0x0-0x33.7 (52)
      |                                               |                |    ident{}: 0x0-0xf.7 (16)
0x0000|7f 45 4c 46                                    |.ELF            |      magic: raw bits (valid) 0x0-0x3.7 (4)
0x0000|            01                                 |    .           |      class: 32 (1) 0x4-0x4.7 (1)
0x0000|               01                              |     .          |      data: "little_endian" (1) 0x5-0x5.7 (1)
0x0000|                  01                           |      .         |      version: 1 0x6-0x6.7 (1)
0x0000|                     00                        |       .        |      os_abi: "sysv" (0) 0x7-0x7.7 (1)
0x0000|                        00                     |        .       |      abi_version: 0 0x8-0x8.7 (1)
0x0000|                           00 00 00 00 00 00 00|         .......|      pad: raw bits (all zero) 0x9-0xf.7 (7)
0x0010|03 00                                          |..              |    type: "dyn" (0x3) 0x10-0x11.7 (2)
0x0010|      28 00                                    |  (.            |    machine: "arm" (0x28) (ARM (up to ARMv7/Aarch32)) 0x12-0x13.7 (2)
0x0010|            01 00 00 00                        |    ....        |    version: 1 0x14-0x17.7 (4)
0x0010|                        18 03 00 00            |        ....    |    entry: 792 0x18-0x1b.7 (4)
0x0010|                                    34 00 00 00|            4...|    phoff: 52 0x1c-0x1f.7 (4)
0x0020|18 1a 00 00                                    |....            |    shoff: 6680 0x20-0x23.7 (4)
0x0020|            00 04 00 05                        |    ....        |    flags: 83887104 0x24-0x27.7 (4)
0x0020|                        34 00                  |        4.      |    ehsize: 52 0x28-0x29.7 (2)
0x0020|                              20 00            |           .    |    phentsize: 32 0x2a-0x2b.7 (2)
0x0020|                                    05 00      |            ..  |    phnum: 5 0x2c-0x2d.7 (2)
0x0020|                                          28 00|              (.|    shentsize: 40 0x2e-0x2f.7 (2)
0x0030|1d 00                                          |..              |    shnum: 29 0x30-0x31.7 (2)
0x0030|      1c 00                                    |  ..            |    shstrndx: 28 0x32-0x33.7 (2)
      |                                               |                |  program_headers[0:5]: 0x0-0x1003.7 (4100)
      |                                               |                |    [0]{}: program_header 0x0-0x5e3.7 (1508)
      |                                               |                |      program_header{}: 0x0-0x5e3.7 (1508)
0x0000|7f 45 4c 46 01 01 01 00 00 00 00 00 00 00 00 00|.ELF............|        data: raw bits 0x0-0x5e3.7 (1508)
*     |until 0x5e3.7 (1508)                           |                |
0x0030|            01 00 00 00                        |    ....        |        type: "load" (1) (Loadable segment) 0x34-0x37.7 (4)
0x0030|                        00 00 00 00            |        ....    |        offset: 0x0 0x38-0x3b.7 (4)
0x0030|                                    00 00 00 00|            ....|        vaddr: 0x0 0x3c-0x3f.7 (4)
0x0040|00 00 00 00                                    |....            |        paddr: 0x0 0x40-0x43.7 (4)
0x0040|            e4 05 00 00                        |    ....        |        filesz: 1508 0x44-0x47.7 (4)
0x0040|                        e4 05 00 00            |        ....    |        memsz: 1508 0x48-0x4b.7 (4)
      |                                               |                |        flags{}: 0x4c-0x4f.7 (4)
0x0040|                                    05         |            .   |          unused0: 0 0x4c-0x4c.4 (0.5)
0x0040|                                    05         |            .   |          r: true 0x4c.5-0x4c.5 (0.1)
0x0040|                                    05         |            .   |          w: false 0x4c.6-0x4c.6 (0.1)
0x0040|                                    05         |            .   |          x: true 0x4c.7-0x4c.7 (0.1)
0x0040|                                       00 00 00|             ...|          unused1: 0 0x4d-0x4f.7 (3)
0x0050|00 00 01 00                                    |....            |        align: 65536 0x50-0x53.7 (4)
      |                                               |                |    [1]{}: program_header 0x54-0x1003.7 (4016)
      |                                               |                |      program_header{}: 0x54-0x1003.7 (4016)
0x0050|            01 00 00 00                        |    ....        |        type: "load" (1) (Loadable segment) 0x54-0x57.7 (4)
0x0050|                        f0 0e 00 00            |        ....    |        offset: 0xef0 0x58-0x5b.7 (4)
0x0050|                                    f0 0e 01 00|            ....|        vaddr: 0x10ef0 0x5c-0x5f.7 (4)
0x0060|f0 0e 01 00                                    |....            |        paddr: 0x10ef0 0x60-0x63.7 (4)
0x0060|            14 01 00 00                        |    ....        |        filesz: 276 0x64-0x67.7 (4)
0x0060|                        30 01 00 00            |        0...    |        memsz: 304 0x68-0x6b.7 (4)
      |                                               |                |        flags{}: 0x6c-0x6f.7 (4)
0x0060|                                    06         |            .   |          unused0: 0 0x6c-0x6c.4 (0.5)
0x0060|                                    06         |            .   |          r: true 0x6c.5-0x6c.5 (0.1)
0x0060|                                    06         |            .   |          w: true 0x6c.6-0x6c.6 (0.1)
0x0060|                                    06         |            .   |          x: false 0x6c.7-0x6c.7 (0.1)
0x0060|                                       00 00 00|             ...|          unused1: 0 0x6d-0x6f.7 (3)
0x0070|00 00 01 00                                    |....            |        align: 65536 0x70-0x73.7 (4)
0x0ef0|38 04 00 00 ac 03 00 00 01 00 00 00 90 00 00 00|8...............|        data: raw bits 0xef0-0x1003.7 (276)
*     |until 0x1003.7 (276)                           |                |
      |                                               |                |    [2]{}: program_header 0x74-0xfcf.7 (3932)
      |                                               |                |      program_header{}: 0x74-0xfcf.7 (3932)
0x0070|            02 00 00 00                        |    ....        |        type: "dynamic" (2) (Dynamic linking information) 0x74-0x77.7 (4)
0x0070|                        f8 0e 00 00            |        ....    |        offset: 0xef8 0x78-0x7b.7 (4)
0x0070|                                    f8 0e 01 00|            ....|        vaddr: 0x10ef8 0x7c-0x7f.7 (4)
0x0080|f8 0e 01 00                                    |....            |        paddr: 0x10ef8 0x80-0x83.7 (4)
0x0080|            d8 00 00 00                        |    ....        |        filesz: 216 0x84-0x87.7 (4)
0x0080|                        d8 00 00 00            |        ....    |        memsz: 216 0x88-0x8b.7 (4)
      |                                               |                |        flags{}: 0x8c-0x8f.7 (4)
0x0080|                                    06         |            .   |          unused0: 0 0x8c-0x8c.4 (0.5)
0x0080|                                    06         |            .   |          r: true 0x8c.5-0x8c.5 (0.1)
0x0080|                                    06         |            .   |          w: true 0x8c.6-0x8c.6 (0.1)
0x0080|                                    06         |            .   |          x: false 0x8c.7-0x8c.7 (0.1)
0x0080|                                       00 00 00|             ...|          unused1: 0 0x8d-0x8f.7 (3)
0x0090|04 00 00 00                                    |....            |        align: 4 0x90-0x93.7 (4)
0x0ef0|                        01 00 00 00 90 00 00 00|        ........|        data: raw bits 0xef8-0xfcf.7 (216)
0x0f00|0c 00 00 00 c8 02 00 00 0d 00 00 00 a8 04 00 00|................|
*     |until 0xfcf.7 (216)                            |                |
      |                                               |                |    [3]{}: program_header 0x0-0xb3.7 (180)
      |                                               |                |      program_header{}: 0x0-0xb3.7 (180)
      |                                               |                |        data: raw bits 0x0-NA (0)
0x0090|            51 e5 74 64                        |    Q.td        |        type: "gnu_stack" (1685382481) (GNU stack permission) 0x94-0x97.7 (4)
0x0090|                        00 00 00 00            |        ....    |        offset: 0x0 0x98-0x9b.7 (4)
0x0090|                                    00 00 00 00|            ....|        vaddr: 0x0 0x9c-0x9f.7 (4)
0x00a0|00 00 00 00                                    |....            |        paddr: 0x0 0xa0-0xa3.7 (4)
0x00a0|            00 00 00 00                        |    ....        |        filesz: 0 0xa4-0xa7.7 (4)
0x00a0|                        00 00 00 00            |        ....    |        memsz: 0 0xa8-0xab.7 (4)
      |                                               |                |        flags{}: 0xac-0xaf.7 (4)
0x00a0|                                    06         |            .   |          unused0: 0 0xac-0xac.4 (0.5)
0x00a0|                                    06         |            .   |          r: true 0xac.5-0xac.5 (0.1)
0x00a0|                                    06         |            .   |          w: true 0xac.6-0xac.6 (0.1)
0x00a0|                                    06         |            .   |          x: false 0xac.7-0xac.7 (0.1)
0x00a0|                                       00 00 00|             ...|          unused1: 0 0xad-0xaf.7 (3)
0x00b0|10 00 00 00                                    |....            |        align: 16 0xb0-0xb3.7 (4)
      |                                               |                |    [4]{}: program_header 0xb4-0xfff.7 (3916)
      |                                               |                |      program_header{}: 0xb4-0xfff.7 (3916)
0x00b0|            52 e5 74 64                        |    R.td        |        type: "gnu_relro" (1685382482) (GNU read-only after relocation) 0xb4-0xb7.7 (4)
0x00b0|                        f0 0e 00 00            |        ....    |        offset: 0xef0 0xb8-0xbb.7 (4)
0x00b0|                                    f0 0e 01 00|            ....|        vaddr: 0x10ef0 0xbc-0xbf.7 (4)
0x00c0|f0 0e 01 00                                    |....            |        paddr: 0x10ef0 0xc0-0xc3.7 (4)
0x00c0|            10 01 00 00                        |    ....        |        filesz: 272 0xc4-0xc7.7 (4)
0x00c0|                        10 01 00 00            |        ....    |        memsz: 272 0xc8-0xcb.7 (4)
      |                                               |                |        flags{}: 0xcc-0xcf.7 (4)
0x00c0|                                    04         |            .   |          unused0: 0 0xcc-0xcc.4 (0.5)
0x00c0|                                    04         |            .   |          r: true 0xcc.5-0xcc.5 (0.1)
0x00c0|                                    04         |            .   |          w: false 0xcc.6-0xcc.6 (0.1)
0x00c0|                                    04         |            .   |          x: false 0xcc.7-0xcc.7 (0.1)
0x00c0|                                       00 00 00|             ...|          unused1: 0 0xcd-0xcf.7 (3)
0x00d0|01 00 00 00                                    |....            |        align: 1 0xd0-0xd3.7 (4)
0x0ef0|38 04 00 00 ac 03 00 00 01 00 00 00 90 00 00 00|8...............|        data: raw bits 0xef0-0xfff.7 (272)
*     |until 0xfff.7 (272)                            |                |
      |                                               |                |  section_headers[0:29]: 0x0-0x1e9f.7 (7840)
      |                                               |                |    [0]{}: section_header 0x0-0x1a3f.7 (6720)
      |                                               |                |      data: raw bits 0x0-NA (0)
0x1a10|                        00 00 00 00            |        ....    |      name: "" (0) 0x1a18-0x1a1b.7 (4)
0x1a10|                                    00 00 00 00|            ....|      type: "null" (0x0) (Header inactive) 0x1a1c-0x1a1f.7 (4)
      |                                               |                |      flags{}: 0x1a20-0x1a23.7 (4)
0x1a20|00                                             |.               |        link_order: false 0x1a20-0x1a20 (0.1)
0x1a20|00                                             |.               |        info_link: false 0x1a20.1-0x1a20.1 (0.1)
0x1a20|00                                             |.               |        strings: false 0x1a20.2-0x1a20.2 (0.1)
0x1a20|00                                             |.               |        merge: false 0x1a20.3-0x1a20.3 (0.1)
0x1a20|00                                             |.               |        unused0: 0 0x1a20.4-0x1a20.4 (0.1)
0x1a20|00                                             |.               |        execinstr: false 0x1a20.5-0x1a20.5 (0.1)
0x1a20|00                                             |.               |        alloc: false 0x1a20.6-0x1a20.6 (0.1)
0x1a20|00                                             |.               |        write: false 0x1a20.7-0x1a20.7 (0.1)
0x1a20|   00                                          | .              |        tls: false 0x1a21-0x1a21 (0.1)
0x1a20|   00                                          | .              |        group: false 0x1a21.1-0x1a21.1 (0.1)
0x1a20|   00                                          | .              |        os_nonconforming: false 0x1a21.2-0x1a21.2 (0.1)
0x1a20|   00 00                                       | ..             |        unused1: 0 0x1a21.3-0x1a22.3 (1.1)
0x1a20|      00 00                                    |  ..            |        os_specific: 0 0x1a22.4-0x1a23.3 (1)
0x1a20|         00                                    |   .            |        processor_specific: 0 0x1a23.4-0x1a23.7 (0.4)
0x1a20|            00 00 00 00                        |    ....        |      addr: 0x0 0x1a24-0x1a27.7 (4)
0x1a20|                        00 00 00 00            |        ....    |      offset: 0 0x1a28-0x1a2b.7 (4)
0x1a20|                                    00 00 00 00|            ....|      size: 0x0 0x1a2c-0x1a2f.7 (4)
0x1a30|00 00 00 00                                    |....            |      link: 0 0x1a30-0x1a33.7 (4)
0x1a30|            00 00 00 00                        |    ....        |      info: 0 0x1a34-0x1a37.7 (4)
0x1a30|                        00 00 00 00            |        ....    |      addralign: 0 0x1a38-0x1a3b.7 (4)
0x1a30|                                    00 00 00 00|            ....|      entsize: 0 0x1a3c-0x1a3f.7 (4)
      |                                               |                |    [1]{}: section_header 0xd4-0x1a67.7 (6548)
      |                                               |                |      gnu_hash{}: 0xd4-0xff.7 (44)
0x00d0|            03 00 00 00                        |    ....        |        nbuckets: 3 0xd4-0xd7.7 (4)
0x00d0|                        09 00 00 00            |        ....    |        symndx: 9 0xd8-0xdb.7 (4)
0x00d0|                                    01 00 00 00|            ....|        maskwords: 1 0xdc-0xdf.7 (4)
0x00e0|05 00 00 00                                    |....            |        shift2: 5 0xe0-0xe3.7 (4)
      |                                               |                |        bloom_filter[0:1]: 0xe4-0xe7.7 (4)
0x00e0|            80 24 00 91                        |    .$..        |          [0]: 2432705664 maskword 0xe4-0xe7.7 (4)
      |                                               |                |        buckets[0:3]: 0xe8-0xf3.7 (12)
0x00e0|                        00 00 00 00            |        ....    |          [0]: 0 bucket 0xe8-0xeb.7 (4)
0x00e0|                                    09 00 00 00|            ....|          [1]: 9 bucket 0xec-0xef.7 (4)
0x00f0|0a 00 00 00                                    |....            |          [2]: 10 bucket 0xf0-0xf3.7 (4)
      |                                               |                |        values[0:3]: 0xf4-0xff.7 (12)
0x00f0|            b9 8d f1 0e                        |    ....        |          [0]: 250711481 value 0xf4-0xf7.7 (4)
0x00f0|                        ea d3 ef 0e            |        ....    |          [1]: 250598378 value 0xf8-0xfb.7 (4)
0x00f0|                                    87 e7 e8 85|            ....|          [2]: 2246633351 value 0xfc-0xff.7 (4)
0x1a40|1b 00 00 00                                    |....            |      name: ".gnu.hash" (27) 0x1a40-0x1a43.7 (4)
0x1a40|            f6 ff ff 6f                        |    ...o        |      type: "gnu_hash" (0x6ffffff6) (GNU symbol hash table) 0x1a44-0x1a47.7 (4)
      |                                               |                |      flags{}: 0x1a48-0x1a4b.7 (4)
0x1a40|                        02                     |        .       |        link_order: false 0x1a48-0x1a48 (0.1)
0x1a40|                        02                     |        .       |        info_link: false 0x1a48.1-0x1a48.1 (0.1)
0x1a40|                        02                     |        .       |        strings: false 0x1a48.2-0x1a48.2 (0.1)
0x1a40|                        02                     |        .       |        merge: false 0x1a48.3-0x1a48.3 (0.1)
0x1a40|                        02                     |        .       |        unused0: 0 0x1a48.4-0x1a48.4 (0.1)
0x1a40|                        02                     |        .       |        execinstr: false 0x1a48.5-0x1a48.5 (0.1)
0x1a40|                        02                     |        .       |        alloc: true 0x1a48.6-0x1a48.6 (0.1)
0x1a40|                        02                     |        .       |        write: false 0x1a48.7-0x1a48.7 (0.1)
0x1a40|                           00                  |         .      |        tls: false 0x1a49-0x1a49 (0.1)
0x1a40|                           00                  |         .      |        group: false 0x1a49.1-0x1a49.1 (0.1)
0x1a40|                           00                  |         .      |        os_nonconforming: false 0x1a49.2-0x1a49.2 (0.1)
0x1a40|                           00 00               |         ..     |        unused1: 0 0x1a49.3-0x1a4a.3 (1.1)
0x1a40|                              00 00            |          ..    |        os_specific: 0 0x1a4a.4-0x1a4b.3 (1)
0x1a40|                                 00            |           .    |        processor_specific: 0 0x1a4b.4-0x1a4b.7 (0.4)
0x1a40|                                    d4 00 00 00|            ....|      addr: 0xd4 0x1a4c-0x1a4f.7 (4)
0x1a50|d4 00 00 00                                    |....            |      offset: 212 0x1a50-0x1a53.7 (4)
0x1a50|            2c 00 00 00                        |    ,...        |      size: 0x2c 0x1a54-0x1a57.7 (4)
0x1a50|                        02 00 00 00            |        ....    |      link: 2 0x1a58-0x1a5b.7 (4)
0x1a50|                                    00 00 00 00|            ....|      info: 0 0x1a5c-0x1a5f.7 (4)
0x1a60|04 00 00 00                                    |....            |      addralign: 4 0x1a60-0x1a63.7 (4)
0x1a60|            04 00 00 00                        |    ....        |      entsize: 4 0x1a64-0x1a67.7 (4)
      |                                               |                |    [2]{}: section_header 0x100-0x1a8f.7 (6544)
      |                                               |                |      symbol_table[0:12]: 0x100-0x1bf.7 (192)
      |                                               |                |        [0]{}: symbol 0x100-0x10f.7 (16)
0x0100|00 00 00 00                                    |....            |          name: "" (0) 0x100-0x103.7 (4)
0x0100|            00 00 00 00                        |    ....        |          value: 0 0x104-0x107.7 (4)
0x0100|                        00 00 00 00            |        ....    |          size: 0 0x108-0x10b.7 (4)
0x0100|                                    00         |            .   |          bind: "local" (0) 0x10c-0x10c.3 (0.4)
0x0100|                                    00         |            .   |          type: "notype" (0) 0x10c.4-0x10c.7 (0.4)
0x0100|                                       00      |             .  |          other_unused: 0 0x10d-0x10d.5 (0.6)
0x0100|                                       00      |             .  |          visibility: "default" (0) 0x10d.6-0x10d.7 (0.2)
0x0100|                                          00 00|              ..|          shndx: 0 0x10e-0x10f.7 (2)
      |                                               |                |        [1]{}: symbol 0x110-0x11f.7 (16)
0x0110|00 00 00 00                                    |....            |          name: "" (0) 0x110-0x113.7 (4)
0x0110|            c8 02 00 00                        |    ....        |          value: 712 0x114-0x117.7 (4)
0x0110|                        00 00 00 00            |        ....    |          size: 0 0x118-0x11b.7 (4)
0x0110|                                    03         |            .   |          bind: "local" (0) 0x11c-0x11c.3 (0.4)
0x0110|                                    03         |            .   |          type: "section" (3) 0x11c.4-0x11c.7 (0.4)
0x0110|                                       00      |             .  |          other_unused: 0 0x11d-0x11d.5 (0.6)
0x0110|                                       00      |             .  |          visibility: "default" (0) 0x11d.6-0x11d.7 (0.2)
0x0110|                                          06 00|              ..|          shndx: 6 0x11e-0x11f.7 (2)
      |                                               |                |        [2]{}: symbol 0x120-0x12f.7 (16)
0x0120|00 00 00 00                                    |....            |          name: "" (0) 0x120-0x123.7 (4)
0x0120|            00 10 01 00                        |    ....        |          value: 69632 0x124-0x127.7 (4)
0x0120|                        00 00 00 00            |        ....    |          size: 0 0x128-0x12b.7 (4)
0x0120|                                    03         |            .   |          bind: "local" (0) 0x12c-0x12c.3 (0.4)
0x0120|                                    03         |            .   |          type: "section" (3) 0x12c.4-0x12c.7 (0.4)
0x0120|                                       00      |             .  |          other_unused: 0 0x12d-0x12d.5 (0.6)
0x0120|                                       00      |             .  |          visibility: "default" (0) 0x12d.6-0x12d.7 (0.2)
0x0120|                                          10 00|              ..|          shndx: 16 0x12e-0x12f.7 (2)
      |                                               |                |        [3]{}: symbol 0x130-0x13f.7 (16)
0x0130|8b 00 00 00                                    |....            |          name: "puts" (139) 0x130-0x133.7 (4)
0x0130|            00 00 00 00                        |    ....        |          value: 0 0x134-0x137.7 (4)
0x0130|                        00 00 00 00            |        ....    |          size: 0 0x138-0x13b.7 (4)
0x0130|                                    12         |            .   |          bind: "global" (1) 0x13c-0x13c.3 (0.4)
0x0130|                                    12         |            .   |          type: "func" (2) 0x13c.4-0x13c.7 (0.4)
0x0130|                                       00      |             .  |          other_unused: 0 0x13d-0x13d.5 (0.6)
0x0130|                                       00      |             .  |          visibility: "default" (0) 0x13d.6-0x13d.7 (0.2)
0x0130|                                          00 00|              ..|          shndx: 0 0x13e-0x13f.7 (2)
      |                                               |                |        [4]{}: symbol 0x140-0x14f.7 (16)
0x0140|43 00 00 00                                    |C...            |          name: "__cxa_finalize" (67) 0x140-0x143.7 (4)
0x0140|            00 00 00 00                        |    ....        |          value: 0 0x144-0x147.7 (4)
0x0140|                        00 00 00 00            |        ....    |          size: 0 0x148-0x14b.7 (4)
0x0140|                                    22         |            "   |          bind: "weak" (2) 0x14c-0x14c.3 (0.4)
0x0140|                                    22         |            "   |          type: "func" (2) 0x14c.4-0x14c.7 (0.4)
0x0140|                                       00      |             .  |          other_unused: 0 0x14d-0x14d.5 (0.6)
0x0140|                                       00      |             .  |          visibility: "default" (0) 0x14d.6-0x14d.7 (0.2)
0x0140|                                          00 00|              ..|          shndx: 0 0x14e-0x14f.7 (2)
      |                                               |                |        [5]{}: symbol 0x150-0x15f.7 (16)
0x0150|52 00 00 00                                    |R...            |          name: "__deregister_frame_info" (82) 0x150-0x153.7 (4)
0x0150|            00 00 00 00                        |    ....        |          value: 0 0x154-0x157.7 (4)
0x0150|                        00 00 00 00            |        ....    |          size: 0 0x158-0x15b.7 (4)
0x0150|                                    20         |                |          bind: "weak" (2) 0x15c-0x15c.3 (0.4)
0x0150|                                    20         |                |          type: "notype" (0) 0x15c.4-0x15c.7 (0.4)
0x0150|                                       00      |             .  |          other_unused: 0 0x15d-0x15d.5 (0.6)
0x0150|                                       00      |             .  |          visibility: "default" (0) 0x15d.6-0x15d.7 (0.2)
0x0150|                                          00 00|              ..|          shndx: 0 0x15e-0x15f.7 (2)
      |                                               |                |        [6]{}: symbol 0x160-0x16f.7 (16)
0x0160|29 00 00 00                                    |)...            |          name: "_ITM_registerTMCloneTable" (41) 0x160-0x163.7 (4)
0x0160|            00 00 00 00                        |    ....        |          value: 0 0x164-0x167.7 (4)
0x0160|                        00 00 00 00            |        ....    |          size: 0 0x168-0x16b.7 (4)
0x0160|                                    20         |                |          bind: "weak" (2) 0x16c-0x16c.3 (0.4)
0x0160|                                    20         |                |          type: "notype" (0) 0x16c.4-0x16c.7 (0.4)
0x0160|                                       00      |             .  |          other_unused: 0 0x16d-0x16d.5 (0.6)
0x0160|                                       00      |             .  |          visibility: "default" (0) 0x16d.6-0x16d.7 (0.2)
0x0160|                                          00 00|              ..|          shndx: 0 0x16e-0x16f.7 (2)
      |                                               |                |        [7]{}: symbol 0x170-0x17f.7 (16)
0x0170|0d 00 00 00                                    |....            |          name: "_ITM_deregisterTMCloneTable" (13) 0x170-0x173.7 (4)
0x0170|            00 00 00 00                        |    ....        |          value: 0 0x174-0x177.7 (4)
0x0170|                        00 00 00 00            |        ....    |          size: 0 0x178-0x17b.7 (4)
0x0170|                                    20         |                |          bind: "weak" (2) 0x17c-0x17c.3 (0.4)
0x0170|                                    20         |                |          type: "notype" (0) 0x17c.4-0x17c.7 (0.4)
0x0170|                                       00      |             .  |          other_unused: 0 0x17d-0x17d.5 (0.6)
0x0170|                                       00      |             .  |          visibility: "default" (0) 0x17d.6-0x17d.7 (0.2)
0x0170|                                          00 00|              ..|          shndx: 0 0x17e-0x17f.7 (2)
      |                                               |                |        [8]{}: symbol 0x180-0x18f.7 (16)
0x0180|6a 00 00 00                                    |j...            |          name: "__register_frame_info" (106) 0x180-0x183.7 (4)
0x0180|            00 00 00 00                        |    ....        |          value: 0 0x184-0x187.7 (4)
0x0180|                        00 00 00 00            |        ....    |          size: 0 0x188-0x18b.7 (4)
0x0180|                                    20         |                |          bind: "weak" (2) 0x18c-0x18c.3 (0.4)
0x0180|                                    20         |                |          type: "notype" (0) 0x18c.4-0x18c.7 (0.4)
0x0180|                                       00      |             .  |          other_unused: 0 0x18d-0x18d.5 (0.6)
0x0180|                                       00      |             .  |          visibility: "default" (0) 0x18d.6-0x18d.7 (0.2)
0x0180|                                          00 00|              ..|          shndx: 0 0x18e-0x18f.7 (2)
      |                                               |                |        [9]{}: symbol 0x190-0x19f.7 (16)
0x0190|01 00 00 00                                    |....            |          name: "_init" (1) 0x190-0x193.7 (4)
0x0190|            c8 02 00 00                        |    ....        |          value: 712 0x194-0x197.7 (4)
0x0190|                        04 00 00 00            |        ....    |          size: 4 0x198-0x19b.7 (4)
0x0190|                                    12         |            .   |          bind: "global" (1) 0x19c-0x19c.3 (0.4)
0x0190|                                    12         |            .   |          type: "func" (2) 0x19c.4-0x19c.7 (0.4)
0x0190|                                       00      |             .  |          other_unused: 0 0x19d-0x19d.5 (0.6)
0x0190|                                       00      |             .  |          visibility: "default" (0) 0x19d.6-0x19d.7 (0.2)
0x0190|                                          06 00|              ..|          shndx: 6 0x19e-0x19f.7 (2)
      |                                               |                |        [10]{}: symbol 0x1a0-0x1af.7 (16)
0x01a0|07 00 00 00                                    |....            |          name: "_fini" (7) 0x1a0-0x1a3.7 (4)
0x01a0|            a8 04 00 00                        |    ....        |          value: 1192 0x1a4-0x1a7.7 (4)
0x01a0|                        04 00 00 00            |        ....    |          size: 4 0x1a8-0x1ab.7 (4)
0x01a0|                                    12         |            .   |          bind: "global" (1) 0x1ac-0x1ac.3 (0.4)
0x01a0|                                    12         |            .   |          type: "func" (2) 0x1ac.4-0x1ac.7 (0.4)
0x01a0|                                       00      |             .  |          other_unused: 0 0x1ad-0x1ad.5 (0.6)
0x01a0|                                       00      |             .  |          visibility: "default" (0) 0x1ad.6-0x1ad.7 (0.2)
0x01a0|                                          09 00|              ..|          shndx: 9 0x1ae-0x1af.7 (2)
      |                                               |                |        [11]{}: symbol 0x1b0-0x1bf.7 (16)
0x01b0|80 00 00 00                                    |....            |          name: "libbbb_bbb" (128) 0x1b0-0x1b3.7 (4)
0x01b0|            84 04 00 00                        |    ....        |          value: 1156 0x1b4-0x1b7.7 (4)
0x01b0|                        24 00 00 00            |        $...    |          size: 36 0x1b8-0x1bb.7 (4)
0x01b0|                                    12         |            .   |          bind: "global" (1) 0x1bc-0x1bc.3 (0.4)
0x01b0|                                    12         |            .   |          type: "func" (2) 0x1bc.4-0x1bc.7 (0.4)
0x01b0|                                       00      |             .  |          other_unused: 0 0x1bd-0x1bd.5 (0.6)
0x01b0|                                       00      |             .  |          visibility: "default" (0) 0x1bd.6-0x1bd.7 (0.2)
0x01b0|                                          08 00|              ..|          shndx: 8 0x1be-0x1bf.7 (2)
0x1a60|                        25 00 00 00            |        %...    |      name: ".dynsym" (37) 0x1a68-0x1a6b.7 (4)
0x1a60|                                    0b 00 00 00|            ....|      type: "dynsym" (0xb) (Dynamic linking symbol table) 0x1a6c-0x1a6f.7 (4)
      |                                               |                |      flags{}: 0x1a70-0x1a73.7 (4)
0x1a70|02                                             |.               |        link_order: false 0x1a70-0x1a70 (0.1)
0x1a70|02                                             |.               |        info_link: false 0x1a70.1-0x1a70.1 (0.1)
0x1a70|02                                             |.               |        strings: false 0x1a70.2-0x1a70.2 (0.1)
0x1a70|02                                             |.               |        merge: false 0x1a70.3-0x1a70.3 (0.1)
0x1a70|02                                             |.               |        unused0: 0 0x1a70.4-0x1a70.4 (0.1)
0x1a70|02                                             |.               |        execinstr: false 0x1a70.5-0x1a70.5 (0.1)
0x1a70|02                                             |.               |        alloc: true 0x1a70.6-0x1a70.6 (0.1)
0x1a70|02                                             |.               |        write: false 0x1a70.7-0x1a70.7 (0.1)
0x1a70|   00                                          | .              |        tls: false 0x1a71-0x1a71 (0.1)
0x1a70|   00                                          | .              |        group: false 0x1a71.1-0x1a71.1 (0.1)
0x1a70|   00                                          | .              |        os_nonconforming: false 0x1a71.2-0x1a71.2 (0.1)
0x1a70|   00 00                                       | ..             |        unused1: 0 0x1a71.3-0x1a72.3 (1.1)
0x1a70|      00 00                                    |  ..            |        os_specific: 0 0x1a72.4-0x1a73.3 (1)
0x1a70|         00                                    |   .            |        processor_specific: 0 0x1a73.4-0x1a73.7 (0.4)
0x1a70|            00 01 00 00                        |    ....        |      addr: 0x100 0x1a74-0x1a77.7 (4)
0x1a70|                        00 01 00 00            |        ....    |      offset: 256 0x1a78-0x1a7b.7 (4)
0x1a70|                                    c0 00 00 00|            ....|      size: 0xc0 0x1a7c-0x1a7f.7 (4)
0x1a80|03 00 00 00                                    |....            |      link: 3 0x1a80-0x1a83.7 (4)
0x1a80|            03 00 00 00                        |    ....        |      info: 3 0x1a84-0x1a87.7 (4)
0x1a80|                        04 00 00 00            |        ....    |      addralign: 4 0x1a88-0x1a8b.7 (4)
0x1a80|                                    10 00 00 00|            ....|      entsize: 16 0x1a8c-0x1a8f.7 (4)
      |                                               |                |    [3]{}: section_header 0x1c0-0x1ab7.7 (6392)
0x01c0|00 5f 69 6e 69 74 00 5f 66 69 6e 69 00 5f 49 54|._init._fini._IT|      string: "\x00_init\x00_fini\x00_ITM_deregisterTMCloneTable\x00_ITM_regi"... 0x1c0-0x264.7 (165)
*     |until 0x264.7 (165)                            |                |
0x1a90|2d 00 00 00                                    |-...            |      name: ".dynstr" (45) 0x1a90-0x1a93.7 (4)
0x1a90|            03 00 00 00                        |    ....        |      type: "strtab" (0x3) (String table) 0x1a94-0x1a97.7 (4)
      |                                               |                |      flags{}: 0x1a98-0x1a9b.7 (4)
0x1a90|                        02                     |        .       |        link_order: false 0x1a98-0x1a98 (0.1)
0x1a90|                        02                     |        .       |        info_link: false 0x1a98.1-0x1a98.1 (0.1)
0x1a90|                        02                     |        .       |        strings: false 0x1a98.2-0x1a98.2 (0.1)
0x1a90|                        02                     |        .       |        merge: false 0x1a98.3-0x1a98.3 (0.1)
0x1a90|                        02                     |        .       |        unused0: 0 0x1a98.4-0x1a98.4 (0.1)
0x1a90|                        02                     |        .       |        execinstr: false 0x1a98.5-0x1a98.5 (0.1)
0x1a90|                        02                     |        .       |        alloc: true 0x1a98.6-0x1a98.6 (0.1)
0x1a90|                        02                     |        .       |        write: false 0x1a98.7-0x1a98.7 (0.1)
0x1a90|                           00                  |         .      |        tls: false 0x1a99-0x1a99 (0.1)
0x1a90|                           00                  |         .      |        group: false 0x1a99.1-0x1a99.1 (0.1)
0x1a90|                           00                  |         .      |        os_nonconforming: false 0x1a99.2-0x1a99.2 (0.1)
0x1a90|                           00 00               |         ..     |        unused1: 0 0x1a99.3-0x1a9a.3 (1.1)
0x1a90|                              00 00            |          ..    |        os_specific: 0 0x1a9a.4-0x1a9b.3 (1)
0x1a90|                                 00            |           .    |        processor_specific: 0 0x1a9b.4-0x1a9b.7 (0.4)
0x1a90|                                    c0 01 00 00|            ....|      addr: 0x1c0 0x1a9c-0x1a9f.7 (4)
0x1aa0|c0 01 00 00                                    |....            |      offset: 448 0x1aa0-0x1aa3.7 (4)
0x1aa0|            a5 00 00 00                        |    ....        |      size: 0xa5 0x1aa4-0x1aa7.7 (4)
0x1aa0|                        00 00 00 00            |        ....    |      link: 0 0x1aa8-0x1aab.7 (4)
0x1aa0|                                    00 00 00 00|            ....|      info: 0 0x1aac-0x1aaf.7 (4)
0x1ab0|01 00 00 00                                    |....            |      addralign: 1 0x1ab0-0x1ab3.7 (4)
0x1ab0|            00 00 00 00                        |    ....        |      entsize: 0 0x1ab4-0x1ab7.7 (4)
      |                                               |                |    [4]{}: section_header 0x268-0x1adf.7 (6264)
0x0260|                        f0 0e 01 00 17 00 00 00|        ........|      data: raw bits 0x268-0x2a7.7 (64)
0x0270|f4 0e 01 00 17 00 00 00 00 10 01 00 17 00 00 00|................|
*     |until 0x2a7.7 (64)                             |                |
0x1ab0|                        35 00 00 00            |        5...    |      name: ".rel.dyn" (53) 0x1ab8-0x1abb.7 (4)
0x1ab0|                                    09 00 00 00|            ....|      type: "rel" (0x9) (Relocation entries without explicit addends) 0x1abc-0x1abf.7 (4)
      |                                               |                |      flags{}: 0x1ac0-0x1ac3.7 (4)
0x1ac0|02                                             |.               |        link_order: false 0x1ac0-0x1ac0 (0.1)
0x1ac0|02                                             |.               |        info_link: false 0x1ac0.1-0x1ac0.1 (0.1)
0x1ac0|02                                             |.               |        strings: false 0x1ac0.2-0x1ac0.2 (0.1)
0x1ac0|02                                             |.               |        merge: false 0x1ac0.3-0x1ac0.3 (0.1)
0x1ac0|02                                             |.               |        unused0: 0 0x1ac0.4-0x1ac0.4 (0.1)
0x1ac0|02                                             |.               |        execinstr: false 0x1ac0.5-0x1ac0.5 (0.1)
0x1ac0|02                                             |.               |        alloc: true 0x1ac0.6-0x1ac0.6 (0.1)
0x1ac0|02                                             |.               |        write: false 0x1ac0.7-0x1ac0.7 (0.1)
0x1ac0|   00                                          | .              |        tls: false 0x1ac1-0x1ac1 (0.1)
0x1ac0|   00                                          | .              |        group: false 0x1ac1.1-0x1ac1.1 (0.1)
0x1ac0|   00                                          | .              |        os_nonconforming: false 0x1ac1.2-0x1ac1.2 (0.1)
0x1ac0|   00 00                                       | ..             |        unused1: 0 0x1ac1.3-0x1ac2.3 (1.1)
0x1ac0|      00 00                                    |  ..            |        os_specific: 0 0x1ac2.4-0x1ac3.3 (1)
0x1ac0|         00                                    |   .            |        processor_specific: 0 0x1ac3.4-0x1ac3.7 (0.4)
0x1ac0|            68 02 00 00                        |    h...        |      addr: 0x268 0x1ac4-0x1ac7.7 (4)
0x1ac0|                        68 02 00 00            |        h...    |      offset: 616 0x1ac8-0x1acb.7 (4)
0x1ac0|                                    40 00 00 00|            @...|      size: 0x40 0x1acc-0x1acf.7 (4)
0x1ad0|02 00 00 00                                    |....            |      link: 2 0x1ad0-0x1ad3.7 (4)
0x1ad0|            00 00 00 00                        |    ....        |      info: 0 0x1ad4-0x1ad7.7 (4)
0x1ad0|                        04 00 00 00            |        ....    |      addralign: 4 0x1ad8-0x1adb.7 (4)
0x1ad0|                                    08 00 00 00|            ....|      entsize: 8 0x1adc-0x1adf.7 (4)
      |                                               |                |    [5]{}: section_header 0x2a8-0x1b07.7 (6240)
0x02a0|                        dc 0f 01 00 16 03 00 00|        ........|      data: raw bits 0x2a8-0x2c7.7 (32)
0x02b0|e0 0f 01 00 16 04 00 00 e4 0f 01 00 16 05 00 00|................|
0x02c0|e8 0f 01 00 16 08 00 00                        |........        |
0x1ae0|3e 00 00 00                                    |>...            |      name: ".rel.plt" (62) 0x1ae0-0x1ae3.7 (4)
0x1ae0|            09 00 00 00                        |    ....        |      type: "rel" (0x9) (Relocation entries without explicit addends) 0x1ae4-0x1ae7.7 (4)
      |                                               |                |      flags{}: 0x1ae8-0x1aeb.7 (4)
0x1ae0|                        42                     |        B       |        link_order: false 0x1ae8-0x1ae8 (0.1)
0x1ae0|                        42                     |        B       |        info_link: true 0x1ae8.1-0x1ae8.1 (0.1)
0x1ae0|                        42                     |        B       |        strings: false 0x1ae8.2-0x1ae8.2 (0.1)
0x1ae0|                        42                     |        B       |        merge: false 0x1ae8.3-0x1ae8.3 (0.1)
0x1ae0|                        42                     |        B       |        unused0: 0 0x1ae8.4-0x1ae8.4 (0.1)
0x1ae0|                        42                     |        B       |        execinstr: false 0x1ae8.5-0x1ae8.5 (0.1)
0x1ae0|                        42                     |        B       |        alloc: true 0x1ae8.6-0x1ae8.6 (0.1)
0x1ae0|                        42                     |        B       |        write: false 0x1ae8.7-0x1ae8.7 (0.1)
0x1ae0|                           00                  |         .      |        tls: false 0x1ae9-0x1ae9 (0.1)
0x1ae0|                           00                  |         .      |        group: false 0x1ae9.1-0x1ae9.1 (0.1)
0x1ae0|                           00                  |         .      |        os_nonconforming: false 0x1ae9.2-0x1ae9.2 (0.1)
0x1ae0|                           00 00               |         ..     |        unused1: 0 0x1ae9.3-0x1aea.3 (1.1)
0x1ae0|                              00 00            |          ..    |        os_specific: 0 0x1aea.4-0x1aeb.3 (1)
0x1ae0|                                 00            |           .    |        processor_specific: 0 0x1aeb.4-0x1aeb.7 (0.4)
0x1ae0|                                    a8 02 00 00|            ....|      addr: 0x2a8 0x1aec-0x1aef.7 (4)
0x1af0|a8 02 00 00                                    |....            |      offset: 680 0x1af0-0x1af3.7 (4)
0x1af0|            20 00 00 00                        |     ...        |      size: 0x20 0x1af4-0x1af7.7 (4)
0x1af0|                        02 00 00 00            |        ....    |      link: 2 0x1af8-0x1afb.7 (4)
0x1af0|                                    0f 00 00 00|            ....|      info: 15 0x1afc-0x1aff.7 (4)
0x1b00|04 00 00 00                                    |....            |      addralign: 4 0x1b00-0x1b03.7 (4)
0x1b00|            08 00 00 00                        |    ....        |      entsize: 8 0x1b04-0x1b07.7 (4)
      |                                               |                |    [6]{}: section_header 0x2c8-0x1b2f.7 (6248)
0x02c0|                        01 40 2d e9 01 40 bd e8|        .@-..@..|      data: raw bits 0x2c8-0x2d3.7 (12)
0x02d0|1e ff 2f e1                                    |../.            |
0x1b00|                        47 00 00 00            |        G...    |      name: ".init" (71) 0x1b08-0x1b0b.7 (4)
0x1b00|                                    01 00 00 00|            ....|      type: "progbits" (0x1) (Information defined by the program) 0x1b0c-0x1b0f.7 (4)
      |                                               |                |      flags{}: 0x1b10-0x1b13.7 (4)
0x1b10|06                                             |.               |        link_order: false 0x1b10-0x1b10 (0.1)
0x1b10|06                                             |.               |        info_link: false 0x1b10.1-0x1b10.1 (0.1)
0x1b10|06                                             |.               |        strings: false 0x1b10.2-0x1b10.2 (0.1)
0x1b10|06                                             |.               |        merge: false 0x1b10.3-0x1b10.3 (0.1)
0x1b10|06                                             |.               |        unused0: 0 0x1b10.4-0x1b10.4 (0.1)
0x1b10|06                                             |.               |        execinstr: true 0x1b10.5-0x1b10.5 (0.1)
0x1b10|06                                             |.               |        alloc: true 0x1b10.6-0x1b10.6 (0.1)
0x1b10|06                                             |.               |        write: false 0x1b10.7-0x1b10.7 (0.1)
0x1b10|   00                                          | .              |        tls: false 0x1b11-0x1b11 (0.1)
0x1b10|   00                                          | .              |        group: false 0x1b11.1-0x1b11.1 (0.1)
0x1b10|   00                                          | .              |        os_nonconforming: false 0x1b11.2-0x1b11.2 (0.1)
0x1b10|   00 00                                       | ..             |        unused1: 0 0x1b11.3-0x1b12.3 (1.1)
0x1b10|      00 00                                    |  ..            |        os_specific: 0 0x1b12.4-0x1b13.3 (1)
0x1b10|         00                                    |   .            |        processor_specific: 0 0x1b13.4-0x1b13.7 (0.4)
0x1b10|            c8 02 00 00                        |    ....        |      addr: 0x2c8 0x1b14-0x1b17.7 (4)
0x1b10|                        c8 02 00 00            |        ....    |      offset: 712 0x1b18-0x1b1b.7 (4)
0x1b10|                                    0c 00 00 00|            ....|      size: 0xc 0x1b1c-0x1b1f.7 (4)
0x1b20|00 00 00 00                                    |....            |      link: 0 0x1b20-0x1b23.7 (4)
0x1b20|            00 00 00 00                        |    ....        |      info: 0 0x1b24-0x1b27.7 (4)
0x1b20|                        04 00 00 00            |        ....    |      addralign: 4 0x1b28-0x1b2b.7 (4)
0x1b20|                                    00 00 00 00|            ....|      entsize: 0 0x1b2c-0x1b2f.7 (4)
      |                                               |                |    [7]{}: section_header 0x2d4-0x1b57.7 (6276)
0x02d0|            04 e0 2d e5 04 e0 9f e5 0e e0 8f e0|    ..-.........|      data: raw bits 0x2d4-0x317.7 (68)
0x02e0|08 f0 be e5 ec 0c 01 00 00 c6 8f e2 10 ca 8c e2|................|
*     |until 0x317.7 (68)                             |                |
0x1b30|42 00 00 00                                    |B...            |      name: ".plt" (66) 0x1b30-0x1b33.7 (4)
0x1b30|            01 00 00 00                        |    ....        |      type: "progbits" (0x1) (Information defined by the program) 0x1b34-0x1b37.7 (4)
      |                                               |                |      flags{}: 0x1b38-0x1b3b.7 (4)
0x1b30|                        06                     |        .       |        link_order: false 0x1b38-0x1b38 (0.1)
0x1b30|                        06                     |        .       |        info_link: false 0x1b38.1-0x1b38.1 (0.1)
0x1b30|                        06                     |        .       |        strings: false 0x1b38.2-0x1b38.2 (0.1)
0x1b30|                        06                     |        .       |        merge: false 0x1b38.3-0x1b38.3 (0.1)
0x1b30|                        06                     |        .       |        unused0: 0 0x1b38.4-0x1b38.4 (0.1)
0x1b30|                        06                     |        .       |        execinstr: true 0x1b38.5-0x1b38.5 (0.1)
0x1b30|                        06                     |        .       |        alloc: true 0x1b38.6-0x1b38.6 (0.1)
0x1b30|                        06                     |        .       |        write: false 0x1b38.7-0x1b38.7 (0.1)
0x1b30|                           00                  |         .      |        tls: false 0x1b39-0x1b39 (0.1)
0x1b30|                           00                  |         .      |        group: false 0x1b39.1-0x1b39.1 (0.1)
0x1b30|                           00                  |         .      |        os_nonconforming: false 0x1b39.2-0x1b39.2 (0.1)
0x1b30|                           00 00               |         ..     |        unused1: 0 0x1b39.3-0x1b3a.3 (1.1)
0x1b30|                              00 00            |          ..    |        os_specific: 0 0x1b3a.4-0x1b3b.3 (1)
0x1b30|                                 00            |           .    |        processor_specific: 0 0x1b3b.4-0x1b3b.7 (0.4)
0x1b30|                                    d4 02 00 00|            ....|      addr: 0x2d4 0x1b3c-0x1b3f.7 (4)
0x1b40|d4 02 00 00                                    |....            |      offset: 724 0x1b40-0x1b43.7 (4)
0x1b40|            44 00 00 00                        |    D...        |      size: 0x44 0x1b44-0x1b47.7 (4)
0x1b40|                        00 00 00 00            |        ....    |      link: 0 0x1b48-0x1b4b.7 (4)
0x1b40|                                    00 00 00 00|            ....|      info: 0 0x1b4c-0x1b4f.7 (4)
0x1b50|04 00 00 00                                    |....            |      addralign: 4 0x1b50-0x1b53.7 (4)
0x1b50|            04 00 00 00                        |    ....        |      entsize: 4 0x1b54-0x1b57.7 (4)
      |                                               |                |    [8]{}: section_header 0x318-0x1b7f.7 (6248)
0x0310|                        2c 00 9f e5 2c 30 9f e5|        ,...,0..|      data: raw bits 0x318-0x4a7.7 (400)
0x0320|00 00 8f e0 03 30 8f e0 00 00 53 e1 20 30 9f e5|.....0....S. 0..|
*     |until 0x4a7.7 (400)                            |                |
0x1b50|                        4d 00 00 00            |        M...    |      name: ".text" (77) 0x1b58-0x1b5b.7 (4)
0x1b50|                                    01 00 00 00|            ....|      type: "progbits" (0x1) (Information defined by the program) 0x1b5c-0x1b5f.7 (4)
      |                                               |                |      flags{}: 0x1b60-0x1b63.7 (4)
0x1b60|06                                             |.               |        link_order: false 0x1b60-0x1b60 (0.1)
0x1b60|06                                             |.               |        info_link: false 0x1b60.1-0x1b60.1 (0.1)
0x1b60|06                                             |.               |        strings: false 0x1b60.2-0x1b60.2 (0.1)
0x1b60|06                                             |.               |        merge: false 0x1b60.3-0x1b60.3 (0.1)
0x1b60|06                                             |.               |        unused0: 0 0x1b60.4-0x1b60.4 (0.1)
0x1b60|06                                             |.               |        execinstr: true 0x1b60.5-0x1b60.5 (0.1)
0x1b60|06                                             |.               |        alloc: true 0x1b60.6-0x1b60.6 (0.1)
0x1b60|06                                             |.               |        write: false 0x1b60.7-0x1b60.7 (0.1)
0x1b60|   00                                          | .              |        tls: false 0x1b61-0x1b61 (0.1)
0x1b60|   00                                          | .              |        group: false 0x1b61.1-0x1b61.1 (0.1)
0x1b60|   00                                          | .              |        os_nonconforming: false 0x1b61.2-0x1b61.2 (0.1)
0x1b60|   00 00                                       | ..             |        unused1: 0 0x1b61.3-0x1b62.3 (1.1)
0x1b60|      00 00                                    |  ..            |        os_specific: 0 0x1b62.4-0x1b63.3 (1)
0x1b60|         00                                    |   .            |        processor_specific: 0 0x1b63.4-0x1b63.7 (0.4)
0x1b60|            18 03 00 00                        |    ....        |      addr: 0x318 0x1b64-0x1b67.7 (4)
0x1b60|                        18 03 00 00            |        ....    |      offset: 792 0x1b68-0x1b6b.7 (4)
0x1b60|                                    90 01 00 00|            ....|      size: 0x190 0x1b6c-0x1b6f.7 (4)
0x1b70|00 00 00 00                                    |....            |      link: 0 0x1b70-0x1b73.7 (4)
0x1b70|            00 00 00 00                        |    ....        |      info: 0 0x1b74-0x1b77.7 (4)
0x1b70|                        04 00 00 00            |        ....    |      addralign: 4 0x1b78-0x1b7b.7 (4)
0x1b70|                                    00 00 00 00|            ....|      entsize: 0 0x1b7c-0x1b7f.7 (4)
      |                                               |                |    [9]{}: section_header 0x4a8-0x1ba7.7 (5888)
0x04a0|                        01 40 2d e9 01 40 bd e8|        .@-..@..|      data: raw bits 0x4a8-0x4b3.7 (12)
0x04b0|1e ff 2f e1                                    |../.            |
0x1b80|53 00 00 00                                    |S...            |      name: ".fini" (83) 0x1b80-0x1b83.7 (4)
0x1b80|            01 00 00 00                        |    ....        |      type: "progbits" (0x1) (Information defined by the program) 0x1b84-0x1b87.7 (4)
      |                                               |                |      flags{}: 0x1b88-0x1b8b.7 (4)
0x1b80|                        06                     |        .       |        link_order: false 0x1b88-0x1b88 (0.1)
0x1b80|                        06                     |        .       |        info_link: false 0x1b88.1-0x1b88.1 (0.1)
0x1b80|                        06                     |        .       |        strings: false 0x1b88.2-0x1b88.2 (0.1)
0x1b80|                        06                     |        .       |        merge: false 0x1b88.3-0x1b88.3 (0.1)
0x1b80|                        06                     |        .       |        unused0: 0 0x1b88.4-0x1b88.4 (0.1)
0x1b80|                        06                     |        .       |        execinstr: true 0x1b88.5-0x1b88.5 (0.1)
0x1b80|                        06                     |        .       |        alloc: true 0x1b88.6-0x1b88.6 (0.1)
0x1b80|                        06                     |        .       |        write: false 0x1b88.7-0x1b88.7 (0.1)
0x1b80|                           00                  |         .      |        tls: false 0x1b89-0x1b89 (0.1)
0x1b80|                           00                  |         .      |        group: false 0x1b89.1-0x1b89.1 (0.1)
0x1b80|                           00                  |         .      |        os_nonconforming: false 0x1b89.2-0x1b89.2 (0.1)
0x1b80|                           00 00               |         ..     |        unused1: 0 0x1b89.3-0x1b8a.3 (1.1)
0x1b80|                              00 00            |          ..    |        os_specific: 0 0x1b8a.4-0x1b8b.3 (1)
0x1b80|                                 00            |           .    |        processor_specific: 0 0x1b8b.4-0x1b8b.7 (0.4)
0x1b80|                                    a8 04 00 00|            ....|      addr: 0x4a8 0x1b8c-0x1b8f.7 (4)
0x1b90|a8 04 00 00                                    |....            |      offset: 1192 0x1b90-0x1b93.7 (4)
0x1b90|            0c 00 00 00                        |    ....        |      size: 0xc 0x1b94-0x1b97.7 (4)
0x1b90|                        00 00 00 00            |        ....    |      link: 0 0x1b98-0x1b9b.7 (4)
0x1b90|                                    00 00 00 00|            ....|      info: 0 0x1b9c-0x1b9f.7 (4)
0x1ba0|04 00 00 00                                    |....            |      addralign: 4 0x1ba0-0x1ba3.7 (4)
0x1ba0|            00 00 00 00                        |    ....        |      entsize: 0 0x1ba4-0x1ba7.7 (4)
      |                                               |                |    [10]{}: section_header 0x4b4-0x1bcf.7 (5916)
0x04b0|            3b 00 00 00 3e 00 00 00 0b 00 00 00|    ;...>.......|      data: raw bits 0x4b4-0x5df.7 (300)
0x04c0|3e 00 00 00 10 00 00 00 3e 00 00 00 25 00 00 00|>.......>...%...|
*     |until 0x5df.7 (300)                            |                |
0x1ba0|                        59 00 00 00            |        Y...    |      name: ".rodata" (89) 0x1ba8-0x1bab.7 (4)
0x1ba0|                                    01 00 00 00|            ....|      type: "progbits" (0x1) (Information defined by the program) 0x1bac-0x1baf.7 (4)
      |                                               |                |      flags{}: 0x1bb0-0x1bb3.7 (4)
0x1bb0|02                                             |.               |        link_order: false 0x1bb0-0x1bb0 (0.1)
0x1bb0|02                                             |.               |        info_link: false 0x1bb0.1-0x1bb0.1 (0.1)
0x1bb0|02                                             |.               |        strings: false 0x1bb0.2-0x1bb0.2 (0.1)
0x1bb0|02                                             |.               |        merge: false 0x1bb0.3-0x1bb0.3 (0.1)
0x1bb0|02                                             |.               |        unused0: 0 0x1bb0.4-0x1bb0.4 (0.1)
0x1bb0|02                                             |.               |        execinstr: false 0x1bb0.5-0x1bb0.5 (0.1)
0x1bb0|02                                             |.               |        alloc: true 0x1bb0.6-0x1bb0.6 (0.1)
0x1bb0|02                                             |.               |        write: false 0x1bb0.7-0x1bb0.7 (0.1)
0x1bb0|   00                                          | .              |        tls: false 0x1bb1-0x1bb1 (0.1)
0x1bb0|   00                                          | .              |        group: false 0x1bb1.1-0x1bb1.1 (0.1)
0x1bb0|   00                                          | .              |        os_nonconforming: false 0x1bb1.2-0x1bb1.2 (0.1)
0x1bb0|   00 00                                       | ..             |        unused1: 0 0x1bb1.3-0x1bb2.3 (1.1)
0x1bb0|      00 00                                    |  ..            |        os_specific: 0 0x1bb2.4-0x1bb3.3 (1)
0x1bb0|         00                                    |   .            |        processor_specific: 0 0x1bb3.4-0x1bb3.7 (0.4)
0x1bb0|            b4 04 00 00                        |    ....        |      addr: 0x4b4 0x1bb4-0x1bb7.7 (4)
0x1bb0|                        b4 04 00 00            |        ....    |      offset: 1204 0x1bb8-0x1bbb.7 (4)
0x1bb0|                                    2c 01 00 00|            ,...|      size: 0x12c 0x1bbc-0x1bbf.7 (4)
0x1bc0|00 00 00 00                                    |....            |      link: 0 0x1bc0-0x1bc3.7 (4)
0x1bc0|            00 00 00 00                        |    ....        |      info: 0 0x1bc4-0x1bc7.7 (4)
0x1bc0|                        04 00 00 00            |        ....    |      addralign: 4 0x1bc8-0x1bcb.7 (4)
0x1bc0|                                    00 00 00 00|            ....|      entsize: 0 0x1bcc-0x1bcf.7 (4)
      |                                               |                |    [11]{}: section_header 0x5e0-0x1bf7.7 (5656)
0x05e0|00 00 00 00                                    |....            |      data: raw bits 0x5e0-0x5e3.7 (4)
0x1bd0|61 00 00 00                                    |a...            |      name: ".eh_frame" (97) 0x1bd0-0x1bd3.7 (4)
0x1bd0|            01 00 00 00                        |    ....        |      type: "progbits" (0x1) (Information defined by the program) 0x1bd4-0x1bd7.7 (4)
      |                                               |                |      flags{}: 0x1bd8-0x1bdb.7 (4)
0x1bd0|                        02                     |        .       |        link_order: false 0x1bd8-0x1bd8 (0.1)
0x1bd0|                        02                     |        .       |        info_link: false 0x1bd8.1-0x1bd8.1 (0.1)
0x1bd0|                        02                     |        .       |        strings: false 0x1bd8.2-0x1bd8.2 (0.1)
0x1bd0|                        02                     |        .       |        merge: false 0x1bd8.3-0x1bd8.3 (0.1)
0x1bd0|                        02                     |        .       |        unused0: 0 0x1bd8.4-0x1bd8.4 (0.1)
0x1bd0|                        02                     |        .       |        execinstr: false 0x1bd8.5-0x1bd8.5 (0.1)
0x1bd0|                        02                     |        .       |        alloc: true 0x1bd8.6-0x1bd8.6 (0.1)
0x1bd0|                        02                     |        .       |        write: false 0x1bd8.7-0x1bd8.7 (0.1)
0x1bd0|                           00                  |         .      |        tls: false 0x1bd9-0x1bd9 (0.1)
0x1bd0|                           00                  |         .      |        group: false 0x1bd9.1-0x1bd9.1 (0.1)
0x1bd0|                           00                  |         .      |        os_nonconforming: false 0x1bd9.2-0x1bd9.2 (0.1)
0x1bd0|                           00 00               |         ..     |        unused1: 0 0x1bd9.3-0x1bda.3 (1.1)
0x1bd0|                              00 00            |          ..    |        os_specific: 0 0x1bda.4-0x1bdb.3 (1)
0x1bd0|                                 00            |           .    |        processor_specific: 0 0x1bdb.4-0x1bdb.7 (0.4)
0x1bd0|                                    e0 05 00 00|            ....|      addr: 0x5e0 0x1bdc-0x1bdf.7 (4)
0x1be0|e0 05 00 00                                    |....            |      offset: 1504 0x1be0-0x1be3.7 (4)
0x1be0|            04 00 00 00                        |    ....        |      size: 0x4 0x1be4-0x1be7.7 (4)
0x1be0|                        00 00 00 00            |        ....    |      link: 0 0x1be8-0x1beb.7 (4)
0x1be0|                                    00 00 00 00|            ....|      info: 0 0x1bec-0x1bef.7 (4)
0x1bf0|04 00 00 00                                    |....            |      addralign: 4 0x1bf0-0x1bf3.7 (4)
0x1bf0|            00 00 00 00                        |    ....        |      entsize: 0 0x1bf4-0x1bf7.7 (4)
      |                                               |                |    [12]{}: section_header 0xef0-0x1c1f.7 (3376)
0x0ef0|38 04 00 00                                    |8...            |      data: raw bits 0xef0-0xef3.7 (4)
0x1bf0|                        6b 00 00 00            |        k...    |      name: ".init_array" (107) 0x1bf8-0x1bfb.7 (4)
0x1bf0|                                    0e 00 00 00|            ....|      type: "init_array" (0xe) (Initialization functions) 0x1bfc-0x1bff.7 (4)
      |                                               |                |      flags{}: 0x1c00-0x1c03.7 (4)
0x1c00|03                                             |.               |        link_order: false 0x1c00-0x1c00 (0.1)
0x1c00|03                                             |.               |        info_link: false 0x1c00.1-0x1c00.1 (0.1)
0x1c00|03                                             |.               |        strings: false 0x1c00.2-0x1c00.2 (0.1)
0x1c00|03                                             |.               |        merge: false 0x1c00.3-0x1c00.3 (0.1)
0x1c00|03                                             |.               |        unused0: 0 0x1c00.4-0x1c00.4 (0.1)
0x1c00|03                                             |.               |        execinstr: false 0x1c00.5-0x1c00.5 (0.1)
0x1c00|03                                             |.               |        alloc: true 0x1c00.6-0x1c00.6 (0.1)
0x1c00|03                                             |.               |        write: true 0x1c00.7-0x1c00.7 (0.1)
0x1c00|   00                                          | .              |        tls: false 0x1c01-0x1c01 (0.1)
0x1c00|   00                                          | .              |        group: false 0x1c01.1-0x1c01.1 (0.1)
0x1c00|   00                                          | .              |        os_nonconforming: false 0x1c01.2-0x1c01.2 (0.1)
0x1c00|   00 00                                       | ..             |        unused1: 0 0x1c01.3-0x1c02.3 (1.1)
0x1c00|      00 00                                    |  ..            |        os_specific: 0 0x1c02.4-0x1c03.3 (1)
0x1c00|         00                                    |   .            |        processor_specific: 0 0x1c03.4-0x1c03.7 (0.4)
0x1c00|            f0 0e 01 00                        |    ....        |      addr: 0x10ef0 0x1c04-0x1c07.7 (4)
0x1c00|                        f0 0e 00 00            |        ....    |      offset: 3824 0x1c08-0x1c0b.7 (4)
0x1c00|                                    04 00 00 00|            ....|      size: 0x4 0x1c0c-0x1c0f.7 (4)
0x1c10|00 00 00 00                                    |....            |      link: 0 0x1c10-0x1c13.7 (4)
0x1c10|            00 00 00 00                        |    ....        |      info: 0 0x1c14-0x1c17.7 (4)
0x1c10|                        04 00 00 00            |        ....    |      addralign: 4 0x1c18-0x1c1b.7 (4)
0x1c10|                                    04 00 00 00|            ....|      entsize: 4 0x1c1c-0x1c1f.7 (4)
      |                                               |                |    [13]{}: section_header 0xef4-0x1c47.7 (3412)
0x0ef0|            ac 03 00 00                        |    ....        |      data: raw bits 0xef4-0xef7.7 (4)
0x1c20|77 00 00 00                                    |w...            |      name: ".fini_array" (119) 0x1c20-0x1c23.7 (4)
0x1c20|            0f 00 00 00                        |    ....        |      type: "fini_array" (0xf) (Termination functions) 0x1c24-0x1c27.7 (4)
      |                                               |                |      flags{}: 0x1c28-0x1c2b.7 (4)
0x1c20|                        03                     |        .       |        link_order: false 0x1c28-0x1c28 (0.1)
0x1c20|                        03                     |        .       |        info_link: false 0x1c28.1-0x1c28.1 (0.1)
0x1c20|                        03                     |        .       |        strings: false 0x1c28.2-0x1c28.2 (0.1)
0x1c20|                        03                     |        .       |        merge: false 0x1c28.3-0x1c28.3 (0.1)
0x1c20|                        03                     |        .       |        unused0: 0 0x1c28.4-0x1c28.4 (0.1)
0x1c20|                        03                     |        .       |        execinstr: false 0x1c28.5-0x1c28.5 (0.1)
0x1c20|                        03                     |        .       |        alloc: true 0x1c28.6-0x1c28.6 (0.1)
0x1c20|                        03                     |        .       |        write: true 0x1c28.7-0x1c28.7 (0.1)
0x1c20|                           00                  |         .      |        tls: false 0x1c29-0x1c29 (0.1)
0x1c20|                           00                  |         .      |        group: false 0x1c29.1-0x1c29.1 (0.1)
0x1c20|                           00                  |         .      |        os_nonconforming: false 0x1c29.2-0x1c29.2 (0.1)
0x1c20|                           00 00               |         ..     |        unused1: 0 0x1c29.3-0x1c2a.3 (1.1)
0x1c20|                              00 00            |          ..    |        os_specific: 0 0x1c2a.4-0x1c2b.3 (1)
0x1c20|                                 00            |           .    |        processor_specific: 0 0x1c2b.4-0x1c2b.7 (0.4)
0x1c20|                                    f4 0e 01 00|            ....|      addr: 0x10ef4 0x1c2c-0x1c2f.7 (4)
0x1c30|f4 0e 00 00                                    |....            |      offset: 3828 0x1c30-0x1c33.7 (4)
0x1c30|            04 00 00 00                        |    ....        |      size: 0x4 0x1c34-0x1c37.7 (4)
0x1c30|                        00 00 00 00            |        ....    |      link: 0 0x1c38-0x1c3b.7 (4)
0x1c30|                                    00 00 00 00|            ....|      info: 0 0x1c3c-0x1c3f.7 (4)
0x1c40|04 00 00 00                                    |....            |      addralign: 4 0x1c40-0x1c43.7 (4)
0x1c40|            04 00 00 00                        |    ....        |      entsize: 4 0x1c44-0x1c47.7 (4)
      |                                               |                |    [14]{}: section_header 0xef8-0x1c6f.7 (3448)
      |                                               |                |      dynamic_tags[0:23]: 0xef8-0xfaf.7 (184)
      |                                               |                |        [0]{}: dynamic_tags 0xef8-0xeff.7 (8)
0x0ef0|                        01 00 00 00            |        ....    |          tag: "needed" (1) (String table offset to name of a needed library) 0xef8-0xefb.7 (4)
0x0ef0|                                    90 00 00 00|            ....|          val: "libc.musl-armhf.so.1" (144) 0xefc-0xeff.7 (4)
      |                                               |                |        [1]{}: dynamic_tags 0xf00-0xf07.7 (8)
0x0f00|0c 00 00 00                                    |....            |          tag: "init" (12) (Address of the initialization function) 0xf00-0xf03.7 (4)
0x0f00|            c8 02 00 00                        |    ....        |          ptr: 0x2c8 0xf04-0xf07.7 (4)
      |                                               |                |          section_index: 6 0xf08-NA (0)
      |                                               |                |        [2]{}: dynamic_tags 0xf08-0xf0f.7 (8)
0x0f00|                        0d 00 00 00            |        ....    |          tag: "fini" (13) (Address of the termination function) 0xf08-0xf0b.7 (4)
0x0f00|                                    a8 04 00 00|            ....|          ptr: 0x4a8 0xf0c-0xf0f.7 (4)
      |                                               |                |          section_index: 9 0xf10-NA (0)
      |                                               |                |        [3]{}: dynamic_tags 0xf10-0xf17.7 (8)
0x0f10|19 00 00 00                                    |....            |          tag: "init_array" (25) (Address of the array of pointers to initialization functions) 0xf10-0xf13.7 (4)
0x0f10|            f0 0e 01 00                        |    ....        |          ptr: 0x10ef0 0xf14-0xf17.7 (4)
      |                                               |                |        [4]{}: dynamic_tags 0xf18-0xf1f.7 (8)
0x0f10|                        1b 00 00 00            |        ....    |          tag: "init_arraysz" (27) (Size in bytes of the array of initialization functions) 0xf18-0xf1b.7 (4)
0x0f10|                                    04 00 00 00|            ....|          val: 4 0xf1c-0xf1f.7 (4)
      |                                               |                |        [5]{}: dynamic_tags 0xf20-0xf27.7 (8)
0x0f20|1a 00 00 00                                    |....            |          tag: "fini_array" (26) (Address of the array of pointers to termination functions) 0xf20-0xf23.7 (4)
0x0f20|            f4 0e 01 00                        |    ....        |          ptr: 0x10ef4 0xf24-0xf27.7 (4)
      |                                               |                |        [6]{}: dynamic_tags 0xf28-0xf2f.7 (8)
0x0f20|                        1c 00 00 00            |        ....    |          tag: "fini_arraysz" (28) (Size in bytes of the array of termination functions ) 0xf28-0xf2b.7 (4)
0x0f20|                                    04 00 00 00|            ....|          val: 4 0xf2c-0xf2f.7 (4)
      |                                               |                |        [7]{}: dynamic_tags 0xf30-0xf37.7 (8)
0x0f30|f5 fe ff 6f                                    |...o            |          tag: 1879047925 0xf30-0xf33.7 (4)
0x0f30|            d4 00 00 00                        |    ....        |          unspecified: 0xd4 0xf34-0xf37.7 (4)
      |                                               |                |        [8]{}: dynamic_tags 0xf38-0xf3f.7 (8)
0x0f30|                        05 00 00 00            |        ....    |          tag: "strtab" (5) (Address of string table) 0xf38-0xf3b.7 (4)
0x0f30|                                    c0 01 00 00|            ....|          ptr: 0x1c0 0xf3c-0xf3f.7 (4)
      |                                               |                |          section_index: 3 0xf40-NA (0)
      |                                               |                |        [9]{}: dynamic_tags 0xf40-0xf47.7 (8)
0x0f40|06 00 00 00                                    |....            |          tag: "symtab" (6) (Address of symbol table) 0xf40-0xf43.7 (4)
0x0f40|            00 01 00 00                        |    ....        |          ptr: 0x100 0xf44-0xf47.7 (4)
      |                                               |                |          section_index: 2 0xf48-NA (0)
      |                                               |                |        [10]{}: dynamic_tags 0xf48-0xf4f.7 (8)
0x0f40|                        0a 00 00 00            |        ....    |          tag: "strsz" (10) (Size in bytes of string table) 0xf48-0xf4b.7 (4)
0x0f40|                                    a5 00 00 00|            ....|          val: 165 0xf4c-0xf4f.7 (4)
      |                                               |                |        [11]{}: dynamic_tags 0xf50-0xf57.7 (8)
0x0f50|0b 00 00 00                                    |....            |          tag: "syment" (11) (Size in bytes of a symbol table entry) 0xf50-0xf53.7 (4)
0x0f50|            10 00 00 00                        |    ....        |          val: 16 0xf54-0xf57.7 (4)
      |                                               |                |        [12]{}: dynamic_tags 0xf58-0xf5f.7 (8)
0x0f50|                        03 00 00 00            |        ....    |          tag: "pltgot" (3) (Address of PLT and/or GOT) 0xf58-0xf5b.7 (4)
0x0f50|                                    d0 0f 01 00|            ....|          ptr: 0x10fd0 0xf5c-0xf5f.7 (4)
      |                                               |                |          section_index: 15 0xf60-NA (0)
      |                                               |                |        [13]{}: dynamic_tags 0xf60-0xf67.7 (8)
0x0f60|02 00 00 00                                    |....            |          tag: "pltrelsz" (2) (Size in bytes of PLT relocation entries) 0xf60-0xf63.7 (4)
0x0f60|            20 00 00 00                        |     ...        |          val: 32 0xf64-0xf67.7 (4)
      |                                               |                |        [14]{}: dynamic_tags 0xf68-0xf6f.7 (8)
0x0f60|                        14 00 00 00            |        ....    |          tag: "pltrel" (20) (Type of relocation entry to which the PLT refers (Rela or Rel)) 0xf68-0xf6b.7 (4)
0x0f60|                                    11 00 00 00|            ....|          val: 17 0xf6c-0xf6f.7 (4)
      |                                               |                |        [15]{}: dynamic_tags 0xf70-0xf77.7 (8)
0x0f70|17 00 00 00                                    |....            |          tag: "jmprel" (23) (Address of relocation entries associated solely with the PLT) 0xf70-0xf73.7 (4)
0x0f70|            a8 02 00 00                        |    ....        |          ptr: 0x2a8 0xf74-0xf77.7 (4)
      |                                               |                |          section_index: 5 0xf78-NA (0)
      |                                               |                |        [16]{}: dynamic_tags 0xf78-0xf7f.7 (8)
0x0f70|                        11 00 00 00            |        ....    |          tag: "rel" (17) 0xf78-0xf7b.7 (4)
0x0f70|                                    68 02 00 00|            h...|          ptr: 0x268 0xf7c-0xf7f.7 (4)
      |                                               |                |        [17]{}: dynamic_tags 0xf80-0xf87.7 (8)
0x0f80|12 00 00 00                                    |....            |          tag: "relsz" (18) (Size in bytes of Rel relocation table) 0xf80-0xf83.7 (4)
0x0f80|            40 00 00 00                        |    @...        |          val: 64 0xf84-0xf87.7 (4)
      |                                               |                |        [18]{}: dynamic_tags 0xf88-0xf8f.7 (8)
0x0f80|                        13 00 00 00            |        ....    |          tag: "relent" (19) (Size in bytes of a Rel table entry) 0xf88-0xf8b.7 (4)
0x0f80|                                    08 00 00 00|            ....|          val: 8 0xf8c-0xf8f.7 (4)
      |                                               |                |        [19]{}: dynamic_tags 0xf90-0xf97.7 (8)
0x0f90|18 00 00 00                                    |....            |          tag: "bind_now" (24) (Instruct dynamic linker to process all relocations before transferring control to the executable) 0xf90-0xf93.7 (4)
0x0f90|            00 00 00 00                        |    ....        |          ignored: 0x0 0xf94-0xf97.7 (4)
      |                                               |                |        [20]{}: dynamic_tags 0xf98-0xf9f.7 (8)
0x0f90|                        fb ff ff 6f            |        ...o    |          tag: 1879048187 0xf98-0xf9b.7 (4)
0x0f90|                                    01 00 00 00|            ....|          unspecified: 0x1 0xf9c-0xf9f.7 (4)
      |                                               |                |        [21]{}: dynamic_tags 0xfa0-0xfa7.7 (8)
0x0fa0|fa ff ff 6f                                    |...o            |          tag: 1879048186 0xfa0-0xfa3.7 (4)
0x0fa0|            03 00 00 00                        |    ....        |          unspecified: 0x3 0xfa4-0xfa7.7 (4)
      |                                               |                |        [22]{}: dynamic_tags 0xfa8-0xfaf.7 (8)
0x0fa0|                        00 00 00 00            |        ....    |          tag: "null" (0) (Marks end of dynamic section) 0xfa8-0xfab.7 (4)
0x0fa0|                                    00 00 00 00|            ....|          ignored: 0x0 0xfac-0xfaf.7 (4)
0x1c40|                        83 00 00 00            |        ....    |      name: ".dynamic" (131) 0x1c48-0x1c4b.7 (4)
0x1c40|                                    06 00 00 00|            ....|      type: "dynamic" (0x6) (Information for dynamic linking) 0x1c4c-0x1c4f.7 (4)
      |                                               |                |      flags{}: 0x1c50-0x1c53.7 (4)
0x1c50|03                                             |.               |        link_order: false 0x1c50-0x1c50 (0.1)
0x1c50|03                                             |.               |        info_link: false 0x1c50.1-0x1c50.1 (0.1)
0x1c50|03                                             |.               |        strings: false 0x1c50.2-0x1c50.2 (0.1)
0x1c50|03                                             |.               |        merge: false 0x1c50.3-0x1c50.3 (0.1)
0x1c50|03                                             |.               |        unused0: 0 0x1c50.4-0x1c50.4 (0.1)
0x1c50|03                                             |.               |        execinstr: false 0x1c50.5-0x1c50.5 (0.1)
0x1c50|03                                             |.               |        alloc: true 0x1c50.6-0x1c50.6 (0.1)
0x1c50|03                                             |.               |        write: true 0x1c50.7-0x1c50.7 (0.1)
0x1c50|   00                                          | .              |        tls: false 0x1c51-0x1c51 (0.1)
0x1c50|   00                                          | .              |        group: false 0x1c51.1-0x1c51.1 (0.1)
0x1c50|   00                                          | .              |        os_nonconforming: false 0x1c51.2-0x1c51.2 (0.1)
0x1c50|   00 00                                       | ..             |        unused1: 0 0x1c51.3-0x1c52.3 (1.1)
0x1c50|      00 00                                    |  ..            |        os_specific: 0 0x1c52.4-0x1c53.3 (1)
0x1c50|         00                                    |   .            |        processor_specific: 0 0x1c53.4-0x1c53.7 (0.4)
0x1c50|            f8 0e 01 00                        |    ....        |      addr: 0x10ef8 0x1c54-0x1c57.7 (4)
0x1c50|                        f8 0e 00 00            |        ....    |      offset: 3832 0x1c58-0x1c5b.7 (4)
0x1c50|                                    d8 00 00 00|            ....|      size: 0xd8 0x1c5c-0x1c5f.7 (4)
0x1c60|03 00 00 00                                    |....            |      link: 3 0x1c60-0x1c63.7 (4)
0x1c60|            00 00 00 00                        |    ....        |      info: 0 0x1c64-0x1c67.7 (4)
0x1c60|                        04 00 00 00            |        ....    |      addralign: 4 0x1c68-0x1c6b.7 (4)
0x1c60|                                    08 00 00 00|            ....|      entsize: 8 0x1c6c-0x1c6f.7 (4)
      |                                               |                |    [15]{}: section_header 0xfd0-0x1c97.7 (3272)
0x0fd0|f8 0e 01 00 00 00 00 00 00 00 00 00 d4 02 00 00|................|      data: raw bits 0xfd0-0xfff.7 (48)
*     |until 0xfff.7 (48)                             |                |
0x1c70|8c 00 00 00                                    |....            |      name: ".got" (140) 0x1c70-0x1c73.7 (4)
0x1c70|            01 00 00 00                        |    ....        |      type: "progbits" (0x1) (Information defined by the program) 0x1c74-0x1c77.7 (4)
      |                                               |                |      flags{}: 0x1c78-0x1c7b.7 (4)
0x1c70|                        03                     |        .       |        link_order: false 0x1c78-0x1c78 (0.1)
0x1c70|                        03                     |        .       |        info_link: false 0x1c78.1-0x1c78.1 (0.1)
0x1c70|                        03                     |        .       |        strings: false 0x1c78.2-0x1c78.2 (0.1)
0x1c70|                        03                     |        .       |        merge: false 0x1c78.3-0x1c78.3 (0.1)
0x1c70|                        03                     |        .       |        unused0: 0 0x1c78.4-0x1c78.4 (0.1)
0x1c70|                        03                     |        .       |        execinstr: false 0x1c78.5-0x1c78.5 (0.1)
0x1c70|                        03                     |        .       |        alloc: true 0x1c78.6-0x1c78.6 (0.1)
0x1c70|                        03                     |        .       |        write: true 0x1c78.7-0x1c78.7 (0.1)
0x1c70|                           00                  |         .      |        tls: false 0x1c79-0x1c79 (0.1)
0x1c70|                           00                  |         .      |        group: false 0x1c79.1-0x1c79.1 (0.1)
0x1c70|                           00                  |         .      |        os_nonconforming: false 0x1c79.2-0x1c79.2 (0.1)
0x1c70|                           00 00               |         ..     |        unused1: 0 0x1c79.3-0x1c7a.3 (1.1)
0x1c70|                              00 00            |          ..    |        os_specific: 0 0x1c7a.4-0x1c7b.3 (1)
0x1c70|                                 00            |           .    |        processor_specific: 0 0x1c7b.4-0x1c7b.7 (0.4)
0x1c70|                                    d0 0f 01 00|            ....|      addr: 0x10fd0 0x1c7c-0x1c7f.7 (4)
0x1c80|d0 0f 00 00                                    |....            |      offset: 4048 0x1c80-0x1c83.7 (4)
0x1c80|            30 00 00 00                        |    0...        |      size: 0x30 0x1c84-0x1c87.7 (4)
0x1c80|                        00 00 00 00            |        ....    |      link: 0 0x1c88-0x1c8b.7 (4)
0x1c80|                                    00 00 00 00|            ....|      info: 0 0x1c8c-0x1c8f.7 (4)
0x1c90|04 00 00 00                                    |....            |      addralign: 4 0x1c90-0x1c93.7 (4)
0x1c90|            04 00 00 00                        |    ....        |      entsize: 4 0x1c94-0x1c97.7 (4)
      |                                               |                |    [16]{}: section_header 0x1000-0x1cbf.7 (3264)
0x1000|00 10 01 00                                    |....            |      data: raw bits 0x1000-0x1003.7 (4)
0x1c90|                        91 00 00 00            |        ....    |      name: ".data" (145) 0x1c98-0x1c9b.7 (4)
0x1c90|                                    01 00 00 00|            ....|      type: "progbits" (0x1) (Information defined by the program) 0x1c9c-0x1c9f.7 (4)
      |                                               |                |      flags{}: 0x1ca0-0x1ca3.7 (4)
0x1ca0|03                                             |.               |        link_order: false 0x1ca0-0x1ca0 (0.1)
0x1ca0|03                                             |.               |        info_link: false 0x1ca0.1-0x1ca0.1 (0.1)
0x1ca0|03                                             |.               |        strings: false 0x1ca0.2-0x1ca0.2 (0.1)
0x1ca0|03                                             |.               |        merge: false 0x1ca0.3-0x1ca0.3 (0.1)
0x1ca0|03                                             |.               |        unused0: 0 0x1ca0.4-0x1ca0.4 (0.1)
0x1ca0|03                                             |.               |        execinstr: false 0x1ca0.5-0x1ca0.5 (0.1)
0x1ca0|03                                             |.               |        alloc: true 0x1ca0.6-0x1ca0.6 (0.1)
0x1ca0|03                                             |.               |        write: true 0x1ca0.7-0x1ca0.7 (0.1)
0x1ca0|   00                                          | .              |        tls: false 0x1ca1-0x1ca1 (0.1)
0x1ca0|   00                                          | .              |        group: false 0x1ca1.1-0x1ca1.1 (0.1)
0x1ca0|   00                                          | .              |        os_nonconforming: false 0x1ca1.2-0x1ca1.2 (0.1)
0x1ca0|   00 00                                       | ..             |        unused1: 0 0x1ca1.3-0x1ca2.3 (1.1)
0x1ca0|      00 00                                    |  ..            |        os_specific: 0 0x1ca2.4-0x1ca3.3 (1)
0x1ca0|         00                                    |   .            |        processor_specific: 0 0x1ca3.4-0x1ca3.7 (0.4)
0x1ca0|            00 10 01 00                        |    ....        |      addr: 0x11000 0x1ca4-0x1ca7.7 (4)
0x1ca0|                        00 10 00 00            |        ....    |      offset: 4096 0x1ca8-0x1cab.7 (4)
0x1ca0|                                    04 00 00 00|            ....|      size: 0x4 0x1cac-0x1caf.7 (4)
0x1cb0|00 00 00 00                                    |....            |      link: 0 0x1cb0-0x1cb3.7 (4)
0x1cb0|            00 00 00 00                        |    ....        |      info: 0 0x1cb4-0x1cb7.7 (4)
0x1cb0|                        04 00 00 00            |        ....    |      addralign: 4 0x1cb8-0x1cbb.7 (4)
0x1cb0|                                    00 00 00 00|            ....|      entsize: 0 0x1cbc-0x1cbf.7 (4)
      |                                               |                |    [17]{}: section_header 0x1cc0-0x1ce7.7 (40)
0x1cc0|97 00 00 00                                    |....            |      name: ".bss" (151) 0x1cc0-0x1cc3.7 (4)
0x1cc0|            08 00 00 00                        |    ....        |      type: "nobits" (0x8) (No space in the file) 0x1cc4-0x1cc7.7 (4)
      |                                               |                |      flags{}: 0x1cc8-0x1ccb.7 (4)
0x1cc0|                        03                     |        .       |        link_order: false 0x1cc8-0x1cc8 (0.1)
0x1cc0|                        03                     |        .       |        info_link: false 0x1cc8.1-0x1cc8.1 (0.1)
0x1cc0|                        03                     |        .       |        strings: false 0x1cc8.2-0x1cc8.2 (0.1)
0x1cc0|                        03                     |        .       |        merge: false 0x1cc8.3-0x1cc8.3 (0.1)
0x1cc0|                        03                     |        .       |        unused0: 0 0x1cc8.4-0x1cc8.4 (0.1)
0x1cc0|                        03                     |        .       |        execinstr: false 0x1cc8.5-0x1cc8.5 (0.1)
0x1cc0|                        03                     |        .       |        alloc: true 0x1cc8.6-0x1cc8.6 (0.1)
0x1cc0|                        03                     |        .       |        write: true 0x1cc8.7-0x1cc8.7 (0.1)
0x1cc0|                           00                  |         .      |        tls: false 0x1cc9-0x1cc9 (0.1)
0x1cc0|                           00                  |         .      |        group: false 0x1cc9.1-0x1cc9.1 (0.1)
0x1cc0|                           00                  |         .      |        os_nonconforming: false 0x1cc9.2-0x1cc9.2 (0.1)
0x1cc0|                           00 00               |         ..     |        unused1: 0 0x1cc9.3-0x1cca.3 (1.1)
0x1cc0|                              00 00            |          ..    |        os_specific: 0 0x1cca.4-0x1ccb.3 (1)
0x1cc0|                                 00            |           .    |        processor_specific: 0 0x1ccb.4-0x1ccb.7 (0.4)
0x1cc0|                                    04 10 01 00|            ....|      addr: 0x11004 0x1ccc-0x1ccf.7 (4)
0x1cd0|04 10 00 00                                    |....            |      offset: 4100 0x1cd0-0x1cd3.7 (4)
0x1cd0|            1c 00 00 00                        |    ....        |      size: 0x1c 0x1cd4-0x1cd7.7 (4)
0x1cd0|                        00 00 00 00            |        ....    |      link: 0 0x1cd8-0x1cdb.7 (4)
0x1cd0|                                    00 00 00 00|            ....|      info: 0 0x1cdc-0x1cdf.7 (4)
0x1ce0|04 00 00 00                                    |....            |      addralign: 4 0x1ce0-0x1ce3.7 (4)
0x1ce0|            00 00 00 00                        |    ....        |      entsize: 0 0x1ce4-0x1ce7.7 (4)
      |                                               |                |    [18]{}: section_header 0x1004-0x1d0f.7 (3340)
0x1000|            47 43 43 3a 20 28 41 6c 70 69 6e 65|    GCC: (Alpine|      data: raw bits 0x1004-0x1034.7 (49)
0x1010|20 31 30 2e 33 2e 31 5f 67 69 74 32 30 32 31 31| 10.3.1_git20211|
*     |until 0x1034.7 (49)                            |                |
0x1ce0|                        9c 00 00 00            |        ....    |      name: ".comment" (156) 0x1ce8-0x1ceb.7 (4)
0x1ce0|                                    01 00 00 00|            ....|      type: "progbits" (0x1) (Information defined by the program) 0x1cec-0x1cef.7 (4)
      |                                               |                |      flags{}: 0x1cf0-0x1cf3.7 (4)
0x1cf0|30                                             |0               |        link_order: false 0x1cf0-0x1cf0 (0.1)
0x1cf0|30                                             |0               |        info_link: false 0x1cf0.1-0x1cf0.1 (0.1)
0x1cf0|30                                             |0               |        strings: true 0x1cf0.2-0x1cf0.2 (0.1)
0x1cf0|30                                             |0               |        merge: true 0x1cf0.3-0x1cf0.3 (0.1)
0x1cf0|30                                             |0               |        unused0: 0 0x1cf0.4-0x1cf0.4 (0.1)
0x1cf0|30                                             |0               |        execinstr: false 0x1cf0.5-0x1cf0.5 (0.1)
0x1cf0|30                                             |0               |        alloc: false 0x1cf0.6-0x1cf0.6 (0.1)
0x1cf0|30                                             |0               |        write: false 0x1cf0.7-0x1cf0.7 (0.1)
0x1cf0|   00                                          | .              |        tls: false 0x1cf1-0x1cf1 (0.1)
0x1cf0|   00                                          | .              |        group: false 0x1cf1.1-0x1cf1.1 (0.1)
0x1cf0|   00                                          | .              |        os_nonconforming: false 0x1cf1.2-0x1cf1.2 (0.1)
0x1cf0|   00 00                                       | ..             |        unused1: 0 0x1cf1.3-0x1cf2.3 (1.1)
0x1cf0|      00 00                                    |  ..            |        os_specific: 0 0x1cf2.4-0x1cf3.3 (1)
0x1cf0|         00                                    |   .            |        processor_specific: 0 0x1cf3.4-0x1cf3.7 (0.4)
0x1cf0|            00 00 00 00                        |    ....        |      addr: 0x0 0x1cf4-0x1cf7.7 (4)
0x1cf0|                        04 10 00 00            |        ....    |      offset: 4100 0x1cf8-0x1cfb.7 (4)
0x1cf0|                                    31 00 00 00|            1...|      size: 0x31 0x1cfc-0x1cff.7 (4)
0x1d00|00 00 00 00                                    |....            |      link: 0 0x1d00-0x1d03.7 (4)
0x1d00|            00 00 00 00                        |    ....        |      info: 0 0x1d04-0x1d07.7 (4)
0x1d00|                        01 00 00 00            |        ....    |      addralign: 1 0x1d08-0x1d0b.7 (4)
0x1d00|                                    01 00 00 00|            ....|      entsize: 1 0x1d0c-0x1d0f.7 (4)
      |                                               |                |    [19]{}: section_header 0x1035-0x1d37.7 (3331)
0x1030|               41 2e 00 00 00 61 65 61 62 69 00|     A....aeabi.|      data: raw bits 0x1035-0x1063.7 (47)
0x1040|01 24 00 00 00 05 36 5a 4b 00 06 07 08 01 09 01|.$....6ZK.......|
*     |until 0x1063.7 (47)                            |                |
0x1d10|a5 00 00 00                                    |....            |      name: ".ARM.attributes" (165) 0x1d10-0x1d13.7 (4)
0x1d10|            03 00 00 70                        |    ...p        |      type: 0x70000003 0x1d14-0x1d17.7 (4)
      |                                               |                |      flags{}: 0x1d18-0x1d1b.7 (4)
0x1d10|                        00                     |        .       |        link_order: false 0x1d18-0x1d18 (0.1)
0x1d10|                        00                     |        .       |        info_link: false 0x1d18.1-0x1d18.1 (0.1)
0x1d10|                        00                     |        .       |        strings: false 0x1d18.2-0x1d18.2 (0.1)
0x1d10|                        00                     |        .       |        merge: false 0x1d18.3-0x1d18.3 (0.1)
0x1d10|                        00                     |        .       |        unused0: 0 0x1d18.4-0x1d18.4 (0.1)
0x1d10|                        00                     |        .       |        execinstr: false 0x1d18.5-0x1d18.5 (0.1)
0x1d10|                        00                     |        .       |        alloc: false 0x1d18.6-0x1d18.6 (0.1)
0x1d10|                        00                     |        .       |        write: false 0x1d18.7-0x1d18.7 (0.1)
0x1d10|                           00                  |         .      |        tls: false 0x1d19-0x1d19 (0.1)
0x1d10|                           00                  |         .      |        group: false 0x1d19.1-0x1d19.1 (0.1)
0x1d10|                           00                  |         .      |        os_nonconforming: false 0x1d19.2-0x1d19.2 (0.1)
0x1d10|                           00 00               |         ..     |        unused1: 0 0x1d19.3-0x1d1a.3 (1.1)
0x1d10|                              00 00            |          ..    |        os_specific: 0 0x1d1a.4-0x1d1b.3 (1)
0x1d10|                                 00            |           .    |        processor_specific: 0 0x1d1b.4-0x1d1b.7 (0.4)
0x1d10|                                    00 00 00 00|            ....|      addr: 0x0 0x1d1c-0x1d1f.7 (4)
0x1d20|35 10 00 00                                    |5...            |      offset: 4149 0x1d20-0x1d23.7 (4)
0x1d20|            2f 00 00 00                        |    /...        |      size: 0x2f 0x1d24-0x1d27.7 (4)
0x1d20|                        00 00 00 00            |        ....    |      link: 0 0x1d28-0x1d2b.7 (4)
0x1d20|                                    00 00 00 00|            ....|      info: 0 0x1d2c-0x1d2f.7 (4)
0x1d30|01 00 00 00                                    |....            |      addralign: 1 0x1d30-0x1d33.7 (4)
0x1d30|            00 00 00 00                        |    ....        |      entsize: 0 0x1d34-0x1d37.7 (4)
      |                                               |                |    [20]{}: section_header 0x1068-0x1d5f.7 (3320)
0x1060|                        24 00 00 00 02 00 00 00|        $.......|      data: raw bits 0x1068-0x10b7.7 (80)
0x1070|00 00 04 00 00 00 00 00 c8 02 00 00 04 00 00 00|................|
*     |until 0x10b7.7 (80)                            |                |
0x1d30|                        b5 00 00 00            |        ....    |      name: ".debug_aranges" (181) 0x1d38-0x1d3b.7 (4)
0x1d30|                                    01 00 00 00|            ....|      type: "progbits" (0x1) (Information defined by the program) 0x1d3c-0x1d3f.7 (4)
      |                                               |                |      flags{}: 0x1d40-0x1d43.7 (4)
0x1d40|00                                             |.               |        link_order: false 0x1d40-0x1d40 (0.1)
0x1d40|00                                             |.               |        info_link: false 0x1d40.1-0x1d40.1 (0.1)
0x1d40|00                                             |.               |        strings: false 0x1d40.2-0x1d40.2 (0.1)
0x1d40|00                                             |.               |        merge: false 0x1d40.3-0x1d40.3 (0.1)
0x1d40|00                                             |.               |        unused0: 0 0x1d40.4-0x1d40.4 (0.1)
0x1d40|00                                             |.               |        execinstr: false 0x1d40.5-0x1d40.5 (0.1)
0x1d40|00                                             |.               |        alloc: false 0x1d40.6-0x1d40.6 (0.1)
0x1d40|00                                             |.               |        write: false 0x1d40.7-0x1d40.7 (0.1)
0x1d40|   00                                          | .              |        tls: false 0x1d41-0x1d41 (0.1)
0x1d40|   00                                          | .              |        group: false 0x1d41.1-0x1d41.1 (0.1)
0x1d40|   00                                          | .              |        os_nonconforming: false 0x1d41.2-0x1d41.2 (0.1)
0x1d40|   00 00                                       | ..             |        unused1: 0 0x1d41.3-0x1d42.3 (1.1)
0x1d40|      00 00                                    |  ..            |        os_specific: 0 0x1d42.4-0x1d43.3 (1)
0x1d40|         00                                    |   .            |        processor_specific: 0 0x1d43.4-0x1d43.7 (0.4)
0x1d40|            00 00 00 00                        |    ....        |      addr: 0x0 0x1d44-0x1d47.7 (4)
0x1d40|                        68 10 00 00            |        h...    |      offset: 4200 0x1d48-0x1d4b.7 (4)
0x1d40|                                    50 00 00 00|            P...|      size: 0x50 0x1d4c-0x1d4f.7 (4)
0x1d50|00 00 00 00                                    |....            |      link: 0 0x1d50-0x1d53.7 (4)
0x1d50|            00 00 00 00                        |    ....        |      info: 0 0x1d54-0x1d57.7 (4)
0x1d50|                        08 00 00 00            |        ....    |      addralign: 8 0x1d58-0x1d5b.7 (4)
0x1d50|                                    00 00 00 00|            ....|      entsize: 0 0x1d5c-0x1d5f.7 (4)
      |                                               |                |    [21]{}: section_header 0x10b8-0x1d87.7 (3280)
0x10b0|                        1e 00 00 00 02 00 00 00|        ........|      data: raw bits 0x10b8-0x10fb.7 (68)
0x10c0|00 00 04 01 00 00 00 00 00 00 00 00 00 00 00 00|................|
*     |until 0x10fb.7 (68)                            |                |
0x1d60|c4 00 00 00                                    |....            |      name: ".debug_info" (196) 0x1d60-0x1d63.7 (4)
0x1d60|            01 00 00 00                        |    ....        |      type: "progbits" (0x1) (Information defined by the program) 0x1d64-0x1d67.7 (4)
      |                                               |                |      flags{}: 0x1d68-0x1d6b.7 (4)
0x1d60|                        00                     |        .       |        link_order: false 0x1d68-0x1d68 (0.1)
0x1d60|                        00                     |        .       |        info_link: false 0x1d68.1-0x1d68.1 (0.1)
0x1d60|                        00                     |        .       |        strings: false 0x1d68.2-0x1d68.2 (0.1)
0x1d60|                        00                     |        .       |        merge: false 0x1d68.3-0x1d68.3 (0.1)
0x1d60|                        00                     |        .       |        unused0: 0 0x1d68.4-0x1d68.4 (0.1)
0x1d60|                        00                     |        .       |        execinstr: false 0x1d68.5-0x1d68.5 (0.1)
0x1d60|                        00                     |        .       |        alloc: false 0x1d68.6-0x1d68.6 (0.1)
0x1d60|                        00                     |        .       |        write: false 0x1d68.7-0x1d68.7 (0.1)
0x1d60|                           00                  |         .      |        tls: false 0x1d69-0x1d69 (0.1)
0x1d60|                           00                  |         .      |        group: false 0x1d69.1-0x1d69.1 (0.1)
0x1d60|                           00                  |         .      |        os_nonconforming: false 0x1d69.2-0x1d69.2 (0.1)
0x1d60|                           00 00               |         ..     |        unused1: 0 0x1d69.3-0x1d6a.3 (1.1)
0x1d60|                              00 00            |          ..    |        os_specific: 0 0x1d6a.4-0x1d6b.3 (1)
0x1d60|                                 00            |           .    |        processor_specific: 0 0x1d6b.4-0x1d6b.7 (0.4)
0x1d60|                                    00 00 00 00|            ....|      addr: 0x0 0x1d6c-0x1d6f.7 (4)
0x1d70|b8 10 00 00                                    |....            |      offset: 4280 0x1d70-0x1d73.7 (4)
0x1d70|            44 00 00 00                        |    D...        |      size: 0x44 0x1d74-0x1d77.7 (4)
0x1d70|                        00 00 00 00            |        ....    |      link: 0 0x1d78-0x1d7b.7 (4)
0x1d70|                                    00 00 00 00|            ....|      info: 0 0x1d7c-0x1d7f.7 (4)
0x1d80|01 00 00 00                                    |....            |      addralign: 1 0x1d80-0x1d83.7 (4)
0x1d80|            00 00 00 00                        |    ....        |      entsize: 0 0x1d84-0x1d87.7 (4)
      |                                               |                |    [22]{}: section_header 0x10fc-0x1daf.7 (3252)
0x10f0|                                    01 11 00 10|            ....|      data: raw bits 0x10fc-0x111f.7 (36)
0x1100|06 55 06 03 0e 1b 0e 25 0e 13 05 00 00 00 01 11|.U.....%........|
0x1110|00 10 06 55 06 03 0e 1b 0e 25 0e 13 05 00 00 00|...U.....%......|
0x1d80|                        d0 00 00 00            |        ....    |      name: ".debug_abbrev" (208) 0x1d88-0x1d8b.7 (4)
0x1d80|                                    01 00 00 00|            ....|      type: "progbits" (0x1) (Information defined by the program) 0x1d8c-0x1d8f.7 (4)
      |                                               |                |      flags{}: 0x1d90-0x1d93.7 (4)
0x1d90|00                                             |.               |        link_order: false 0x1d90-0x1d90 (0.1)
0x1d90|00                                             |.               |        info_link: false 0x1d90.1-0x1d90.1 (0.1)
0x1d90|00                                             |.               |        strings: false 0x1d90.2-0x1d90.2 (0.1)
0x1d90|00                                             |.               |        merge: false 0x1d90.3-0x1d90.3 (0.1)
0x1d90|00                                             |.               |        unused0: 0 0x1d90.4-0x1d90.4 (0.1)
0x1d90|00                                             |.               |        execinstr: false 0x1d90.5-0x1d90.5 (0.1)
0x1d90|00                                             |.               |        alloc: false 0x1d90.6-0x1d90.6 (0.1)
0x1d90|00                                             |.               |        write: false 0x1d90.7-0x1d90.7 (0.1)
0x1d90|   00                                          | .              |        tls: false 0x1d91-0x1d91 (0.1)
0x1d90|   00                                          | .              |        group: false 0x1d91.1-0x1d91.1 (0.1)
0x1d90|   00                                          | .              |        os_nonconforming: false 0x1d91.2-0x1d91.2 (0.1)
0x1d90|   00 00                                       | ..             |        unused1: 0 0x1d91.3-0x1d92.3 (1.1)
0x1d90|      00 00                                    |  ..            |        os_specific: 0 0x1d92.4-0x1d93.3 (1)
0x1d90|         00                                    |   .            |        processor_specific: 0 0x1d93.4-0x1d93.7 (0.4)
0x1d90|            00 00 00 00                        |    ....        |      addr: 0x0 0x1d94-0x1d97.7 (4)
0x1d90|                        fc 10 00 00            |        ....    |      offset: 4348 0x1d98-0x1d9b.7 (4)
0x1d90|                                    24 00 00 00|            $...|      size: 0x24 0x1d9c-0x1d9f.7 (4)
0x1da0|00 00 00 00                                    |....            |      link: 0 0x1da0-0x1da3.7 (4)
0x1da0|            00 00 00 00                        |    ....        |      info: 0 0x1da4-0x1da7.7 (4)
0x1da0|                        01 00 00 00            |        ....    |      addralign: 1 0x1da8-0x1dab.7 (4)
0x1da0|                                    00 00 00 00|            ....|      entsize: 0 0x1dac-0x1daf.7 (4)
      |                                               |                |    [23]{}: section_header 0x1120-0x1dd7.7 (3256)
0x1120|47 00 00 00 03 00 25 00 00 00 02 01 fb 0e 0d 00|G.....%.........|      data: raw bits 0x1120-0x11b5.7 (150)
*     |until 0x11b5.7 (150)                           |                |
0x1db0|de 00 00 00                                    |....            |      name: ".debug_line" (222) 0x1db0-0x1db3.7 (4)
0x1db0|            01 00 00 00                        |    ....        |      type: "progbits" (0x1) (Information defined by the program) 0x1db4-0x1db7.7 (4)
      |                                               |                |      flags{}: 0x1db8-0x1dbb.7 (4)
0x1db0|                        00                     |        .       |        link_order: false 0x1db8-0x1db8 (0.1)
0x1db0|                        00                     |        .       |        info_link: false 0x1db8.1-0x1db8.1 (0.1)
0x1db0|                        00                     |        .       |        strings: false 0x1db8.2-0x1db8.2 (0.1)
0x1db0|                        00                     |        .       |        merge: false 0x1db8.3-0x1db8.3 (0.1)
0x1db0|                        00                     |        .       |        unused0: 0 0x1db8.4-0x1db8.4 (0.1)
0x1db0|                        00                     |        .       |        execinstr: false 0x1db8.5-0x1db8.5 (0.1)
0x1db0|                        00                     |        .       |        alloc: false 0x1db8.6-0x1db8.6 (0.1)
0x1db0|                        00                     |        .       |        write: false 0x1db8.7-0x1db8.7 (0.1)
0x1db0|                           00                  |         .      |        tls: false 0x1db9-0x1db9 (0.1)
0x1db0|                           00                  |         .      |        group: false 0x1db9.1-0x1db9.1 (0.1)
0x1db0|                           00                  |         .      |        os_nonconforming: false 0x1db9.2-0x1db9.2 (0.1)
0x1db0|                           00 00               |         ..     |        unused1: 0 0x1db9.3-0x1dba.3 (1.1)
0x1db0|                              00 00            |          ..    |        os_specific: 0 0x1dba.4-0x1dbb.3 (1)
0x1db0|                                 00            |           .    |        processor_specific: 0 0x1dbb.4-0x1dbb.7 (0.4)
0x1db0|                                    00 00 00 00|            ....|      addr: 0x0 0x1dbc-0x1dbf.7 (4)
0x1dc0|20 11 00 00                                    | ...            |      offset: 4384 0x1dc0-0x1dc3.7 (4)
0x1dc0|            96 00 00 00                        |    ....        |      size: 0x96 0x1dc4-0x1dc7.7 (4)
0x1dc0|                        00 00 00 00            |        ....    |      link: 0 0x1dc8-0x1dcb.7 (4)
0x1dc0|                                    00 00 00 00|            ....|      info: 0 0x1dcc-0x1dcf.7 (4)
0x1dd0|01 00 00 00                                    |....            |      addralign: 1 0x1dd0-0x1dd3.7 (4)
0x1dd0|            00 00 00 00                        |    ....        |      entsize: 0 0x1dd4-0x1dd7.7 (4)
      |                                               |                |    [24]{}: section_header 0x11b6-0x1dff.7 (3146)
0x11b0|                  63 72 74 2f 61 72 6d 2f 63 72|      crt/arm/cr|      data: raw bits 0x11b6-0x120b.7 (86)
0x11c0|74 69 2e 73 00 2f 68 6f 6d 65 2f 62 75 69 6c 64|ti.s./home/build|
*     |until 0x120b.7 (86)                            |                |
0x1dd0|                        ea 00 00 00            |        ....    |      name: ".debug_str" (234) 0x1dd8-0x1ddb.7 (4)
0x1dd0|                                    01 00 00 00|            ....|      type: "progbits" (0x1) (Information defined by the program) 0x1ddc-0x1ddf.7 (4)
      |                                               |                |      flags{}: 0x1de0-0x1de3.7 (4)
0x1de0|30                                             |0               |        link_order: false 0x1de0-0x1de0 (0.1)
0x1de0|30                                             |0               |        info_link: false 0x1de0.1-0x1de0.1 (0.1)
0x1de0|30                                             |0               |        strings: true 0x1de0.2-0x1de0.2 (0.1)
0x1de0|30                                             |0               |        merge: true 0x1de0.3-0x1de0.3 (0.1)
0x1de0|30                                             |0               |        unused0: 0 0x1de0.4-0x1de0.4 (0.1)
0x1de0|30                                             |0               |        execinstr: false 0x1de0.5-0x1de0.5 (0.1)
0x1de0|30                                             |0               |        alloc: false 0x1de0.6-0x1de0.6 (0.1)
0x1de0|30                                             |0               |        write: false 0x1de0.7-0x1de0.7 (0.1)
0x1de0|   00                                          | .              |        tls: false 0x1de1-0x1de1 (0.1)
0x1de0|   00                                          | .              |        group: false 0x1de1.1-0x1de1.1 (0.1)
0x1de0|   00                                          | .              |        os_nonconforming: false 0x1de1.2-0x1de1.2 (0.1)
0x1de0|   00 00                                       | ..             |        unused1: 0 0x1de1.3-0x1de2.3 (1.1)
0x1de0|      00 00                                    |  ..            |        os_specific: 0 0x1de2.4-0x1de3.3 (1)
0x1de0|         00                                    |   .            |        processor_specific: 0 0x1de3.4-0x1de3.7 (0.4)
0x1de0|            00 00 00 00                        |    ....        |      addr: 0x0 0x1de4-0x1de7.7 (4)
0x1de0|                        b6 11 00 00            |        ....    |      offset: 4534 0x1de8-0x1deb.7 (4)
0x1de0|                                    56 00 00 00|            V...|      size: 0x56 0x1dec-0x1def.7 (4)
0x1df0|00 00 00 00                                    |....            |      link: 0 0x1df0-0x1df3.7 (4)
0x1df0|            00 00 00 00                        |    ....        |      info: 0 0x1df4-0x1df7.7 (4)
0x1df0|                        01 00 00 00            |        ....    |      addralign: 1 0x1df8-0x1dfb.7 (4)
0x1df0|                                    01 00 00 00|            ....|      entsize: 1 0x1dfc-0x1dff.7 (4)
      |                                               |                |    [25]{}: section_header 0x1210-0x1e27.7 (3096)
0x1210|ff ff ff ff 00 00 00 00 c8 02 00 00 cc 02 00 00|................|      data: raw bits 0x1210-0x124f.7 (64)
*     |until 0x124f.7 (64)                            |                |
0x1e00|f5 00 00 00                                    |....            |      name: ".debug_ranges" (245) 0x1e00-0x1e03.7 (4)
0x1e00|            01 00 00 00                        |    ....        |      type: "progbits" (0x1) (Information defined by the program) 0x1e04-0x1e07.7 (4)
      |                                               |                |      flags{}: 0x1e08-0x1e0b.7 (4)
0x1e00|                        00                     |        .       |        link_order: false 0x1e08-0x1e08 (0.1)
0x1e00|                        00                     |        .       |        info_link: false 0x1e08.1-0x1e08.1 (0.1)
0x1e00|                        00                     |        .       |        strings: false 0x1e08.2-0x1e08.2 (0.1)
0x1e00|                        00                     |        .       |        merge: false 0x1e08.3-0x1e08.3 (0.1)
0x1e00|                        00                     |        .       |        unused0: 0 0x1e08.4-0x1e08.4 (0.1)
0x1e00|                        00                     |        .       |        execinstr: false 0x1e08.5-0x1e08.5 (0.1)
0x1e00|                        00                     |        .       |        alloc: false 0x1e08.6-0x1e08.6 (0.1)
0x1e00|                        00                     |        .       |        write: false 0x1e08.7-0x1e08.7 (0.1)
0x1e00|                           00                  |         .      |        tls: false 0x1e09-0x1e09 (0.1)
0x1e00|                           00                  |         .      |        group: false 0x1e09.1-0x1e09.1 (0.1)
0x1e00|                           00                  |         .      |        os_nonconforming: false 0x1e09.2-0x1e09.2 (0.1)
0x1e00|                           00 00               |         ..     |        unused1: 0 0x1e09.3-0x1e0a.3 (1.1)
0x1e00|                              00 00            |          ..    |        os_specific: 0 0x1e0a.4-0x1e0b.3 (1)
0x1e00|                                 00            |           .    |        processor_specific: 0 0x1e0b.4-0x1e0b.7 (0.4)
0x1e00|                                    00 00 00 00|            ....|      addr: 0x0 0x1e0c-0x1e0f.7 (4)
0x1e10|10 12 00 00                                    |....            |      offset: 4624 0x1e10-0x1e13.7 (4)
0x1e10|            40 00 00 00                        |    @...        |      size: 0x40 0x1e14-0x1e17.7 (4)
0x1e10|                        00 00 00 00            |        ....    |      link: 0 0x1e18-0x1e1b.7 (4)
0x1e10|                                    00 00 00 00|            ....|      info: 0 0x1e1c-0x1e1f.7 (4)
0x1e20|08 00 00 00                                    |....            |      addralign: 8 0x1e20-0x1e23.7 (4)
0x1e20|            00 00 00 00                        |    ....        |      entsize: 0 0x1e24-0x1e27.7 (4)
      |                                               |                |    [26]{}: section_header 0x1250-0x1e4f.7 (3072)
      |                                               |                |      symbol_table[0:82]: 0x1250-0x176f.7 (1312)
      |                                               |                |        [0]{}: symbol 0x1250-0x125f.7 (16)
0x1250|00 00 00 00                                    |....            |          name: "" (0) 0x1250-0x1253.7 (4)
0x1250|            00 00 00 00                        |    ....        |          value: 0 0x1254-0x1257.7 (4)
0x1250|                        00 00 00 00            |        ....    |          size: 0 0x1258-0x125b.7 (4)
0x1250|                                    00         |            .   |          bind: "local" (0) 0x125c-0x125c.3 (0.4)
0x1250|                                    00         |            .   |          type: "notype" (0) 0x125c.4-0x125c.7 (0.4)
0x1250|                                       00      |             .  |          other_unused: 0 0x125d-0x125d.5 (0.6)
0x1250|                                       00      |             .  |          visibility: "default" (0) 0x125d.6-0x125d.7 (0.2)
0x1250|                                          00 00|              ..|          shndx: 0 0x125e-0x125f.7 (2)
      |                                               |                |        [1]{}: symbol 0x1260-0x126f.7 (16)
0x1260|00 00 00 00                                    |....            |          name: "" (0) 0x1260-0x1263.7 (4)
0x1260|            d4 00 00 00                        |    ....        |          value: 212 0x1264-0x1267.7 (4)
0x1260|                        00 00 00 00            |        ....    |          size: 0 0x1268-0x126b.7 (4)
0x1260|                                    03         |            .   |          bind: "local" (0) 0x126c-0x126c.3 (0.4)
0x1260|                                    03         |            .   |          type: "section" (3) 0x126c.4-0x126c.7 (0.4)
0x1260|                                       00      |             .  |          other_unused: 0 0x126d-0x126d.5 (0.6)
0x1260|                                       00      |             .  |          visibility: "default" (0) 0x126d.6-0x126d.7 (0.2)
0x1260|                                          01 00|              ..|          shndx: 1 0x126e-0x126f.7 (2)
      |                                               |                |        [2]{}: symbol 0x1270-0x127f.7 (16)
0x1270|00 00 00 00                                    |....            |          name: "" (0) 0x1270-0x1273.7 (4)
0x1270|            00 01 00 00                        |    ....        |          value: 256 0x1274-0x1277.7 (4)
0x1270|                        00 00 00 00            |        ....    |          size: 0 0x1278-0x127b.7 (4)
0x1270|                                    03         |            .   |          bind: "local" (0) 0x127c-0x127c.3 (0.4)
0x1270|                                    03         |            .   |          type: "section" (3) 0x127c.4-0x127c.7 (0.4)
0x1270|                                       00      |             .  |          other_unused: 0 0x127d-0x127d.5 (0.6)
0x1270|                                       00      |             .  |          visibility: "default" (0) 0x127d.6-0x127d.7 (0.2)
0x1270|                                          02 00|              ..|          shndx: 2 0x127e-0x127f.7 (2)
      |                                               |                |        [3]{}: symbol 0x1280-0x128f.7 (16)
0x1280|00 00 00 00                                    |....            |          name: "" (0) 0x1280-0x1283.7 (4)
0x1280|            c0 01 00 00                        |    ....        |          value: 448 0x1284-0x1287.7 (4)
0x1280|                        00 00 00 00            |        ....    |          size: 0 0x1288-0x128b.7 (4)
0x1280|                                    03         |            .   |          bind: "local" (0) 0x128c-0x128c.3 (0.4)
0x1280|                                    03         |            .   |          type: "section" (3) 0x128c.4-0x128c.7 (0.4)
0x1280|                                       00      |             .  |          other_unused: 0 0x128d-0x128d.5 (0.6)
0x1280|                                       00      |             .  |          visibility: "default" (0) 0x128d.6-0x128d.7 (0.2)
0x1280|                                          03 00|              ..|          shndx: 3 0x128e-0x128f.7 (2)
      |                                               |                |        [4]{}: symbol 0x1290-0x129f.7 (16)
0x1290|00 00 00 00                                    |....            |          name: "" (0) 0x1290-0x1293.7 (4)
0x1290|            68 02 00 00                        |    h...        |          value: 616 0x1294-0x1297.7 (4)
0x1290|                        00 00 00 00            |        ....    |          size: 0 0x1298-0x129b.7 (4)
0x1290|                                    03         |            .   |          bind: "local" (0) 0x129c-0x129c.3 (0.4)
0x1290|                                    03         |            .   |          type: "section" (3) 0x129c.4-0x129c.7 (0.4)
0x1290|                                       00      |             .  |          other_unused: 0 0x129d-0x129d.5 (0.6)
0x1290|                                       00      |             .  |          visibility: "default" (0) 0x129d.6-0x129d.7 (0.2)
0x1290|                                          04 00|              ..|          shndx: 4 0x129e-0x129f.7 (2)
      |                                               |                |        [5]{}: symbol 0x12a0-0x12af.7 (16)
0x12a0|00 00 00 00                                    |....            |          name: "" (0) 0x12a0-0x12a3.7 (4)
0x12a0|            a8 02 00 00                        |    ....        |          value: 680 0x12a4-0x12a7.7 (4)
0x12a0|                        00 00 00 00            |        ....    |          size: 0 0x12a8-0x12ab.7 (4)
0x12a0|                                    03         |            .   |          bind: "local" (0) 0x12ac-0x12ac.3 (0.4)
0x12a0|                                    03         |            .   |          type: "section" (3) 0x12ac.4-0x12ac.7 (0.4)
0x12a0|                                       00      |             .  |          other_unused: 0 0x12ad-0x12ad.5 (0.6)
0x12a0|                                       00      |             .  |          visibility: "default" (0) 0x12ad.6-0x12ad.7 (0.2)
0x12a0|                                          05 00|              ..|          shndx: 5 0x12ae-0x12af.7 (2)
      |                                               |                |        [6]{}: symbol 0x12b0-0x12bf.7 (16)
0x12b0|00 00 00 00                                    |....            |          name: "" (0) 0x12b0-0x12b3.7 (4)
0x12b0|            c8 02 00 00                        |    ....        |          value: 712 0x12b4-0x12b7.7 (4)
0x12b0|                        00 00 00 00            |        ....    |          size: 0 0x12b8-0x12bb.7 (4)
0x12b0|                                    03         |            .   |          bind: "local" (0) 0x12bc-0x12bc.3 (0.4)
0x12b0|                                    03         |            .   |          type: "section" (3) 0x12bc.4-0x12bc.7 (0.4)
0x12b0|                                       00      |             .  |          other_unused: 0 0x12bd-0x12bd.5 (0.6)
0x12b0|                                       00      |             .  |          visibility: "default" (0) 0x12bd.6-0x12bd.7 (0.2)
0x12b0|                                          06 00|              ..|          shndx: 6 0x12be-0x12bf.7 (2)
      |                                               |                |        [7]{}: symbol 0x12c0-0x12cf.7 (16)
0x12c0|00 00 00 00                                    |....            |          name: "" (0) 0x12c0-0x12c3.7 (4)
0x12c0|            d4 02 00 00                        |    ....        |          value: 724 0x12c4-0x12c7.7 (4)
0x12c0|                        00 00 00 00            |        ....    |          size: 0 0x12c8-0x12cb.7 (4)
0x12c0|                                    03         |            .   |          bind: "local" (0) 0x12cc-0x12cc.3 (0.4)
0x12c0|                                    03         |            .   |          type: "section" (3) 0x12cc.4-0x12cc.7 (0.4)
0x12c0|                                       00      |             .  |          other_unused: 0 0x12cd-0x12cd.5 (0.6)
0x12c0|                                       00      |             .  |          visibility: "default" (0) 0x12cd.6-0x12cd.7 (0.2)
0x12c0|                                          07 00|              ..|          shndx: 7 0x12ce-0x12cf.7 (2)
      |                                               |                |        [8]{}: symbol 0x12d0-0x12df.7 (16)
0x12d0|00 00 00 00                                    |....            |          name: "" (0) 0x12d0-0x12d3.7 (4)
0x12d0|            18 03 00 00                        |    ....        |          value: 792 0x12d4-0x12d7.7 (4)
0x12d0|                        00 00 00 00            |        ....    |          size: 0 0x12d8-0x12db.7 (4)
0x12d0|                                    03         |            .   |          bind: "local" (0) 0x12dc-0x12dc.3 (0.4)
0x12d0|                                    03         |            .   |          type: "section" (3) 0x12dc.4-0x12dc.7 (0.4)
0x12d0|                                       00      |             .  |          other_unused: 0 0x12dd-0x12dd.5 (0.6)
0x12d0|                                       00      |             .  |          visibility: "default" (0) 0x12dd.6-0x12dd.7 (0.2)
0x12d0|                                          08 00|              ..|          shndx: 8 0x12de-0x12df.7 (2)
      |                                               |                |        [9]{}: symbol 0x12e0-0x12ef.7 (16)
0x12e0|00 00 00 00                                    |....            |          name: "" (0) 0x12e0-0x12e3.7 (4)
0x12e0|            a8 04 00 00                        |    ....        |          value: 1192 0x12e4-0x12e7.7 (4)
0x12e0|                        00 00 00 00            |        ....    |          size: 0 0x12e8-0x12eb.7 (4)
0x12e0|                                    03         |            .   |          bind: "local" (0) 0x12ec-0x12ec.3 (0.4)
0x12e0|                                    03         |            .   |          type: "section" (3) 0x12ec.4-0x12ec.7 (0.4)
0x12e0|                                       00      |             .  |          other_unused: 0 0x12ed-0x12ed.5 (0.6)
0x12e0|                                       00      |             .  |          visibility: "default" (0) 0x12ed.6-0x12ed.7 (0.2)
0x12e0|                                          09 00|              ..|          shndx: 9 0x12ee-0x12ef.7 (2)
      |                                               |                |        [10]{}: symbol 0x12f0-0x12ff.7 (16)
0x12f0|00 00 00 00                                    |....            |          name: "" (0) 0x12f0-0x12f3.7 (4)
0x12f0|            b4 04 00 00                        |    ....        |          value: 1204 0x12f4-0x12f7.7 (4)
0x12f0|                        00 00 00 00            |        ....    |          size: 0 0x12f8-0x12fb.7 (4)
0x12f0|                                    03         |            .   |          bind: "local" (0) 0x12fc-0x12fc.3 (0.4)
0x12f0|                                    03         |            .   |          type: "section" (3) 0x12fc.4-0x12fc.7 (0.4)
0x12f0|                                       00      |             .  |          other_unused: 0 0x12fd-0x12fd.5 (0.6)
0x12f0|                                       00      |             .  |          visibility: "default" (0) 0x12fd.6-0x12fd.7 (0.2)
0x12f0|                                          0a 00|              ..|          shndx: 10 0x12fe-0x12ff.7 (2)
      |                                               |                |        [11]{}: symbol 0x1300-0x130f.7 (16)
0x1300|00 00 00 00                                    |....            |          name: "" (0) 0x1300-0x1303.7 (4)
0x1300|            e0 05 00 00                        |    ....        |          value: 1504 0x1304-0x1307.7 (4)
0x1300|                        00 00 00 00            |        ....    |          size: 0 0x1308-0x130b.7 (4)
0x1300|                                    03         |            .   |          bind: "local" (0) 0x130c-0x130c.3 (0.4)
0x1300|                                    03         |            .   |          type: "section" (3) 0x130c.4-0x130c.7 (0.4)
0x1300|                                       00      |             .  |          other_unused: 0 0x130d-0x130d.5 (0.6)
0x1300|                                       00      |             .  |          visibility: "default" (0) 0x130d.6-0x130d.7 (0.2)
0x1300|                                          0b 00|              ..|          shndx: 11 0x130e-0x130f.7 (2)
      |                                               |                |        [12]{}: symbol 0x1310-0x131f.7 (16)
0x1310|00 00 00 00                                    |....            |          name: "" (0) 0x1310-0x1313.7 (4)
0x1310|            f0 0e 01 00                        |    ....        |          value: 69360 0x1314-0x1317.7 (4)
0x1310|                        00 00 00 00            |        ....    |          size: 0 0x1318-0x131b.7 (4)
0x1310|                                    03         |            .   |          bind: "local" (0) 0x131c-0x131c.3 (0.4)
0x1310|                                    03         |            .   |          type: "section" (3) 0x131c.4-0x131c.7 (0.4)
0x1310|                                       00      |             .  |          other_unused: 0 0x131d-0x131d.5 (0.6)
0x1310|                                       00      |             .  |          visibility: "default" (0) 0x131d.6-0x131d.7 (0.2)
0x1310|                                          0c 00|              ..|          shndx: 12 0x131e-0x131f.7 (2)
      |                                               |                |        [13]{}: symbol 0x1320-0x132f.7 (16)
0x1320|00 00 00 00                                    |....            |          name: "" (0) 0x1320-0x1323.7 (4)
0x1320|            f4 0e 01 00                        |    ....        |          value: 69364 0x1324-0x1327.7 (4)
0x1320|                        00 00 00 00            |        ....    |          size: 0 0x1328-0x132b.7 (4)
0x1320|                                    03         |            .   |          bind: "local" (0) 0x132c-0x132c.3 (0.4)
0x1320|                                    03         |            .   |          type: "section" (3) 0x132c.4-0x132c.7 (0.4)
0x1320|                                       00      |             .  |          other_unused: 0 0x132d-0x132d.5 (0.6)
0x1320|                                       00      |             .  |          visibility: "default" (0) 0x132d.6-0x132d.7 (0.2)
0x1320|                                          0d 00|              ..|          shndx: 13 0x132e-0x132f.7 (2)
      |                                               |                |        [14]{}: symbol 0x1330-0x133f.7 (16)
0x1330|00 00 00 00                                    |....            |          name: "" (0) 0x1330-0x1333.7 (4)
0x1330|            f8 0e 01 00                        |    ....        |          value: 69368 0x1334-0x1337.7 (4)
0x1330|                        00 00 00 00            |        ....    |          size: 0 0x1338-0x133b.7 (4)
0x1330|                                    03         |            .   |          bind: "local" (0) 0x133c-0x133c.3 (0.4)
0x1330|                                    03         |            .   |          type: "section" (3) 0x133c.4-0x133c.7 (0.4)
0x1330|                                       00      |             .  |          other_unused: 0 0x133d-0x133d.5 (0.6)
0x1330|                                       00      |             .  |          visibility: "default" (0) 0x133d.6-0x133d.7 (0.2)
0x1330|                                          0e 00|              ..|          shndx: 14 0x133e-0x133f.7 (2)
      |                                               |                |        [15]{}: symbol 0x1340-0x134f.7 (16)
0x1340|00 00 00 00                                    |....            |          name: "" (0) 0x1340-0x1343.7 (4)
0x1340|            d0 0f 01 00                        |    ....        |          value: 69584 0x1344-0x1347.7 (4)
0x1340|                        00 00 00 00            |        ....    |          size: 0 0x1348-0x134b.7 (4)
0x1340|                                    03         |            .   |          bind: "local" (0) 0x134c-0x134c.3 (0.4)
0x1340|                                    03         |            .   |          type: "section" (3) 0x134c.4-0x134c.7 (0.4)
0x1340|                                       00      |             .  |          other_unused: 0 0x134d-0x134d.5 (0.6)
0x1340|                                       00      |             .  |          visibility: "default" (0) 0x134d.6-0x134d.7 (0.2)
0x1340|                                          0f 00|              ..|          shndx: 15 0x134e-0x134f.7 (2)
      |                                               |                |        [16]{}: symbol 0x1350-0x135f.7 (16)
0x1350|00 00 00 00                                    |....            |          name: "" (0) 0x1350-0x1353.7 (4)
0x1350|            00 10 01 00                        |    ....        |          value: 69632 0x1354-0x1357.7 (4)
0x1350|                        00 00 00 00            |        ....    |          size: 0 0x1358-0x135b.7 (4)
0x1350|                                    03         |            .   |          bind: "local" (0) 0x135c-0x135c.3 (0.4)
0x1350|                                    03         |            .   |          type: "section" (3) 0x135c.4-0x135c.7 (0.4)
0x1350|                                       00      |             .  |          other_unused: 0 0x135d-0x135d.5 (0.6)
0x1350|                                       00      |             .  |          visibility: "default" (0) 0x135d.6-0x135d.7 (0.2)
0x1350|                                          10 00|              ..|          shndx: 16 0x135e-0x135f.7 (2)
      |                                               |                |        [17]{}: symbol 0x1360-0x136f.7 (16)
0x1360|00 00 00 00                                    |....            |          name: "" (0) 0x1360-0x1363.7 (4)
0x1360|            04 10 01 00                        |    ....        |          value: 69636 0x1364-0x1367.7 (4)
0x1360|                        00 00 00 00            |        ....    |          size: 0 0x1368-0x136b.7 (4)
0x1360|                                    03         |            .   |          bind: "local" (0) 0x136c-0x136c.3 (0.4)
0x1360|                                    03         |            .   |          type: "section" (3) 0x136c.4-0x136c.7 (0.4)
0x1360|                                       00      |             .  |          other_unused: 0 0x136d-0x136d.5 (0.6)
0x1360|                                       00      |             .  |          visibility: "default" (0) 0x136d.6-0x136d.7 (0.2)
0x1360|                                          11 00|              ..|          shndx: 17 0x136e-0x136f.7 (2)
      |                                               |                |        [18]{}: symbol 0x1370-0x137f.7 (16)
0x1370|00 00 00 00                                    |....            |          name: "" (0) 0x1370-0x1373.7 (4)
0x1370|            00 00 00 00                        |    ....        |          value: 0 0x1374-0x1377.7 (4)
0x1370|                        00 00 00 00            |        ....    |          size: 0 0x1378-0x137b.7 (4)
0x1370|                                    03         |            .   |          bind: "local" (0) 0x137c-0x137c.3 (0.4)
0x1370|                                    03         |            .   |          type: "section" (3) 0x137c.4-0x137c.7 (0.4)
0x1370|                                       00      |             .  |          other_unused: 0 0x137d-0x137d.5 (0.6)
0x1370|                                       00      |             .  |          visibility: "default" (0) 0x137d.6-0x137d.7 (0.2)
0x1370|                                          12 00|              ..|          shndx: 18 0x137e-0x137f.7 (2)
      |                                               |                |        [19]{}: symbol 0x1380-0x138f.7 (16)
0x1380|00 00 00 00                                    |....            |          name: "" (0) 0x1380-0x1383.7 (4)
0x1380|            00 00 00 00                        |    ....        |          value: 0 0x1384-0x1387.7 (4)
0x1380|                        00 00 00 00            |        ....    |          size: 0 0x1388-0x138b.7 (4)
0x1380|                                    03         |            .   |          bind: "local" (0) 0x138c-0x138c.3 (0.4)
0x1380|                                    03         |            .   |          type: "section" (3) 0x138c.4-0x138c.7 (0.4)
0x1380|                                       00      |             .  |          other_unused: 0 0x138d-0x138d.5 (0.6)
0x1380|                                       00      |             .  |          visibility: "default" (0) 0x138d.6-0x138d.7 (0.2)
0x1380|                                          13 00|              ..|          shndx: 19 0x138e-0x138f.7 (2)
      |                                               |                |        [20]{}: symbol 0x1390-0x139f.7 (16)
0x1390|00 00 00 00                                    |....            |          name: "" (0) 0x1390-0x1393.7 (4)
0x1390|            00 00 00 00                        |    ....        |          value: 0 0x1394-0x1397.7 (4)
0x1390|                        00 00 00 00            |        ....    |          size: 0 0x1398-0x139b.7 (4)
0x1390|                                    03         |            .   |          bind: "local" (0) 0x139c-0x139c.3 (0.4)
0x1390|                                    03         |            .   |          type: "section" (3) 0x139c.4-0x139c.7 (0.4)
0x1390|                                       00      |             .  |          other_unused: 0 0x139d-0x139d.5 (0.6)
0x1390|                                       00      |             .  |          visibility: "default" (0) 0x139d.6-0x139d.7 (0.2)
0x1390|                                          14 00|              ..|          shndx: 20 0x139e-0x139f.7 (2)
      |                                               |                |        [21]{}: symbol 0x13a0-0x13af.7 (16)
0x13a0|00 00 00 00                                    |....            |          name: "" (0) 0x13a0-0x13a3.7 (4)
0x13a0|            00 00 00 00                        |    ....        |          value: 0 0x13a4-0x13a7.7 (4)
0x13a0|                        00 00 00 00            |        ....    |          size: 0 0x13a8-0x13ab.7 (4)
0x13a0|                                    03         |            .   |          bind: "local" (0) 0x13ac-0x13ac.3 (0.4)
0x13a0|                                    03         |            .   |          type: "section" (3) 0x13ac.4-0x13ac.7 (0.4)
0x13a0|                                       00      |             .  |          other_unused: 0 0x13ad-0x13ad.5 (0.6)
0x13a0|                                       00      |             .  |          visibility: "default" (0) 0x13ad.6-0x13ad.7 (0.2)
0x13a0|                                          15 00|              ..|          shndx: 21 0x13ae-0x13af.7 (2)
      |                                               |                |        [22]{}: symbol 0x13b0-0x13bf.7 (16)
0x13b0|00 00 00 00                                    |....            |          name: "" (0) 0x13b0-0x13b3.7 (4)
0x13b0|            00 00 00 00                        |    ....        |          value: 0 0x13b4-0x13b7.7 (4)
0x13b0|                        00 00 00 00            |        ....    |          size: 0 0x13b8-0x13bb.7 (4)
0x13b0|                                    03         |            .   |          bind: "local" (0) 0x13bc-0x13bc.3 (0.4)
0x13b0|                                    03         |            .   |          type: "section" (3) 0x13bc.4-0x13bc.7 (0.4)
0x13b0|                                       00      |             .  |          other_unused: 0 0x13bd-0x13bd.5 (0.6)
0x13b0|                                       00      |             .  |          visibility: "default" (0) 0x13bd.6-0x13bd.7 (0.2)
0x13b0|                                          16 00|              ..|          shndx: 22 0x13be-0x13bf.7 (2)
      |                                               |                |        [23]{}: symbol 0x13c0-0x13cf.7 (16)
0x13c0|00 00 00 00                                    |....            |          name: "" (0) 0x13c0-0x13c3.7 (4)
0x13c0|            00 00 00 00                        |    ....        |          value: 0 0x13c4-0x13c7.7 (4)
0x13c0|                        00 00 00 00            |        ....    |          size: 0 0x13c8-0x13cb.7 (4)
0x13c0|                                    03         |            .   |          bind: "local" (0) 0x13cc-0x13cc.3 (0.4)
0x13c0|                                    03         |            .   |          type: "section" (3) 0x13cc.4-0x13cc.7 (0.4)
0x13c0|                                       00      |             .  |          other_unused: 0 0x13cd-0x13cd.5 (0.6)
0x13c0|                                       00      |             .  |          visibility: "default" (0) 0x13cd.6-0x13cd.7 (0.2)
0x13c0|                                          17 00|              ..|          shndx: 23 0x13ce-0x13cf.7 (2)
      |                                               |                |        [24]{}: symbol 0x13d0-0x13df.7 (16)
0x13d0|00 00 00 00                                    |....            |          name: "" (0) 0x13d0-0x13d3.7 (4)
0x13d0|            00 00 00 00                        |    ....        |          value: 0 0x13d4-0x13d7.7 (4)
0x13d0|                        00 00 00 00            |        ....    |          size: 0 0x13d8-0x13db.7 (4)
0x13d0|                                    03         |            .   |          bind: "local" (0) 0x13dc-0x13dc.3 (0.4)
0x13d0|                                    03         |            .   |          type: "section" (3) 0x13dc.4-0x13dc.7 (0.4)
0x13d0|                                       00      |             .  |          other_unused: 0 0x13dd-0x13dd.5 (0.6)
0x13d0|                                       00      |             .  |          visibility: "default" (0) 0x13dd.6-0x13dd.7 (0.2)
0x13d0|                                          18 00|              ..|          shndx: 24 0x13de-0x13df.7 (2)
      |                                               |                |        [25]{}: symbol 0x13e0-0x13ef.7 (16)
0x13e0|00 00 00 00                                    |....            |          name: "" (0) 0x13e0-0x13e3.7 (4)
0x13e0|            00 00 00 00                        |    ....        |          value: 0 0x13e4-0x13e7.7 (4)
0x13e0|                        00 00 00 00            |        ....    |          size: 0 0x13e8-0x13eb.7 (4)
0x13e0|                                    03         |            .   |          bind: "local" (0) 0x13ec-0x13ec.3 (0.4)
0x13e0|                                    03         |            .   |          type: "section" (3) 0x13ec.4-0x13ec.7 (0.4)
0x13e0|                                       00      |             .  |          other_unused: 0 0x13ed-0x13ed.5 (0.6)
0x13e0|                                       00      |             .  |          visibility: "default" (0) 0x13ed.6-0x13ed.7 (0.2)
0x13e0|                                          19 00|              ..|          shndx: 25 0x13ee-0x13ef.7 (2)
      |                                               |                |        [26]{}: symbol 0x13f0-0x13ff.7 (16)
0x13f0|01 00 00 00                                    |....            |          name: "crti.o" (1) 0x13f0-0x13f3.7 (4)
0x13f0|            00 00 00 00                        |    ....        |          value: 0 0x13f4-0x13f7.7 (4)
0x13f0|                        00 00 00 00            |        ....    |          size: 0 0x13f8-0x13fb.7 (4)
0x13f0|                                    04         |            .   |          bind: "local" (0) 0x13fc-0x13fc.3 (0.4)
0x13f0|                                    04         |            .   |          type: "file" (4) 0x13fc.4-0x13fc.7 (0.4)
0x13f0|                                       00      |             .  |          other_unused: 0 0x13fd-0x13fd.5 (0.6)
0x13f0|                                       00      |             .  |          visibility: "default" (0) 0x13fd.6-0x13fd.7 (0.2)
0x13f0|                                          f1 ff|              ..|          shndx: 65521 0x13fe-0x13ff.7 (2)
      |                                               |                |        [27]{}: symbol 0x1400-0x140f.7 (16)
0x1400|08 00 00 00                                    |....            |          name: "$a" (8) 0x1400-0x1403.7 (4)
0x1400|            c8 02 00 00                        |    ....        |          value: 712 0x1404-0x1407.7 (4)
0x1400|                        00 00 00 00            |        ....    |          size: 0 0x1408-0x140b.7 (4)
0x1400|                                    00         |            .   |          bind: "local" (0) 0x140c-0x140c.3 (0.4)
0x1400|                                    00         |            .   |          type: "notype" (0) 0x140c.4-0x140c.7 (0.4)
0x1400|                                       00      |             .  |          other_unused: 0 0x140d-0x140d.5 (0.6)
0x1400|                                       00      |             .  |          visibility: "default" (0) 0x140d.6-0x140d.7 (0.2)
0x1400|                                          06 00|              ..|          shndx: 6 0x140e-0x140f.7 (2)
      |                                               |                |        [28]{}: symbol 0x1410-0x141f.7 (16)
0x1410|08 00 00 00                                    |....            |          name: "$a" (8) 0x1410-0x1413.7 (4)
0x1410|            a8 04 00 00                        |    ....        |          value: 1192 0x1414-0x1417.7 (4)
0x1410|                        00 00 00 00            |        ....    |          size: 0 0x1418-0x141b.7 (4)
0x1410|                                    00         |            .   |          bind: "local" (0) 0x141c-0x141c.3 (0.4)
0x1410|                                    00         |            .   |          type: "notype" (0) 0x141c.4-0x141c.7 (0.4)
0x1410|                                       00      |             .  |          other_unused: 0 0x141d-0x141d.5 (0.6)
0x1410|                                       00      |             .  |          visibility: "default" (0) 0x141d.6-0x141d.7 (0.2)
0x1410|                                          09 00|              ..|          shndx: 9 0x141e-0x141f.7 (2)
      |                                               |                |        [29]{}: symbol 0x1420-0x142f.7 (16)
0x1420|0b 00 00 00                                    |....            |          name: "crtn.o" (11) 0x1420-0x1423.7 (4)
0x1420|            00 00 00 00                        |    ....        |          value: 0 0x1424-0x1427.7 (4)
0x1420|                        00 00 00 00            |        ....    |          size: 0 0x1428-0x142b.7 (4)
0x1420|                                    04         |            .   |          bind: "local" (0) 0x142c-0x142c.3 (0.4)
0x1420|                                    04         |            .   |          type: "file" (4) 0x142c.4-0x142c.7 (0.4)
0x1420|                                       00      |             .  |          other_unused: 0 0x142d-0x142d.5 (0.6)
0x1420|                                       00      |             .  |          visibility: "default" (0) 0x142d.6-0x142d.7 (0.2)
0x1420|                                          f1 ff|              ..|          shndx: 65521 0x142e-0x142f.7 (2)
      |                                               |                |        [30]{}: symbol 0x1430-0x143f.7 (16)
0x1430|08 00 00 00                                    |....            |          name: "$a" (8) 0x1430-0x1433.7 (4)
0x1430|            cc 02 00 00                        |    ....        |          value: 716 0x1434-0x1437.7 (4)
0x1430|                        00 00 00 00            |        ....    |          size: 0 0x1438-0x143b.7 (4)
0x1430|                                    00         |            .   |          bind: "local" (0) 0x143c-0x143c.3 (0.4)
0x1430|                                    00         |            .   |          type: "notype" (0) 0x143c.4-0x143c.7 (0.4)
0x1430|                                       00      |             .  |          other_unused: 0 0x143d-0x143d.5 (0.6)
0x1430|                                       00      |             .  |          visibility: "default" (0) 0x143d.6-0x143d.7 (0.2)
0x1430|                                          06 00|              ..|          shndx: 6 0x143e-0x143f.7 (2)
      |                                               |                |        [31]{}: symbol 0x1440-0x144f.7 (16)
0x1440|08 00 00 00                                    |....            |          name: "$a" (8) 0x1440-0x1443.7 (4)
0x1440|            ac 04 00 00                        |    ....        |          value: 1196 0x1444-0x1447.7 (4)
0x1440|                        00 00 00 00            |        ....    |          size: 0 0x1448-0x144b.7 (4)
0x1440|                                    00         |            .   |          bind: "local" (0) 0x144c-0x144c.3 (0.4)
0x1440|                                    00         |            .   |          type: "notype" (0) 0x144c.4-0x144c.7 (0.4)
0x1440|                                       00      |             .  |          other_unused: 0 0x144d-0x144d.5 (0.6)
0x1440|                                       00      |             .  |          visibility: "default" (0) 0x144d.6-0x144d.7 (0.2)
0x1440|                                          09 00|              ..|          shndx: 9 0x144e-0x144f.7 (2)
      |                                               |                |        [32]{}: symbol 0x1450-0x145f.7 (16)
0x1450|12 00 00 00                                    |....            |          name: "crtstuff.c" (18) 0x1450-0x1453.7 (4)
0x1450|            00 00 00 00                        |    ....        |          value: 0 0x1454-0x1457.7 (4)
0x1450|                        00 00 00 00            |        ....    |          size: 0 0x1458-0x145b.7 (4)
0x1450|                                    04         |            .   |          bind: "local" (0) 0x145c-0x145c.3 (0.4)
0x1450|                                    04         |            .   |          type: "file" (4) 0x145c.4-0x145c.7 (0.4)
0x1450|                                       00      |             .  |          other_unused: 0 0x145d-0x145d.5 (0.6)
0x1450|                                       00      |             .  |          visibility: "default" (0) 0x145d.6-0x145d.7 (0.2)
0x1450|                                          f1 ff|              ..|          shndx: 65521 0x145e-0x145f.7 (2)
      |                                               |                |        [33]{}: symbol 0x1460-0x146f.7 (16)
0x1460|1d 00 00 00                                    |....            |          name: "$d" (29) 0x1460-0x1463.7 (4)
0x1460|            b4 04 00 00                        |    ....        |          value: 1204 0x1464-0x1467.7 (4)
0x1460|                        00 00 00 00            |        ....    |          size: 0 0x1468-0x146b.7 (4)
0x1460|                                    00         |            .   |          bind: "local" (0) 0x146c-0x146c.3 (0.4)
0x1460|                                    00         |            .   |          type: "notype" (0) 0x146c.4-0x146c.7 (0.4)
0x1460|                                       00      |             .  |          other_unused: 0 0x146d-0x146d.5 (0.6)
0x1460|                                       00      |             .  |          visibility: "default" (0) 0x146d.6-0x146d.7 (0.2)
0x1460|                                          0a 00|              ..|          shndx: 10 0x146e-0x146f.7 (2)
      |                                               |                |        [34]{}: symbol 0x1470-0x147f.7 (16)
0x1470|20 00 00 00                                    | ...            |          name: "all_implied_fbits" (32) 0x1470-0x1473.7 (4)
0x1470|            b4 04 00 00                        |    ....        |          value: 1204 0x1474-0x1477.7 (4)
0x1470|                        00 00 00 00            |        ....    |          size: 0 0x1478-0x147b.7 (4)
0x1470|                                    01         |            .   |          bind: "local" (0) 0x147c-0x147c.3 (0.4)
0x1470|                                    01         |            .   |          type: "object" (1) 0x147c.4-0x147c.7 (0.4)
0x1470|                                       00      |             .  |          other_unused: 0 0x147d-0x147d.5 (0.6)
0x1470|                                       00      |             .  |          visibility: "default" (0) 0x147d.6-0x147d.7 (0.2)
0x1470|                                          0a 00|              ..|          shndx: 10 0x147e-0x147f.7 (2)
      |                                               |                |        [35]{}: symbol 0x1480-0x148f.7 (16)
0x1480|00 00 00 00                                    |....            |          name: "" (0) 0x1480-0x1483.7 (4)
0x1480|            e0 05 00 00                        |    ....        |          value: 1504 0x1484-0x1487.7 (4)
0x1480|                        00 00 00 00            |        ....    |          size: 0 0x1488-0x148b.7 (4)
0x1480|                                    01         |            .   |          bind: "local" (0) 0x148c-0x148c.3 (0.4)
0x1480|                                    01         |            .   |          type: "object" (1) 0x148c.4-0x148c.7 (0.4)
0x1480|                                       00      |             .  |          other_unused: 0 0x148d-0x148d.5 (0.6)
0x1480|                                       00      |             .  |          visibility: "default" (0) 0x148d.6-0x148d.7 (0.2)
0x1480|                                          0b 00|              ..|          shndx: 11 0x148e-0x148f.7 (2)
      |                                               |                |        [36]{}: symbol 0x1490-0x149f.7 (16)
0x1490|08 00 00 00                                    |....            |          name: "$a" (8) 0x1490-0x1493.7 (4)
0x1490|            18 03 00 00                        |    ....        |          value: 792 0x1494-0x1497.7 (4)
0x1490|                        00 00 00 00            |        ....    |          size: 0 0x1498-0x149b.7 (4)
0x1490|                                    00         |            .   |          bind: "local" (0) 0x149c-0x149c.3 (0.4)
0x1490|                                    00         |            .   |          type: "notype" (0) 0x149c.4-0x149c.7 (0.4)
0x1490|                                       00      |             .  |          other_unused: 0 0x149d-0x149d.5 (0.6)
0x1490|                                       00      |             .  |          visibility: "default" (0) 0x149d.6-0x149d.7 (0.2)
0x1490|                                          08 00|              ..|          shndx: 8 0x149e-0x149f.7 (2)
      |                                               |                |        [37]{}: symbol 0x14a0-0x14af.7 (16)
0x14a0|32 00 00 00                                    |2...            |          name: "deregister_tm_clones" (50) 0x14a0-0x14a3.7 (4)
0x14a0|            18 03 00 00                        |    ....        |          value: 792 0x14a4-0x14a7.7 (4)
0x14a0|                        00 00 00 00            |        ....    |          size: 0 0x14a8-0x14ab.7 (4)
0x14a0|                                    02         |            .   |          bind: "local" (0) 0x14ac-0x14ac.3 (0.4)
0x14a0|                                    02         |            .   |          type: "func" (2) 0x14ac.4-0x14ac.7 (0.4)
0x14a0|                                       00      |             .  |          other_unused: 0 0x14ad-0x14ad.5 (0.6)
0x14a0|                                       00      |             .  |          visibility: "default" (0) 0x14ad.6-0x14ad.7 (0.2)
0x14a0|                                          08 00|              ..|          shndx: 8 0x14ae-0x14af.7 (2)
      |                                               |                |        [38]{}: symbol 0x14b0-0x14bf.7 (16)
0x14b0|1d 00 00 00                                    |....            |          name: "$d" (29) 0x14b0-0x14b3.7 (4)
0x14b0|            4c 03 00 00                        |    L...        |          value: 844 0x14b4-0x14b7.7 (4)
0x14b0|                        00 00 00 00            |        ....    |          size: 0 0x14b8-0x14bb.7 (4)
0x14b0|                                    00         |            .   |          bind: "local" (0) 0x14bc-0x14bc.3 (0.4)
0x14b0|                                    00         |            .   |          type: "notype" (0) 0x14bc.4-0x14bc.7 (0.4)
0x14b0|                                       00      |             .  |          other_unused: 0 0x14bd-0x14bd.5 (0.6)
0x14b0|                                       00      |             .  |          visibility: "default" (0) 0x14bd.6-0x14bd.7 (0.2)
0x14b0|                                          08 00|              ..|          shndx: 8 0x14be-0x14bf.7 (2)
      |                                               |                |        [39]{}: symbol 0x14c0-0x14cf.7 (16)
0x14c0|08 00 00 00                                    |....            |          name: "$a" (8) 0x14c0-0x14c3.7 (4)
0x14c0|            5c 03 00 00                        |    \...        |          value: 860 0x14c4-0x14c7.7 (4)
0x14c0|                        00 00 00 00            |        ....    |          size: 0 0x14c8-0x14cb.7 (4)
0x14c0|                                    00         |            .   |          bind: "local" (0) 0x14cc-0x14cc.3 (0.4)
0x14c0|                                    00         |            .   |          type: "notype" (0) 0x14cc.4-0x14cc.7 (0.4)
0x14c0|                                       00      |             .  |          other_unused: 0 0x14cd-0x14cd.5 (0.6)
0x14c0|                                       00      |             .  |          visibility: "default" (0) 0x14cd.6-0x14cd.7 (0.2)
0x14c0|                                          08 00|              ..|          shndx: 8 0x14ce-0x14cf.7 (2)
      |                                               |                |        [40]{}: symbol 0x14d0-0x14df.7 (16)
0x14d0|34 00 00 00                                    |4...            |          name: "register_tm_clones" (52) 0x14d0-0x14d3.7 (4)
0x14d0|            5c 03 00 00                        |    \...        |          value: 860 0x14d4-0x14d7.7 (4)
0x14d0|                        00 00 00 00            |        ....    |          size: 0 0x14d8-0x14db.7 (4)
0x14d0|                                    02         |            .   |          bind: "local" (0) 0x14dc-0x14dc.3 (0.4)
0x14d0|                                    02         |            .   |          type: "func" (2) 0x14dc.4-0x14dc.7 (0.4)
0x14d0|                                       00      |             .  |          other_unused: 0 0x14dd-0x14dd.5 (0.6)
0x14d0|                                       00      |             .  |          visibility: "default" (0) 0x14dd.6-0x14dd.7 (0.2)
0x14d0|                                          08 00|              ..|          shndx: 8 0x14de-0x14df.7 (2)
      |                                               |                |        [41]{}: symbol 0x14e0-0x14ef.7 (16)
0x14e0|1d 00 00 00                                    |....            |          name: "$d" (29) 0x14e0-0x14e3.7 (4)
0x14e0|            9c 03 00 00                        |    ....        |          value: 924 0x14e4-0x14e7.7 (4)
0x14e0|                        00 00 00 00            |        ....    |          size: 0 0x14e8-0x14eb.7 (4)
0x14e0|                                    00         |            .   |          bind: "local" (0) 0x14ec-0x14ec.3 (0.4)
0x14e0|                                    00         |            .   |          type: "notype" (0) 0x14ec.4-0x14ec.7 (0.4)
0x14e0|                                       00      |             .  |          other_unused: 0 0x14ed-0x14ed.5 (0.6)
0x14e0|                                       00      |             .  |          visibility: "default" (0) 0x14ed.6-0x14ed.7 (0.2)
0x14e0|                                          08 00|              ..|          shndx: 8 0x14ee-0x14ef.7 (2)
      |                                               |                |        [42]{}: symbol 0x14f0-0x14ff.7 (16)
0x14f0|1d 00 00 00                                    |....            |          name: "$d" (29) 0x14f0-0x14f3.7 (4)
0x14f0|            00 10 01 00                        |    ....        |          value: 69632 0x14f4-0x14f7.7 (4)
0x14f0|                        00 00 00 00            |        ....    |          size: 0 0x14f8-0x14fb.7 (4)
0x14f0|                                    00         |            .   |          bind: "local" (0) 0x14fc-0x14fc.3 (0.4)
0x14f0|                                    00         |            .   |          type: "notype" (0) 0x14fc.4-0x14fc.7 (0.4)
0x14f0|                                       00      |             .  |          other_unused: 0 0x14fd-0x14fd.5 (0.6)
0x14f0|                                       00      |             .  |          visibility: "default" (0) 0x14fd.6-0x14fd.7 (0.2)
0x14f0|                                          10 00|              ..|          shndx: 16 0x14fe-0x14ff.7 (2)
      |                                               |                |        [43]{}: symbol 0x1500-0x150f.7 (16)
0x1500|08 00 00 00                                    |....            |          name: "$a" (8) 0x1500-0x1503.7 (4)
0x1500|            ac 03 00 00                        |    ....        |          value: 940 0x1504-0x1507.7 (4)
0x1500|                        00 00 00 00            |        ....    |          size: 0 0x1508-0x150b.7 (4)
0x1500|                                    00         |            .   |          bind: "local" (0) 0x150c-0x150c.3 (0.4)
0x1500|                                    00         |            .   |          type: "notype" (0) 0x150c.4-0x150c.7 (0.4)
0x1500|                                       00      |             .  |          other_unused: 0 0x150d-0x150d.5 (0.6)
0x1500|                                       00      |             .  |          visibility: "default" (0) 0x150d.6-0x150d.7 (0.2)
0x1500|                                          08 00|              ..|          shndx: 8 0x150e-0x150f.7 (2)
      |                                               |                |        [44]{}: symbol 0x1510-0x151f.7 (16)
0x1510|47 00 00 00                                    |G...            |          name: "__do_global_dtors_aux" (71) 0x1510-0x1513.7 (4)
0x1510|            ac 03 00 00                        |    ....        |          value: 940 0x1514-0x1517.7 (4)
0x1510|                        00 00 00 00            |        ....    |          size: 0 0x1518-0x151b.7 (4)
0x1510|                                    02         |            .   |          bind: "local" (0) 0x151c-0x151c.3 (0.4)
0x1510|                                    02         |            .   |          type: "func" (2) 0x151c.4-0x151c.7 (0.4)
0x1510|                                       00      |             .  |          other_unused: 0 0x151d-0x151d.5 (0.6)
0x1510|                                       00      |             .  |          visibility: "default" (0) 0x151d.6-0x151d.7 (0.2)
0x1510|                                          08 00|              ..|          shndx: 8 0x151e-0x151f.7 (2)
      |                                               |                |        [45]{}: symbol 0x1520-0x152f.7 (16)
0x1520|1d 00 00 00                                    |....            |          name: "$d" (29) 0x1520-0x1523.7 (4)
0x1520|            1c 04 00 00                        |    ....        |          value: 1052 0x1524-0x1527.7 (4)
0x1520|                        00 00 00 00            |        ....    |          size: 0 0x1528-0x152b.7 (4)
0x1520|                                    00         |            .   |          bind: "local" (0) 0x152c-0x152c.3 (0.4)
0x1520|                                    00         |            .   |          type: "notype" (0) 0x152c.4-0x152c.7 (0.4)
0x1520|                                       00      |             .  |          other_unused: 0 0x152d-0x152d.5 (0.6)
0x1520|                                       00      |             .  |          visibility: "default" (0) 0x152d.6-0x152d.7 (0.2)
0x1520|                                          08 00|              ..|          shndx: 8 0x152e-0x152f.7 (2)
      |                                               |                |        [46]{}: symbol 0x1530-0x153f.7 (16)
0x1530|5d 00 00 00                                    |]...            |          name: "completed.1" (93) 0x1530-0x1533.7 (4)
0x1530|            04 10 01 00                        |    ....        |          value: 69636 0x1534-0x1537.7 (4)
0x1530|                        01 00 00 00            |        ....    |          size: 1 0x1538-0x153b.7 (4)
0x1530|                                    01         |            .   |          bind: "local" (0) 0x153c-0x153c.3 (0.4)
0x1530|                                    01         |            .   |          type: "object" (1) 0x153c.4-0x153c.7 (0.4)
0x1530|                                       00      |             .  |          other_unused: 0 0x153d-0x153d.5 (0.6)
0x1530|                                       00      |             .  |          visibility: "default" (0) 0x153d.6-0x153d.7 (0.2)
0x1530|                                          11 00|              ..|          shndx: 17 0x153e-0x153f.7 (2)
      |                                               |                |        [47]{}: symbol 0x1540-0x154f.7 (16)
0x1540|1d 00 00 00                                    |....            |          name: "$d" (29) 0x1540-0x1543.7 (4)
0x1540|            f4 0e 01 00                        |    ....        |          value: 69364 0x1544-0x1547.7 (4)
0x1540|                        00 00 00 00            |        ....    |          size: 0 0x1548-0x154b.7 (4)
0x1540|                                    00         |            .   |          bind: "local" (0) 0x154c-0x154c.3 (0.4)
0x1540|                                    00         |            .   |          type: "notype" (0) 0x154c.4-0x154c.7 (0.4)
0x1540|                                       00      |             .  |          other_unused: 0 0x154d-0x154d.5 (0.6)
0x1540|                                       00      |             .  |          visibility: "default" (0) 0x154d.6-0x154d.7 (0.2)
0x1540|                                          0d 00|              ..|          shndx: 13 0x154e-0x154f.7 (2)
      |                                               |                |        [48]{}: symbol 0x1550-0x155f.7 (16)
0x1550|69 00 00 00                                    |i...            |          name: "__do_global_dtors_aux_fini_array_entry" (105) 0x1550-0x1553.7 (4)
0x1550|            f4 0e 01 00                        |    ....        |          value: 69364 0x1554-0x1557.7 (4)
0x1550|                        00 00 00 00            |        ....    |          size: 0 0x1558-0x155b.7 (4)
0x1550|                                    01         |            .   |          bind: "local" (0) 0x155c-0x155c.3 (0.4)
0x1550|                                    01         |            .   |          type: "object" (1) 0x155c.4-0x155c.7 (0.4)
0x1550|                                       00      |             .  |          other_unused: 0 0x155d-0x155d.5 (0.6)
0x1550|                                       00      |             .  |          visibility: "default" (0) 0x155d.6-0x155d.7 (0.2)
0x1550|                                          0d 00|              ..|          shndx: 13 0x155e-0x155f.7 (2)
      |                                               |                |        [49]{}: symbol 0x1560-0x156f.7 (16)
0x1560|08 00 00 00                                    |....            |          name: "$a" (8) 0x1560-0x1563.7 (4)
0x1560|            38 04 00 00                        |    8...        |          value: 1080 0x1564-0x1567.7 (4)
0x1560|                        00 00 00 00            |        ....    |          size: 0 0x1568-0x156b.7 (4)
0x1560|                                    00         |            .   |          bind: "local" (0) 0x156c-0x156c.3 (0.4)
0x1560|                                    00         |            .   |          type: "notype" (0) 0x156c.4-0x156c.7 (0.4)
0x1560|                                       00      |             .  |          other_unused: 0 0x156d-0x156d.5 (0.6)
0x1560|                                       00      |             .  |          visibility: "default" (0) 0x156d.6-0x156d.7 (0.2)
0x1560|                                          08 00|              ..|          shndx: 8 0x156e-0x156f.7 (2)
      |                                               |                |        [50]{}: symbol 0x1570-0x157f.7 (16)
0x1570|90 00 00 00                                    |....            |          name: "frame_dummy" (144) 0x1570-0x1573.7 (4)
0x1570|            38 04 00 00                        |    8...        |          value: 1080 0x1574-0x1577.7 (4)
0x1570|                        00 00 00 00            |        ....    |          size: 0 0x1578-0x157b.7 (4)
0x1570|                                    02         |            .   |          bind: "local" (0) 0x157c-0x157c.3 (0.4)
0x1570|                                    02         |            .   |          type: "func" (2) 0x157c.4-0x157c.7 (0.4)
0x1570|                                       00      |             .  |          other_unused: 0 0x157d-0x157d.5 (0.6)
0x1570|                                       00      |             .  |          visibility: "default" (0) 0x157d.6-0x157d.7 (0.2)
0x1570|                                          08 00|              ..|          shndx: 8 0x157e-0x157f.7 (2)
      |                                               |                |        [51]{}: symbol 0x1580-0x158f.7 (16)
0x1580|1d 00 00 00                                    |....            |          name: "$d" (29) 0x1580-0x1583.7 (4)
0x1580|            74 04 00 00                        |    t...        |          value: 1140 0x1584-0x1587.7 (4)
0x1580|                        00 00 00 00            |        ....    |          size: 0 0x1588-0x158b.7 (4)
0x1580|                                    00         |            .   |          bind: "local" (0) 0x158c-0x158c.3 (0.4)
0x1580|                                    00         |            .   |          type: "notype" (0) 0x158c.4-0x158c.7 (0.4)
0x1580|                                       00      |             .  |          other_unused: 0 0x158d-0x158d.5 (0.6)
0x1580|                                       00      |             .  |          visibility: "default" (0) 0x158d.6-0x158d.7 (0.2)
0x1580|                                          08 00|              ..|          shndx: 8 0x158e-0x158f.7 (2)
      |                                               |                |        [52]{}: symbol 0x1590-0x159f.7 (16)
0x1590|9c 00 00 00                                    |....            |          name: "object.0" (156) 0x1590-0x1593.7 (4)
0x1590|            08 10 01 00                        |    ....        |          value: 69640 0x1594-0x1597.7 (4)
0x1590|                        18 00 00 00            |        ....    |          size: 24 0x1598-0x159b.7 (4)
0x1590|                                    01         |            .   |          bind: "local" (0) 0x159c-0x159c.3 (0.4)
0x1590|                                    01         |            .   |          type: "object" (1) 0x159c.4-0x159c.7 (0.4)
0x1590|                                       00      |             .  |          other_unused: 0 0x159d-0x159d.5 (0.6)
0x1590|                                       00      |             .  |          visibility: "default" (0) 0x159d.6-0x159d.7 (0.2)
0x1590|                                          11 00|              ..|          shndx: 17 0x159e-0x159f.7 (2)
      |                                               |                |        [53]{}: symbol 0x15a0-0x15af.7 (16)
0x15a0|1d 00 00 00                                    |....            |          name: "$d" (29) 0x15a0-0x15a3.7 (4)
0x15a0|            f0 0e 01 00                        |    ....        |          value: 69360 0x15a4-0x15a7.7 (4)
0x15a0|                        00 00 00 00            |        ....    |          size: 0 0x15a8-0x15ab.7 (4)
0x15a0|                                    00         |            .   |          bind: "local" (0) 0x15ac-0x15ac.3 (0.4)
0x15a0|                                    00         |            .   |          type: "notype" (0) 0x15ac.4-0x15ac.7 (0.4)
0x15a0|                                       00      |             .  |          other_unused: 0 0x15ad-0x15ad.5 (0.6)
0x15a0|                                       00      |             .  |          visibility: "default" (0) 0x15ad.6-0x15ad.7 (0.2)
0x15a0|                                          0c 00|              ..|          shndx: 12 0x15ae-0x15af.7 (2)
      |                                               |                |        [54]{}: symbol 0x15b0-0x15bf.7 (16)
0x15b0|a5 00 00 00                                    |....            |          name: "__frame_dummy_init_array_entry" (165) 0x15b0-0x15b3.7 (4)
0x15b0|            f0 0e 01 00                        |    ....        |          value: 69360 0x15b4-0x15b7.7 (4)
0x15b0|                        00 00 00 00            |        ....    |          size: 0 0x15b8-0x15bb.7 (4)
0x15b0|                                    01         |            .   |          bind: "local" (0) 0x15bc-0x15bc.3 (0.4)
0x15b0|                                    01         |            .   |          type: "object" (1) 0x15bc.4-0x15bc.7 (0.4)
0x15b0|                                       00      |             .  |          other_unused: 0 0x15bd-0x15bd.5 (0.6)
0x15b0|                                       00      |             .  |          visibility: "default" (0) 0x15bd.6-0x15bd.7 (0.2)
0x15b0|                                          0c 00|              ..|          shndx: 12 0x15be-0x15bf.7 (2)
      |                                               |                |        [55]{}: symbol 0x15c0-0x15cf.7 (16)
0x15c0|1d 00 00 00                                    |....            |          name: "$d" (29) 0x15c0-0x15c3.7 (4)
0x15c0|            05 10 01 00                        |    ....        |          value: 69637 0x15c4-0x15c7.7 (4)
0x15c0|                        00 00 00 00            |        ....    |          size: 0 0x15c8-0x15cb.7 (4)
0x15c0|                                    00         |            .   |          bind: "local" (0) 0x15cc-0x15cc.3 (0.4)
0x15c0|                                    00         |            .   |          type: "notype" (0) 0x15cc.4-0x15cc.7 (0.4)
0x15c0|                                       00      |             .  |          other_unused: 0 0x15cd-0x15cd.5 (0.6)
0x15c0|                                       00      |             .  |          visibility: "default" (0) 0x15cd.6-0x15cd.7 (0.2)
0x15c0|                                          11 00|              ..|          shndx: 17 0x15ce-0x15cf.7 (2)
      |                                               |                |        [56]{}: symbol 0x15d0-0x15df.7 (16)
0x15d0|c4 00 00 00                                    |....            |          name: "libbbb.c" (196) 0x15d0-0x15d3.7 (4)
0x15d0|            00 00 00 00                        |    ....        |          value: 0 0x15d4-0x15d7.7 (4)
0x15d0|                        00 00 00 00            |        ....    |          size: 0 0x15d8-0x15db.7 (4)
0x15d0|                                    04         |            .   |          bind: "local" (0) 0x15dc-0x15dc.3 (0.4)
0x15d0|                                    04         |            .   |          type: "file" (4) 0x15dc.4-0x15dc.7 (0.4)
0x15d0|                                       00      |             .  |          other_unused: 0 0x15dd-0x15dd.5 (0.6)
0x15d0|                                       00      |             .  |          visibility: "default" (0) 0x15dd.6-0x15dd.7 (0.2)
0x15d0|                                          f1 ff|              ..|          shndx: 65521 0x15de-0x15df.7 (2)
      |                                               |                |        [57]{}: symbol 0x15e0-0x15ef.7 (16)
0x15e0|1d 00 00 00                                    |....            |          name: "$d" (29) 0x15e0-0x15e3.7 (4)
0x15e0|            44 05 00 00                        |    D...        |          value: 1348 0x15e4-0x15e7.7 (4)
0x15e0|                        00 00 00 00            |        ....    |          size: 0 0x15e8-0x15eb.7 (4)
0x15e0|                                    00         |            .   |          bind: "local" (0) 0x15ec-0x15ec.3 (0.4)
0x15e0|                                    00         |            .   |          type: "notype" (0) 0x15ec.4-0x15ec.7 (0.4)
0x15e0|                                       00      |             .  |          other_unused: 0 0x15ed-0x15ed.5 (0.6)
0x15e0|                                       00      |             .  |          visibility: "default" (0) 0x15ed.6-0x15ed.7 (0.2)
0x15e0|                                          0a 00|              ..|          shndx: 10 0x15ee-0x15ef.7 (2)
      |                                               |                |        [58]{}: symbol 0x15f0-0x15ff.7 (16)
0x15f0|08 00 00 00                                    |....            |          name: "$a" (8) 0x15f0-0x15f3.7 (4)
0x15f0|            84 04 00 00                        |    ....        |          value: 1156 0x15f4-0x15f7.7 (4)
0x15f0|                        00 00 00 00            |        ....    |          size: 0 0x15f8-0x15fb.7 (4)
0x15f0|                                    00         |            .   |          bind: "local" (0) 0x15fc-0x15fc.3 (0.4)
0x15f0|                                    00         |            .   |          type: "notype" (0) 0x15fc.4-0x15fc.7 (0.4)
0x15f0|                                       00      |             .  |          other_unused: 0 0x15fd-0x15fd.5 (0.6)
0x15f0|                                       00      |             .  |          visibility: "default" (0) 0x15fd.6-0x15fd.7 (0.2)
0x15f0|                                          08 00|              ..|          shndx: 8 0x15fe-0x15ff.7 (2)
      |                                               |                |        [59]{}: symbol 0x1600-0x160f.7 (16)
0x1600|1d 00 00 00                                    |....            |          name: "$d" (29) 0x1600-0x1603.7 (4)
0x1600|            a4 04 00 00                        |    ....        |          value: 1188 0x1604-0x1607.7 (4)
0x1600|                        00 00 00 00            |        ....    |          size: 0 0x1608-0x160b.7 (4)
0x1600|                                    00         |            .   |          bind: "local" (0) 0x160c-0x160c.3 (0.4)
0x1600|                                    00         |            .   |          type: "notype" (0) 0x160c.4-0x160c.7 (0.4)
0x1600|                                       00      |             .  |          other_unused: 0 0x160d-0x160d.5 (0.6)
0x1600|                                       00      |             .  |          visibility: "default" (0) 0x160d.6-0x160d.7 (0.2)
0x1600|                                          08 00|              ..|          shndx: 8 0x160e-0x160f.7 (2)
      |                                               |                |        [60]{}: symbol 0x1610-0x161f.7 (16)
0x1610|12 00 00 00                                    |....            |          name: "crtstuff.c" (18) 0x1610-0x1613.7 (4)
0x1610|            00 00 00 00                        |    ....        |          value: 0 0x1614-0x1617.7 (4)
0x1610|                        00 00 00 00            |        ....    |          size: 0 0x1618-0x161b.7 (4)
0x1610|                                    04         |            .   |          bind: "local" (0) 0x161c-0x161c.3 (0.4)
0x1610|                                    04         |            .   |          type: "file" (4) 0x161c.4-0x161c.7 (0.4)
0x1610|                                       00      |             .  |          other_unused: 0 0x161d-0x161d.5 (0.6)
0x1610|                                       00      |             .  |          visibility: "default" (0) 0x161d.6-0x161d.7 (0.2)
0x1610|                                          f1 ff|              ..|          shndx: 65521 0x161e-0x161f.7 (2)
      |                                               |                |        [61]{}: symbol 0x1620-0x162f.7 (16)
0x1620|1d 00 00 00                                    |....            |          name: "$d" (29) 0x1620-0x1623.7 (4)
0x1620|            50 05 00 00                        |    P...        |          value: 1360 0x1624-0x1627.7 (4)
0x1620|                        00 00 00 00            |        ....    |          size: 0 0x1628-0x162b.7 (4)
0x1620|                                    00         |            .   |          bind: "local" (0) 0x162c-0x162c.3 (0.4)
0x1620|                                    00         |            .   |          type: "notype" (0) 0x162c.4-0x162c.7 (0.4)
0x1620|                                       00      |             .  |          other_unused: 0 0x162d-0x162d.5 (0.6)
0x1620|                                       00      |             .  |          visibility: "default" (0) 0x162d.6-0x162d.7 (0.2)
0x1620|                                          0a 00|              ..|          shndx: 10 0x162e-0x162f.7 (2)
      |                                               |                |        [62]{}: symbol 0x1630-0x163f.7 (16)
0x1630|20 00 00 00                                    | ...            |          name: "all_implied_fbits" (32) 0x1630-0x1633.7 (4)
0x1630|            50 05 00 00                        |    P...        |          value: 1360 0x1634-0x1637.7 (4)
0x1630|                        00 00 00 00            |        ....    |          size: 0 0x1638-0x163b.7 (4)
0x1630|                                    01         |            .   |          bind: "local" (0) 0x163c-0x163c.3 (0.4)
0x1630|                                    01         |            .   |          type: "object" (1) 0x163c.4-0x163c.7 (0.4)
0x1630|                                       00      |             .  |          other_unused: 0 0x163d-0x163d.5 (0.6)
0x1630|                                       00      |             .  |          visibility: "default" (0) 0x163d.6-0x163d.7 (0.2)
0x1630|                                          0a 00|              ..|          shndx: 10 0x163e-0x163f.7 (2)
      |                                               |                |        [63]{}: symbol 0x1640-0x164f.7 (16)
0x1640|1d 00 00 00                                    |....            |          name: "$d" (29) 0x1640-0x1643.7 (4)
0x1640|            e0 05 00 00                        |    ....        |          value: 1504 0x1644-0x1647.7 (4)
0x1640|                        00 00 00 00            |        ....    |          size: 0 0x1648-0x164b.7 (4)
0x1640|                                    00         |            .   |          bind: "local" (0) 0x164c-0x164c.3 (0.4)
0x1640|                                    00         |            .   |          type: "notype" (0) 0x164c.4-0x164c.7 (0.4)
0x1640|                                       00      |             .  |          other_unused: 0 0x164d-0x164d.5 (0.6)
0x1640|                                       00      |             .  |          visibility: "default" (0) 0x164d.6-0x164d.7 (0.2)
0x1640|                                          0b 00|              ..|          shndx: 11 0x164e-0x164f.7 (2)
      |                                               |                |        [64]{}: symbol 0x1650-0x165f.7 (16)
0x1650|cd 00 00 00                                    |....            |          name: "__FRAME_END__" (205) 0x1650-0x1653.7 (4)
0x1650|            e0 05 00 00                        |    ....        |          value: 1504 0x1654-0x1657.7 (4)
0x1650|                        00 00 00 00            |        ....    |          size: 0 0x1658-0x165b.7 (4)
0x1650|                                    01         |            .   |          bind: "local" (0) 0x165c-0x165c.3 (0.4)
0x1650|                                    01         |            .   |          type: "object" (1) 0x165c.4-0x165c.7 (0.4)
0x1650|                                       00      |             .  |          other_unused: 0 0x165d-0x165d.5 (0.6)
0x1650|                                       00      |             .  |          visibility: "default" (0) 0x165d.6-0x165d.7 (0.2)
0x1650|                                          0b 00|              ..|          shndx: 11 0x165e-0x165f.7 (2)
      |                                               |                |        [65]{}: symbol 0x1660-0x166f.7 (16)
0x1660|00 00 00 00                                    |....            |          name: "" (0) 0x1660-0x1663.7 (4)
0x1660|            00 00 00 00                        |    ....        |          value: 0 0x1664-0x1667.7 (4)
0x1660|                        00 00 00 00            |        ....    |          size: 0 0x1668-0x166b.7 (4)
0x1660|                                    04         |            .   |          bind: "local" (0) 0x166c-0x166c.3 (0.4)
0x1660|                                    04         |            .   |          type: "file" (4) 0x166c.4-0x166c.7 (0.4)
0x1660|                                       00      |             .  |          other_unused: 0 0x166d-0x166d.5 (0.6)
0x1660|                                       00      |             .  |          visibility: "default" (0) 0x166d.6-0x166d.7 (0.2)
0x1660|                                          f1 ff|              ..|          shndx: 65521 0x166e-0x166f.7 (2)
      |                                               |                |        [66]{}: symbol 0x1670-0x167f.7 (16)
0x1670|db 00 00 00                                    |....            |          name: "_DYNAMIC" (219) 0x1670-0x1673.7 (4)
0x1670|            f8 0e 01 00                        |    ....        |          value: 69368 0x1674-0x1677.7 (4)
0x1670|                        00 00 00 00            |        ....    |          size: 0 0x1678-0x167b.7 (4)
0x1670|                                    01         |            .   |          bind: "local" (0) 0x167c-0x167c.3 (0.4)
0x1670|                                    01         |            .   |          type: "object" (1) 0x167c.4-0x167c.7 (0.4)
0x1670|                                       00      |             .  |          other_unused: 0 0x167d-0x167d.5 (0.6)
0x1670|                                       00      |             .  |          visibility: "default" (0) 0x167d.6-0x167d.7 (0.2)
0x1670|                                          f1 ff|              ..|          shndx: 65521 0x167e-0x167f.7 (2)
      |                                               |                |        [67]{}: symbol 0x1680-0x168f.7 (16)
0x1680|e4 00 00 00                                    |....            |          name: "__TMC_END__" (228) 0x1680-0x1683.7 (4)
0x1680|            04 10 01 00                        |    ....        |          value: 69636 0x1684-0x1687.7 (4)
0x1680|                        00 00 00 00            |        ....    |          size: 0 0x1688-0x168b.7 (4)
0x1680|                                    01         |            .   |          bind: "local" (0) 0x168c-0x168c.3 (0.4)
0x1680|                                    01         |            .   |          type: "object" (1) 0x168c.4-0x168c.7 (0.4)
0x1680|                                       00      |             .  |          other_unused: 0 0x168d-0x168d.5 (0.6)
0x1680|                                       00      |             .  |          visibility: "default" (0) 0x168d.6-0x168d.7 (0.2)
0x1680|                                          10 00|              ..|          shndx: 16 0x168e-0x168f.7 (2)
      |                                               |                |        [68]{}: symbol 0x1690-0x169f.7 (16)
0x1690|f0 00 00 00                                    |....            |          name: "__dso_handle" (240) 0x1690-0x1693.7 (4)
0x1690|            00 10 01 00                        |    ....        |          value: 69632 0x1694-0x1697.7 (4)
0x1690|                        00 00 00 00            |        ....    |          size: 0 0x1698-0x169b.7 (4)
0x1690|                                    01         |            .   |          bind: "local" (0) 0x169c-0x169c.3 (0.4)
0x1690|                                    01         |            .   |          type: "object" (1) 0x169c.4-0x169c.7 (0.4)
0x1690|                                       00      |             .  |          other_unused: 0 0x169d-0x169d.5 (0.6)
0x1690|                                       00      |             .  |          visibility: "default" (0) 0x169d.6-0x169d.7 (0.2)
0x1690|                                          10 00|              ..|          shndx: 16 0x169e-0x169f.7 (2)
      |                                               |                |        [69]{}: symbol 0x16a0-0x16af.7 (16)
0x16a0|fd 00 00 00                                    |....            |          name: "_GLOBAL_OFFSET_TABLE_" (253) 0x16a0-0x16a3.7 (4)
0x16a0|            d0 0f 01 00                        |    ....        |          value: 69584 0x16a4-0x16a7.7 (4)
0x16a0|                        00 00 00 00            |        ....    |          size: 0 0x16a8-0x16ab.7 (4)
0x16a0|                                    01         |            .   |          bind: "local" (0) 0x16ac-0x16ac.3 (0.4)
0x16a0|                                    01         |            .   |          type: "object" (1) 0x16ac.4-0x16ac.7 (0.4)
0x16a0|                                       00      |             .  |          other_unused: 0 0x16ad-0x16ad.5 (0.6)
0x16a0|                                       00      |             .  |          visibility: "default" (0) 0x16ad.6-0x16ad.7 (0.2)
0x16a0|                                          f1 ff|              ..|          shndx: 65521 0x16ae-0x16af.7 (2)
      |                                               |                |        [70]{}: symbol 0x16b0-0x16bf.7 (16)
0x16b0|08 00 00 00                                    |....            |          name: "$a" (8) 0x16b0-0x16b3.7 (4)
0x16b0|            d4 02 00 00                        |    ....        |          value: 724 0x16b4-0x16b7.7 (4)
0x16b0|                        00 00 00 00            |        ....    |          size: 0 0x16b8-0x16bb.7 (4)
0x16b0|                                    00         |            .   |          bind: "local" (0) 0x16bc-0x16bc.3 (0.4)
0x16b0|                                    00         |            .   |          type: "notype" (0) 0x16bc.4-0x16bc.7 (0.4)
0x16b0|                                       00      |             .  |          other_unused: 0 0x16bd-0x16bd.5 (0.6)
0x16b0|                                       00      |             .  |          visibility: "default" (0) 0x16bd.6-0x16bd.7 (0.2)
0x16b0|                                          07 00|              ..|          shndx: 7 0x16be-0x16bf.7 (2)
      |                                               |                |        [71]{}: symbol 0x16c0-0x16cf.7 (16)
0x16c0|1d 00 00 00                                    |....            |          name: "$d" (29) 0x16c0-0x16c3.7 (4)
0x16c0|            e4 02 00 00                        |    ....        |          value: 740 0x16c4-0x16c7.7 (4)
0x16c0|                        00 00 00 00            |        ....    |          size: 0 0x16c8-0x16cb.7 (4)
0x16c0|                                    00         |            .   |          bind: "local" (0) 0x16cc-0x16cc.3 (0.4)
0x16c0|                                    00         |            .   |          type: "notype" (0) 0x16cc.4-0x16cc.7 (0.4)
0x16c0|                                       00      |             .  |          other_unused: 0 0x16cd-0x16cd.5 (0.6)
0x16c0|                                       00      |             .  |          visibility: "default" (0) 0x16cd.6-0x16cd.7 (0.2)
0x16c0|                                          07 00|              ..|          shndx: 7 0x16ce-0x16cf.7 (2)
      |                                               |                |        [72]{}: symbol 0x16d0-0x16df.7 (16)
0x16d0|08 00 00 00                                    |....            |          name: "$a" (8) 0x16d0-0x16d3.7 (4)
0x16d0|            e8 02 00 00                        |    ....        |          value: 744 0x16d4-0x16d7.7 (4)
0x16d0|                        00 00 00 00            |        ....    |          size: 0 0x16d8-0x16db.7 (4)
0x16d0|                                    00         |            .   |          bind: "local" (0) 0x16dc-0x16dc.3 (0.4)
0x16d0|                                    00         |            .   |          type: "notype" (0) 0x16dc.4-0x16dc.7 (0.4)
0x16d0|                                       00      |             .  |          other_unused: 0 0x16dd-0x16dd.5 (0.6)
0x16d0|                                       00      |             .  |          visibility: "default" (0) 0x16dd.6-0x16dd.7 (0.2)
0x16d0|                                          07 00|              ..|          shndx: 7 0x16de-0x16df.7 (2)
      |                                               |                |        [73]{}: symbol 0x16e0-0x16ef.7 (16)
0x16e0|13 01 00 00                                    |....            |          name: "puts" (275) 0x16e0-0x16e3.7 (4)
0x16e0|            00 00 00 00                        |    ....        |          value: 0 0x16e4-0x16e7.7 (4)
0x16e0|                        00 00 00 00            |        ....    |          size: 0 0x16e8-0x16eb.7 (4)
0x16e0|                                    12         |            .   |          bind: "global" (1) 0x16ec-0x16ec.3 (0.4)
0x16e0|                                    12         |            .   |          type: "func" (2) 0x16ec.4-0x16ec.7 (0.4)
0x16e0|                                       00      |             .  |          other_unused: 0 0x16ed-0x16ed.5 (0.6)
0x16e0|                                       00      |             .  |          visibility: "default" (0) 0x16ed.6-0x16ed.7 (0.2)
0x16e0|                                          00 00|              ..|          shndx: 0 0x16ee-0x16ef.7 (2)
      |                                               |                |        [74]{}: symbol 0x16f0-0x16ff.7 (16)
0x16f0|18 01 00 00                                    |....            |          name: "__cxa_finalize" (280) 0x16f0-0x16f3.7 (4)
0x16f0|            00 00 00 00                        |    ....        |          value: 0 0x16f4-0x16f7.7 (4)
0x16f0|                        00 00 00 00            |        ....    |          size: 0 0x16f8-0x16fb.7 (4)
0x16f0|                                    22         |            "   |          bind: "weak" (2) 0x16fc-0x16fc.3 (0.4)
0x16f0|                                    22         |            "   |          type: "func" (2) 0x16fc.4-0x16fc.7 (0.4)
0x16f0|                                       00      |             .  |          other_unused: 0 0x16fd-0x16fd.5 (0.6)
0x16f0|                                       00      |             .  |          visibility: "default" (0) 0x16fd.6-0x16fd.7 (0.2)
0x16f0|                                          00 00|              ..|          shndx: 0 0x16fe-0x16ff.7 (2)
      |                                               |                |        [75]{}: symbol 0x1700-0x170f.7 (16)
0x1700|27 01 00 00                                    |'...            |          name: "_init" (295) 0x1700-0x1703.7 (4)
0x1700|            c8 02 00 00                        |    ....        |          value: 712 0x1704-0x1707.7 (4)
0x1700|                        04 00 00 00            |        ....    |          size: 4 0x1708-0x170b.7 (4)
0x1700|                                    12         |            .   |          bind: "global" (1) 0x170c-0x170c.3 (0.4)
0x1700|                                    12         |            .   |          type: "func" (2) 0x170c.4-0x170c.7 (0.4)
0x1700|                                       00      |             .  |          other_unused: 0 0x170d-0x170d.5 (0.6)
0x1700|                                       00      |             .  |          visibility: "default" (0) 0x170d.6-0x170d.7 (0.2)
0x1700|                                          06 00|              ..|          shndx: 6 0x170e-0x170f.7 (2)
      |                                               |                |        [76]{}: symbol 0x1710-0x171f.7 (16)
0x1710|2d 01 00 00                                    |-...            |          name: "__deregister_frame_info" (301) 0x1710-0x1713.7 (4)
0x1710|            00 00 00 00                        |    ....        |          value: 0 0x1714-0x1717.7 (4)
0x1710|                        00 00 00 00            |        ....    |          size: 0 0x1718-0x171b.7 (4)
0x1710|                                    20         |                |          bind: "weak" (2) 0x171c-0x171c.3 (0.4)
0x1710|                                    20         |                |          type: "notype" (0) 0x171c.4-0x171c.7 (0.4)
0x1710|                                       00      |             .  |          other_unused: 0 0x171d-0x171d.5 (0.6)
0x1710|                                       00      |             .  |          visibility: "default" (0) 0x171d.6-0x171d.7 (0.2)
0x1710|                                          00 00|              ..|          shndx: 0 0x171e-0x171f.7 (2)
      |                                               |                |        [77]{}: symbol 0x1720-0x172f.7 (16)
0x1720|45 01 00 00                                    |E...            |          name: "_ITM_registerTMCloneTable" (325) 0x1720-0x1723.7 (4)
0x1720|            00 00 00 00                        |    ....        |          value: 0 0x1724-0x1727.7 (4)
0x1720|                        00 00 00 00            |        ....    |          size: 0 0x1728-0x172b.7 (4)
0x1720|                                    20         |                |          bind: "weak" (2) 0x172c-0x172c.3 (0.4)
0x1720|                                    20         |                |          type: "notype" (0) 0x172c.4-0x172c.7 (0.4)
0x1720|                                       00      |             .  |          other_unused: 0 0x172d-0x172d.5 (0.6)
0x1720|                                       00      |             .  |          visibility: "default" (0) 0x172d.6-0x172d.7 (0.2)
0x1720|                                          00 00|              ..|          shndx: 0 0x172e-0x172f.7 (2)
      |                                               |                |        [78]{}: symbol 0x1730-0x173f.7 (16)
0x1730|5f 01 00 00                                    |_...            |          name: "_ITM_deregisterTMCloneTable" (351) 0x1730-0x1733.7 (4)
0x1730|            00 00 00 00                        |    ....        |          value: 0 0x1734-0x1737.7 (4)
0x1730|                        00 00 00 00            |        ....    |          size: 0 0x1738-0x173b.7 (4)
0x1730|                                    20         |                |          bind: "weak" (2) 0x173c-0x173c.3 (0.4)
0x1730|                                    20         |                |          type: "notype" (0) 0x173c.4-0x173c.7 (0.4)
0x1730|                                       00      |             .  |          other_unused: 0 0x173d-0x173d.5 (0.6)
0x1730|                                       00      |             .  |          visibility: "default" (0) 0x173d.6-0x173d.7 (0.2)
0x1730|                                          00 00|              ..|          shndx: 0 0x173e-0x173f.7 (2)
      |                                               |                |        [79]{}: symbol 0x1740-0x174f.7 (16)
0x1740|7b 01 00 00                                    |{...            |          name: "_fini" (379) 0x1740-0x1743.7 (4)
0x1740|            a8 04 00 00                        |    ....        |          value: 1192 0x1744-0x1747.7 (4)
0x1740|                        04 00 00 00            |        ....    |          size: 4 0x1748-0x174b.7 (4)
0x1740|                                    12         |            .   |          bind: "global" (1) 0x174c-0x174c.3 (0.4)
0x1740|                                    12         |            .   |          type: "func" (2) 0x174c.4-0x174c.7 (0.4)
0x1740|                                       00      |             .  |          other_unused: 0 0x174d-0x174d.5 (0.6)
0x1740|                                       00      |             .  |          visibility: "default" (0) 0x174d.6-0x174d.7 (0.2)
0x1740|                                          09 00|              ..|          shndx: 9 0x174e-0x174f.7 (2)
      |                                               |                |        [80]{}: symbol 0x1750-0x175f.7 (16)
0x1750|81 01 00 00                                    |....            |          name: "libbbb_bbb" (385) 0x1750-0x1753.7 (4)
0x1750|            84 04 00 00                        |    ....        |          value: 1156 0x1754-0x1757.7 (4)
0x1750|                        24 00 00 00            |        $...    |          size: 36 0x1758-0x175b.7 (4)
0x1750|                                    12         |            .   |          bind: "global" (1) 0x175c-0x175c.3 (0.4)
0x1750|                                    12         |            .   |          type: "func" (2) 0x175c.4-0x175c.7 (0.4)
0x1750|                                       00      |             .  |          other_unused: 0 0x175d-0x175d.5 (0.6)
0x1750|                                       00      |             .  |          visibility: "default" (0) 0x175d.6-0x175d.7 (0.2)
0x1750|                                          08 00|              ..|          shndx: 8 0x175e-0x175f.7 (2)
      |                                               |                |        [81]{}: symbol 0x1760-0x176f.7 (16)
0x1760|8c 01 00 00                                    |....            |          name: "__register_frame_info" (396) 0x1760-0x1763.7 (4)
0x1760|            00 00 00 00                        |    ....        |          value: 0 0x1764-0x1767.7 (4)
0x1760|                        00 00 00 00            |        ....    |          size: 0 0x1768-0x176b.7 (4)
0x1760|                                    20         |                |          bind: "weak" (2) 0x176c-0x176c.3 (0.4)
0x1760|                                    20         |                |          type: "notype" (0) 0x176c.4-0x176c.7 (0.4)
0x1760|                                       00      |             .  |          other_unused: 0 0x176d-0x176d.5 (0.6)
0x1760|                                       00      |             .  |          visibility: "default" (0) 0x176d.6-0x176d.7 (0.2)
0x1760|                                          00 00|              ..|          shndx: 0 0x176e-0x176f.7 (2)
0x1e20|                        01 00 00 00            |        ....    |      name: ".symtab" (1) 0x1e28-0x1e2b.7 (4)
0x1e20|                                    02 00 00 00|            ....|      type: "symtab" (0x2) (Symbol table) 0x1e2c-0x1e2f.7 (4)
      |                                               |                |      flags{}: 0x1e30-0x1e33.7 (4)
0x1e30|00                                             |.               |        link_order: false 0x1e30-0x1e30 (0.1)
0x1e30|00                                             |.               |        info_link: false 0x1e30.1-0x1e30.1 (0.1)
0x1e30|00                                             |.               |        strings: false 0x1e30.2-0x1e30.2 (0.1)
0x1e30|00                                             |.               |        merge: false 0x1e30.3-0x1e30.3 (0.1)
0x1e30|00                                             |.               |        unused0: 0 0x1e30.4-0x1e30.4 (0.1)
0x1e30|00                                             |.               |        execinstr: false 0x1e30.5-0x1e30.5 (0.1)
0x1e30|00                                             |.               |        alloc: false 0x1e30.6-0x1e30.6 (0.1)
0x1e30|00                                             |.               |        write: false 0x1e30.7-0x1e30.7 (0.1)
0x1e30|   00                                          | .              |        tls: false 0x1e31-0x1e31 (0.1)
0x1e30|   00                                          | .              |        group: false 0x1e31.1-0x1e31.1 (0.1)
0x1e30|   00                                          | .              |        os_nonconforming: false 0x1e31.2-0x1e31.2 (0.1)
0x1e30|   00 00                                       | ..             |        unused1: 0 0x1e31.3-0x1e32.3 (1.1)
0x1e30|      00 00                                    |  ..            |        os_specific: 0 0x1e32.4-0x1e33.3 (1)
0x1e30|         00                                    |   .            |        processor_specific: 0 0x1e33.4-0x1e33.7 (0.4)
0x1e30|            00 00 00 00                        |    ....        |      addr: 0x0 0x1e34-0x1e37.7 (4)
0x1e30|                        50 12 00 00            |        P...    |      offset: 4688 0x1e38-0x1e3b.7 (4)
0x1e30|                                    20 05 00 00|             ...|      size: 0x520 0x1e3c-0x1e3f.7 (4)
0x1e40|1b 00 00 00                                    |....            |      link: 27 0x1e40-0x1e43.7 (4)
0x1e40|            49 00 00 00                        |    I...        |      info: 73 0x1e44-0x1e47.7 (4)
0x1e40|                        04 00 00 00            |        ....    |      addralign: 4 0x1e48-0x1e4b.7 (4)
0x1e40|                                    10 00 00 00|            ....|      entsize: 16 0x1e4c-0x1e4f.7 (4)
      |                                               |                |    [27]{}: section_header 0x1770-0x1e77.7 (1800)
0x1770|00 63 72 74 69 2e 6f 00 24 61 00 63 72 74 6e 2e|.crti.o.$a.crtn.|      string: "\x00crti.o\x00$a\x00crtn.o\x00crtstuff.c\x00$d\x00all_implied_fbits\x00"... 0x1770-0x1911.7 (418)
*     |until 0x1911.7 (418)                           |                |
0x1e50|09 00 00 00                                    |....            |      name: ".strtab" (9) 0x1e50-0x1e53.7 (4)
0x1e50|            03 00 00 00                        |    ....        |      type: "strtab" (0x3) (String table) 0x1e54-0x1e57.7 (4)
      |                                               |                |      flags{}: 0x1e58-0x1e5b.7 (4)
0x1e50|                        00                     |        .       |        link_order: false 0x1e58-0x1e58 (0.1)
0x1e50|                        00                     |        .       |        info_link: false 0x1e58.1-0x1e58.1 (0.1)
0x1e50|                        00                     |        .       |        strings: false 0x1e58.2-0x1e58.2 (0.1)
0x1e50|                        00                     |        .       |        merge: false 0x1e58.3-0x1e58.3 (0.1)
0x1e50|                        00                     |        .       |        unused0: 0 0x1e58.4-0x1e58.4 (0.1)
0x1e50|                        00                     |        .       |        execinstr: false 0x1e58.5-0x1e58.5 (0.1)
0x1e50|                        00                     |        .       |        alloc: false 0x1e58.6-0x1e58.6 (0.1)
0x1e50|                        00                     |        .       |        write: false 0x1e58.7-0x1e58.7 (0.1)
0x1e50|                           00                  |         .      |        tls: false 0x1e59-0x1e59 (0.1)
0x1e50|                           00                  |         .      |        group: false 0x1e59.1-0x1e59.1 (0.1)
0x1e50|                           00                  |         .      |        os_nonconforming: false 0x1e59.2-0x1e59.2 (0.1)
0x1e50|                           00 00               |         ..     |        unused1: 0 0x1e59.3-0x1e5a.3 (1.1)
0x1e50|                              00 00            |          ..    |        os_specific: 0 0x1e5a.4-0x1e5b.3 (1)
0x1e50|                                 00            |           .    |        processor_specific: 0 0x1e5b.4-0x1e5b.7 (0.4)
0x1e50|                                    00 00 00 00|            ....|      addr: 0x0 0x1e5c-0x1e5f.7 (4)
0x1e60|70 17 00 00                                    |p...            |      offset: 6000 0x1e60-0x1e63.7 (4)
0x1e60|            a2 01 00 00                        |    ....        |      size: 0x1a2 0x1e64-0x1e67.7 (4)
0x1e60|                        00 00 00 00            |        ....    |      link: 0 0x1e68-0x1e6b.7 (4)
0x1e60|                                    00 00 00 00|            ....|      info: 0 0x1e6c-0x1e6f.7 (4)
0x1e70|01 00 00 00                                    |....            |      addralign: 1 0x1e70-0x1e73.7 (4)
0x1e70|            00 00 00 00                        |    ....        |      entsize: 0 0x1e74-0x1e77.7 (4)
      |                                               |                |    [28]{}: section_header 0x1912-0x1e9f.7 (1422)
0x1910|      00 2e 73 79 6d 74 61 62 00 2e 73 74 72 74|  ..symtab..strt|      string: "\x00.symtab\x00.strtab\x00.shstrtab\x00.gnu.hash\x00.dynsym\x00.dyns"... 0x1912-0x1a14.7 (259)
0x1920|61 62 00 2e 73 68 73 74 72 74 61 62 00 2e 67 6e|ab..shstrtab..gn|
*     |until 0x1a14.7 (259)                           |                |
0x1e70|                        11 00 00 00            |        ....    |      name: ".shstrtab" (17) 0x1e78-0x1e7b.7 (4)
0x1e70|                                    03 00 00 00|            ....|      type: "strtab" (0x3) (String table) 0x1e7c-0x1e7f.7 (4)
      |                                               |                |      flags{}: 0x1e80-0x1e83.7 (4)
0x1e80|00                                             |.               |        link_order: false 0x1e80-0x1e80 (0.1)
0x1e80|00                                             |.               |        info_link: false 0x1e80.1-0x1e80.1 (0.1)
0x1e80|00                                             |.               |        strings: false 0x1e80.2-0x1e80.2 (0.1)
0x1e80|00                                             |.               |        merge: false 0x1e80.3-0x1e80.3 (0.1)
0x1e80|00                                             |.               |        unused0: 0 0x1e80.4-0x1e80.4 (0.1)
0x1e80|00                                             |.               |        execinstr: false 0x1e80.5-0x1e80.5 (0.1)
0x1e80|00                                             |.               |        alloc: false 0x1e80.6-0x1e80.6 (0.1)
0x1e80|00                                             |.               |        write: false 0x1e80.7-0x1e80.7 (0.1)
0x1e80|   00                                          | .              |        tls: false 0x1e81-0x1e81 (0.1)
0x1e80|   00                                          | .              |        group: false 0x1e81.1-0x1e81.1 (0.1)
0x1e80|   00                                          | .              |        os_nonconforming: false 0x1e81.2-0x1e81.2 (0.1)
0x1e80|   00 00                                       | ..             |        unused1: 0 0x1e81.3-0x1e82.3 (1.1)
0x1e80|      00 00                                    |  ..            |        os_specific: 0 0x1e82.4-0x1e83.3 (1)
0x1e80|         00                                    |   .            |        processor_specific: 0 0x1e83.4-0x1e83.7 (0.4)
0x1e80|            00 00 00 00                        |    ....        |      addr: 0x0 0x1e84-0x1e87.7 (4)
0x1e80|                        12 19 00 00            |        ....    |      offset: 6418 0x1e88-0x1e8b.7 (4)
0x1e80|                                    03 01 00 00|            ....|      size: 0x103 0x1e8c-0x1e8f.7 (4)
0x1e90|00 00 00 00                                    |....            |      link: 0 0x1e90-0x1e93.7 (4)
0x1e90|            00 00 00 00                        |    ....        |      info: 0 0x1e94-0x1e97.7 (4)
0x1e90|                        01 00 00 00            |        ....    |      addralign: 1 0x1e98-0x1e9b.7 (4)
0x1e90|                                    00 00 00 00|            ....|      entsize: 0 0x1e9c-0x1e9f.7 (4)
0x05e0|            00 00 00 00 00 00 00 00 00 00 00 00|    ............|  unknown0: raw bits 0x5e4-0xeef.7 (2316)
0x05f0|00 00 00 00 00 00 00 00 00 00 00 00 00 00 00 00|................|
*     |until 0xeef.7 (2316)                           |                |
0x1060|            00 00 00 00                        |    ....        |  unknown1: raw bits 0x1064-0x1067.7 (4)
0x1200|                                    00 00 00 00|            ....|  unknown2: raw bits 0x120c-0x120f.7 (4)
0x1a10|               00 00 00                        |     ...        |  unknown3: raw bits 0x1a15-0x1a17.7 (3)
