$ fq -d elf dv libbbb.so
      |00 01 02 03 04 05 06 07 08 09 0a 0b 0c 0d 0e 0f|0123456789abcdef|.{}: libbbb.so (elf) 0x0-0x1ea0 (7840)
      |                                               |                |  header{}: 0x0-0x34 (52)
      |                                               |                |    ident{}: 0x0-0x10 (16)
0x0000|7f 45 4c 46                                    |.ELF            |      magic: raw bits (valid) 0x0-0x4 (4)
0x0000|            01                                 |    .           |      class: 32 (1) 0x4-0x5 (1)
0x0000|               01                              |     .          |      data: "little_endian" (1) 0x5-0x6 (1)
0x0000|                  01                           |      .         |      version: 1 0x6-0x7 (1)
0x0000|                     00                        |       .        |      os_abi: "sysv" (0) 0x7-0x8 (1)
0x0000|                        00                     |        .       |      abi_version: 0 0x8-0x9 (1)
0x0000|                           00 00 00 00 00 00 00|         .......|      pad: raw bits (all zero) 0x9-0x10 (7)
0x0010|03 00                                          |..              |    type: "dyn" (0x3) 0x10-0x12 (2)
0x0010|      28 00                                    |  (.            |    machine: "arm" (0x28) (ARM (up to ARMv7/Aarch32)) 0x12-0x14 (2)
0x0010|            01 00 00 00                        |    ....        |    version: 1 0x14-0x18 (4)
0x0010|                        18 03 00 00            |        ....    |    entry: 792 0x18-0x1c (4)
0x0010|                                    34 00 00 00|            4...|    phoff: 52 0x1c-0x20 (4)
0x0020|18 1a 00 00                                    |....            |    shoff: 6680 0x20-0x24 (4)
0x0020|            00 04 00 05                        |    ....        |    flags: 83887104 0x24-0x28 (4)
0x0020|                        34 00                  |        4.      |    ehsize: 52 0x28-0x2a (2)
0x0020|                              20 00            |           .    |    phentsize: 32 0x2a-0x2c (2)
0x0020|                                    05 00      |            ..  |    phnum: 5 0x2c-0x2e (2)
0x0020|                                          28 00|              (.|    shentsize: 40 0x2e-0x30 (2)
0x0030|1d 00                                          |..              |    shnum: 29 0x30-0x32 (2)
0x0030|      1c 00                                    |  ..            |    shstrndx: 28 0x32-0x34 (2)
      |                                               |                |  program_headers[0:5]: 0x0-0x1004 (4100)
      |                                               |                |    [0]{}: program_header 0x0-0x5e4 (1508)
0x0000|7f 45 4c 46 01 01 01 00 00 00 00 00 00 00 00 00|.ELF............|      data: raw bits 0x0-0x5e4 (1508)
*     |until 0x5e3.7 (1508)                           |                |
0x0030|            01 00 00 00                        |    ....        |      type: "load" (1) (Loadable segment) 0x34-0x38 (4)
0x0030|                        00 00 00 00            |        ....    |      offset: 0x0 0x38-0x3c (4)
0x0030|                                    00 00 00 00|            ....|      vaddr: 0x0 0x3c-0x40 (4)
0x0040|00 00 00 00                                    |....            |      paddr: 0x0 0x40-0x44 (4)
0x0040|            e4 05 00 00                        |    ....        |      filesz: 1508 0x44-0x48 (4)
0x0040|                        e4 05 00 00            |        ....    |      memsz: 1508 0x48-0x4c (4)
      |                                               |                |      flags{}: 0x4c-0x50 (4)
0x0040|                                    05         |            .   |        unused0: 0 0x4c-0x4c.5 (0.5)
0x0040|                                    05         |            .   |        r: true 0x4c.5-0x4c.6 (0.1)
0x0040|                                    05         |            .   |        w: false 0x4c.6-0x4c.7 (0.1)
0x0040|                                    05         |            .   |        x: true 0x4c.7-0x4d (0.1)
0x0040|                                       00 00 00|             ...|        unused1: 0 0x4d-0x50 (3)
0x0050|00 00 01 00                                    |....            |      align: 65536 0x50-0x54 (4)
      |                                               |                |    [1]{}: program_header 0x54-0x1004 (4016)
0x0050|            01 00 00 00                        |    ....        |      type: "load" (1) (Loadable segment) 0x54-0x58 (4)
0x0050|                        f0 0e 00 00            |        ....    |      offset: 0xef0 0x58-0x5c (4)
0x0050|                                    f0 0e 01 00|            ....|      vaddr: 0x10ef0 0x5c-0x60 (4)
0x0060|f0 0e 01 00                                    |....            |      paddr: 0x10ef0 0x60-0x64 (4)
0x0060|            14 01 00 00                        |    ....        |      filesz: 276 0x64-0x68 (4)
0x0060|                        30 01 00 00            |        0...    |      memsz: 304 0x68-0x6c (4)
      |                                               |                |      flags{}: 0x6c-0x70 (4)
0x0060|                                    06         |            .   |        unused0: 0 0x6c-0x6c.5 (0.5)
0x0060|                                    06         |            .   |        r: true 0x6c.5-0x6c.6 (0.1)
0x0060|                                    06         |            .   |        w: true 0x6c.6-0x6c.7 (0.1)
0x0060|                                    06         |            .   |        x: false 0x6c.7-0x6d (0.1)
0x0060|                                       00 00 00|             ...|        unused1: 0 0x6d-0x70 (3)
0x0070|00 00 01 00                                    |....            |      align: 65536 0x70-0x74 (4)
0x0ef0|38 04 00 00 ac 03 00 00 01 00 00 00 90 00 00 00|8...............|      data: raw bits 0xef0-0x1004 (276)
*     |until 0x1003.7 (276)                           |                |
      |                                               |                |    [2]{}: program_header 0x74-0xfd0 (3932)
0x0070|            02 00 00 00                        |    ....        |      type: "dynamic" (2) (Dynamic linking information) 0x74-0x78 (4)
0x0070|                        f8 0e 00 00            |        ....    |      offset: 0xef8 0x78-0x7c (4)
0x0070|                                    f8 0e 01 00|            ....|      vaddr: 0x10ef8 0x7c-0x80 (4)
0x0080|f8 0e 01 00                                    |....            |      paddr: 0x10ef8 0x80-0x84 (4)
0x0080|            d8 00 00 00                        |    ....        |      filesz: 216 0x84-0x88 (4)
0x0080|                        d8 00 00 00            |        ....    |      memsz: 216 0x88-0x8c (4)
      |                                               |                |      flags{}: 0x8c-0x90 (4)
0x0080|                                    06         |            .   |        unused0: 0 0x8c-0x8c.5 (0.5)
0x0080|                                    06         |            .   |        r: true 0x8c.5-0x8c.6 (0.1)
0x0080|                                    06         |            .   |        w: true 0x8c.6-0x8c.7 (0.1)
0x0080|                                    06         |            .   |        x: false 0x8c.7-0x8d (0.1)
0x0080|                                       00 00 00|             ...|        unused1: 0 0x8d-0x90 (3)
0x0090|04 00 00 00                                    |....            |      align: 4 0x90-0x94 (4)
0x0ef0|                        01 00 00 00 90 00 00 00|        ........|      data: raw bits 0xef8-0xfd0 (216)
0x0f00|0c 00 00 00 c8 02 00 00 0d 00 00 00 a8 04 00 00|................|
*     |until 0xfcf.7 (216)                            |                |
      |                                               |                |    [3]{}: program_header 0x0-0xb4 (180)
      |                                               |                |      data: raw bits 0x0-0x0 (0)
0x0090|            51 e5 74 64                        |    Q.td        |      type: "gnu_stack" (1685382481) (GNU stack permission) 0x94-0x98 (4)
0x0090|                        00 00 00 00            |        ....    |      offset: 0x0 0x98-0x9c (4)
0x0090|                                    00 00 00 00|            ....|      vaddr: 0x0 0x9c-0xa0 (4)
0x00a0|00 00 00 00                                    |....            |      paddr: 0x0 0xa0-0xa4 (4)
0x00a0|            00 00 00 00                        |    ....        |      filesz: 0 0xa4-0xa8 (4)
0x00a0|                        00 00 00 00            |        ....    |      memsz: 0 0xa8-0xac (4)
      |                                               |                |      flags{}: 0xac-0xb0 (4)
0x00a0|                                    06         |            .   |        unused0: 0 0xac-0xac.5 (0.5)
0x00a0|                                    06         |            .   |        r: true 0xac.5-0xac.6 (0.1)
0x00a0|                                    06         |            .   |        w: true 0xac.6-0xac.7 (0.1)
0x00a0|                                    06         |            .   |        x: false 0xac.7-0xad (0.1)
0x00a0|                                       00 00 00|             ...|        unused1: 0 0xad-0xb0 (3)
0x00b0|10 00 00 00                                    |....            |      align: 16 0xb0-0xb4 (4)
      |                                               |                |    [4]{}: program_header 0xb4-0x1000 (3916)
0x00b0|            52 e5 74 64                        |    R.td        |      type: "gnu_relro" (1685382482) (GNU read-only after relocation) 0xb4-0xb8 (4)
0x00b0|                        f0 0e 00 00            |        ....    |      offset: 0xef0 0xb8-0xbc (4)
0x00b0|                                    f0 0e 01 00|            ....|      vaddr: 0x10ef0 0xbc-0xc0 (4)
0x00c0|f0 0e 01 00                                    |....            |      paddr: 0x10ef0 0xc0-0xc4 (4)
0x00c0|            10 01 00 00                        |    ....        |      filesz: 272 0xc4-0xc8 (4)
0x00c0|                        10 01 00 00            |        ....    |      memsz: 272 0xc8-0xcc (4)
      |                                               |                |      flags{}: 0xcc-0xd0 (4)
0x00c0|                                    04         |            .   |        unused0: 0 0xcc-0xcc.5 (0.5)
0x00c0|                                    04         |            .   |        r: true 0xcc.5-0xcc.6 (0.1)
0x00c0|                                    04         |            .   |        w: false 0xcc.6-0xcc.7 (0.1)
0x00c0|                                    04         |            .   |        x: false 0xcc.7-0xcd (0.1)
0x00c0|                                       00 00 00|             ...|        unused1: 0 0xcd-0xd0 (3)
0x00d0|01 00 00 00                                    |....            |      align: 1 0xd0-0xd4 (4)
0x0ef0|38 04 00 00 ac 03 00 00 01 00 00 00 90 00 00 00|8...............|      data: raw bits 0xef0-0x1000 (272)
*     |until 0xfff.7 (272)                            |                |
      |                                               |                |  section_headers[0:29]: 0xd4-0x1ea0 (7628)
      |                                               |                |    [0]{}: section_header 0x1a18-0x1a40 (40)
0x1a10|                        00 00 00 00            |        ....    |      name: "" (0) 0x1a18-0x1a1c (4)
0x1a10|                                    00 00 00 00|            ....|      type: "null" (0x0) (Header inactive) 0x1a1c-0x1a20 (4)
      |                                               |                |      flags{}: 0x1a20-0x1a24 (4)
0x1a20|00                                             |.               |        link_order: false 0x1a20-0x1a20.1 (0.1)
0x1a20|00                                             |.               |        info_link: false 0x1a20.1-0x1a20.2 (0.1)
0x1a20|00                                             |.               |        strings: false 0x1a20.2-0x1a20.3 (0.1)
0x1a20|00                                             |.               |        merge: false 0x1a20.3-0x1a20.4 (0.1)
0x1a20|00                                             |.               |        unused0: 0 0x1a20.4-0x1a20.5 (0.1)
0x1a20|00                                             |.               |        execinstr: false 0x1a20.5-0x1a20.6 (0.1)
0x1a20|00                                             |.               |        alloc: false 0x1a20.6-0x1a20.7 (0.1)
0x1a20|00                                             |.               |        write: false 0x1a20.7-0x1a21 (0.1)
0x1a20|   00                                          | .              |        tls: false 0x1a21-0x1a21.1 (0.1)
0x1a20|   00                                          | .              |        group: false 0x1a21.1-0x1a21.2 (0.1)
0x1a20|   00                                          | .              |        os_nonconforming: false 0x1a21.2-0x1a21.3 (0.1)
0x1a20|   00 00                                       | ..             |        unused1: 0 0x1a21.3-0x1a22.4 (1.1)
0x1a20|      00 00                                    |  ..            |        os_specific: 0 0x1a22.4-0x1a23.4 (1)
0x1a20|         00                                    |   .            |        processor_specific: 0 0x1a23.4-0x1a24 (0.4)
0x1a20|            00 00 00 00                        |    ....        |      addr: 0x0 0x1a24-0x1a28 (4)
0x1a20|                        00 00 00 00            |        ....    |      offset: 0 0x1a28-0x1a2c (4)
0x1a20|                                    00 00 00 00|            ....|      size: 0x0 0x1a2c-0x1a30 (4)
0x1a30|00 00 00 00                                    |....            |      link: 0 0x1a30-0x1a34 (4)
0x1a30|            00 00 00 00                        |    ....        |      info: 0 0x1a34-0x1a38 (4)
0x1a30|                        00 00 00 00            |        ....    |      addralign: 0 0x1a38-0x1a3c (4)
0x1a30|                                    00 00 00 00|            ....|      entsize: 0 0x1a3c-0x1a40 (4)
      |                                               |                |    [1]{}: section_header 0xd4-0x1a68 (6548)
      |                                               |                |      gnu_hash{}: 0xd4-0x100 (44)
0x00d0|            03 00 00 00                        |    ....        |        nbuckets: 3 0xd4-0xd8 (4)
0x00d0|                        09 00 00 00            |        ....    |        symndx: 9 0xd8-0xdc (4)
0x00d0|                                    01 00 00 00|            ....|        maskwords: 1 0xdc-0xe0 (4)
0x00e0|05 00 00 00                                    |....            |        shift2: 5 0xe0-0xe4 (4)
      |                                               |                |        bloom_filter[0:1]: 0xe4-0xe8 (4)
0x00e0|            80 24 00 91                        |    .$..        |          [0]: 2432705664 maskword 0xe4-0xe8 (4)
      |                                               |                |        buckets[0:3]: 0xe8-0xf4 (12)
0x00e0|                        00 00 00 00            |        ....    |          [0]: 0 bucket 0xe8-0xec (4)
0x00e0|                                    09 00 00 00|            ....|          [1]: 9 bucket 0xec-0xf0 (4)
0x00f0|0a 00 00 00                                    |....            |          [2]: 10 bucket 0xf0-0xf4 (4)
      |                                               |                |        values[0:3]: 0xf4-0x100 (12)
0x00f0|            b9 8d f1 0e                        |    ....        |          [0]: 250711481 value 0xf4-0xf8 (4)
0x00f0|                        ea d3 ef 0e            |        ....    |          [1]: 250598378 value 0xf8-0xfc (4)
0x00f0|                                    87 e7 e8 85|            ....|          [2]: 2246633351 value 0xfc-0x100 (4)
0x1a40|1b 00 00 00                                    |....            |      name: ".gnu.hash" (27) 0x1a40-0x1a44 (4)
0x1a40|            f6 ff ff 6f                        |    ...o        |      type: "gnu_hash" (0x6ffffff6) (GNU symbol hash table) 0x1a44-0x1a48 (4)
      |                                               |                |      flags{}: 0x1a48-0x1a4c (4)
0x1a40|                        02                     |        .       |        link_order: false 0x1a48-0x1a48.1 (0.1)
0x1a40|                        02                     |        .       |        info_link: false 0x1a48.1-0x1a48.2 (0.1)
0x1a40|                        02                     |        .       |        strings: false 0x1a48.2-0x1a48.3 (0.1)
0x1a40|                        02                     |        .       |        merge: false 0x1a48.3-0x1a48.4 (0.1)
0x1a40|                        02                     |        .       |        unused0: 0 0x1a48.4-0x1a48.5 (0.1)
0x1a40|                        02                     |        .       |        execinstr: false 0x1a48.5-0x1a48.6 (0.1)
0x1a40|                        02                     |        .       |        alloc: true 0x1a48.6-0x1a48.7 (0.1)
0x1a40|                        02                     |        .       |        write: false 0x1a48.7-0x1a49 (0.1)
0x1a40|                           00                  |         .      |        tls: false 0x1a49-0x1a49.1 (0.1)
0x1a40|                           00                  |         .      |        group: false 0x1a49.1-0x1a49.2 (0.1)
0x1a40|                           00                  |         .      |        os_nonconforming: false 0x1a49.2-0x1a49.3 (0.1)
0x1a40|                           00 00               |         ..     |        unused1: 0 0x1a49.3-0x1a4a.4 (1.1)
0x1a40|                              00 00            |          ..    |        os_specific: 0 0x1a4a.4-0x1a4b.4 (1)
0x1a40|                                 00            |           .    |        processor_specific: 0 0x1a4b.4-0x1a4c (0.4)
0x1a40|                                    d4 00 00 00|            ....|      addr: 0xd4 0x1a4c-0x1a50 (4)
0x1a50|d4 00 00 00                                    |....            |      offset: 212 0x1a50-0x1a54 (4)
0x1a50|            2c 00 00 00                        |    ,...        |      size: 0x2c 0x1a54-0x1a58 (4)
0x1a50|                        02 00 00 00            |        ....    |      link: 2 0x1a58-0x1a5c (4)
0x1a50|                                    00 00 00 00|            ....|      info: 0 0x1a5c-0x1a60 (4)
0x1a60|04 00 00 00                                    |....            |      addralign: 4 0x1a60-0x1a64 (4)
0x1a60|            04 00 00 00                        |    ....        |      entsize: 4 0x1a64-0x1a68 (4)
      |                                               |                |    [2]{}: section_header 0x100-0x1a90 (6544)
      |                                               |                |      symbol_table[0:12]: 0x100-0x1c0 (192)
      |                                               |                |        [0]{}: symbol 0x100-0x110 (16)
0x0100|00 00 00 00                                    |....            |          name: "" (0) 0x100-0x104 (4)
0x0100|            00 00 00 00                        |    ....        |          value: 0 0x104-0x108 (4)
0x0100|                        00 00 00 00            |        ....    |          size: 0 0x108-0x10c (4)
0x0100|                                    00         |            .   |          bind: "local" (0) 0x10c-0x10c.4 (0.4)
0x0100|                                    00         |            .   |          type: "notype" (0) 0x10c.4-0x10d (0.4)
0x0100|                                       00      |             .  |          other_unused: 0 0x10d-0x10d.6 (0.6)
0x0100|                                       00      |             .  |          visibility: "default" (0) 0x10d.6-0x10e (0.2)
0x0100|                                          00 00|              ..|          shndx: 0 0x10e-0x110 (2)
      |                                               |                |        [1]{}: symbol 0x110-0x120 (16)
0x0110|00 00 00 00                                    |....            |          name: "" (0) 0x110-0x114 (4)
0x0110|            c8 02 00 00                        |    ....        |          value: 712 0x114-0x118 (4)
0x0110|                        00 00 00 00            |        ....    |          size: 0 0x118-0x11c (4)
0x0110|                                    03         |            .   |          bind: "local" (0) 0x11c-0x11c.4 (0.4)
0x0110|                                    03         |            .   |          type: "section" (3) 0x11c.4-0x11d (0.4)
0x0110|                                       00      |             .  |          other_unused: 0 0x11d-0x11d.6 (0.6)
0x0110|                                       00      |             .  |          visibility: "default" (0) 0x11d.6-0x11e (0.2)
0x0110|                                          06 00|              ..|          shndx: 6 0x11e-0x120 (2)
      |                                               |                |        [2]{}: symbol 0x120-0x130 (16)
0x0120|00 00 00 00                                    |....            |          name: "" (0) 0x120-0x124 (4)
0x0120|            00 10 01 00                        |    ....        |          value: 69632 0x124-0x128 (4)
0x0120|                        00 00 00 00            |        ....    |          size: 0 0x128-0x12c (4)
0x0120|                                    03         |            .   |          bind: "local" (0) 0x12c-0x12c.4 (0.4)
0x0120|                                    03         |            .   |          type: "section" (3) 0x12c.4-0x12d (0.4)
0x0120|                                       00      |             .  |          other_unused: 0 0x12d-0x12d.6 (0.6)
0x0120|                                       00      |             .  |          visibility: "default" (0) 0x12d.6-0x12e (0.2)
0x0120|                                          10 00|              ..|          shndx: 16 0x12e-0x130 (2)
      |                                               |                |        [3]{}: symbol 0x130-0x140 (16)
0x0130|8b 00 00 00                                    |....            |          name: "puts" (139) 0x130-0x134 (4)
0x0130|            00 00 00 00                        |    ....        |          value: 0 0x134-0x138 (4)
0x0130|                        00 00 00 00            |        ....    |          size: 0 0x138-0x13c (4)
0x0130|                                    12         |            .   |          bind: "global" (1) 0x13c-0x13c.4 (0.4)
0x0130|                                    12         |            .   |          type: "func" (2) 0x13c.4-0x13d (0.4)
0x0130|                                       00      |             .  |          other_unused: 0 0x13d-0x13d.6 (0.6)
0x0130|                                       00      |             .  |          visibility: "default" (0) 0x13d.6-0x13e (0.2)
0x0130|                                          00 00|              ..|          shndx: 0 0x13e-0x140 (2)
      |                                               |                |        [4]{}: symbol 0x140-0x150 (16)
0x0140|43 00 00 00                                    |C...            |          name: "__cxa_finalize" (67) 0x140-0x144 (4)
0x0140|            00 00 00 00                        |    ....        |          value: 0 0x144-0x148 (4)
0x0140|                        00 00 00 00            |        ....    |          size: 0 0x148-0x14c (4)
0x0140|                                    22         |            "   |          bind: "weak" (2) 0x14c-0x14c.4 (0.4)
0x0140|                                    22         |            "   |          type: "func" (2) 0x14c.4-0x14d (0.4)
0x0140|                                       00      |             .  |          other_unused: 0 0x14d-0x14d.6 (0.6)
0x0140|                                       00      |             .  |          visibility: "default" (0) 0x14d.6-0x14e (0.2)
0x0140|                                          00 00|              ..|          shndx: 0 0x14e-0x150 (2)
      |                                               |                |        [5]{}: symbol 0x150-0x160 (16)
0x0150|52 00 00 00                                    |R...            |          name: "__deregister_frame_info" (82) 0x150-0x154 (4)
0x0150|            00 00 00 00                        |    ....        |          value: 0 0x154-0x158 (4)
0x0150|                        00 00 00 00            |        ....    |          size: 0 0x158-0x15c (4)
0x0150|                                    20         |                |          bind: "weak" (2) 0x15c-0x15c.4 (0.4)
0x0150|                                    20         |                |          type: "notype" (0) 0x15c.4-0x15d (0.4)
0x0150|                                       00      |             .  |          other_unused: 0 0x15d-0x15d.6 (0.6)
0x0150|                                       00      |             .  |          visibility: "default" (0) 0x15d.6-0x15e (0.2)
0x0150|                                          00 00|              ..|          shndx: 0 0x15e-0x160 (2)
      |                                               |                |        [6]{}: symbol 0x160-0x170 (16)
0x0160|29 00 00 00                                    |)...            |          name: "_ITM_registerTMCloneTable" (41) 0x160-0x164 (4)
0x0160|            00 00 00 00                        |    ....        |          value: 0 0x164-0x168 (4)
0x0160|                        00 00 00 00            |        ....    |          size: 0 0x168-0x16c (4)
0x0160|                                    20         |                |          bind: "weak" (2) 0x16c-0x16c.4 (0.4)
0x0160|                                    20         |                |          type: "notype" (0) 0x16c.4-0x16d (0.4)
0x0160|                                       00      |             .  |          other_unused: 0 0x16d-0x16d.6 (0.6)
0x0160|                                       00      |             .  |          visibility: "default" (0) 0x16d.6-0x16e (0.2)
0x0160|                                          00 00|              ..|          shndx: 0 0x16e-0x170 (2)
      |                                               |                |        [7]{}: symbol 0x170-0x180 (16)
0x0170|0d 00 00 00                                    |....            |          name: "_ITM_deregisterTMCloneTable" (13) 0x170-0x174 (4)
0x0170|            00 00 00 00                        |    ....        |          value: 0 0x174-0x178 (4)
0x0170|                        00 00 00 00            |        ....    |          size: 0 0x178-0x17c (4)
0x0170|                                    20         |                |          bind: "weak" (2) 0x17c-0x17c.4 (0.4)
0x0170|                                    20         |                |          type: "notype" (0) 0x17c.4-0x17d (0.4)
0x0170|                                       00      |             .  |          other_unused: 0 0x17d-0x17d.6 (0.6)
0x0170|                                       00      |             .  |          visibility: "default" (0) 0x17d.6-0x17e (0.2)
0x0170|                                          00 00|              ..|          shndx: 0 0x17e-0x180 (2)
      |                                               |                |        [8]{}: symbol 0x180-0x190 (16)
0x0180|6a 00 00 00                                    |j...            |          name: "__register_frame_info" (106) 0x180-0x184 (4)
0x0180|            00 00 00 00                        |    ....        |          value: 0 0x184-0x188 (4)
0x0180|                        00 00 00 00            |        ....    |          size: 0 0x188-0x18c (4)
0x0180|                                    20         |                |          bind: "weak" (2) 0x18c-0x18c.4 (0.4)
0x0180|                                    20         |                |          type: "notype" (0) 0x18c.4-0x18d (0.4)
0x0180|                                       00      |             .  |          other_unused: 0 0x18d-0x18d.6 (0.6)
0x0180|                                       00      |             .  |          visibility: "default" (0) 0x18d.6-0x18e (0.2)
0x0180|                                          00 00|              ..|          shndx: 0 0x18e-0x190 (2)
      |                                               |                |        [9]{}: symbol 0x190-0x1a0 (16)
0x0190|01 00 00 00                                    |....            |          name: "_init" (1) 0x190-0x194 (4)
0x0190|            c8 02 00 00                        |    ....        |          value: 712 0x194-0x198 (4)
0x0190|                        04 00 00 00            |        ....    |          size: 4 0x198-0x19c (4)
0x0190|                                    12         |            .   |          bind: "global" (1) 0x19c-0x19c.4 (0.4)
0x0190|                                    12         |            .   |          type: "func" (2) 0x19c.4-0x19d (0.4)
0x0190|                                       00      |             .  |          other_unused: 0 0x19d-0x19d.6 (0.6)
0x0190|                                       00      |             .  |          visibility: "default" (0) 0x19d.6-0x19e (0.2)
0x0190|                                          06 00|              ..|          shndx: 6 0x19e-0x1a0 (2)
      |                                               |                |        [10]{}: symbol 0x1a0-0x1b0 (16)
0x01a0|07 00 00 00                                    |....            |          name: "_fini" (7) 0x1a0-0x1a4 (4)
0x01a0|            a8 04 00 00                        |    ....        |          value: 1192 0x1a4-0x1a8 (4)
0x01a0|                        04 00 00 00            |        ....    |          size: 4 0x1a8-0x1ac (4)
0x01a0|                                    12         |            .   |          bind: "global" (1) 0x1ac-0x1ac.4 (0.4)
0x01a0|                                    12         |            .   |          type: "func" (2) 0x1ac.4-0x1ad (0.4)
0x01a0|                                       00      |             .  |          other_unused: 0 0x1ad-0x1ad.6 (0.6)
0x01a0|                                       00      |             .  |          visibility: "default" (0) 0x1ad.6-0x1ae (0.2)
0x01a0|                                          09 00|              ..|          shndx: 9 0x1ae-0x1b0 (2)
      |                                               |                |        [11]{}: symbol 0x1b0-0x1c0 (16)
0x01b0|80 00 00 00                                    |....            |          name: "libbbb_bbb" (128) 0x1b0-0x1b4 (4)
0x01b0|            84 04 00 00                        |    ....        |          value: 1156 0x1b4-0x1b8 (4)
0x01b0|                        24 00 00 00            |        $...    |          size: 36 0x1b8-0x1bc (4)
0x01b0|                                    12         |            .   |          bind: "global" (1) 0x1bc-0x1bc.4 (0.4)
0x01b0|                                    12         |            .   |          type: "func" (2) 0x1bc.4-0x1bd (0.4)
0x01b0|                                       00      |             .  |          other_unused: 0 0x1bd-0x1bd.6 (0.6)
0x01b0|                                       00      |             .  |          visibility: "default" (0) 0x1bd.6-0x1be (0.2)
0x01b0|                                          08 00|              ..|          shndx: 8 0x1be-0x1c0 (2)
0x1a60|                        25 00 00 00            |        %...    |      name: ".dynsym" (37) 0x1a68-0x1a6c (4)
0x1a60|                                    0b 00 00 00|            ....|      type: "dynsym" (0xb) (Dynamic linking symbol table) 0x1a6c-0x1a70 (4)
      |                                               |                |      flags{}: 0x1a70-0x1a74 (4)
0x1a70|02                                             |.               |        link_order: false 0x1a70-0x1a70.1 (0.1)
0x1a70|02                                             |.               |        info_link: false 0x1a70.1-0x1a70.2 (0.1)
0x1a70|02                                             |.               |        strings: false 0x1a70.2-0x1a70.3 (0.1)
0x1a70|02                                             |.               |        merge: false 0x1a70.3-0x1a70.4 (0.1)
0x1a70|02                                             |.               |        unused0: 0 0x1a70.4-0x1a70.5 (0.1)
0x1a70|02                                             |.               |        execinstr: false 0x1a70.5-0x1a70.6 (0.1)
0x1a70|02                                             |.               |        alloc: true 0x1a70.6-0x1a70.7 (0.1)
0x1a70|02                                             |.               |        write: false 0x1a70.7-0x1a71 (0.1)
0x1a70|   00                                          | .              |        tls: false 0x1a71-0x1a71.1 (0.1)
0x1a70|   00                                          | .              |        group: false 0x1a71.1-0x1a71.2 (0.1)
0x1a70|   00                                          | .              |        os_nonconforming: false 0x1a71.2-0x1a71.3 (0.1)
0x1a70|   00 00                                       | ..             |        unused1: 0 0x1a71.3-0x1a72.4 (1.1)
0x1a70|      00 00                                    |  ..            |        os_specific: 0 0x1a72.4-0x1a73.4 (1)
0x1a70|         00                                    |   .            |        processor_specific: 0 0x1a73.4-0x1a74 (0.4)
0x1a70|            00 01 00 00                        |    ....        |      addr: 0x100 0x1a74-0x1a78 (4)
0x1a70|                        00 01 00 00            |        ....    |      offset: 256 0x1a78-0x1a7c (4)
0x1a70|                                    c0 00 00 00|            ....|      size: 0xc0 0x1a7c-0x1a80 (4)
0x1a80|03 00 00 00                                    |....            |      link: 3 0x1a80-0x1a84 (4)
0x1a80|            03 00 00 00                        |    ....        |      info: 3 0x1a84-0x1a88 (4)
0x1a80|                        04 00 00 00            |        ....    |      addralign: 4 0x1a88-0x1a8c (4)
0x1a80|                                    10 00 00 00|            ....|      entsize: 16 0x1a8c-0x1a90 (4)
      |                                               |                |    [3]{}: section_header 0x1c0-0x1ab8 (6392)
0x01c0|00 5f 69 6e 69 74 00 5f 66 69 6e 69 00 5f 49 54|._init._fini._IT|      string: "\x00_init\x00_fini\x00_ITM_deregisterTMCloneTable\x00_ITM_registerTMCloneTable\x00__cxa_finalize\x00__deregister_frame_info\x00__register_frame_info\x00libbbb_bbb\x00puts\x00libc.musl-armhf.so.1\x00" 0x1c0-0x265 (165)
*     |until 0x264.7 (165)                            |                |
0x1a90|2d 00 00 00                                    |-...            |      name: ".dynstr" (45) 0x1a90-0x1a94 (4)
0x1a90|            03 00 00 00                        |    ....        |      type: "strtab" (0x3) (String table) 0x1a94-0x1a98 (4)
      |                                               |                |      flags{}: 0x1a98-0x1a9c (4)
0x1a90|                        02                     |        .       |        link_order: false 0x1a98-0x1a98.1 (0.1)
0x1a90|                        02                     |        .       |        info_link: false 0x1a98.1-0x1a98.2 (0.1)
0x1a90|                        02                     |        .       |        strings: false 0x1a98.2-0x1a98.3 (0.1)
0x1a90|                        02                     |        .       |        merge: false 0x1a98.3-0x1a98.4 (0.1)
0x1a90|                        02                     |        .       |        unused0: 0 0x1a98.4-0x1a98.5 (0.1)
0x1a90|                        02                     |        .       |        execinstr: false 0x1a98.5-0x1a98.6 (0.1)
0x1a90|                        02                     |        .       |        alloc: true 0x1a98.6-0x1a98.7 (0.1)
0x1a90|                        02                     |        .       |        write: false 0x1a98.7-0x1a99 (0.1)
0x1a90|                           00                  |         .      |        tls: false 0x1a99-0x1a99.1 (0.1)
0x1a90|                           00                  |         .      |        group: false 0x1a99.1-0x1a99.2 (0.1)
0x1a90|                           00                  |         .      |        os_nonconforming: false 0x1a99.2-0x1a99.3 (0.1)
0x1a90|                           00 00               |         ..     |        unused1: 0 0x1a99.3-0x1a9a.4 (1.1)
0x1a90|                              00 00            |          ..    |        os_specific: 0 0x1a9a.4-0x1a9b.4 (1)
0x1a90|                                 00            |           .    |        processor_specific: 0 0x1a9b.4-0x1a9c (0.4)
0x1a90|                                    c0 01 00 00|            ....|      addr: 0x1c0 0x1a9c-0x1aa0 (4)
0x1aa0|c0 01 00 00                                    |....            |      offset: 448 0x1aa0-0x1aa4 (4)
0x1aa0|            a5 00 00 00                        |    ....        |      size: 0xa5 0x1aa4-0x1aa8 (4)
0x1aa0|                        00 00 00 00            |        ....    |      link: 0 0x1aa8-0x1aac (4)
0x1aa0|                                    00 00 00 00|            ....|      info: 0 0x1aac-0x1ab0 (4)
0x1ab0|01 00 00 00                                    |....            |      addralign: 1 0x1ab0-0x1ab4 (4)
0x1ab0|            00 00 00 00                        |    ....        |      entsize: 0 0x1ab4-0x1ab8 (4)
      |                                               |                |    [4]{}: section_header 0x268-0x1ae0 (6264)
0x0260|                        f0 0e 01 00 17 00 00 00|        ........|      data: raw bits 0x268-0x2a8 (64)
0x0270|f4 0e 01 00 17 00 00 00 00 10 01 00 17 00 00 00|................|
*     |until 0x2a7.7 (64)                             |                |
0x1ab0|                        35 00 00 00            |        5...    |      name: ".rel.dyn" (53) 0x1ab8-0x1abc (4)
0x1ab0|                                    09 00 00 00|            ....|      type: "rel" (0x9) (Relocation entries without explicit addends) 0x1abc-0x1ac0 (4)
      |                                               |                |      flags{}: 0x1ac0-0x1ac4 (4)
0x1ac0|02                                             |.               |        link_order: false 0x1ac0-0x1ac0.1 (0.1)
0x1ac0|02                                             |.               |        info_link: false 0x1ac0.1-0x1ac0.2 (0.1)
0x1ac0|02                                             |.               |        strings: false 0x1ac0.2-0x1ac0.3 (0.1)
0x1ac0|02                                             |.               |        merge: false 0x1ac0.3-0x1ac0.4 (0.1)
0x1ac0|02                                             |.               |        unused0: 0 0x1ac0.4-0x1ac0.5 (0.1)
0x1ac0|02                                             |.               |        execinstr: false 0x1ac0.5-0x1ac0.6 (0.1)
0x1ac0|02                                             |.               |        alloc: true 0x1ac0.6-0x1ac0.7 (0.1)
0x1ac0|02                                             |.               |        write: false 0x1ac0.7-0x1ac1 (0.1)
0x1ac0|   00                                          | .              |        tls: false 0x1ac1-0x1ac1.1 (0.1)
0x1ac0|   00                                          | .              |        group: false 0x1ac1.1-0x1ac1.2 (0.1)
0x1ac0|   00                                          | .              |        os_nonconforming: false 0x1ac1.2-0x1ac1.3 (0.1)
0x1ac0|   00 00                                       | ..             |        unused1: 0 0x1ac1.3-0x1ac2.4 (1.1)
0x1ac0|      00 00                                    |  ..            |        os_specific: 0 0x1ac2.4-0x1ac3.4 (1)
0x1ac0|         00                                    |   .            |        processor_specific: 0 0x1ac3.4-0x1ac4 (0.4)
0x1ac0|            68 02 00 00                        |    h...        |      addr: 0x268 0x1ac4-0x1ac8 (4)
0x1ac0|                        68 02 00 00            |        h...    |      offset: 616 0x1ac8-0x1acc (4)
0x1ac0|                                    40 00 00 00|            @...|      size: 0x40 0x1acc-0x1ad0 (4)
0x1ad0|02 00 00 00                                    |....            |      link: 2 0x1ad0-0x1ad4 (4)
0x1ad0|            00 00 00 00                        |    ....        |      info: 0 0x1ad4-0x1ad8 (4)
0x1ad0|                        04 00 00 00            |        ....    |      addralign: 4 0x1ad8-0x1adc (4)
0x1ad0|                                    08 00 00 00|            ....|      entsize: 8 0x1adc-0x1ae0 (4)
      |                                               |                |    [5]{}: section_header 0x2a8-0x1b08 (6240)
0x02a0|                        dc 0f 01 00 16 03 00 00|        ........|      data: raw bits 0x2a8-0x2c8 (32)
0x02b0|e0 0f 01 00 16 04 00 00 e4 0f 01 00 16 05 00 00|................|
0x02c0|e8 0f 01 00 16 08 00 00                        |........        |
0x1ae0|3e 00 00 00                                    |>...            |      name: ".rel.plt" (62) 0x1ae0-0x1ae4 (4)
0x1ae0|            09 00 00 00                        |    ....        |      type: "rel" (0x9) (Relocation entries without explicit addends) 0x1ae4-0x1ae8 (4)
      |                                               |                |      flags{}: 0x1ae8-0x1aec (4)
0x1ae0|                        42                     |        B       |        link_order: false 0x1ae8-0x1ae8.1 (0.1)
0x1ae0|                        42                     |        B       |        info_link: true 0x1ae8.1-0x1ae8.2 (0.1)
0x1ae0|                        42                     |        B       |        strings: false 0x1ae8.2-0x1ae8.3 (0.1)
0x1ae0|                        42                     |        B       |        merge: false 0x1ae8.3-0x1ae8.4 (0.1)
0x1ae0|                        42                     |        B       |        unused0: 0 0x1ae8.4-0x1ae8.5 (0.1)
0x1ae0|                        42                     |        B       |        execinstr: false 0x1ae8.5-0x1ae8.6 (0.1)
0x1ae0|                        42                     |        B       |        alloc: true 0x1ae8.6-0x1ae8.7 (0.1)
0x1ae0|                        42                     |        B       |        write: false 0x1ae8.7-0x1ae9 (0.1)
0x1ae0|                           00                  |         .      |        tls: false 0x1ae9-0x1ae9.1 (0.1)
0x1ae0|                           00                  |         .      |        group: false 0x1ae9.1-0x1ae9.2 (0.1)
0x1ae0|                           00                  |         .      |        os_nonconforming: false 0x1ae9.2-0x1ae9.3 (0.1)
0x1ae0|                           00 00               |         ..     |        unused1: 0 0x1ae9.3-0x1aea.4 (1.1)
0x1ae0|                              00 00            |          ..    |        os_specific: 0 0x1aea.4-0x1aeb.4 (1)
0x1ae0|                                 00            |           .    |        processor_specific: 0 0x1aeb.4-0x1aec (0.4)
0x1ae0|                                    a8 02 00 00|            ....|      addr: 0x2a8 0x1aec-0x1af0 (4)
0x1af0|a8 02 00 00                                    |....            |      offset: 680 0x1af0-0x1af4 (4)
0x1af0|            20 00 00 00                        |     ...        |      size: 0x20 0x1af4-0x1af8 (4)
0x1af0|                        02 00 00 00            |        ....    |      link: 2 0x1af8-0x1afc (4)
0x1af0|                                    0f 00 00 00|            ....|      info: 15 0x1afc-0x1b00 (4)
0x1b00|04 00 00 00                                    |....            |      addralign: 4 0x1b00-0x1b04 (4)
0x1b00|            08 00 00 00                        |    ....        |      entsize: 8 0x1b04-0x1b08 (4)
      |                                               |                |    [6]{}: section_header 0x2c8-0x1b30 (6248)
0x02c0|                        01 40 2d e9 01 40 bd e8|        .@-..@..|      data: raw bits 0x2c8-0x2d4 (12)
0x02d0|1e ff 2f e1                                    |../.            |
0x1b00|                        47 00 00 00            |        G...    |      name: ".init" (71) 0x1b08-0x1b0c (4)
0x1b00|                                    01 00 00 00|            ....|      type: "progbits" (0x1) (Information defined by the program) 0x1b0c-0x1b10 (4)
      |                                               |                |      flags{}: 0x1b10-0x1b14 (4)
0x1b10|06                                             |.               |        link_order: false 0x1b10-0x1b10.1 (0.1)
0x1b10|06                                             |.               |        info_link: false 0x1b10.1-0x1b10.2 (0.1)
0x1b10|06                                             |.               |        strings: false 0x1b10.2-0x1b10.3 (0.1)
0x1b10|06                                             |.               |        merge: false 0x1b10.3-0x1b10.4 (0.1)
0x1b10|06                                             |.               |        unused0: 0 0x1b10.4-0x1b10.5 (0.1)
0x1b10|06                                             |.               |        execinstr: true 0x1b10.5-0x1b10.6 (0.1)
0x1b10|06                                             |.               |        alloc: true 0x1b10.6-0x1b10.7 (0.1)
0x1b10|06                                             |.               |        write: false 0x1b10.7-0x1b11 (0.1)
0x1b10|   00                                          | .              |        tls: false 0x1b11-0x1b11.1 (0.1)
0x1b10|   00                                          | .              |        group: false 0x1b11.1-0x1b11.2 (0.1)
0x1b10|   00                                          | .              |        os_nonconforming: false 0x1b11.2-0x1b11.3 (0.1)
0x1b10|   00 00                                       | ..             |        unused1: 0 0x1b11.3-0x1b12.4 (1.1)
0x1b10|      00 00                                    |  ..            |        os_specific: 0 0x1b12.4-0x1b13.4 (1)
0x1b10|         00                                    |   .            |        processor_specific: 0 0x1b13.4-0x1b14 (0.4)
0x1b10|            c8 02 00 00                        |    ....        |      addr: 0x2c8 0x1b14-0x1b18 (4)
0x1b10|                        c8 02 00 00            |        ....    |      offset: 712 0x1b18-0x1b1c (4)
0x1b10|                                    0c 00 00 00|            ....|      size: 0xc 0x1b1c-0x1b20 (4)
0x1b20|00 00 00 00                                    |....            |      link: 0 0x1b20-0x1b24 (4)
0x1b20|            00 00 00 00                        |    ....        |      info: 0 0x1b24-0x1b28 (4)
0x1b20|                        04 00 00 00            |        ....    |      addralign: 4 0x1b28-0x1b2c (4)
0x1b20|                                    00 00 00 00|            ....|      entsize: 0 0x1b2c-0x1b30 (4)
      |                                               |                |    [7]{}: section_header 0x2d4-0x1b58 (6276)
0x02d0|            04 e0 2d e5 04 e0 9f e5 0e e0 8f e0|    ..-.........|      data: raw bits 0x2d4-0x318 (68)
0x02e0|08 f0 be e5 ec 0c 01 00 00 c6 8f e2 10 ca 8c e2|................|
*     |until 0x317.7 (68)                             |                |
0x1b30|42 00 00 00                                    |B...            |      name: ".plt" (66) 0x1b30-0x1b34 (4)
0x1b30|            01 00 00 00                        |    ....        |      type: "progbits" (0x1) (Information defined by the program) 0x1b34-0x1b38 (4)
      |                                               |                |      flags{}: 0x1b38-0x1b3c (4)
0x1b30|                        06                     |        .       |        link_order: false 0x1b38-0x1b38.1 (0.1)
0x1b30|                        06                     |        .       |        info_link: false 0x1b38.1-0x1b38.2 (0.1)
0x1b30|                        06                     |        .       |        strings: false 0x1b38.2-0x1b38.3 (0.1)
0x1b30|                        06                     |        .       |        merge: false 0x1b38.3-0x1b38.4 (0.1)
0x1b30|                        06                     |        .       |        unused0: 0 0x1b38.4-0x1b38.5 (0.1)
0x1b30|                        06                     |        .       |        execinstr: true 0x1b38.5-0x1b38.6 (0.1)
0x1b30|                        06                     |        .       |        alloc: true 0x1b38.6-0x1b38.7 (0.1)
0x1b30|                        06                     |        .       |        write: false 0x1b38.7-0x1b39 (0.1)
0x1b30|                           00                  |         .      |        tls: false 0x1b39-0x1b39.1 (0.1)
0x1b30|                           00                  |         .      |        group: false 0x1b39.1-0x1b39.2 (0.1)
0x1b30|                           00                  |         .      |        os_nonconforming: false 0x1b39.2-0x1b39.3 (0.1)
0x1b30|                           00 00               |         ..     |        unused1: 0 0x1b39.3-0x1b3a.4 (1.1)
0x1b30|                              00 00            |          ..    |        os_specific: 0 0x1b3a.4-0x1b3b.4 (1)
0x1b30|                                 00            |           .    |        processor_specific: 0 0x1b3b.4-0x1b3c (0.4)
0x1b30|                                    d4 02 00 00|            ....|      addr: 0x2d4 0x1b3c-0x1b40 (4)
0x1b40|d4 02 00 00                                    |....            |      offset: 724 0x1b40-0x1b44 (4)
0x1b40|            44 00 00 00                        |    D...        |      size: 0x44 0x1b44-0x1b48 (4)
0x1b40|                        00 00 00 00            |        ....    |      link: 0 0x1b48-0x1b4c (4)
0x1b40|                                    00 00 00 00|            ....|      info: 0 0x1b4c-0x1b50 (4)
0x1b50|04 00 00 00                                    |....            |      addralign: 4 0x1b50-0x1b54 (4)
0x1b50|            04 00 00 00                        |    ....        |      entsize: 4 0x1b54-0x1b58 (4)
      |                                               |                |    [8]{}: section_header 0x318-0x1b80 (6248)
0x0310|                        2c 00 9f e5 2c 30 9f e5|        ,...,0..|      data: raw bits 0x318-0x4a8 (400)
0x0320|00 00 8f e0 03 30 8f e0 00 00 53 e1 20 30 9f e5|.....0....S. 0..|
*     |until 0x4a7.7 (400)                            |                |
0x1b50|                        4d 00 00 00            |        M...    |      name: ".text" (77) 0x1b58-0x1b5c (4)
0x1b50|                                    01 00 00 00|            ....|      type: "progbits" (0x1) (Information defined by the program) 0x1b5c-0x1b60 (4)
      |                                               |                |      flags{}: 0x1b60-0x1b64 (4)
0x1b60|06                                             |.               |        link_order: false 0x1b60-0x1b60.1 (0.1)
0x1b60|06                                             |.               |        info_link: false 0x1b60.1-0x1b60.2 (0.1)
0x1b60|06                                             |.               |        strings: false 0x1b60.2-0x1b60.3 (0.1)
0x1b60|06                                             |.               |        merge: false 0x1b60.3-0x1b60.4 (0.1)
0x1b60|06                                             |.               |        unused0: 0 0x1b60.4-0x1b60.5 (0.1)
0x1b60|06                                             |.               |        execinstr: true 0x1b60.5-0x1b60.6 (0.1)
0x1b60|06                                             |.               |        alloc: true 0x1b60.6-0x1b60.7 (0.1)
0x1b60|06                                             |.               |        write: false 0x1b60.7-0x1b61 (0.1)
0x1b60|   00                                          | .              |        tls: false 0x1b61-0x1b61.1 (0.1)
0x1b60|   00                                          | .              |        group: false 0x1b61.1-0x1b61.2 (0.1)
0x1b60|   00                                          | .              |        os_nonconforming: false 0x1b61.2-0x1b61.3 (0.1)
0x1b60|   00 00                                       | ..             |        unused1: 0 0x1b61.3-0x1b62.4 (1.1)
0x1b60|      00 00                                    |  ..            |        os_specific: 0 0x1b62.4-0x1b63.4 (1)
0x1b60|         00                                    |   .            |        processor_specific: 0 0x1b63.4-0x1b64 (0.4)
0x1b60|            18 03 00 00                        |    ....        |      addr: 0x318 0x1b64-0x1b68 (4)
0x1b60|                        18 03 00 00            |        ....    |      offset: 792 0x1b68-0x1b6c (4)
0x1b60|                                    90 01 00 00|            ....|      size: 0x190 0x1b6c-0x1b70 (4)
0x1b70|00 00 00 00                                    |....            |      link: 0 0x1b70-0x1b74 (4)
0x1b70|            00 00 00 00                        |    ....        |      info: 0 0x1b74-0x1b78 (4)
0x1b70|                        04 00 00 00            |        ....    |      addralign: 4 0x1b78-0x1b7c (4)
0x1b70|                                    00 00 00 00|            ....|      entsize: 0 0x1b7c-0x1b80 (4)
      |                                               |                |    [9]{}: section_header 0x4a8-0x1ba8 (5888)
0x04a0|                        01 40 2d e9 01 40 bd e8|        .@-..@..|      data: raw bits 0x4a8-0x4b4 (12)
0x04b0|1e ff 2f e1                                    |../.            |
0x1b80|53 00 00 00                                    |S...            |      name: ".fini" (83) 0x1b80-0x1b84 (4)
0x1b80|            01 00 00 00                        |    ....        |      type: "progbits" (0x1) (Information defined by the program) 0x1b84-0x1b88 (4)
      |                                               |                |      flags{}: 0x1b88-0x1b8c (4)
0x1b80|                        06                     |        .       |        link_order: false 0x1b88-0x1b88.1 (0.1)
0x1b80|                        06                     |        .       |        info_link: false 0x1b88.1-0x1b88.2 (0.1)
0x1b80|                        06                     |        .       |        strings: false 0x1b88.2-0x1b88.3 (0.1)
0x1b80|                        06                     |        .       |        merge: false 0x1b88.3-0x1b88.4 (0.1)
0x1b80|                        06                     |        .       |        unused0: 0 0x1b88.4-0x1b88.5 (0.1)
0x1b80|                        06                     |        .       |        execinstr: true 0x1b88.5-0x1b88.6 (0.1)
0x1b80|                        06                     |        .       |        alloc: true 0x1b88.6-0x1b88.7 (0.1)
0x1b80|                        06                     |        .       |        write: false 0x1b88.7-0x1b89 (0.1)
0x1b80|                           00                  |         .      |        tls: false 0x1b89-0x1b89.1 (0.1)
0x1b80|                           00                  |         .      |        group: false 0x1b89.1-0x1b89.2 (0.1)
0x1b80|                           00                  |         .      |        os_nonconforming: false 0x1b89.2-0x1b89.3 (0.1)
0x1b80|                           00 00               |         ..     |        unused1: 0 0x1b89.3-0x1b8a.4 (1.1)
0x1b80|                              00 00            |          ..    |        os_specific: 0 0x1b8a.4-0x1b8b.4 (1)
0x1b80|                                 00            |           .    |        processor_specific: 0 0x1b8b.4-0x1b8c (0.4)
0x1b80|                                    a8 04 00 00|            ....|      addr: 0x4a8 0x1b8c-0x1b90 (4)
0x1b90|a8 04 00 00                                    |....            |      offset: 1192 0x1b90-0x1b94 (4)
0x1b90|            0c 00 00 00                        |    ....        |      size: 0xc 0x1b94-0x1b98 (4)
0x1b90|                        00 00 00 00            |        ....    |      link: 0 0x1b98-0x1b9c (4)
0x1b90|                                    00 00 00 00|            ....|      info: 0 0x1b9c-0x1ba0 (4)
0x1ba0|04 00 00 00                                    |....            |      addralign: 4 0x1ba0-0x1ba4 (4)
0x1ba0|            00 00 00 00                        |    ....        |      entsize: 0 0x1ba4-0x1ba8 (4)
      |                                               |                |    [10]{}: section_header 0x4b4-0x1bd0 (5916)
0x04b0|            3b 00 00 00 3e 00 00 00 0b 00 00 00|    ;...>.......|      data: raw bits 0x4b4-0x5e0 (300)
0x04c0|3e 00 00 00 10 00 00 00 3e 00 00 00 25 00 00 00|>.......>...%...|
*     |until 0x5df.7 (300)                            |                |
0x1ba0|                        59 00 00 00            |        Y...    |      name: ".rodata" (89) 0x1ba8-0x1bac (4)
0x1ba0|                                    01 00 00 00|            ....|      type: "progbits" (0x1) (Information defined by the program) 0x1bac-0x1bb0 (4)
      |                                               |                |      flags{}: 0x1bb0-0x1bb4 (4)
0x1bb0|02                                             |.               |        link_order: false 0x1bb0-0x1bb0.1 (0.1)
0x1bb0|02                                             |.               |        info_link: false 0x1bb0.1-0x1bb0.2 (0.1)
0x1bb0|02                                             |.               |        strings: false 0x1bb0.2-0x1bb0.3 (0.1)
0x1bb0|02                                             |.               |        merge: false 0x1bb0.3-0x1bb0.4 (0.1)
0x1bb0|02                                             |.               |        unused0: 0 0x1bb0.4-0x1bb0.5 (0.1)
0x1bb0|02                                             |.               |        execinstr: false 0x1bb0.5-0x1bb0.6 (0.1)
0x1bb0|02                                             |.               |        alloc: true 0x1bb0.6-0x1bb0.7 (0.1)
0x1bb0|02                                             |.               |        write: false 0x1bb0.7-0x1bb1 (0.1)
0x1bb0|   00                                          | .              |        tls: false 0x1bb1-0x1bb1.1 (0.1)
0x1bb0|   00                                          | .              |        group: false 0x1bb1.1-0x1bb1.2 (0.1)
0x1bb0|   00                                          | .              |        os_nonconforming: false 0x1bb1.2-0x1bb1.3 (0.1)
0x1bb0|   00 00                                       | ..             |        unused1: 0 0x1bb1.3-0x1bb2.4 (1.1)
0x1bb0|      00 00                                    |  ..            |        os_specific: 0 0x1bb2.4-0x1bb3.4 (1)
0x1bb0|         00                                    |   .            |        processor_specific: 0 0x1bb3.4-0x1bb4 (0.4)
0x1bb0|            b4 04 00 00                        |    ....        |      addr: 0x4b4 0x1bb4-0x1bb8 (4)
0x1bb0|                        b4 04 00 00            |        ....    |      offset: 1204 0x1bb8-0x1bbc (4)
0x1bb0|                                    2c 01 00 00|            ,...|      size: 0x12c 0x1bbc-0x1bc0 (4)
0x1bc0|00 00 00 00                                    |....            |      link: 0 0x1bc0-0x1bc4 (4)
0x1bc0|            00 00 00 00                        |    ....        |      info: 0 0x1bc4-0x1bc8 (4)
0x1bc0|                        04 00 00 00            |        ....    |      addralign: 4 0x1bc8-0x1bcc (4)
0x1bc0|                                    00 00 00 00|            ....|      entsize: 0 0x1bcc-0x1bd0 (4)
      |                                               |                |    [11]{}: section_header 0x5e0-0x1bf8 (5656)
0x05e0|00 00 00 00                                    |....            |      data: raw bits 0x5e0-0x5e4 (4)
0x1bd0|61 00 00 00                                    |a...            |      name: ".eh_frame" (97) 0x1bd0-0x1bd4 (4)
0x1bd0|            01 00 00 00                        |    ....        |      type: "progbits" (0x1) (Information defined by the program) 0x1bd4-0x1bd8 (4)
      |                                               |                |      flags{}: 0x1bd8-0x1bdc (4)
0x1bd0|                        02                     |        .       |        link_order: false 0x1bd8-0x1bd8.1 (0.1)
0x1bd0|                        02                     |        .       |        info_link: false 0x1bd8.1-0x1bd8.2 (0.1)
0x1bd0|                        02                     |        .       |        strings: false 0x1bd8.2-0x1bd8.3 (0.1)
0x1bd0|                        02                     |        .       |        merge: false 0x1bd8.3-0x1bd8.4 (0.1)
0x1bd0|                        02                     |        .       |        unused0: 0 0x1bd8.4-0x1bd8.5 (0.1)
0x1bd0|                        02                     |        .       |        execinstr: false 0x1bd8.5-0x1bd8.6 (0.1)
0x1bd0|                        02                     |        .       |        alloc: true 0x1bd8.6-0x1bd8.7 (0.1)
0x1bd0|                        02                     |        .       |        write: false 0x1bd8.7-0x1bd9 (0.1)
0x1bd0|                           00                  |         .      |        tls: false 0x1bd9-0x1bd9.1 (0.1)
0x1bd0|                           00                  |         .      |        group: false 0x1bd9.1-0x1bd9.2 (0.1)
0x1bd0|                           00                  |         .      |        os_nonconforming: false 0x1bd9.2-0x1bd9.3 (0.1)
0x1bd0|                           00 00               |         ..     |        unused1: 0 0x1bd9.3-0x1bda.4 (1.1)
0x1bd0|                              00 00            |          ..    |        os_specific: 0 0x1bda.4-0x1bdb.4 (1)
0x1bd0|                                 00            |           .    |        processor_specific: 0 0x1bdb.4-0x1bdc (0.4)
0x1bd0|                                    e0 05 00 00|            ....|      addr: 0x5e0 0x1bdc-0x1be0 (4)
0x1be0|e0 05 00 00                                    |....            |      offset: 1504 0x1be0-0x1be4 (4)
0x1be0|            04 00 00 00                        |    ....        |      size: 0x4 0x1be4-0x1be8 (4)
0x1be0|                        00 00 00 00            |        ....    |      link: 0 0x1be8-0x1bec (4)
0x1be0|                                    00 00 00 00|            ....|      info: 0 0x1bec-0x1bf0 (4)
0x1bf0|04 00 00 00                                    |....            |      addralign: 4 0x1bf0-0x1bf4 (4)
0x1bf0|            00 00 00 00                        |    ....        |      entsize: 0 0x1bf4-0x1bf8 (4)
      |                                               |                |    [12]{}: section_header 0xef0-0x1c20 (3376)
0x0ef0|38 04 00 00                                    |8...            |      data: raw bits 0xef0-0xef4 (4)
0x1bf0|                        6b 00 00 00            |        k...    |      name: ".init_array" (107) 0x1bf8-0x1bfc (4)
0x1bf0|                                    0e 00 00 00|            ....|      type: "init_array" (0xe) (Initialization functions) 0x1bfc-0x1c00 (4)
      |                                               |                |      flags{}: 0x1c00-0x1c04 (4)
0x1c00|03                                             |.               |        link_order: false 0x1c00-0x1c00.1 (0.1)
0x1c00|03                                             |.               |        info_link: false 0x1c00.1-0x1c00.2 (0.1)
0x1c00|03                                             |.               |        strings: false 0x1c00.2-0x1c00.3 (0.1)
0x1c00|03                                             |.               |        merge: false 0x1c00.3-0x1c00.4 (0.1)
0x1c00|03                                             |.               |        unused0: 0 0x1c00.4-0x1c00.5 (0.1)
0x1c00|03                                             |.               |        execinstr: false 0x1c00.5-0x1c00.6 (0.1)
0x1c00|03                                             |.               |        alloc: true 0x1c00.6-0x1c00.7 (0.1)
0x1c00|03                                             |.               |        write: true 0x1c00.7-0x1c01 (0.1)
0x1c00|   00                                          | .              |        tls: false 0x1c01-0x1c01.1 (0.1)
0x1c00|   00                                          | .              |        group: false 0x1c01.1-0x1c01.2 (0.1)
0x1c00|   00                                          | .              |        os_nonconforming: false 0x1c01.2-0x1c01.3 (0.1)
0x1c00|   00 00                                       | ..             |        unused1: 0 0x1c01.3-0x1c02.4 (1.1)
0x1c00|      00 00                                    |  ..            |        os_specific: 0 0x1c02.4-0x1c03.4 (1)
0x1c00|         00                                    |   .            |        processor_specific: 0 0x1c03.4-0x1c04 (0.4)
0x1c00|            f0 0e 01 00                        |    ....        |      addr: 0x10ef0 0x1c04-0x1c08 (4)
0x1c00|                        f0 0e 00 00            |        ....    |      offset: 3824 0x1c08-0x1c0c (4)
0x1c00|                                    04 00 00 00|            ....|      size: 0x4 0x1c0c-0x1c10 (4)
0x1c10|00 00 00 00                                    |....            |      link: 0 0x1c10-0x1c14 (4)
0x1c10|            00 00 00 00                        |    ....        |      info: 0 0x1c14-0x1c18 (4)
0x1c10|                        04 00 00 00            |        ....    |      addralign: 4 0x1c18-0x1c1c (4)
0x1c10|                                    04 00 00 00|            ....|      entsize: 4 0x1c1c-0x1c20 (4)
      |                                               |                |    [13]{}: section_header 0xef4-0x1c48 (3412)
0x0ef0|            ac 03 00 00                        |    ....        |      data: raw bits 0xef4-0xef8 (4)
0x1c20|77 00 00 00                                    |w...            |      name: ".fini_array" (119) 0x1c20-0x1c24 (4)
0x1c20|            0f 00 00 00                        |    ....        |      type: "fini_array" (0xf) (Termination functions) 0x1c24-0x1c28 (4)
      |                                               |                |      flags{}: 0x1c28-0x1c2c (4)
0x1c20|                        03                     |        .       |        link_order: false 0x1c28-0x1c28.1 (0.1)
0x1c20|                        03                     |        .       |        info_link: false 0x1c28.1-0x1c28.2 (0.1)
0x1c20|                        03                     |        .       |        strings: false 0x1c28.2-0x1c28.3 (0.1)
0x1c20|                        03                     |        .       |        merge: false 0x1c28.3-0x1c28.4 (0.1)
0x1c20|                        03                     |        .       |        unused0: 0 0x1c28.4-0x1c28.5 (0.1)
0x1c20|                        03                     |        .       |        execinstr: false 0x1c28.5-0x1c28.6 (0.1)
0x1c20|                        03                     |        .       |        alloc: true 0x1c28.6-0x1c28.7 (0.1)
0x1c20|                        03                     |        .       |        write: true 0x1c28.7-0x1c29 (0.1)
0x1c20|                           00                  |         .      |        tls: false 0x1c29-0x1c29.1 (0.1)
0x1c20|                           00                  |         .      |        group: false 0x1c29.1-0x1c29.2 (0.1)
0x1c20|                           00                  |         .      |        os_nonconforming: false 0x1c29.2-0x1c29.3 (0.1)
0x1c20|                           00 00               |         ..     |        unused1: 0 0x1c29.3-0x1c2a.4 (1.1)
0x1c20|                              00 00            |          ..    |        os_specific: 0 0x1c2a.4-0x1c2b.4 (1)
0x1c20|                                 00            |           .    |        processor_specific: 0 0x1c2b.4-0x1c2c (0.4)
0x1c20|                                    f4 0e 01 00|            ....|      addr: 0x10ef4 0x1c2c-0x1c30 (4)
0x1c30|f4 0e 00 00                                    |....            |      offset: 3828 0x1c30-0x1c34 (4)
0x1c30|            04 00 00 00                        |    ....        |      size: 0x4 0x1c34-0x1c38 (4)
0x1c30|                        00 00 00 00            |        ....    |      link: 0 0x1c38-0x1c3c (4)
0x1c30|                                    00 00 00 00|            ....|      info: 0 0x1c3c-0x1c40 (4)
0x1c40|04 00 00 00                                    |....            |      addralign: 4 0x1c40-0x1c44 (4)
0x1c40|            04 00 00 00                        |    ....        |      entsize: 4 0x1c44-0x1c48 (4)
      |                                               |                |    [14]{}: section_header 0xef8-0x1c70 (3448)
      |                                               |                |      dynamic_tags[0:23]: 0xef8-0xfb0 (184)
      |                                               |                |        [0]{}: dynamic_tags 0xef8-0xf00 (8)
0x0ef0|                        01 00 00 00            |        ....    |          tag: "needed" (1) (String table offset to name of a needed library) 0xef8-0xefc (4)
0x0ef0|                                    90 00 00 00|            ....|          val: "libc.musl-armhf.so.1" (144) 0xefc-0xf00 (4)
      |                                               |                |        [1]{}: dynamic_tags 0xf00-0xf08 (8)
0x0f00|0c 00 00 00                                    |....            |          tag: "init" (12) (Address of the initialization function) 0xf00-0xf04 (4)
0x0f00|            c8 02 00 00                        |    ....        |          ptr: 0x2c8 0xf04-0xf08 (4)
      |                                               |                |          section_index: 6
      |                                               |                |        [2]{}: dynamic_tags 0xf08-0xf10 (8)
0x0f00|                        0d 00 00 00            |        ....    |          tag: "fini" (13) (Address of the termination function) 0xf08-0xf0c (4)
0x0f00|                                    a8 04 00 00|            ....|          ptr: 0x4a8 0xf0c-0xf10 (4)
      |                                               |                |          section_index: 9
      |                                               |                |        [3]{}: dynamic_tags 0xf10-0xf18 (8)
0x0f10|19 00 00 00                                    |....            |          tag: "init_array" (25) (Address of the array of pointers to initialization functions) 0xf10-0xf14 (4)
0x0f10|            f0 0e 01 00                        |    ....        |          ptr: 0x10ef0 0xf14-0xf18 (4)
      |                                               |                |        [4]{}: dynamic_tags 0xf18-0xf20 (8)
0x0f10|                        1b 00 00 00            |        ....    |          tag: "init_arraysz" (27) (Size in bytes of the array of initialization functions) 0xf18-0xf1c (4)
0x0f10|                                    04 00 00 00|            ....|          val: 4 0xf1c-0xf20 (4)
      |                                               |                |        [5]{}: dynamic_tags 0xf20-0xf28 (8)
0x0f20|1a 00 00 00                                    |....            |          tag: "fini_array" (26) (Address of the array of pointers to termination functions) 0xf20-0xf24 (4)
0x0f20|            f4 0e 01 00                        |    ....        |          ptr: 0x10ef4 0xf24-0xf28 (4)
      |                                               |                |        [6]{}: dynamic_tags 0xf28-0xf30 (8)
0x0f20|                        1c 00 00 00            |        ....    |          tag: "fini_arraysz" (28) (Size in bytes of the array of termination functions ) 0xf28-0xf2c (4)
0x0f20|                                    04 00 00 00|            ....|          val: 4 0xf2c-0xf30 (4)
      |                                               |                |        [7]{}: dynamic_tags 0xf30-0xf38 (8)
0x0f30|f5 fe ff 6f                                    |...o            |          tag: 1879047925 0xf30-0xf34 (4)
0x0f30|            d4 00 00 00                        |    ....        |          unspecified: 0xd4 0xf34-0xf38 (4)
      |                                               |                |        [8]{}: dynamic_tags 0xf38-0xf40 (8)
0x0f30|                        05 00 00 00            |        ....    |          tag: "strtab" (5) (Address of string table) 0xf38-0xf3c (4)
0x0f30|                                    c0 01 00 00|            ....|          ptr: 0x1c0 0xf3c-0xf40 (4)
      |                                               |                |          section_index: 3
      |                                               |                |        [9]{}: dynamic_tags 0xf40-0xf48 (8)
0x0f40|06 00 00 00                                    |....            |          tag: "symtab" (6) (Address of symbol table) 0xf40-0xf44 (4)
0x0f40|            00 01 00 00                        |    ....        |          ptr: 0x100 0xf44-0xf48 (4)
      |                                               |                |          section_index: 2
      |                                               |                |        [10]{}: dynamic_tags 0xf48-0xf50 (8)
0x0f40|                        0a 00 00 00            |        ....    |          tag: "strsz" (10) (Size in bytes of string table) 0xf48-0xf4c (4)
0x0f40|                                    a5 00 00 00|            ....|          val: 165 0xf4c-0xf50 (4)
      |                                               |                |        [11]{}: dynamic_tags 0xf50-0xf58 (8)
0x0f50|0b 00 00 00                                    |....            |          tag: "syment" (11) (Size in bytes of a symbol table entry) 0xf50-0xf54 (4)
0x0f50|            10 00 00 00                        |    ....        |          val: 16 0xf54-0xf58 (4)
      |                                               |                |        [12]{}: dynamic_tags 0xf58-0xf60 (8)
0x0f50|                        03 00 00 00            |        ....    |          tag: "pltgot" (3) (Address of PLT and/or GOT) 0xf58-0xf5c (4)
0x0f50|                                    d0 0f 01 00|            ....|          ptr: 0x10fd0 0xf5c-0xf60 (4)
      |                                               |                |          section_index: 15
      |                                               |                |        [13]{}: dynamic_tags 0xf60-0xf68 (8)
0x0f60|02 00 00 00                                    |....            |          tag: "pltrelsz" (2) (Size in bytes of PLT relocation entries) 0xf60-0xf64 (4)
0x0f60|            20 00 00 00                        |     ...        |          val: 32 0xf64-0xf68 (4)
      |                                               |                |        [14]{}: dynamic_tags 0xf68-0xf70 (8)
0x0f60|                        14 00 00 00            |        ....    |          tag: "pltrel" (20) (Type of relocation entry to which the PLT refers (Rela or Rel)) 0xf68-0xf6c (4)
0x0f60|                                    11 00 00 00|            ....|          val: 17 0xf6c-0xf70 (4)
      |                                               |                |        [15]{}: dynamic_tags 0xf70-0xf78 (8)
0x0f70|17 00 00 00                                    |....            |          tag: "jmprel" (23) (Address of relocation entries associated solely with the PLT) 0xf70-0xf74 (4)
0x0f70|            a8 02 00 00                        |    ....        |          ptr: 0x2a8 0xf74-0xf78 (4)
      |                                               |                |          section_index: 5
      |                                               |                |        [16]{}: dynamic_tags 0xf78-0xf80 (8)
0x0f70|                        11 00 00 00            |        ....    |          tag: "rel" (17) 0xf78-0xf7c (4)
0x0f70|                                    68 02 00 00|            h...|          ptr: 0x268 0xf7c-0xf80 (4)
      |                                               |                |        [17]{}: dynamic_tags 0xf80-0xf88 (8)
0x0f80|12 00 00 00                                    |....            |          tag: "relsz" (18) (Size in bytes of Rel relocation table) 0xf80-0xf84 (4)
0x0f80|            40 00 00 00                        |    @...        |          val: 64 0xf84-0xf88 (4)
      |                                               |                |        [18]{}: dynamic_tags 0xf88-0xf90 (8)
0x0f80|                        13 00 00 00            |        ....    |          tag: "relent" (19) (Size in bytes of a Rel table entry) 0xf88-0xf8c (4)
0x0f80|                                    08 00 00 00|            ....|          val: 8 0xf8c-0xf90 (4)
      |                                               |                |        [19]{}: dynamic_tags 0xf90-0xf98 (8)
0x0f90|18 00 00 00                                    |....            |          tag: "bind_now" (24) (Instruct dynamic linker to process all relocations before transferring control to the executable) 0xf90-0xf94 (4)
0x0f90|            00 00 00 00                        |    ....        |          ignored: 0x0 0xf94-0xf98 (4)
      |                                               |                |        [20]{}: dynamic_tags 0xf98-0xfa0 (8)
0x0f90|                        fb ff ff 6f            |        ...o    |          tag: 1879048187 0xf98-0xf9c (4)
0x0f90|                                    01 00 00 00|            ....|          unspecified: 0x1 0xf9c-0xfa0 (4)
      |                                               |                |        [21]{}: dynamic_tags 0xfa0-0xfa8 (8)
0x0fa0|fa ff ff 6f                                    |...o            |          tag: 1879048186 0xfa0-0xfa4 (4)
0x0fa0|            03 00 00 00                        |    ....        |          unspecified: 0x3 0xfa4-0xfa8 (4)
      |                                               |                |        [22]{}: dynamic_tags 0xfa8-0xfb0 (8)
0x0fa0|                        00 00 00 00            |        ....    |          tag: "null" (0) (Marks end of dynamic section) 0xfa8-0xfac (4)
0x0fa0|                                    00 00 00 00|            ....|          ignored: 0x0 0xfac-0xfb0 (4)
0x1c40|                        83 00 00 00            |        ....    |      name: ".dynamic" (131) 0x1c48-0x1c4c (4)
0x1c40|                                    06 00 00 00|            ....|      type: "dynamic" (0x6) (Information for dynamic linking) 0x1c4c-0x1c50 (4)
      |                                               |                |      flags{}: 0x1c50-0x1c54 (4)
0x1c50|03                                             |.               |        link_order: false 0x1c50-0x1c50.1 (0.1)
0x1c50|03                                             |.               |        info_link: false 0x1c50.1-0x1c50.2 (0.1)
0x1c50|03                                             |.               |        strings: false 0x1c50.2-0x1c50.3 (0.1)
0x1c50|03                                             |.               |        merge: false 0x1c50.3-0x1c50.4 (0.1)
0x1c50|03                                             |.               |        unused0: 0 0x1c50.4-0x1c50.5 (0.1)
0x1c50|03                                             |.               |        execinstr: false 0x1c50.5-0x1c50.6 (0.1)
0x1c50|03                                             |.               |        alloc: true 0x1c50.6-0x1c50.7 (0.1)
0x1c50|03                                             |.               |        write: true 0x1c50.7-0x1c51 (0.1)
0x1c50|   00                                          | .              |        tls: false 0x1c51-0x1c51.1 (0.1)
0x1c50|   00                                          | .              |        group: false 0x1c51.1-0x1c51.2 (0.1)
0x1c50|   00                                          | .              |        os_nonconforming: false 0x1c51.2-0x1c51.3 (0.1)
0x1c50|   00 00                                       | ..             |        unused1: 0 0x1c51.3-0x1c52.4 (1.1)
0x1c50|      00 00                                    |  ..            |        os_specific: 0 0x1c52.4-0x1c53.4 (1)
0x1c50|         00                                    |   .            |        processor_specific: 0 0x1c53.4-0x1c54 (0.4)
0x1c50|            f8 0e 01 00                        |    ....        |      addr: 0x10ef8 0x1c54-0x1c58 (4)
0x1c50|                        f8 0e 00 00            |        ....    |      offset: 3832 0x1c58-0x1c5c (4)
0x1c50|                                    d8 00 00 00|            ....|      size: 0xd8 0x1c5c-0x1c60 (4)
0x1c60|03 00 00 00                                    |....            |      link: 3 0x1c60-0x1c64 (4)
0x1c60|            00 00 00 00                        |    ....        |      info: 0 0x1c64-0x1c68 (4)
0x1c60|                        04 00 00 00            |        ....    |      addralign: 4 0x1c68-0x1c6c (4)
0x1c60|                                    08 00 00 00|            ....|      entsize: 8 0x1c6c-0x1c70 (4)
      |                                               |                |    [15]{}: section_header 0xfd0-0x1c98 (3272)
0x0fd0|f8 0e 01 00 00 00 00 00 00 00 00 00 d4 02 00 00|................|      data: raw bits 0xfd0-0x1000 (48)
*     |until 0xfff.7 (48)                             |                |
0x1c70|8c 00 00 00                                    |....            |      name: ".got" (140) 0x1c70-0x1c74 (4)
0x1c70|            01 00 00 00                        |    ....        |      type: "progbits" (0x1) (Information defined by the program) 0x1c74-0x1c78 (4)
      |                                               |                |      flags{}: 0x1c78-0x1c7c (4)
0x1c70|                        03                     |        .       |        link_order: false 0x1c78-0x1c78.1 (0.1)
0x1c70|                        03                     |        .       |        info_link: false 0x1c78.1-0x1c78.2 (0.1)
0x1c70|                        03                     |        .       |        strings: false 0x1c78.2-0x1c78.3 (0.1)
0x1c70|                        03                     |        .       |        merge: false 0x1c78.3-0x1c78.4 (0.1)
0x1c70|                        03                     |        .       |        unused0: 0 0x1c78.4-0x1c78.5 (0.1)
0x1c70|                        03                     |        .       |        execinstr: false 0x1c78.5-0x1c78.6 (0.1)
0x1c70|                        03                     |        .       |        alloc: true 0x1c78.6-0x1c78.7 (0.1)
0x1c70|                        03                     |        .       |        write: true 0x1c78.7-0x1c79 (0.1)
0x1c70|                           00                  |         .      |        tls: false 0x1c79-0x1c79.1 (0.1)
0x1c70|                           00                  |         .      |        group: false 0x1c79.1-0x1c79.2 (0.1)
0x1c70|                           00                  |         .      |        os_nonconforming: false 0x1c79.2-0x1c79.3 (0.1)
0x1c70|                           00 00               |         ..     |        unused1: 0 0x1c79.3-0x1c7a.4 (1.1)
0x1c70|                              00 00            |          ..    |        os_specific: 0 0x1c7a.4-0x1c7b.4 (1)
0x1c70|                                 00            |           .    |        processor_specific: 0 0x1c7b.4-0x1c7c (0.4)
0x1c70|                                    d0 0f 01 00|            ....|      addr: 0x10fd0 0x1c7c-0x1c80 (4)
0x1c80|d0 0f 00 00                                    |....            |      offset: 4048 0x1c80-0x1c84 (4)
0x1c80|            30 00 00 00                        |    0...        |      size: 0x30 0x1c84-0x1c88 (4)
0x1c80|                        00 00 00 00            |        ....    |      link: 0 0x1c88-0x1c8c (4)
0x1c80|                                    00 00 00 00|            ....|      info: 0 0x1c8c-0x1c90 (4)
0x1c90|04 00 00 00                                    |....            |      addralign: 4 0x1c90-0x1c94 (4)
0x1c90|            04 00 00 00                        |    ....        |      entsize: 4 0x1c94-0x1c98 (4)
      |                                               |                |    [16]{}: section_header 0x1000-0x1cc0 (3264)
0x1000|00 10 01 00                                    |....            |      data: raw bits 0x1000-0x1004 (4)
0x1c90|                        91 00 00 00            |        ....    |      name: ".data" (145) 0x1c98-0x1c9c (4)
0x1c90|                                    01 00 00 00|            ....|      type: "progbits" (0x1) (Information defined by the program) 0x1c9c-0x1ca0 (4)
      |                                               |                |      flags{}: 0x1ca0-0x1ca4 (4)
0x1ca0|03                                             |.               |        link_order: false 0x1ca0-0x1ca0.1 (0.1)
0x1ca0|03                                             |.               |        info_link: false 0x1ca0.1-0x1ca0.2 (0.1)
0x1ca0|03                                             |.               |        strings: false 0x1ca0.2-0x1ca0.3 (0.1)
0x1ca0|03                                             |.               |        merge: false 0x1ca0.3-0x1ca0.4 (0.1)
0x1ca0|03                                             |.               |        unused0: 0 0x1ca0.4-0x1ca0.5 (0.1)
0x1ca0|03                                             |.               |        execinstr: false 0x1ca0.5-0x1ca0.6 (0.1)
0x1ca0|03                                             |.               |        alloc: true 0x1ca0.6-0x1ca0.7 (0.1)
0x1ca0|03                                             |.               |        write: true 0x1ca0.7-0x1ca1 (0.1)
0x1ca0|   00                                          | .              |        tls: false 0x1ca1-0x1ca1.1 (0.1)
0x1ca0|   00                                          | .              |        group: false 0x1ca1.1-0x1ca1.2 (0.1)
0x1ca0|   00                                          | .              |        os_nonconforming: false 0x1ca1.2-0x1ca1.3 (0.1)
0x1ca0|   00 00                                       | ..             |        unused1: 0 0x1ca1.3-0x1ca2.4 (1.1)
0x1ca0|      00 00                                    |  ..            |        os_specific: 0 0x1ca2.4-0x1ca3.4 (1)
0x1ca0|         00                                    |   .            |        processor_specific: 0 0x1ca3.4-0x1ca4 (0.4)
0x1ca0|            00 10 01 00                        |    ....        |      addr: 0x11000 0x1ca4-0x1ca8 (4)
0x1ca0|                        00 10 00 00            |        ....    |      offset: 4096 0x1ca8-0x1cac (4)
0x1ca0|                                    04 00 00 00|            ....|      size: 0x4 0x1cac-0x1cb0 (4)
0x1cb0|00 00 00 00                                    |....            |      link: 0 0x1cb0-0x1cb4 (4)
0x1cb0|            00 00 00 00                        |    ....        |      info: 0 0x1cb4-0x1cb8 (4)
0x1cb0|                        04 00 00 00            |        ....    |      addralign: 4 0x1cb8-0x1cbc (4)
0x1cb0|                                    00 00 00 00|            ....|      entsize: 0 0x1cbc-0x1cc0 (4)
      |                                               |                |    [17]{}: section_header 0x1cc0-0x1ce8 (40)
0x1cc0|97 00 00 00                                    |....            |      name: ".bss" (151) 0x1cc0-0x1cc4 (4)
0x1cc0|            08 00 00 00                        |    ....        |      type: "nobits" (0x8) (No space in the file) 0x1cc4-0x1cc8 (4)
      |                                               |                |      flags{}: 0x1cc8-0x1ccc (4)
0x1cc0|                        03                     |        .       |        link_order: false 0x1cc8-0x1cc8.1 (0.1)
0x1cc0|                        03                     |        .       |        info_link: false 0x1cc8.1-0x1cc8.2 (0.1)
0x1cc0|                        03                     |        .       |        strings: false 0x1cc8.2-0x1cc8.3 (0.1)
0x1cc0|                        03                     |        .       |        merge: false 0x1cc8.3-0x1cc8.4 (0.1)
0x1cc0|                        03                     |        .       |        unused0: 0 0x1cc8.4-0x1cc8.5 (0.1)
0x1cc0|                        03                     |        .       |        execinstr: false 0x1cc8.5-0x1cc8.6 (0.1)
0x1cc0|                        03                     |        .       |        alloc: true 0x1cc8.6-0x1cc8.7 (0.1)
0x1cc0|                        03                     |        .       |        write: true 0x1cc8.7-0x1cc9 (0.1)
0x1cc0|                           00                  |         .      |        tls: false 0x1cc9-0x1cc9.1 (0.1)
0x1cc0|                           00                  |         .      |        group: false 0x1cc9.1-0x1cc9.2 (0.1)
0x1cc0|                           00                  |         .      |        os_nonconforming: false 0x1cc9.2-0x1cc9.3 (0.1)
0x1cc0|                           00 00               |         ..     |        unused1: 0 0x1cc9.3-0x1cca.4 (1.1)
0x1cc0|                              00 00            |          ..    |        os_specific: 0 0x1cca.4-0x1ccb.4 (1)
0x1cc0|                                 00            |           .    |        processor_specific: 0 0x1ccb.4-0x1ccc (0.4)
0x1cc0|                                    04 10 01 00|            ....|      addr: 0x11004 0x1ccc-0x1cd0 (4)
0x1cd0|04 10 00 00                                    |....            |      offset: 4100 0x1cd0-0x1cd4 (4)
0x1cd0|            1c 00 00 00                        |    ....        |      size: 0x1c 0x1cd4-0x1cd8 (4)
0x1cd0|                        00 00 00 00            |        ....    |      link: 0 0x1cd8-0x1cdc (4)
0x1cd0|                                    00 00 00 00|            ....|      info: 0 0x1cdc-0x1ce0 (4)
0x1ce0|04 00 00 00                                    |....            |      addralign: 4 0x1ce0-0x1ce4 (4)
0x1ce0|            00 00 00 00                        |    ....        |      entsize: 0 0x1ce4-0x1ce8 (4)
      |                                               |                |    [18]{}: section_header 0x1004-0x1d10 (3340)
0x1000|            47 43 43 3a 20 28 41 6c 70 69 6e 65|    GCC: (Alpine|      data: raw bits 0x1004-0x1035 (49)
0x1010|20 31 30 2e 33 2e 31 5f 67 69 74 32 30 32 31 31| 10.3.1_git20211|
*     |until 0x1034.7 (49)                            |                |
0x1ce0|                        9c 00 00 00            |        ....    |      name: ".comment" (156) 0x1ce8-0x1cec (4)
0x1ce0|                                    01 00 00 00|            ....|      type: "progbits" (0x1) (Information defined by the program) 0x1cec-0x1cf0 (4)
      |                                               |                |      flags{}: 0x1cf0-0x1cf4 (4)
0x1cf0|30                                             |0               |        link_order: false 0x1cf0-0x1cf0.1 (0.1)
0x1cf0|30                                             |0               |        info_link: false 0x1cf0.1-0x1cf0.2 (0.1)
0x1cf0|30                                             |0               |        strings: true 0x1cf0.2-0x1cf0.3 (0.1)
0x1cf0|30                                             |0               |        merge: true 0x1cf0.3-0x1cf0.4 (0.1)
0x1cf0|30                                             |0               |        unused0: 0 0x1cf0.4-0x1cf0.5 (0.1)
0x1cf0|30                                             |0               |        execinstr: false 0x1cf0.5-0x1cf0.6 (0.1)
0x1cf0|30                                             |0               |        alloc: false 0x1cf0.6-0x1cf0.7 (0.1)
0x1cf0|30                                             |0               |        write: false 0x1cf0.7-0x1cf1 (0.1)
0x1cf0|   00                                          | .              |        tls: false 0x1cf1-0x1cf1.1 (0.1)
0x1cf0|   00                                          | .              |        group: false 0x1cf1.1-0x1cf1.2 (0.1)
0x1cf0|   00                                          | .              |        os_nonconforming: false 0x1cf1.2-0x1cf1.3 (0.1)
0x1cf0|   00 00                                       | ..             |        unused1: 0 0x1cf1.3-0x1cf2.4 (1.1)
0x1cf0|      00 00                                    |  ..            |        os_specific: 0 0x1cf2.4-0x1cf3.4 (1)
0x1cf0|         00                                    |   .            |        processor_specific: 0 0x1cf3.4-0x1cf4 (0.4)
0x1cf0|            00 00 00 00                        |    ....        |      addr: 0x0 0x1cf4-0x1cf8 (4)
0x1cf0|                        04 10 00 00            |        ....    |      offset: 4100 0x1cf8-0x1cfc (4)
0x1cf0|                                    31 00 00 00|            1...|      size: 0x31 0x1cfc-0x1d00 (4)
0x1d00|00 00 00 00                                    |....            |      link: 0 0x1d00-0x1d04 (4)
0x1d00|            00 00 00 00                        |    ....        |      info: 0 0x1d04-0x1d08 (4)
0x1d00|                        01 00 00 00            |        ....    |      addralign: 1 0x1d08-0x1d0c (4)
0x1d00|                                    01 00 00 00|            ....|      entsize: 1 0x1d0c-0x1d10 (4)
      |                                               |                |    [19]{}: section_header 0x1035-0x1d38 (3331)
0x1030|               41 2e 00 00 00 61 65 61 62 69 00|     A....aeabi.|      data: raw bits 0x1035-0x1064 (47)
0x1040|01 24 00 00 00 05 36 5a 4b 00 06 07 08 01 09 01|.$....6ZK.......|
*     |until 0x1063.7 (47)                            |                |
0x1d10|a5 00 00 00                                    |....            |      name: ".ARM.attributes" (165) 0x1d10-0x1d14 (4)
0x1d10|            03 00 00 70                        |    ...p        |      type: 0x70000003 0x1d14-0x1d18 (4)
      |                                               |                |      flags{}: 0x1d18-0x1d1c (4)
0x1d10|                        00                     |        .       |        link_order: false 0x1d18-0x1d18.1 (0.1)
0x1d10|                        00                     |        .       |        info_link: false 0x1d18.1-0x1d18.2 (0.1)
0x1d10|                        00                     |        .       |        strings: false 0x1d18.2-0x1d18.3 (0.1)
0x1d10|                        00                     |        .       |        merge: false 0x1d18.3-0x1d18.4 (0.1)
0x1d10|                        00                     |        .       |        unused0: 0 0x1d18.4-0x1d18.5 (0.1)
0x1d10|                        00                     |        .       |        execinstr: false 0x1d18.5-0x1d18.6 (0.1)
0x1d10|                        00                     |        .       |        alloc: false 0x1d18.6-0x1d18.7 (0.1)
0x1d10|                        00                     |        .       |        write: false 0x1d18.7-0x1d19 (0.1)
0x1d10|                           00                  |         .      |        tls: false 0x1d19-0x1d19.1 (0.1)
0x1d10|                           00                  |         .      |        group: false 0x1d19.1-0x1d19.2 (0.1)
0x1d10|                           00                  |         .      |        os_nonconforming: false 0x1d19.2-0x1d19.3 (0.1)
0x1d10|                           00 00               |         ..     |        unused1: 0 0x1d19.3-0x1d1a.4 (1.1)
0x1d10|                              00 00            |          ..    |        os_specific: 0 0x1d1a.4-0x1d1b.4 (1)
0x1d10|                                 00            |           .    |        processor_specific: 0 0x1d1b.4-0x1d1c (0.4)
0x1d10|                                    00 00 00 00|            ....|      addr: 0x0 0x1d1c-0x1d20 (4)
0x1d20|35 10 00 00                                    |5...            |      offset: 4149 0x1d20-0x1d24 (4)
0x1d20|            2f 00 00 00                        |    /...        |      size: 0x2f 0x1d24-0x1d28 (4)
0x1d20|                        00 00 00 00            |        ....    |      link: 0 0x1d28-0x1d2c (4)
0x1d20|                                    00 00 00 00|            ....|      info: 0 0x1d2c-0x1d30 (4)
0x1d30|01 00 00 00                                    |....            |      addralign: 1 0x1d30-0x1d34 (4)
0x1d30|            00 00 00 00                        |    ....        |      entsize: 0 0x1d34-0x1d38 (4)
      |                                               |                |    [20]{}: section_header 0x1068-0x1d60 (3320)
0x1060|                        24 00 00 00 02 00 00 00|        $.......|      data: raw bits 0x1068-0x10b8 (80)
0x1070|00 00 04 00 00 00 00 00 c8 02 00 00 04 00 00 00|................|
*     |until 0x10b7.7 (80)                            |                |
0x1d30|                        b5 00 00 00            |        ....    |      name: ".debug_aranges" (181) 0x1d38-0x1d3c (4)
0x1d30|                                    01 00 00 00|            ....|      type: "progbits" (0x1) (Information defined by the program) 0x1d3c-0x1d40 (4)
      |                                               |                |      flags{}: 0x1d40-0x1d44 (4)
0x1d40|00                                             |.               |        link_order: false 0x1d40-0x1d40.1 (0.1)
0x1d40|00                                             |.               |        info_link: false 0x1d40.1-0x1d40.2 (0.1)
0x1d40|00                                             |.               |        strings: false 0x1d40.2-0x1d40.3 (0.1)
0x1d40|00                                             |.               |        merge: false 0x1d40.3-0x1d40.4 (0.1)
0x1d40|00                                             |.               |        unused0: 0 0x1d40.4-0x1d40.5 (0.1)
0x1d40|00                                             |.               |        execinstr: false 0x1d40.5-0x1d40.6 (0.1)
0x1d40|00                                             |.               |        alloc: false 0x1d40.6-0x1d40.7 (0.1)
0x1d40|00                                             |.               |        write: false 0x1d40.7-0x1d41 (0.1)
0x1d40|   00                                          | .              |        tls: false 0x1d41-0x1d41.1 (0.1)
0x1d40|   00                                          | .              |        group: false 0x1d41.1-0x1d41.2 (0.1)
0x1d40|   00                                          | .              |        os_nonconforming: false 0x1d41.2-0x1d41.3 (0.1)
0x1d40|   00 00                                       | ..             |        unused1: 0 0x1d41.3-0x1d42.4 (1.1)
0x1d40|      00 00                                    |  ..            |        os_specific: 0 0x1d42.4-0x1d43.4 (1)
0x1d40|         00                                    |   .            |        processor_specific: 0 0x1d43.4-0x1d44 (0.4)
0x1d40|            00 00 00 00                        |    ....        |      addr: 0x0 0x1d44-0x1d48 (4)
0x1d40|                        68 10 00 00            |        h...    |      offset: 4200 0x1d48-0x1d4c (4)
0x1d40|                                    50 00 00 00|            P...|      size: 0x50 0x1d4c-0x1d50 (4)
0x1d50|00 00 00 00                                    |....            |      link: 0 0x1d50-0x1d54 (4)
0x1d50|            00 00 00 00                        |    ....        |      info: 0 0x1d54-0x1d58 (4)
0x1d50|                        08 00 00 00            |        ....    |      addralign: 8 0x1d58-0x1d5c (4)
0x1d50|                                    00 00 00 00|            ....|      entsize: 0 0x1d5c-0x1d60 (4)
      |                                               |                |    [21]{}: section_header 0x10b8-0x1d88 (3280)
0x10b0|                        1e 00 00 00 02 00 00 00|        ........|      data: raw bits 0x10b8-0x10fc (68)
0x10c0|00 00 04 01 00 00 00 00 00 00 00 00 00 00 00 00|................|
*     |until 0x10fb.7 (68)                            |                |
0x1d60|c4 00 00 00                                    |....            |      name: ".debug_info" (196) 0x1d60-0x1d64 (4)
0x1d60|            01 00 00 00                        |    ....        |      type: "progbits" (0x1) (Information defined by the program) 0x1d64-0x1d68 (4)
      |                                               |                |      flags{}: 0x1d68-0x1d6c (4)
0x1d60|                        00                     |        .       |        link_order: false 0x1d68-0x1d68.1 (0.1)
0x1d60|                        00                     |        .       |        info_link: false 0x1d68.1-0x1d68.2 (0.1)
0x1d60|                        00                     |        .       |        strings: false 0x1d68.2-0x1d68.3 (0.1)
0x1d60|                        00                     |        .       |        merge: false 0x1d68.3-0x1d68.4 (0.1)
0x1d60|                        00                     |        .       |        unused0: 0 0x1d68.4-0x1d68.5 (0.1)
0x1d60|                        00                     |        .       |        execinstr: false 0x1d68.5-0x1d68.6 (0.1)
0x1d60|                        00                     |        .       |        alloc: false 0x1d68.6-0x1d68.7 (0.1)
0x1d60|                        00                     |        .       |        write: false 0x1d68.7-0x1d69 (0.1)
0x1d60|                           00                  |         .      |        tls: false 0x1d69-0x1d69.1 (0.1)
0x1d60|                           00                  |         .      |        group: false 0x1d69.1-0x1d69.2 (0.1)
0x1d60|                           00                  |         .      |        os_nonconforming: false 0x1d69.2-0x1d69.3 (0.1)
0x1d60|                           00 00               |         ..     |        unused1: 0 0x1d69.3-0x1d6a.4 (1.1)
0x1d60|                              00 00            |          ..    |        os_specific: 0 0x1d6a.4-0x1d6b.4 (1)
0x1d60|                                 00            |           .    |        processor_specific: 0 0x1d6b.4-0x1d6c (0.4)
0x1d60|                                    00 00 00 00|            ....|      addr: 0x0 0x1d6c-0x1d70 (4)
0x1d70|b8 10 00 00                                    |....            |      offset: 4280 0x1d70-0x1d74 (4)
0x1d70|            44 00 00 00                        |    D...        |      size: 0x44 0x1d74-0x1d78 (4)
0x1d70|                        00 00 00 00            |        ....    |      link: 0 0x1d78-0x1d7c (4)
0x1d70|                                    00 00 00 00|            ....|      info: 0 0x1d7c-0x1d80 (4)
0x1d80|01 00 00 00                                    |....            |      addralign: 1 0x1d80-0x1d84 (4)
0x1d80|            00 00 00 00                        |    ....        |      entsize: 0 0x1d84-0x1d88 (4)
      |                                               |                |    [22]{}: section_header 0x10fc-0x1db0 (3252)
0x10f0|                                    01 11 00 10|            ....|      data: raw bits 0x10fc-0x1120 (36)
0x1100|06 55 06 03 0e 1b 0e 25 0e 13 05 00 00 00 01 11|.U.....%........|
0x1110|00 10 06 55 06 03 0e 1b 0e 25 0e 13 05 00 00 00|...U.....%......|
0x1d80|                        d0 00 00 00            |        ....    |      name: ".debug_abbrev" (208) 0x1d88-0x1d8c (4)
0x1d80|                                    01 00 00 00|            ....|      type: "progbits" (0x1) (Information defined by the program) 0x1d8c-0x1d90 (4)
      |                                               |                |      flags{}: 0x1d90-0x1d94 (4)
0x1d90|00                                             |.               |        link_order: false 0x1d90-0x1d90.1 (0.1)
0x1d90|00                                             |.               |        info_link: false 0x1d90.1-0x1d90.2 (0.1)
0x1d90|00                                             |.               |        strings: false 0x1d90.2-0x1d90.3 (0.1)
0x1d90|00                                             |.               |        merge: false 0x1d90.3-0x1d90.4 (0.1)
0x1d90|00                                             |.               |        unused0: 0 0x1d90.4-0x1d90.5 (0.1)
0x1d90|00                                             |.               |        execinstr: false 0x1d90.5-0x1d90.6 (0.1)
0x1d90|00                                             |.               |        alloc: false 0x1d90.6-0x1d90.7 (0.1)
0x1d90|00                                             |.               |        write: false 0x1d90.7-0x1d91 (0.1)
0x1d90|   00                                          | .              |        tls: false 0x1d91-0x1d91.1 (0.1)
0x1d90|   00                                          | .              |        group: false 0x1d91.1-0x1d91.2 (0.1)
0x1d90|   00                                          | .              |        os_nonconforming: false 0x1d91.2-0x1d91.3 (0.1)
0x1d90|   00 00                                       | ..             |        unused1: 0 0x1d91.3-0x1d92.4 (1.1)
0x1d90|      00 00                                    |  ..            |        os_specific: 0 0x1d92.4-0x1d93.4 (1)
0x1d90|         00                                    |   .            |        processor_specific: 0 0x1d93.4-0x1d94 (0.4)
0x1d90|            00 00 00 00                        |    ....        |      addr: 0x0 0x1d94-0x1d98 (4)
0x1d90|                        fc 10 00 00            |        ....    |      offset: 4348 0x1d98-0x1d9c (4)
0x1d90|                                    24 00 00 00|            $...|      size: 0x24 0x1d9c-0x1da0 (4)
0x1da0|00 00 00 00                                    |....            |      link: 0 0x1da0-0x1da4 (4)
0x1da0|            00 00 00 00                        |    ....        |      info: 0 0x1da4-0x1da8 (4)
0x1da0|                        01 00 00 00            |        ....    |      addralign: 1 0x1da8-0x1dac (4)
0x1da0|                                    00 00 00 00|            ....|      entsize: 0 0x1dac-0x1db0 (4)
      |                                               |                |    [23]{}: section_header 0x1120-0x1dd8 (3256)
0x1120|47 00 00 00 03 00 25 00 00 00 02 01 fb 0e 0d 00|G.....%.........|      data: raw bits 0x1120-0x11b6 (150)
*     |until 0x11b5.7 (150)                           |                |
0x1db0|de 00 00 00                                    |....            |      name: ".debug_line" (222) 0x1db0-0x1db4 (4)
0x1db0|            01 00 00 00                        |    ....        |      type: "progbits" (0x1) (Information defined by the program) 0x1db4-0x1db8 (4)
      |                                               |                |      flags{}: 0x1db8-0x1dbc (4)
0x1db0|                        00                     |        .       |        link_order: false 0x1db8-0x1db8.1 (0.1)
0x1db0|                        00                     |        .       |        info_link: false 0x1db8.1-0x1db8.2 (0.1)
0x1db0|                        00                     |        .       |        strings: false 0x1db8.2-0x1db8.3 (0.1)
0x1db0|                        00                     |        .       |        merge: false 0x1db8.3-0x1db8.4 (0.1)
0x1db0|                        00                     |        .       |        unused0: 0 0x1db8.4-0x1db8.5 (0.1)
0x1db0|                        00                     |        .       |        execinstr: false 0x1db8.5-0x1db8.6 (0.1)
0x1db0|                        00                     |        .       |        alloc: false 0x1db8.6-0x1db8.7 (0.1)
0x1db0|                        00                     |        .       |        write: false 0x1db8.7-0x1db9 (0.1)
0x1db0|                           00                  |         .      |        tls: false 0x1db9-0x1db9.1 (0.1)
0x1db0|                           00                  |         .      |        group: false 0x1db9.1-0x1db9.2 (0.1)
0x1db0|                           00                  |         .      |        os_nonconforming: false 0x1db9.2-0x1db9.3 (0.1)
0x1db0|                           00 00               |         ..     |        unused1: 0 0x1db9.3-0x1dba.4 (1.1)
0x1db0|                              00 00            |          ..    |        os_specific: 0 0x1dba.4-0x1dbb.4 (1)
0x1db0|                                 00            |           .    |        processor_specific: 0 0x1dbb.4-0x1dbc (0.4)
0x1db0|                                    00 00 00 00|            ....|      addr: 0x0 0x1dbc-0x1dc0 (4)
0x1dc0|20 11 00 00                                    | ...            |      offset: 4384 0x1dc0-0x1dc4 (4)
0x1dc0|            96 00 00 00                        |    ....        |      size: 0x96 0x1dc4-0x1dc8 (4)
0x1dc0|                        00 00 00 00            |        ....    |      link: 0 0x1dc8-0x1dcc (4)
0x1dc0|                                    00 00 00 00|            ....|      info: 0 0x1dcc-0x1dd0 (4)
0x1dd0|01 00 00 00                                    |....            |      addralign: 1 0x1dd0-0x1dd4 (4)
0x1dd0|            00 00 00 00                        |    ....        |      entsize: 0 0x1dd4-0x1dd8 (4)
      |                                               |                |    [24]{}: section_header 0x11b6-0x1e00 (3146)
0x11b0|                  63 72 74 2f 61 72 6d 2f 63 72|      crt/arm/cr|      data: raw bits 0x11b6-0x120c (86)
0x11c0|74 69 2e 73 00 2f 68 6f 6d 65 2f 62 75 69 6c 64|ti.s./home/build|
*     |until 0x120b.7 (86)                            |                |
0x1dd0|                        ea 00 00 00            |        ....    |      name: ".debug_str" (234) 0x1dd8-0x1ddc (4)
0x1dd0|                                    01 00 00 00|            ....|      type: "progbits" (0x1) (Information defined by the program) 0x1ddc-0x1de0 (4)
      |                                               |                |      flags{}: 0x1de0-0x1de4 (4)
0x1de0|30                                             |0               |        link_order: false 0x1de0-0x1de0.1 (0.1)
0x1de0|30                                             |0               |        info_link: false 0x1de0.1-0x1de0.2 (0.1)
0x1de0|30                                             |0               |        strings: true 0x1de0.2-0x1de0.3 (0.1)
0x1de0|30                                             |0               |        merge: true 0x1de0.3-0x1de0.4 (0.1)
0x1de0|30                                             |0               |        unused0: 0 0x1de0.4-0x1de0.5 (0.1)
0x1de0|30                                             |0               |        execinstr: false 0x1de0.5-0x1de0.6 (0.1)
0x1de0|30                                             |0               |        alloc: false 0x1de0.6-0x1de0.7 (0.1)
0x1de0|30                                             |0               |        write: false 0x1de0.7-0x1de1 (0.1)
0x1de0|   00                                          | .              |        tls: false 0x1de1-0x1de1.1 (0.1)
0x1de0|   00                                          | .              |        group: false 0x1de1.1-0x1de1.2 (0.1)
0x1de0|   00                                          | .              |        os_nonconforming: false 0x1de1.2-0x1de1.3 (0.1)
0x1de0|   00 00                                       | ..             |        unused1: 0 0x1de1.3-0x1de2.4 (1.1)
0x1de0|      00 00                                    |  ..            |        os_specific: 0 0x1de2.4-0x1de3.4 (1)
0x1de0|         00                                    |   .            |        processor_specific: 0 0x1de3.4-0x1de4 (0.4)
0x1de0|            00 00 00 00                        |    ....        |      addr: 0x0 0x1de4-0x1de8 (4)
0x1de0|                        b6 11 00 00            |        ....    |      offset: 4534 0x1de8-0x1dec (4)
0x1de0|                                    56 00 00 00|            V...|      size: 0x56 0x1dec-0x1df0 (4)
0x1df0|00 00 00 00                                    |....            |      link: 0 0x1df0-0x1df4 (4)
0x1df0|            00 00 00 00                        |    ....        |      info: 0 0x1df4-0x1df8 (4)
0x1df0|                        01 00 00 00            |        ....    |      addralign: 1 0x1df8-0x1dfc (4)
0x1df0|                                    01 00 00 00|            ....|      entsize: 1 0x1dfc-0x1e00 (4)
      |                                               |                |    [25]{}: section_header 0x1210-0x1e28 (3096)
0x1210|ff ff ff ff 00 00 00 00 c8 02 00 00 cc 02 00 00|................|      data: raw bits 0x1210-0x1250 (64)
*     |until 0x124f.7 (64)                            |                |
0x1e00|f5 00 00 00                                    |....            |      name: ".debug_ranges" (245) 0x1e00-0x1e04 (4)
0x1e00|            01 00 00 00                        |    ....        |      type: "progbits" (0x1) (Information defined by the program) 0x1e04-0x1e08 (4)
      |                                               |                |      flags{}: 0x1e08-0x1e0c (4)
0x1e00|                        00                     |        .       |        link_order: false 0x1e08-0x1e08.1 (0.1)
0x1e00|                        00                     |        .       |        info_link: false 0x1e08.1-0x1e08.2 (0.1)
0x1e00|                        00                     |        .       |        strings: false 0x1e08.2-0x1e08.3 (0.1)
0x1e00|                        00                     |        .       |        merge: false 0x1e08.3-0x1e08.4 (0.1)
0x1e00|                        00                     |        .       |        unused0: 0 0x1e08.4-0x1e08.5 (0.1)
0x1e00|                        00                     |        .       |        execinstr: false 0x1e08.5-0x1e08.6 (0.1)
0x1e00|                        00                     |        .       |        alloc: false 0x1e08.6-0x1e08.7 (0.1)
0x1e00|                        00                     |        .       |        write: false 0x1e08.7-0x1e09 (0.1)
0x1e00|                           00                  |         .      |        tls: false 0x1e09-0x1e09.1 (0.1)
0x1e00|                           00                  |         .      |        group: false 0x1e09.1-0x1e09.2 (0.1)
0x1e00|                           00                  |         .      |        os_nonconforming: false 0x1e09.2-0x1e09.3 (0.1)
0x1e00|                           00 00               |         ..     |        unused1: 0 0x1e09.3-0x1e0a.4 (1.1)
0x1e00|                              00 00            |          ..    |        os_specific: 0 0x1e0a.4-0x1e0b.4 (1)
0x1e00|                                 00            |           .    |        processor_specific: 0 0x1e0b.4-0x1e0c (0.4)
0x1e00|                                    00 00 00 00|            ....|      addr: 0x0 0x1e0c-0x1e10 (4)
0x1e10|10 12 00 00                                    |....            |      offset: 4624 0x1e10-0x1e14 (4)
0x1e10|            40 00 00 00                        |    @...        |      size: 0x40 0x1e14-0x1e18 (4)
0x1e10|                        00 00 00 00            |        ....    |      link: 0 0x1e18-0x1e1c (4)
0x1e10|                                    00 00 00 00|            ....|      info: 0 0x1e1c-0x1e20 (4)
0x1e20|08 00 00 00                                    |....            |      addralign: 8 0x1e20-0x1e24 (4)
0x1e20|            00 00 00 00                        |    ....        |      entsize: 0 0x1e24-0x1e28 (4)
      |                                               |                |    [26]{}: section_header 0x1250-0x1e50 (3072)
      |                                               |                |      symbol_table[0:82]: 0x1250-0x1770 (1312)
      |                                               |                |        [0]{}: symbol 0x1250-0x1260 (16)
0x1250|00 00 00 00                                    |....            |          name: "" (0) 0x1250-0x1254 (4)
0x1250|            00 00 00 00                        |    ....        |          value: 0 0x1254-0x1258 (4)
0x1250|                        00 00 00 00            |        ....    |          size: 0 0x1258-0x125c (4)
0x1250|                                    00         |            .   |          bind: "local" (0) 0x125c-0x125c.4 (0.4)
0x1250|                                    00         |            .   |          type: "notype" (0) 0x125c.4-0x125d (0.4)
0x1250|                                       00      |             .  |          other_unused: 0 0x125d-0x125d.6 (0.6)
0x1250|                                       00      |             .  |          visibility: "default" (0) 0x125d.6-0x125e (0.2)
0x1250|                                          00 00|              ..|          shndx: 0 0x125e-0x1260 (2)
      |                                               |                |        [1]{}: symbol 0x1260-0x1270 (16)
0x1260|00 00 00 00                                    |....            |          name: "" (0) 0x1260-0x1264 (4)
0x1260|            d4 00 00 00                        |    ....        |          value: 212 0x1264-0x1268 (4)
0x1260|                        00 00 00 00            |        ....    |          size: 0 0x1268-0x126c (4)
0x1260|                                    03         |            .   |          bind: "local" (0) 0x126c-0x126c.4 (0.4)
0x1260|                                    03         |            .   |          type: "section" (3) 0x126c.4-0x126d (0.4)
0x1260|                                       00      |             .  |          other_unused: 0 0x126d-0x126d.6 (0.6)
0x1260|                                       00      |             .  |          visibility: "default" (0) 0x126d.6-0x126e (0.2)
0x1260|                                          01 00|              ..|          shndx: 1 0x126e-0x1270 (2)
      |                                               |                |        [2]{}: symbol 0x1270-0x1280 (16)
0x1270|00 00 00 00                                    |....            |          name: "" (0) 0x1270-0x1274 (4)
0x1270|            00 01 00 00                        |    ....        |          value: 256 0x1274-0x1278 (4)
0x1270|                        00 00 00 00            |        ....    |          size: 0 0x1278-0x127c (4)
0x1270|                                    03         |            .   |          bind: "local" (0) 0x127c-0x127c.4 (0.4)
0x1270|                                    03         |            .   |          type: "section" (3) 0x127c.4-0x127d (0.4)
0x1270|                                       00      |             .  |          other_unused: 0 0x127d-0x127d.6 (0.6)
0x1270|                                       00      |             .  |          visibility: "default" (0) 0x127d.6-0x127e (0.2)
0x1270|                                          02 00|              ..|          shndx: 2 0x127e-0x1280 (2)
      |                                               |                |        [3]{}: symbol 0x1280-0x1290 (16)
0x1280|00 00 00 00                                    |....            |          name: "" (0) 0x1280-0x1284 (4)
0x1280|            c0 01 00 00                        |    ....        |          value: 448 0x1284-0x1288 (4)
0x1280|                        00 00 00 00            |        ....    |          size: 0 0x1288-0x128c (4)
0x1280|                                    03         |            .   |          bind: "local" (0) 0x128c-0x128c.4 (0.4)
0x1280|                                    03         |            .   |          type: "section" (3) 0x128c.4-0x128d (0.4)
0x1280|                                       00      |             .  |          other_unused: 0 0x128d-0x128d.6 (0.6)
0x1280|                                       00      |             .  |          visibility: "default" (0) 0x128d.6-0x128e (0.2)
0x1280|                                          03 00|              ..|          shndx: 3 0x128e-0x1290 (2)
      |                                               |                |        [4]{}: symbol 0x1290-0x12a0 (16)
0x1290|00 00 00 00                                    |....            |          name: "" (0) 0x1290-0x1294 (4)
0x1290|            68 02 00 00                        |    h...        |          value: 616 0x1294-0x1298 (4)
0x1290|                        00 00 00 00            |        ....    |          size: 0 0x1298-0x129c (4)
0x1290|                                    03         |            .   |          bind: "local" (0) 0x129c-0x129c.4 (0.4)
0x1290|                                    03         |            .   |          type: "section" (3) 0x129c.4-0x129d (0.4)
0x1290|                                       00      |             .  |          other_unused: 0 0x129d-0x129d.6 (0.6)
0x1290|                                       00      |             .  |          visibility: "default" (0) 0x129d.6-0x129e (0.2)
0x1290|                                          04 00|              ..|          shndx: 4 0x129e-0x12a0 (2)
      |                                               |                |        [5]{}: symbol 0x12a0-0x12b0 (16)
0x12a0|00 00 00 00                                    |....            |          name: "" (0) 0x12a0-0x12a4 (4)
0x12a0|            a8 02 00 00                        |    ....        |          value: 680 0x12a4-0x12a8 (4)
0x12a0|                        00 00 00 00            |        ....    |          size: 0 0x12a8-0x12ac (4)
0x12a0|                                    03         |            .   |          bind: "local" (0) 0x12ac-0x12ac.4 (0.4)
0x12a0|                                    03         |            .   |          type: "section" (3) 0x12ac.4-0x12ad (0.4)
0x12a0|                                       00      |             .  |          other_unused: 0 0x12ad-0x12ad.6 (0.6)
0x12a0|                                       00      |             .  |          visibility: "default" (0) 0x12ad.6-0x12ae (0.2)
0x12a0|                                          05 00|              ..|          shndx: 5 0x12ae-0x12b0 (2)
      |                                               |                |        [6]{}: symbol 0x12b0-0x12c0 (16)
0x12b0|00 00 00 00                                    |....            |          name: "" (0) 0x12b0-0x12b4 (4)
0x12b0|            c8 02 00 00                        |    ....        |          value: 712 0x12b4-0x12b8 (4)
0x12b0|                        00 00 00 00            |        ....    |          size: 0 0x12b8-0x12bc (4)
0x12b0|                                    03         |            .   |          bind: "local" (0) 0x12bc-0x12bc.4 (0.4)
0x12b0|                                    03         |            .   |          type: "section" (3) 0x12bc.4-0x12bd (0.4)
0x12b0|                                       00      |             .  |          other_unused: 0 0x12bd-0x12bd.6 (0.6)
0x12b0|                                       00      |             .  |          visibility: "default" (0) 0x12bd.6-0x12be (0.2)
0x12b0|                                          06 00|              ..|          shndx: 6 0x12be-0x12c0 (2)
      |                                               |                |        [7]{}: symbol 0x12c0-0x12d0 (16)
0x12c0|00 00 00 00                                    |....            |          name: "" (0) 0x12c0-0x12c4 (4)
0x12c0|            d4 02 00 00                        |    ....        |          value: 724 0x12c4-0x12c8 (4)
0x12c0|                        00 00 00 00            |        ....    |          size: 0 0x12c8-0x12cc (4)
0x12c0|                                    03         |            .   |          bind: "local" (0) 0x12cc-0x12cc.4 (0.4)
0x12c0|                                    03         |            .   |          type: "section" (3) 0x12cc.4-0x12cd (0.4)
0x12c0|                                       00      |             .  |          other_unused: 0 0x12cd-0x12cd.6 (0.6)
0x12c0|                                       00      |             .  |          visibility: "default" (0) 0x12cd.6-0x12ce (0.2)
0x12c0|                                          07 00|              ..|          shndx: 7 0x12ce-0x12d0 (2)
      |                                               |                |        [8]{}: symbol 0x12d0-0x12e0 (16)
0x12d0|00 00 00 00                                    |....            |          name: "" (0) 0x12d0-0x12d4 (4)
0x12d0|            18 03 00 00                        |    ....        |          value: 792 0x12d4-0x12d8 (4)
0x12d0|                        00 00 00 00            |        ....    |          size: 0 0x12d8-0x12dc (4)
0x12d0|                                    03         |            .   |          bind: "local" (0) 0x12dc-0x12dc.4 (0.4)
0x12d0|                                    03         |            .   |          type: "section" (3) 0x12dc.4-0x12dd (0.4)
0x12d0|                                       00      |             .  |          other_unused: 0 0x12dd-0x12dd.6 (0.6)
0x12d0|                                       00      |             .  |          visibility: "default" (0) 0x12dd.6-0x12de (0.2)
0x12d0|                                          08 00|              ..|          shndx: 8 0x12de-0x12e0 (2)
      |                                               |                |        [9]{}: symbol 0x12e0-0x12f0 (16)
0x12e0|00 00 00 00                                    |....            |          name: "" (0) 0x12e0-0x12e4 (4)
0x12e0|            a8 04 00 00                        |    ....        |          value: 1192 0x12e4-0x12e8 (4)
0x12e0|                        00 00 00 00            |        ....    |          size: 0 0x12e8-0x12ec (4)
0x12e0|                                    03         |            .   |          bind: "local" (0) 0x12ec-0x12ec.4 (0.4)
0x12e0|                                    03         |            .   |          type: "section" (3) 0x12ec.4-0x12ed (0.4)
0x12e0|                                       00      |             .  |          other_unused: 0 0x12ed-0x12ed.6 (0.6)
0x12e0|                                       00      |             .  |          visibility: "default" (0) 0x12ed.6-0x12ee (0.2)
0x12e0|                                          09 00|              ..|          shndx: 9 0x12ee-0x12f0 (2)
      |                                               |                |        [10]{}: symbol 0x12f0-0x1300 (16)
0x12f0|00 00 00 00                                    |....            |          name: "" (0) 0x12f0-0x12f4 (4)
0x12f0|            b4 04 00 00                        |    ....        |          value: 1204 0x12f4-0x12f8 (4)
0x12f0|                        00 00 00 00            |        ....    |          size: 0 0x12f8-0x12fc (4)
0x12f0|                                    03         |            .   |          bind: "local" (0) 0x12fc-0x12fc.4 (0.4)
0x12f0|                                    03         |            .   |          type: "section" (3) 0x12fc.4-0x12fd (0.4)
0x12f0|                                       00      |             .  |          other_unused: 0 0x12fd-0x12fd.6 (0.6)
0x12f0|                                       00      |             .  |          visibility: "default" (0) 0x12fd.6-0x12fe (0.2)
0x12f0|                                          0a 00|              ..|          shndx: 10 0x12fe-0x1300 (2)
      |                                               |                |        [11]{}: symbol 0x1300-0x1310 (16)
0x1300|00 00 00 00                                    |....            |          name: "" (0) 0x1300-0x1304 (4)
0x1300|            e0 05 00 00                        |    ....        |          value: 1504 0x1304-0x1308 (4)
0x1300|                        00 00 00 00            |        ....    |          size: 0 0x1308-0x130c (4)
0x1300|                                    03         |            .   |          bind: "local" (0) 0x130c-0x130c.4 (0.4)
0x1300|                                    03         |            .   |          type: "section" (3) 0x130c.4-0x130d (0.4)
0x1300|                                       00      |             .  |          other_unused: 0 0x130d-0x130d.6 (0.6)
0x1300|                                       00      |             .  |          visibility: "default" (0) 0x130d.6-0x130e (0.2)
0x1300|                                          0b 00|              ..|          shndx: 11 0x130e-0x1310 (2)
      |                                               |                |        [12]{}: symbol 0x1310-0x1320 (16)
0x1310|00 00 00 00                                    |....            |          name: "" (0) 0x1310-0x1314 (4)
0x1310|            f0 0e 01 00                        |    ....        |          value: 69360 0x1314-0x1318 (4)
0x1310|                        00 00 00 00            |        ....    |          size: 0 0x1318-0x131c (4)
0x1310|                                    03         |            .   |          bind: "local" (0) 0x131c-0x131c.4 (0.4)
0x1310|                                    03         |            .   |          type: "section" (3) 0x131c.4-0x131d (0.4)
0x1310|                                       00      |             .  |          other_unused: 0 0x131d-0x131d.6 (0.6)
0x1310|                                       00      |             .  |          visibility: "default" (0) 0x131d.6-0x131e (0.2)
0x1310|                                          0c 00|              ..|          shndx: 12 0x131e-0x1320 (2)
      |                                               |                |        [13]{}: symbol 0x1320-0x1330 (16)
0x1320|00 00 00 00                                    |....            |          name: "" (0) 0x1320-0x1324 (4)
0x1320|            f4 0e 01 00                        |    ....        |          value: 69364 0x1324-0x1328 (4)
0x1320|                        00 00 00 00            |        ....    |          size: 0 0x1328-0x132c (4)
0x1320|                                    03         |            .   |          bind: "local" (0) 0x132c-0x132c.4 (0.4)
0x1320|                                    03         |            .   |          type: "section" (3) 0x132c.4-0x132d (0.4)
0x1320|                                       00      |             .  |          other_unused: 0 0x132d-0x132d.6 (0.6)
0x1320|                                       00      |             .  |          visibility: "default" (0) 0x132d.6-0x132e (0.2)
0x1320|                                          0d 00|              ..|          shndx: 13 0x132e-0x1330 (2)
      |                                               |                |        [14]{}: symbol 0x1330-0x1340 (16)
0x1330|00 00 00 00                                    |....            |          name: "" (0) 0x1330-0x1334 (4)
0x1330|            f8 0e 01 00                        |    ....        |          value: 69368 0x1334-0x1338 (4)
0x1330|                        00 00 00 00            |        ....    |          size: 0 0x1338-0x133c (4)
0x1330|                                    03         |            .   |          bind: "local" (0) 0x133c-0x133c.4 (0.4)
0x1330|                                    03         |            .   |          type: "section" (3) 0x133c.4-0x133d (0.4)
0x1330|                                       00      |             .  |          other_unused: 0 0x133d-0x133d.6 (0.6)
0x1330|                                       00      |             .  |          visibility: "default" (0) 0x133d.6-0x133e (0.2)
0x1330|                                          0e 00|              ..|          shndx: 14 0x133e-0x1340 (2)
      |                                               |                |        [15]{}: symbol 0x1340-0x1350 (16)
0x1340|00 00 00 00                                    |....            |          name: "" (0) 0x1340-0x1344 (4)
0x1340|            d0 0f 01 00                        |    ....        |          value: 69584 0x1344-0x1348 (4)
0x1340|                        00 00 00 00            |        ....    |          size: 0 0x1348-0x134c (4)
0x1340|                                    03         |            .   |          bind: "local" (0) 0x134c-0x134c.4 (0.4)
0x1340|                                    03         |            .   |          type: "section" (3) 0x134c.4-0x134d (0.4)
0x1340|                                       00      |             .  |          other_unused: 0 0x134d-0x134d.6 (0.6)
0x1340|                                       00      |             .  |          visibility: "default" (0) 0x134d.6-0x134e (0.2)
0x1340|                                          0f 00|              ..|          shndx: 15 0x134e-0x1350 (2)
      |                                               |                |        [16]{}: symbol 0x1350-0x1360 (16)
0x1350|00 00 00 00                                    |....            |          name: "" (0) 0x1350-0x1354 (4)
0x1350|            00 10 01 00                        |    ....        |          value: 69632 0x1354-0x1358 (4)
0x1350|                        00 00 00 00            |        ....    |          size: 0 0x1358-0x135c (4)
0x1350|                                    03         |            .   |          bind: "local" (0) 0x135c-0x135c.4 (0.4)
0x1350|                                    03         |            .   |          type: "section" (3) 0x135c.4-0x135d (0.4)
0x1350|                                       00      |             .  |          other_unused: 0 0x135d-0x135d.6 (0.6)
0x1350|                                       00      |             .  |          visibility: "default" (0) 0x135d.6-0x135e (0.2)
0x1350|                                          10 00|              ..|          shndx: 16 0x135e-0x1360 (2)
      |                                               |                |        [17]{}: symbol 0x1360-0x1370 (16)
0x1360|00 00 00 00                                    |....            |          name: "" (0) 0x1360-0x1364 (4)
0x1360|            04 10 01 00                        |    ....        |          value: 69636 0x1364-0x1368 (4)
0x1360|                        00 00 00 00            |        ....    |          size: 0 0x1368-0x136c (4)
0x1360|                                    03         |            .   |          bind: "local" (0) 0x136c-0x136c.4 (0.4)
0x1360|                                    03         |            .   |          type: "section" (3) 0x136c.4-0x136d (0.4)
0x1360|                                       00      |             .  |          other_unused: 0 0x136d-0x136d.6 (0.6)
0x1360|                                       00      |             .  |          visibility: "default" (0) 0x136d.6-0x136e (0.2)
0x1360|                                          11 00|              ..|          shndx: 17 0x136e-0x1370 (2)
      |                                               |                |        [18]{}: symbol 0x1370-0x1380 (16)
0x1370|00 00 00 00                                    |....            |          name: "" (0) 0x1370-0x1374 (4)
0x1370|            00 00 00 00                        |    ....        |          value: 0 0x1374-0x1378 (4)
0x1370|                        00 00 00 00            |        ....    |          size: 0 0x1378-0x137c (4)
0x1370|                                    03         |            .   |          bind: "local" (0) 0x137c-0x137c.4 (0.4)
0x1370|                                    03         |            .   |          type: "section" (3) 0x137c.4-0x137d (0.4)
0x1370|                                       00      |             .  |          other_unused: 0 0x137d-0x137d.6 (0.6)
0x1370|                                       00      |             .  |          visibility: "default" (0) 0x137d.6-0x137e (0.2)
0x1370|                                          12 00|              ..|          shndx: 18 0x137e-0x1380 (2)
      |                                               |                |        [19]{}: symbol 0x1380-0x1390 (16)
0x1380|00 00 00 00                                    |....            |          name: "" (0) 0x1380-0x1384 (4)
0x1380|            00 00 00 00                        |    ....        |          value: 0 0x1384-0x1388 (4)
0x1380|                        00 00 00 00            |        ....    |          size: 0 0x1388-0x138c (4)
0x1380|                                    03         |            .   |          bind: "local" (0) 0x138c-0x138c.4 (0.4)
0x1380|                                    03         |            .   |          type: "section" (3) 0x138c.4-0x138d (0.4)
0x1380|                                       00      |             .  |          other_unused: 0 0x138d-0x138d.6 (0.6)
0x1380|                                       00      |             .  |          visibility: "default" (0) 0x138d.6-0x138e (0.2)
0x1380|                                          13 00|              ..|          shndx: 19 0x138e-0x1390 (2)
      |                                               |                |        [20]{}: symbol 0x1390-0x13a0 (16)
0x1390|00 00 00 00                                    |....            |          name: "" (0) 0x1390-0x1394 (4)
0x1390|            00 00 00 00                        |    ....        |          value: 0 0x1394-0x1398 (4)
0x1390|                        00 00 00 00            |        ....    |          size: 0 0x1398-0x139c (4)
0x1390|                                    03         |            .   |          bind: "local" (0) 0x139c-0x139c.4 (0.4)
0x1390|                                    03         |            .   |          type: "section" (3) 0x139c.4-0x139d (0.4)
0x1390|                                       00      |             .  |          other_unused: 0 0x139d-0x139d.6 (0.6)
0x1390|                                       00      |             .  |          visibility: "default" (0) 0x139d.6-0x139e (0.2)
0x1390|                                          14 00|              ..|          shndx: 20 0x139e-0x13a0 (2)
      |                                               |                |        [21]{}: symbol 0x13a0-0x13b0 (16)
0x13a0|00 00 00 00                                    |....            |          name: "" (0) 0x13a0-0x13a4 (4)
0x13a0|            00 00 00 00                        |    ....        |          value: 0 0x13a4-0x13a8 (4)
0x13a0|                        00 00 00 00            |        ....    |          size: 0 0x13a8-0x13ac (4)
0x13a0|                                    03         |            .   |          bind: "local" (0) 0x13ac-0x13ac.4 (0.4)
0x13a0|                                    03         |            .   |          type: "section" (3) 0x13ac.4-0x13ad (0.4)
0x13a0|                                       00      |             .  |          other_unused: 0 0x13ad-0x13ad.6 (0.6)
0x13a0|                                       00      |             .  |          visibility: "default" (0) 0x13ad.6-0x13ae (0.2)
0x13a0|                                          15 00|              ..|          shndx: 21 0x13ae-0x13b0 (2)
      |                                               |                |        [22]{}: symbol 0x13b0-0x13c0 (16)
0x13b0|00 00 00 00                                    |....            |          name: "" (0) 0x13b0-0x13b4 (4)
0x13b0|            00 00 00 00                        |    ....        |          value: 0 0x13b4-0x13b8 (4)
0x13b0|                        00 00 00 00            |        ....    |          size: 0 0x13b8-0x13bc (4)
0x13b0|                                    03         |            .   |          bind: "local" (0) 0x13bc-0x13bc.4 (0.4)
0x13b0|                                    03         |            .   |          type: "section" (3) 0x13bc.4-0x13bd (0.4)
0x13b0|                                       00      |             .  |          other_unused: 0 0x13bd-0x13bd.6 (0.6)
0x13b0|                                       00      |             .  |          visibility: "default" (0) 0x13bd.6-0x13be (0.2)
0x13b0|                                          16 00|              ..|          shndx: 22 0x13be-0x13c0 (2)
      |                                               |                |        [23]{}: symbol 0x13c0-0x13d0 (16)
0x13c0|00 00 00 00                                    |....            |          name: "" (0) 0x13c0-0x13c4 (4)
0x13c0|            00 00 00 00                        |    ....        |          value: 0 0x13c4-0x13c8 (4)
0x13c0|                        00 00 00 00            |        ....    |          size: 0 0x13c8-0x13cc (4)
0x13c0|                                    03         |            .   |          bind: "local" (0) 0x13cc-0x13cc.4 (0.4)
0x13c0|                                    03         |            .   |          type: "section" (3) 0x13cc.4-0x13cd (0.4)
0x13c0|                                       00      |             .  |          other_unused: 0 0x13cd-0x13cd.6 (0.6)
0x13c0|                                       00      |             .  |          visibility: "default" (0) 0x13cd.6-0x13ce (0.2)
0x13c0|                                          17 00|              ..|          shndx: 23 0x13ce-0x13d0 (2)
      |                                               |                |        [24]{}: symbol 0x13d0-0x13e0 (16)
0x13d0|00 00 00 00                                    |....            |          name: "" (0) 0x13d0-0x13d4 (4)
0x13d0|            00 00 00 00                        |    ....        |          value: 0 0x13d4-0x13d8 (4)
0x13d0|                        00 00 00 00            |        ....    |          size: 0 0x13d8-0x13dc (4)
0x13d0|                                    03         |            .   |          bind: "local" (0) 0x13dc-0x13dc.4 (0.4)
0x13d0|                                    03         |            .   |          type: "section" (3) 0x13dc.4-0x13dd (0.4)
0x13d0|                                       00      |             .  |          other_unused: 0 0x13dd-0x13dd.6 (0.6)
0x13d0|                                       00      |             .  |          visibility: "default" (0) 0x13dd.6-0x13de (0.2)
0x13d0|                                          18 00|              ..|          shndx: 24 0x13de-0x13e0 (2)
      |                                               |                |        [25]{}: symbol 0x13e0-0x13f0 (16)
0x13e0|00 00 00 00                                    |....            |          name: "" (0) 0x13e0-0x13e4 (4)
0x13e0|            00 00 00 00                        |    ....        |          value: 0 0x13e4-0x13e8 (4)
0x13e0|                        00 00 00 00            |        ....    |          size: 0 0x13e8-0x13ec (4)
0x13e0|                                    03         |            .   |          bind: "local" (0) 0x13ec-0x13ec.4 (0.4)
0x13e0|                                    03         |            .   |          type: "section" (3) 0x13ec.4-0x13ed (0.4)
0x13e0|                                       00      |             .  |          other_unused: 0 0x13ed-0x13ed.6 (0.6)
0x13e0|                                       00      |             .  |          visibility: "default" (0) 0x13ed.6-0x13ee (0.2)
0x13e0|                                          19 00|              ..|          shndx: 25 0x13ee-0x13f0 (2)
      |                                               |                |        [26]{}: symbol 0x13f0-0x1400 (16)
0x13f0|01 00 00 00                                    |....            |          name: "crti.o" (1) 0x13f0-0x13f4 (4)
0x13f0|            00 00 00 00                        |    ....        |          value: 0 0x13f4-0x13f8 (4)
0x13f0|                        00 00 00 00            |        ....    |          size: 0 0x13f8-0x13fc (4)
0x13f0|                                    04         |            .   |          bind: "local" (0) 0x13fc-0x13fc.4 (0.4)
0x13f0|                                    04         |            .   |          type: "file" (4) 0x13fc.4-0x13fd (0.4)
0x13f0|                                       00      |             .  |          other_unused: 0 0x13fd-0x13fd.6 (0.6)
0x13f0|                                       00      |             .  |          visibility: "default" (0) 0x13fd.6-0x13fe (0.2)
0x13f0|                                          f1 ff|              ..|          shndx: 65521 0x13fe-0x1400 (2)
      |                                               |                |        [27]{}: symbol 0x1400-0x1410 (16)
0x1400|08 00 00 00                                    |....            |          name: "$a" (8) 0x1400-0x1404 (4)
0x1400|            c8 02 00 00                        |    ....        |          value: 712 0x1404-0x1408 (4)
0x1400|                        00 00 00 00            |        ....    |          size: 0 0x1408-0x140c (4)
0x1400|                                    00         |            .   |          bind: "local" (0) 0x140c-0x140c.4 (0.4)
0x1400|                                    00         |            .   |          type: "notype" (0) 0x140c.4-0x140d (0.4)
0x1400|                                       00      |             .  |          other_unused: 0 0x140d-0x140d.6 (0.6)
0x1400|                                       00      |             .  |          visibility: "default" (0) 0x140d.6-0x140e (0.2)
0x1400|                                          06 00|              ..|          shndx: 6 0x140e-0x1410 (2)
      |                                               |                |        [28]{}: symbol 0x1410-0x1420 (16)
0x1410|08 00 00 00                                    |....            |          name: "$a" (8) 0x1410-0x1414 (4)
0x1410|            a8 04 00 00                        |    ....        |          value: 1192 0x1414-0x1418 (4)
0x1410|                        00 00 00 00            |        ....    |          size: 0 0x1418-0x141c (4)
0x1410|                                    00         |            .   |          bind: "local" (0) 0x141c-0x141c.4 (0.4)
0x1410|                                    00         |            .   |          type: "notype" (0) 0x141c.4-0x141d (0.4)
0x1410|                                       00      |             .  |          other_unused: 0 0x141d-0x141d.6 (0.6)
0x1410|                                       00      |             .  |          visibility: "default" (0) 0x141d.6-0x141e (0.2)
0x1410|                                          09 00|              ..|          shndx: 9 0x141e-0x1420 (2)
      |                                               |                |        [29]{}: symbol 0x1420-0x1430 (16)
0x1420|0b 00 00 00                                    |....            |          name: "crtn.o" (11) 0x1420-0x1424 (4)
0x1420|            00 00 00 00                        |    ....        |          value: 0 0x1424-0x1428 (4)
0x1420|                        00 00 00 00            |        ....    |          size: 0 0x1428-0x142c (4)
0x1420|                                    04         |            .   |          bind: "local" (0) 0x142c-0x142c.4 (0.4)
0x1420|                                    04         |            .   |          type: "file" (4) 0x142c.4-0x142d (0.4)
0x1420|                                       00      |             .  |          other_unused: 0 0x142d-0x142d.6 (0.6)
0x1420|                                       00      |             .  |          visibility: "default" (0) 0x142d.6-0x142e (0.2)
0x1420|                                          f1 ff|              ..|          shndx: 65521 0x142e-0x1430 (2)
      |                                               |                |        [30]{}: symbol 0x1430-0x1440 (16)
0x1430|08 00 00 00                                    |....            |          name: "$a" (8) 0x1430-0x1434 (4)
0x1430|            cc 02 00 00                        |    ....        |          value: 716 0x1434-0x1438 (4)
0x1430|                        00 00 00 00            |        ....    |          size: 0 0x1438-0x143c (4)
0x1430|                                    00         |            .   |          bind: "local" (0) 0x143c-0x143c.4 (0.4)
0x1430|                                    00         |            .   |          type: "notype" (0) 0x143c.4-0x143d (0.4)
0x1430|                                       00      |             .  |          other_unused: 0 0x143d-0x143d.6 (0.6)
0x1430|                                       00      |             .  |          visibility: "default" (0) 0x143d.6-0x143e (0.2)
0x1430|                                          06 00|              ..|          shndx: 6 0x143e-0x1440 (2)
      |                                               |                |        [31]{}: symbol 0x1440-0x1450 (16)
0x1440|08 00 00 00                                    |....            |          name: "$a" (8) 0x1440-0x1444 (4)
0x1440|            ac 04 00 00                        |    ....        |          value: 1196 0x1444-0x1448 (4)
0x1440|                        00 00 00 00            |        ....    |          size: 0 0x1448-0x144c (4)
0x1440|                                    00         |            .   |          bind: "local" (0) 0x144c-0x144c.4 (0.4)
0x1440|                                    00         |            .   |          type: "notype" (0) 0x144c.4-0x144d (0.4)
0x1440|                                       00      |             .  |          other_unused: 0 0x144d-0x144d.6 (0.6)
0x1440|                                       00      |             .  |          visibility: "default" (0) 0x144d.6-0x144e (0.2)
0x1440|                                          09 00|              ..|          shndx: 9 0x144e-0x1450 (2)
      |                                               |                |        [32]{}: symbol 0x1450-0x1460 (16)
0x1450|12 00 00 00                                    |....            |          name: "crtstuff.c" (18) 0x1450-0x1454 (4)
0x1450|            00 00 00 00                        |    ....        |          value: 0 0x1454-0x1458 (4)
0x1450|                        00 00 00 00            |        ....    |          size: 0 0x1458-0x145c (4)
0x1450|                                    04         |            .   |          bind: "local" (0) 0x145c-0x145c.4 (0.4)
0x1450|                                    04         |            .   |          type: "file" (4) 0x145c.4-0x145d (0.4)
0x1450|                                       00      |             .  |          other_unused: 0 0x145d-0x145d.6 (0.6)
0x1450|                                       00      |             .  |          visibility: "default" (0) 0x145d.6-0x145e (0.2)
0x1450|                                          f1 ff|              ..|          shndx: 65521 0x145e-0x1460 (2)
      |                                               |                |        [33]{}: symbol 0x1460-0x1470 (16)
0x1460|1d 00 00 00                                    |....            |          name: "$d" (29) 0x1460-0x1464 (4)
0x1460|            b4 04 00 00                        |    ....        |          value: 1204 0x1464-0x1468 (4)
0x1460|                        00 00 00 00            |        ....    |          size: 0 0x1468-0x146c (4)
0x1460|                                    00         |            .   |          bind: "local" (0) 0x146c-0x146c.4 (0.4)
0x1460|                                    00         |            .   |          type: "notype" (0) 0x146c.4-0x146d (0.4)
0x1460|                                       00      |             .  |          other_unused: 0 0x146d-0x146d.6 (0.6)
0x1460|                                       00      |             .  |          visibility: "default" (0) 0x146d.6-0x146e (0.2)
0x1460|                                          0a 00|              ..|          shndx: 10 0x146e-0x1470 (2)
      |                                               |                |        [34]{}: symbol 0x1470-0x1480 (16)
0x1470|20 00 00 00                                    | ...            |          name: "all_implied_fbits" (32) 0x1470-0x1474 (4)
0x1470|            b4 04 00 00                        |    ....        |          value: 1204 0x1474-0x1478 (4)
0x1470|                        00 00 00 00            |        ....    |          size: 0 0x1478-0x147c (4)
0x1470|                                    01         |            .   |          bind: "local" (0) 0x147c-0x147c.4 (0.4)
0x1470|                                    01         |            .   |          type: "object" (1) 0x147c.4-0x147d (0.4)
0x1470|                                       00      |             .  |          other_unused: 0 0x147d-0x147d.6 (0.6)
0x1470|                                       00      |             .  |          visibility: "default" (0) 0x147d.6-0x147e (0.2)
0x1470|                                          0a 00|              ..|          shndx: 10 0x147e-0x1480 (2)
      |                                               |                |        [35]{}: symbol 0x1480-0x1490 (16)
0x1480|00 00 00 00                                    |....            |          name: "" (0) 0x1480-0x1484 (4)
0x1480|            e0 05 00 00                        |    ....        |          value: 1504 0x1484-0x1488 (4)
0x1480|                        00 00 00 00            |        ....    |          size: 0 0x1488-0x148c (4)
0x1480|                                    01         |            .   |          bind: "local" (0) 0x148c-0x148c.4 (0.4)
0x1480|                                    01         |            .   |          type: "object" (1) 0x148c.4-0x148d (0.4)
0x1480|                                       00      |             .  |          other_unused: 0 0x148d-0x148d.6 (0.6)
0x1480|                                       00      |             .  |          visibility: "default" (0) 0x148d.6-0x148e (0.2)
0x1480|                                          0b 00|              ..|          shndx: 11 0x148e-0x1490 (2)
      |                                               |                |        [36]{}: symbol 0x1490-0x14a0 (16)
0x1490|08 00 00 00                                    |....            |          name: "$a" (8) 0x1490-0x1494 (4)
0x1490|            18 03 00 00                        |    ....        |          value: 792 0x1494-0x1498 (4)
0x1490|                        00 00 00 00            |        ....    |          size: 0 0x1498-0x149c (4)
0x1490|                                    00         |            .   |          bind: "local" (0) 0x149c-0x149c.4 (0.4)
0x1490|                                    00         |            .   |          type: "notype" (0) 0x149c.4-0x149d (0.4)
0x1490|                                       00      |             .  |          other_unused: 0 0x149d-0x149d.6 (0.6)
0x1490|                                       00      |             .  |          visibility: "default" (0) 0x149d.6-0x149e (0.2)
0x1490|                                          08 00|              ..|          shndx: 8 0x149e-0x14a0 (2)
      |                                               |                |        [37]{}: symbol 0x14a0-0x14b0 (16)
0x14a0|32 00 00 00                                    |2...            |          name: "deregister_tm_clones" (50) 0x14a0-0x14a4 (4)
0x14a0|            18 03 00 00                        |    ....        |          value: 792 0x14a4-0x14a8 (4)
0x14a0|                        00 00 00 00            |        ....    |          size: 0 0x14a8-0x14ac (4)
0x14a0|                                    02         |            .   |          bind: "local" (0) 0x14ac-0x14ac.4 (0.4)
0x14a0|                                    02         |            .   |          type: "func" (2) 0x14ac.4-0x14ad (0.4)
0x14a0|                                       00      |             .  |          other_unused: 0 0x14ad-0x14ad.6 (0.6)
0x14a0|                                       00      |             .  |          visibility: "default" (0) 0x14ad.6-0x14ae (0.2)
0x14a0|                                          08 00|              ..|          shndx: 8 0x14ae-0x14b0 (2)
      |                                               |                |        [38]{}: symbol 0x14b0-0x14c0 (16)
0x14b0|1d 00 00 00                                    |....            |          name: "$d" (29) 0x14b0-0x14b4 (4)
0x14b0|            4c 03 00 00                        |    L...        |          value: 844 0x14b4-0x14b8 (4)
0x14b0|                        00 00 00 00            |        ....    |          size: 0 0x14b8-0x14bc (4)
0x14b0|                                    00         |            .   |          bind: "local" (0) 0x14bc-0x14bc.4 (0.4)
0x14b0|                                    00         |            .   |          type: "notype" (0) 0x14bc.4-0x14bd (0.4)
0x14b0|                                       00      |             .  |          other_unused: 0 0x14bd-0x14bd.6 (0.6)
0x14b0|                                       00      |             .  |          visibility: "default" (0) 0x14bd.6-0x14be (0.2)
0x14b0|                                          08 00|              ..|          shndx: 8 0x14be-0x14c0 (2)
      |                                               |                |        [39]{}: symbol 0x14c0-0x14d0 (16)
0x14c0|08 00 00 00                                    |....            |          name: "$a" (8) 0x14c0-0x14c4 (4)
0x14c0|            5c 03 00 00                        |    \...        |          value: 860 0x14c4-0x14c8 (4)
0x14c0|                        00 00 00 00            |        ....    |          size: 0 0x14c8-0x14cc (4)
0x14c0|                                    00         |            .   |          bind: "local" (0) 0x14cc-0x14cc.4 (0.4)
0x14c0|                                    00         |            .   |          type: "notype" (0) 0x14cc.4-0x14cd (0.4)
0x14c0|                                       00      |             .  |          other_unused: 0 0x14cd-0x14cd.6 (0.6)
0x14c0|                                       00      |             .  |          visibility: "default" (0) 0x14cd.6-0x14ce (0.2)
0x14c0|                                          08 00|              ..|          shndx: 8 0x14ce-0x14d0 (2)
      |                                               |                |        [40]{}: symbol 0x14d0-0x14e0 (16)
0x14d0|34 00 00 00                                    |4...            |          name: "register_tm_clones" (52) 0x14d0-0x14d4 (4)
0x14d0|            5c 03 00 00                        |    \...        |          value: 860 0x14d4-0x14d8 (4)
0x14d0|                        00 00 00 00            |        ....    |          size: 0 0x14d8-0x14dc (4)
0x14d0|                                    02         |            .   |          bind: "local" (0) 0x14dc-0x14dc.4 (0.4)
0x14d0|                                    02         |            .   |          type: "func" (2) 0x14dc.4-0x14dd (0.4)
0x14d0|                                       00      |             .  |          other_unused: 0 0x14dd-0x14dd.6 (0.6)
0x14d0|                                       00      |             .  |          visibility: "default" (0) 0x14dd.6-0x14de (0.2)
0x14d0|                                          08 00|              ..|          shndx: 8 0x14de-0x14e0 (2)
      |                                               |                |        [41]{}: symbol 0x14e0-0x14f0 (16)
0x14e0|1d 00 00 00                                    |....            |          name: "$d" (29) 0x14e0-0x14e4 (4)
0x14e0|            9c 03 00 00                        |    ....        |          value: 924 0x14e4-0x14e8 (4)
0x14e0|                        00 00 00 00            |        ....    |          size: 0 0x14e8-0x14ec (4)
0x14e0|                                    00         |            .   |          bind: "local" (0) 0x14ec-0x14ec.4 (0.4)
0x14e0|                                    00         |            .   |          type: "notype" (0) 0x14ec.4-0x14ed (0.4)
0x14e0|                                       00      |             .  |          other_unused: 0 0x14ed-0x14ed.6 (0.6)
0x14e0|                                       00      |             .  |          visibility: "default" (0) 0x14ed.6-0x14ee (0.2)
0x14e0|                                          08 00|              ..|          shndx: 8 0x14ee-0x14f0 (2)
      |                                               |                |        [42]{}: symbol 0x14f0-0x1500 (16)
0x14f0|1d 00 00 00                                    |....            |          name: "$d" (29) 0x14f0-0x14f4 (4)
0x14f0|            00 10 01 00                        |    ....        |          value: 69632 0x14f4-0x14f8 (4)
0x14f0|                        00 00 00 00            |        ....    |          size: 0 0x14f8-0x14fc (4)
0x14f0|                                    00         |            .   |          bind: "local" (0) 0x14fc-0x14fc.4 (0.4)
0x14f0|                                    00         |            .   |          type: "notype" (0) 0x14fc.4-0x14fd (0.4)
0x14f0|                                       00      |             .  |          other_unused: 0 0x14fd-0x14fd.6 (0.6)
0x14f0|                                       00      |             .  |          visibility: "default" (0) 0x14fd.6-0x14fe (0.2)
0x14f0|                                          10 00|              ..|          shndx: 16 0x14fe-0x1500 (2)
      |                                               |                |        [43]{}: symbol 0x1500-0x1510 (16)
0x1500|08 00 00 00                                    |....            |          name: "$a" (8) 0x1500-0x1504 (4)
0x1500|            ac 03 00 00                        |    ....        |          value: 940 0x1504-0x1508 (4)
0x1500|                        00 00 00 00            |        ....    |          size: 0 0x1508-0x150c (4)
0x1500|                                    00         |            .   |          bind: "local" (0) 0x150c-0x150c.4 (0.4)
0x1500|                                    00         |            .   |          type: "notype" (0) 0x150c.4-0x150d (0.4)
0x1500|                                       00      |             .  |          other_unused: 0 0x150d-0x150d.6 (0.6)
0x1500|                                       00      |             .  |          visibility: "default" (0) 0x150d.6-0x150e (0.2)
0x1500|                                          08 00|              ..|          shndx: 8 0x150e-0x1510 (2)
      |                                               |                |        [44]{}: symbol 0x1510-0x1520 (16)
0x1510|47 00 00 00                                    |G...            |          name: "__do_global_dtors_aux" (71) 0x1510-0x1514 (4)
0x1510|            ac 03 00 00                        |    ....        |          value: 940 0x1514-0x1518 (4)
0x1510|                        00 00 00 00            |        ....    |          size: 0 0x1518-0x151c (4)
0x1510|                                    02         |            .   |          bind: "local" (0) 0x151c-0x151c.4 (0.4)
0x1510|                                    02         |            .   |          type: "func" (2) 0x151c.4-0x151d (0.4)
0x1510|                                       00      |             .  |          other_unused: 0 0x151d-0x151d.6 (0.6)
0x1510|                                       00      |             .  |          visibility: "default" (0) 0x151d.6-0x151e (0.2)
0x1510|                                          08 00|              ..|          shndx: 8 0x151e-0x1520 (2)
      |                                               |                |        [45]{}: symbol 0x1520-0x1530 (16)
0x1520|1d 00 00 00                                    |....            |          name: "$d" (29) 0x1520-0x1524 (4)
0x1520|            1c 04 00 00                        |    ....        |          value: 1052 0x1524-0x1528 (4)
0x1520|                        00 00 00 00            |        ....    |          size: 0 0x1528-0x152c (4)
0x1520|                                    00         |            .   |          bind: "local" (0) 0x152c-0x152c.4 (0.4)
0x1520|                                    00         |            .   |          type: "notype" (0) 0x152c.4-0x152d (0.4)
0x1520|                                       00      |             .  |          other_unused: 0 0x152d-0x152d.6 (0.6)
0x1520|                                       00      |             .  |          visibility: "default" (0) 0x152d.6-0x152e (0.2)
0x1520|                                          08 00|              ..|          shndx: 8 0x152e-0x1530 (2)
      |                                               |                |        [46]{}: symbol 0x1530-0x1540 (16)
0x1530|5d 00 00 00                                    |]...            |          name: "completed.1" (93) 0x1530-0x1534 (4)
0x1530|            04 10 01 00                        |    ....        |          value: 69636 0x1534-0x1538 (4)
0x1530|                        01 00 00 00            |        ....    |          size: 1 0x1538-0x153c (4)
0x1530|                                    01         |            .   |          bind: "local" (0) 0x153c-0x153c.4 (0.4)
0x1530|                                    01         |            .   |          type: "object" (1) 0x153c.4-0x153d (0.4)
0x1530|                                       00      |             .  |          other_unused: 0 0x153d-0x153d.6 (0.6)
0x1530|                                       00      |             .  |          visibility: "default" (0) 0x153d.6-0x153e (0.2)
0x1530|                                          11 00|              ..|          shndx: 17 0x153e-0x1540 (2)
      |                                               |                |        [47]{}: symbol 0x1540-0x1550 (16)
0x1540|1d 00 00 00                                    |....            |          name: "$d" (29) 0x1540-0x1544 (4)
0x1540|            f4 0e 01 00                        |    ....        |          value: 69364 0x1544-0x1548 (4)
0x1540|                        00 00 00 00            |        ....    |          size: 0 0x1548-0x154c (4)
0x1540|                                    00         |            .   |          bind: "local" (0) 0x154c-0x154c.4 (0.4)
0x1540|                                    00         |            .   |          type: "notype" (0) 0x154c.4-0x154d (0.4)
0x1540|                                       00      |             .  |          other_unused: 0 0x154d-0x154d.6 (0.6)
0x1540|                                       00      |             .  |          visibility: "default" (0) 0x154d.6-0x154e (0.2)
0x1540|                                          0d 00|              ..|          shndx: 13 0x154e-0x1550 (2)
      |                                               |                |        [48]{}: symbol 0x1550-0x1560 (16)
0x1550|69 00 00 00                                    |i...            |          name: "__do_global_dtors_aux_fini_array_entry" (105) 0x1550-0x1554 (4)
0x1550|            f4 0e 01 00                        |    ....        |          value: 69364 0x1554-0x1558 (4)
0x1550|                        00 00 00 00            |        ....    |          size: 0 0x1558-0x155c (4)
0x1550|                                    01         |            .   |          bind: "local" (0) 0x155c-0x155c.4 (0.4)
0x1550|                                    01         |            .   |          type: "object" (1) 0x155c.4-0x155d (0.4)
0x1550|                                       00      |             .  |          other_unused: 0 0x155d-0x155d.6 (0.6)
0x1550|                                       00      |             .  |          visibility: "default" (0) 0x155d.6-0x155e (0.2)
0x1550|                                          0d 00|              ..|          shndx: 13 0x155e-0x1560 (2)
      |                                               |                |        [49]{}: symbol 0x1560-0x1570 (16)
0x1560|08 00 00 00                                    |....            |          name: "$a" (8) 0x1560-0x1564 (4)
0x1560|            38 04 00 00                        |    8...        |          value: 1080 0x1564-0x1568 (4)
0x1560|                        00 00 00 00            |        ....    |          size: 0 0x1568-0x156c (4)
0x1560|                                    00         |            .   |          bind: "local" (0) 0x156c-0x156c.4 (0.4)
0x1560|                                    00         |            .   |          type: "notype" (0) 0x156c.4-0x156d (0.4)
0x1560|                                       00      |             .  |          other_unused: 0 0x156d-0x156d.6 (0.6)
0x1560|                                       00      |             .  |          visibility: "default" (0) 0x156d.6-0x156e (0.2)
0x1560|                                          08 00|              ..|          shndx: 8 0x156e-0x1570 (2)
      |                                               |                |        [50]{}: symbol 0x1570-0x1580 (16)
0x1570|90 00 00 00                                    |....            |          name: "frame_dummy" (144) 0x1570-0x1574 (4)
0x1570|            38 04 00 00                        |    8...        |          value: 1080 0x1574-0x1578 (4)
0x1570|                        00 00 00 00            |        ....    |          size: 0 0x1578-0x157c (4)
0x1570|                                    02         |            .   |          bind: "local" (0) 0x157c-0x157c.4 (0.4)
0x1570|                                    02         |            .   |          type: "func" (2) 0x157c.4-0x157d (0.4)
0x1570|                                       00      |             .  |          other_unused: 0 0x157d-0x157d.6 (0.6)
0x1570|                                       00      |             .  |          visibility: "default" (0) 0x157d.6-0x157e (0.2)
0x1570|                                          08 00|              ..|          shndx: 8 0x157e-0x1580 (2)
      |                                               |                |        [51]{}: symbol 0x1580-0x1590 (16)
0x1580|1d 00 00 00                                    |....            |          name: "$d" (29) 0x1580-0x1584 (4)
0x1580|            74 04 00 00                        |    t...        |          value: 1140 0x1584-0x1588 (4)
0x1580|                        00 00 00 00            |        ....    |          size: 0 0x1588-0x158c (4)
0x1580|                                    00         |            .   |          bind: "local" (0) 0x158c-0x158c.4 (0.4)
0x1580|                                    00         |            .   |          type: "notype" (0) 0x158c.4-0x158d (0.4)
0x1580|                                       00      |             .  |          other_unused: 0 0x158d-0x158d.6 (0.6)
0x1580|                                       00      |             .  |          visibility: "default" (0) 0x158d.6-0x158e (0.2)
0x1580|                                          08 00|              ..|          shndx: 8 0x158e-0x1590 (2)
      |                                               |                |        [52]{}: symbol 0x1590-0x15a0 (16)
0x1590|9c 00 00 00                                    |....            |          name: "object.0" (156) 0x1590-0x1594 (4)
0x1590|            08 10 01 00                        |    ....        |          value: 69640 0x1594-0x1598 (4)
0x1590|                        18 00 00 00            |        ....    |          size: 24 0x1598-0x159c (4)
0x1590|                                    01         |            .   |          bind: "local" (0) 0x159c-0x159c.4 (0.4)
0x1590|                                    01         |            .   |          type: "object" (1) 0x159c.4-0x159d (0.4)
0x1590|                                       00      |             .  |          other_unused: 0 0x159d-0x159d.6 (0.6)
0x1590|                                       00      |             .  |          visibility: "default" (0) 0x159d.6-0x159e (0.2)
0x1590|                                          11 00|              ..|          shndx: 17 0x159e-0x15a0 (2)
      |                                               |                |        [53]{}: symbol 0x15a0-0x15b0 (16)
0x15a0|1d 00 00 00                                    |....            |          name: "$d" (29) 0x15a0-0x15a4 (4)
0x15a0|            f0 0e 01 00                        |    ....        |          value: 69360 0x15a4-0x15a8 (4)
0x15a0|                        00 00 00 00            |        ....    |          size: 0 0x15a8-0x15ac (4)
0x15a0|                                    00         |            .   |          bind: "local" (0) 0x15ac-0x15ac.4 (0.4)
0x15a0|                                    00         |            .   |          type: "notype" (0) 0x15ac.4-0x15ad (0.4)
0x15a0|                                       00      |             .  |          other_unused: 0 0x15ad-0x15ad.6 (0.6)
0x15a0|                                       00      |             .  |          visibility: "default" (0) 0x15ad.6-0x15ae (0.2)
0x15a0|                                          0c 00|              ..|          shndx: 12 0x15ae-0x15b0 (2)
      |                                               |                |        [54]{}: symbol 0x15b0-0x15c0 (16)
0x15b0|a5 00 00 00                                    |....            |          name: "__frame_dummy_init_array_entry" (165) 0x15b0-0x15b4 (4)
0x15b0|            f0 0e 01 00                        |    ....        |          value: 69360 0x15b4-0x15b8 (4)
0x15b0|                        00 00 00 00            |        ....    |          size: 0 0x15b8-0x15bc (4)
0x15b0|                                    01         |            .   |          bind: "local" (0) 0x15bc-0x15bc.4 (0.4)
0x15b0|                                    01         |            .   |          type: "object" (1) 0x15bc.4-0x15bd (0.4)
0x15b0|                                       00      |             .  |          other_unused: 0 0x15bd-0x15bd.6 (0.6)
0x15b0|                                       00      |             .  |          visibility: "default" (0) 0x15bd.6-0x15be (0.2)
0x15b0|                                          0c 00|              ..|          shndx: 12 0x15be-0x15c0 (2)
      |                                               |                |        [55]{}: symbol 0x15c0-0x15d0 (16)
0x15c0|1d 00 00 00                                    |....            |          name: "$d" (29) 0x15c0-0x15c4 (4)
0x15c0|            05 10 01 00                        |    ....        |          value: 69637 0x15c4-0x15c8 (4)
0x15c0|                        00 00 00 00            |        ....    |          size: 0 0x15c8-0x15cc (4)
0x15c0|                                    00         |            .   |          bind: "local" (0) 0x15cc-0x15cc.4 (0.4)
0x15c0|                                    00         |            .   |          type: "notype" (0) 0x15cc.4-0x15cd (0.4)
0x15c0|                                       00      |             .  |          other_unused: 0 0x15cd-0x15cd.6 (0.6)
0x15c0|                                       00      |             .  |          visibility: "default" (0) 0x15cd.6-0x15ce (0.2)
0x15c0|                                          11 00|              ..|          shndx: 17 0x15ce-0x15d0 (2)
      |                                               |                |        [56]{}: symbol 0x15d0-0x15e0 (16)
0x15d0|c4 00 00 00                                    |....            |          name: "libbbb.c" (196) 0x15d0-0x15d4 (4)
0x15d0|            00 00 00 00                        |    ....        |          value: 0 0x15d4-0x15d8 (4)
0x15d0|                        00 00 00 00            |        ....    |          size: 0 0x15d8-0x15dc (4)
0x15d0|                                    04         |            .   |          bind: "local" (0) 0x15dc-0x15dc.4 (0.4)
0x15d0|                                    04         |            .   |          type: "file" (4) 0x15dc.4-0x15dd (0.4)
0x15d0|                                       00      |             .  |          other_unused: 0 0x15dd-0x15dd.6 (0.6)
0x15d0|                                       00      |             .  |          visibility: "default" (0) 0x15dd.6-0x15de (0.2)
0x15d0|                                          f1 ff|              ..|          shndx: 65521 0x15de-0x15e0 (2)
      |                                               |                |        [57]{}: symbol 0x15e0-0x15f0 (16)
0x15e0|1d 00 00 00                                    |....            |          name: "$d" (29) 0x15e0-0x15e4 (4)
0x15e0|            44 05 00 00                        |    D...        |          value: 1348 0x15e4-0x15e8 (4)
0x15e0|                        00 00 00 00            |        ....    |          size: 0 0x15e8-0x15ec (4)
0x15e0|                                    00         |            .   |          bind: "local" (0) 0x15ec-0x15ec.4 (0.4)
0x15e0|                                    00         |            .   |          type: "notype" (0) 0x15ec.4-0x15ed (0.4)
0x15e0|                                       00      |             .  |          other_unused: 0 0x15ed-0x15ed.6 (0.6)
0x15e0|                                       00      |             .  |          visibility: "default" (0) 0x15ed.6-0x15ee (0.2)
0x15e0|                                          0a 00|              ..|          shndx: 10 0x15ee-0x15f0 (2)
      |                                               |                |        [58]{}: symbol 0x15f0-0x1600 (16)
0x15f0|08 00 00 00                                    |....            |          name: "$a" (8) 0x15f0-0x15f4 (4)
0x15f0|            84 04 00 00                        |    ....        |          value: 1156 0x15f4-0x15f8 (4)
0x15f0|                        00 00 00 00            |        ....    |          size: 0 0x15f8-0x15fc (4)
0x15f0|                                    00         |            .   |          bind: "local" (0) 0x15fc-0x15fc.4 (0.4)
0x15f0|                                    00         |            .   |          type: "notype" (0) 0x15fc.4-0x15fd (0.4)
0x15f0|                                       00      |             .  |          other_unused: 0 0x15fd-0x15fd.6 (0.6)
0x15f0|                                       00      |             .  |          visibility: "default" (0) 0x15fd.6-0x15fe (0.2)
0x15f0|                                          08 00|              ..|          shndx: 8 0x15fe-0x1600 (2)
      |                                               |                |        [59]{}: symbol 0x1600-0x1610 (16)
0x1600|1d 00 00 00                                    |....            |          name: "$d" (29) 0x1600-0x1604 (4)
0x1600|            a4 04 00 00                        |    ....        |          value: 1188 0x1604-0x1608 (4)
0x1600|                        00 00 00 00            |        ....    |          size: 0 0x1608-0x160c (4)
0x1600|                                    00         |            .   |          bind: "local" (0) 0x160c-0x160c.4 (0.4)
0x1600|                                    00         |            .   |          type: "notype" (0) 0x160c.4-0x160d (0.4)
0x1600|                                       00      |             .  |          other_unused: 0 0x160d-0x160d.6 (0.6)
0x1600|                                       00      |             .  |          visibility: "default" (0) 0x160d.6-0x160e (0.2)
0x1600|                                          08 00|              ..|          shndx: 8 0x160e-0x1610 (2)
      |                                               |                |        [60]{}: symbol 0x1610-0x1620 (16)
0x1610|12 00 00 00                                    |....            |          name: "crtstuff.c" (18) 0x1610-0x1614 (4)
0x1610|            00 00 00 00                        |    ....        |          value: 0 0x1614-0x1618 (4)
0x1610|                        00 00 00 00            |        ....    |          size: 0 0x1618-0x161c (4)
0x1610|                                    04         |            .   |          bind: "local" (0) 0x161c-0x161c.4 (0.4)
0x1610|                                    04         |            .   |          type: "file" (4) 0x161c.4-0x161d (0.4)
0x1610|                                       00      |             .  |          other_unused: 0 0x161d-0x161d.6 (0.6)
0x1610|                                       00      |             .  |          visibility: "default" (0) 0x161d.6-0x161e (0.2)
0x1610|                                          f1 ff|              ..|          shndx: 65521 0x161e-0x1620 (2)
      |                                               |                |        [61]{}: symbol 0x1620-0x1630 (16)
0x1620|1d 00 00 00                                    |....            |          name: "$d" (29) 0x1620-0x1624 (4)
0x1620|            50 05 00 00                        |    P...        |          value: 1360 0x1624-0x1628 (4)
0x1620|                        00 00 00 00            |        ....    |          size: 0 0x1628-0x162c (4)
0x1620|                                    00         |            .   |          bind: "local" (0) 0x162c-0x162c.4 (0.4)
0x1620|                                    00         |            .   |          type: "notype" (0) 0x162c.4-0x162d (0.4)
0x1620|                                       00      |             .  |          other_unused: 0 0x162d-0x162d.6 (0.6)
0x1620|                                       00      |             .  |          visibility: "default" (0) 0x162d.6-0x162e (0.2)
0x1620|                                          0a 00|              ..|          shndx: 10 0x162e-0x1630 (2)
      |                                               |                |        [62]{}: symbol 0x1630-0x1640 (16)
0x1630|20 00 00 00                                    | ...            |          name: "all_implied_fbits" (32) 0x1630-0x1634 (4)
0x1630|            50 05 00 00                        |    P...        |          value: 1360 0x1634-0x1638 (4)
0x1630|                        00 00 00 00            |        ....    |          size: 0 0x1638-0x163c (4)
0x1630|                                    01         |            .   |          bind: "local" (0) 0x163c-0x163c.4 (0.4)
0x1630|                                    01         |            .   |          type: "object" (1) 0x163c.4-0x163d (0.4)
0x1630|                                       00      |             .  |          other_unused: 0 0x163d-0x163d.6 (0.6)
0x1630|                                       00      |             .  |          visibility: "default" (0) 0x163d.6-0x163e (0.2)
0x1630|                                          0a 00|              ..|          shndx: 10 0x163e-0x1640 (2)
      |                                               |                |        [63]{}: symbol 0x1640-0x1650 (16)
0x1640|1d 00 00 00                                    |....            |          name: "$d" (29) 0x1640-0x1644 (4)
0x1640|            e0 05 00 00                        |    ....        |          value: 1504 0x1644-0x1648 (4)
0x1640|                        00 00 00 00            |        ....    |          size: 0 0x1648-0x164c (4)
0x1640|                                    00         |            .   |          bind: "local" (0) 0x164c-0x164c.4 (0.4)
0x1640|                                    00         |            .   |          type: "notype" (0) 0x164c.4-0x164d (0.4)
0x1640|                                       00      |             .  |          other_unused: 0 0x164d-0x164d.6 (0.6)
0x1640|                                       00      |             .  |          visibility: "default" (0) 0x164d.6-0x164e (0.2)
0x1640|                                          0b 00|              ..|          shndx: 11 0x164e-0x1650 (2)
      |                                               |                |        [64]{}: symbol 0x1650-0x1660 (16)
0x1650|cd 00 00 00                                    |....            |          name: "__FRAME_END__" (205) 0x1650-0x1654 (4)
0x1650|            e0 05 00 00                        |    ....        |          value: 1504 0x1654-0x1658 (4)
0x1650|                        00 00 00 00            |        ....    |          size: 0 0x1658-0x165c (4)
0x1650|                                    01         |            .   |          bind: "local" (0) 0x165c-0x165c.4 (0.4)
0x1650|                                    01         |            .   |          type: "object" (1) 0x165c.4-0x165d (0.4)
0x1650|                                       00      |             .  |          other_unused: 0 0x165d-0x165d.6 (0.6)
0x1650|                                       00      |             .  |          visibility: "default" (0) 0x165d.6-0x165e (0.2)
0x1650|                                          0b 00|              ..|          shndx: 11 0x165e-0x1660 (2)
      |                                               |                |        [65]{}: symbol 0x1660-0x1670 (16)
0x1660|00 00 00 00                                    |....            |          name: "" (0) 0x1660-0x1664 (4)
0x1660|            00 00 00 00                        |    ....        |          value: 0 0x1664-0x1668 (4)
0x1660|                        00 00 00 00            |        ....    |          size: 0 0x1668-0x166c (4)
0x1660|                                    04         |            .   |          bind: "local" (0) 0x166c-0x166c.4 (0.4)
0x1660|                                    04         |            .   |          type: "file" (4) 0x166c.4-0x166d (0.4)
0x1660|                                       00      |             .  |          other_unused: 0 0x166d-0x166d.6 (0.6)
0x1660|                                       00      |             .  |          visibility: "default" (0) 0x166d.6-0x166e (0.2)
0x1660|                                          f1 ff|              ..|          shndx: 65521 0x166e-0x1670 (2)
      |                                               |                |        [66]{}: symbol 0x1670-0x1680 (16)
0x1670|db 00 00 00                                    |....            |          name: "_DYNAMIC" (219) 0x1670-0x1674 (4)
0x1670|            f8 0e 01 00                        |    ....        |          value: 69368 0x1674-0x1678 (4)
0x1670|                        00 00 00 00            |        ....    |          size: 0 0x1678-0x167c (4)
0x1670|                                    01         |            .   |          bind: "local" (0) 0x167c-0x167c.4 (0.4)
0x1670|                                    01         |            .   |          type: "object" (1) 0x167c.4-0x167d (0.4)
0x1670|                                       00      |             .  |          other_unused: 0 0x167d-0x167d.6 (0.6)
0x1670|                                       00      |             .  |          visibility: "default" (0) 0x167d.6-0x167e (0.2)
0x1670|                                          f1 ff|              ..|          shndx: 65521 0x167e-0x1680 (2)
      |                                               |                |        [67]{}: symbol 0x1680-0x1690 (16)
0x1680|e4 00 00 00                                    |....            |          name: "__TMC_END__" (228) 0x1680-0x1684 (4)
0x1680|            04 10 01 00                        |    ....        |          value: 69636 0x1684-0x1688 (4)
0x1680|                        00 00 00 00            |        ....    |          size: 0 0x1688-0x168c (4)
0x1680|                                    01         |            .   |          bind: "local" (0) 0x168c-0x168c.4 (0.4)
0x1680|                                    01         |            .   |          type: "object" (1) 0x168c.4-0x168d (0.4)
0x1680|                                       00      |             .  |          other_unused: 0 0x168d-0x168d.6 (0.6)
0x1680|                                       00      |             .  |          visibility: "default" (0) 0x168d.6-0x168e (0.2)
0x1680|                                          10 00|              ..|          shndx: 16 0x168e-0x1690 (2)
      |                                               |                |        [68]{}: symbol 0x1690-0x16a0 (16)
0x1690|f0 00 00 00                                    |....            |          name: "__dso_handle" (240) 0x1690-0x1694 (4)
0x1690|            00 10 01 00                        |    ....        |          value: 69632 0x1694-0x1698 (4)
0x1690|                        00 00 00 00            |        ....    |          size: 0 0x1698-0x169c (4)
0x1690|                                    01         |            .   |          bind: "local" (0) 0x169c-0x169c.4 (0.4)
0x1690|                                    01         |            .   |          type: "object" (1) 0x169c.4-0x169d (0.4)
0x1690|                                       00      |             .  |          other_unused: 0 0x169d-0x169d.6 (0.6)
0x1690|                                       00      |             .  |          visibility: "default" (0) 0x169d.6-0x169e (0.2)
0x1690|                                          10 00|              ..|          shndx: 16 0x169e-0x16a0 (2)
      |                                               |                |        [69]{}: symbol 0x16a0-0x16b0 (16)
0x16a0|fd 00 00 00                                    |....            |          name: "_GLOBAL_OFFSET_TABLE_" (253) 0x16a0-0x16a4 (4)
0x16a0|            d0 0f 01 00                        |    ....        |          value: 69584 0x16a4-0x16a8 (4)
0x16a0|                        00 00 00 00            |        ....    |          size: 0 0x16a8-0x16ac (4)
0x16a0|                                    01         |            .   |          bind: "local" (0) 0x16ac-0x16ac.4 (0.4)
0x16a0|                                    01         |            .   |          type: "object" (1) 0x16ac.4-0x16ad (0.4)
0x16a0|                                       00      |             .  |          other_unused: 0 0x16ad-0x16ad.6 (0.6)
0x16a0|                                       00      |             .  |          visibility: "default" (0) 0x16ad.6-0x16ae (0.2)
0x16a0|                                          f1 ff|              ..|          shndx: 65521 0x16ae-0x16b0 (2)
      |                                               |                |        [70]{}: symbol 0x16b0-0x16c0 (16)
0x16b0|08 00 00 00                                    |....            |          name: "$a" (8) 0x16b0-0x16b4 (4)
0x16b0|            d4 02 00 00                        |    ....        |          value: 724 0x16b4-0x16b8 (4)
0x16b0|                        00 00 00 00            |        ....    |          size: 0 0x16b8-0x16bc (4)
0x16b0|                                    00         |            .   |          bind: "local" (0) 0x16bc-0x16bc.4 (0.4)
0x16b0|                                    00         |            .   |          type: "notype" (0) 0x16bc.4-0x16bd (0.4)
0x16b0|                                       00      |             .  |          other_unused: 0 0x16bd-0x16bd.6 (0.6)
0x16b0|                                       00      |             .  |          visibility: "default" (0) 0x16bd.6-0x16be (0.2)
0x16b0|                                          07 00|              ..|          shndx: 7 0x16be-0x16c0 (2)
      |                                               |                |        [71]{}: symbol 0x16c0-0x16d0 (16)
0x16c0|1d 00 00 00                                    |....            |          name: "$d" (29) 0x16c0-0x16c4 (4)
0x16c0|            e4 02 00 00                        |    ....        |          value: 740 0x16c4-0x16c8 (4)
0x16c0|                        00 00 00 00            |        ....    |          size: 0 0x16c8-0x16cc (4)
0x16c0|                                    00         |            .   |          bind: "local" (0) 0x16cc-0x16cc.4 (0.4)
0x16c0|                                    00         |            .   |          type: "notype" (0) 0x16cc.4-0x16cd (0.4)
0x16c0|                                       00      |             .  |          other_unused: 0 0x16cd-0x16cd.6 (0.6)
0x16c0|                                       00      |             .  |          visibility: "default" (0) 0x16cd.6-0x16ce (0.2)
0x16c0|                                          07 00|              ..|          shndx: 7 0x16ce-0x16d0 (2)
      |                                               |                |        [72]{}: symbol 0x16d0-0x16e0 (16)
0x16d0|08 00 00 00                                    |....            |          name: "$a" (8) 0x16d0-0x16d4 (4)
0x16d0|            e8 02 00 00                        |    ....        |          value: 744 0x16d4-0x16d8 (4)
0x16d0|                        00 00 00 00            |        ....    |          size: 0 0x16d8-0x16dc (4)
0x16d0|                                    00         |            .   |          bind: "local" (0) 0x16dc-0x16dc.4 (0.4)
0x16d0|                                    00         |            .   |          type: "notype" (0) 0x16dc.4-0x16dd (0.4)
0x16d0|                                       00      |             .  |          other_unused: 0 0x16dd-0x16dd.6 (0.6)
0x16d0|                                       00      |             .  |          visibility: "default" (0) 0x16dd.6-0x16de (0.2)
0x16d0|                                          07 00|              ..|          shndx: 7 0x16de-0x16e0 (2)
      |                                               |                |        [73]{}: symbol 0x16e0-0x16f0 (16)
0x16e0|13 01 00 00                                    |....            |          name: "puts" (275) 0x16e0-0x16e4 (4)
0x16e0|            00 00 00 00                        |    ....        |          value: 0 0x16e4-0x16e8 (4)
0x16e0|                        00 00 00 00            |        ....    |          size: 0 0x16e8-0x16ec (4)
0x16e0|                                    12         |            .   |          bind: "global" (1) 0x16ec-0x16ec.4 (0.4)
0x16e0|                                    12         |            .   |          type: "func" (2) 0x16ec.4-0x16ed (0.4)
0x16e0|                                       00      |             .  |          other_unused: 0 0x16ed-0x16ed.6 (0.6)
0x16e0|                                       00      |             .  |          visibility: "default" (0) 0x16ed.6-0x16ee (0.2)
0x16e0|                                          00 00|              ..|          shndx: 0 0x16ee-0x16f0 (2)
      |                                               |                |        [74]{}: symbol 0x16f0-0x1700 (16)
0x16f0|18 01 00 00                                    |....            |          name: "__cxa_finalize" (280) 0x16f0-0x16f4 (4)
0x16f0|            00 00 00 00                        |    ....        |          value: 0 0x16f4-0x16f8 (4)
0x16f0|                        00 00 00 00            |        ....    |          size: 0 0x16f8-0x16fc (4)
0x16f0|                                    22         |            "   |          bind: "weak" (2) 0x16fc-0x16fc.4 (0.4)
0x16f0|                                    22         |            "   |          type: "func" (2) 0x16fc.4-0x16fd (0.4)
0x16f0|                                       00      |             .  |          other_unused: 0 0x16fd-0x16fd.6 (0.6)
0x16f0|                                       00      |             .  |          visibility: "default" (0) 0x16fd.6-0x16fe (0.2)
0x16f0|                                          00 00|              ..|          shndx: 0 0x16fe-0x1700 (2)
      |                                               |                |        [75]{}: symbol 0x1700-0x1710 (16)
0x1700|27 01 00 00                                    |'...            |          name: "_init" (295) 0x1700-0x1704 (4)
0x1700|            c8 02 00 00                        |    ....        |          value: 712 0x1704-0x1708 (4)
0x1700|                        04 00 00 00            |        ....    |          size: 4 0x1708-0x170c (4)
0x1700|                                    12         |            .   |          bind: "global" (1) 0x170c-0x170c.4 (0.4)
0x1700|                                    12         |            .   |          type: "func" (2) 0x170c.4-0x170d (0.4)
0x1700|                                       00      |             .  |          other_unused: 0 0x170d-0x170d.6 (0.6)
0x1700|                                       00      |             .  |          visibility: "default" (0) 0x170d.6-0x170e (0.2)
0x1700|                                          06 00|              ..|          shndx: 6 0x170e-0x1710 (2)
      |                                               |                |        [76]{}: symbol 0x1710-0x1720 (16)
0x1710|2d 01 00 00                                    |-...            |          name: "__deregister_frame_info" (301) 0x1710-0x1714 (4)
0x1710|            00 00 00 00                        |    ....        |          value: 0 0x1714-0x1718 (4)
0x1710|                        00 00 00 00            |        ....    |          size: 0 0x1718-0x171c (4)
0x1710|                                    20         |                |          bind: "weak" (2) 0x171c-0x171c.4 (0.4)
0x1710|                                    20         |                |          type: "notype" (0) 0x171c.4-0x171d (0.4)
0x1710|                                       00      |             .  |          other_unused: 0 0x171d-0x171d.6 (0.6)
0x1710|                                       00      |             .  |          visibility: "default" (0) 0x171d.6-0x171e (0.2)
0x1710|                                          00 00|              ..|          shndx: 0 0x171e-0x1720 (2)
      |                                               |                |        [77]{}: symbol 0x1720-0x1730 (16)
0x1720|45 01 00 00                                    |E...            |          name: "_ITM_registerTMCloneTable" (325) 0x1720-0x1724 (4)
0x1720|            00 00 00 00                        |    ....        |          value: 0 0x1724-0x1728 (4)
0x1720|                        00 00 00 00            |        ....    |          size: 0 0x1728-0x172c (4)
0x1720|                                    20         |                |          bind: "weak" (2) 0x172c-0x172c.4 (0.4)
0x1720|                                    20         |                |          type: "notype" (0) 0x172c.4-0x172d (0.4)
0x1720|                                       00      |             .  |          other_unused: 0 0x172d-0x172d.6 (0.6)
0x1720|                                       00      |             .  |          visibility: "default" (0) 0x172d.6-0x172e (0.2)
0x1720|                                          00 00|              ..|          shndx: 0 0x172e-0x1730 (2)
      |                                               |                |        [78]{}: symbol 0x1730-0x1740 (16)
0x1730|5f 01 00 00                                    |_...            |          name: "_ITM_deregisterTMCloneTable" (351) 0x1730-0x1734 (4)
0x1730|            00 00 00 00                        |    ....        |          value: 0 0x1734-0x1738 (4)
0x1730|                        00 00 00 00            |        ....    |          size: 0 0x1738-0x173c (4)
0x1730|                                    20         |                |          bind: "weak" (2) 0x173c-0x173c.4 (0.4)
0x1730|                                    20         |                |          type: "notype" (0) 0x173c.4-0x173d (0.4)
0x1730|                                       00      |             .  |          other_unused: 0 0x173d-0x173d.6 (0.6)
0x1730|                                       00      |             .  |          visibility: "default" (0) 0x173d.6-0x173e (0.2)
0x1730|                                          00 00|              ..|          shndx: 0 0x173e-0x1740 (2)
      |                                               |                |        [79]{}: symbol 0x1740-0x1750 (16)
0x1740|7b 01 00 00                                    |{...            |          name: "_fini" (379) 0x1740-0x1744 (4)
0x1740|            a8 04 00 00                        |    ....        |          value: 1192 0x1744-0x1748 (4)
0x1740|                        04 00 00 00            |        ....    |          size: 4 0x1748-0x174c (4)
0x1740|                                    12         |            .   |          bind: "global" (1) 0x174c-0x174c.4 (0.4)
0x1740|                                    12         |            .   |          type: "func" (2) 0x174c.4-0x174d (0.4)
0x1740|                                       00      |             .  |          other_unused: 0 0x174d-0x174d.6 (0.6)
0x1740|                                       00      |             .  |          visibility: "default" (0) 0x174d.6-0x174e (0.2)
0x1740|                                          09 00|              ..|          shndx: 9 0x174e-0x1750 (2)
      |                                               |                |        [80]{}: symbol 0x1750-0x1760 (16)
0x1750|81 01 00 00                                    |....            |          name: "libbbb_bbb" (385) 0x1750-0x1754 (4)
0x1750|            84 04 00 00                        |    ....        |          value: 1156 0x1754-0x1758 (4)
0x1750|                        24 00 00 00            |        $...    |          size: 36 0x1758-0x175c (4)
0x1750|                                    12         |            .   |          bind: "global" (1) 0x175c-0x175c.4 (0.4)
0x1750|                                    12         |            .   |          type: "func" (2) 0x175c.4-0x175d (0.4)
0x1750|                                       00      |             .  |          other_unused: 0 0x175d-0x175d.6 (0.6)
0x1750|                                       00      |             .  |          visibility: "default" (0) 0x175d.6-0x175e (0.2)
0x1750|                                          08 00|              ..|          shndx: 8 0x175e-0x1760 (2)
      |                                               |                |        [81]{}: symbol 0x1760-0x1770 (16)
0x1760|8c 01 00 00                                    |....            |          name: "__register_frame_info" (396) 0x1760-0x1764 (4)
0x1760|            00 00 00 00                        |    ....        |          value: 0 0x1764-0x1768 (4)
0x1760|                        00 00 00 00            |        ....    |          size: 0 0x1768-0x176c (4)
0x1760|                                    20         |                |          bind: "weak" (2) 0x176c-0x176c.4 (0.4)
0x1760|                                    20         |                |          type: "notype" (0) 0x176c.4-0x176d (0.4)
0x1760|                                       00      |             .  |          other_unused: 0 0x176d-0x176d.6 (0.6)
0x1760|                                       00      |             .  |          visibility: "default" (0) 0x176d.6-0x176e (0.2)
0x1760|                                          00 00|              ..|          shndx: 0 0x176e-0x1770 (2)
0x1e20|                        01 00 00 00            |        ....    |      name: ".symtab" (1) 0x1e28-0x1e2c (4)
0x1e20|                                    02 00 00 00|            ....|      type: "symtab" (0x2) (Symbol table) 0x1e2c-0x1e30 (4)
      |                                               |                |      flags{}: 0x1e30-0x1e34 (4)
0x1e30|00                                             |.               |        link_order: false 0x1e30-0x1e30.1 (0.1)
0x1e30|00                                             |.               |        info_link: false 0x1e30.1-0x1e30.2 (0.1)
0x1e30|00                                             |.               |        strings: false 0x1e30.2-0x1e30.3 (0.1)
0x1e30|00                                             |.               |        merge: false 0x1e30.3-0x1e30.4 (0.1)
0x1e30|00                                             |.               |        unused0: 0 0x1e30.4-0x1e30.5 (0.1)
0x1e30|00                                             |.               |        execinstr: false 0x1e30.5-0x1e30.6 (0.1)
0x1e30|00                                             |.               |        alloc: false 0x1e30.6-0x1e30.7 (0.1)
0x1e30|00                                             |.               |        write: false 0x1e30.7-0x1e31 (0.1)
0x1e30|   00                                          | .              |        tls: false 0x1e31-0x1e31.1 (0.1)
0x1e30|   00                                          | .              |        group: false 0x1e31.1-0x1e31.2 (0.1)
0x1e30|   00                                          | .              |        os_nonconforming: false 0x1e31.2-0x1e31.3 (0.1)
0x1e30|   00 00                                       | ..             |        unused1: 0 0x1e31.3-0x1e32.4 (1.1)
0x1e30|      00 00                                    |  ..            |        os_specific: 0 0x1e32.4-0x1e33.4 (1)
0x1e30|         00                                    |   .            |        processor_specific: 0 0x1e33.4-0x1e34 (0.4)
0x1e30|            00 00 00 00                        |    ....        |      addr: 0x0 0x1e34-0x1e38 (4)
0x1e30|                        50 12 00 00            |        P...    |      offset: 4688 0x1e38-0x1e3c (4)
0x1e30|                                    20 05 00 00|             ...|      size: 0x520 0x1e3c-0x1e40 (4)
0x1e40|1b 00 00 00                                    |....            |      link: 27 0x1e40-0x1e44 (4)
0x1e40|            49 00 00 00                        |    I...        |      info: 73 0x1e44-0x1e48 (4)
0x1e40|                        04 00 00 00            |        ....    |      addralign: 4 0x1e48-0x1e4c (4)
0x1e40|                                    10 00 00 00|            ....|      entsize: 16 0x1e4c-0x1e50 (4)
      |                                               |                |    [27]{}: section_header 0x1770-0x1e78 (1800)
0x1770|00 63 72 74 69 2e 6f 00 24 61 00 63 72 74 6e 2e|.crti.o.$a.crtn.|      string: "\x00crti.o\x00$a\x00crtn.o\x00crtstuff.c\x00$d\x00all_implied_fbits\x00deregister_tm_clones\x00__do_global_dtors_aux\x00completed.1\x00__do_global_dtors_aux_fini_array_entry\x00frame_dummy\x00object.0\x00__frame_dummy_init_array_entry\x00libbbb.c\x00__FRAME_END__\x00_DYNAMIC\x00__TMC_END__\x00__dso_handle\x00_GLOBAL_OFFSET_TABLE_\x00puts\x00__cxa_finalize\x00_init\x00__deregister_frame_info\x00_ITM_registerTMCloneTable\x00_ITM_deregisterTMCloneTable\x00_fini\x00libbbb_bbb\x00__register_frame_info\x00" 0x1770-0x1912 (418)
*     |until 0x1911.7 (418)                           |                |
0x1e50|09 00 00 00                                    |....            |      name: ".strtab" (9) 0x1e50-0x1e54 (4)
0x1e50|            03 00 00 00                        |    ....        |      type: "strtab" (0x3) (String table) 0x1e54-0x1e58 (4)
      |                                               |                |      flags{}: 0x1e58-0x1e5c (4)
0x1e50|                        00                     |        .       |        link_order: false 0x1e58-0x1e58.1 (0.1)
0x1e50|                        00                     |        .       |        info_link: false 0x1e58.1-0x1e58.2 (0.1)
0x1e50|                        00                     |        .       |        strings: false 0x1e58.2-0x1e58.3 (0.1)
0x1e50|                        00                     |        .       |        merge: false 0x1e58.3-0x1e58.4 (0.1)
0x1e50|                        00                     |        .       |        unused0: 0 0x1e58.4-0x1e58.5 (0.1)
0x1e50|                        00                     |        .       |        execinstr: false 0x1e58.5-0x1e58.6 (0.1)
0x1e50|                        00                     |        .       |        alloc: false 0x1e58.6-0x1e58.7 (0.1)
0x1e50|                        00                     |        .       |        write: false 0x1e58.7-0x1e59 (0.1)
0x1e50|                           00                  |         .      |        tls: false 0x1e59-0x1e59.1 (0.1)
0x1e50|                           00                  |         .      |        group: false 0x1e59.1-0x1e59.2 (0.1)
0x1e50|                           00                  |         .      |        os_nonconforming: false 0x1e59.2-0x1e59.3 (0.1)
0x1e50|                           00 00               |         ..     |        unused1: 0 0x1e59.3-0x1e5a.4 (1.1)
0x1e50|                              00 00            |          ..    |        os_specific: 0 0x1e5a.4-0x1e5b.4 (1)
0x1e50|                                 00            |           .    |        processor_specific: 0 0x1e5b.4-0x1e5c (0.4)
0x1e50|                                    00 00 00 00|            ....|      addr: 0x0 0x1e5c-0x1e60 (4)
0x1e60|70 17 00 00                                    |p...            |      offset: 6000 0x1e60-0x1e64 (4)
0x1e60|            a2 01 00 00                        |    ....        |      size: 0x1a2 0x1e64-0x1e68 (4)
0x1e60|                        00 00 00 00            |        ....    |      link: 0 0x1e68-0x1e6c (4)
0x1e60|                                    00 00 00 00|            ....|      info: 0 0x1e6c-0x1e70 (4)
0x1e70|01 00 00 00                                    |....            |      addralign: 1 0x1e70-0x1e74 (4)
0x1e70|            00 00 00 00                        |    ....        |      entsize: 0 0x1e74-0x1e78 (4)
      |                                               |                |    [28]{}: section_header 0x1912-0x1ea0 (1422)
0x1910|      00 2e 73 79 6d 74 61 62 00 2e 73 74 72 74|  ..symtab..strt|      string: "\x00.symtab\x00.strtab\x00.shstrtab\x00.gnu.hash\x00.dynsym\x00.dynstr\x00.rel.dyn\x00.rel.plt\x00.init\x00.text\x00.fini\x00.rodata\x00.eh_frame\x00.init_array\x00.fini_array\x00.dynamic\x00.got\x00.data\x00.bss\x00.comment\x00.ARM.attributes\x00.debug_aranges\x00.debug_info\x00.debug_abbrev\x00.debug_line\x00.debug_str\x00.debug_ranges\x00" 0x1912-0x1a15 (259)
0x1920|61 62 00 2e 73 68 73 74 72 74 61 62 00 2e 67 6e|ab..shstrtab..gn|
*     |until 0x1a14.7 (259)                           |                |
0x1e70|                        11 00 00 00            |        ....    |      name: ".shstrtab" (17) 0x1e78-0x1e7c (4)
0x1e70|                                    03 00 00 00|            ....|      type: "strtab" (0x3) (String table) 0x1e7c-0x1e80 (4)
      |                                               |                |      flags{}: 0x1e80-0x1e84 (4)
0x1e80|00                                             |.               |        link_order: false 0x1e80-0x1e80.1 (0.1)
0x1e80|00                                             |.               |        info_link: false 0x1e80.1-0x1e80.2 (0.1)
0x1e80|00                                             |.               |        strings: false 0x1e80.2-0x1e80.3 (0.1)
0x1e80|00                                             |.               |        merge: false 0x1e80.3-0x1e80.4 (0.1)
0x1e80|00                                             |.               |        unused0: 0 0x1e80.4-0x1e80.5 (0.1)
0x1e80|00                                             |.               |        execinstr: false 0x1e80.5-0x1e80.6 (0.1)
0x1e80|00                                             |.               |        alloc: false 0x1e80.6-0x1e80.7 (0.1)
0x1e80|00                                             |.               |        write: false 0x1e80.7-0x1e81 (0.1)
0x1e80|   00                                          | .              |        tls: false 0x1e81-0x1e81.1 (0.1)
0x1e80|   00                                          | .              |        group: false 0x1e81.1-0x1e81.2 (0.1)
0x1e80|   00                                          | .              |        os_nonconforming: false 0x1e81.2-0x1e81.3 (0.1)
0x1e80|   00 00                                       | ..             |        unused1: 0 0x1e81.3-0x1e82.4 (1.1)
0x1e80|      00 00                                    |  ..            |        os_specific: 0 0x1e82.4-0x1e83.4 (1)
0x1e80|         00                                    |   .            |        processor_specific: 0 0x1e83.4-0x1e84 (0.4)
0x1e80|            00 00 00 00                        |    ....        |      addr: 0x0 0x1e84-0x1e88 (4)
0x1e80|                        12 19 00 00            |        ....    |      offset: 6418 0x1e88-0x1e8c (4)
0x1e80|                                    03 01 00 00|            ....|      size: 0x103 0x1e8c-0x1e90 (4)
0x1e90|00 00 00 00                                    |....            |      link: 0 0x1e90-0x1e94 (4)
0x1e90|            00 00 00 00                        |    ....        |      info: 0 0x1e94-0x1e98 (4)
0x1e90|                        01 00 00 00            |        ....    |      addralign: 1 0x1e98-0x1e9c (4)
0x1e90|                                    00 00 00 00|            ....|      entsize: 0 0x1e9c-0x1ea0 (4)
0x05e0|            00 00 00 00 00 00 00 00 00 00 00 00|    ............|  gap0: raw bits 0x5e4-0xef0 (2316)
0x05f0|00 00 00 00 00 00 00 00 00 00 00 00 00 00 00 00|................|
*     |until 0xeef.7 (2316)                           |                |
0x1060|            00 00 00 00                        |    ....        |  gap1: raw bits 0x1064-0x1068 (4)
0x1200|                                    00 00 00 00|            ....|  gap2: raw bits 0x120c-0x1210 (4)
0x1a10|               00 00 00                        |     ...        |  gap3: raw bits 0x1a15-0x1a18 (3)
