$ fq -d elf dv a_stripped
      |00 01 02 03 04 05 06 07 08 09 0a 0b 0c 0d 0e 0f|0123456789abcdef|.{}: a_stripped (elf) 0x0-0x34af.7 (13488)
      |                                               |                |  header{}: 0x0-0x33.7 (52)
      |                                               |                |    ident{}: 0x0-0xf.7 (16)
0x0000|7f 45 4c 46                                    |.ELF            |      magic: raw bits (valid) 0x0-0x3.7 (4)
0x0000|            01                                 |    .           |      class: 32 (1) 0x4-0x4.7 (1)
0x0000|               01                              |     .          |      data: "little_endian" (1) 0x5-0x5.7 (1)
0x0000|                  01                           |      .         |      version: 1 0x6-0x6.7 (1)
0x0000|                     00                        |       .        |      os_abi: "sysv" (0) 0x7-0x7.7 (1)
0x0000|                        00                     |        .       |      abi_version: 0 0x8-0x8.7 (1)
0x0000|                           00 00 00 00 00 00 00|         .......|      pad: raw bits (all zero) 0x9-0xf.7 (7)
0x0010|03 00                                          |..              |    type: "dyn" (0x3) 0x10-0x11.7 (2)
0x0010|      03 00                                    |  ..            |    machine: "x86" (0x3) (x86) 0x12-0x13.7 (2)
0x0010|            01 00 00 00                        |    ....        |    version: 1 0x14-0x17.7 (4)
0x0010|                        80 10 00 00            |        ....    |    entry: 4224 0x18-0x1b.7 (4)
0x0010|                                    34 00 00 00|            4...|    phoff: 52 0x1c-0x1f.7 (4)
0x0020|f0 30 00 00                                    |.0..            |    shoff: 12528 0x20-0x23.7 (4)
0x0020|            00 00 00 00                        |    ....        |    flags: 0 0x24-0x27.7 (4)
0x0020|                        34 00                  |        4.      |    ehsize: 52 0x28-0x29.7 (2)
0x0020|                              20 00            |           .    |    phentsize: 32 0x2a-0x2b.7 (2)
0x0020|                                    0c 00      |            ..  |    phnum: 12 0x2c-0x2d.7 (2)
0x0020|                                          28 00|              (.|    shentsize: 40 0x2e-0x2f.7 (2)
0x0030|18 00                                          |..              |    shnum: 24 0x30-0x31.7 (2)
0x0030|      17 00                                    |  ..            |    shstrndx: 23 0x32-0x33.7 (2)
      |                                               |                |  program_headers[0:12]: 0x0-0x3003.7 (12292)
      |                                               |                |    [0]{}: program_header 0x34-0x1b3.7 (384)
0x0030|            06 00 00 00                        |    ....        |      type: "phdr" (6) (Program header location and size) 0x34-0x37.7 (4)
0x0030|            06 00 00 00 34 00 00 00 34 00 00 00|    ....4...4...|      data: raw bits 0x34-0x1b3.7 (384)
0x0040|34 00 00 00 80 01 00 00 80 01 00 00 04 00 00 00|4...............|
*     |until 0x1b3.7 (384)                            |                |
0x0030|                        34 00 00 00            |        4...    |      offset: 0x34 0x38-0x3b.7 (4)
0x0030|                                    34 00 00 00|            4...|      vaddr: 0x34 0x3c-0x3f.7 (4)
0x0040|34 00 00 00                                    |4...            |      paddr: 0x34 0x40-0x43.7 (4)
0x0040|            80 01 00 00                        |    ....        |      filesz: 384 0x44-0x47.7 (4)
0x0040|                        80 01 00 00            |        ....    |      memsz: 384 0x48-0x4b.7 (4)
      |                                               |                |      flags{}: 0x4c-0x4f.7 (4)
0x0040|                                    04         |            .   |        unused0: 0 0x4c-0x4c.4 (0.5)
0x0040|                                    04         |            .   |        r: true 0x4c.5-0x4c.5 (0.1)
0x0040|                                    04         |            .   |        w: false 0x4c.6-0x4c.6 (0.1)
0x0040|                                    04         |            .   |        x: false 0x4c.7-0x4c.7 (0.1)
0x0040|                                       00 00 00|             ...|        unused1: 0 0x4d-0x4f.7 (3)
0x0050|04 00 00 00                                    |....            |      align: 4 0x50-0x53.7 (4)
      |                                               |                |    [1]{}: program_header 0x54-0x1ca.7 (375)
0x0050|            03 00 00 00                        |    ....        |      type: "interp" (3) (Interpreter to invoke) 0x54-0x57.7 (4)
0x0050|                        b4 01 00 00            |        ....    |      offset: 0x1b4 0x58-0x5b.7 (4)
0x0050|                                    b4 01 00 00|            ....|      vaddr: 0x1b4 0x5c-0x5f.7 (4)
0x0060|b4 01 00 00                                    |....            |      paddr: 0x1b4 0x60-0x63.7 (4)
0x0060|            17 00 00 00                        |    ....        |      filesz: 23 0x64-0x67.7 (4)
0x0060|                        17 00 00 00            |        ....    |      memsz: 23 0x68-0x6b.7 (4)
      |                                               |                |      flags{}: 0x6c-0x6f.7 (4)
0x0060|                                    04         |            .   |        unused0: 0 0x6c-0x6c.4 (0.5)
0x0060|                                    04         |            .   |        r: true 0x6c.5-0x6c.5 (0.1)
0x0060|                                    04         |            .   |        w: false 0x6c.6-0x6c.6 (0.1)
0x0060|                                    04         |            .   |        x: false 0x6c.7-0x6c.7 (0.1)
0x0060|                                       00 00 00|             ...|        unused1: 0 0x6d-0x6f.7 (3)
0x0070|01 00 00 00                                    |....            |      align: 1 0x70-0x73.7 (4)
0x01b0|            2f 6c 69 62 2f 6c 64 2d 6d 75 73 6c|    /lib/ld-musl|      data: raw bits 0x1b4-0x1ca.7 (23)
0x01c0|2d 69 33 38 36 2e 73 6f 2e 31 00               |-i386.so.1.     |
      |                                               |                |    [2]{}: program_header 0x0-0x3f3.7 (1012)
0x0000|7f 45 4c 46 01 01 01 00 00 00 00 00 00 00 00 00|.ELF............|      data: raw bits 0x0-0x3f3.7 (1012)
*     |until 0x3f3.7 (1012)                           |                |
0x0070|            01 00 00 00                        |    ....        |      type: "load" (1) (Loadable segment) 0x74-0x77.7 (4)
0x0070|                        00 00 00 00            |        ....    |      offset: 0x0 0x78-0x7b.7 (4)
0x0070|                                    00 00 00 00|            ....|      vaddr: 0x0 0x7c-0x7f.7 (4)
0x0080|00 00 00 00                                    |....            |      paddr: 0x0 0x80-0x83.7 (4)
0x0080|            f4 03 00 00                        |    ....        |      filesz: 1012 0x84-0x87.7 (4)
0x0080|                        f4 03 00 00            |        ....    |      memsz: 1012 0x88-0x8b.7 (4)
      |                                               |                |      flags{}: 0x8c-0x8f.7 (4)
0x0080|                                    04         |            .   |        unused0: 0 0x8c-0x8c.4 (0.5)
0x0080|                                    04         |            .   |        r: true 0x8c.5-0x8c.5 (0.1)
0x0080|                                    04         |            .   |        w: false 0x8c.6-0x8c.6 (0.1)
0x0080|                                    04         |            .   |        x: false 0x8c.7-0x8c.7 (0.1)
0x0080|                                       00 00 00|             ...|        unused1: 0 0x8d-0x8f.7 (3)
0x0090|00 10 00 00                                    |....            |      align: 4096 0x90-0x93.7 (4)
      |                                               |                |    [3]{}: program_header 0x94-0x131c.7 (4745)
0x0090|            01 00 00 00                        |    ....        |      type: "load" (1) (Loadable segment) 0x94-0x97.7 (4)
0x0090|                        00 10 00 00            |        ....    |      offset: 0x1000 0x98-0x9b.7 (4)
0x0090|                                    00 10 00 00|            ....|      vaddr: 0x1000 0x9c-0x9f.7 (4)
0x00a0|00 10 00 00                                    |....            |      paddr: 0x1000 0xa0-0xa3.7 (4)
0x00a0|            1d 03 00 00                        |    ....        |      filesz: 797 0xa4-0xa7.7 (4)
0x00a0|                        1d 03 00 00            |        ....    |      memsz: 797 0xa8-0xab.7 (4)
      |                                               |                |      flags{}: 0xac-0xaf.7 (4)
0x00a0|                                    05         |            .   |        unused0: 0 0xac-0xac.4 (0.5)
0x00a0|                                    05         |            .   |        r: true 0xac.5-0xac.5 (0.1)
0x00a0|                                    05         |            .   |        w: false 0xac.6-0xac.6 (0.1)
0x00a0|                                    05         |            .   |        x: true 0xac.7-0xac.7 (0.1)
0x00a0|                                       00 00 00|             ...|        unused1: 0 0xad-0xaf.7 (3)
0x00b0|00 10 00 00                                    |....            |      align: 4096 0xb0-0xb3.7 (4)
0x1000|83 ec 0c e8 18 02 00 00 e8 c3 02 00 00 83 c4 0c|................|      data: raw bits 0x1000-0x131c.7 (797)
*     |until 0x131c.7 (797)                           |                |
      |                                               |                |    [4]{}: program_header 0xb4-0x20e7.7 (8244)
0x00b0|            01 00 00 00                        |    ....        |      type: "load" (1) (Loadable segment) 0xb4-0xb7.7 (4)
0x00b0|                        00 20 00 00            |        . ..    |      offset: 0x2000 0xb8-0xbb.7 (4)
0x00b0|                                    00 20 00 00|            . ..|      vaddr: 0x2000 0xbc-0xbf.7 (4)
0x00c0|00 20 00 00                                    |. ..            |      paddr: 0x2000 0xc0-0xc3.7 (4)
0x00c0|            e8 00 00 00                        |    ....        |      filesz: 232 0xc4-0xc7.7 (4)
0x00c0|                        e8 00 00 00            |        ....    |      memsz: 232 0xc8-0xcb.7 (4)
      |                                               |                |      flags{}: 0xcc-0xcf.7 (4)
0x00c0|                                    04         |            .   |        unused0: 0 0xcc-0xcc.4 (0.5)
0x00c0|                                    04         |            .   |        r: true 0xcc.5-0xcc.5 (0.1)
0x00c0|                                    04         |            .   |        w: false 0xcc.6-0xcc.6 (0.1)
0x00c0|                                    04         |            .   |        x: false 0xcc.7-0xcc.7 (0.1)
0x00c0|                                       00 00 00|             ...|        unused1: 0 0xcd-0xcf.7 (3)
0x00d0|00 10 00 00                                    |....            |      align: 4096 0xd0-0xd3.7 (4)
0x2000|61 61 61 00 01 1b 03 3b 30 00 00 00 05 00 00 00|aaa....;0.......|      data: raw bits 0x2000-0x20e7.7 (232)
*     |until 0x20e7.7 (232)                           |                |
      |                                               |                |    [5]{}: program_header 0xd4-0x3003.7 (12080)
0x00d0|            01 00 00 00                        |    ....        |      type: "load" (1) (Loadable segment) 0xd4-0xd7.7 (4)
0x00d0|                        f0 2e 00 00            |        ....    |      offset: 0x2ef0 0xd8-0xdb.7 (4)
0x00d0|                                    f0 3e 00 00|            .>..|      vaddr: 0x3ef0 0xdc-0xdf.7 (4)
0x00e0|f0 3e 00 00                                    |.>..            |      paddr: 0x3ef0 0xe0-0xe3.7 (4)
0x00e0|            14 01 00 00                        |    ....        |      filesz: 276 0xe4-0xe7.7 (4)
0x00e0|                        34 01 00 00            |        4...    |      memsz: 308 0xe8-0xeb.7 (4)
      |                                               |                |      flags{}: 0xec-0xef.7 (4)
0x00e0|                                    06         |            .   |        unused0: 0 0xec-0xec.4 (0.5)
0x00e0|                                    06         |            .   |        r: true 0xec.5-0xec.5 (0.1)
0x00e0|                                    06         |            .   |        w: true 0xec.6-0xec.6 (0.1)
0x00e0|                                    06         |            .   |        x: false 0xec.7-0xec.7 (0.1)
0x00e0|                                       00 00 00|             ...|        unused1: 0 0xed-0xef.7 (3)
0x00f0|00 10 00 00                                    |....            |      align: 4096 0xf0-0xf3.7 (4)
0x2ef0|ff ff ff ff 00 00 00 00 ff ff ff ff 00 00 00 00|................|      data: raw bits 0x2ef0-0x3003.7 (276)
*     |until 0x3003.7 (276)                           |                |
      |                                               |                |    [6]{}: program_header 0xf4-0x2fc7.7 (11988)
0x00f0|            02 00 00 00                        |    ....        |      type: "dynamic" (2) (Dynamic linking information) 0xf4-0xf7.7 (4)
0x00f0|                        00 2f 00 00            |        ./..    |      offset: 0x2f00 0xf8-0xfb.7 (4)
0x00f0|                                    00 3f 00 00|            .?..|      vaddr: 0x3f00 0xfc-0xff.7 (4)
0x0100|00 3f 00 00                                    |.?..            |      paddr: 0x3f00 0x100-0x103.7 (4)
0x0100|            c8 00 00 00                        |    ....        |      filesz: 200 0x104-0x107.7 (4)
0x0100|                        c8 00 00 00            |        ....    |      memsz: 200 0x108-0x10b.7 (4)
      |                                               |                |      flags{}: 0x10c-0x10f.7 (4)
0x0100|                                    06         |            .   |        unused0: 0 0x10c-0x10c.4 (0.5)
0x0100|                                    06         |            .   |        r: true 0x10c.5-0x10c.5 (0.1)
0x0100|                                    06         |            .   |        w: true 0x10c.6-0x10c.6 (0.1)
0x0100|                                    06         |            .   |        x: false 0x10c.7-0x10c.7 (0.1)
0x0100|                                       00 00 00|             ...|        unused1: 0 0x10d-0x10f.7 (3)
0x0110|04 00 00 00                                    |....            |      align: 4 0x110-0x113.7 (4)
0x2f00|01 00 00 00 ae 00 00 00 01 00 00 00 b8 00 00 00|................|      data: raw bits 0x2f00-0x2fc7.7 (200)
*     |until 0x2fc7.7 (200)                           |                |
      |                                               |                |    [7]{}: program_header 0x114-0x1f3.7 (224)
0x0110|            04 00 00 00                        |    ....        |      type: "note" (4) (Auxiliary information) 0x114-0x117.7 (4)
0x0110|                        cc 01 00 00            |        ....    |      offset: 0x1cc 0x118-0x11b.7 (4)
0x0110|                                    cc 01 00 00|            ....|      vaddr: 0x1cc 0x11c-0x11f.7 (4)
0x0120|cc 01 00 00                                    |....            |      paddr: 0x1cc 0x120-0x123.7 (4)
0x0120|            28 00 00 00                        |    (...        |      filesz: 40 0x124-0x127.7 (4)
0x0120|                        28 00 00 00            |        (...    |      memsz: 40 0x128-0x12b.7 (4)
      |                                               |                |      flags{}: 0x12c-0x12f.7 (4)
0x0120|                                    04         |            .   |        unused0: 0 0x12c-0x12c.4 (0.5)
0x0120|                                    04         |            .   |        r: true 0x12c.5-0x12c.5 (0.1)
0x0120|                                    04         |            .   |        w: false 0x12c.6-0x12c.6 (0.1)
0x0120|                                    04         |            .   |        x: false 0x12c.7-0x12c.7 (0.1)
0x0120|                                       00 00 00|             ...|        unused1: 0 0x12d-0x12f.7 (3)
0x0130|04 00 00 00                                    |....            |      align: 4 0x130-0x133.7 (4)
      |                                               |                |      notes[0:1]: 0x1cc-0x1f3.7 (40)
      |                                               |                |        [0]{}: note 0x1cc-0x1f3.7 (40)
0x01c0|                                    04 00 00 00|            ....|          n_namesz: 4 0x1cc-0x1cf.7 (4)
0x01d0|18 00 00 00                                    |....            |          n_descsz: 24 0x1d0-0x1d3.7 (4)
0x01d0|            05 00 00 00                        |    ....        |          n_type: 0x5 0x1d4-0x1d7.7 (4)
0x01d0|                        47 4e 55 00            |        GNU.    |          name: "GNU" 0x1d8-0x1db.7 (4)
0x01d0|                                    01 00 01 c0|            ....|          desc: raw bits 0x1dc-0x1f3.7 (24)
0x01e0|04 00 00 00 01 00 00 00 02 00 01 c0 04 00 00 00|................|
0x01f0|00 00 00 00                                    |....            |
      |                                               |                |    [8]{}: program_header 0x134-0x1f3.7 (192)
0x0130|            53 e5 74 64                        |    S.td        |      type: "os" (1685382483) (Operating system-specific) 0x134-0x137.7 (4)
0x0130|                        cc 01 00 00            |        ....    |      offset: 0x1cc 0x138-0x13b.7 (4)
0x0130|                                    cc 01 00 00|            ....|      vaddr: 0x1cc 0x13c-0x13f.7 (4)
0x0140|cc 01 00 00                                    |....            |      paddr: 0x1cc 0x140-0x143.7 (4)
0x0140|            28 00 00 00                        |    (...        |      filesz: 40 0x144-0x147.7 (4)
0x0140|                        28 00 00 00            |        (...    |      memsz: 40 0x148-0x14b.7 (4)
      |                                               |                |      flags{}: 0x14c-0x14f.7 (4)
0x0140|                                    04         |            .   |        unused0: 0 0x14c-0x14c.4 (0.5)
0x0140|                                    04         |            .   |        r: true 0x14c.5-0x14c.5 (0.1)
0x0140|                                    04         |            .   |        w: false 0x14c.6-0x14c.6 (0.1)
0x0140|                                    04         |            .   |        x: false 0x14c.7-0x14c.7 (0.1)
0x0140|                                       00 00 00|             ...|        unused1: 0 0x14d-0x14f.7 (3)
0x0150|04 00 00 00                                    |....            |      align: 4 0x150-0x153.7 (4)
0x01c0|                                    04 00 00 00|            ....|      data: raw bits 0x1cc-0x1f3.7 (40)
0x01d0|18 00 00 00 05 00 00 00 47 4e 55 00 01 00 01 c0|........GNU.....|
*     |until 0x1f3.7 (40)                             |                |
      |                                               |                |    [9]{}: program_header 0x154-0x2037.7 (7908)
0x0150|            50 e5 74 64                        |    P.td        |      type: "gnu_eh_frame" (1685382480) (GNU frame unwind information) 0x154-0x157.7 (4)
0x0150|                        04 20 00 00            |        . ..    |      offset: 0x2004 0x158-0x15b.7 (4)
0x0150|                                    04 20 00 00|            . ..|      vaddr: 0x2004 0x15c-0x15f.7 (4)
0x0160|04 20 00 00                                    |. ..            |      paddr: 0x2004 0x160-0x163.7 (4)
0x0160|            34 00 00 00                        |    4...        |      filesz: 52 0x164-0x167.7 (4)
0x0160|                        34 00 00 00            |        4...    |      memsz: 52 0x168-0x16b.7 (4)
      |                                               |                |      flags{}: 0x16c-0x16f.7 (4)
0x0160|                                    04         |            .   |        unused0: 0 0x16c-0x16c.4 (0.5)
0x0160|                                    04         |            .   |        r: true 0x16c.5-0x16c.5 (0.1)
0x0160|                                    04         |            .   |        w: false 0x16c.6-0x16c.6 (0.1)
0x0160|                                    04         |            .   |        x: false 0x16c.7-0x16c.7 (0.1)
0x0160|                                       00 00 00|             ...|        unused1: 0 0x16d-0x16f.7 (3)
0x0170|04 00 00 00                                    |....            |      align: 4 0x170-0x173.7 (4)
0x2000|            01 1b 03 3b 30 00 00 00 05 00 00 00|    ...;0.......|      data: raw bits 0x2004-0x2037.7 (52)
0x2010|1c f0 ff ff 4c 00 00 00 5c f0 ff ff 70 00 00 00|....L...\...p...|
*     |until 0x2037.7 (52)                            |                |
      |                                               |                |    [10]{}: program_header 0x0-0x193.7 (404)
      |                                               |                |      data: raw bits 0x0-NA (0)
0x0170|            51 e5 74 64                        |    Q.td        |      type: "gnu_stack" (1685382481) (GNU stack permission) 0x174-0x177.7 (4)
0x0170|                        00 00 00 00            |        ....    |      offset: 0x0 0x178-0x17b.7 (4)
0x0170|                                    00 00 00 00|            ....|      vaddr: 0x0 0x17c-0x17f.7 (4)
0x0180|00 00 00 00                                    |....            |      paddr: 0x0 0x180-0x183.7 (4)
0x0180|            00 00 00 00                        |    ....        |      filesz: 0 0x184-0x187.7 (4)
0x0180|                        00 00 00 00            |        ....    |      memsz: 0 0x188-0x18b.7 (4)
      |                                               |                |      flags{}: 0x18c-0x18f.7 (4)
0x0180|                                    06         |            .   |        unused0: 0 0x18c-0x18c.4 (0.5)
0x0180|                                    06         |            .   |        r: true 0x18c.5-0x18c.5 (0.1)
0x0180|                                    06         |            .   |        w: true 0x18c.6-0x18c.6 (0.1)
0x0180|                                    06         |            .   |        x: false 0x18c.7-0x18c.7 (0.1)
0x0180|                                       00 00 00|             ...|        unused1: 0 0x18d-0x18f.7 (3)
0x0190|10 00 00 00                                    |....            |      align: 16 0x190-0x193.7 (4)
      |                                               |                |    [11]{}: program_header 0x194-0x2fff.7 (11884)
0x0190|            52 e5 74 64                        |    R.td        |      type: "gnu_relro" (1685382482) (GNU read-only after relocation) 0x194-0x197.7 (4)
0x0190|                        f0 2e 00 00            |        ....    |      offset: 0x2ef0 0x198-0x19b.7 (4)
0x0190|                                    f0 3e 00 00|            .>..|      vaddr: 0x3ef0 0x19c-0x19f.7 (4)
0x01a0|f0 3e 00 00                                    |.>..            |      paddr: 0x3ef0 0x1a0-0x1a3.7 (4)
0x01a0|            10 01 00 00                        |    ....        |      filesz: 272 0x1a4-0x1a7.7 (4)
0x01a0|                        10 01 00 00            |        ....    |      memsz: 272 0x1a8-0x1ab.7 (4)
      |                                               |                |      flags{}: 0x1ac-0x1af.7 (4)
0x01a0|                                    04         |            .   |        unused0: 0 0x1ac-0x1ac.4 (0.5)
0x01a0|                                    04         |            .   |        r: true 0x1ac.5-0x1ac.5 (0.1)
0x01a0|                                    04         |            .   |        w: false 0x1ac.6-0x1ac.6 (0.1)
0x01a0|                                    04         |            .   |        x: false 0x1ac.7-0x1ac.7 (0.1)
0x01a0|                                       00 00 00|             ...|        unused1: 0 0x1ad-0x1af.7 (3)
0x01b0|01 00 00 00                                    |....            |      align: 1 0x1b0-0x1b3.7 (4)
0x2ef0|ff ff ff ff 00 00 00 00 ff ff ff ff 00 00 00 00|................|      data: raw bits 0x2ef0-0x2fff.7 (272)
*     |until 0x2fff.7 (272)                           |                |
      |                                               |                |  section_headers[0:24]: 0x0-0x34af.7 (13488)
      |                                               |                |    [0]{}: section_header 0x0-0x3117.7 (12568)
      |                                               |                |      data: raw bits 0x0-NA (0)
0x30f0|00 00 00 00                                    |....            |      name: "" (0) 0x30f0-0x30f3.7 (4)
0x30f0|            00 00 00 00                        |    ....        |      type: "null" (0x0) (Header inactive) 0x30f4-0x30f7.7 (4)
      |                                               |                |      flags{}: 0x30f8-0x30fb.7 (4)
0x30f0|                        00                     |        .       |        link_order: false 0x30f8-0x30f8 (0.1)
0x30f0|                        00                     |        .       |        info_link: false 0x30f8.1-0x30f8.1 (0.1)
0x30f0|                        00                     |        .       |        strings: false 0x30f8.2-0x30f8.2 (0.1)
0x30f0|                        00                     |        .       |        merge: false 0x30f8.3-0x30f8.3 (0.1)
0x30f0|                        00                     |        .       |        unused0: 0 0x30f8.4-0x30f8.4 (0.1)
0x30f0|                        00                     |        .       |        execinstr: false 0x30f8.5-0x30f8.5 (0.1)
0x30f0|                        00                     |        .       |        alloc: false 0x30f8.6-0x30f8.6 (0.1)
0x30f0|                        00                     |        .       |        write: false 0x30f8.7-0x30f8.7 (0.1)
0x30f0|                           00                  |         .      |        tls: false 0x30f9-0x30f9 (0.1)
0x30f0|                           00                  |         .      |        group: false 0x30f9.1-0x30f9.1 (0.1)
0x30f0|                           00                  |         .      |        os_nonconforming: false 0x30f9.2-0x30f9.2 (0.1)
0x30f0|                           00 00               |         ..     |        unused1: 0 0x30f9.3-0x30fa.3 (1.1)
0x30f0|                              00 00            |          ..    |        os_specific: 0 0x30fa.4-0x30fb.3 (1)
0x30f0|                                 00            |           .    |        processor_specific: 0 0x30fb.4-0x30fb.7 (0.4)
0x30f0|                                    00 00 00 00|            ....|      addr: 0x0 0x30fc-0x30ff.7 (4)
0x3100|00 00 00 00                                    |....            |      offset: 0 0x3100-0x3103.7 (4)
0x3100|            00 00 00 00                        |    ....        |      size: 0x0 0x3104-0x3107.7 (4)
0x3100|                        00 00 00 00            |        ....    |      link: 0 0x3108-0x310b.7 (4)
0x3100|                                    00 00 00 00|            ....|      info: 0 0x310c-0x310f.7 (4)
0x3110|00 00 00 00                                    |....            |      addralign: 0 0x3110-0x3113.7 (4)
0x3110|            00 00 00 00                        |    ....        |      entsize: 0 0x3114-0x3117.7 (4)
      |                                               |                |    [1]{}: section_header 0x1b4-0x313f.7 (12172)
0x01b0|            2f 6c 69 62 2f 6c 64 2d 6d 75 73 6c|    /lib/ld-musl|      data: raw bits 0x1b4-0x1ca.7 (23)
0x01c0|2d 69 33 38 36 2e 73 6f 2e 31 00               |-i386.so.1.     |
0x3110|                        0b 00 00 00            |        ....    |      name: ".interp" (11) 0x3118-0x311b.7 (4)
0x3110|                                    01 00 00 00|            ....|      type: "progbits" (0x1) (Information defined by the program) 0x311c-0x311f.7 (4)
      |                                               |                |      flags{}: 0x3120-0x3123.7 (4)
0x3120|02                                             |.               |        link_order: false 0x3120-0x3120 (0.1)
0x3120|02                                             |.               |        info_link: false 0x3120.1-0x3120.1 (0.1)
0x3120|02                                             |.               |        strings: false 0x3120.2-0x3120.2 (0.1)
0x3120|02                                             |.               |        merge: false 0x3120.3-0x3120.3 (0.1)
0x3120|02                                             |.               |        unused0: 0 0x3120.4-0x3120.4 (0.1)
0x3120|02                                             |.               |        execinstr: false 0x3120.5-0x3120.5 (0.1)
0x3120|02                                             |.               |        alloc: true 0x3120.6-0x3120.6 (0.1)
0x3120|02                                             |.               |        write: false 0x3120.7-0x3120.7 (0.1)
0x3120|   00                                          | .              |        tls: false 0x3121-0x3121 (0.1)
0x3120|   00                                          | .              |        group: false 0x3121.1-0x3121.1 (0.1)
0x3120|   00                                          | .              |        os_nonconforming: false 0x3121.2-0x3121.2 (0.1)
0x3120|   00 00                                       | ..             |        unused1: 0 0x3121.3-0x3122.3 (1.1)
0x3120|      00 00                                    |  ..            |        os_specific: 0 0x3122.4-0x3123.3 (1)
0x3120|         00                                    |   .            |        processor_specific: 0 0x3123.4-0x3123.7 (0.4)
0x3120|            b4 01 00 00                        |    ....        |      addr: 0x1b4 0x3124-0x3127.7 (4)
0x3120|                        b4 01 00 00            |        ....    |      offset: 436 0x3128-0x312b.7 (4)
0x3120|                                    17 00 00 00|            ....|      size: 0x17 0x312c-0x312f.7 (4)
0x3130|00 00 00 00                                    |....            |      link: 0 0x3130-0x3133.7 (4)
0x3130|            00 00 00 00                        |    ....        |      info: 0 0x3134-0x3137.7 (4)
0x3130|                        01 00 00 00            |        ....    |      addralign: 1 0x3138-0x313b.7 (4)
0x3130|                                    00 00 00 00|            ....|      entsize: 0 0x313c-0x313f.7 (4)
      |                                               |                |    [2]{}: section_header 0x1cc-0x3167.7 (12188)
0x01c0|                                    04 00 00 00|            ....|      data: raw bits 0x1cc-0x1f3.7 (40)
0x01d0|18 00 00 00 05 00 00 00 47 4e 55 00 01 00 01 c0|........GNU.....|
*     |until 0x1f3.7 (40)                             |                |
0x3140|13 00 00 00                                    |....            |      name: ".note.gnu.property" (19) 0x3140-0x3143.7 (4)
0x3140|            07 00 00 00                        |    ....        |      type: "note" (0x7) (Information that marks the file in some way) 0x3144-0x3147.7 (4)
      |                                               |                |      flags{}: 0x3148-0x314b.7 (4)
0x3140|                        02                     |        .       |        link_order: false 0x3148-0x3148 (0.1)
0x3140|                        02                     |        .       |        info_link: false 0x3148.1-0x3148.1 (0.1)
0x3140|                        02                     |        .       |        strings: false 0x3148.2-0x3148.2 (0.1)
0x3140|                        02                     |        .       |        merge: false 0x3148.3-0x3148.3 (0.1)
0x3140|                        02                     |        .       |        unused0: 0 0x3148.4-0x3148.4 (0.1)
0x3140|                        02                     |        .       |        execinstr: false 0x3148.5-0x3148.5 (0.1)
0x3140|                        02                     |        .       |        alloc: true 0x3148.6-0x3148.6 (0.1)
0x3140|                        02                     |        .       |        write: false 0x3148.7-0x3148.7 (0.1)
0x3140|                           00                  |         .      |        tls: false 0x3149-0x3149 (0.1)
0x3140|                           00                  |         .      |        group: false 0x3149.1-0x3149.1 (0.1)
0x3140|                           00                  |         .      |        os_nonconforming: false 0x3149.2-0x3149.2 (0.1)
0x3140|                           00 00               |         ..     |        unused1: 0 0x3149.3-0x314a.3 (1.1)
0x3140|                              00 00            |          ..    |        os_specific: 0 0x314a.4-0x314b.3 (1)
0x3140|                                 00            |           .    |        processor_specific: 0 0x314b.4-0x314b.7 (0.4)
0x3140|                                    cc 01 00 00|            ....|      addr: 0x1cc 0x314c-0x314f.7 (4)
0x3150|cc 01 00 00                                    |....            |      offset: 460 0x3150-0x3153.7 (4)
0x3150|            28 00 00 00                        |    (...        |      size: 0x28 0x3154-0x3157.7 (4)
0x3150|                        00 00 00 00            |        ....    |      link: 0 0x3158-0x315b.7 (4)
0x3150|                                    00 00 00 00|            ....|      info: 0 0x315c-0x315f.7 (4)
0x3160|04 00 00 00                                    |....            |      addralign: 4 0x3160-0x3163.7 (4)
0x3160|            00 00 00 00                        |    ....        |      entsize: 0 0x3164-0x3167.7 (4)
      |                                               |                |    [3]{}: section_header 0x1f4-0x318f.7 (12188)
      |                                               |                |      gnu_hash{}: 0x1f4-0x217.7 (36)
0x01f0|            02 00 00 00                        |    ....        |        nbuckets: 2 0x1f4-0x1f7.7 (4)
0x01f0|                        09 00 00 00            |        ....    |        symndx: 9 0x1f8-0x1fb.7 (4)
0x01f0|                                    01 00 00 00|            ....|        maskwords: 1 0x1fc-0x1ff.7 (4)
0x0200|05 00 00 00                                    |....            |        shift2: 5 0x200-0x203.7 (4)
      |                                               |                |        bloom_filter[0:1]: 0x204-0x207.7 (4)
0x0200|            00 24 00 81                        |    .$..        |          [0]: 2164270080 maskword 0x204-0x207.7 (4)
      |                                               |                |        buckets[0:2]: 0x208-0x20f.7 (8)
0x0200|                        09 00 00 00            |        ....    |          [0]: 9 bucket 0x208-0x20b.7 (4)
0x0200|                                    00 00 00 00|            ....|          [1]: 0 bucket 0x20c-0x20f.7 (4)
      |                                               |                |        values[0:2]: 0x210-0x217.7 (8)
0x0210|b8 8d f1 0e                                    |....            |          [0]: 250711480 value 0x210-0x213.7 (4)
0x0210|            eb d3 ef 0e                        |    ....        |          [1]: 250598379 value 0x214-0x217.7 (4)
0x3160|                        26 00 00 00            |        &...    |      name: ".gnu.hash" (38) 0x3168-0x316b.7 (4)
0x3160|                                    f6 ff ff 6f|            ...o|      type: "gnu_hash" (0x6ffffff6) (GNU symbol hash table) 0x316c-0x316f.7 (4)
      |                                               |                |      flags{}: 0x3170-0x3173.7 (4)
0x3170|02                                             |.               |        link_order: false 0x3170-0x3170 (0.1)
0x3170|02                                             |.               |        info_link: false 0x3170.1-0x3170.1 (0.1)
0x3170|02                                             |.               |        strings: false 0x3170.2-0x3170.2 (0.1)
0x3170|02                                             |.               |        merge: false 0x3170.3-0x3170.3 (0.1)
0x3170|02                                             |.               |        unused0: 0 0x3170.4-0x3170.4 (0.1)
0x3170|02                                             |.               |        execinstr: false 0x3170.5-0x3170.5 (0.1)
0x3170|02                                             |.               |        alloc: true 0x3170.6-0x3170.6 (0.1)
0x3170|02                                             |.               |        write: false 0x3170.7-0x3170.7 (0.1)
0x3170|   00                                          | .              |        tls: false 0x3171-0x3171 (0.1)
0x3170|   00                                          | .              |        group: false 0x3171.1-0x3171.1 (0.1)
0x3170|   00                                          | .              |        os_nonconforming: false 0x3171.2-0x3171.2 (0.1)
0x3170|   00 00                                       | ..             |        unused1: 0 0x3171.3-0x3172.3 (1.1)
0x3170|      00 00                                    |  ..            |        os_specific: 0 0x3172.4-0x3173.3 (1)
0x3170|         00                                    |   .            |        processor_specific: 0 0x3173.4-0x3173.7 (0.4)
0x3170|            f4 01 00 00                        |    ....        |      addr: 0x1f4 0x3174-0x3177.7 (4)
0x3170|                        f4 01 00 00            |        ....    |      offset: 500 0x3178-0x317b.7 (4)
0x3170|                                    24 00 00 00|            $...|      size: 0x24 0x317c-0x317f.7 (4)
0x3180|04 00 00 00                                    |....            |      link: 4 0x3180-0x3183.7 (4)
0x3180|            00 00 00 00                        |    ....        |      info: 0 0x3184-0x3187.7 (4)
0x3180|                        04 00 00 00            |        ....    |      addralign: 4 0x3188-0x318b.7 (4)
0x3180|                                    04 00 00 00|            ....|      entsize: 4 0x318c-0x318f.7 (4)
      |                                               |                |    [4]{}: section_header 0x218-0x31b7.7 (12192)
      |                                               |                |      symbol_table[0:11]: 0x218-0x2c7.7 (176)
      |                                               |                |        [0]{}: symbol 0x218-0x227.7 (16)
0x0210|                        00 00 00 00            |        ....    |          name: "" (0) 0x218-0x21b.7 (4)
0x0210|                                    00 00 00 00|            ....|          value: 0 0x21c-0x21f.7 (4)
0x0220|00 00 00 00                                    |....            |          size: 0 0x220-0x223.7 (4)
0x0220|            00                                 |    .           |          bind: "local" (0) 0x224-0x224.3 (0.4)
0x0220|            00                                 |    .           |          type: "notype" (0) 0x224.4-0x224.7 (0.4)
0x0220|               00                              |     .          |          other_unused: 0 0x225-0x225.5 (0.6)
0x0220|               00                              |     .          |          visibility: "default" (0) 0x225.6-0x225.7 (0.2)
0x0220|                  00 00                        |      ..        |          shndx: 0 0x226-0x227.7 (2)
      |                                               |                |        [1]{}: symbol 0x228-0x237.7 (16)
0x0220|                        01 00 00 00            |        ....    |          name: "puts" (1) 0x228-0x22b.7 (4)
0x0220|                                    00 00 00 00|            ....|          value: 0 0x22c-0x22f.7 (4)
0x0230|00 00 00 00                                    |....            |          size: 0 0x230-0x233.7 (4)
0x0230|            12                                 |    .           |          bind: "global" (1) 0x234-0x234.3 (0.4)
0x0230|            12                                 |    .           |          type: "func" (2) 0x234.4-0x234.7 (0.4)
0x0230|               00                              |     .          |          other_unused: 0 0x235-0x235.5 (0.6)
0x0230|               00                              |     .          |          visibility: "default" (0) 0x235.6-0x235.7 (0.2)
0x0230|                  00 00                        |      ..        |          shndx: 0 0x236-0x237.7 (2)
      |                                               |                |        [2]{}: symbol 0x238-0x247.7 (16)
0x0230|                        06 00 00 00            |        ....    |          name: "__cxa_finalize" (6) 0x238-0x23b.7 (4)
0x0230|                                    00 00 00 00|            ....|          value: 0 0x23c-0x23f.7 (4)
0x0240|00 00 00 00                                    |....            |          size: 0 0x240-0x243.7 (4)
0x0240|            22                                 |    "           |          bind: "weak" (2) 0x244-0x244.3 (0.4)
0x0240|            22                                 |    "           |          type: "func" (2) 0x244.4-0x244.7 (0.4)
0x0240|               00                              |     .          |          other_unused: 0 0x245-0x245.5 (0.6)
0x0240|               00                              |     .          |          visibility: "default" (0) 0x245.6-0x245.7 (0.2)
0x0240|                  00 00                        |      ..        |          shndx: 0 0x246-0x247.7 (2)
      |                                               |                |        [3]{}: symbol 0x248-0x257.7 (16)
0x0240|                        15 00 00 00            |        ....    |          name: "__register_frame_info_bases" (21) 0x248-0x24b.7 (4)
0x0240|                                    00 00 00 00|            ....|          value: 0 0x24c-0x24f.7 (4)
0x0250|00 00 00 00                                    |....            |          size: 0 0x250-0x253.7 (4)
0x0250|            20                                 |                |          bind: "weak" (2) 0x254-0x254.3 (0.4)
0x0250|            20                                 |                |          type: "notype" (0) 0x254.4-0x254.7 (0.4)
0x0250|               00                              |     .          |          other_unused: 0 0x255-0x255.5 (0.6)
0x0250|               00                              |     .          |          visibility: "default" (0) 0x255.6-0x255.7 (0.2)
0x0250|                  00 00                        |      ..        |          shndx: 0 0x256-0x257.7 (2)
      |                                               |                |        [4]{}: symbol 0x258-0x267.7 (16)
0x0250|                        31 00 00 00            |        1...    |          name: "_ITM_registerTMCloneTable" (49) 0x258-0x25b.7 (4)
0x0250|                                    00 00 00 00|            ....|          value: 0 0x25c-0x25f.7 (4)
0x0260|00 00 00 00                                    |....            |          size: 0 0x260-0x263.7 (4)
0x0260|            20                                 |                |          bind: "weak" (2) 0x264-0x264.3 (0.4)
0x0260|            20                                 |                |          type: "notype" (0) 0x264.4-0x264.7 (0.4)
0x0260|               00                              |     .          |          other_unused: 0 0x265-0x265.5 (0.6)
0x0260|               00                              |     .          |          visibility: "default" (0) 0x265.6-0x265.7 (0.2)
0x0260|                  00 00                        |      ..        |          shndx: 0 0x266-0x267.7 (2)
      |                                               |                |        [5]{}: symbol 0x268-0x277.7 (16)
0x0260|                        4b 00 00 00            |        K...    |          name: "__deregister_frame_info_bases" (75) 0x268-0x26b.7 (4)
0x0260|                                    00 00 00 00|            ....|          value: 0 0x26c-0x26f.7 (4)
0x0270|00 00 00 00                                    |....            |          size: 0 0x270-0x273.7 (4)
0x0270|            20                                 |                |          bind: "weak" (2) 0x274-0x274.3 (0.4)
0x0270|            20                                 |                |          type: "notype" (0) 0x274.4-0x274.7 (0.4)
0x0270|               00                              |     .          |          other_unused: 0 0x275-0x275.5 (0.6)
0x0270|               00                              |     .          |          visibility: "default" (0) 0x275.6-0x275.7 (0.2)
0x0270|                  00 00                        |      ..        |          shndx: 0 0x276-0x277.7 (2)
      |                                               |                |        [6]{}: symbol 0x278-0x287.7 (16)
0x0270|                        69 00 00 00            |        i...    |          name: "_ITM_deregisterTMCloneTable" (105) 0x278-0x27b.7 (4)
0x0270|                                    00 00 00 00|            ....|          value: 0 0x27c-0x27f.7 (4)
0x0280|00 00 00 00                                    |....            |          size: 0 0x280-0x283.7 (4)
0x0280|            20                                 |                |          bind: "weak" (2) 0x284-0x284.3 (0.4)
0x0280|            20                                 |                |          type: "notype" (0) 0x284.4-0x284.7 (0.4)
0x0280|               00                              |     .          |          other_unused: 0 0x285-0x285.5 (0.6)
0x0280|               00                              |     .          |          visibility: "default" (0) 0x285.6-0x285.7 (0.2)
0x0280|                  00 00                        |      ..        |          shndx: 0 0x286-0x287.7 (2)
      |                                               |                |        [7]{}: symbol 0x288-0x297.7 (16)
0x0280|                        91 00 00 00            |        ....    |          name: "libbbb_bbb" (145) 0x288-0x28b.7 (4)
0x0280|                                    00 00 00 00|            ....|          value: 0 0x28c-0x28f.7 (4)
0x0290|00 00 00 00                                    |....            |          size: 0 0x290-0x293.7 (4)
0x0290|            12                                 |    .           |          bind: "global" (1) 0x294-0x294.3 (0.4)
0x0290|            12                                 |    .           |          type: "func" (2) 0x294.4-0x294.7 (0.4)
0x0290|               00                              |     .          |          other_unused: 0 0x295-0x295.5 (0.6)
0x0290|               00                              |     .          |          visibility: "default" (0) 0x295.6-0x295.7 (0.2)
0x0290|                  00 00                        |      ..        |          shndx: 0 0x296-0x297.7 (2)
      |                                               |                |        [8]{}: symbol 0x298-0x2a7.7 (16)
0x0290|                        9c 00 00 00            |        ....    |          name: "__libc_start_main" (156) 0x298-0x29b.7 (4)
0x0290|                                    00 00 00 00|            ....|          value: 0 0x29c-0x29f.7 (4)
0x02a0|00 00 00 00                                    |....            |          size: 0 0x2a0-0x2a3.7 (4)
0x02a0|            12                                 |    .           |          bind: "global" (1) 0x2a4-0x2a4.3 (0.4)
0x02a0|            12                                 |    .           |          type: "func" (2) 0x2a4.4-0x2a4.7 (0.4)
0x02a0|               00                              |     .          |          other_unused: 0 0x2a5-0x2a5.5 (0.6)
0x02a0|               00                              |     .          |          visibility: "default" (0) 0x2a5.6-0x2a5.7 (0.2)
0x02a0|                  00 00                        |      ..        |          shndx: 0 0x2a6-0x2a7.7 (2)
      |                                               |                |        [9]{}: symbol 0x2a8-0x2b7.7 (16)
0x02a0|                        85 00 00 00            |        ....    |          name: "_init" (133) 0x2a8-0x2ab.7 (4)
0x02a0|                                    00 10 00 00|            ....|          value: 4096 0x2ac-0x2af.7 (4)
0x02b0|01 00 00 00                                    |....            |          size: 1 0x2b0-0x2b3.7 (4)
0x02b0|            12                                 |    .           |          bind: "global" (1) 0x2b4-0x2b4.3 (0.4)
0x02b0|            12                                 |    .           |          type: "func" (2) 0x2b4.4-0x2b4.7 (0.4)
0x02b0|               00                              |     .          |          other_unused: 0 0x2b5-0x2b5.5 (0.6)
0x02b0|               00                              |     .          |          visibility: "default" (0) 0x2b5.6-0x2b5.7 (0.2)
0x02b0|                  08 00                        |      ..        |          shndx: 8 0x2b6-0x2b7.7 (2)
      |                                               |                |        [10]{}: symbol 0x2b8-0x2c7.7 (16)
0x02b0|                        8b 00 00 00            |        ....    |          name: "_fini" (139) 0x2b8-0x2bb.7 (4)
0x02b0|                                    11 13 00 00|            ....|          value: 4881 0x2bc-0x2bf.7 (4)
0x02c0|01 00 00 00                                    |....            |          size: 1 0x2c0-0x2c3.7 (4)
0x02c0|            12                                 |    .           |          bind: "global" (1) 0x2c4-0x2c4.3 (0.4)
0x02c0|            12                                 |    .           |          type: "func" (2) 0x2c4.4-0x2c4.7 (0.4)
0x02c0|               00                              |     .          |          other_unused: 0 0x2c5-0x2c5.5 (0.6)
0x02c0|               00                              |     .          |          visibility: "default" (0) 0x2c5.6-0x2c5.7 (0.2)
0x02c0|                  0c 00                        |      ..        |          shndx: 12 0x2c6-0x2c7.7 (2)
0x3190|30 00 00 00                                    |0...            |      name: ".dynsym" (48) 0x3190-0x3193.7 (4)
0x3190|            0b 00 00 00                        |    ....        |      type: "dynsym" (0xb) (Dynamic linking symbol table) 0x3194-0x3197.7 (4)
      |                                               |                |      flags{}: 0x3198-0x319b.7 (4)
0x3190|                        02                     |        .       |        link_order: false 0x3198-0x3198 (0.1)
0x3190|                        02                     |        .       |        info_link: false 0x3198.1-0x3198.1 (0.1)
0x3190|                        02                     |        .       |        strings: false 0x3198.2-0x3198.2 (0.1)
0x3190|                        02                     |        .       |        merge: false 0x3198.3-0x3198.3 (0.1)
0x3190|                        02                     |        .       |        unused0: 0 0x3198.4-0x3198.4 (0.1)
0x3190|                        02                     |        .       |        execinstr: false 0x3198.5-0x3198.5 (0.1)
0x3190|                        02                     |        .       |        alloc: true 0x3198.6-0x3198.6 (0.1)
0x3190|                        02                     |        .       |        write: false 0x3198.7-0x3198.7 (0.1)
0x3190|                           00                  |         .      |        tls: false 0x3199-0x3199 (0.1)
0x3190|                           00                  |         .      |        group: false 0x3199.1-0x3199.1 (0.1)
0x3190|                           00                  |         .      |        os_nonconforming: false 0x3199.2-0x3199.2 (0.1)
0x3190|                           00 00               |         ..     |        unused1: 0 0x3199.3-0x319a.3 (1.1)
0x3190|                              00 00            |          ..    |        os_specific: 0 0x319a.4-0x319b.3 (1)
0x3190|                                 00            |           .    |        processor_specific: 0 0x319b.4-0x319b.7 (0.4)
0x3190|                                    18 02 00 00|            ....|      addr: 0x218 0x319c-0x319f.7 (4)
0x31a0|18 02 00 00                                    |....            |      offset: 536 0x31a0-0x31a3.7 (4)
0x31a0|            b0 00 00 00                        |    ....        |      size: 0xb0 0x31a4-0x31a7.7 (4)
0x31a0|                        05 00 00 00            |        ....    |      link: 5 0x31a8-0x31ab.7 (4)
0x31a0|                                    01 00 00 00|            ....|      info: 1 0x31ac-0x31af.7 (4)
0x31b0|04 00 00 00                                    |....            |      addralign: 4 0x31b0-0x31b3.7 (4)
0x31b0|            10 00 00 00                        |    ....        |      entsize: 16 0x31b4-0x31b7.7 (4)
      |                                               |                |    [5]{}: section_header 0x2c8-0x31df.7 (12056)
0x02c0|                        00 70 75 74 73 00 5f 5f|        .puts.__|      string: "\x00puts\x00__cxa_finalize\x00__register_frame_info_base..." 0x2c8-0x392.7 (203)
0x02d0|63 78 61 5f 66 69 6e 61 6c 69 7a 65 00 5f 5f 72|cxa_finalize.__r|
*     |until 0x392.7 (203)                            |                |
0x31b0|                        38 00 00 00            |        8...    |      name: ".dynstr" (56) 0x31b8-0x31bb.7 (4)
0x31b0|                                    03 00 00 00|            ....|      type: "strtab" (0x3) (String table) 0x31bc-0x31bf.7 (4)
      |                                               |                |      flags{}: 0x31c0-0x31c3.7 (4)
0x31c0|02                                             |.               |        link_order: false 0x31c0-0x31c0 (0.1)
0x31c0|02                                             |.               |        info_link: false 0x31c0.1-0x31c0.1 (0.1)
0x31c0|02                                             |.               |        strings: false 0x31c0.2-0x31c0.2 (0.1)
0x31c0|02                                             |.               |        merge: false 0x31c0.3-0x31c0.3 (0.1)
0x31c0|02                                             |.               |        unused0: 0 0x31c0.4-0x31c0.4 (0.1)
0x31c0|02                                             |.               |        execinstr: false 0x31c0.5-0x31c0.5 (0.1)
0x31c0|02                                             |.               |        alloc: true 0x31c0.6-0x31c0.6 (0.1)
0x31c0|02                                             |.               |        write: false 0x31c0.7-0x31c0.7 (0.1)
0x31c0|   00                                          | .              |        tls: false 0x31c1-0x31c1 (0.1)
0x31c0|   00                                          | .              |        group: false 0x31c1.1-0x31c1.1 (0.1)
0x31c0|   00                                          | .              |        os_nonconforming: false 0x31c1.2-0x31c1.2 (0.1)
0x31c0|   00 00                                       | ..             |        unused1: 0 0x31c1.3-0x31c2.3 (1.1)
0x31c0|      00 00                                    |  ..            |        os_specific: 0 0x31c2.4-0x31c3.3 (1)
0x31c0|         00                                    |   .            |        processor_specific: 0 0x31c3.4-0x31c3.7 (0.4)
0x31c0|            c8 02 00 00                        |    ....        |      addr: 0x2c8 0x31c4-0x31c7.7 (4)
0x31c0|                        c8 02 00 00            |        ....    |      offset: 712 0x31c8-0x31cb.7 (4)
0x31c0|                                    cb 00 00 00|            ....|      size: 0xcb 0x31cc-0x31cf.7 (4)
0x31d0|00 00 00 00                                    |....            |      link: 0 0x31d0-0x31d3.7 (4)
0x31d0|            00 00 00 00                        |    ....        |      info: 0 0x31d4-0x31d7.7 (4)
0x31d0|                        01 00 00 00            |        ....    |      addralign: 1 0x31d8-0x31db.7 (4)
0x31d0|                                    00 00 00 00|            ....|      entsize: 0 0x31dc-0x31df.7 (4)
      |                                               |                |    [6]{}: section_header 0x394-0x3207.7 (11892)
0x0390|            e4 3f 00 00 08 00 00 00 f8 3f 00 00|    .?.......?..|      data: raw bits 0x394-0x3db.7 (72)
0x03a0|08 00 00 00 fc 3f 00 00 08 00 00 00 00 40 00 00|.....?.......@..|
*     |until 0x3db.7 (72)                             |                |
0x31e0|40 00 00 00                                    |@...            |      name: ".rel.dyn" (64) 0x31e0-0x31e3.7 (4)
0x31e0|            09 00 00 00                        |    ....        |      type: "rel" (0x9) (Relocation entries without explicit addends) 0x31e4-0x31e7.7 (4)
      |                                               |                |      flags{}: 0x31e8-0x31eb.7 (4)
0x31e0|                        02                     |        .       |        link_order: false 0x31e8-0x31e8 (0.1)
0x31e0|                        02                     |        .       |        info_link: false 0x31e8.1-0x31e8.1 (0.1)
0x31e0|                        02                     |        .       |        strings: false 0x31e8.2-0x31e8.2 (0.1)
0x31e0|                        02                     |        .       |        merge: false 0x31e8.3-0x31e8.3 (0.1)
0x31e0|                        02                     |        .       |        unused0: 0 0x31e8.4-0x31e8.4 (0.1)
0x31e0|                        02                     |        .       |        execinstr: false 0x31e8.5-0x31e8.5 (0.1)
0x31e0|                        02                     |        .       |        alloc: true 0x31e8.6-0x31e8.6 (0.1)
0x31e0|                        02                     |        .       |        write: false 0x31e8.7-0x31e8.7 (0.1)
0x31e0|                           00                  |         .      |        tls: false 0x31e9-0x31e9 (0.1)
0x31e0|                           00                  |         .      |        group: false 0x31e9.1-0x31e9.1 (0.1)
0x31e0|                           00                  |         .      |        os_nonconforming: false 0x31e9.2-0x31e9.2 (0.1)
0x31e0|                           00 00               |         ..     |        unused1: 0 0x31e9.3-0x31ea.3 (1.1)
0x31e0|                              00 00            |          ..    |        os_specific: 0 0x31ea.4-0x31eb.3 (1)
0x31e0|                                 00            |           .    |        processor_specific: 0 0x31eb.4-0x31eb.7 (0.4)
0x31e0|                                    94 03 00 00|            ....|      addr: 0x394 0x31ec-0x31ef.7 (4)
0x31f0|94 03 00 00                                    |....            |      offset: 916 0x31f0-0x31f3.7 (4)
0x31f0|            48 00 00 00                        |    H...        |      size: 0x48 0x31f4-0x31f7.7 (4)
0x31f0|                        04 00 00 00            |        ....    |      link: 4 0x31f8-0x31fb.7 (4)
0x31f0|                                    00 00 00 00|            ....|      info: 0 0x31fc-0x31ff.7 (4)
0x3200|04 00 00 00                                    |....            |      addralign: 4 0x3200-0x3203.7 (4)
0x3200|            08 00 00 00                        |    ....        |      entsize: 8 0x3204-0x3207.7 (4)
      |                                               |                |    [7]{}: section_header 0x3dc-0x322f.7 (11860)
0x03d0|                                    d4 3f 00 00|            .?..|      data: raw bits 0x3dc-0x3f3.7 (24)
0x03e0|07 01 00 00 d8 3f 00 00 07 07 00 00 dc 3f 00 00|.....?.......?..|
0x03f0|07 08 00 00                                    |....            |
0x3200|                        49 00 00 00            |        I...    |      name: ".rel.plt" (73) 0x3208-0x320b.7 (4)
0x3200|                                    09 00 00 00|            ....|      type: "rel" (0x9) (Relocation entries without explicit addends) 0x320c-0x320f.7 (4)
      |                                               |                |      flags{}: 0x3210-0x3213.7 (4)
0x3210|42                                             |B               |        link_order: false 0x3210-0x3210 (0.1)
0x3210|42                                             |B               |        info_link: true 0x3210.1-0x3210.1 (0.1)
0x3210|42                                             |B               |        strings: false 0x3210.2-0x3210.2 (0.1)
0x3210|42                                             |B               |        merge: false 0x3210.3-0x3210.3 (0.1)
0x3210|42                                             |B               |        unused0: 0 0x3210.4-0x3210.4 (0.1)
0x3210|42                                             |B               |        execinstr: false 0x3210.5-0x3210.5 (0.1)
0x3210|42                                             |B               |        alloc: true 0x3210.6-0x3210.6 (0.1)
0x3210|42                                             |B               |        write: false 0x3210.7-0x3210.7 (0.1)
0x3210|   00                                          | .              |        tls: false 0x3211-0x3211 (0.1)
0x3210|   00                                          | .              |        group: false 0x3211.1-0x3211.1 (0.1)
0x3210|   00                                          | .              |        os_nonconforming: false 0x3211.2-0x3211.2 (0.1)
0x3210|   00 00                                       | ..             |        unused1: 0 0x3211.3-0x3212.3 (1.1)
0x3210|      00 00                                    |  ..            |        os_specific: 0 0x3212.4-0x3213.3 (1)
0x3210|         00                                    |   .            |        processor_specific: 0 0x3213.4-0x3213.7 (0.4)
0x3210|            dc 03 00 00                        |    ....        |      addr: 0x3dc 0x3214-0x3217.7 (4)
0x3210|                        dc 03 00 00            |        ....    |      offset: 988 0x3218-0x321b.7 (4)
0x3210|                                    18 00 00 00|            ....|      size: 0x18 0x321c-0x321f.7 (4)
0x3220|04 00 00 00                                    |....            |      link: 4 0x3220-0x3223.7 (4)
0x3220|            13 00 00 00                        |    ....        |      info: 19 0x3224-0x3227.7 (4)
0x3220|                        04 00 00 00            |        ....    |      addralign: 4 0x3228-0x322b.7 (4)
0x3220|                                    08 00 00 00|            ....|      entsize: 8 0x322c-0x322f.7 (4)
      |                                               |                |    [8]{}: section_header 0x1000-0x3257.7 (8792)
0x1000|83 ec 0c e8 18 02 00 00 e8 c3 02 00 00 83 c4 0c|................|      data: raw bits 0x1000-0x1010.7 (17)
0x1010|c3                                             |.               |
0x3230|52 00 00 00                                    |R...            |      name: ".init" (82) 0x3230-0x3233.7 (4)
0x3230|            01 00 00 00                        |    ....        |      type: "progbits" (0x1) (Information defined by the program) 0x3234-0x3237.7 (4)
      |                                               |                |      flags{}: 0x3238-0x323b.7 (4)
0x3230|                        06                     |        .       |        link_order: false 0x3238-0x3238 (0.1)
0x3230|                        06                     |        .       |        info_link: false 0x3238.1-0x3238.1 (0.1)
0x3230|                        06                     |        .       |        strings: false 0x3238.2-0x3238.2 (0.1)
0x3230|                        06                     |        .       |        merge: false 0x3238.3-0x3238.3 (0.1)
0x3230|                        06                     |        .       |        unused0: 0 0x3238.4-0x3238.4 (0.1)
0x3230|                        06                     |        .       |        execinstr: true 0x3238.5-0x3238.5 (0.1)
0x3230|                        06                     |        .       |        alloc: true 0x3238.6-0x3238.6 (0.1)
0x3230|                        06                     |        .       |        write: false 0x3238.7-0x3238.7 (0.1)
0x3230|                           00                  |         .      |        tls: false 0x3239-0x3239 (0.1)
0x3230|                           00                  |         .      |        group: false 0x3239.1-0x3239.1 (0.1)
0x3230|                           00                  |         .      |        os_nonconforming: false 0x3239.2-0x3239.2 (0.1)
0x3230|                           00 00               |         ..     |        unused1: 0 0x3239.3-0x323a.3 (1.1)
0x3230|                              00 00            |          ..    |        os_specific: 0 0x323a.4-0x323b.3 (1)
0x3230|                                 00            |           .    |        processor_specific: 0 0x323b.4-0x323b.7 (0.4)
0x3230|                                    00 10 00 00|            ....|      addr: 0x1000 0x323c-0x323f.7 (4)
0x3240|00 10 00 00                                    |....            |      offset: 4096 0x3240-0x3243.7 (4)
0x3240|            11 00 00 00                        |    ....        |      size: 0x11 0x3244-0x3247.7 (4)
0x3240|                        00 00 00 00            |        ....    |      link: 0 0x3248-0x324b.7 (4)
0x3240|                                    00 00 00 00|            ....|      info: 0 0x324c-0x324f.7 (4)
0x3250|01 00 00 00                                    |....            |      addralign: 1 0x3250-0x3253.7 (4)
0x3250|            00 00 00 00                        |    ....        |      entsize: 0 0x3254-0x3257.7 (4)
      |                                               |                |    [9]{}: section_header 0x1020-0x327f.7 (8800)
0x1020|ff b3 04 00 00 00 ff a3 08 00 00 00 00 00 00 00|................|      data: raw bits 0x1020-0x105f.7 (64)
*     |until 0x105f.7 (64)                            |                |
0x3250|                        4d 00 00 00            |        M...    |      name: ".plt" (77) 0x3258-0x325b.7 (4)
0x3250|                                    01 00 00 00|            ....|      type: "progbits" (0x1) (Information defined by the program) 0x325c-0x325f.7 (4)
      |                                               |                |      flags{}: 0x3260-0x3263.7 (4)
0x3260|06                                             |.               |        link_order: false 0x3260-0x3260 (0.1)
0x3260|06                                             |.               |        info_link: false 0x3260.1-0x3260.1 (0.1)
0x3260|06                                             |.               |        strings: false 0x3260.2-0x3260.2 (0.1)
0x3260|06                                             |.               |        merge: false 0x3260.3-0x3260.3 (0.1)
0x3260|06                                             |.               |        unused0: 0 0x3260.4-0x3260.4 (0.1)
0x3260|06                                             |.               |        execinstr: true 0x3260.5-0x3260.5 (0.1)
0x3260|06                                             |.               |        alloc: true 0x3260.6-0x3260.6 (0.1)
0x3260|06                                             |.               |        write: false 0x3260.7-0x3260.7 (0.1)
0x3260|   00                                          | .              |        tls: false 0x3261-0x3261 (0.1)
0x3260|   00                                          | .              |        group: false 0x3261.1-0x3261.1 (0.1)
0x3260|   00                                          | .              |        os_nonconforming: false 0x3261.2-0x3261.2 (0.1)
0x3260|   00 00                                       | ..             |        unused1: 0 0x3261.3-0x3262.3 (1.1)
0x3260|      00 00                                    |  ..            |        os_specific: 0 0x3262.4-0x3263.3 (1)
0x3260|         00                                    |   .            |        processor_specific: 0 0x3263.4-0x3263.7 (0.4)
0x3260|            20 10 00 00                        |     ...        |      addr: 0x1020 0x3264-0x3267.7 (4)
0x3260|                        20 10 00 00            |         ...    |      offset: 4128 0x3268-0x326b.7 (4)
0x3260|                                    40 00 00 00|            @...|      size: 0x40 0x326c-0x326f.7 (4)
0x3270|00 00 00 00                                    |....            |      link: 0 0x3270-0x3273.7 (4)
0x3270|            00 00 00 00                        |    ....        |      info: 0 0x3274-0x3277.7 (4)
0x3270|                        10 00 00 00            |        ....    |      addralign: 16 0x3278-0x327b.7 (4)
0x3270|                                    04 00 00 00|            ....|      entsize: 4 0x327c-0x327f.7 (4)
      |                                               |                |    [10]{}: section_header 0x1060-0x32a7.7 (8776)
0x1060|ff a3 18 00 00 00 66 90 ff a3 20 00 00 00 66 90|......f... ...f.|      data: raw bits 0x1060-0x1077.7 (24)
0x1070|ff a3 28 00 00 00 66 90                        |..(...f.        |
0x3280|58 00 00 00                                    |X...            |      name: ".plt.got" (88) 0x3280-0x3283.7 (4)
0x3280|            01 00 00 00                        |    ....        |      type: "progbits" (0x1) (Information defined by the program) 0x3284-0x3287.7 (4)
      |                                               |                |      flags{}: 0x3288-0x328b.7 (4)
0x3280|                        06                     |        .       |        link_order: false 0x3288-0x3288 (0.1)
0x3280|                        06                     |        .       |        info_link: false 0x3288.1-0x3288.1 (0.1)
0x3280|                        06                     |        .       |        strings: false 0x3288.2-0x3288.2 (0.1)
0x3280|                        06                     |        .       |        merge: false 0x3288.3-0x3288.3 (0.1)
0x3280|                        06                     |        .       |        unused0: 0 0x3288.4-0x3288.4 (0.1)
0x3280|                        06                     |        .       |        execinstr: true 0x3288.5-0x3288.5 (0.1)
0x3280|                        06                     |        .       |        alloc: true 0x3288.6-0x3288.6 (0.1)
0x3280|                        06                     |        .       |        write: false 0x3288.7-0x3288.7 (0.1)
0x3280|                           00                  |         .      |        tls: false 0x3289-0x3289 (0.1)
0x3280|                           00                  |         .      |        group: false 0x3289.1-0x3289.1 (0.1)
0x3280|                           00                  |         .      |        os_nonconforming: false 0x3289.2-0x3289.2 (0.1)
0x3280|                           00 00               |         ..     |        unused1: 0 0x3289.3-0x328a.3 (1.1)
0x3280|                              00 00            |          ..    |        os_specific: 0 0x328a.4-0x328b.3 (1)
0x3280|                                 00            |           .    |        processor_specific: 0 0x328b.4-0x328b.7 (0.4)
0x3280|                                    60 10 00 00|            `...|      addr: 0x1060 0x328c-0x328f.7 (4)
0x3290|60 10 00 00                                    |`...            |      offset: 4192 0x3290-0x3293.7 (4)
0x3290|            18 00 00 00                        |    ....        |      size: 0x18 0x3294-0x3297.7 (4)
0x3290|                        00 00 00 00            |        ....    |      link: 0 0x3298-0x329b.7 (4)
0x3290|                                    00 00 00 00|            ....|      info: 0 0x329c-0x329f.7 (4)
0x32a0|08 00 00 00                                    |....            |      addralign: 8 0x32a0-0x32a3.7 (4)
0x32a0|            08 00 00 00                        |    ....        |      entsize: 8 0x32a4-0x32a7.7 (4)
      |                                               |                |    [11]{}: section_header 0x1080-0x32cf.7 (8784)
0x1080|31 ed 89 e0 83 e4 f0 50 50 e8 00 00 00 00 81 04|1......PP.......|      data: raw bits 0x1080-0x1310.7 (657)
*     |until 0x1310.7 (657)                           |                |
0x32a0|                        61 00 00 00            |        a...    |      name: ".text" (97) 0x32a8-0x32ab.7 (4)
0x32a0|                                    01 00 00 00|            ....|      type: "progbits" (0x1) (Information defined by the program) 0x32ac-0x32af.7 (4)
      |                                               |                |      flags{}: 0x32b0-0x32b3.7 (4)
0x32b0|06                                             |.               |        link_order: false 0x32b0-0x32b0 (0.1)
0x32b0|06                                             |.               |        info_link: false 0x32b0.1-0x32b0.1 (0.1)
0x32b0|06                                             |.               |        strings: false 0x32b0.2-0x32b0.2 (0.1)
0x32b0|06                                             |.               |        merge: false 0x32b0.3-0x32b0.3 (0.1)
0x32b0|06                                             |.               |        unused0: 0 0x32b0.4-0x32b0.4 (0.1)
0x32b0|06                                             |.               |        execinstr: true 0x32b0.5-0x32b0.5 (0.1)
0x32b0|06                                             |.               |        alloc: true 0x32b0.6-0x32b0.6 (0.1)
0x32b0|06                                             |.               |        write: false 0x32b0.7-0x32b0.7 (0.1)
0x32b0|   00                                          | .              |        tls: false 0x32b1-0x32b1 (0.1)
0x32b0|   00                                          | .              |        group: false 0x32b1.1-0x32b1.1 (0.1)
0x32b0|   00                                          | .              |        os_nonconforming: false 0x32b1.2-0x32b1.2 (0.1)
0x32b0|   00 00                                       | ..             |        unused1: 0 0x32b1.3-0x32b2.3 (1.1)
0x32b0|      00 00                                    |  ..            |        os_specific: 0 0x32b2.4-0x32b3.3 (1)
0x32b0|         00                                    |   .            |        processor_specific: 0 0x32b3.4-0x32b3.7 (0.4)
0x32b0|            80 10 00 00                        |    ....        |      addr: 0x1080 0x32b4-0x32b7.7 (4)
0x32b0|                        80 10 00 00            |        ....    |      offset: 4224 0x32b8-0x32bb.7 (4)
0x32b0|                                    91 02 00 00|            ....|      size: 0x291 0x32bc-0x32bf.7 (4)
0x32c0|00 00 00 00                                    |....            |      link: 0 0x32c0-0x32c3.7 (4)
0x32c0|            00 00 00 00                        |    ....        |      info: 0 0x32c4-0x32c7.7 (4)
0x32c0|                        10 00 00 00            |        ....    |      addralign: 16 0x32c8-0x32cb.7 (4)
0x32c0|                                    00 00 00 00|            ....|      entsize: 0 0x32cc-0x32cf.7 (4)
      |                                               |                |    [12]{}: section_header 0x1311-0x32f7.7 (8167)
0x1310|   83 ec 0c e8 57 fe ff ff 83 c4 0c c3         | ....W.......   |      data: raw bits 0x1311-0x131c.7 (12)
0x32d0|67 00 00 00                                    |g...            |      name: ".fini" (103) 0x32d0-0x32d3.7 (4)
0x32d0|            01 00 00 00                        |    ....        |      type: "progbits" (0x1) (Information defined by the program) 0x32d4-0x32d7.7 (4)
      |                                               |                |      flags{}: 0x32d8-0x32db.7 (4)
0x32d0|                        06                     |        .       |        link_order: false 0x32d8-0x32d8 (0.1)
0x32d0|                        06                     |        .       |        info_link: false 0x32d8.1-0x32d8.1 (0.1)
0x32d0|                        06                     |        .       |        strings: false 0x32d8.2-0x32d8.2 (0.1)
0x32d0|                        06                     |        .       |        merge: false 0x32d8.3-0x32d8.3 (0.1)
0x32d0|                        06                     |        .       |        unused0: 0 0x32d8.4-0x32d8.4 (0.1)
0x32d0|                        06                     |        .       |        execinstr: true 0x32d8.5-0x32d8.5 (0.1)
0x32d0|                        06                     |        .       |        alloc: true 0x32d8.6-0x32d8.6 (0.1)
0x32d0|                        06                     |        .       |        write: false 0x32d8.7-0x32d8.7 (0.1)
0x32d0|                           00                  |         .      |        tls: false 0x32d9-0x32d9 (0.1)
0x32d0|                           00                  |         .      |        group: false 0x32d9.1-0x32d9.1 (0.1)
0x32d0|                           00                  |         .      |        os_nonconforming: false 0x32d9.2-0x32d9.2 (0.1)
0x32d0|                           00 00               |         ..     |        unused1: 0 0x32d9.3-0x32da.3 (1.1)
0x32d0|                              00 00            |          ..    |        os_specific: 0 0x32da.4-0x32db.3 (1)
0x32d0|                                 00            |           .    |        processor_specific: 0 0x32db.4-0x32db.7 (0.4)
0x32d0|                                    11 13 00 00|            ....|      addr: 0x1311 0x32dc-0x32df.7 (4)
0x32e0|11 13 00 00                                    |....            |      offset: 4881 0x32e0-0x32e3.7 (4)
0x32e0|            0c 00 00 00                        |    ....        |      size: 0xc 0x32e4-0x32e7.7 (4)
0x32e0|                        00 00 00 00            |        ....    |      link: 0 0x32e8-0x32eb.7 (4)
0x32e0|                                    00 00 00 00|            ....|      info: 0 0x32ec-0x32ef.7 (4)
0x32f0|01 00 00 00                                    |....            |      addralign: 1 0x32f0-0x32f3.7 (4)
0x32f0|            00 00 00 00                        |    ....        |      entsize: 0 0x32f4-0x32f7.7 (4)
      |                                               |                |    [13]{}: section_header 0x2000-0x331f.7 (4896)
0x2000|61 61 61 00                                    |aaa.            |      data: raw bits 0x2000-0x2003.7 (4)
0x32f0|                        6d 00 00 00            |        m...    |      name: ".rodata" (109) 0x32f8-0x32fb.7 (4)
0x32f0|                                    01 00 00 00|            ....|      type: "progbits" (0x1) (Information defined by the program) 0x32fc-0x32ff.7 (4)
      |                                               |                |      flags{}: 0x3300-0x3303.7 (4)
0x3300|02                                             |.               |        link_order: false 0x3300-0x3300 (0.1)
0x3300|02                                             |.               |        info_link: false 0x3300.1-0x3300.1 (0.1)
0x3300|02                                             |.               |        strings: false 0x3300.2-0x3300.2 (0.1)
0x3300|02                                             |.               |        merge: false 0x3300.3-0x3300.3 (0.1)
0x3300|02                                             |.               |        unused0: 0 0x3300.4-0x3300.4 (0.1)
0x3300|02                                             |.               |        execinstr: false 0x3300.5-0x3300.5 (0.1)
0x3300|02                                             |.               |        alloc: true 0x3300.6-0x3300.6 (0.1)
0x3300|02                                             |.               |        write: false 0x3300.7-0x3300.7 (0.1)
0x3300|   00                                          | .              |        tls: false 0x3301-0x3301 (0.1)
0x3300|   00                                          | .              |        group: false 0x3301.1-0x3301.1 (0.1)
0x3300|   00                                          | .              |        os_nonconforming: false 0x3301.2-0x3301.2 (0.1)
0x3300|   00 00                                       | ..             |        unused1: 0 0x3301.3-0x3302.3 (1.1)
0x3300|      00 00                                    |  ..            |        os_specific: 0 0x3302.4-0x3303.3 (1)
0x3300|         00                                    |   .            |        processor_specific: 0 0x3303.4-0x3303.7 (0.4)
0x3300|            00 20 00 00                        |    . ..        |      addr: 0x2000 0x3304-0x3307.7 (4)
0x3300|                        00 20 00 00            |        . ..    |      offset: 8192 0x3308-0x330b.7 (4)
0x3300|                                    04 00 00 00|            ....|      size: 0x4 0x330c-0x330f.7 (4)
0x3310|00 00 00 00                                    |....            |      link: 0 0x3310-0x3313.7 (4)
0x3310|            00 00 00 00                        |    ....        |      info: 0 0x3314-0x3317.7 (4)
0x3310|                        01 00 00 00            |        ....    |      addralign: 1 0x3318-0x331b.7 (4)
0x3310|                                    00 00 00 00|            ....|      entsize: 0 0x331c-0x331f.7 (4)
      |                                               |                |    [14]{}: section_header 0x2004-0x3347.7 (4932)
0x2000|            01 1b 03 3b 30 00 00 00 05 00 00 00|    ...;0.......|      data: raw bits 0x2004-0x2037.7 (52)
0x2010|1c f0 ff ff 4c 00 00 00 5c f0 ff ff 70 00 00 00|....L...\...p...|
*     |until 0x2037.7 (52)                            |                |
0x3320|75 00 00 00                                    |u...            |      name: ".eh_frame_hdr" (117) 0x3320-0x3323.7 (4)
0x3320|            01 00 00 00                        |    ....        |      type: "progbits" (0x1) (Information defined by the program) 0x3324-0x3327.7 (4)
      |                                               |                |      flags{}: 0x3328-0x332b.7 (4)
0x3320|                        02                     |        .       |        link_order: false 0x3328-0x3328 (0.1)
0x3320|                        02                     |        .       |        info_link: false 0x3328.1-0x3328.1 (0.1)
0x3320|                        02                     |        .       |        strings: false 0x3328.2-0x3328.2 (0.1)
0x3320|                        02                     |        .       |        merge: false 0x3328.3-0x3328.3 (0.1)
0x3320|                        02                     |        .       |        unused0: 0 0x3328.4-0x3328.4 (0.1)
0x3320|                        02                     |        .       |        execinstr: false 0x3328.5-0x3328.5 (0.1)
0x3320|                        02                     |        .       |        alloc: true 0x3328.6-0x3328.6 (0.1)
0x3320|                        02                     |        .       |        write: false 0x3328.7-0x3328.7 (0.1)
0x3320|                           00                  |         .      |        tls: false 0x3329-0x3329 (0.1)
0x3320|                           00                  |         .      |        group: false 0x3329.1-0x3329.1 (0.1)
0x3320|                           00                  |         .      |        os_nonconforming: false 0x3329.2-0x3329.2 (0.1)
0x3320|                           00 00               |         ..     |        unused1: 0 0x3329.3-0x332a.3 (1.1)
0x3320|                              00 00            |          ..    |        os_specific: 0 0x332a.4-0x332b.3 (1)
0x3320|                                 00            |           .    |        processor_specific: 0 0x332b.4-0x332b.7 (0.4)
0x3320|                                    04 20 00 00|            . ..|      addr: 0x2004 0x332c-0x332f.7 (4)
0x3330|04 20 00 00                                    |. ..            |      offset: 8196 0x3330-0x3333.7 (4)
0x3330|            34 00 00 00                        |    4...        |      size: 0x34 0x3334-0x3337.7 (4)
0x3330|                        00 00 00 00            |        ....    |      link: 0 0x3338-0x333b.7 (4)
0x3330|                                    00 00 00 00|            ....|      info: 0 0x333c-0x333f.7 (4)
0x3340|04 00 00 00                                    |....            |      addralign: 4 0x3340-0x3343.7 (4)
0x3340|            00 00 00 00                        |    ....        |      entsize: 0 0x3344-0x3347.7 (4)
      |                                               |                |    [15]{}: section_header 0x2038-0x336f.7 (4920)
0x2030|                        14 00 00 00 00 00 00 00|        ........|      data: raw bits 0x2038-0x20e7.7 (176)
0x2040|01 7a 52 00 01 7c 08 01 1b 0c 04 04 88 01 00 00|.zR..|..........|
*     |until 0x20e7.7 (176)                           |                |
0x3340|                        83 00 00 00            |        ....    |      name: ".eh_frame" (131) 0x3348-0x334b.7 (4)
0x3340|                                    01 00 00 00|            ....|      type: "progbits" (0x1) (Information defined by the program) 0x334c-0x334f.7 (4)
      |                                               |                |      flags{}: 0x3350-0x3353.7 (4)
0x3350|02                                             |.               |        link_order: false 0x3350-0x3350 (0.1)
0x3350|02                                             |.               |        info_link: false 0x3350.1-0x3350.1 (0.1)
0x3350|02                                             |.               |        strings: false 0x3350.2-0x3350.2 (0.1)
0x3350|02                                             |.               |        merge: false 0x3350.3-0x3350.3 (0.1)
0x3350|02                                             |.               |        unused0: 0 0x3350.4-0x3350.4 (0.1)
0x3350|02                                             |.               |        execinstr: false 0x3350.5-0x3350.5 (0.1)
0x3350|02                                             |.               |        alloc: true 0x3350.6-0x3350.6 (0.1)
0x3350|02                                             |.               |        write: false 0x3350.7-0x3350.7 (0.1)
0x3350|   00                                          | .              |        tls: false 0x3351-0x3351 (0.1)
0x3350|   00                                          | .              |        group: false 0x3351.1-0x3351.1 (0.1)
0x3350|   00                                          | .              |        os_nonconforming: false 0x3351.2-0x3351.2 (0.1)
0x3350|   00 00                                       | ..             |        unused1: 0 0x3351.3-0x3352.3 (1.1)
0x3350|      00 00                                    |  ..            |        os_specific: 0 0x3352.4-0x3353.3 (1)
0x3350|         00                                    |   .            |        processor_specific: 0 0x3353.4-0x3353.7 (0.4)
0x3350|            38 20 00 00                        |    8 ..        |      addr: 0x2038 0x3354-0x3357.7 (4)
0x3350|                        38 20 00 00            |        8 ..    |      offset: 8248 0x3358-0x335b.7 (4)
0x3350|                                    b0 00 00 00|            ....|      size: 0xb0 0x335c-0x335f.7 (4)
0x3360|00 00 00 00                                    |....            |      link: 0 0x3360-0x3363.7 (4)
0x3360|            00 00 00 00                        |    ....        |      info: 0 0x3364-0x3367.7 (4)
0x3360|                        04 00 00 00            |        ....    |      addralign: 4 0x3368-0x336b.7 (4)
0x3360|                                    00 00 00 00|            ....|      entsize: 0 0x336c-0x336f.7 (4)
      |                                               |                |    [16]{}: section_header 0x2ef0-0x3397.7 (1192)
0x2ef0|ff ff ff ff 00 00 00 00                        |........        |      data: raw bits 0x2ef0-0x2ef7.7 (8)
0x3370|8d 00 00 00                                    |....            |      name: ".ctors" (141) 0x3370-0x3373.7 (4)
0x3370|            01 00 00 00                        |    ....        |      type: "progbits" (0x1) (Information defined by the program) 0x3374-0x3377.7 (4)
      |                                               |                |      flags{}: 0x3378-0x337b.7 (4)
0x3370|                        03                     |        .       |        link_order: false 0x3378-0x3378 (0.1)
0x3370|                        03                     |        .       |        info_link: false 0x3378.1-0x3378.1 (0.1)
0x3370|                        03                     |        .       |        strings: false 0x3378.2-0x3378.2 (0.1)
0x3370|                        03                     |        .       |        merge: false 0x3378.3-0x3378.3 (0.1)
0x3370|                        03                     |        .       |        unused0: 0 0x3378.4-0x3378.4 (0.1)
0x3370|                        03                     |        .       |        execinstr: false 0x3378.5-0x3378.5 (0.1)
0x3370|                        03                     |        .       |        alloc: true 0x3378.6-0x3378.6 (0.1)
0x3370|                        03                     |        .       |        write: true 0x3378.7-0x3378.7 (0.1)
0x3370|                           00                  |         .      |        tls: false 0x3379-0x3379 (0.1)
0x3370|                           00                  |         .      |        group: false 0x3379.1-0x3379.1 (0.1)
0x3370|                           00                  |         .      |        os_nonconforming: false 0x3379.2-0x3379.2 (0.1)
0x3370|                           00 00               |         ..     |        unused1: 0 0x3379.3-0x337a.3 (1.1)
0x3370|                              00 00            |          ..    |        os_specific: 0 0x337a.4-0x337b.3 (1)
0x3370|                                 00            |           .    |        processor_specific: 0 0x337b.4-0x337b.7 (0.4)
0x3370|                                    f0 3e 00 00|            .>..|      addr: 0x3ef0 0x337c-0x337f.7 (4)
0x3380|f0 2e 00 00                                    |....            |      offset: 12016 0x3380-0x3383.7 (4)
0x3380|            08 00 00 00                        |    ....        |      size: 0x8 0x3384-0x3387.7 (4)
0x3380|                        00 00 00 00            |        ....    |      link: 0 0x3388-0x338b.7 (4)
0x3380|                                    00 00 00 00|            ....|      info: 0 0x338c-0x338f.7 (4)
0x3390|04 00 00 00                                    |....            |      addralign: 4 0x3390-0x3393.7 (4)
0x3390|            00 00 00 00                        |    ....        |      entsize: 0 0x3394-0x3397.7 (4)
      |                                               |                |    [17]{}: section_header 0x2ef8-0x33bf.7 (1224)
0x2ef0|                        ff ff ff ff 00 00 00 00|        ........|      data: raw bits 0x2ef8-0x2eff.7 (8)
0x3390|                        94 00 00 00            |        ....    |      name: ".dtors" (148) 0x3398-0x339b.7 (4)
0x3390|                                    01 00 00 00|            ....|      type: "progbits" (0x1) (Information defined by the program) 0x339c-0x339f.7 (4)
      |                                               |                |      flags{}: 0x33a0-0x33a3.7 (4)
0x33a0|03                                             |.               |        link_order: false 0x33a0-0x33a0 (0.1)
0x33a0|03                                             |.               |        info_link: false 0x33a0.1-0x33a0.1 (0.1)
0x33a0|03                                             |.               |        strings: false 0x33a0.2-0x33a0.2 (0.1)
0x33a0|03                                             |.               |        merge: false 0x33a0.3-0x33a0.3 (0.1)
0x33a0|03                                             |.               |        unused0: 0 0x33a0.4-0x33a0.4 (0.1)
0x33a0|03                                             |.               |        execinstr: false 0x33a0.5-0x33a0.5 (0.1)
0x33a0|03                                             |.               |        alloc: true 0x33a0.6-0x33a0.6 (0.1)
0x33a0|03                                             |.               |        write: true 0x33a0.7-0x33a0.7 (0.1)
0x33a0|   00                                          | .              |        tls: false 0x33a1-0x33a1 (0.1)
0x33a0|   00                                          | .              |        group: false 0x33a1.1-0x33a1.1 (0.1)
0x33a0|   00                                          | .              |        os_nonconforming: false 0x33a1.2-0x33a1.2 (0.1)
0x33a0|   00 00                                       | ..             |        unused1: 0 0x33a1.3-0x33a2.3 (1.1)
0x33a0|      00 00                                    |  ..            |        os_specific: 0 0x33a2.4-0x33a3.3 (1)
0x33a0|         00                                    |   .            |        processor_specific: 0 0x33a3.4-0x33a3.7 (0.4)
0x33a0|            f8 3e 00 00                        |    .>..        |      addr: 0x3ef8 0x33a4-0x33a7.7 (4)
0x33a0|                        f8 2e 00 00            |        ....    |      offset: 12024 0x33a8-0x33ab.7 (4)
0x33a0|                                    08 00 00 00|            ....|      size: 0x8 0x33ac-0x33af.7 (4)
0x33b0|00 00 00 00                                    |....            |      link: 0 0x33b0-0x33b3.7 (4)
0x33b0|            00 00 00 00                        |    ....        |      info: 0 0x33b4-0x33b7.7 (4)
0x33b0|                        04 00 00 00            |        ....    |      addralign: 4 0x33b8-0x33bb.7 (4)
0x33b0|                                    00 00 00 00|            ....|      entsize: 0 0x33bc-0x33bf.7 (4)
      |                                               |                |    [18]{}: section_header 0x2f00-0x33e7.7 (1256)
      |                                               |                |      dynamic_tags[0:21]: 0x2f00-0x2fa7.7 (168)
      |                                               |                |        [0]{}: dynamic_tags 0x2f00-0x2f07.7 (8)
0x2f00|01 00 00 00                                    |....            |          tag: "needed" (1) (String table offset to name of a needed library) 0x2f00-0x2f03.7 (4)
0x2f00|            ae 00 00 00                        |    ....        |          val: "libbbb.so" (174) 0x2f04-0x2f07.7 (4)
      |                                               |                |        [1]{}: dynamic_tags 0x2f08-0x2f0f.7 (8)
0x2f00|                        01 00 00 00            |        ....    |          tag: "needed" (1) (String table offset to name of a needed library) 0x2f08-0x2f0b.7 (4)
0x2f00|                                    b8 00 00 00|            ....|          val: "libc.musl-x86.so.1" (184) 0x2f0c-0x2f0f.7 (4)
      |                                               |                |        [2]{}: dynamic_tags 0x2f10-0x2f17.7 (8)
0x2f10|0c 00 00 00                                    |....            |          tag: "init" (12) (Address of the initialization function) 0x2f10-0x2f13.7 (4)
0x2f10|            00 10 00 00                        |    ....        |          ptr: 0x1000 0x2f14-0x2f17.7 (4)
      |                                               |                |          section_index: 8
      |                                               |                |        [3]{}: dynamic_tags 0x2f18-0x2f1f.7 (8)
0x2f10|                        0d 00 00 00            |        ....    |          tag: "fini" (13) (Address of the termination function) 0x2f18-0x2f1b.7 (4)
0x2f10|                                    11 13 00 00|            ....|          ptr: 0x1311 0x2f1c-0x2f1f.7 (4)
      |                                               |                |          section_index: 12
      |                                               |                |        [4]{}: dynamic_tags 0x2f20-0x2f27.7 (8)
0x2f20|f5 fe ff 6f                                    |...o            |          tag: 1879047925 0x2f20-0x2f23.7 (4)
0x2f20|            f4 01 00 00                        |    ....        |          unspecified: 0x1f4 0x2f24-0x2f27.7 (4)
      |                                               |                |        [5]{}: dynamic_tags 0x2f28-0x2f2f.7 (8)
0x2f20|                        05 00 00 00            |        ....    |          tag: "strtab" (5) (Address of string table) 0x2f28-0x2f2b.7 (4)
0x2f20|                                    c8 02 00 00|            ....|          ptr: 0x2c8 0x2f2c-0x2f2f.7 (4)
      |                                               |                |          section_index: 5
      |                                               |                |        [6]{}: dynamic_tags 0x2f30-0x2f37.7 (8)
0x2f30|06 00 00 00                                    |....            |          tag: "symtab" (6) (Address of symbol table) 0x2f30-0x2f33.7 (4)
0x2f30|            18 02 00 00                        |    ....        |          ptr: 0x218 0x2f34-0x2f37.7 (4)
      |                                               |                |          section_index: 4
      |                                               |                |        [7]{}: dynamic_tags 0x2f38-0x2f3f.7 (8)
0x2f30|                        0a 00 00 00            |        ....    |          tag: "strsz" (10) (Size in bytes of string table) 0x2f38-0x2f3b.7 (4)
0x2f30|                                    cb 00 00 00|            ....|          val: 203 0x2f3c-0x2f3f.7 (4)
      |                                               |                |        [8]{}: dynamic_tags 0x2f40-0x2f47.7 (8)
0x2f40|0b 00 00 00                                    |....            |          tag: "syment" (11) (Size in bytes of a symbol table entry) 0x2f40-0x2f43.7 (4)
0x2f40|            10 00 00 00                        |    ....        |          val: 16 0x2f44-0x2f47.7 (4)
      |                                               |                |        [9]{}: dynamic_tags 0x2f48-0x2f4f.7 (8)
0x2f40|                        15 00 00 00            |        ....    |          tag: "debug" (21) (Undefined use for debugging) 0x2f48-0x2f4b.7 (4)
0x2f40|                                    00 00 00 00|            ....|          ptr: 0x0 0x2f4c-0x2f4f.7 (4)
      |                                               |                |        [10]{}: dynamic_tags 0x2f50-0x2f57.7 (8)
0x2f50|03 00 00 00                                    |....            |          tag: "pltgot" (3) (Address of PLT and/or GOT) 0x2f50-0x2f53.7 (4)
0x2f50|            c8 3f 00 00                        |    .?..        |          ptr: 0x3fc8 0x2f54-0x2f57.7 (4)
      |                                               |                |          section_index: 19
      |                                               |                |        [11]{}: dynamic_tags 0x2f58-0x2f5f.7 (8)
0x2f50|                        02 00 00 00            |        ....    |          tag: "pltrelsz" (2) (Size in bytes of PLT relocation entries) 0x2f58-0x2f5b.7 (4)
0x2f50|                                    18 00 00 00|            ....|          val: 24 0x2f5c-0x2f5f.7 (4)
      |                                               |                |        [12]{}: dynamic_tags 0x2f60-0x2f67.7 (8)
0x2f60|14 00 00 00                                    |....            |          tag: "pltrel" (20) (Type of relocation entry to which the PLT refers (Rela or Rel)) 0x2f60-0x2f63.7 (4)
0x2f60|            11 00 00 00                        |    ....        |          val: 17 0x2f64-0x2f67.7 (4)
      |                                               |                |        [13]{}: dynamic_tags 0x2f68-0x2f6f.7 (8)
0x2f60|                        17 00 00 00            |        ....    |          tag: "jmprel" (23) (Address of relocation entries associated solely with the PLT) 0x2f68-0x2f6b.7 (4)
0x2f60|                                    dc 03 00 00|            ....|          ptr: 0x3dc 0x2f6c-0x2f6f.7 (4)
      |                                               |                |          section_index: 7
      |                                               |                |        [14]{}: dynamic_tags 0x2f70-0x2f77.7 (8)
0x2f70|11 00 00 00                                    |....            |          tag: "rel" (17) 0x2f70-0x2f73.7 (4)
0x2f70|            94 03 00 00                        |    ....        |          ptr: 0x394 0x2f74-0x2f77.7 (4)
      |                                               |                |        [15]{}: dynamic_tags 0x2f78-0x2f7f.7 (8)
0x2f70|                        12 00 00 00            |        ....    |          tag: "relsz" (18) (Size in bytes of Rel relocation table) 0x2f78-0x2f7b.7 (4)
0x2f70|                                    48 00 00 00|            H...|          val: 72 0x2f7c-0x2f7f.7 (4)
      |                                               |                |        [16]{}: dynamic_tags 0x2f80-0x2f87.7 (8)
0x2f80|13 00 00 00                                    |....            |          tag: "relent" (19) (Size in bytes of a Rel table entry) 0x2f80-0x2f83.7 (4)
0x2f80|            08 00 00 00                        |    ....        |          val: 8 0x2f84-0x2f87.7 (4)
      |                                               |                |        [17]{}: dynamic_tags 0x2f88-0x2f8f.7 (8)
0x2f80|                        18 00 00 00            |        ....    |          tag: "bind_now" (24) (Instruct dynamic linker to process all relocations before transferring control to the executable) 0x2f88-0x2f8b.7 (4)
0x2f80|                                    00 00 00 00|            ....|          ignored: 0x0 0x2f8c-0x2f8f.7 (4)
      |                                               |                |        [18]{}: dynamic_tags 0x2f90-0x2f97.7 (8)
0x2f90|fb ff ff 6f                                    |...o            |          tag: 1879048187 0x2f90-0x2f93.7 (4)
0x2f90|            01 00 00 08                        |    ....        |          unspecified: 0x8000001 0x2f94-0x2f97.7 (4)
      |                                               |                |        [19]{}: dynamic_tags 0x2f98-0x2f9f.7 (8)
0x2f90|                        fa ff ff 6f            |        ...o    |          tag: 1879048186 0x2f98-0x2f9b.7 (4)
0x2f90|                                    04 00 00 00|            ....|          unspecified: 0x4 0x2f9c-0x2f9f.7 (4)
      |                                               |                |        [20]{}: dynamic_tags 0x2fa0-0x2fa7.7 (8)
0x2fa0|00 00 00 00                                    |....            |          tag: "null" (0) (Marks end of dynamic section) 0x2fa0-0x2fa3.7 (4)
0x2fa0|            00 00 00 00                        |    ....        |          ignored: 0x0 0x2fa4-0x2fa7.7 (4)
0x33c0|9b 00 00 00                                    |....            |      name: ".dynamic" (155) 0x33c0-0x33c3.7 (4)
0x33c0|            06 00 00 00                        |    ....        |      type: "dynamic" (0x6) (Information for dynamic linking) 0x33c4-0x33c7.7 (4)
      |                                               |                |      flags{}: 0x33c8-0x33cb.7 (4)
0x33c0|                        03                     |        .       |        link_order: false 0x33c8-0x33c8 (0.1)
0x33c0|                        03                     |        .       |        info_link: false 0x33c8.1-0x33c8.1 (0.1)
0x33c0|                        03                     |        .       |        strings: false 0x33c8.2-0x33c8.2 (0.1)
0x33c0|                        03                     |        .       |        merge: false 0x33c8.3-0x33c8.3 (0.1)
0x33c0|                        03                     |        .       |        unused0: 0 0x33c8.4-0x33c8.4 (0.1)
0x33c0|                        03                     |        .       |        execinstr: false 0x33c8.5-0x33c8.5 (0.1)
0x33c0|                        03                     |        .       |        alloc: true 0x33c8.6-0x33c8.6 (0.1)
0x33c0|                        03                     |        .       |        write: true 0x33c8.7-0x33c8.7 (0.1)
0x33c0|                           00                  |         .      |        tls: false 0x33c9-0x33c9 (0.1)
0x33c0|                           00                  |         .      |        group: false 0x33c9.1-0x33c9.1 (0.1)
0x33c0|                           00                  |         .      |        os_nonconforming: false 0x33c9.2-0x33c9.2 (0.1)
0x33c0|                           00 00               |         ..     |        unused1: 0 0x33c9.3-0x33ca.3 (1.1)
0x33c0|                              00 00            |          ..    |        os_specific: 0 0x33ca.4-0x33cb.3 (1)
0x33c0|                                 00            |           .    |        processor_specific: 0 0x33cb.4-0x33cb.7 (0.4)
0x33c0|                                    00 3f 00 00|            .?..|      addr: 0x3f00 0x33cc-0x33cf.7 (4)
0x33d0|00 2f 00 00                                    |./..            |      offset: 12032 0x33d0-0x33d3.7 (4)
0x33d0|            c8 00 00 00                        |    ....        |      size: 0xc8 0x33d4-0x33d7.7 (4)
0x33d0|                        05 00 00 00            |        ....    |      link: 5 0x33d8-0x33db.7 (4)
0x33d0|                                    00 00 00 00|            ....|      info: 0 0x33dc-0x33df.7 (4)
0x33e0|04 00 00 00                                    |....            |      addralign: 4 0x33e0-0x33e3.7 (4)
0x33e0|            08 00 00 00                        |    ....        |      entsize: 8 0x33e4-0x33e7.7 (4)
      |                                               |                |    [19]{}: section_header 0x2fc8-0x340f.7 (1096)
0x2fc0|                        00 3f 00 00 00 00 00 00|        .?......|      data: raw bits 0x2fc8-0x2fff.7 (56)
0x2fd0|00 00 00 00 36 10 00 00 46 10 00 00 56 10 00 00|....6...F...V...|
*     |until 0x2fff.7 (56)                            |                |
0x33e0|                        5c 00 00 00            |        \...    |      name: ".got" (92) 0x33e8-0x33eb.7 (4)
0x33e0|                                    01 00 00 00|            ....|      type: "progbits" (0x1) (Information defined by the program) 0x33ec-0x33ef.7 (4)
      |                                               |                |      flags{}: 0x33f0-0x33f3.7 (4)
0x33f0|03                                             |.               |        link_order: false 0x33f0-0x33f0 (0.1)
0x33f0|03                                             |.               |        info_link: false 0x33f0.1-0x33f0.1 (0.1)
0x33f0|03                                             |.               |        strings: false 0x33f0.2-0x33f0.2 (0.1)
0x33f0|03                                             |.               |        merge: false 0x33f0.3-0x33f0.3 (0.1)
0x33f0|03                                             |.               |        unused0: 0 0x33f0.4-0x33f0.4 (0.1)
0x33f0|03                                             |.               |        execinstr: false 0x33f0.5-0x33f0.5 (0.1)
0x33f0|03                                             |.               |        alloc: true 0x33f0.6-0x33f0.6 (0.1)
0x33f0|03                                             |.               |        write: true 0x33f0.7-0x33f0.7 (0.1)
0x33f0|   00                                          | .              |        tls: false 0x33f1-0x33f1 (0.1)
0x33f0|   00                                          | .              |        group: false 0x33f1.1-0x33f1.1 (0.1)
0x33f0|   00                                          | .              |        os_nonconforming: false 0x33f1.2-0x33f1.2 (0.1)
0x33f0|   00 00                                       | ..             |        unused1: 0 0x33f1.3-0x33f2.3 (1.1)
0x33f0|      00 00                                    |  ..            |        os_specific: 0 0x33f2.4-0x33f3.3 (1)
0x33f0|         00                                    |   .            |        processor_specific: 0 0x33f3.4-0x33f3.7 (0.4)
0x33f0|            c8 3f 00 00                        |    .?..        |      addr: 0x3fc8 0x33f4-0x33f7.7 (4)
0x33f0|                        c8 2f 00 00            |        ./..    |      offset: 12232 0x33f8-0x33fb.7 (4)
0x33f0|                                    38 00 00 00|            8...|      size: 0x38 0x33fc-0x33ff.7 (4)
0x3400|00 00 00 00                                    |....            |      link: 0 0x3400-0x3403.7 (4)
0x3400|            00 00 00 00                        |    ....        |      info: 0 0x3404-0x3407.7 (4)
0x3400|                        04 00 00 00            |        ....    |      addralign: 4 0x3408-0x340b.7 (4)
0x3400|                                    04 00 00 00|            ....|      entsize: 4 0x340c-0x340f.7 (4)
      |                                               |                |    [20]{}: section_header 0x3000-0x3437.7 (1080)
0x3000|00 40 00 00                                    |.@..            |      data: raw bits 0x3000-0x3003.7 (4)
0x3410|a4 00 00 00                                    |....            |      name: ".data" (164) 0x3410-0x3413.7 (4)
0x3410|            01 00 00 00                        |    ....        |      type: "progbits" (0x1) (Information defined by the program) 0x3414-0x3417.7 (4)
      |                                               |                |      flags{}: 0x3418-0x341b.7 (4)
0x3410|                        03                     |        .       |        link_order: false 0x3418-0x3418 (0.1)
0x3410|                        03                     |        .       |        info_link: false 0x3418.1-0x3418.1 (0.1)
0x3410|                        03                     |        .       |        strings: false 0x3418.2-0x3418.2 (0.1)
0x3410|                        03                     |        .       |        merge: false 0x3418.3-0x3418.3 (0.1)
0x3410|                        03                     |        .       |        unused0: 0 0x3418.4-0x3418.4 (0.1)
0x3410|                        03                     |        .       |        execinstr: false 0x3418.5-0x3418.5 (0.1)
0x3410|                        03                     |        .       |        alloc: true 0x3418.6-0x3418.6 (0.1)
0x3410|                        03                     |        .       |        write: true 0x3418.7-0x3418.7 (0.1)
0x3410|                           00                  |         .      |        tls: false 0x3419-0x3419 (0.1)
0x3410|                           00                  |         .      |        group: false 0x3419.1-0x3419.1 (0.1)
0x3410|                           00                  |         .      |        os_nonconforming: false 0x3419.2-0x3419.2 (0.1)
0x3410|                           00 00               |         ..     |        unused1: 0 0x3419.3-0x341a.3 (1.1)
0x3410|                              00 00            |          ..    |        os_specific: 0 0x341a.4-0x341b.3 (1)
0x3410|                                 00            |           .    |        processor_specific: 0 0x341b.4-0x341b.7 (0.4)
0x3410|                                    00 40 00 00|            .@..|      addr: 0x4000 0x341c-0x341f.7 (4)
0x3420|00 30 00 00                                    |.0..            |      offset: 12288 0x3420-0x3423.7 (4)
0x3420|            04 00 00 00                        |    ....        |      size: 0x4 0x3424-0x3427.7 (4)
0x3420|                        00 00 00 00            |        ....    |      link: 0 0x3428-0x342b.7 (4)
0x3420|                                    00 00 00 00|            ....|      info: 0 0x342c-0x342f.7 (4)
0x3430|04 00 00 00                                    |....            |      addralign: 4 0x3430-0x3433.7 (4)
0x3430|            00 00 00 00                        |    ....        |      entsize: 0 0x3434-0x3437.7 (4)
      |                                               |                |    [21]{}: section_header 0x3438-0x345f.7 (40)
0x3430|                        aa 00 00 00            |        ....    |      name: ".bss" (170) 0x3438-0x343b.7 (4)
0x3430|                                    08 00 00 00|            ....|      type: "nobits" (0x8) (No space in the file) 0x343c-0x343f.7 (4)
      |                                               |                |      flags{}: 0x3440-0x3443.7 (4)
0x3440|03                                             |.               |        link_order: false 0x3440-0x3440 (0.1)
0x3440|03                                             |.               |        info_link: false 0x3440.1-0x3440.1 (0.1)
0x3440|03                                             |.               |        strings: false 0x3440.2-0x3440.2 (0.1)
0x3440|03                                             |.               |        merge: false 0x3440.3-0x3440.3 (0.1)
0x3440|03                                             |.               |        unused0: 0 0x3440.4-0x3440.4 (0.1)
0x3440|03                                             |.               |        execinstr: false 0x3440.5-0x3440.5 (0.1)
0x3440|03                                             |.               |        alloc: true 0x3440.6-0x3440.6 (0.1)
0x3440|03                                             |.               |        write: true 0x3440.7-0x3440.7 (0.1)
0x3440|   00                                          | .              |        tls: false 0x3441-0x3441 (0.1)
0x3440|   00                                          | .              |        group: false 0x3441.1-0x3441.1 (0.1)
0x3440|   00                                          | .              |        os_nonconforming: false 0x3441.2-0x3441.2 (0.1)
0x3440|   00 00                                       | ..             |        unused1: 0 0x3441.3-0x3442.3 (1.1)
0x3440|      00 00                                    |  ..            |        os_specific: 0 0x3442.4-0x3443.3 (1)
0x3440|         00                                    |   .            |        processor_specific: 0 0x3443.4-0x3443.7 (0.4)
0x3440|            04 40 00 00                        |    .@..        |      addr: 0x4004 0x3444-0x3447.7 (4)
0x3440|                        04 30 00 00            |        .0..    |      offset: 12292 0x3448-0x344b.7 (4)
0x3440|                                    20 00 00 00|             ...|      size: 0x20 0x344c-0x344f.7 (4)
0x3450|00 00 00 00                                    |....            |      link: 0 0x3450-0x3453.7 (4)
0x3450|            00 00 00 00                        |    ....        |      info: 0 0x3454-0x3457.7 (4)
0x3450|                        04 00 00 00            |        ....    |      addralign: 4 0x3458-0x345b.7 (4)
0x3450|                                    00 00 00 00|            ....|      entsize: 0 0x345c-0x345f.7 (4)
      |                                               |                |    [22]{}: section_header 0x3004-0x3487.7 (1156)
0x3000|            47 43 43 3a 20 28 41 6c 70 69 6e 65|    GCC: (Alpine|      data: raw bits 0x3004-0x3034.7 (49)
0x3010|20 31 30 2e 33 2e 31 5f 67 69 74 32 30 32 31 31| 10.3.1_git20211|
*     |until 0x3034.7 (49)                            |                |
0x3460|af 00 00 00                                    |....            |      name: ".comment" (175) 0x3460-0x3463.7 (4)
0x3460|            01 00 00 00                        |    ....        |      type: "progbits" (0x1) (Information defined by the program) 0x3464-0x3467.7 (4)
      |                                               |                |      flags{}: 0x3468-0x346b.7 (4)
0x3460|                        30                     |        0       |        link_order: false 0x3468-0x3468 (0.1)
0x3460|                        30                     |        0       |        info_link: false 0x3468.1-0x3468.1 (0.1)
0x3460|                        30                     |        0       |        strings: true 0x3468.2-0x3468.2 (0.1)
0x3460|                        30                     |        0       |        merge: true 0x3468.3-0x3468.3 (0.1)
0x3460|                        30                     |        0       |        unused0: 0 0x3468.4-0x3468.4 (0.1)
0x3460|                        30                     |        0       |        execinstr: false 0x3468.5-0x3468.5 (0.1)
0x3460|                        30                     |        0       |        alloc: false 0x3468.6-0x3468.6 (0.1)
0x3460|                        30                     |        0       |        write: false 0x3468.7-0x3468.7 (0.1)
0x3460|                           00                  |         .      |        tls: false 0x3469-0x3469 (0.1)
0x3460|                           00                  |         .      |        group: false 0x3469.1-0x3469.1 (0.1)
0x3460|                           00                  |         .      |        os_nonconforming: false 0x3469.2-0x3469.2 (0.1)
0x3460|                           00 00               |         ..     |        unused1: 0 0x3469.3-0x346a.3 (1.1)
0x3460|                              00 00            |          ..    |        os_specific: 0 0x346a.4-0x346b.3 (1)
0x3460|                                 00            |           .    |        processor_specific: 0 0x346b.4-0x346b.7 (0.4)
0x3460|                                    00 00 00 00|            ....|      addr: 0x0 0x346c-0x346f.7 (4)
0x3470|04 30 00 00                                    |.0..            |      offset: 12292 0x3470-0x3473.7 (4)
0x3470|            31 00 00 00                        |    1...        |      size: 0x31 0x3474-0x3477.7 (4)
0x3470|                        00 00 00 00            |        ....    |      link: 0 0x3478-0x347b.7 (4)
0x3470|                                    00 00 00 00|            ....|      info: 0 0x347c-0x347f.7 (4)
0x3480|01 00 00 00                                    |....            |      addralign: 1 0x3480-0x3483.7 (4)
0x3480|            01 00 00 00                        |    ....        |      entsize: 1 0x3484-0x3487.7 (4)
      |                                               |                |    [23]{}: section_header 0x3035-0x34af.7 (1147)
0x3030|               00 2e 73 68 73 74 72 74 61 62 00|     ..shstrtab.|      string: "\x00.shstrtab\x00.interp\x00.note.gnu.property\x00.gnu.hash..." 0x3035-0x30ec.7 (184)
0x3040|2e 69 6e 74 65 72 70 00 2e 6e 6f 74 65 2e 67 6e|.interp..note.gn|
*     |until 0x30ec.7 (184)                           |                |
0x3480|                        01 00 00 00            |        ....    |      name: ".shstrtab" (1) 0x3488-0x348b.7 (4)
0x3480|                                    03 00 00 00|            ....|      type: "strtab" (0x3) (String table) 0x348c-0x348f.7 (4)
      |                                               |                |      flags{}: 0x3490-0x3493.7 (4)
0x3490|00                                             |.               |        link_order: false 0x3490-0x3490 (0.1)
0x3490|00                                             |.               |        info_link: false 0x3490.1-0x3490.1 (0.1)
0x3490|00                                             |.               |        strings: false 0x3490.2-0x3490.2 (0.1)
0x3490|00                                             |.               |        merge: false 0x3490.3-0x3490.3 (0.1)
0x3490|00                                             |.               |        unused0: 0 0x3490.4-0x3490.4 (0.1)
0x3490|00                                             |.               |        execinstr: false 0x3490.5-0x3490.5 (0.1)
0x3490|00                                             |.               |        alloc: false 0x3490.6-0x3490.6 (0.1)
0x3490|00                                             |.               |        write: false 0x3490.7-0x3490.7 (0.1)
0x3490|   00                                          | .              |        tls: false 0x3491-0x3491 (0.1)
0x3490|   00                                          | .              |        group: false 0x3491.1-0x3491.1 (0.1)
0x3490|   00                                          | .              |        os_nonconforming: false 0x3491.2-0x3491.2 (0.1)
0x3490|   00 00                                       | ..             |        unused1: 0 0x3491.3-0x3492.3 (1.1)
0x3490|      00 00                                    |  ..            |        os_specific: 0 0x3492.4-0x3493.3 (1)
0x3490|         00                                    |   .            |        processor_specific: 0 0x3493.4-0x3493.7 (0.4)
0x3490|            00 00 00 00                        |    ....        |      addr: 0x0 0x3494-0x3497.7 (4)
0x3490|                        35 30 00 00            |        50..    |      offset: 12341 0x3498-0x349b.7 (4)
0x3490|                                    b8 00 00 00|            ....|      size: 0xb8 0x349c-0x349f.7 (4)
0x34a0|00 00 00 00                                    |....            |      link: 0 0x34a0-0x34a3.7 (4)
0x34a0|            00 00 00 00                        |    ....        |      info: 0 0x34a4-0x34a7.7 (4)
0x34a0|                        01 00 00 00            |        ....    |      addralign: 1 0x34a8-0x34ab.7 (4)
0x34a0|                                    00 00 00 00|            ....|      entsize: 0 0x34ac-0x34af.7 (4)
0x03f0|            00 00 00 00 00 00 00 00 00 00 00 00|    ............|  gap0: raw bits 0x3f4-0xfff.7 (3084)
0x0400|00 00 00 00 00 00 00 00 00 00 00 00 00 00 00 00|................|
*     |until 0xfff.7 (3084)                           |                |
0x1310|                                       00 00 00|             ...|  gap1: raw bits 0x131d-0x1fff.7 (3299)
0x1320|00 00 00 00 00 00 00 00 00 00 00 00 00 00 00 00|................|
*     |until 0x1fff.7 (3299)                          |                |
0x20e0|                        00 00 00 00 00 00 00 00|        ........|  gap2: raw bits 0x20e8-0x2eef.7 (3592)
0x20f0|00 00 00 00 00 00 00 00 00 00 00 00 00 00 00 00|................|
*     |until 0x2eef.7 (3592)                          |                |
0x30e0|                                       00 00 00|             ...|  gap3: raw bits 0x30ed-0x30ef.7 (3)
