$ fq -d elf dv a_static
       |00 01 02 03 04 05 06 07 08 09 0a 0b 0c 0d 0e 0f|0123456789abcdef|.{}: a_static (elf) 0x0-0x11760 (71520)
       |                                               |                |  header{}: 0x0-0x34 (52)
       |                                               |                |    ident{}: 0x0-0x10 (16)
0x00000|7f 45 4c 46                                    |.ELF            |      magic: raw bits (valid) 0x0-0x4 (4)
0x00000|            01                                 |    .           |      class: 32 (1) 0x4-0x5 (1)
0x00000|               01                              |     .          |      data: "little_endian" (1) 0x5-0x6 (1)
0x00000|                  01                           |      .         |      version: 1 0x6-0x7 (1)
0x00000|                     00                        |       .        |      os_abi: "sysv" (0) 0x7-0x8 (1)
0x00000|                        00                     |        .       |      abi_version: 0 0x8-0x9 (1)
0x00000|                           00 00 00 00 00 00 00|         .......|      pad: raw bits (all zero) 0x9-0x10 (7)
0x00010|02 00                                          |..              |    type: "exec" (0x2) 0x10-0x12 (2)
0x00010|      03 00                                    |  ..            |    machine: "x86" (0x3) (x86) 0x12-0x14 (2)
0x00010|            01 00 00 00                        |    ....        |    version: 1 0x14-0x18 (4)
0x00010|                        4a 90 04 08            |        J...    |    entry: 134516810 0x18-0x1c (4)
0x00010|                                    34 00 00 00|            4...|    phoff: 52 0x1c-0x20 (4)
0x00020|78 13 01 00                                    |x...            |    shoff: 70520 0x20-0x24 (4)
0x00020|            00 00 00 00                        |    ....        |    flags: 0 0x24-0x28 (4)
0x00020|                        34 00                  |        4.      |    ehsize: 52 0x28-0x2a (2)
0x00020|                              20 00            |           .    |    phentsize: 32 0x2a-0x2c (2)
0x00020|                                    08 00      |            ..  |    phnum: 8 0x2c-0x2e (2)
0x00020|                                          28 00|              (.|    shentsize: 40 0x2e-0x30 (2)
0x00030|19 00                                          |..              |    shnum: 25 0x30-0x32 (2)
0x00030|      18 00                                    |  ..            |    shstrndx: 24 0x32-0x34 (2)
       |                                               |                |  program_headers[0:8]: 0x0-0x30b4 (12468)
       |                                               |                |    [0]{}: program_header 0x0-0x15c (348)
0x00000|7f 45 4c 46 01 01 01 00 00 00 00 00 00 00 00 00|.ELF............|      data: raw bits 0x0-0x15c (348)
*      |until 0x15b.7 (348)                            |                |
0x00030|            01 00 00 00                        |    ....        |      type: "load" (1) (Loadable segment) 0x34-0x38 (4)
0x00030|                        00 00 00 00            |        ....    |      offset: 0x0 0x38-0x3c (4)
0x00030|                                    00 80 04 08|            ....|      vaddr: 0x8048000 0x3c-0x40 (4)
0x00040|00 80 04 08                                    |....            |      paddr: 0x8048000 0x40-0x44 (4)
0x00040|            5c 01 00 00                        |    \...        |      filesz: 348 0x44-0x48 (4)
0x00040|                        5c 01 00 00            |        \...    |      memsz: 348 0x48-0x4c (4)
       |                                               |                |      flags{}: 0x4c-0x50 (4)
0x00040|                                    04         |            .   |        unused0: 0 0x4c-0x4c.5 (0.5)
0x00040|                                    04         |            .   |        r: true 0x4c.5-0x4c.6 (0.1)
0x00040|                                    04         |            .   |        w: false 0x4c.6-0x4c.7 (0.1)
0x00040|                                    04         |            .   |        x: false 0x4c.7-0x4d (0.1)
0x00040|                                       00 00 00|             ...|        unused1: 0 0x4d-0x50 (3)
0x00050|00 10 00 00                                    |....            |      align: 4096 0x50-0x54 (4)
       |                                               |                |    [1]{}: program_header 0x54-0x1fa5 (8017)
0x00050|            01 00 00 00                        |    ....        |      type: "load" (1) (Loadable segment) 0x54-0x58 (4)
0x00050|                        00 10 00 00            |        ....    |      offset: 0x1000 0x58-0x5c (4)
0x00050|                                    00 90 04 08|            ....|      vaddr: 0x8049000 0x5c-0x60 (4)
0x00060|00 90 04 08                                    |....            |      paddr: 0x8049000 0x60-0x64 (4)
0x00060|            a5 0f 00 00                        |    ....        |      filesz: 4005 0x64-0x68 (4)
0x00060|                        a5 0f 00 00            |        ....    |      memsz: 4005 0x68-0x6c (4)
       |                                               |                |      flags{}: 0x6c-0x70 (4)
0x00060|                                    05         |            .   |        unused0: 0 0x6c-0x6c.5 (0.5)
0x00060|                                    05         |            .   |        r: true 0x6c.5-0x6c.6 (0.1)
0x00060|                                    05         |            .   |        w: false 0x6c.6-0x6c.7 (0.1)
0x00060|                                    05         |            .   |        x: true 0x6c.7-0x6d (0.1)
0x00060|                                       00 00 00|             ...|        unused1: 0 0x6d-0x70 (3)
0x00070|00 10 00 00                                    |....            |      align: 4096 0x70-0x74 (4)
0x01000|83 ec 0c e8 98 01 00 00 e8 53 0f 00 00 83 c4 0c|.........S......|      data: raw bits 0x1000-0x1fa5 (4005)
*      |until 0x1fa4.7 (4005)                          |                |
       |                                               |                |    [2]{}: program_header 0x74-0x20b8 (8260)
0x00070|            01 00 00 00                        |    ....        |      type: "load" (1) (Loadable segment) 0x74-0x78 (4)
0x00070|                        00 20 00 00            |        . ..    |      offset: 0x2000 0x78-0x7c (4)
0x00070|                                    00 a0 04 08|            ....|      vaddr: 0x804a000 0x7c-0x80 (4)
0x00080|00 a0 04 08                                    |....            |      paddr: 0x804a000 0x80-0x84 (4)
0x00080|            b8 00 00 00                        |    ....        |      filesz: 184 0x84-0x88 (4)
0x00080|                        b8 00 00 00            |        ....    |      memsz: 184 0x88-0x8c (4)
       |                                               |                |      flags{}: 0x8c-0x90 (4)
0x00080|                                    04         |            .   |        unused0: 0 0x8c-0x8c.5 (0.5)
0x00080|                                    04         |            .   |        r: true 0x8c.5-0x8c.6 (0.1)
0x00080|                                    04         |            .   |        w: false 0x8c.6-0x8c.7 (0.1)
0x00080|                                    04         |            .   |        x: false 0x8c.7-0x8d (0.1)
0x00080|                                       00 00 00|             ...|        unused1: 0 0x8d-0x90 (3)
0x00090|00 10 00 00                                    |....            |      align: 4096 0x90-0x94 (4)
0x02000|61 61 61 00 6c 69 62 62 62 62 5f 62 62 62 00 2f|aaa.libbbb_bbb./|      data: raw bits 0x2000-0x20b8 (184)
*      |until 0x20b7.7 (184)                           |                |
       |                                               |                |    [3]{}: program_header 0x94-0x30b4 (12320)
0x00090|            01 00 00 00                        |    ....        |      type: "load" (1) (Loadable segment) 0x94-0x98 (4)
0x00090|                        d0 2f 00 00            |        ./..    |      offset: 0x2fd0 0x98-0x9c (4)
0x00090|                                    d0 bf 04 08|            ....|      vaddr: 0x804bfd0 0x9c-0xa0 (4)
0x000a0|d0 bf 04 08                                    |....            |      paddr: 0x804bfd0 0xa0-0xa4 (4)
0x000a0|            e4 00 00 00                        |    ....        |      filesz: 228 0xa4-0xa8 (4)
0x000a0|                        74 06 00 00            |        t...    |      memsz: 1652 0xa8-0xac (4)
       |                                               |                |      flags{}: 0xac-0xb0 (4)
0x000a0|                                    06         |            .   |        unused0: 0 0xac-0xac.5 (0.5)
0x000a0|                                    06         |            .   |        r: true 0xac.5-0xac.6 (0.1)
0x000a0|                                    06         |            .   |        w: true 0xac.6-0xac.7 (0.1)
0x000a0|                                    06         |            .   |        x: false 0xac.7-0xad (0.1)
0x000a0|                                       00 00 00|             ...|        unused1: 0 0xad-0xb0 (3)
0x000b0|00 10 00 00                                    |....            |      align: 4096 0xb0-0xb4 (4)
0x02fd0|ff ff ff ff 00 00 00 00 ff ff ff ff 00 00 00 00|................|      data: raw bits 0x2fd0-0x30b4 (228)
*      |until 0x30b3.7 (228)                           |                |
       |                                               |                |    [4]{}: program_header 0xb4-0x15c (168)
0x000b0|            04 00 00 00                        |    ....        |      type: "note" (4) (Auxiliary information) 0xb4-0xb8 (4)
0x000b0|                        34 01 00 00            |        4...    |      offset: 0x134 0xb8-0xbc (4)
0x000b0|                                    34 81 04 08|            4...|      vaddr: 0x8048134 0xbc-0xc0 (4)
0x000c0|34 81 04 08                                    |4...            |      paddr: 0x8048134 0xc0-0xc4 (4)
0x000c0|            28 00 00 00                        |    (...        |      filesz: 40 0xc4-0xc8 (4)
0x000c0|                        28 00 00 00            |        (...    |      memsz: 40 0xc8-0xcc (4)
       |                                               |                |      flags{}: 0xcc-0xd0 (4)
0x000c0|                                    04         |            .   |        unused0: 0 0xcc-0xcc.5 (0.5)
0x000c0|                                    04         |            .   |        r: true 0xcc.5-0xcc.6 (0.1)
0x000c0|                                    04         |            .   |        w: false 0xcc.6-0xcc.7 (0.1)
0x000c0|                                    04         |            .   |        x: false 0xcc.7-0xcd (0.1)
0x000c0|                                       00 00 00|             ...|        unused1: 0 0xcd-0xd0 (3)
0x000d0|04 00 00 00                                    |....            |      align: 4 0xd0-0xd4 (4)
       |                                               |                |      notes[0:1]: 0x134-0x15c (40)
       |                                               |                |        [0]{}: note 0x134-0x15c (40)
0x00130|            04 00 00 00                        |    ....        |          n_namesz: 4 0x134-0x138 (4)
0x00130|                        18 00 00 00            |        ....    |          n_descsz: 24 0x138-0x13c (4)
0x00130|                                    05 00 00 00|            ....|          n_type: 0x5 0x13c-0x140 (4)
0x00140|47 4e 55 00                                    |GNU.            |          name: "GNU" 0x140-0x144 (4)
0x00140|            01 00 01 c0 04 00 00 00 01 00 00 00|    ............|          desc: raw bits 0x144-0x15c (24)
0x00150|02 00 01 c0 04 00 00 00 00 00 00 00            |............    |
       |                                               |                |    [5]{}: program_header 0xd4-0x15c (136)
0x000d0|            53 e5 74 64                        |    S.td        |      type: "os" (1685382483) (Operating system-specific) 0xd4-0xd8 (4)
0x000d0|                        34 01 00 00            |        4...    |      offset: 0x134 0xd8-0xdc (4)
0x000d0|                                    34 81 04 08|            4...|      vaddr: 0x8048134 0xdc-0xe0 (4)
0x000e0|34 81 04 08                                    |4...            |      paddr: 0x8048134 0xe0-0xe4 (4)
0x000e0|            28 00 00 00                        |    (...        |      filesz: 40 0xe4-0xe8 (4)
0x000e0|                        28 00 00 00            |        (...    |      memsz: 40 0xe8-0xec (4)
       |                                               |                |      flags{}: 0xec-0xf0 (4)
0x000e0|                                    04         |            .   |        unused0: 0 0xec-0xec.5 (0.5)
0x000e0|                                    04         |            .   |        r: true 0xec.5-0xec.6 (0.1)
0x000e0|                                    04         |            .   |        w: false 0xec.6-0xec.7 (0.1)
0x000e0|                                    04         |            .   |        x: false 0xec.7-0xed (0.1)
0x000e0|                                       00 00 00|             ...|        unused1: 0 0xed-0xf0 (3)
0x000f0|04 00 00 00                                    |....            |      align: 4 0xf0-0xf4 (4)
0x00130|            04 00 00 00 18 00 00 00 05 00 00 00|    ............|      data: raw bits 0x134-0x15c (40)
0x00140|47 4e 55 00 01 00 01 c0 04 00 00 00 01 00 00 00|GNU.............|
0x00150|02 00 01 c0 04 00 00 00 00 00 00 00            |............    |
       |                                               |                |    [6]{}: program_header 0x0-0x114 (276)
       |                                               |                |      data: raw bits 0x0-0x0 (0)
0x000f0|            51 e5 74 64                        |    Q.td        |      type: "gnu_stack" (1685382481) (GNU stack permission) 0xf4-0xf8 (4)
0x000f0|                        00 00 00 00            |        ....    |      offset: 0x0 0xf8-0xfc (4)
0x000f0|                                    00 00 00 00|            ....|      vaddr: 0x0 0xfc-0x100 (4)
0x00100|00 00 00 00                                    |....            |      paddr: 0x0 0x100-0x104 (4)
0x00100|            00 00 00 00                        |    ....        |      filesz: 0 0x104-0x108 (4)
0x00100|                        00 00 00 00            |        ....    |      memsz: 0 0x108-0x10c (4)
       |                                               |                |      flags{}: 0x10c-0x110 (4)
0x00100|                                    06         |            .   |        unused0: 0 0x10c-0x10c.5 (0.5)
0x00100|                                    06         |            .   |        r: true 0x10c.5-0x10c.6 (0.1)
0x00100|                                    06         |            .   |        w: true 0x10c.6-0x10c.7 (0.1)
0x00100|                                    06         |            .   |        x: false 0x10c.7-0x10d (0.1)
0x00100|                                       00 00 00|             ...|        unused1: 0 0x10d-0x110 (3)
0x00110|10 00 00 00                                    |....            |      align: 16 0x110-0x114 (4)
       |                                               |                |    [7]{}: program_header 0x114-0x3000 (12012)
0x00110|            52 e5 74 64                        |    R.td        |      type: "gnu_relro" (1685382482) (GNU read-only after relocation) 0x114-0x118 (4)
0x00110|                        d0 2f 00 00            |        ./..    |      offset: 0x2fd0 0x118-0x11c (4)
0x00110|                                    d0 bf 04 08|            ....|      vaddr: 0x804bfd0 0x11c-0x120 (4)
0x00120|d0 bf 04 08                                    |....            |      paddr: 0x804bfd0 0x120-0x124 (4)
0x00120|            30 00 00 00                        |    0...        |      filesz: 48 0x124-0x128 (4)
0x00120|                        30 00 00 00            |        0...    |      memsz: 48 0x128-0x12c (4)
       |                                               |                |      flags{}: 0x12c-0x130 (4)
0x00120|                                    04         |            .   |        unused0: 0 0x12c-0x12c.5 (0.5)
0x00120|                                    04         |            .   |        r: true 0x12c.5-0x12c.6 (0.1)
0x00120|                                    04         |            .   |        w: false 0x12c.6-0x12c.7 (0.1)
0x00120|                                    04         |            .   |        x: false 0x12c.7-0x12d (0.1)
0x00120|                                       00 00 00|             ...|        unused1: 0 0x12d-0x130 (3)
0x00130|01 00 00 00                                    |....            |      align: 1 0x130-0x134 (4)
0x02fd0|ff ff ff ff 00 00 00 00 ff ff ff ff 00 00 00 00|................|      data: raw bits 0x2fd0-0x3000 (48)
*      |until 0x2fff.7 (48)                            |                |
       |                                               |                |  section_headers[0:25]: 0x134-0x11760 (71212)
       |                                               |                |    [0]{}: section_header 0x11378-0x113a0 (40)
0x11370|                        00 00 00 00            |        ....    |      name: "" (0) 0x11378-0x1137c (4)
0x11370|                                    00 00 00 00|            ....|      type: "null" (0x0) (Header inactive) 0x1137c-0x11380 (4)
       |                                               |                |      flags{}: 0x11380-0x11384 (4)
0x11380|00                                             |.               |        link_order: false 0x11380-0x11380.1 (0.1)
0x11380|00                                             |.               |        info_link: false 0x11380.1-0x11380.2 (0.1)
0x11380|00                                             |.               |        strings: false 0x11380.2-0x11380.3 (0.1)
0x11380|00                                             |.               |        merge: false 0x11380.3-0x11380.4 (0.1)
0x11380|00                                             |.               |        unused0: 0 0x11380.4-0x11380.5 (0.1)
0x11380|00                                             |.               |        execinstr: false 0x11380.5-0x11380.6 (0.1)
0x11380|00                                             |.               |        alloc: false 0x11380.6-0x11380.7 (0.1)
0x11380|00                                             |.               |        write: false 0x11380.7-0x11381 (0.1)
0x11380|   00                                          | .              |        tls: false 0x11381-0x11381.1 (0.1)
0x11380|   00                                          | .              |        group: false 0x11381.1-0x11381.2 (0.1)
0x11380|   00                                          | .              |        os_nonconforming: false 0x11381.2-0x11381.3 (0.1)
0x11380|   00 00                                       | ..             |        unused1: 0 0x11381.3-0x11382.4 (1.1)
0x11380|      00 00                                    |  ..            |        os_specific: 0 0x11382.4-0x11383.4 (1)
0x11380|         00                                    |   .            |        processor_specific: 0 0x11383.4-0x11384 (0.4)
0x11380|            00 00 00 00                        |    ....        |      addr: 0x0 0x11384-0x11388 (4)
0x11380|                        00 00 00 00            |        ....    |      offset: 0 0x11388-0x1138c (4)
0x11380|                                    00 00 00 00|            ....|      size: 0x0 0x1138c-0x11390 (4)
0x11390|00 00 00 00                                    |....            |      link: 0 0x11390-0x11394 (4)
0x11390|            00 00 00 00                        |    ....        |      info: 0 0x11394-0x11398 (4)
0x11390|                        00 00 00 00            |        ....    |      addralign: 0 0x11398-0x1139c (4)
0x11390|                                    00 00 00 00|            ....|      entsize: 0 0x1139c-0x113a0 (4)
       |                                               |                |    [1]{}: section_header 0x134-0x113c8 (70292)
0x00130|            04 00 00 00 18 00 00 00 05 00 00 00|    ............|      data: raw bits 0x134-0x15c (40)
0x00140|47 4e 55 00 01 00 01 c0 04 00 00 00 01 00 00 00|GNU.............|
0x00150|02 00 01 c0 04 00 00 00 00 00 00 00            |............    |
0x113a0|1b 00 00 00                                    |....            |      name: ".note.gnu.property" (27) 0x113a0-0x113a4 (4)
0x113a0|            07 00 00 00                        |    ....        |      type: "note" (0x7) (Information that marks the file in some way) 0x113a4-0x113a8 (4)
       |                                               |                |      flags{}: 0x113a8-0x113ac (4)
0x113a0|                        02                     |        .       |        link_order: false 0x113a8-0x113a8.1 (0.1)
0x113a0|                        02                     |        .       |        info_link: false 0x113a8.1-0x113a8.2 (0.1)
0x113a0|                        02                     |        .       |        strings: false 0x113a8.2-0x113a8.3 (0.1)
0x113a0|                        02                     |        .       |        merge: false 0x113a8.3-0x113a8.4 (0.1)
0x113a0|                        02                     |        .       |        unused0: 0 0x113a8.4-0x113a8.5 (0.1)
0x113a0|                        02                     |        .       |        execinstr: false 0x113a8.5-0x113a8.6 (0.1)
0x113a0|                        02                     |        .       |        alloc: true 0x113a8.6-0x113a8.7 (0.1)
0x113a0|                        02                     |        .       |        write: false 0x113a8.7-0x113a9 (0.1)
0x113a0|                           00                  |         .      |        tls: false 0x113a9-0x113a9.1 (0.1)
0x113a0|                           00                  |         .      |        group: false 0x113a9.1-0x113a9.2 (0.1)
0x113a0|                           00                  |         .      |        os_nonconforming: false 0x113a9.2-0x113a9.3 (0.1)
0x113a0|                           00 00               |         ..     |        unused1: 0 0x113a9.3-0x113aa.4 (1.1)
0x113a0|                              00 00            |          ..    |        os_specific: 0 0x113aa.4-0x113ab.4 (1)
0x113a0|                                 00            |           .    |        processor_specific: 0 0x113ab.4-0x113ac (0.4)
0x113a0|                                    34 81 04 08|            4...|      addr: 0x8048134 0x113ac-0x113b0 (4)
0x113b0|34 01 00 00                                    |4...            |      offset: 308 0x113b0-0x113b4 (4)
0x113b0|            28 00 00 00                        |    (...        |      size: 0x28 0x113b4-0x113b8 (4)
0x113b0|                        00 00 00 00            |        ....    |      link: 0 0x113b8-0x113bc (4)
0x113b0|                                    00 00 00 00|            ....|      info: 0 0x113bc-0x113c0 (4)
0x113c0|04 00 00 00                                    |....            |      addralign: 4 0x113c0-0x113c4 (4)
0x113c0|            00 00 00 00                        |    ....        |      entsize: 0 0x113c4-0x113c8 (4)
       |                                               |                |    [2]{}: section_header 0x1000-0x113f0 (66544)
0x01000|83 ec 0c e8 98 01 00 00 e8 53 0f 00 00 83 c4 0c|.........S......|      data: raw bits 0x1000-0x1011 (17)
0x01010|c3                                             |.               |
0x113c0|                        2e 00 00 00            |        ....    |      name: ".init" (46) 0x113c8-0x113cc (4)
0x113c0|                                    01 00 00 00|            ....|      type: "progbits" (0x1) (Information defined by the program) 0x113cc-0x113d0 (4)
       |                                               |                |      flags{}: 0x113d0-0x113d4 (4)
0x113d0|06                                             |.               |        link_order: false 0x113d0-0x113d0.1 (0.1)
0x113d0|06                                             |.               |        info_link: false 0x113d0.1-0x113d0.2 (0.1)
0x113d0|06                                             |.               |        strings: false 0x113d0.2-0x113d0.3 (0.1)
0x113d0|06                                             |.               |        merge: false 0x113d0.3-0x113d0.4 (0.1)
0x113d0|06                                             |.               |        unused0: 0 0x113d0.4-0x113d0.5 (0.1)
0x113d0|06                                             |.               |        execinstr: true 0x113d0.5-0x113d0.6 (0.1)
0x113d0|06                                             |.               |        alloc: true 0x113d0.6-0x113d0.7 (0.1)
0x113d0|06                                             |.               |        write: false 0x113d0.7-0x113d1 (0.1)
0x113d0|   00                                          | .              |        tls: false 0x113d1-0x113d1.1 (0.1)
0x113d0|   00                                          | .              |        group: false 0x113d1.1-0x113d1.2 (0.1)
0x113d0|   00                                          | .              |        os_nonconforming: false 0x113d1.2-0x113d1.3 (0.1)
0x113d0|   00 00                                       | ..             |        unused1: 0 0x113d1.3-0x113d2.4 (1.1)
0x113d0|      00 00                                    |  ..            |        os_specific: 0 0x113d2.4-0x113d3.4 (1)
0x113d0|         00                                    |   .            |        processor_specific: 0 0x113d3.4-0x113d4 (0.4)
0x113d0|            00 90 04 08                        |    ....        |      addr: 0x8049000 0x113d4-0x113d8 (4)
0x113d0|                        00 10 00 00            |        ....    |      offset: 4096 0x113d8-0x113dc (4)
0x113d0|                                    11 00 00 00|            ....|      size: 0x11 0x113dc-0x113e0 (4)
0x113e0|00 00 00 00                                    |....            |      link: 0 0x113e0-0x113e4 (4)
0x113e0|            00 00 00 00                        |    ....        |      info: 0 0x113e4-0x113e8 (4)
0x113e0|                        01 00 00 00            |        ....    |      addralign: 1 0x113e8-0x113ec (4)
0x113e0|                                    00 00 00 00|            ....|      entsize: 0 0x113ec-0x113f0 (4)
       |                                               |                |    [3]{}: section_header 0x1020-0x11418 (66552)
0x01020|53 e8 76 00 00 00 81 c3 c2 2f 00 00 83 ec 08 e8|S.v....../......|      data: raw bits 0x1020-0x1f99 (3961)
*      |until 0x1f98.7 (3961)                          |                |
0x113f0|34 00 00 00                                    |4...            |      name: ".text" (52) 0x113f0-0x113f4 (4)
0x113f0|            01 00 00 00                        |    ....        |      type: "progbits" (0x1) (Information defined by the program) 0x113f4-0x113f8 (4)
       |                                               |                |      flags{}: 0x113f8-0x113fc (4)
0x113f0|                        06                     |        .       |        link_order: false 0x113f8-0x113f8.1 (0.1)
0x113f0|                        06                     |        .       |        info_link: false 0x113f8.1-0x113f8.2 (0.1)
0x113f0|                        06                     |        .       |        strings: false 0x113f8.2-0x113f8.3 (0.1)
0x113f0|                        06                     |        .       |        merge: false 0x113f8.3-0x113f8.4 (0.1)
0x113f0|                        06                     |        .       |        unused0: 0 0x113f8.4-0x113f8.5 (0.1)
0x113f0|                        06                     |        .       |        execinstr: true 0x113f8.5-0x113f8.6 (0.1)
0x113f0|                        06                     |        .       |        alloc: true 0x113f8.6-0x113f8.7 (0.1)
0x113f0|                        06                     |        .       |        write: false 0x113f8.7-0x113f9 (0.1)
0x113f0|                           00                  |         .      |        tls: false 0x113f9-0x113f9.1 (0.1)
0x113f0|                           00                  |         .      |        group: false 0x113f9.1-0x113f9.2 (0.1)
0x113f0|                           00                  |         .      |        os_nonconforming: false 0x113f9.2-0x113f9.3 (0.1)
0x113f0|                           00 00               |         ..     |        unused1: 0 0x113f9.3-0x113fa.4 (1.1)
0x113f0|                              00 00            |          ..    |        os_specific: 0 0x113fa.4-0x113fb.4 (1)
0x113f0|                                 00            |           .    |        processor_specific: 0 0x113fb.4-0x113fc (0.4)
0x113f0|                                    20 90 04 08|             ...|      addr: 0x8049020 0x113fc-0x11400 (4)
0x11400|20 10 00 00                                    | ...            |      offset: 4128 0x11400-0x11404 (4)
0x11400|            79 0f 00 00                        |    y...        |      size: 0xf79 0x11404-0x11408 (4)
0x11400|                        00 00 00 00            |        ....    |      link: 0 0x11408-0x1140c (4)
0x11400|                                    00 00 00 00|            ....|      info: 0 0x1140c-0x11410 (4)
0x11410|10 00 00 00                                    |....            |      addralign: 16 0x11410-0x11414 (4)
0x11410|            00 00 00 00                        |    ....        |      entsize: 0 0x11414-0x11418 (4)
       |                                               |                |    [4]{}: section_header 0x1f99-0x11440 (62631)
0x01f90|                           83 ec 0c e8 7f f1 ff|         .......|      data: raw bits 0x1f99-0x1fa5 (12)
0x01fa0|ff 83 c4 0c c3                                 |.....           |
0x11410|                        3a 00 00 00            |        :...    |      name: ".fini" (58) 0x11418-0x1141c (4)
0x11410|                                    01 00 00 00|            ....|      type: "progbits" (0x1) (Information defined by the program) 0x1141c-0x11420 (4)
       |                                               |                |      flags{}: 0x11420-0x11424 (4)
0x11420|06                                             |.               |        link_order: false 0x11420-0x11420.1 (0.1)
0x11420|06                                             |.               |        info_link: false 0x11420.1-0x11420.2 (0.1)
0x11420|06                                             |.               |        strings: false 0x11420.2-0x11420.3 (0.1)
0x11420|06                                             |.               |        merge: false 0x11420.3-0x11420.4 (0.1)
0x11420|06                                             |.               |        unused0: 0 0x11420.4-0x11420.5 (0.1)
0x11420|06                                             |.               |        execinstr: true 0x11420.5-0x11420.6 (0.1)
0x11420|06                                             |.               |        alloc: true 0x11420.6-0x11420.7 (0.1)
0x11420|06                                             |.               |        write: false 0x11420.7-0x11421 (0.1)
0x11420|   00                                          | .              |        tls: false 0x11421-0x11421.1 (0.1)
0x11420|   00                                          | .              |        group: false 0x11421.1-0x11421.2 (0.1)
0x11420|   00                                          | .              |        os_nonconforming: false 0x11421.2-0x11421.3 (0.1)
0x11420|   00 00                                       | ..             |        unused1: 0 0x11421.3-0x11422.4 (1.1)
0x11420|      00 00                                    |  ..            |        os_specific: 0 0x11422.4-0x11423.4 (1)
0x11420|         00                                    |   .            |        processor_specific: 0 0x11423.4-0x11424 (0.4)
0x11420|            99 9f 04 08                        |    ....        |      addr: 0x8049f99 0x11424-0x11428 (4)
0x11420|                        99 1f 00 00            |        ....    |      offset: 8089 0x11428-0x1142c (4)
0x11420|                                    0c 00 00 00|            ....|      size: 0xc 0x1142c-0x11430 (4)
0x11430|00 00 00 00                                    |....            |      link: 0 0x11430-0x11434 (4)
0x11430|            00 00 00 00                        |    ....        |      info: 0 0x11434-0x11438 (4)
0x11430|                        01 00 00 00            |        ....    |      addralign: 1 0x11438-0x1143c (4)
0x11430|                                    00 00 00 00|            ....|      entsize: 0 0x1143c-0x11440 (4)
       |                                               |                |    [5]{}: section_header 0x2000-0x11468 (62568)
0x02000|61 61 61 00 6c 69 62 62 62 62 5f 62 62 62 00 2f|aaa.libbbb_bbb./|      data: raw bits 0x2000-0x2019 (25)
0x02010|64 65 76 2f 6e 75 6c 6c 00                     |dev/null.       |
0x11440|40 00 00 00                                    |@...            |      name: ".rodata" (64) 0x11440-0x11444 (4)
0x11440|            01 00 00 00                        |    ....        |      type: "progbits" (0x1) (Information defined by the program) 0x11444-0x11448 (4)
       |                                               |                |      flags{}: 0x11448-0x1144c (4)
0x11440|                        02                     |        .       |        link_order: false 0x11448-0x11448.1 (0.1)
0x11440|                        02                     |        .       |        info_link: false 0x11448.1-0x11448.2 (0.1)
0x11440|                        02                     |        .       |        strings: false 0x11448.2-0x11448.3 (0.1)
0x11440|                        02                     |        .       |        merge: false 0x11448.3-0x11448.4 (0.1)
0x11440|                        02                     |        .       |        unused0: 0 0x11448.4-0x11448.5 (0.1)
0x11440|                        02                     |        .       |        execinstr: false 0x11448.5-0x11448.6 (0.1)
0x11440|                        02                     |        .       |        alloc: true 0x11448.6-0x11448.7 (0.1)
0x11440|                        02                     |        .       |        write: false 0x11448.7-0x11449 (0.1)
0x11440|                           00                  |         .      |        tls: false 0x11449-0x11449.1 (0.1)
0x11440|                           00                  |         .      |        group: false 0x11449.1-0x11449.2 (0.1)
0x11440|                           00                  |         .      |        os_nonconforming: false 0x11449.2-0x11449.3 (0.1)
0x11440|                           00 00               |         ..     |        unused1: 0 0x11449.3-0x1144a.4 (1.1)
0x11440|                              00 00            |          ..    |        os_specific: 0 0x1144a.4-0x1144b.4 (1)
0x11440|                                 00            |           .    |        processor_specific: 0 0x1144b.4-0x1144c (0.4)
0x11440|                                    00 a0 04 08|            ....|      addr: 0x804a000 0x1144c-0x11450 (4)
0x11450|00 20 00 00                                    |. ..            |      offset: 8192 0x11450-0x11454 (4)
0x11450|            19 00 00 00                        |    ....        |      size: 0x19 0x11454-0x11458 (4)
0x11450|                        00 00 00 00            |        ....    |      link: 0 0x11458-0x1145c (4)
0x11450|                                    00 00 00 00|            ....|      info: 0 0x1145c-0x11460 (4)
0x11460|01 00 00 00                                    |....            |      addralign: 1 0x11460-0x11464 (4)
0x11460|            00 00 00 00                        |    ....        |      entsize: 0 0x11464-0x11468 (4)
       |                                               |                |    [6]{}: section_header 0x201c-0x11490 (62580)
0x02010|                                    14 00 00 00|            ....|      data: raw bits 0x201c-0x20b8 (156)
0x02020|00 00 00 00 01 7a 52 00 01 7c 08 01 1b 0c 04 04|.....zR..|......|
*      |until 0x20b7.7 (156)                           |                |
0x11460|                        48 00 00 00            |        H...    |      name: ".eh_frame" (72) 0x11468-0x1146c (4)
0x11460|                                    01 00 00 00|            ....|      type: "progbits" (0x1) (Information defined by the program) 0x1146c-0x11470 (4)
       |                                               |                |      flags{}: 0x11470-0x11474 (4)
0x11470|02                                             |.               |        link_order: false 0x11470-0x11470.1 (0.1)
0x11470|02                                             |.               |        info_link: false 0x11470.1-0x11470.2 (0.1)
0x11470|02                                             |.               |        strings: false 0x11470.2-0x11470.3 (0.1)
0x11470|02                                             |.               |        merge: false 0x11470.3-0x11470.4 (0.1)
0x11470|02                                             |.               |        unused0: 0 0x11470.4-0x11470.5 (0.1)
0x11470|02                                             |.               |        execinstr: false 0x11470.5-0x11470.6 (0.1)
0x11470|02                                             |.               |        alloc: true 0x11470.6-0x11470.7 (0.1)
0x11470|02                                             |.               |        write: false 0x11470.7-0x11471 (0.1)
0x11470|   00                                          | .              |        tls: false 0x11471-0x11471.1 (0.1)
0x11470|   00                                          | .              |        group: false 0x11471.1-0x11471.2 (0.1)
0x11470|   00                                          | .              |        os_nonconforming: false 0x11471.2-0x11471.3 (0.1)
0x11470|   00 00                                       | ..             |        unused1: 0 0x11471.3-0x11472.4 (1.1)
0x11470|      00 00                                    |  ..            |        os_specific: 0 0x11472.4-0x11473.4 (1)
0x11470|         00                                    |   .            |        processor_specific: 0 0x11473.4-0x11474 (0.4)
0x11470|            1c a0 04 08                        |    ....        |      addr: 0x804a01c 0x11474-0x11478 (4)
0x11470|                        1c 20 00 00            |        . ..    |      offset: 8220 0x11478-0x1147c (4)
0x11470|                                    9c 00 00 00|            ....|      size: 0x9c 0x1147c-0x11480 (4)
0x11480|00 00 00 00                                    |....            |      link: 0 0x11480-0x11484 (4)
0x11480|            00 00 00 00                        |    ....        |      info: 0 0x11484-0x11488 (4)
0x11480|                        04 00 00 00            |        ....    |      addralign: 4 0x11488-0x1148c (4)
0x11480|                                    00 00 00 00|            ....|      entsize: 0 0x1148c-0x11490 (4)
       |                                               |                |    [7]{}: section_header 0x2fd0-0x114b8 (58600)
0x02fd0|ff ff ff ff 00 00 00 00                        |........        |      data: raw bits 0x2fd0-0x2fd8 (8)
0x11490|52 00 00 00                                    |R...            |      name: ".ctors" (82) 0x11490-0x11494 (4)
0x11490|            01 00 00 00                        |    ....        |      type: "progbits" (0x1) (Information defined by the program) 0x11494-0x11498 (4)
       |                                               |                |      flags{}: 0x11498-0x1149c (4)
0x11490|                        03                     |        .       |        link_order: false 0x11498-0x11498.1 (0.1)
0x11490|                        03                     |        .       |        info_link: false 0x11498.1-0x11498.2 (0.1)
0x11490|                        03                     |        .       |        strings: false 0x11498.2-0x11498.3 (0.1)
0x11490|                        03                     |        .       |        merge: false 0x11498.3-0x11498.4 (0.1)
0x11490|                        03                     |        .       |        unused0: 0 0x11498.4-0x11498.5 (0.1)
0x11490|                        03                     |        .       |        execinstr: false 0x11498.5-0x11498.6 (0.1)
0x11490|                        03                     |        .       |        alloc: true 0x11498.6-0x11498.7 (0.1)
0x11490|                        03                     |        .       |        write: true 0x11498.7-0x11499 (0.1)
0x11490|                           00                  |         .      |        tls: false 0x11499-0x11499.1 (0.1)
0x11490|                           00                  |         .      |        group: false 0x11499.1-0x11499.2 (0.1)
0x11490|                           00                  |         .      |        os_nonconforming: false 0x11499.2-0x11499.3 (0.1)
0x11490|                           00 00               |         ..     |        unused1: 0 0x11499.3-0x1149a.4 (1.1)
0x11490|                              00 00            |          ..    |        os_specific: 0 0x1149a.4-0x1149b.4 (1)
0x11490|                                 00            |           .    |        processor_specific: 0 0x1149b.4-0x1149c (0.4)
0x11490|                                    d0 bf 04 08|            ....|      addr: 0x804bfd0 0x1149c-0x114a0 (4)
0x114a0|d0 2f 00 00                                    |./..            |      offset: 12240 0x114a0-0x114a4 (4)
0x114a0|            08 00 00 00                        |    ....        |      size: 0x8 0x114a4-0x114a8 (4)
0x114a0|                        00 00 00 00            |        ....    |      link: 0 0x114a8-0x114ac (4)
0x114a0|                                    00 00 00 00|            ....|      info: 0 0x114ac-0x114b0 (4)
0x114b0|04 00 00 00                                    |....            |      addralign: 4 0x114b0-0x114b4 (4)
0x114b0|            00 00 00 00                        |    ....        |      entsize: 0 0x114b4-0x114b8 (4)
       |                                               |                |    [8]{}: section_header 0x2fd8-0x114e0 (58632)
0x02fd0|                        ff ff ff ff 00 00 00 00|        ........|      data: raw bits 0x2fd8-0x2fe0 (8)
0x114b0|                        59 00 00 00            |        Y...    |      name: ".dtors" (89) 0x114b8-0x114bc (4)
0x114b0|                                    01 00 00 00|            ....|      type: "progbits" (0x1) (Information defined by the program) 0x114bc-0x114c0 (4)
       |                                               |                |      flags{}: 0x114c0-0x114c4 (4)
0x114c0|03                                             |.               |        link_order: false 0x114c0-0x114c0.1 (0.1)
0x114c0|03                                             |.               |        info_link: false 0x114c0.1-0x114c0.2 (0.1)
0x114c0|03                                             |.               |        strings: false 0x114c0.2-0x114c0.3 (0.1)
0x114c0|03                                             |.               |        merge: false 0x114c0.3-0x114c0.4 (0.1)
0x114c0|03                                             |.               |        unused0: 0 0x114c0.4-0x114c0.5 (0.1)
0x114c0|03                                             |.               |        execinstr: false 0x114c0.5-0x114c0.6 (0.1)
0x114c0|03                                             |.               |        alloc: true 0x114c0.6-0x114c0.7 (0.1)
0x114c0|03                                             |.               |        write: true 0x114c0.7-0x114c1 (0.1)
0x114c0|   00                                          | .              |        tls: false 0x114c1-0x114c1.1 (0.1)
0x114c0|   00                                          | .              |        group: false 0x114c1.1-0x114c1.2 (0.1)
0x114c0|   00                                          | .              |        os_nonconforming: false 0x114c1.2-0x114c1.3 (0.1)
0x114c0|   00 00                                       | ..             |        unused1: 0 0x114c1.3-0x114c2.4 (1.1)
0x114c0|      00 00                                    |  ..            |        os_specific: 0 0x114c2.4-0x114c3.4 (1)
0x114c0|         00                                    |   .            |        processor_specific: 0 0x114c3.4-0x114c4 (0.4)
0x114c0|            d8 bf 04 08                        |    ....        |      addr: 0x804bfd8 0x114c4-0x114c8 (4)
0x114c0|                        d8 2f 00 00            |        ./..    |      offset: 12248 0x114c8-0x114cc (4)
0x114c0|                                    08 00 00 00|            ....|      size: 0x8 0x114cc-0x114d0 (4)
0x114d0|00 00 00 00                                    |....            |      link: 0 0x114d0-0x114d4 (4)
0x114d0|            00 00 00 00                        |    ....        |      info: 0 0x114d4-0x114d8 (4)
0x114d0|                        04 00 00 00            |        ....    |      addralign: 4 0x114d8-0x114dc (4)
0x114d0|                                    00 00 00 00|            ....|      entsize: 0 0x114dc-0x114e0 (4)
       |                                               |                |    [9]{}: section_header 0x2fe0-0x11508 (58664)
0x02fe0|20 c0 04 08 3c c6 04 08                        | ...<...        |      data: raw bits 0x2fe0-0x2fe8 (8)
0x114e0|60 00 00 00                                    |`...            |      name: ".data.rel.ro" (96) 0x114e0-0x114e4 (4)
0x114e0|            01 00 00 00                        |    ....        |      type: "progbits" (0x1) (Information defined by the program) 0x114e4-0x114e8 (4)
       |                                               |                |      flags{}: 0x114e8-0x114ec (4)
0x114e0|                        03                     |        .       |        link_order: false 0x114e8-0x114e8.1 (0.1)
0x114e0|                        03                     |        .       |        info_link: false 0x114e8.1-0x114e8.2 (0.1)
0x114e0|                        03                     |        .       |        strings: false 0x114e8.2-0x114e8.3 (0.1)
0x114e0|                        03                     |        .       |        merge: false 0x114e8.3-0x114e8.4 (0.1)
0x114e0|                        03                     |        .       |        unused0: 0 0x114e8.4-0x114e8.5 (0.1)
0x114e0|                        03                     |        .       |        execinstr: false 0x114e8.5-0x114e8.6 (0.1)
0x114e0|                        03                     |        .       |        alloc: true 0x114e8.6-0x114e8.7 (0.1)
0x114e0|                        03                     |        .       |        write: true 0x114e8.7-0x114e9 (0.1)
0x114e0|                           00                  |         .      |        tls: false 0x114e9-0x114e9.1 (0.1)
0x114e0|                           00                  |         .      |        group: false 0x114e9.1-0x114e9.2 (0.1)
0x114e0|                           00                  |         .      |        os_nonconforming: false 0x114e9.2-0x114e9.3 (0.1)
0x114e0|                           00 00               |         ..     |        unused1: 0 0x114e9.3-0x114ea.4 (1.1)
0x114e0|                              00 00            |          ..    |        os_specific: 0 0x114ea.4-0x114eb.4 (1)
0x114e0|                                 00            |           .    |        processor_specific: 0 0x114eb.4-0x114ec (0.4)
0x114e0|                                    e0 bf 04 08|            ....|      addr: 0x804bfe0 0x114ec-0x114f0 (4)
0x114f0|e0 2f 00 00                                    |./..            |      offset: 12256 0x114f0-0x114f4 (4)
0x114f0|            08 00 00 00                        |    ....        |      size: 0x8 0x114f4-0x114f8 (4)
0x114f0|                        00 00 00 00            |        ....    |      link: 0 0x114f8-0x114fc (4)
0x114f0|                                    00 00 00 00|            ....|      info: 0 0x114fc-0x11500 (4)
0x11500|04 00 00 00                                    |....            |      addralign: 4 0x11500-0x11504 (4)
0x11500|            00 00 00 00                        |    ....        |      entsize: 0 0x11504-0x11508 (4)
       |                                               |                |    [10]{}: section_header 0x2fe8-0x11530 (58696)
0x02fe0|                        00 00 00 00 00 00 00 00|        ........|      data: raw bits 0x2fe8-0x3000 (24)
0x02ff0|00 00 00 00 00 90 04 08 10 92 04 08 99 9f 04 08|................|
0x11500|                        6d 00 00 00            |        m...    |      name: ".got" (109) 0x11508-0x1150c (4)
0x11500|                                    01 00 00 00|            ....|      type: "progbits" (0x1) (Information defined by the program) 0x1150c-0x11510 (4)
       |                                               |                |      flags{}: 0x11510-0x11514 (4)
0x11510|03                                             |.               |        link_order: false 0x11510-0x11510.1 (0.1)
0x11510|03                                             |.               |        info_link: false 0x11510.1-0x11510.2 (0.1)
0x11510|03                                             |.               |        strings: false 0x11510.2-0x11510.3 (0.1)
0x11510|03                                             |.               |        merge: false 0x11510.3-0x11510.4 (0.1)
0x11510|03                                             |.               |        unused0: 0 0x11510.4-0x11510.5 (0.1)
0x11510|03                                             |.               |        execinstr: false 0x11510.5-0x11510.6 (0.1)
0x11510|03                                             |.               |        alloc: true 0x11510.6-0x11510.7 (0.1)
0x11510|03                                             |.               |        write: true 0x11510.7-0x11511 (0.1)
0x11510|   00                                          | .              |        tls: false 0x11511-0x11511.1 (0.1)
0x11510|   00                                          | .              |        group: false 0x11511.1-0x11511.2 (0.1)
0x11510|   00                                          | .              |        os_nonconforming: false 0x11511.2-0x11511.3 (0.1)
0x11510|   00 00                                       | ..             |        unused1: 0 0x11511.3-0x11512.4 (1.1)
0x11510|      00 00                                    |  ..            |        os_specific: 0 0x11512.4-0x11513.4 (1)
0x11510|         00                                    |   .            |        processor_specific: 0 0x11513.4-0x11514 (0.4)
0x11510|            e8 bf 04 08                        |    ....        |      addr: 0x804bfe8 0x11514-0x11518 (4)
0x11510|                        e8 2f 00 00            |        ./..    |      offset: 12264 0x11518-0x1151c (4)
0x11510|                                    18 00 00 00|            ....|      size: 0x18 0x1151c-0x11520 (4)
0x11520|00 00 00 00                                    |....            |      link: 0 0x11520-0x11524 (4)
0x11520|            00 00 00 00                        |    ....        |      info: 0 0x11524-0x11528 (4)
0x11520|                        04 00 00 00            |        ....    |      addralign: 4 0x11528-0x1152c (4)
0x11520|                                    04 00 00 00|            ....|      entsize: 4 0x1152c-0x11530 (4)
       |                                               |                |    [11]{}: section_header 0x3000-0x11558 (58712)
0x03000|00 00 00 00 b2 94 04 08 20 c0 04 08 00 00 00 00|........ .......|      data: raw bits 0x3000-0x30b4 (180)
*      |until 0x30b3.7 (180)                           |                |
0x11530|72 00 00 00                                    |r...            |      name: ".data" (114) 0x11530-0x11534 (4)
0x11530|            01 00 00 00                        |    ....        |      type: "progbits" (0x1) (Information defined by the program) 0x11534-0x11538 (4)
       |                                               |                |      flags{}: 0x11538-0x1153c (4)
0x11530|                        03                     |        .       |        link_order: false 0x11538-0x11538.1 (0.1)
0x11530|                        03                     |        .       |        info_link: false 0x11538.1-0x11538.2 (0.1)
0x11530|                        03                     |        .       |        strings: false 0x11538.2-0x11538.3 (0.1)
0x11530|                        03                     |        .       |        merge: false 0x11538.3-0x11538.4 (0.1)
0x11530|                        03                     |        .       |        unused0: 0 0x11538.4-0x11538.5 (0.1)
0x11530|                        03                     |        .       |        execinstr: false 0x11538.5-0x11538.6 (0.1)
0x11530|                        03                     |        .       |        alloc: true 0x11538.6-0x11538.7 (0.1)
0x11530|                        03                     |        .       |        write: true 0x11538.7-0x11539 (0.1)
0x11530|                           00                  |         .      |        tls: false 0x11539-0x11539.1 (0.1)
0x11530|                           00                  |         .      |        group: false 0x11539.1-0x11539.2 (0.1)
0x11530|                           00                  |         .      |        os_nonconforming: false 0x11539.2-0x11539.3 (0.1)
0x11530|                           00 00               |         ..     |        unused1: 0 0x11539.3-0x1153a.4 (1.1)
0x11530|                              00 00            |          ..    |        os_specific: 0 0x1153a.4-0x1153b.4 (1)
0x11530|                                 00            |           .    |        processor_specific: 0 0x1153b.4-0x1153c (0.4)
0x11530|                                    00 c0 04 08|            ....|      addr: 0x804c000 0x1153c-0x11540 (4)
0x11540|00 30 00 00                                    |.0..            |      offset: 12288 0x11540-0x11544 (4)
0x11540|            b4 00 00 00                        |    ....        |      size: 0xb4 0x11544-0x11548 (4)
0x11540|                        00 00 00 00            |        ....    |      link: 0 0x11548-0x1154c (4)
0x11540|                                    00 00 00 00|            ....|      info: 0 0x1154c-0x11550 (4)
0x11550|20 00 00 00                                    | ...            |      addralign: 32 0x11550-0x11554 (4)
0x11550|            00 00 00 00                        |    ....        |      entsize: 0 0x11554-0x11558 (4)
       |                                               |                |    [12]{}: section_header 0x11558-0x11580 (40)
0x11550|                        78 00 00 00            |        x...    |      name: ".bss" (120) 0x11558-0x1155c (4)
0x11550|                                    08 00 00 00|            ....|      type: "nobits" (0x8) (No space in the file) 0x1155c-0x11560 (4)
       |                                               |                |      flags{}: 0x11560-0x11564 (4)
0x11560|03                                             |.               |        link_order: false 0x11560-0x11560.1 (0.1)
0x11560|03                                             |.               |        info_link: false 0x11560.1-0x11560.2 (0.1)
0x11560|03                                             |.               |        strings: false 0x11560.2-0x11560.3 (0.1)
0x11560|03                                             |.               |        merge: false 0x11560.3-0x11560.4 (0.1)
0x11560|03                                             |.               |        unused0: 0 0x11560.4-0x11560.5 (0.1)
0x11560|03                                             |.               |        execinstr: false 0x11560.5-0x11560.6 (0.1)
0x11560|03                                             |.               |        alloc: true 0x11560.6-0x11560.7 (0.1)
0x11560|03                                             |.               |        write: true 0x11560.7-0x11561 (0.1)
0x11560|   00                                          | .              |        tls: false 0x11561-0x11561.1 (0.1)
0x11560|   00                                          | .              |        group: false 0x11561.1-0x11561.2 (0.1)
0x11560|   00                                          | .              |        os_nonconforming: false 0x11561.2-0x11561.3 (0.1)
0x11560|   00 00                                       | ..             |        unused1: 0 0x11561.3-0x11562.4 (1.1)
0x11560|      00 00                                    |  ..            |        os_specific: 0 0x11562.4-0x11563.4 (1)
0x11560|         00                                    |   .            |        processor_specific: 0 0x11563.4-0x11564 (0.4)
0x11560|            c0 c0 04 08                        |    ....        |      addr: 0x804c0c0 0x11564-0x11568 (4)
0x11560|                        b4 30 00 00            |        .0..    |      offset: 12468 0x11568-0x1156c (4)
0x11560|                                    84 05 00 00|            ....|      size: 0x584 0x1156c-0x11570 (4)
0x11570|00 00 00 00                                    |....            |      link: 0 0x11570-0x11574 (4)
0x11570|            00 00 00 00                        |    ....        |      info: 0 0x11574-0x11578 (4)
0x11570|                        20 00 00 00            |         ...    |      addralign: 32 0x11578-0x1157c (4)
0x11570|                                    00 00 00 00|            ....|      entsize: 0 0x1157c-0x11580 (4)
       |                                               |                |    [13]{}: section_header 0x30b4-0x115a8 (58612)
0x030b0|            47 43 43 3a 20 28 41 6c 70 69 6e 65|    GCC: (Alpine|      data: raw bits 0x30b4-0x30e5 (49)
0x030c0|20 31 30 2e 33 2e 31 5f 67 69 74 32 30 32 31 31| 10.3.1_git20211|
*      |until 0x30e4.7 (49)                            |                |
0x11580|7d 00 00 00                                    |}...            |      name: ".comment" (125) 0x11580-0x11584 (4)
0x11580|            01 00 00 00                        |    ....        |      type: "progbits" (0x1) (Information defined by the program) 0x11584-0x11588 (4)
       |                                               |                |      flags{}: 0x11588-0x1158c (4)
0x11580|                        30                     |        0       |        link_order: false 0x11588-0x11588.1 (0.1)
0x11580|                        30                     |        0       |        info_link: false 0x11588.1-0x11588.2 (0.1)
0x11580|                        30                     |        0       |        strings: true 0x11588.2-0x11588.3 (0.1)
0x11580|                        30                     |        0       |        merge: true 0x11588.3-0x11588.4 (0.1)
0x11580|                        30                     |        0       |        unused0: 0 0x11588.4-0x11588.5 (0.1)
0x11580|                        30                     |        0       |        execinstr: false 0x11588.5-0x11588.6 (0.1)
0x11580|                        30                     |        0       |        alloc: false 0x11588.6-0x11588.7 (0.1)
0x11580|                        30                     |        0       |        write: false 0x11588.7-0x11589 (0.1)
0x11580|                           00                  |         .      |        tls: false 0x11589-0x11589.1 (0.1)
0x11580|                           00                  |         .      |        group: false 0x11589.1-0x11589.2 (0.1)
0x11580|                           00                  |         .      |        os_nonconforming: false 0x11589.2-0x11589.3 (0.1)
0x11580|                           00 00               |         ..     |        unused1: 0 0x11589.3-0x1158a.4 (1.1)
0x11580|                              00 00            |          ..    |        os_specific: 0 0x1158a.4-0x1158b.4 (1)
0x11580|                                 00            |           .    |        processor_specific: 0 0x1158b.4-0x1158c (0.4)
0x11580|                                    00 00 00 00|            ....|      addr: 0x0 0x1158c-0x11590 (4)
0x11590|b4 30 00 00                                    |.0..            |      offset: 12468 0x11590-0x11594 (4)
0x11590|            31 00 00 00                        |    1...        |      size: 0x31 0x11594-0x11598 (4)
0x11590|                        00 00 00 00            |        ....    |      link: 0 0x11598-0x1159c (4)
0x11590|                                    00 00 00 00|            ....|      info: 0 0x1159c-0x115a0 (4)
0x115a0|01 00 00 00                                    |....            |      addralign: 1 0x115a0-0x115a4 (4)
0x115a0|            01 00 00 00                        |    ....        |      entsize: 1 0x115a4-0x115a8 (4)
       |                                               |                |    [14]{}: section_header 0x30e8-0x115d0 (58600)
0x030e0|                        1c 00 00 00 02 00 00 00|        ........|      data: raw bits 0x30e8-0x3538 (1104)
0x030f0|00 00 04 00 00 00 00 00 65 90 04 08 37 00 00 00|........e...7...|
*      |until 0x3537.7 (1104)                          |                |
0x115a0|                        86 00 00 00            |        ....    |      name: ".debug_aranges" (134) 0x115a8-0x115ac (4)
0x115a0|                                    01 00 00 00|            ....|      type: "progbits" (0x1) (Information defined by the program) 0x115ac-0x115b0 (4)
       |                                               |                |      flags{}: 0x115b0-0x115b4 (4)
0x115b0|00                                             |.               |        link_order: false 0x115b0-0x115b0.1 (0.1)
0x115b0|00                                             |.               |        info_link: false 0x115b0.1-0x115b0.2 (0.1)
0x115b0|00                                             |.               |        strings: false 0x115b0.2-0x115b0.3 (0.1)
0x115b0|00                                             |.               |        merge: false 0x115b0.3-0x115b0.4 (0.1)
0x115b0|00                                             |.               |        unused0: 0 0x115b0.4-0x115b0.5 (0.1)
0x115b0|00                                             |.               |        execinstr: false 0x115b0.5-0x115b0.6 (0.1)
0x115b0|00                                             |.               |        alloc: false 0x115b0.6-0x115b0.7 (0.1)
0x115b0|00                                             |.               |        write: false 0x115b0.7-0x115b1 (0.1)
0x115b0|   00                                          | .              |        tls: false 0x115b1-0x115b1.1 (0.1)
0x115b0|   00                                          | .              |        group: false 0x115b1.1-0x115b1.2 (0.1)
0x115b0|   00                                          | .              |        os_nonconforming: false 0x115b1.2-0x115b1.3 (0.1)
0x115b0|   00 00                                       | ..             |        unused1: 0 0x115b1.3-0x115b2.4 (1.1)
0x115b0|      00 00                                    |  ..            |        os_specific: 0 0x115b2.4-0x115b3.4 (1)
0x115b0|         00                                    |   .            |        processor_specific: 0 0x115b3.4-0x115b4 (0.4)
0x115b0|            00 00 00 00                        |    ....        |      addr: 0x0 0x115b4-0x115b8 (4)
0x115b0|                        e8 30 00 00            |        .0..    |      offset: 12520 0x115b8-0x115bc (4)
0x115b0|                                    50 04 00 00|            P...|      size: 0x450 0x115bc-0x115c0 (4)
0x115c0|00 00 00 00                                    |....            |      link: 0 0x115c0-0x115c4 (4)
0x115c0|            00 00 00 00                        |    ....        |      info: 0 0x115c4-0x115c8 (4)
0x115c0|                        08 00 00 00            |        ....    |      addralign: 8 0x115c8-0x115cc (4)
0x115c0|                                    00 00 00 00|            ....|      entsize: 0 0x115cc-0x115d0 (4)
       |                                               |                |    [15]{}: section_header 0x3538-0x115f8 (57536)
0x03530|                        c6 00 00 00 04 00 00 00|        ........|      data: raw bits 0x3538-0x904b (23315)
0x03540|00 00 04 01 13 00 00 00 0c 4c 01 00 00 20 01 00|.........L... ..|
*      |until 0x904a.7 (23315)                         |                |
0x115d0|95 00 00 00                                    |....            |      name: ".debug_info" (149) 0x115d0-0x115d4 (4)
0x115d0|            01 00 00 00                        |    ....        |      type: "progbits" (0x1) (Information defined by the program) 0x115d4-0x115d8 (4)
       |                                               |                |      flags{}: 0x115d8-0x115dc (4)
0x115d0|                        00                     |        .       |        link_order: false 0x115d8-0x115d8.1 (0.1)
0x115d0|                        00                     |        .       |        info_link: false 0x115d8.1-0x115d8.2 (0.1)
0x115d0|                        00                     |        .       |        strings: false 0x115d8.2-0x115d8.3 (0.1)
0x115d0|                        00                     |        .       |        merge: false 0x115d8.3-0x115d8.4 (0.1)
0x115d0|                        00                     |        .       |        unused0: 0 0x115d8.4-0x115d8.5 (0.1)
0x115d0|                        00                     |        .       |        execinstr: false 0x115d8.5-0x115d8.6 (0.1)
0x115d0|                        00                     |        .       |        alloc: false 0x115d8.6-0x115d8.7 (0.1)
0x115d0|                        00                     |        .       |        write: false 0x115d8.7-0x115d9 (0.1)
0x115d0|                           00                  |         .      |        tls: false 0x115d9-0x115d9.1 (0.1)
0x115d0|                           00                  |         .      |        group: false 0x115d9.1-0x115d9.2 (0.1)
0x115d0|                           00                  |         .      |        os_nonconforming: false 0x115d9.2-0x115d9.3 (0.1)
0x115d0|                           00 00               |         ..     |        unused1: 0 0x115d9.3-0x115da.4 (1.1)
0x115d0|                              00 00            |          ..    |        os_specific: 0 0x115da.4-0x115db.4 (1)
0x115d0|                                 00            |           .    |        processor_specific: 0 0x115db.4-0x115dc (0.4)
0x115d0|                                    00 00 00 00|            ....|      addr: 0x0 0x115dc-0x115e0 (4)
0x115e0|38 35 00 00                                    |85..            |      offset: 13624 0x115e0-0x115e4 (4)
0x115e0|            13 5b 00 00                        |    .[..        |      size: 0x5b13 0x115e4-0x115e8 (4)
0x115e0|                        00 00 00 00            |        ....    |      link: 0 0x115e8-0x115ec (4)
0x115e0|                                    00 00 00 00|            ....|      info: 0 0x115ec-0x115f0 (4)
0x115f0|01 00 00 00                                    |....            |      addralign: 1 0x115f0-0x115f4 (4)
0x115f0|            00 00 00 00                        |    ....        |      entsize: 0 0x115f4-0x115f8 (4)
       |                                               |                |    [16]{}: section_header 0x904b-0x11620 (34261)
0x09040|                                 01 11 01 25 0e|           ...%.|      data: raw bits 0x904b-0xb1fe (8627)
0x09050|13 0b 03 0e 1b 0e 55 17 11 01 10 17 00 00 02 24|......U........$|
*      |until 0xb1fd.7 (8627)                          |                |
0x115f0|                        a1 00 00 00            |        ....    |      name: ".debug_abbrev" (161) 0x115f8-0x115fc (4)
0x115f0|                                    01 00 00 00|            ....|      type: "progbits" (0x1) (Information defined by the program) 0x115fc-0x11600 (4)
       |                                               |                |      flags{}: 0x11600-0x11604 (4)
0x11600|00                                             |.               |        link_order: false 0x11600-0x11600.1 (0.1)
0x11600|00                                             |.               |        info_link: false 0x11600.1-0x11600.2 (0.1)
0x11600|00                                             |.               |        strings: false 0x11600.2-0x11600.3 (0.1)
0x11600|00                                             |.               |        merge: false 0x11600.3-0x11600.4 (0.1)
0x11600|00                                             |.               |        unused0: 0 0x11600.4-0x11600.5 (0.1)
0x11600|00                                             |.               |        execinstr: false 0x11600.5-0x11600.6 (0.1)
0x11600|00                                             |.               |        alloc: false 0x11600.6-0x11600.7 (0.1)
0x11600|00                                             |.               |        write: false 0x11600.7-0x11601 (0.1)
0x11600|   00                                          | .              |        tls: false 0x11601-0x11601.1 (0.1)
0x11600|   00                                          | .              |        group: false 0x11601.1-0x11601.2 (0.1)
0x11600|   00                                          | .              |        os_nonconforming: false 0x11601.2-0x11601.3 (0.1)
0x11600|   00 00                                       | ..             |        unused1: 0 0x11601.3-0x11602.4 (1.1)
0x11600|      00 00                                    |  ..            |        os_specific: 0 0x11602.4-0x11603.4 (1)
0x11600|         00                                    |   .            |        processor_specific: 0 0x11603.4-0x11604 (0.4)
0x11600|            00 00 00 00                        |    ....        |      addr: 0x0 0x11604-0x11608 (4)
0x11600|                        4b 90 00 00            |        K...    |      offset: 36939 0x11608-0x1160c (4)
0x11600|                                    b3 21 00 00|            .!..|      size: 0x21b3 0x1160c-0x11610 (4)
0x11610|00 00 00 00                                    |....            |      link: 0 0x11610-0x11614 (4)
0x11610|            00 00 00 00                        |    ....        |      info: 0 0x11614-0x11618 (4)
0x11610|                        01 00 00 00            |        ....    |      addralign: 1 0x11618-0x1161c (4)
0x11610|                                    00 00 00 00|            ....|      entsize: 0 0x1161c-0x11620 (4)
       |                                               |                |    [17]{}: section_header 0xb1fe-0x11648 (25674)
0x0b1f0|                                          50 00|              P.|      data: raw bits 0xb1fe-0xd42d (8751)
0x0b200|00 00 03 00 21 00 00 00 01 01 fb 0e 0d 00 01 01|....!...........|
*      |until 0xd42c.7 (8751)                          |                |
0x11620|af 00 00 00                                    |....            |      name: ".debug_line" (175) 0x11620-0x11624 (4)
0x11620|            01 00 00 00                        |    ....        |      type: "progbits" (0x1) (Information defined by the program) 0x11624-0x11628 (4)
       |                                               |                |      flags{}: 0x11628-0x1162c (4)
0x11620|                        00                     |        .       |        link_order: false 0x11628-0x11628.1 (0.1)
0x11620|                        00                     |        .       |        info_link: false 0x11628.1-0x11628.2 (0.1)
0x11620|                        00                     |        .       |        strings: false 0x11628.2-0x11628.3 (0.1)
0x11620|                        00                     |        .       |        merge: false 0x11628.3-0x11628.4 (0.1)
0x11620|                        00                     |        .       |        unused0: 0 0x11628.4-0x11628.5 (0.1)
0x11620|                        00                     |        .       |        execinstr: false 0x11628.5-0x11628.6 (0.1)
0x11620|                        00                     |        .       |        alloc: false 0x11628.6-0x11628.7 (0.1)
0x11620|                        00                     |        .       |        write: false 0x11628.7-0x11629 (0.1)
0x11620|                           00                  |         .      |        tls: false 0x11629-0x11629.1 (0.1)
0x11620|                           00                  |         .      |        group: false 0x11629.1-0x11629.2 (0.1)
0x11620|                           00                  |         .      |        os_nonconforming: false 0x11629.2-0x11629.3 (0.1)
0x11620|                           00 00               |         ..     |        unused1: 0 0x11629.3-0x1162a.4 (1.1)
0x11620|                              00 00            |          ..    |        os_specific: 0 0x1162a.4-0x1162b.4 (1)
0x11620|                                 00            |           .    |        processor_specific: 0 0x1162b.4-0x1162c (0.4)
0x11620|                                    00 00 00 00|            ....|      addr: 0x0 0x1162c-0x11630 (4)
0x11630|fe b1 00 00                                    |....            |      offset: 45566 0x11630-0x11634 (4)
0x11630|            2f 22 00 00                        |    /"..        |      size: 0x222f 0x11634-0x11638 (4)
0x11630|                        00 00 00 00            |        ....    |      link: 0 0x11638-0x1163c (4)
0x11630|                                    00 00 00 00|            ....|      info: 0 0x1163c-0x11640 (4)
0x11640|01 00 00 00                                    |....            |      addralign: 1 0x11640-0x11644 (4)
0x11640|            00 00 00 00                        |    ....        |      entsize: 0 0x11644-0x11648 (4)
       |                                               |                |    [18]{}: section_header 0xd430-0x11670 (16960)
0x0d430|10 00 00 00 ff ff ff ff 01 00 01 7c 08 0c 04 04|...........|....|      data: raw bits 0xd430-0xde78 (2632)
*      |until 0xde77.7 (2632)                          |                |
0x11640|                        bb 00 00 00            |        ....    |      name: ".debug_frame" (187) 0x11648-0x1164c (4)
0x11640|                                    01 00 00 00|            ....|      type: "progbits" (0x1) (Information defined by the program) 0x1164c-0x11650 (4)
       |                                               |                |      flags{}: 0x11650-0x11654 (4)
0x11650|00                                             |.               |        link_order: false 0x11650-0x11650.1 (0.1)
0x11650|00                                             |.               |        info_link: false 0x11650.1-0x11650.2 (0.1)
0x11650|00                                             |.               |        strings: false 0x11650.2-0x11650.3 (0.1)
0x11650|00                                             |.               |        merge: false 0x11650.3-0x11650.4 (0.1)
0x11650|00                                             |.               |        unused0: 0 0x11650.4-0x11650.5 (0.1)
0x11650|00                                             |.               |        execinstr: false 0x11650.5-0x11650.6 (0.1)
0x11650|00                                             |.               |        alloc: false 0x11650.6-0x11650.7 (0.1)
0x11650|00                                             |.               |        write: false 0x11650.7-0x11651 (0.1)
0x11650|   00                                          | .              |        tls: false 0x11651-0x11651.1 (0.1)
0x11650|   00                                          | .              |        group: false 0x11651.1-0x11651.2 (0.1)
0x11650|   00                                          | .              |        os_nonconforming: false 0x11651.2-0x11651.3 (0.1)
0x11650|   00 00                                       | ..             |        unused1: 0 0x11651.3-0x11652.4 (1.1)
0x11650|      00 00                                    |  ..            |        os_specific: 0 0x11652.4-0x11653.4 (1)
0x11650|         00                                    |   .            |        processor_specific: 0 0x11653.4-0x11654 (0.4)
0x11650|            00 00 00 00                        |    ....        |      addr: 0x0 0x11654-0x11658 (4)
0x11650|                        30 d4 00 00            |        0...    |      offset: 54320 0x11658-0x1165c (4)
0x11650|                                    48 0a 00 00|            H...|      size: 0xa48 0x1165c-0x11660 (4)
0x11660|00 00 00 00                                    |....            |      link: 0 0x11660-0x11664 (4)
0x11660|            00 00 00 00                        |    ....        |      info: 0 0x11664-0x11668 (4)
0x11660|                        04 00 00 00            |        ....    |      addralign: 4 0x11668-0x1166c (4)
0x11660|                                    00 00 00 00|            ....|      entsize: 0 0x1166c-0x11670 (4)
       |                                               |                |    [19]{}: section_header 0xde78-0x11698 (14368)
0x0de70|                        61 72 67 76 00 61 72 67|        argv.arg|      data: raw bits 0xde78-0xebfb (3459)
0x0de80|63 00 5f 73 74 61 72 74 5f 63 00 47 4e 55 20 43|c._start_c.GNU C|
*      |until 0xebfa.7 (3459)                          |                |
0x11670|c8 00 00 00                                    |....            |      name: ".debug_str" (200) 0x11670-0x11674 (4)
0x11670|            01 00 00 00                        |    ....        |      type: "progbits" (0x1) (Information defined by the program) 0x11674-0x11678 (4)
       |                                               |                |      flags{}: 0x11678-0x1167c (4)
0x11670|                        30                     |        0       |        link_order: false 0x11678-0x11678.1 (0.1)
0x11670|                        30                     |        0       |        info_link: false 0x11678.1-0x11678.2 (0.1)
0x11670|                        30                     |        0       |        strings: true 0x11678.2-0x11678.3 (0.1)
0x11670|                        30                     |        0       |        merge: true 0x11678.3-0x11678.4 (0.1)
0x11670|                        30                     |        0       |        unused0: 0 0x11678.4-0x11678.5 (0.1)
0x11670|                        30                     |        0       |        execinstr: false 0x11678.5-0x11678.6 (0.1)
0x11670|                        30                     |        0       |        alloc: false 0x11678.6-0x11678.7 (0.1)
0x11670|                        30                     |        0       |        write: false 0x11678.7-0x11679 (0.1)
0x11670|                           00                  |         .      |        tls: false 0x11679-0x11679.1 (0.1)
0x11670|                           00                  |         .      |        group: false 0x11679.1-0x11679.2 (0.1)
0x11670|                           00                  |         .      |        os_nonconforming: false 0x11679.2-0x11679.3 (0.1)
0x11670|                           00 00               |         ..     |        unused1: 0 0x11679.3-0x1167a.4 (1.1)
0x11670|                              00 00            |          ..    |        os_specific: 0 0x1167a.4-0x1167b.4 (1)
0x11670|                                 00            |           .    |        processor_specific: 0 0x1167b.4-0x1167c (0.4)
0x11670|                                    00 00 00 00|            ....|      addr: 0x0 0x1167c-0x11680 (4)
0x11680|78 de 00 00                                    |x...            |      offset: 56952 0x11680-0x11684 (4)
0x11680|            83 0d 00 00                        |    ....        |      size: 0xd83 0x11684-0x11688 (4)
0x11680|                        00 00 00 00            |        ....    |      link: 0 0x11688-0x1168c (4)
0x11680|                                    00 00 00 00|            ....|      info: 0 0x1168c-0x11690 (4)
0x11690|01 00 00 00                                    |....            |      addralign: 1 0x11690-0x11694 (4)
0x11690|            01 00 00 00                        |    ....        |      entsize: 1 0x11694-0x11698 (4)
       |                                               |                |    [20]{}: section_header 0xebfb-0x116c0 (10949)
0x0ebf0|                                 00 00 78 90 04|           ..x..|      data: raw bits 0xebfb-0xffb2 (5047)
0x0ec00|08 7a 90 04 08 02 00 70 00 00 00 00 00 00 00 00|.z.....p........|
*      |until 0xffb1.7 (5047)                          |                |
0x11690|                        d3 00 00 00            |        ....    |      name: ".debug_loc" (211) 0x11698-0x1169c (4)
0x11690|                                    01 00 00 00|            ....|      type: "progbits" (0x1) (Information defined by the program) 0x1169c-0x116a0 (4)
       |                                               |                |      flags{}: 0x116a0-0x116a4 (4)
0x116a0|00                                             |.               |        link_order: false 0x116a0-0x116a0.1 (0.1)
0x116a0|00                                             |.               |        info_link: false 0x116a0.1-0x116a0.2 (0.1)
0x116a0|00                                             |.               |        strings: false 0x116a0.2-0x116a0.3 (0.1)
0x116a0|00                                             |.               |        merge: false 0x116a0.3-0x116a0.4 (0.1)
0x116a0|00                                             |.               |        unused0: 0 0x116a0.4-0x116a0.5 (0.1)
0x116a0|00                                             |.               |        execinstr: false 0x116a0.5-0x116a0.6 (0.1)
0x116a0|00                                             |.               |        alloc: false 0x116a0.6-0x116a0.7 (0.1)
0x116a0|00                                             |.               |        write: false 0x116a0.7-0x116a1 (0.1)
0x116a0|   00                                          | .              |        tls: false 0x116a1-0x116a1.1 (0.1)
0x116a0|   00                                          | .              |        group: false 0x116a1.1-0x116a1.2 (0.1)
0x116a0|   00                                          | .              |        os_nonconforming: false 0x116a1.2-0x116a1.3 (0.1)
0x116a0|   00 00                                       | ..             |        unused1: 0 0x116a1.3-0x116a2.4 (1.1)
0x116a0|      00 00                                    |  ..            |        os_specific: 0 0x116a2.4-0x116a3.4 (1)
0x116a0|         00                                    |   .            |        processor_specific: 0 0x116a3.4-0x116a4 (0.4)
0x116a0|            00 00 00 00                        |    ....        |      addr: 0x0 0x116a4-0x116a8 (4)
0x116a0|                        fb eb 00 00            |        ....    |      offset: 60411 0x116a8-0x116ac (4)
0x116a0|                                    b7 13 00 00|            ....|      size: 0x13b7 0x116ac-0x116b0 (4)
0x116b0|00 00 00 00                                    |....            |      link: 0 0x116b0-0x116b4 (4)
0x116b0|            00 00 00 00                        |    ....        |      info: 0 0x116b4-0x116b8 (4)
0x116b0|                        01 00 00 00            |        ....    |      addralign: 1 0x116b8-0x116bc (4)
0x116b0|                                    00 00 00 00|            ....|      entsize: 0 0x116bc-0x116c0 (4)
       |                                               |                |    [21]{}: section_header 0xffb8-0x116e8 (5936)
0x0ffb0|                        65 90 04 08 9c 90 04 08|        e.......|      data: raw bits 0xffb8-0x10330 (888)
0x0ffc0|00 00 00 00 00 00 00 00 ff ff ff ff 00 00 00 00|................|
*      |until 0x1032f.7 (888)                          |                |
0x116c0|de 00 00 00                                    |....            |      name: ".debug_ranges" (222) 0x116c0-0x116c4 (4)
0x116c0|            01 00 00 00                        |    ....        |      type: "progbits" (0x1) (Information defined by the program) 0x116c4-0x116c8 (4)
       |                                               |                |      flags{}: 0x116c8-0x116cc (4)
0x116c0|                        00                     |        .       |        link_order: false 0x116c8-0x116c8.1 (0.1)
0x116c0|                        00                     |        .       |        info_link: false 0x116c8.1-0x116c8.2 (0.1)
0x116c0|                        00                     |        .       |        strings: false 0x116c8.2-0x116c8.3 (0.1)
0x116c0|                        00                     |        .       |        merge: false 0x116c8.3-0x116c8.4 (0.1)
0x116c0|                        00                     |        .       |        unused0: 0 0x116c8.4-0x116c8.5 (0.1)
0x116c0|                        00                     |        .       |        execinstr: false 0x116c8.5-0x116c8.6 (0.1)
0x116c0|                        00                     |        .       |        alloc: false 0x116c8.6-0x116c8.7 (0.1)
0x116c0|                        00                     |        .       |        write: false 0x116c8.7-0x116c9 (0.1)
0x116c0|                           00                  |         .      |        tls: false 0x116c9-0x116c9.1 (0.1)
0x116c0|                           00                  |         .      |        group: false 0x116c9.1-0x116c9.2 (0.1)
0x116c0|                           00                  |         .      |        os_nonconforming: false 0x116c9.2-0x116c9.3 (0.1)
0x116c0|                           00 00               |         ..     |        unused1: 0 0x116c9.3-0x116ca.4 (1.1)
0x116c0|                              00 00            |          ..    |        os_specific: 0 0x116ca.4-0x116cb.4 (1)
0x116c0|                                 00            |           .    |        processor_specific: 0 0x116cb.4-0x116cc (0.4)
0x116c0|                                    00 00 00 00|            ....|      addr: 0x0 0x116cc-0x116d0 (4)
0x116d0|b8 ff 00 00                                    |....            |      offset: 65464 0x116d0-0x116d4 (4)
0x116d0|            78 03 00 00                        |    x...        |      size: 0x378 0x116d4-0x116d8 (4)
0x116d0|                        00 00 00 00            |        ....    |      link: 0 0x116d8-0x116dc (4)
0x116d0|                                    00 00 00 00|            ....|      info: 0 0x116dc-0x116e0 (4)
0x116e0|08 00 00 00                                    |....            |      addralign: 8 0x116e0-0x116e4 (4)
0x116e0|            00 00 00 00                        |    ....        |      entsize: 0 0x116e4-0x116e8 (4)
       |                                               |                |    [22]{}: section_header 0x10330-0x11710 (5088)
       |                                               |                |      symbol_table[0:145]: 0x10330-0x10c40 (2320)
       |                                               |                |        [0]{}: symbol 0x10330-0x10340 (16)
0x10330|00 00 00 00                                    |....            |          name: "" (0) 0x10330-0x10334 (4)
0x10330|            00 00 00 00                        |    ....        |          value: 0 0x10334-0x10338 (4)
0x10330|                        00 00 00 00            |        ....    |          size: 0 0x10338-0x1033c (4)
0x10330|                                    00         |            .   |          bind: "local" (0) 0x1033c-0x1033c.4 (0.4)
0x10330|                                    00         |            .   |          type: "notype" (0) 0x1033c.4-0x1033d (0.4)
0x10330|                                       00      |             .  |          other_unused: 0 0x1033d-0x1033d.6 (0.6)
0x10330|                                       00      |             .  |          visibility: "default" (0) 0x1033d.6-0x1033e (0.2)
0x10330|                                          00 00|              ..|          shndx: 0 0x1033e-0x10340 (2)
       |                                               |                |        [1]{}: symbol 0x10340-0x10350 (16)
0x10340|01 00 00 00                                    |....            |          name: "crt1.c" (1) 0x10340-0x10344 (4)
0x10340|            00 00 00 00                        |    ....        |          value: 0 0x10344-0x10348 (4)
0x10340|                        00 00 00 00            |        ....    |          size: 0 0x10348-0x1034c (4)
0x10340|                                    04         |            .   |          bind: "local" (0) 0x1034c-0x1034c.4 (0.4)
0x10340|                                    04         |            .   |          type: "file" (4) 0x1034c.4-0x1034d (0.4)
0x10340|                                       00      |             .  |          other_unused: 0 0x1034d-0x1034d.6 (0.6)
0x10340|                                       00      |             .  |          visibility: "default" (0) 0x1034d.6-0x1034e (0.2)
0x10340|                                          f1 ff|              ..|          shndx: 65521 0x1034e-0x10350 (2)
       |                                               |                |        [2]{}: symbol 0x10350-0x10360 (16)
0x10350|08 00 00 00                                    |....            |          name: "crtstuff.c" (8) 0x10350-0x10354 (4)
0x10350|            00 00 00 00                        |    ....        |          value: 0 0x10354-0x10358 (4)
0x10350|                        00 00 00 00            |        ....    |          size: 0 0x10358-0x1035c (4)
0x10350|                                    04         |            .   |          bind: "local" (0) 0x1035c-0x1035c.4 (0.4)
0x10350|                                    04         |            .   |          type: "file" (4) 0x1035c.4-0x1035d (0.4)
0x10350|                                       00      |             .  |          other_unused: 0 0x1035d-0x1035d.6 (0.6)
0x10350|                                       00      |             .  |          visibility: "default" (0) 0x1035d.6-0x1035e (0.2)
0x10350|                                          f1 ff|              ..|          shndx: 65521 0x1035e-0x10360 (2)
       |                                               |                |        [3]{}: symbol 0x10360-0x10370 (16)
0x10360|13 00 00 00                                    |....            |          name: "__CTOR_LIST__" (19) 0x10360-0x10364 (4)
0x10360|            d0 bf 04 08                        |    ....        |          value: 134528976 0x10364-0x10368 (4)
0x10360|                        00 00 00 00            |        ....    |          size: 0 0x10368-0x1036c (4)
0x10360|                                    01         |            .   |          bind: "local" (0) 0x1036c-0x1036c.4 (0.4)
0x10360|                                    01         |            .   |          type: "object" (1) 0x1036c.4-0x1036d (0.4)
0x10360|                                       00      |             .  |          other_unused: 0 0x1036d-0x1036d.6 (0.6)
0x10360|                                       00      |             .  |          visibility: "default" (0) 0x1036d.6-0x1036e (0.2)
0x10360|                                          07 00|              ..|          shndx: 7 0x1036e-0x10370 (2)
       |                                               |                |        [4]{}: symbol 0x10370-0x10380 (16)
0x10370|21 00 00 00                                    |!...            |          name: "__DTOR_LIST__" (33) 0x10370-0x10374 (4)
0x10370|            d8 bf 04 08                        |    ....        |          value: 134528984 0x10374-0x10378 (4)
0x10370|                        00 00 00 00            |        ....    |          size: 0 0x10378-0x1037c (4)
0x10370|                                    01         |            .   |          bind: "local" (0) 0x1037c-0x1037c.4 (0.4)
0x10370|                                    01         |            .   |          type: "object" (1) 0x1037c.4-0x1037d (0.4)
0x10370|                                       00      |             .  |          other_unused: 0 0x1037d-0x1037d.6 (0.6)
0x10370|                                       00      |             .  |          visibility: "default" (0) 0x1037d.6-0x1037e (0.2)
0x10370|                                          08 00|              ..|          shndx: 8 0x1037e-0x10380 (2)
       |                                               |                |        [5]{}: symbol 0x10380-0x10390 (16)
0x10380|2f 00 00 00                                    |/...            |          name: "__EH_FRAME_BEGIN__" (47) 0x10380-0x10384 (4)
0x10380|            1c a0 04 08                        |    ....        |          value: 134520860 0x10384-0x10388 (4)
0x10380|                        00 00 00 00            |        ....    |          size: 0 0x10388-0x1038c (4)
0x10380|                                    01         |            .   |          bind: "local" (0) 0x1038c-0x1038c.4 (0.4)
0x10380|                                    01         |            .   |          type: "object" (1) 0x1038c.4-0x1038d (0.4)
0x10380|                                       00      |             .  |          other_unused: 0 0x1038d-0x1038d.6 (0.6)
0x10380|                                       00      |             .  |          visibility: "default" (0) 0x1038d.6-0x1038e (0.2)
0x10380|                                          06 00|              ..|          shndx: 6 0x1038e-0x10390 (2)
       |                                               |                |        [6]{}: symbol 0x10390-0x103a0 (16)
0x10390|42 00 00 00                                    |B...            |          name: "deregister_tm_clones" (66) 0x10390-0x10394 (4)
0x10390|            a0 90 04 08                        |    ....        |          value: 134516896 0x10394-0x10398 (4)
0x10390|                        00 00 00 00            |        ....    |          size: 0 0x10398-0x1039c (4)
0x10390|                                    02         |            .   |          bind: "local" (0) 0x1039c-0x1039c.4 (0.4)
0x10390|                                    02         |            .   |          type: "func" (2) 0x1039c.4-0x1039d (0.4)
0x10390|                                       00      |             .  |          other_unused: 0 0x1039d-0x1039d.6 (0.6)
0x10390|                                       00      |             .  |          visibility: "default" (0) 0x1039d.6-0x1039e (0.2)
0x10390|                                          03 00|              ..|          shndx: 3 0x1039e-0x103a0 (2)
       |                                               |                |        [7]{}: symbol 0x103a0-0x103b0 (16)
0x103a0|44 00 00 00                                    |D...            |          name: "register_tm_clones" (68) 0x103a0-0x103a4 (4)
0x103a0|            e0 90 04 08                        |    ....        |          value: 134516960 0x103a4-0x103a8 (4)
0x103a0|                        00 00 00 00            |        ....    |          size: 0 0x103a8-0x103ac (4)
0x103a0|                                    02         |            .   |          bind: "local" (0) 0x103ac-0x103ac.4 (0.4)
0x103a0|                                    02         |            .   |          type: "func" (2) 0x103ac.4-0x103ad (0.4)
0x103a0|                                       00      |             .  |          other_unused: 0 0x103ad-0x103ad.6 (0.6)
0x103a0|                                       00      |             .  |          visibility: "default" (0) 0x103ad.6-0x103ae (0.2)
0x103a0|                                          03 00|              ..|          shndx: 3 0x103ae-0x103b0 (2)
       |                                               |                |        [8]{}: symbol 0x103b0-0x103c0 (16)
0x103b0|57 00 00 00                                    |W...            |          name: "__do_global_dtors_aux" (87) 0x103b0-0x103b4 (4)
0x103b0|            20 91 04 08                        |     ...        |          value: 134517024 0x103b4-0x103b8 (4)
0x103b0|                        00 00 00 00            |        ....    |          size: 0 0x103b8-0x103bc (4)
0x103b0|                                    02         |            .   |          bind: "local" (0) 0x103bc-0x103bc.4 (0.4)
0x103b0|                                    02         |            .   |          type: "func" (2) 0x103bc.4-0x103bd (0.4)
0x103b0|                                       00      |             .  |          other_unused: 0 0x103bd-0x103bd.6 (0.6)
0x103b0|                                       00      |             .  |          visibility: "default" (0) 0x103bd.6-0x103be (0.2)
0x103b0|                                          03 00|              ..|          shndx: 3 0x103be-0x103c0 (2)
       |                                               |                |        [9]{}: symbol 0x103c0-0x103d0 (16)
0x103c0|6d 00 00 00                                    |m...            |          name: "completed.2" (109) 0x103c0-0x103c4 (4)
0x103c0|            c0 c0 04 08                        |    ....        |          value: 134529216 0x103c4-0x103c8 (4)
0x103c0|                        01 00 00 00            |        ....    |          size: 1 0x103c8-0x103cc (4)
0x103c0|                                    01         |            .   |          bind: "local" (0) 0x103cc-0x103cc.4 (0.4)
0x103c0|                                    01         |            .   |          type: "object" (1) 0x103cc.4-0x103cd (0.4)
0x103c0|                                       00      |             .  |          other_unused: 0 0x103cd-0x103cd.6 (0.6)
0x103c0|                                       00      |             .  |          visibility: "default" (0) 0x103cd.6-0x103ce (0.2)
0x103c0|                                          0c 00|              ..|          shndx: 12 0x103ce-0x103d0 (2)
       |                                               |                |        [10]{}: symbol 0x103d0-0x103e0 (16)
0x103d0|79 00 00 00                                    |y...            |          name: "dtor_idx.1" (121) 0x103d0-0x103d4 (4)
0x103d0|            c4 c0 04 08                        |    ....        |          value: 134529220 0x103d4-0x103d8 (4)
0x103d0|                        04 00 00 00            |        ....    |          size: 4 0x103d8-0x103dc (4)
0x103d0|                                    01         |            .   |          bind: "local" (0) 0x103dc-0x103dc.4 (0.4)
0x103d0|                                    01         |            .   |          type: "object" (1) 0x103dc.4-0x103dd (0.4)
0x103d0|                                       00      |             .  |          other_unused: 0 0x103dd-0x103dd.6 (0.6)
0x103d0|                                       00      |             .  |          visibility: "default" (0) 0x103dd.6-0x103de (0.2)
0x103d0|                                          0c 00|              ..|          shndx: 12 0x103de-0x103e0 (2)
       |                                               |                |        [11]{}: symbol 0x103e0-0x103f0 (16)
0x103e0|84 00 00 00                                    |....            |          name: "frame_dummy" (132) 0x103e0-0x103e4 (4)
0x103e0|            a0 91 04 08                        |    ....        |          value: 134517152 0x103e4-0x103e8 (4)
0x103e0|                        00 00 00 00            |        ....    |          size: 0 0x103e8-0x103ec (4)
0x103e0|                                    02         |            .   |          bind: "local" (0) 0x103ec-0x103ec.4 (0.4)
0x103e0|                                    02         |            .   |          type: "func" (2) 0x103ec.4-0x103ed (0.4)
0x103e0|                                       00      |             .  |          other_unused: 0 0x103ed-0x103ed.6 (0.6)
0x103e0|                                       00      |             .  |          visibility: "default" (0) 0x103ed.6-0x103ee (0.2)
0x103e0|                                          03 00|              ..|          shndx: 3 0x103ee-0x103f0 (2)
       |                                               |                |        [12]{}: symbol 0x103f0-0x10400 (16)
0x103f0|90 00 00 00                                    |....            |          name: "object.0" (144) 0x103f0-0x103f4 (4)
0x103f0|            c8 c0 04 08                        |    ....        |          value: 134529224 0x103f4-0x103f8 (4)
0x103f0|                        18 00 00 00            |        ....    |          size: 24 0x103f8-0x103fc (4)
0x103f0|                                    01         |            .   |          bind: "local" (0) 0x103fc-0x103fc.4 (0.4)
0x103f0|                                    01         |            .   |          type: "object" (1) 0x103fc.4-0x103fd (0.4)
0x103f0|                                       00      |             .  |          other_unused: 0 0x103fd-0x103fd.6 (0.6)
0x103f0|                                       00      |             .  |          visibility: "default" (0) 0x103fd.6-0x103fe (0.2)
0x103f0|                                          0c 00|              ..|          shndx: 12 0x103fe-0x10400 (2)
       |                                               |                |        [13]{}: symbol 0x10400-0x10410 (16)
0x10400|08 00 00 00                                    |....            |          name: "crtstuff.c" (8) 0x10400-0x10404 (4)
0x10400|            00 00 00 00                        |    ....        |          value: 0 0x10404-0x10408 (4)
0x10400|                        00 00 00 00            |        ....    |          size: 0 0x10408-0x1040c (4)
0x10400|                                    04         |            .   |          bind: "local" (0) 0x1040c-0x1040c.4 (0.4)
0x10400|                                    04         |            .   |          type: "file" (4) 0x1040c.4-0x1040d (0.4)
0x10400|                                       00      |             .  |          other_unused: 0 0x1040d-0x1040d.6 (0.6)
0x10400|                                       00      |             .  |          visibility: "default" (0) 0x1040d.6-0x1040e (0.2)
0x10400|                                          f1 ff|              ..|          shndx: 65521 0x1040e-0x10410 (2)
       |                                               |                |        [14]{}: symbol 0x10410-0x10420 (16)
0x10410|99 00 00 00                                    |....            |          name: "__CTOR_END__" (153) 0x10410-0x10414 (4)
0x10410|            d4 bf 04 08                        |    ....        |          value: 134528980 0x10414-0x10418 (4)
0x10410|                        00 00 00 00            |        ....    |          size: 0 0x10418-0x1041c (4)
0x10410|                                    01         |            .   |          bind: "local" (0) 0x1041c-0x1041c.4 (0.4)
0x10410|                                    01         |            .   |          type: "object" (1) 0x1041c.4-0x1041d (0.4)
0x10410|                                       00      |             .  |          other_unused: 0 0x1041d-0x1041d.6 (0.6)
0x10410|                                       00      |             .  |          visibility: "default" (0) 0x1041d.6-0x1041e (0.2)
0x10410|                                          07 00|              ..|          shndx: 7 0x1041e-0x10420 (2)
       |                                               |                |        [15]{}: symbol 0x10420-0x10430 (16)
0x10420|a6 00 00 00                                    |....            |          name: "__FRAME_END__" (166) 0x10420-0x10424 (4)
0x10420|            b4 a0 04 08                        |    ....        |          value: 134521012 0x10424-0x10428 (4)
0x10420|                        00 00 00 00            |        ....    |          size: 0 0x10428-0x1042c (4)
0x10420|                                    01         |            .   |          bind: "local" (0) 0x1042c-0x1042c.4 (0.4)
0x10420|                                    01         |            .   |          type: "object" (1) 0x1042c.4-0x1042d (0.4)
0x10420|                                       00      |             .  |          other_unused: 0 0x1042d-0x1042d.6 (0.6)
0x10420|                                       00      |             .  |          visibility: "default" (0) 0x1042d.6-0x1042e (0.2)
0x10420|                                          06 00|              ..|          shndx: 6 0x1042e-0x10430 (2)
       |                                               |                |        [16]{}: symbol 0x10430-0x10440 (16)
0x10430|b4 00 00 00                                    |....            |          name: "__do_global_ctors_aux" (180) 0x10430-0x10434 (4)
0x10430|            60 9f 04 08                        |    `...        |          value: 134520672 0x10434-0x10438 (4)
0x10430|                        00 00 00 00            |        ....    |          size: 0 0x10438-0x1043c (4)
0x10430|                                    02         |            .   |          bind: "local" (0) 0x1043c-0x1043c.4 (0.4)
0x10430|                                    02         |            .   |          type: "func" (2) 0x1043c.4-0x1043d (0.4)
0x10430|                                       00      |             .  |          other_unused: 0 0x1043d-0x1043d.6 (0.6)
0x10430|                                       00      |             .  |          visibility: "default" (0) 0x1043d.6-0x1043e (0.2)
0x10430|                                          03 00|              ..|          shndx: 3 0x1043e-0x10440 (2)
       |                                               |                |        [17]{}: symbol 0x10440-0x10450 (16)
0x10440|00 02 00 00                                    |....            |          name: "exit.c" (512) 0x10440-0x10444 (4)
0x10440|            00 00 00 00                        |    ....        |          value: 0 0x10444-0x10448 (4)
0x10440|                        00 00 00 00            |        ....    |          size: 0 0x10448-0x1044c (4)
0x10440|                                    04         |            .   |          bind: "local" (0) 0x1044c-0x1044c.4 (0.4)
0x10440|                                    04         |            .   |          type: "file" (4) 0x1044c.4-0x1044d (0.4)
0x10440|                                       00      |             .  |          other_unused: 0 0x1044d-0x1044d.6 (0.6)
0x10440|                                       00      |             .  |          visibility: "default" (0) 0x1044d.6-0x1044e (0.2)
0x10440|                                          f1 ff|              ..|          shndx: 65521 0x1044e-0x10450 (2)
       |                                               |                |        [18]{}: symbol 0x10450-0x10460 (16)
0x10450|8a 00 00 00                                    |....            |          name: "dummy" (138) 0x10450-0x10454 (4)
0x10450|            81 94 04 08                        |    ....        |          value: 134517889 0x10454-0x10458 (4)
0x10450|                        01 00 00 00            |        ....    |          size: 1 0x10458-0x1045c (4)
0x10450|                                    02         |            .   |          bind: "local" (0) 0x1045c-0x1045c.4 (0.4)
0x10450|                                    02         |            .   |          type: "func" (2) 0x1045c.4-0x1045d (0.4)
0x10450|                                       00      |             .  |          other_unused: 0 0x1045d-0x1045d.6 (0.6)
0x10450|                                       00      |             .  |          visibility: "default" (0) 0x1045d.6-0x1045e (0.2)
0x10450|                                          03 00|              ..|          shndx: 3 0x1045e-0x10460 (2)
       |                                               |                |        [19]{}: symbol 0x10460-0x10470 (16)
0x10460|62 05 00 00                                    |b...            |          name: "libc_exit_fini" (1378) 0x10460-0x10464 (4)
0x10460|            82 94 04 08                        |    ....        |          value: 134517890 0x10464-0x10468 (4)
0x10460|                        30 00 00 00            |        0...    |          size: 48 0x10468-0x1046c (4)
0x10460|                                    02         |            .   |          bind: "local" (0) 0x1046c-0x1046c.4 (0.4)
0x10460|                                    02         |            .   |          type: "func" (2) 0x1046c.4-0x1046d (0.4)
0x10460|                                       00      |             .  |          other_unused: 0 0x1046d-0x1046d.6 (0.6)
0x10460|                                       00      |             .  |          visibility: "default" (0) 0x1046d.6-0x1046e (0.2)
0x10460|                                          03 00|              ..|          shndx: 3 0x1046e-0x10470 (2)
       |                                               |                |        [20]{}: symbol 0x10470-0x10480 (16)
0x10470|ca 00 00 00                                    |....            |          name: "a.c" (202) 0x10470-0x10474 (4)
0x10470|            00 00 00 00                        |    ....        |          value: 0 0x10474-0x10478 (4)
0x10470|                        00 00 00 00            |        ....    |          size: 0 0x10478-0x1047c (4)
0x10470|                                    04         |            .   |          bind: "local" (0) 0x1047c-0x1047c.4 (0.4)
0x10470|                                    04         |            .   |          type: "file" (4) 0x1047c.4-0x1047d (0.4)
0x10470|                                       00      |             .  |          other_unused: 0 0x1047d-0x1047d.6 (0.6)
0x10470|                                       00      |             .  |          visibility: "default" (0) 0x1047d.6-0x1047e (0.2)
0x10470|                                          f1 ff|              ..|          shndx: 65521 0x1047e-0x10480 (2)
       |                                               |                |        [21]{}: symbol 0x10480-0x10490 (16)
0x10480|ce 00 00 00                                    |....            |          name: "libbbb.c" (206) 0x10480-0x10484 (4)
0x10480|            00 00 00 00                        |    ....        |          value: 0 0x10484-0x10488 (4)
0x10480|                        00 00 00 00            |        ....    |          size: 0 0x10488-0x1048c (4)
0x10480|                                    04         |            .   |          bind: "local" (0) 0x1048c-0x1048c.4 (0.4)
0x10480|                                    04         |            .   |          type: "file" (4) 0x1048c.4-0x1048d (0.4)
0x10480|                                       00      |             .  |          other_unused: 0 0x1048d-0x1048d.6 (0.6)
0x10480|                                       00      |             .  |          visibility: "default" (0) 0x1048d.6-0x1048e (0.2)
0x10480|                                          f1 ff|              ..|          shndx: 65521 0x1048e-0x10490 (2)
       |                                               |                |        [22]{}: symbol 0x10490-0x104a0 (16)
0x10490|d7 00 00 00                                    |....            |          name: "__libc_start_main.c" (215) 0x10490-0x10494 (4)
0x10490|            00 00 00 00                        |    ....        |          value: 0 0x10494-0x10498 (4)
0x10490|                        00 00 00 00            |        ....    |          size: 0 0x10498-0x1049c (4)
0x10490|                                    04         |            .   |          bind: "local" (0) 0x1049c-0x1049c.4 (0.4)
0x10490|                                    04         |            .   |          type: "file" (4) 0x1049c.4-0x1049d (0.4)
0x10490|                                       00      |             .  |          other_unused: 0 0x1049d-0x1049d.6 (0.6)
0x10490|                                       00      |             .  |          visibility: "default" (0) 0x1049d.6-0x1049e (0.2)
0x10490|                                          f1 ff|              ..|          shndx: 65521 0x1049e-0x104a0 (2)
       |                                               |                |        [23]{}: symbol 0x104a0-0x104b0 (16)
0x104a0|8a 00 00 00                                    |....            |          name: "dummy" (138) 0x104a0-0x104a4 (4)
0x104a0|            65 92 04 08                        |    e...        |          value: 134517349 0x104a4-0x104a8 (4)
0x104a0|                        01 00 00 00            |        ....    |          size: 1 0x104a8-0x104ac (4)
0x104a0|                                    02         |            .   |          bind: "local" (0) 0x104ac-0x104ac.4 (0.4)
0x104a0|                                    02         |            .   |          type: "func" (2) 0x104ac.4-0x104ad (0.4)
0x104a0|                                       00      |             .  |          other_unused: 0 0x104ad-0x104ad.6 (0.6)
0x104a0|                                       00      |             .  |          visibility: "default" (0) 0x104ad.6-0x104ae (0.2)
0x104a0|                                          03 00|              ..|          shndx: 3 0x104ae-0x104b0 (2)
       |                                               |                |        [24]{}: symbol 0x104b0-0x104c0 (16)
0x104b0|eb 00 00 00                                    |....            |          name: "dummy1" (235) 0x104b0-0x104b4 (4)
0x104b0|            66 92 04 08                        |    f...        |          value: 134517350 0x104b4-0x104b8 (4)
0x104b0|                        01 00 00 00            |        ....    |          size: 1 0x104b8-0x104bc (4)
0x104b0|                                    02         |            .   |          bind: "local" (0) 0x104bc-0x104bc.4 (0.4)
0x104b0|                                    02         |            .   |          type: "func" (2) 0x104bc.4-0x104bd (0.4)
0x104b0|                                       00      |             .  |          other_unused: 0 0x104bd-0x104bd.6 (0.6)
0x104b0|                                       00      |             .  |          visibility: "default" (0) 0x104bd.6-0x104be (0.2)
0x104b0|                                          03 00|              ..|          shndx: 3 0x104be-0x104c0 (2)
       |                                               |                |        [25]{}: symbol 0x104c0-0x104d0 (16)
0x104c0|d1 04 00 00                                    |....            |          name: "libc_start_init" (1233) 0x104c0-0x104c4 (4)
0x104c0|            d1 93 04 08                        |    ....        |          value: 134517713 0x104c4-0x104c8 (4)
0x104c0|                        30 00 00 00            |        0...    |          size: 48 0x104c8-0x104cc (4)
0x104c0|                                    02         |            .   |          bind: "local" (0) 0x104cc-0x104cc.4 (0.4)
0x104c0|                                    02         |            .   |          type: "func" (2) 0x104cc.4-0x104cd (0.4)
0x104c0|                                       00      |             .  |          other_unused: 0 0x104cd-0x104cd.6 (0.6)
0x104c0|                                       00      |             .  |          visibility: "default" (0) 0x104cd.6-0x104ce (0.2)
0x104c0|                                          03 00|              ..|          shndx: 3 0x104ce-0x104d0 (2)
       |                                               |                |        [26]{}: symbol 0x104d0-0x104e0 (16)
0x104d0|f2 00 00 00                                    |....            |          name: "libc_start_main_stage2" (242) 0x104d0-0x104d4 (4)
0x104d0|            01 94 04 08                        |    ....        |          value: 134517761 0x104d4-0x104d8 (4)
0x104d0|                        33 00 00 00            |        3...    |          size: 51 0x104d8-0x104dc (4)
0x104d0|                                    02         |            .   |          bind: "local" (0) 0x104dc-0x104dc.4 (0.4)
0x104d0|                                    02         |            .   |          type: "func" (2) 0x104dc.4-0x104dd (0.4)
0x104d0|                                       00      |             .  |          other_unused: 0 0x104dd-0x104dd.6 (0.6)
0x104d0|                                       00      |             .  |          visibility: "default" (0) 0x104dd.6-0x104de (0.2)
0x104d0|                                          03 00|              ..|          shndx: 3 0x104de-0x104e0 (2)
       |                                               |                |        [27]{}: symbol 0x104e0-0x104f0 (16)
0x104e0|09 01 00 00                                    |....            |          name: "libc.c" (265) 0x104e0-0x104e4 (4)
0x104e0|            00 00 00 00                        |    ....        |          value: 0 0x104e4-0x104e8 (4)
0x104e0|                        00 00 00 00            |        ....    |          size: 0 0x104e8-0x104ec (4)
0x104e0|                                    04         |            .   |          bind: "local" (0) 0x104ec-0x104ec.4 (0.4)
0x104e0|                                    04         |            .   |          type: "file" (4) 0x104ec.4-0x104ed (0.4)
0x104e0|                                       00      |             .  |          other_unused: 0 0x104ed-0x104ed.6 (0.6)
0x104e0|                                       00      |             .  |          visibility: "default" (0) 0x104ed.6-0x104ee (0.2)
0x104e0|                                          f1 ff|              ..|          shndx: 65521 0x104ee-0x104f0 (2)
       |                                               |                |        [28]{}: symbol 0x104f0-0x10500 (16)
0x104f0|ba 01 00 00                                    |....            |          name: "puts.c" (442) 0x104f0-0x104f4 (4)
0x104f0|            00 00 00 00                        |    ....        |          value: 0 0x104f4-0x104f8 (4)
0x104f0|                        00 00 00 00            |        ....    |          size: 0 0x104f8-0x104fc (4)
0x104f0|                                    04         |            .   |          bind: "local" (0) 0x104fc-0x104fc.4 (0.4)
0x104f0|                                    04         |            .   |          type: "file" (4) 0x104fc.4-0x104fd (0.4)
0x104f0|                                       00      |             .  |          other_unused: 0 0x104fd-0x104fd.6 (0.6)
0x104f0|                                       00      |             .  |          visibility: "default" (0) 0x104fd.6-0x104fe (0.2)
0x104f0|                                          f1 ff|              ..|          shndx: 65521 0x104fe-0x10500 (2)
       |                                               |                |        [29]{}: symbol 0x10500-0x10510 (16)
0x10500|10 01 00 00                                    |....            |          name: "stdout.c" (272) 0x10500-0x10504 (4)
0x10500|            00 00 00 00                        |    ....        |          value: 0 0x10504-0x10508 (4)
0x10500|                        00 00 00 00            |        ....    |          size: 0 0x10508-0x1050c (4)
0x10500|                                    04         |            .   |          bind: "local" (0) 0x1050c-0x1050c.4 (0.4)
0x10500|                                    04         |            .   |          type: "file" (4) 0x1050c.4-0x1050d (0.4)
0x10500|                                       00      |             .  |          other_unused: 0 0x1050d-0x1050d.6 (0.6)
0x10500|                                       00      |             .  |          visibility: "default" (0) 0x1050d.6-0x1050e (0.2)
0x10500|                                          f1 ff|              ..|          shndx: 65521 0x1050e-0x10510 (2)
       |                                               |                |        [30]{}: symbol 0x10510-0x10520 (16)
0x10510|19 01 00 00                                    |....            |          name: "buf" (281) 0x10510-0x10514 (4)
0x10510|            40 c1 04 08                        |    @...        |          value: 134529344 0x10514-0x10518 (4)
0x10510|                        08 04 00 00            |        ....    |          size: 1032 0x10518-0x1051c (4)
0x10510|                                    01         |            .   |          bind: "local" (0) 0x1051c-0x1051c.4 (0.4)
0x10510|                                    01         |            .   |          type: "object" (1) 0x1051c.4-0x1051d (0.4)
0x10510|                                       00      |             .  |          other_unused: 0 0x1051d-0x1051d.6 (0.6)
0x10510|                                       00      |             .  |          visibility: "default" (0) 0x1051d.6-0x1051e (0.2)
0x10510|                                          0c 00|              ..|          shndx: 12 0x1051e-0x10520 (2)
       |                                               |                |        [31]{}: symbol 0x10520-0x10530 (16)
0x10520|1d 01 00 00                                    |....            |          name: "__environ.c" (285) 0x10520-0x10524 (4)
0x10520|            00 00 00 00                        |    ....        |          value: 0 0x10524-0x10528 (4)
0x10520|                        00 00 00 00            |        ....    |          size: 0 0x10528-0x1052c (4)
0x10520|                                    04         |            .   |          bind: "local" (0) 0x1052c-0x1052c.4 (0.4)
0x10520|                                    04         |            .   |          type: "file" (4) 0x1052c.4-0x1052d (0.4)
0x10520|                                       00      |             .  |          other_unused: 0 0x1052d-0x1052d.6 (0.6)
0x10520|                                       00      |             .  |          visibility: "default" (0) 0x1052d.6-0x1052e (0.2)
0x10520|                                          f1 ff|              ..|          shndx: 65521 0x1052e-0x10530 (2)
       |                                               |                |        [32]{}: symbol 0x10530-0x10540 (16)
0x10530|29 01 00 00                                    |)...            |          name: "__init_tls.c" (297) 0x10530-0x10534 (4)
0x10530|            00 00 00 00                        |    ....        |          value: 0 0x10534-0x10538 (4)
0x10530|                        00 00 00 00            |        ....    |          size: 0 0x10538-0x1053c (4)
0x10530|                                    04         |            .   |          bind: "local" (0) 0x1053c-0x1053c.4 (0.4)
0x10530|                                    04         |            .   |          type: "file" (4) 0x1053c.4-0x1053d (0.4)
0x10530|                                       00      |             .  |          other_unused: 0 0x1053d-0x1053d.6 (0.6)
0x10530|                                       00      |             .  |          visibility: "default" (0) 0x1053d.6-0x1053e (0.2)
0x10530|                                          f1 ff|              ..|          shndx: 65521 0x1053e-0x10540 (2)
       |                                               |                |        [33]{}: symbol 0x10540-0x10550 (16)
0x10540|36 01 00 00                                    |6...            |          name: "static_init_tls" (310) 0x10540-0x10544 (4)
0x10540|            40 96 04 08                        |    @...        |          value: 134518336 0x10544-0x10548 (4)
0x10540|                        8d 01 00 00            |        ....    |          size: 397 0x10548-0x1054c (4)
0x10540|                                    02         |            .   |          bind: "local" (0) 0x1054c-0x1054c.4 (0.4)
0x10540|                                    02         |            .   |          type: "func" (2) 0x1054c.4-0x1054d (0.4)
0x10540|                                       00      |             .  |          other_unused: 0 0x1054d-0x1054d.6 (0.6)
0x10540|                                       00      |             .  |          visibility: "default" (0) 0x1054d.6-0x1054e (0.2)
0x10540|                                          03 00|              ..|          shndx: 3 0x1054e-0x10550 (2)
       |                                               |                |        [34]{}: symbol 0x10550-0x10560 (16)
0x10550|46 01 00 00                                    |F...            |          name: "main_tls" (326) 0x10550-0x10554 (4)
0x10550|            4c c5 04 08                        |    L...        |          value: 134530380 0x10554-0x10558 (4)
0x10550|                        18 00 00 00            |        ....    |          size: 24 0x10558-0x1055c (4)
0x10550|                                    01         |            .   |          bind: "local" (0) 0x1055c-0x1055c.4 (0.4)
0x10550|                                    01         |            .   |          type: "object" (1) 0x1055c.4-0x1055d (0.4)
0x10550|                                       00      |             .  |          other_unused: 0 0x1055d-0x1055d.6 (0.6)
0x10550|                                       00      |             .  |          visibility: "default" (0) 0x1055d.6-0x1055e (0.2)
0x10550|                                          0c 00|              ..|          shndx: 12 0x1055e-0x10560 (2)
       |                                               |                |        [35]{}: symbol 0x10560-0x10570 (16)
0x10560|4f 01 00 00                                    |O...            |          name: "builtin_tls" (335) 0x10560-0x10564 (4)
0x10560|            80 c5 04 08                        |    ....        |          value: 134530432 0x10564-0x10568 (4)
0x10560|                        b4 00 00 00            |        ....    |          size: 180 0x10568-0x1056c (4)
0x10560|                                    01         |            .   |          bind: "local" (0) 0x1056c-0x1056c.4 (0.4)
0x10560|                                    01         |            .   |          type: "object" (1) 0x1056c.4-0x1056d (0.4)
0x10560|                                       00      |             .  |          other_unused: 0 0x1056d-0x1056d.6 (0.6)
0x10560|                                       00      |             .  |          visibility: "default" (0) 0x1056d.6-0x1056e (0.2)
0x10560|                                          0c 00|              ..|          shndx: 12 0x1056e-0x10570 (2)
       |                                               |                |        [36]{}: symbol 0x10570-0x10580 (16)
0x10570|5b 01 00 00                                    |[...            |          name: "_Exit.c" (347) 0x10570-0x10574 (4)
0x10570|            00 00 00 00                        |    ....        |          value: 0 0x10574-0x10578 (4)
0x10570|                        00 00 00 00            |        ....    |          size: 0 0x10578-0x1057c (4)
0x10570|                                    04         |            .   |          bind: "local" (0) 0x1057c-0x1057c.4 (0.4)
0x10570|                                    04         |            .   |          type: "file" (4) 0x1057c.4-0x1057d (0.4)
0x10570|                                       00      |             .  |          other_unused: 0 0x1057d-0x1057d.6 (0.6)
0x10570|                                       00      |             .  |          visibility: "default" (0) 0x1057d.6-0x1057e (0.2)
0x10570|                                          f1 ff|              ..|          shndx: 65521 0x1057e-0x10580 (2)
       |                                               |                |        [37]{}: symbol 0x10580-0x10590 (16)
0x10580|63 01 00 00                                    |c...            |          name: "__lockfile.c" (355) 0x10580-0x10584 (4)
0x10580|            00 00 00 00                        |    ....        |          value: 0 0x10584-0x10588 (4)
0x10580|                        00 00 00 00            |        ....    |          size: 0 0x10588-0x1058c (4)
0x10580|                                    04         |            .   |          bind: "local" (0) 0x1058c-0x1058c.4 (0.4)
0x10580|                                    04         |            .   |          type: "file" (4) 0x1058c.4-0x1058d (0.4)
0x10580|                                       00      |             .  |          other_unused: 0 0x1058d-0x1058d.6 (0.6)
0x10580|                                       00      |             .  |          visibility: "default" (0) 0x1058d.6-0x1058e (0.2)
0x10580|                                          f1 ff|              ..|          shndx: 65521 0x1058e-0x10590 (2)
       |                                               |                |        [38]{}: symbol 0x10590-0x105a0 (16)
0x10590|70 01 00 00                                    |p...            |          name: "__overflow.c" (368) 0x10590-0x10594 (4)
0x10590|            00 00 00 00                        |    ....        |          value: 0 0x10594-0x10598 (4)
0x10590|                        00 00 00 00            |        ....    |          size: 0 0x10598-0x1059c (4)
0x10590|                                    04         |            .   |          bind: "local" (0) 0x1059c-0x1059c.4 (0.4)
0x10590|                                    04         |            .   |          type: "file" (4) 0x1059c.4-0x1059d (0.4)
0x10590|                                       00      |             .  |          other_unused: 0 0x1059d-0x1059d.6 (0.6)
0x10590|                                       00      |             .  |          visibility: "default" (0) 0x1059d.6-0x1059e (0.2)
0x10590|                                          f1 ff|              ..|          shndx: 65521 0x1059e-0x105a0 (2)
       |                                               |                |        [39]{}: symbol 0x105a0-0x105b0 (16)
0x105a0|7d 01 00 00                                    |}...            |          name: "__stdio_close.c" (381) 0x105a0-0x105a4 (4)
0x105a0|            00 00 00 00                        |    ....        |          value: 0 0x105a4-0x105a8 (4)
0x105a0|                        00 00 00 00            |        ....    |          size: 0 0x105a8-0x105ac (4)
0x105a0|                                    04         |            .   |          bind: "local" (0) 0x105ac-0x105ac.4 (0.4)
0x105a0|                                    04         |            .   |          type: "file" (4) 0x105ac.4-0x105ad (0.4)
0x105a0|                                       00      |             .  |          other_unused: 0 0x105ad-0x105ad.6 (0.6)
0x105a0|                                       00      |             .  |          visibility: "default" (0) 0x105ad.6-0x105ae (0.2)
0x105a0|                                          f1 ff|              ..|          shndx: 65521 0x105ae-0x105b0 (2)
       |                                               |                |        [40]{}: symbol 0x105b0-0x105c0 (16)
0x105b0|8a 00 00 00                                    |....            |          name: "dummy" (138) 0x105b0-0x105b4 (4)
0x105b0|            28 99 04 08                        |    (...        |          value: 134519080 0x105b4-0x105b8 (4)
0x105b0|                        05 00 00 00            |        ....    |          size: 5 0x105b8-0x105bc (4)
0x105b0|                                    02         |            .   |          bind: "local" (0) 0x105bc-0x105bc.4 (0.4)
0x105b0|                                    02         |            .   |          type: "func" (2) 0x105bc.4-0x105bd (0.4)
0x105b0|                                       00      |             .  |          other_unused: 0 0x105bd-0x105bd.6 (0.6)
0x105b0|                                       00      |             .  |          visibility: "default" (0) 0x105bd.6-0x105be (0.2)
0x105b0|                                          03 00|              ..|          shndx: 3 0x105be-0x105c0 (2)
       |                                               |                |        [41]{}: symbol 0x105c0-0x105d0 (16)
0x105c0|8d 01 00 00                                    |....            |          name: "__stdio_seek.c" (397) 0x105c0-0x105c4 (4)
0x105c0|            00 00 00 00                        |    ....        |          value: 0 0x105c4-0x105c8 (4)
0x105c0|                        00 00 00 00            |        ....    |          size: 0 0x105c8-0x105cc (4)
0x105c0|                                    04         |            .   |          bind: "local" (0) 0x105cc-0x105cc.4 (0.4)
0x105c0|                                    04         |            .   |          type: "file" (4) 0x105cc.4-0x105cd (0.4)
0x105c0|                                       00      |             .  |          other_unused: 0 0x105cd-0x105cd.6 (0.6)
0x105c0|                                       00      |             .  |          visibility: "default" (0) 0x105cd.6-0x105ce (0.2)
0x105c0|                                          f1 ff|              ..|          shndx: 65521 0x105ce-0x105d0 (2)
       |                                               |                |        [42]{}: symbol 0x105d0-0x105e0 (16)
0x105d0|9c 01 00 00                                    |....            |          name: "__stdout_write.c" (412) 0x105d0-0x105d4 (4)
0x105d0|            00 00 00 00                        |    ....        |          value: 0 0x105d4-0x105d8 (4)
0x105d0|                        00 00 00 00            |        ....    |          size: 0 0x105d8-0x105dc (4)
0x105d0|                                    04         |            .   |          bind: "local" (0) 0x105dc-0x105dc.4 (0.4)
0x105d0|                                    04         |            .   |          type: "file" (4) 0x105dc.4-0x105dd (0.4)
0x105d0|                                       00      |             .  |          other_unused: 0 0x105dd-0x105dd.6 (0.6)
0x105d0|                                       00      |             .  |          visibility: "default" (0) 0x105dd.6-0x105de (0.2)
0x105d0|                                          f1 ff|              ..|          shndx: 65521 0x105de-0x105e0 (2)
       |                                               |                |        [43]{}: symbol 0x105e0-0x105f0 (16)
0x105e0|ad 01 00 00                                    |....            |          name: "__towrite.c" (429) 0x105e0-0x105e4 (4)
0x105e0|            00 00 00 00                        |    ....        |          value: 0 0x105e4-0x105e8 (4)
0x105e0|                        00 00 00 00            |        ....    |          size: 0 0x105e8-0x105ec (4)
0x105e0|                                    04         |            .   |          bind: "local" (0) 0x105ec-0x105ec.4 (0.4)
0x105e0|                                    04         |            .   |          type: "file" (4) 0x105ec.4-0x105ed (0.4)
0x105e0|                                       00      |             .  |          other_unused: 0 0x105ed-0x105ed.6 (0.6)
0x105e0|                                       00      |             .  |          visibility: "default" (0) 0x105ed.6-0x105ee (0.2)
0x105e0|                                          f1 ff|              ..|          shndx: 65521 0x105ee-0x105f0 (2)
       |                                               |                |        [44]{}: symbol 0x105f0-0x10600 (16)
0x105f0|b9 01 00 00                                    |....            |          name: "fputs.c" (441) 0x105f0-0x105f4 (4)
0x105f0|            00 00 00 00                        |    ....        |          value: 0 0x105f4-0x105f8 (4)
0x105f0|                        00 00 00 00            |        ....    |          size: 0 0x105f8-0x105fc (4)
0x105f0|                                    04         |            .   |          bind: "local" (0) 0x105fc-0x105fc.4 (0.4)
0x105f0|                                    04         |            .   |          type: "file" (4) 0x105fc.4-0x105fd (0.4)
0x105f0|                                       00      |             .  |          other_unused: 0 0x105fd-0x105fd.6 (0.6)
0x105f0|                                       00      |             .  |          visibility: "default" (0) 0x105fd.6-0x105fe (0.2)
0x105f0|                                          f1 ff|              ..|          shndx: 65521 0x105fe-0x10600 (2)
       |                                               |                |        [45]{}: symbol 0x10600-0x10610 (16)
0x10600|c1 01 00 00                                    |....            |          name: "fwrite.c" (449) 0x10600-0x10604 (4)
0x10600|            00 00 00 00                        |    ....        |          value: 0 0x10604-0x10608 (4)
0x10600|                        00 00 00 00            |        ....    |          size: 0 0x10608-0x1060c (4)
0x10600|                                    04         |            .   |          bind: "local" (0) 0x1060c-0x1060c.4 (0.4)
0x10600|                                    04         |            .   |          type: "file" (4) 0x1060c.4-0x1060d (0.4)
0x10600|                                       00      |             .  |          other_unused: 0 0x1060d-0x1060d.6 (0.6)
0x10600|                                       00      |             .  |          visibility: "default" (0) 0x1060d.6-0x1060e (0.2)
0x10600|                                          f1 ff|              ..|          shndx: 65521 0x1060e-0x10610 (2)
       |                                               |                |        [46]{}: symbol 0x10610-0x10620 (16)
0x10610|ca 01 00 00                                    |....            |          name: "strlen.c" (458) 0x10610-0x10614 (4)
0x10610|            00 00 00 00                        |    ....        |          value: 0 0x10614-0x10618 (4)
0x10610|                        00 00 00 00            |        ....    |          size: 0 0x10618-0x1061c (4)
0x10610|                                    04         |            .   |          bind: "local" (0) 0x1061c-0x1061c.4 (0.4)
0x10610|                                    04         |            .   |          type: "file" (4) 0x1061c.4-0x1061d (0.4)
0x10610|                                       00      |             .  |          other_unused: 0 0x1061d-0x1061d.6 (0.6)
0x10610|                                       00      |             .  |          visibility: "default" (0) 0x1061d.6-0x1061e (0.2)
0x10610|                                          f1 ff|              ..|          shndx: 65521 0x1061e-0x10620 (2)
       |                                               |                |        [47]{}: symbol 0x10620-0x10630 (16)
0x10620|d3 01 00 00                                    |....            |          name: "default_attr.c" (467) 0x10620-0x10624 (4)
0x10620|            00 00 00 00                        |    ....        |          value: 0 0x10624-0x10628 (4)
0x10620|                        00 00 00 00            |        ....    |          size: 0 0x10628-0x1062c (4)
0x10620|                                    04         |            .   |          bind: "local" (0) 0x1062c-0x1062c.4 (0.4)
0x10620|                                    04         |            .   |          type: "file" (4) 0x1062c.4-0x1062d (0.4)
0x10620|                                       00      |             .  |          other_unused: 0 0x1062d-0x1062d.6 (0.6)
0x10620|                                       00      |             .  |          visibility: "default" (0) 0x1062d.6-0x1062e (0.2)
0x10620|                                          f1 ff|              ..|          shndx: 65521 0x1062e-0x10630 (2)
       |                                               |                |        [48]{}: symbol 0x10630-0x10640 (16)
0x10630|e2 01 00 00                                    |....            |          name: "lseek.c" (482) 0x10630-0x10634 (4)
0x10630|            00 00 00 00                        |    ....        |          value: 0 0x10634-0x10638 (4)
0x10630|                        00 00 00 00            |        ....    |          size: 0 0x10638-0x1063c (4)
0x10630|                                    04         |            .   |          bind: "local" (0) 0x1063c-0x1063c.4 (0.4)
0x10630|                                    04         |            .   |          type: "file" (4) 0x1063c.4-0x1063d (0.4)
0x10630|                                       00      |             .  |          other_unused: 0 0x1063d-0x1063d.6 (0.6)
0x10630|                                       00      |             .  |          visibility: "default" (0) 0x1063d.6-0x1063e (0.2)
0x10630|                                          f1 ff|              ..|          shndx: 65521 0x1063e-0x10640 (2)
       |                                               |                |        [49]{}: symbol 0x10640-0x10650 (16)
0x10640|ea 01 00 00                                    |....            |          name: "syscall_ret.c" (490) 0x10640-0x10644 (4)
0x10640|            00 00 00 00                        |    ....        |          value: 0 0x10644-0x10648 (4)
0x10640|                        00 00 00 00            |        ....    |          size: 0 0x10648-0x1064c (4)
0x10640|                                    04         |            .   |          bind: "local" (0) 0x1064c-0x1064c.4 (0.4)
0x10640|                                    04         |            .   |          type: "file" (4) 0x1064c.4-0x1064d (0.4)
0x10640|                                       00      |             .  |          other_unused: 0 0x1064d-0x1064d.6 (0.6)
0x10640|                                       00      |             .  |          visibility: "default" (0) 0x1064d.6-0x1064e (0.2)
0x10640|                                          f1 ff|              ..|          shndx: 65521 0x1064e-0x10650 (2)
       |                                               |                |        [50]{}: symbol 0x10650-0x10660 (16)
0x10650|f8 01 00 00                                    |....            |          name: "__stdio_exit.c" (504) 0x10650-0x10654 (4)
0x10650|            00 00 00 00                        |    ....        |          value: 0 0x10654-0x10658 (4)
0x10650|                        00 00 00 00            |        ....    |          size: 0 0x10658-0x1065c (4)
0x10650|                                    04         |            .   |          bind: "local" (0) 0x1065c-0x1065c.4 (0.4)
0x10650|                                    04         |            .   |          type: "file" (4) 0x1065c.4-0x1065d (0.4)
0x10650|                                       00      |             .  |          other_unused: 0 0x1065d-0x1065d.6 (0.6)
0x10650|                                       00      |             .  |          visibility: "default" (0) 0x1065d.6-0x1065e (0.2)
0x10650|                                          f1 ff|              ..|          shndx: 65521 0x1065e-0x10660 (2)
       |                                               |                |        [51]{}: symbol 0x10660-0x10670 (16)
0x10660|07 02 00 00                                    |....            |          name: "close_file" (519) 0x10660-0x10664 (4)
0x10660|            ab 9c 04 08                        |    ....        |          value: 134519979 0x10664-0x10668 (4)
0x10660|                        4f 00 00 00            |        O...    |          size: 79 0x10668-0x1066c (4)
0x10660|                                    02         |            .   |          bind: "local" (0) 0x1066c-0x1066c.4 (0.4)
0x10660|                                    02         |            .   |          type: "func" (2) 0x1066c.4-0x1066d (0.4)
0x10660|                                       00      |             .  |          other_unused: 0 0x1066d-0x1066d.6 (0.6)
0x10660|                                       00      |             .  |          visibility: "default" (0) 0x1066d.6-0x1066e (0.2)
0x10660|                                          03 00|              ..|          shndx: 3 0x1066e-0x10670 (2)
       |                                               |                |        [52]{}: symbol 0x10670-0x10680 (16)
0x10670|12 02 00 00                                    |....            |          name: "dummy_file" (530) 0x10670-0x10674 (4)
0x10670|            38 c6 04 08                        |    8...        |          value: 134530616 0x10674-0x10678 (4)
0x10670|                        04 00 00 00            |        ....    |          size: 4 0x10678-0x1067c (4)
0x10670|                                    01         |            .   |          bind: "local" (0) 0x1067c-0x1067c.4 (0.4)
0x10670|                                    01         |            .   |          type: "object" (1) 0x1067c.4-0x1067d (0.4)
0x10670|                                       00      |             .  |          other_unused: 0 0x1067d-0x1067d.6 (0.6)
0x10670|                                       00      |             .  |          visibility: "default" (0) 0x1067d.6-0x1067e (0.2)
0x10670|                                          0c 00|              ..|          shndx: 12 0x1067e-0x10680 (2)
       |                                               |                |        [53]{}: symbol 0x10680-0x10690 (16)
0x10680|1d 02 00 00                                    |....            |          name: "__stdio_write.c" (541) 0x10680-0x10684 (4)
0x10680|            00 00 00 00                        |    ....        |          value: 0 0x10684-0x10688 (4)
0x10680|                        00 00 00 00            |        ....    |          size: 0 0x10688-0x1068c (4)
0x10680|                                    04         |            .   |          bind: "local" (0) 0x1068c-0x1068c.4 (0.4)
0x10680|                                    04         |            .   |          type: "file" (4) 0x1068c.4-0x1068d (0.4)
0x10680|                                       00      |             .  |          other_unused: 0 0x1068d-0x1068d.6 (0.6)
0x10680|                                       00      |             .  |          visibility: "default" (0) 0x1068d.6-0x1068e (0.2)
0x10680|                                          f1 ff|              ..|          shndx: 65521 0x1068e-0x10690 (2)
       |                                               |                |        [54]{}: symbol 0x10690-0x106a0 (16)
0x10690|2d 02 00 00                                    |-...            |          name: "ofl.c" (557) 0x10690-0x10694 (4)
0x10690|            00 00 00 00                        |    ....        |          value: 0 0x10694-0x10698 (4)
0x10690|                        00 00 00 00            |        ....    |          size: 0 0x10698-0x1069c (4)
0x10690|                                    04         |            .   |          bind: "local" (0) 0x1069c-0x1069c.4 (0.4)
0x10690|                                    04         |            .   |          type: "file" (4) 0x1069c.4-0x1069d (0.4)
0x10690|                                       00      |             .  |          other_unused: 0 0x1069d-0x1069d.6 (0.6)
0x10690|                                       00      |             .  |          visibility: "default" (0) 0x1069d.6-0x1069e (0.2)
0x10690|                                          f1 ff|              ..|          shndx: 65521 0x1069e-0x106a0 (2)
       |                                               |                |        [55]{}: symbol 0x106a0-0x106b0 (16)
0x106a0|60 03 00 00                                    |`...            |          name: "ofl_lock" (864) 0x106a0-0x106a4 (4)
0x106a0|            3c c6 04 08                        |    <...        |          value: 134530620 0x106a4-0x106a8 (4)
0x106a0|                        04 00 00 00            |        ....    |          size: 4 0x106a8-0x106ac (4)
0x106a0|                                    01         |            .   |          bind: "local" (0) 0x106ac-0x106ac.4 (0.4)
0x106a0|                                    01         |            .   |          type: "object" (1) 0x106ac.4-0x106ad (0.4)
0x106a0|                                       00      |             .  |          other_unused: 0 0x106ad-0x106ad.6 (0.6)
0x106a0|                                       00      |             .  |          visibility: "default" (0) 0x106ad.6-0x106ae (0.2)
0x106a0|                                          0c 00|              ..|          shndx: 12 0x106ae-0x106b0 (2)
       |                                               |                |        [56]{}: symbol 0x106b0-0x106c0 (16)
0x106b0|33 02 00 00                                    |3...            |          name: "ofl_head" (563) 0x106b0-0x106b4 (4)
0x106b0|            40 c6 04 08                        |    @...        |          value: 134530624 0x106b4-0x106b8 (4)
0x106b0|                        04 00 00 00            |        ....    |          size: 4 0x106b8-0x106bc (4)
0x106b0|                                    01         |            .   |          bind: "local" (0) 0x106bc-0x106bc.4 (0.4)
0x106b0|                                    01         |            .   |          type: "object" (1) 0x106bc.4-0x106bd (0.4)
0x106b0|                                       00      |             .  |          other_unused: 0 0x106bd-0x106bd.6 (0.6)
0x106b0|                                       00      |             .  |          visibility: "default" (0) 0x106bd.6-0x106be (0.2)
0x106b0|                                          0c 00|              ..|          shndx: 12 0x106be-0x106c0 (2)
       |                                               |                |        [57]{}: symbol 0x106c0-0x106d0 (16)
0x106c0|3c 02 00 00                                    |<...            |          name: "__lock.c" (572) 0x106c0-0x106c4 (4)
0x106c0|            00 00 00 00                        |    ....        |          value: 0 0x106c4-0x106c8 (4)
0x106c0|                        00 00 00 00            |        ....    |          size: 0 0x106c8-0x106cc (4)
0x106c0|                                    04         |            .   |          bind: "local" (0) 0x106cc-0x106cc.4 (0.4)
0x106c0|                                    04         |            .   |          type: "file" (4) 0x106cc.4-0x106cd (0.4)
0x106c0|                                       00      |             .  |          other_unused: 0 0x106cd-0x106cd.6 (0.6)
0x106c0|                                       00      |             .  |          visibility: "default" (0) 0x106cd.6-0x106ce (0.2)
0x106c0|                                          f1 ff|              ..|          shndx: 65521 0x106ce-0x106d0 (2)
       |                                               |                |        [58]{}: symbol 0x106d0-0x106e0 (16)
0x106d0|45 02 00 00                                    |E...            |          name: "__errno_location.c" (581) 0x106d0-0x106d4 (4)
0x106d0|            00 00 00 00                        |    ....        |          value: 0 0x106d4-0x106d8 (4)
0x106d0|                        00 00 00 00            |        ....    |          size: 0 0x106d8-0x106dc (4)
0x106d0|                                    04         |            .   |          bind: "local" (0) 0x106dc-0x106dc.4 (0.4)
0x106d0|                                    04         |            .   |          type: "file" (4) 0x106dc.4-0x106dd (0.4)
0x106d0|                                       00      |             .  |          other_unused: 0 0x106dd-0x106dd.6 (0.6)
0x106d0|                                       00      |             .  |          visibility: "default" (0) 0x106dd.6-0x106de (0.2)
0x106d0|                                          f1 ff|              ..|          shndx: 65521 0x106de-0x106e0 (2)
       |                                               |                |        [59]{}: symbol 0x106e0-0x106f0 (16)
0x106e0|00 00 00 00                                    |....            |          name: "" (0) 0x106e0-0x106e4 (4)
0x106e0|            00 00 00 00                        |    ....        |          value: 0 0x106e4-0x106e8 (4)
0x106e0|                        00 00 00 00            |        ....    |          size: 0 0x106e8-0x106ec (4)
0x106e0|                                    04         |            .   |          bind: "local" (0) 0x106ec-0x106ec.4 (0.4)
0x106e0|                                    04         |            .   |          type: "file" (4) 0x106ec.4-0x106ed (0.4)
0x106e0|                                       00      |             .  |          other_unused: 0 0x106ed-0x106ed.6 (0.6)
0x106e0|                                       00      |             .  |          visibility: "default" (0) 0x106ed.6-0x106ee (0.2)
0x106e0|                                          f1 ff|              ..|          shndx: 65521 0x106ee-0x106f0 (2)
       |                                               |                |        [60]{}: symbol 0x106f0-0x10700 (16)
0x106f0|58 02 00 00                                    |X...            |          name: "__fini_array_end" (600) 0x106f0-0x106f4 (4)
0x106f0|            d0 bf 04 08                        |    ....        |          value: 134528976 0x106f4-0x106f8 (4)
0x106f0|                        00 00 00 00            |        ....    |          size: 0 0x106f8-0x106fc (4)
0x106f0|                                    00         |            .   |          bind: "local" (0) 0x106fc-0x106fc.4 (0.4)
0x106f0|                                    00         |            .   |          type: "notype" (0) 0x106fc.4-0x106fd (0.4)
0x106f0|                                       00      |             .  |          other_unused: 0 0x106fd-0x106fd.6 (0.6)
0x106f0|                                       00      |             .  |          visibility: "default" (0) 0x106fd.6-0x106fe (0.2)
0x106f0|                                          07 00|              ..|          shndx: 7 0x106fe-0x10700 (2)
       |                                               |                |        [61]{}: symbol 0x10700-0x10710 (16)
0x10700|69 02 00 00                                    |i...            |          name: "__fini_array_start" (617) 0x10700-0x10704 (4)
0x10700|            d0 bf 04 08                        |    ....        |          value: 134528976 0x10704-0x10708 (4)
0x10700|                        00 00 00 00            |        ....    |          size: 0 0x10708-0x1070c (4)
0x10700|                                    00         |            .   |          bind: "local" (0) 0x1070c-0x1070c.4 (0.4)
0x10700|                                    00         |            .   |          type: "notype" (0) 0x1070c.4-0x1070d (0.4)
0x10700|                                       00      |             .  |          other_unused: 0 0x1070d-0x1070d.6 (0.6)
0x10700|                                       00      |             .  |          visibility: "default" (0) 0x1070d.6-0x1070e (0.2)
0x10700|                                          07 00|              ..|          shndx: 7 0x1070e-0x10710 (2)
       |                                               |                |        [62]{}: symbol 0x10710-0x10720 (16)
0x10710|7c 02 00 00                                    ||...            |          name: "__init_array_end" (636) 0x10710-0x10714 (4)
0x10710|            d0 bf 04 08                        |    ....        |          value: 134528976 0x10714-0x10718 (4)
0x10710|                        00 00 00 00            |        ....    |          size: 0 0x10718-0x1071c (4)
0x10710|                                    00         |            .   |          bind: "local" (0) 0x1071c-0x1071c.4 (0.4)
0x10710|                                    00         |            .   |          type: "notype" (0) 0x1071c.4-0x1071d (0.4)
0x10710|                                       00      |             .  |          other_unused: 0 0x1071d-0x1071d.6 (0.6)
0x10710|                                       00      |             .  |          visibility: "default" (0) 0x1071d.6-0x1071e (0.2)
0x10710|                                          07 00|              ..|          shndx: 7 0x1071e-0x10720 (2)
       |                                               |                |        [63]{}: symbol 0x10720-0x10730 (16)
0x10720|8d 02 00 00                                    |....            |          name: "_GLOBAL_OFFSET_TABLE_" (653) 0x10720-0x10724 (4)
0x10720|            e8 bf 04 08                        |    ....        |          value: 134529000 0x10724-0x10728 (4)
0x10720|                        00 00 00 00            |        ....    |          size: 0 0x10728-0x1072c (4)
0x10720|                                    01         |            .   |          bind: "local" (0) 0x1072c-0x1072c.4 (0.4)
0x10720|                                    01         |            .   |          type: "object" (1) 0x1072c.4-0x1072d (0.4)
0x10720|                                       00      |             .  |          other_unused: 0 0x1072d-0x1072d.6 (0.6)
0x10720|                                       00      |             .  |          visibility: "default" (0) 0x1072d.6-0x1072e (0.2)
0x10720|                                          0a 00|              ..|          shndx: 10 0x1072e-0x10730 (2)
       |                                               |                |        [64]{}: symbol 0x10730-0x10740 (16)
0x10730|a3 02 00 00                                    |....            |          name: "__init_array_start" (675) 0x10730-0x10734 (4)
0x10730|            d0 bf 04 08                        |    ....        |          value: 134528976 0x10734-0x10738 (4)
0x10730|                        00 00 00 00            |        ....    |          size: 0 0x10738-0x1073c (4)
0x10730|                                    00         |            .   |          bind: "local" (0) 0x1073c-0x1073c.4 (0.4)
0x10730|                                    00         |            .   |          type: "notype" (0) 0x1073c.4-0x1073d (0.4)
0x10730|                                       00      |             .  |          other_unused: 0 0x1073d-0x1073d.6 (0.6)
0x10730|                                       00      |             .  |          visibility: "default" (0) 0x1073d.6-0x1073e (0.2)
0x10730|                                          07 00|              ..|          shndx: 7 0x1073e-0x10740 (2)
       |                                               |                |        [65]{}: symbol 0x10740-0x10750 (16)
0x10740|b6 02 00 00                                    |....            |          name: "__thread_list_lock" (694) 0x10740-0x10744 (4)
0x10740|            34 c6 04 08                        |    4...        |          value: 134530612 0x10744-0x10748 (4)
0x10740|                        04 00 00 00            |        ....    |          size: 4 0x10748-0x1074c (4)
0x10740|                                    11         |            .   |          bind: "global" (1) 0x1074c-0x1074c.4 (0.4)
0x10740|                                    11         |            .   |          type: "object" (1) 0x1074c.4-0x1074d (0.4)
0x10740|                                       02      |             .  |          other_unused: 0 0x1074d-0x1074d.6 (0.6)
0x10740|                                       02      |             .  |          visibility: "hidden" (2) 0x1074d.6-0x1074e (0.2)
0x10740|                                          0c 00|              ..|          shndx: 12 0x1074e-0x10750 (2)
       |                                               |                |        [66]{}: symbol 0x10750-0x10760 (16)
0x10750|c9 02 00 00                                    |....            |          name: "__stdout_used" (713) 0x10750-0x10754 (4)
0x10750|            08 c0 04 08                        |    ....        |          value: 134529032 0x10754-0x10758 (4)
0x10750|                        04 00 00 00            |        ....    |          size: 4 0x10758-0x1075c (4)
0x10750|                                    11         |            .   |          bind: "global" (1) 0x1075c-0x1075c.4 (0.4)
0x10750|                                    11         |            .   |          type: "object" (1) 0x1075c.4-0x1075d (0.4)
0x10750|                                       02      |             .  |          other_unused: 0 0x1075d-0x1075d.6 (0.6)
0x10750|                                       02      |             .  |          visibility: "hidden" (2) 0x1075d.6-0x1075e (0.2)
0x10750|                                          0b 00|              ..|          shndx: 11 0x1075e-0x10760 (2)
       |                                               |                |        [67]{}: symbol 0x10760-0x10770 (16)
0x10760|d7 02 00 00                                    |....            |          name: "stdout" (727) 0x10760-0x10764 (4)
0x10760|            e0 bf 04 08                        |    ....        |          value: 134528992 0x10764-0x10768 (4)
0x10760|                        04 00 00 00            |        ....    |          size: 4 0x10768-0x1076c (4)
0x10760|                                    11         |            .   |          bind: "global" (1) 0x1076c-0x1076c.4 (0.4)
0x10760|                                    11         |            .   |          type: "object" (1) 0x1076c.4-0x1076d (0.4)
0x10760|                                       00      |             .  |          other_unused: 0 0x1076d-0x1076d.6 (0.6)
0x10760|                                       00      |             .  |          visibility: "default" (0) 0x1076d.6-0x1076e (0.2)
0x10760|                                          09 00|              ..|          shndx: 9 0x1076e-0x10770 (2)
       |                                               |                |        [68]{}: symbol 0x10770-0x10780 (16)
0x10770|de 02 00 00                                    |....            |          name: "__x86.get_pc_thunk.si" (734) 0x10770-0x10774 (4)
0x10770|            79 94 04 08                        |    y...        |          value: 134517881 0x10774-0x10778 (4)
0x10770|                        00 00 00 00            |        ....    |          size: 0 0x10778-0x1077c (4)
0x10770|                                    12         |            .   |          bind: "global" (1) 0x1077c-0x1077c.4 (0.4)
0x10770|                                    12         |            .   |          type: "func" (2) 0x1077c.4-0x1077d (0.4)
0x10770|                                       02      |             .  |          other_unused: 0 0x1077d-0x1077d.6 (0.6)
0x10770|                                       02      |             .  |          visibility: "hidden" (2) 0x1077d.6-0x1077e (0.2)
0x10770|                                          03 00|              ..|          shndx: 3 0x1077e-0x10780 (2)
       |                                               |                |        [69]{}: symbol 0x10780-0x10790 (16)
0x10780|f4 02 00 00                                    |....            |          name: "__init_libc" (756) 0x10780-0x10784 (4)
0x10780|            67 92 04 08                        |    g...        |          value: 134517351 0x10784-0x10788 (4)
0x10780|                        6a 01 00 00            |        j...    |          size: 362 0x10788-0x1078c (4)
0x10780|                                    12         |            .   |          bind: "global" (1) 0x1078c-0x1078c.4 (0.4)
0x10780|                                    12         |            .   |          type: "func" (2) 0x1078c.4-0x1078d (0.4)
0x10780|                                       02      |             .  |          other_unused: 0 0x1078d-0x1078d.6 (0.6)
0x10780|                                       02      |             .  |          visibility: "hidden" (2) 0x1078d.6-0x1078e (0.2)
0x10780|                                          03 00|              ..|          shndx: 3 0x1078e-0x10790 (2)
       |                                               |                |        [70]{}: symbol 0x10790-0x107a0 (16)
0x10790|00 03 00 00                                    |....            |          name: "__syscall_ret" (768) 0x10790-0x10794 (4)
0x10790|            88 9c 04 08                        |    ....        |          value: 134519944 0x10794-0x10798 (4)
0x10790|                        23 00 00 00            |        #...    |          size: 35 0x10798-0x1079c (4)
0x10790|                                    12         |            .   |          bind: "global" (1) 0x1079c-0x1079c.4 (0.4)
0x10790|                                    12         |            .   |          type: "func" (2) 0x1079c.4-0x1079d (0.4)
0x10790|                                       02      |             .  |          other_unused: 0 0x1079d-0x1079d.6 (0.6)
0x10790|                                       02      |             .  |          visibility: "hidden" (2) 0x1079d.6-0x1079e (0.2)
0x10790|                                          03 00|              ..|          shndx: 3 0x1079e-0x107a0 (2)
       |                                               |                |        [71]{}: symbol 0x107a0-0x107b0 (16)
0x107a0|0e 03 00 00                                    |....            |          name: "__stdout_write" (782) 0x107a0-0x107a4 (4)
0x107a0|            6a 99 04 08                        |    j...        |          value: 134519146 0x107a4-0x107a8 (4)
0x107a0|                        59 00 00 00            |        Y...    |          size: 89 0x107a8-0x107ac (4)
0x107a0|                                    12         |            .   |          bind: "global" (1) 0x107ac-0x107ac.4 (0.4)
0x107a0|                                    12         |            .   |          type: "func" (2) 0x107ac.4-0x107ad (0.4)
0x107a0|                                       02      |             .  |          other_unused: 0 0x107ad-0x107ad.6 (0.6)
0x107a0|                                       02      |             .  |          visibility: "hidden" (2) 0x107ad.6-0x107ae (0.2)
0x107a0|                                          03 00|              ..|          shndx: 3 0x107ae-0x107b0 (2)
       |                                               |                |        [72]{}: symbol 0x107b0-0x107c0 (16)
0x107b0|1d 03 00 00                                    |....            |          name: "__ofl_unlock" (797) 0x107b0-0x107b4 (4)
0x107b0|            2b 9e 04 08                        |    +...        |          value: 134520363 0x107b4-0x107b8 (4)
0x107b0|                        1d 00 00 00            |        ....    |          size: 29 0x107b8-0x107bc (4)
0x107b0|                                    12         |            .   |          bind: "global" (1) 0x107bc-0x107bc.4 (0.4)
0x107b0|                                    12         |            .   |          type: "func" (2) 0x107bc.4-0x107bd (0.4)
0x107b0|                                       02      |             .  |          other_unused: 0 0x107bd-0x107bd.6 (0.6)
0x107b0|                                       02      |             .  |          visibility: "hidden" (2) 0x107bd.6-0x107be (0.2)
0x107b0|                                          03 00|              ..|          shndx: 3 0x107be-0x107c0 (2)
       |                                               |                |        [73]{}: symbol 0x107c0-0x107d0 (16)
0x107c0|2a 03 00 00                                    |*...            |          name: "__unlockfile" (810) 0x107c0-0x107c4 (4)
0x107c0|            82 98 04 08                        |    ....        |          value: 134518914 0x107c4-0x107c8 (4)
0x107c0|                        3f 00 00 00            |        ?...    |          size: 63 0x107c8-0x107cc (4)
0x107c0|                                    12         |            .   |          bind: "global" (1) 0x107cc-0x107cc.4 (0.4)
0x107c0|                                    12         |            .   |          type: "func" (2) 0x107cc.4-0x107cd (0.4)
0x107c0|                                       02      |             .  |          other_unused: 0 0x107cd-0x107cd.6 (0.6)
0x107c0|                                       02      |             .  |          visibility: "hidden" (2) 0x107cd.6-0x107ce (0.2)
0x107c0|                                          03 00|              ..|          shndx: 3 0x107ce-0x107d0 (2)
       |                                               |                |        [74]{}: symbol 0x107d0-0x107e0 (16)
0x107d0|37 03 00 00                                    |7...            |          name: "__hwcap" (823) 0x107d0-0x107d4 (4)
0x107d0|            e8 c0 04 08                        |    ....        |          value: 134529256 0x107d4-0x107d8 (4)
0x107d0|                        04 00 00 00            |        ....    |          size: 4 0x107d8-0x107dc (4)
0x107d0|                                    11         |            .   |          bind: "global" (1) 0x107dc-0x107dc.4 (0.4)
0x107d0|                                    11         |            .   |          type: "object" (1) 0x107dc.4-0x107dd (0.4)
0x107d0|                                       02      |             .  |          other_unused: 0 0x107dd-0x107dd.6 (0.6)
0x107d0|                                       02      |             .  |          visibility: "hidden" (2) 0x107dd.6-0x107de (0.2)
0x107d0|                                          0c 00|              ..|          shndx: 12 0x107de-0x107e0 (2)
       |                                               |                |        [75]{}: symbol 0x107e0-0x107f0 (16)
0x107e0|3f 03 00 00                                    |?...            |          name: "__stdio_write" (831) 0x107e0-0x107e4 (4)
0x107e0|            43 9d 04 08                        |    C...        |          value: 134520131 0x107e4-0x107e8 (4)
0x107e0|                        c2 00 00 00            |        ....    |          size: 194 0x107e8-0x107ec (4)
0x107e0|                                    12         |            .   |          bind: "global" (1) 0x107ec-0x107ec.4 (0.4)
0x107e0|                                    12         |            .   |          type: "func" (2) 0x107ec.4-0x107ed (0.4)
0x107e0|                                       02      |             .  |          other_unused: 0 0x107ed-0x107ed.6 (0.6)
0x107e0|                                       02      |             .  |          visibility: "hidden" (2) 0x107ed.6-0x107ee (0.2)
0x107e0|                                          03 00|              ..|          shndx: 3 0x107ee-0x107f0 (2)
       |                                               |                |        [76]{}: symbol 0x107f0-0x10800 (16)
0x107f0|4d 03 00 00                                    |M...            |          name: "__towrite" (845) 0x107f0-0x107f4 (4)
0x107f0|            c3 99 04 08                        |    ....        |          value: 134519235 0x107f4-0x107f8 (4)
0x107f0|                        3f 00 00 00            |        ?...    |          size: 63 0x107f8-0x107fc (4)
0x107f0|                                    12         |            .   |          bind: "global" (1) 0x107fc-0x107fc.4 (0.4)
0x107f0|                                    12         |            .   |          type: "func" (2) 0x107fc.4-0x107fd (0.4)
0x107f0|                                       02      |             .  |          other_unused: 0 0x107fd-0x107fd.6 (0.6)
0x107f0|                                       02      |             .  |          visibility: "hidden" (2) 0x107fd.6-0x107fe (0.2)
0x107f0|                                          03 00|              ..|          shndx: 3 0x107fe-0x10800 (2)
       |                                               |                |        [77]{}: symbol 0x10800-0x10810 (16)
0x10800|57 03 00 00                                    |W...            |          name: "memcpy" (855) 0x10800-0x10804 (4)
0x10800|            72 9b 04 08                        |    r...        |          value: 134519666 0x10804-0x10808 (4)
0x10800|                        00 00 00 00            |        ....    |          size: 0 0x10808-0x1080c (4)
0x10800|                                    12         |            .   |          bind: "global" (1) 0x1080c-0x1080c.4 (0.4)
0x10800|                                    12         |            .   |          type: "func" (2) 0x1080c.4-0x1080d (0.4)
0x10800|                                       00      |             .  |          other_unused: 0 0x1080d-0x1080d.6 (0.6)
0x10800|                                       00      |             .  |          visibility: "default" (0) 0x1080d.6-0x1080e (0.2)
0x10800|                                          03 00|              ..|          shndx: 3 0x1080e-0x10810 (2)
       |                                               |                |        [78]{}: symbol 0x10810-0x10820 (16)
0x10810|5e 03 00 00                                    |^...            |          name: "__ofl_lock" (862) 0x10810-0x10814 (4)
0x10810|            05 9e 04 08                        |    ....        |          value: 134520325 0x10814-0x10818 (4)
0x10810|                        26 00 00 00            |        &...    |          size: 38 0x10818-0x1081c (4)
0x10810|                                    12         |            .   |          bind: "global" (1) 0x1081c-0x1081c.4 (0.4)
0x10810|                                    12         |            .   |          type: "func" (2) 0x1081c.4-0x1081d (0.4)
0x10810|                                       02      |             .  |          other_unused: 0 0x1081d-0x1081d.6 (0.6)
0x10810|                                       02      |             .  |          visibility: "hidden" (2) 0x1081d.6-0x1081e (0.2)
0x10810|                                          03 00|              ..|          shndx: 3 0x1081e-0x10820 (2)
       |                                               |                |        [79]{}: symbol 0x10820-0x10830 (16)
0x10820|69 03 00 00                                    |i...            |          name: "__TMC_END__" (873) 0x10820-0x10824 (4)
0x10820|            b4 c0 04 08                        |    ....        |          value: 134529204 0x10824-0x10828 (4)
0x10820|                        00 00 00 00            |        ....    |          size: 0 0x10828-0x1082c (4)
0x10820|                                    11         |            .   |          bind: "global" (1) 0x1082c-0x1082c.4 (0.4)
0x10820|                                    11         |            .   |          type: "object" (1) 0x1082c.4-0x1082d (0.4)
0x10820|                                       02      |             .  |          other_unused: 0 0x1082d-0x1082d.6 (0.6)
0x10820|                                       02      |             .  |          visibility: "hidden" (2) 0x1082d.6-0x1082e (0.2)
0x10820|                                          0b 00|              ..|          shndx: 11 0x1082e-0x10830 (2)
       |                                               |                |        [80]{}: symbol 0x10830-0x10840 (16)
0x10830|75 03 00 00                                    |u...            |          name: "__unlock" (885) 0x10830-0x10834 (4)
0x10830|            00 9f 04 08                        |    ....        |          value: 134520576 0x10834-0x10838 (4)
0x10830|                        47 00 00 00            |        G...    |          size: 71 0x10838-0x1083c (4)
0x10830|                                    12         |            .   |          bind: "global" (1) 0x1083c-0x1083c.4 (0.4)
0x10830|                                    12         |            .   |          type: "func" (2) 0x1083c.4-0x1083d (0.4)
0x10830|                                       02      |             .  |          other_unused: 0 0x1083d-0x1083d.6 (0.6)
0x10830|                                       02      |             .  |          visibility: "hidden" (2) 0x1083d.6-0x1083e (0.2)
0x10830|                                          03 00|              ..|          shndx: 3 0x1083e-0x10840 (2)
       |                                               |                |        [81]{}: symbol 0x10840-0x10850 (16)
0x10840|7e 03 00 00                                    |~...            |          name: "__DTOR_END__" (894) 0x10840-0x10844 (4)
0x10840|            dc bf 04 08                        |    ....        |          value: 134528988 0x10844-0x10848 (4)
0x10840|                        00 00 00 00            |        ....    |          size: 0 0x10848-0x1084c (4)
0x10840|                                    11         |            .   |          bind: "global" (1) 0x1084c-0x1084c.4 (0.4)
0x10840|                                    11         |            .   |          type: "object" (1) 0x1084c.4-0x1084d (0.4)
0x10840|                                       02      |             .  |          other_unused: 0 0x1084d-0x1084d.6 (0.6)
0x10840|                                       02      |             .  |          visibility: "hidden" (2) 0x1084d.6-0x1084e (0.2)
0x10840|                                          08 00|              ..|          shndx: 8 0x1084e-0x10850 (2)
       |                                               |                |        [82]{}: symbol 0x10850-0x10860 (16)
0x10850|18 06 00 00                                    |....            |          name: "puts" (1560) 0x10850-0x10854 (4)
0x10850|            b5 94 04 08                        |    ....        |          value: 134517941 0x10854-0x10858 (4)
0x10850|                        a3 00 00 00            |        ....    |          size: 163 0x10858-0x1085c (4)
0x10850|                                    12         |            .   |          bind: "global" (1) 0x1085c-0x1085c.4 (0.4)
0x10850|                                    12         |            .   |          type: "func" (2) 0x1085c.4-0x1085d (0.4)
0x10850|                                       00      |             .  |          other_unused: 0 0x1085d-0x1085d.6 (0.6)
0x10850|                                       00      |             .  |          visibility: "default" (0) 0x1085d.6-0x1085e (0.2)
0x10850|                                          03 00|              ..|          shndx: 3 0x1085e-0x10860 (2)
       |                                               |                |        [83]{}: symbol 0x10860-0x10870 (16)
0x10860|8b 03 00 00                                    |....            |          name: "__overflow" (907) 0x10860-0x10864 (4)
0x10860|            c1 98 04 08                        |    ....        |          value: 134518977 0x10864-0x10868 (4)
0x10860|                        67 00 00 00            |        g...    |          size: 103 0x10868-0x1086c (4)
0x10860|                                    12         |            .   |          bind: "global" (1) 0x1086c-0x1086c.4 (0.4)
0x10860|                                    12         |            .   |          type: "func" (2) 0x1086c.4-0x1086d (0.4)
0x10860|                                       03      |             .  |          other_unused: 0 0x1086d-0x1086d.6 (0.6)
0x10860|                                       03      |             .  |          visibility: "protected" (3) 0x1086d.6-0x1086e (0.2)
0x10860|                                          03 00|              ..|          shndx: 3 0x1086e-0x10870 (2)
       |                                               |                |        [84]{}: symbol 0x10870-0x10880 (16)
0x10870|96 03 00 00                                    |....            |          name: "__libc" (918) 0x10870-0x10874 (4)
0x10870|            00 c1 04 08                        |    ....        |          value: 134529280 0x10874-0x10878 (4)
0x10870|                        38 00 00 00            |        8...    |          size: 56 0x10878-0x1087c (4)
0x10870|                                    11         |            .   |          bind: "global" (1) 0x1087c-0x1087c.4 (0.4)
0x10870|                                    11         |            .   |          type: "object" (1) 0x1087c.4-0x1087d (0.4)
0x10870|                                       02      |             .  |          other_unused: 0 0x1087d-0x1087d.6 (0.6)
0x10870|                                       02      |             .  |          visibility: "hidden" (2) 0x1087d.6-0x1087e (0.2)
0x10870|                                          0c 00|              ..|          shndx: 12 0x1087e-0x10880 (2)
       |                                               |                |        [85]{}: symbol 0x10880-0x10890 (16)
0x10880|9d 03 00 00                                    |....            |          name: "__x86.get_pc_thunk.ax" (925) 0x10880-0x10884 (4)
0x10880|            36 92 04 08                        |    6...        |          value: 134517302 0x10884-0x10888 (4)
0x10880|                        00 00 00 00            |        ....    |          size: 0 0x10888-0x1088c (4)
0x10880|                                    12         |            .   |          bind: "global" (1) 0x1088c-0x1088c.4 (0.4)
0x10880|                                    12         |            .   |          type: "func" (2) 0x1088c.4-0x1088d (0.4)
0x10880|                                       02      |             .  |          other_unused: 0 0x1088d-0x1088d.6 (0.6)
0x10880|                                       02      |             .  |          visibility: "hidden" (2) 0x1088d.6-0x1088e (0.2)
0x10880|                                          03 00|              ..|          shndx: 3 0x1088e-0x10890 (2)
       |                                               |                |        [86]{}: symbol 0x10890-0x108a0 (16)
0x10890|b3 03 00 00                                    |....            |          name: "__dso_handle" (947) 0x10890-0x10894 (4)
0x10890|            00 c0 04 08                        |    ....        |          value: 134529024 0x10894-0x10898 (4)
0x10890|                        00 00 00 00            |        ....    |          size: 0 0x10898-0x1089c (4)
0x10890|                                    11         |            .   |          bind: "global" (1) 0x1089c-0x1089c.4 (0.4)
0x10890|                                    11         |            .   |          type: "object" (1) 0x1089c.4-0x1089d (0.4)
0x10890|                                       02      |             .  |          other_unused: 0 0x1089d-0x1089d.6 (0.6)
0x10890|                                       02      |             .  |          visibility: "hidden" (2) 0x1089d.6-0x1089e (0.2)
0x10890|                                          0b 00|              ..|          shndx: 11 0x1089e-0x108a0 (2)
       |                                               |                |        [87]{}: symbol 0x108a0-0x108b0 (16)
0x108a0|c0 03 00 00                                    |....            |          name: "__set_thread_area" (960) 0x108a0-0x108a4 (4)
0x108a0|            e4 9b 04 08                        |    ....        |          value: 134519780 0x108a4-0x108a8 (4)
0x108a0|                        00 00 00 00            |        ....    |          size: 0 0x108a8-0x108ac (4)
0x108a0|                                    12         |            .   |          bind: "global" (1) 0x108ac-0x108ac.4 (0.4)
0x108a0|                                    12         |            .   |          type: "func" (2) 0x108ac.4-0x108ad (0.4)
0x108a0|                                       02      |             .  |          other_unused: 0 0x108ad-0x108ad.6 (0.6)
0x108a0|                                       02      |             .  |          visibility: "hidden" (2) 0x108ad.6-0x108ae (0.2)
0x108a0|                                          03 00|              ..|          shndx: 3 0x108ae-0x108b0 (2)
       |                                               |                |        [88]{}: symbol 0x108b0-0x108c0 (16)
0x108b0|d2 03 00 00                                    |....            |          name: "__stdin_used" (978) 0x108b0-0x108b4 (4)
0x108b0|            38 c6 04 08                        |    8...        |          value: 134530616 0x108b4-0x108b8 (4)
0x108b0|                        04 00 00 00            |        ....    |          size: 4 0x108b8-0x108bc (4)
0x108b0|                                    21         |            !   |          bind: "weak" (2) 0x108bc-0x108bc.4 (0.4)
0x108b0|                                    21         |            !   |          type: "object" (1) 0x108bc.4-0x108bd (0.4)
0x108b0|                                       02      |             .  |          other_unused: 0 0x108bd-0x108bd.6 (0.6)
0x108b0|                                       02      |             .  |          visibility: "hidden" (2) 0x108bd.6-0x108be (0.2)
0x108b0|                                          0c 00|              ..|          shndx: 12 0x108be-0x108c0 (2)
       |                                               |                |        [89]{}: symbol 0x108c0-0x108d0 (16)
0x108c0|df 03 00 00                                    |....            |          name: "__copy_tls" (991) 0x108c0-0x108c4 (4)
0x108c0|            c8 95 04 08                        |    ....        |          value: 134518216 0x108c4-0x108c8 (4)
0x108c0|                        78 00 00 00            |        x...    |          size: 120 0x108c8-0x108cc (4)
0x108c0|                                    12         |            .   |          bind: "global" (1) 0x108cc-0x108cc.4 (0.4)
0x108c0|                                    12         |            .   |          type: "func" (2) 0x108cc.4-0x108cd (0.4)
0x108c0|                                       02      |             .  |          other_unused: 0 0x108cd-0x108cd.6 (0.6)
0x108c0|                                       02      |             .  |          visibility: "hidden" (2) 0x108cd.6-0x108ce (0.2)
0x108c0|                                          03 00|              ..|          shndx: 3 0x108ce-0x108d0 (2)
       |                                               |                |        [90]{}: symbol 0x108d0-0x108e0 (16)
0x108d0|ea 03 00 00                                    |....            |          name: "__stdio_seek" (1002) 0x108d0-0x108d4 (4)
0x108d0|            5a 99 04 08                        |    Z...        |          value: 134519130 0x108d4-0x108d8 (4)
0x108d0|                        10 00 00 00            |        ....    |          size: 16 0x108d8-0x108dc (4)
0x108d0|                                    12         |            .   |          bind: "global" (1) 0x108dc-0x108dc.4 (0.4)
0x108d0|                                    12         |            .   |          type: "func" (2) 0x108dc.4-0x108dd (0.4)
0x108d0|                                       02      |             .  |          other_unused: 0 0x108dd-0x108dd.6 (0.6)
0x108d0|                                       02      |             .  |          visibility: "hidden" (2) 0x108dd.6-0x108de (0.2)
0x108d0|                                          03 00|              ..|          shndx: 3 0x108de-0x108e0 (2)
       |                                               |                |        [91]{}: symbol 0x108e0-0x108f0 (16)
0x108e0|86 04 00 00                                    |....            |          name: "_environ" (1158) 0x108e0-0x108e4 (4)
0x108e0|            48 c5 04 08                        |    H...        |          value: 134530376 0x108e4-0x108e8 (4)
0x108e0|                        04 00 00 00            |        ....    |          size: 4 0x108e8-0x108ec (4)
0x108e0|                                    21         |            !   |          bind: "weak" (2) 0x108ec-0x108ec.4 (0.4)
0x108e0|                                    21         |            !   |          type: "object" (1) 0x108ec.4-0x108ed (0.4)
0x108e0|                                       00      |             .  |          other_unused: 0 0x108ed-0x108ed.6 (0.6)
0x108e0|                                       00      |             .  |          visibility: "default" (0) 0x108ed.6-0x108ee (0.2)
0x108e0|                                          0c 00|              ..|          shndx: 12 0x108ee-0x108f0 (2)
       |                                               |                |        [92]{}: symbol 0x108f0-0x10900 (16)
0x108f0|f7 03 00 00                                    |....            |          name: "__lockfile" (1015) 0x108f0-0x108f4 (4)
0x108f0|            f5 97 04 08                        |    ....        |          value: 134518773 0x108f4-0x108f8 (4)
0x108f0|                        8d 00 00 00            |        ....    |          size: 141 0x108f8-0x108fc (4)
0x108f0|                                    12         |            .   |          bind: "global" (1) 0x108fc-0x108fc.4 (0.4)
0x108f0|                                    12         |            .   |          type: "func" (2) 0x108fc.4-0x108fd (0.4)
0x108f0|                                       02      |             .  |          other_unused: 0 0x108fd-0x108fd.6 (0.6)
0x108f0|                                       02      |             .  |          visibility: "hidden" (2) 0x108fd.6-0x108fe (0.2)
0x108f0|                                          03 00|              ..|          shndx: 3 0x108fe-0x10900 (2)
       |                                               |                |        [93]{}: symbol 0x10900-0x10910 (16)
0x10900|02 04 00 00                                    |....            |          name: "___errno_location" (1026) 0x10900-0x10904 (4)
0x10900|            47 9f 04 08                        |    G...        |          value: 134520647 0x10904-0x10908 (4)
0x10900|                        0a 00 00 00            |        ....    |          size: 10 0x10908-0x1090c (4)
0x10900|                                    22         |            "   |          bind: "weak" (2) 0x1090c-0x1090c.4 (0.4)
0x10900|                                    22         |            "   |          type: "func" (2) 0x1090c.4-0x1090d (0.4)
0x10900|                                       02      |             .  |          other_unused: 0 0x1090d-0x1090d.6 (0.6)
0x10900|                                       02      |             .  |          visibility: "hidden" (2) 0x1090d.6-0x1090e (0.2)
0x10900|                                          03 00|              ..|          shndx: 3 0x1090e-0x10910 (2)
       |                                               |                |        [94]{}: symbol 0x10910-0x10920 (16)
0x10910|5a 05 00 00                                    |Z...            |          name: "lseek" (1370) 0x10910-0x10914 (4)
0x10910|            3c 9c 04 08                        |    <...        |          value: 134519868 0x10914-0x10918 (4)
0x10910|                        4c 00 00 00            |        L...    |          size: 76 0x10918-0x1091c (4)
0x10910|                                    22         |            "   |          bind: "weak" (2) 0x1091c-0x1091c.4 (0.4)
0x10910|                                    22         |            "   |          type: "func" (2) 0x1091c.4-0x1091d (0.4)
0x10910|                                       00      |             .  |          other_unused: 0 0x1091d-0x1091d.6 (0.6)
0x10910|                                       00      |             .  |          visibility: "default" (0) 0x1091d.6-0x1091e (0.2)
0x10910|                                          03 00|              ..|          shndx: 3 0x1091e-0x10920 (2)
       |                                               |                |        [95]{}: symbol 0x10920-0x10930 (16)
0x10920|85 04 00 00                                    |....            |          name: "__environ" (1157) 0x10920-0x10924 (4)
0x10920|            48 c5 04 08                        |    H...        |          value: 134530376 0x10924-0x10928 (4)
0x10920|                        04 00 00 00            |        ....    |          size: 4 0x10928-0x1092c (4)
0x10920|                                    11         |            .   |          bind: "global" (1) 0x1092c-0x1092c.4 (0.4)
0x10920|                                    11         |            .   |          type: "object" (1) 0x1092c.4-0x1092d (0.4)
0x10920|                                       00      |             .  |          other_unused: 0 0x1092d-0x1092d.6 (0.6)
0x10920|                                       00      |             .  |          visibility: "default" (0) 0x1092d.6-0x1092e (0.2)
0x10920|                                          0c 00|              ..|          shndx: 12 0x1092e-0x10930 (2)
       |                                               |                |        [96]{}: symbol 0x10930-0x10940 (16)
0x10930|14 04 00 00                                    |....            |          name: "aaa" (1044) 0x10930-0x10934 (4)
0x10930|            e5 91 04 08                        |    ....        |          value: 134517221 0x10934-0x10938 (4)
0x10930|                        2b 00 00 00            |        +...    |          size: 43 0x10938-0x1093c (4)
0x10930|                                    12         |            .   |          bind: "global" (1) 0x1093c-0x1093c.4 (0.4)
0x10930|                                    12         |            .   |          type: "func" (2) 0x1093c.4-0x1093d (0.4)
0x10930|                                       00      |             .  |          other_unused: 0 0x1093d-0x1093d.6 (0.6)
0x10930|                                       00      |             .  |          visibility: "default" (0) 0x1093d.6-0x1093e (0.2)
0x10930|                                          03 00|              ..|          shndx: 3 0x1093e-0x10940 (2)
       |                                               |                |        [97]{}: symbol 0x10940-0x10950 (16)
0x10940|18 04 00 00                                    |....            |          name: "_Exit" (1048) 0x10940-0x10944 (4)
0x10940|            cd 97 04 08                        |    ....        |          value: 134518733 0x10944-0x10948 (4)
0x10940|                        28 00 00 00            |        (...    |          size: 40 0x10948-0x1094c (4)
0x10940|                                    12         |            .   |          bind: "global" (1) 0x1094c-0x1094c.4 (0.4)
0x10940|                                    12         |            .   |          type: "func" (2) 0x1094c.4-0x1094d (0.4)
0x10940|                                       00      |             .  |          other_unused: 0 0x1094d-0x1094d.6 (0.6)
0x10940|                                       00      |             .  |          visibility: "default" (0) 0x1094d.6-0x1094e (0.2)
0x10940|                                          03 00|              ..|          shndx: 3 0x1094e-0x10950 (2)
       |                                               |                |        [98]{}: symbol 0x10950-0x10960 (16)
0x10950|1e 04 00 00                                    |....            |          name: "__towrite_needs_stdio_exit" (1054) 0x10950-0x10954 (4)
0x10950|            02 9a 04 08                        |    ....        |          value: 134519298 0x10954-0x10958 (4)
0x10950|                        05 00 00 00            |        ....    |          size: 5 0x10958-0x1095c (4)
0x10950|                                    12         |            .   |          bind: "global" (1) 0x1095c-0x1095c.4 (0.4)
0x10950|                                    12         |            .   |          type: "func" (2) 0x1095c.4-0x1095d (0.4)
0x10950|                                       02      |             .  |          other_unused: 0 0x1095d-0x1095d.6 (0.6)
0x10950|                                       02      |             .  |          visibility: "hidden" (2) 0x1095d.6-0x1095e (0.2)
0x10950|                                          03 00|              ..|          shndx: 3 0x1095e-0x10960 (2)
       |                                               |                |        [99]{}: symbol 0x10960-0x10970 (16)
0x10960|39 04 00 00                                    |9...            |          name: "__init_tls" (1081) 0x10960-0x10964 (4)
0x10960|            40 96 04 08                        |    @...        |          value: 134518336 0x10964-0x10968 (4)
0x10960|                        8d 01 00 00            |        ....    |          size: 397 0x10968-0x1096c (4)
0x10960|                                    22         |            "   |          bind: "weak" (2) 0x1096c-0x1096c.4 (0.4)
0x10960|                                    22         |            "   |          type: "func" (2) 0x1096c.4-0x1096d (0.4)
0x10960|                                       02      |             .  |          other_unused: 0 0x1096d-0x1096d.6 (0.6)
0x10960|                                       02      |             .  |          visibility: "hidden" (2) 0x1096d.6-0x1096e (0.2)
0x10960|                                          03 00|              ..|          shndx: 3 0x1096e-0x10970 (2)
       |                                               |                |        [100]{}: symbol 0x10970-0x10980 (16)
0x10970|db 04 00 00                                    |....            |          name: "_init" (1243) 0x10970-0x10974 (4)
0x10970|            00 90 04 08                        |    ....        |          value: 134516736 0x10974-0x10978 (4)
0x10970|                        00 00 00 00            |        ....    |          size: 0 0x10978-0x1097c (4)
0x10970|                                    10         |            .   |          bind: "global" (1) 0x1097c-0x1097c.4 (0.4)
0x10970|                                    10         |            .   |          type: "notype" (0) 0x1097c.4-0x1097d (0.4)
0x10970|                                       00      |             .  |          other_unused: 0 0x1097d-0x1097d.6 (0.6)
0x10970|                                       00      |             .  |          visibility: "default" (0) 0x1097d.6-0x1097e (0.2)
0x10970|                                          02 00|              ..|          shndx: 2 0x1097e-0x10980 (2)
       |                                               |                |        [101]{}: symbol 0x10980-0x10990 (16)
0x10980|44 04 00 00                                    |D...            |          name: "__funcs_on_exit" (1092) 0x10980-0x10984 (4)
0x10980|            81 94 04 08                        |    ....        |          value: 134517889 0x10984-0x10988 (4)
0x10980|                        01 00 00 00            |        ....    |          size: 1 0x10988-0x1098c (4)
0x10980|                                    22         |            "   |          bind: "weak" (2) 0x1098c-0x1098c.4 (0.4)
0x10980|                                    22         |            "   |          type: "func" (2) 0x1098c.4-0x1098d (0.4)
0x10980|                                       02      |             .  |          other_unused: 0 0x1098d-0x1098d.6 (0.6)
0x10980|                                       02      |             .  |          visibility: "hidden" (2) 0x1098d.6-0x1098e (0.2)
0x10980|                                          03 00|              ..|          shndx: 3 0x1098e-0x10990 (2)
       |                                               |                |        [102]{}: symbol 0x10990-0x109a0 (16)
0x10990|54 04 00 00                                    |T...            |          name: "__memcpy_fwd" (1108) 0x10990-0x10994 (4)
0x10990|            72 9b 04 08                        |    r...        |          value: 134519666 0x10994-0x10998 (4)
0x10990|                        00 00 00 00            |        ....    |          size: 0 0x10998-0x1099c (4)
0x10990|                                    10         |            .   |          bind: "global" (1) 0x1099c-0x1099c.4 (0.4)
0x10990|                                    10         |            .   |          type: "notype" (0) 0x1099c.4-0x1099d (0.4)
0x10990|                                       02      |             .  |          other_unused: 0 0x1099d-0x1099d.6 (0.6)
0x10990|                                       02      |             .  |          visibility: "hidden" (2) 0x1099d.6-0x1099e (0.2)
0x10990|                                          03 00|              ..|          shndx: 3 0x1099e-0x109a0 (2)
       |                                               |                |        [103]{}: symbol 0x109a0-0x109b0 (16)
0x109a0|87 04 00 00                                    |....            |          name: "environ" (1159) 0x109a0-0x109a4 (4)
0x109a0|            48 c5 04 08                        |    H...        |          value: 134530376 0x109a4-0x109a8 (4)
0x109a0|                        04 00 00 00            |        ....    |          size: 4 0x109a8-0x109ac (4)
0x109a0|                                    21         |            !   |          bind: "weak" (2) 0x109ac-0x109ac.4 (0.4)
0x109a0|                                    21         |            !   |          type: "object" (1) 0x109ac.4-0x109ad (0.4)
0x109a0|                                       00      |             .  |          other_unused: 0 0x109ad-0x109ad.6 (0.6)
0x109a0|                                       00      |             .  |          visibility: "default" (0) 0x109ad.6-0x109ae (0.2)
0x109a0|                                          0c 00|              ..|          shndx: 12 0x109ae-0x109b0 (2)
       |                                               |                |        [104]{}: symbol 0x109b0-0x109c0 (16)
0x109b0|61 04 00 00                                    |a...            |          name: "__stdio_ofl_lockptr" (1121) 0x109b0-0x109b4 (4)
0x109b0|            e4 bf 04 08                        |    ....        |          value: 134528996 0x109b4-0x109b8 (4)
0x109b0|                        04 00 00 00            |        ....    |          size: 4 0x109b8-0x109bc (4)
0x109b0|                                    11         |            .   |          bind: "global" (1) 0x109bc-0x109bc.4 (0.4)
0x109b0|                                    11         |            .   |          type: "object" (1) 0x109bc.4-0x109bd (0.4)
0x109b0|                                       02      |             .  |          other_unused: 0 0x109bd-0x109bd.6 (0.6)
0x109b0|                                       02      |             .  |          visibility: "hidden" (2) 0x109bd.6-0x109be (0.2)
0x109b0|                                          09 00|              ..|          shndx: 9 0x109be-0x109c0 (2)
       |                                               |                |        [105]{}: symbol 0x109c0-0x109d0 (16)
0x109c0|75 04 00 00                                    |u...            |          name: "fputs_unlocked" (1141) 0x109c0-0x109c4 (4)
0x109c0|            07 9a 04 08                        |    ....        |          value: 134519303 0x109c4-0x109c8 (4)
0x109c0|                        3b 00 00 00            |        ;...    |          size: 59 0x109c8-0x109cc (4)
0x109c0|                                    22         |            "   |          bind: "weak" (2) 0x109cc-0x109cc.4 (0.4)
0x109c0|                                    22         |            "   |          type: "func" (2) 0x109cc.4-0x109cd (0.4)
0x109c0|                                       00      |             .  |          other_unused: 0 0x109cd-0x109cd.6 (0.6)
0x109c0|                                       00      |             .  |          visibility: "default" (0) 0x109cd.6-0x109ce (0.2)
0x109c0|                                          03 00|              ..|          shndx: 3 0x109ce-0x109d0 (2)
       |                                               |                |        [106]{}: symbol 0x109d0-0x109e0 (16)
0x109d0|84 04 00 00                                    |....            |          name: "___environ" (1156) 0x109d0-0x109d4 (4)
0x109d0|            48 c5 04 08                        |    H...        |          value: 134530376 0x109d4-0x109d8 (4)
0x109d0|                        04 00 00 00            |        ....    |          size: 4 0x109d8-0x109dc (4)
0x109d0|                                    21         |            !   |          bind: "weak" (2) 0x109dc-0x109dc.4 (0.4)
0x109d0|                                    21         |            !   |          type: "object" (1) 0x109dc.4-0x109dd (0.4)
0x109d0|                                       00      |             .  |          other_unused: 0 0x109dd-0x109dd.6 (0.6)
0x109d0|                                       00      |             .  |          visibility: "default" (0) 0x109dd.6-0x109de (0.2)
0x109d0|                                          0c 00|              ..|          shndx: 12 0x109de-0x109e0 (2)
       |                                               |                |        [107]{}: symbol 0x109e0-0x109f0 (16)
0x109e0|8f 04 00 00                                    |....            |          name: "__progname" (1167) 0x109e0-0x109e4 (4)
0x109e0|            e4 c0 04 08                        |    ....        |          value: 134529252 0x109e4-0x109e8 (4)
0x109e0|                        04 00 00 00            |        ....    |          size: 4 0x109e8-0x109ec (4)
0x109e0|                                    11         |            .   |          bind: "global" (1) 0x109ec-0x109ec.4 (0.4)
0x109e0|                                    11         |            .   |          type: "object" (1) 0x109ec.4-0x109ed (0.4)
0x109e0|                                       00      |             .  |          other_unused: 0 0x109ed-0x109ed.6 (0.6)
0x109e0|                                       00      |             .  |          visibility: "default" (0) 0x109ed.6-0x109ee (0.2)
0x109e0|                                          0c 00|              ..|          shndx: 12 0x109ee-0x109f0 (2)
       |                                               |                |        [108]{}: symbol 0x109f0-0x10a00 (16)
0x109f0|31 05 00 00                                    |1...            |          name: "_start" (1329) 0x109f0-0x109f4 (4)
0x109f0|            4a 90 04 08                        |    J...        |          value: 134516810 0x109f4-0x109f8 (4)
0x109f0|                        00 00 00 00            |        ....    |          size: 0 0x109f8-0x109fc (4)
0x109f0|                                    10         |            .   |          bind: "global" (1) 0x109fc-0x109fc.4 (0.4)
0x109f0|                                    10         |            .   |          type: "notype" (0) 0x109fc.4-0x109fd (0.4)
0x109f0|                                       00      |             .  |          other_unused: 0 0x109fd-0x109fd.6 (0.6)
0x109f0|                                       00      |             .  |          visibility: "default" (0) 0x109fd.6-0x109fe (0.2)
0x109f0|                                          03 00|              ..|          shndx: 3 0x109fe-0x10a00 (2)
       |                                               |                |        [109]{}: symbol 0x10a00-0x10a10 (16)
0x10a00|9a 04 00 00                                    |....            |          name: "_start_c" (1178) 0x10a00-0x10a04 (4)
0x10a00|            65 90 04 08                        |    e...        |          value: 134516837 0x10a04-0x10a08 (4)
0x10a00|                        37 00 00 00            |        7...    |          size: 55 0x10a08-0x10a0c (4)
0x10a00|                                    12         |            .   |          bind: "global" (1) 0x10a0c-0x10a0c.4 (0.4)
0x10a00|                                    12         |            .   |          type: "func" (2) 0x10a0c.4-0x10a0d (0.4)
0x10a00|                                       00      |             .  |          other_unused: 0 0x10a0d-0x10a0d.6 (0.6)
0x10a00|                                       00      |             .  |          visibility: "default" (0) 0x10a0d.6-0x10a0e (0.2)
0x10a00|                                          03 00|              ..|          shndx: 3 0x10a0e-0x10a10 (2)
       |                                               |                |        [110]{}: symbol 0x10a10-0x10a20 (16)
0x10a10|a3 04 00 00                                    |....            |          name: "__stdout_FILE" (1187) 0x10a10-0x10a14 (4)
0x10a10|            20 c0 04 08                        |     ...        |          value: 134529056 0x10a14-0x10a18 (4)
0x10a10|                        88 00 00 00            |        ....    |          size: 136 0x10a18-0x10a1c (4)
0x10a10|                                    11         |            .   |          bind: "global" (1) 0x10a1c-0x10a1c.4 (0.4)
0x10a10|                                    11         |            .   |          type: "object" (1) 0x10a1c.4-0x10a1d (0.4)
0x10a10|                                       02      |             .  |          other_unused: 0 0x10a1d-0x10a1d.6 (0.6)
0x10a10|                                       02      |             .  |          visibility: "hidden" (2) 0x10a1d.6-0x10a1e (0.2)
0x10a10|                                          0b 00|              ..|          shndx: 11 0x10a1e-0x10a20 (2)
       |                                               |                |        [111]{}: symbol 0x10a20-0x10a30 (16)
0x10a20|b1 04 00 00                                    |....            |          name: "program_invocation_short_name" (1201) 0x10a20-0x10a24 (4)
0x10a20|            e4 c0 04 08                        |    ....        |          value: 134529252 0x10a24-0x10a28 (4)
0x10a20|                        04 00 00 00            |        ....    |          size: 4 0x10a28-0x10a2c (4)
0x10a20|                                    21         |            !   |          bind: "weak" (2) 0x10a2c-0x10a2c.4 (0.4)
0x10a20|                                    21         |            !   |          type: "object" (1) 0x10a2c.4-0x10a2d (0.4)
0x10a20|                                       00      |             .  |          other_unused: 0 0x10a2d-0x10a2d.6 (0.6)
0x10a20|                                       00      |             .  |          visibility: "default" (0) 0x10a2d.6-0x10a2e (0.2)
0x10a20|                                          0c 00|              ..|          shndx: 12 0x10a2e-0x10a30 (2)
       |                                               |                |        [112]{}: symbol 0x10a30-0x10a40 (16)
0x10a30|cf 04 00 00                                    |....            |          name: "__libc_start_init" (1231) 0x10a30-0x10a34 (4)
0x10a30|            d1 93 04 08                        |    ....        |          value: 134517713 0x10a34-0x10a38 (4)
0x10a30|                        30 00 00 00            |        0...    |          size: 48 0x10a38-0x10a3c (4)
0x10a30|                                    22         |            "   |          bind: "weak" (2) 0x10a3c-0x10a3c.4 (0.4)
0x10a30|                                    22         |            "   |          type: "func" (2) 0x10a3c.4-0x10a3d (0.4)
0x10a30|                                       02      |             .  |          other_unused: 0 0x10a3d-0x10a3d.6 (0.6)
0x10a30|                                       02      |             .  |          visibility: "hidden" (2) 0x10a3d.6-0x10a3e (0.2)
0x10a30|                                          03 00|              ..|          shndx: 3 0x10a3e-0x10a40 (2)
       |                                               |                |        [113]{}: symbol 0x10a40-0x10a50 (16)
0x10a40|e1 04 00 00                                    |....            |          name: "__init_tp" (1249) 0x10a40-0x10a44 (4)
0x10a40|            58 95 04 08                        |    X...        |          value: 134518104 0x10a44-0x10a48 (4)
0x10a40|                        70 00 00 00            |        p...    |          size: 112 0x10a48-0x10a4c (4)
0x10a40|                                    12         |            .   |          bind: "global" (1) 0x10a4c-0x10a4c.4 (0.4)
0x10a40|                                    12         |            .   |          type: "func" (2) 0x10a4c.4-0x10a4d (0.4)
0x10a40|                                       02      |             .  |          other_unused: 0 0x10a4d-0x10a4d.6 (0.6)
0x10a40|                                       02      |             .  |          visibility: "hidden" (2) 0x10a4d.6-0x10a4e (0.2)
0x10a40|                                          03 00|              ..|          shndx: 3 0x10a4e-0x10a50 (2)
       |                                               |                |        [114]{}: symbol 0x10a50-0x10a60 (16)
0x10a50|eb 04 00 00                                    |....            |          name: "__x86.get_pc_thunk.bx" (1259) 0x10a50-0x10a54 (4)
0x10a50|            9c 90 04 08                        |    ....        |          value: 134516892 0x10a54-0x10a58 (4)
0x10a50|                        00 00 00 00            |        ....    |          size: 0 0x10a58-0x10a5c (4)
0x10a50|                                    12         |            .   |          bind: "global" (1) 0x10a5c-0x10a5c.4 (0.4)
0x10a50|                                    12         |            .   |          type: "func" (2) 0x10a5c.4-0x10a5d (0.4)
0x10a50|                                       02      |             .  |          other_unused: 0 0x10a5d-0x10a5d.6 (0.6)
0x10a50|                                       02      |             .  |          visibility: "hidden" (2) 0x10a5d.6-0x10a5e (0.2)
0x10a50|                                          03 00|              ..|          shndx: 3 0x10a5e-0x10a60 (2)
       |                                               |                |        [115]{}: symbol 0x10a60-0x10a70 (16)
0x10a60|01 05 00 00                                    |....            |          name: "__init_ssp" (1281) 0x10a60-0x10a64 (4)
0x10a60|            66 92 04 08                        |    f...        |          value: 134517350 0x10a64-0x10a68 (4)
0x10a60|                        01 00 00 00            |        ....    |          size: 1 0x10a68-0x10a6c (4)
0x10a60|                                    22         |            "   |          bind: "weak" (2) 0x10a6c-0x10a6c.4 (0.4)
0x10a60|                                    22         |            "   |          type: "func" (2) 0x10a6c.4-0x10a6d (0.4)
0x10a60|                                       02      |             .  |          other_unused: 0 0x10a6d-0x10a6d.6 (0.6)
0x10a60|                                       02      |             .  |          visibility: "hidden" (2) 0x10a6d.6-0x10a6e (0.2)
0x10a60|                                          03 00|              ..|          shndx: 3 0x10a6e-0x10a70 (2)
       |                                               |                |        [116]{}: symbol 0x10a70-0x10a80 (16)
0x10a70|0c 05 00 00                                    |....            |          name: "__fwritex" (1292) 0x10a70-0x10a74 (4)
0x10a70|            42 9a 04 08                        |    B...        |          value: 134519362 0x10a74-0x10a78 (4)
0x10a70|                        b8 00 00 00            |        ....    |          size: 184 0x10a78-0x10a7c (4)
0x10a70|                                    12         |            .   |          bind: "global" (1) 0x10a7c-0x10a7c.4 (0.4)
0x10a70|                                    12         |            .   |          type: "func" (2) 0x10a7c.4-0x10a7d (0.4)
0x10a70|                                       02      |             .  |          other_unused: 0 0x10a7d-0x10a7d.6 (0.6)
0x10a70|                                       02      |             .  |          visibility: "hidden" (2) 0x10a7d.6-0x10a7e (0.2)
0x10a70|                                          03 00|              ..|          shndx: 3 0x10a7e-0x10a80 (2)
       |                                               |                |        [117]{}: symbol 0x10a80-0x10a90 (16)
0x10a80|16 05 00 00                                    |....            |          name: "__x86.get_pc_thunk.bp" (1302) 0x10a80-0x10a84 (4)
0x10a80|            7d 94 04 08                        |    }...        |          value: 134517885 0x10a84-0x10a88 (4)
0x10a80|                        00 00 00 00            |        ....    |          size: 0 0x10a88-0x10a8c (4)
0x10a80|                                    12         |            .   |          bind: "global" (1) 0x10a8c-0x10a8c.4 (0.4)
0x10a80|                                    12         |            .   |          type: "func" (2) 0x10a8c.4-0x10a8d (0.4)
0x10a80|                                       02      |             .  |          other_unused: 0 0x10a8d-0x10a8d.6 (0.6)
0x10a80|                                       02      |             .  |          visibility: "hidden" (2) 0x10a8d.6-0x10a8e (0.2)
0x10a80|                                          03 00|              ..|          shndx: 3 0x10a8e-0x10a90 (2)
       |                                               |                |        [118]{}: symbol 0x10a90-0x10aa0 (16)
0x10a90|2c 05 00 00                                    |,...            |          name: "__bss_start" (1324) 0x10a90-0x10a94 (4)
0x10a90|            b4 c0 04 08                        |    ....        |          value: 134529204 0x10a94-0x10a98 (4)
0x10a90|                        00 00 00 00            |        ....    |          size: 0 0x10a98-0x10a9c (4)
0x10a90|                                    10         |            .   |          bind: "global" (1) 0x10a9c-0x10a9c.4 (0.4)
0x10a90|                                    10         |            .   |          type: "notype" (0) 0x10a9c.4-0x10a9d (0.4)
0x10a90|                                       00      |             .  |          other_unused: 0 0x10a9d-0x10a9d.6 (0.6)
0x10a90|                                       00      |             .  |          visibility: "default" (0) 0x10a9d.6-0x10a9e (0.2)
0x10a90|                                          0c 00|              ..|          shndx: 12 0x10a9e-0x10aa0 (2)
       |                                               |                |        [119]{}: symbol 0x10aa0-0x10ab0 (16)
0x10aa0|d7 05 00 00                                    |....            |          name: "main" (1495) 0x10aa0-0x10aa4 (4)
0x10aa0|            10 92 04 08                        |    ....        |          value: 134517264 0x10aa4-0x10aa8 (4)
0x10aa0|                        26 00 00 00            |        &...    |          size: 38 0x10aa8-0x10aac (4)
0x10aa0|                                    12         |            .   |          bind: "global" (1) 0x10aac-0x10aac.4 (0.4)
0x10aa0|                                    12         |            .   |          type: "func" (2) 0x10aac.4-0x10aad (0.4)
0x10aa0|                                       00      |             .  |          other_unused: 0 0x10aad-0x10aad.6 (0.6)
0x10aa0|                                       00      |             .  |          visibility: "default" (0) 0x10aad.6-0x10aae (0.2)
0x10aa0|                                          03 00|              ..|          shndx: 3 0x10aae-0x10ab0 (2)
       |                                               |                |        [120]{}: symbol 0x10ab0-0x10ac0 (16)
0x10ab0|38 05 00 00                                    |8...            |          name: "__stdio_exit" (1336) 0x10ab0-0x10ab4 (4)
0x10ab0|            fa 9c 04 08                        |    ....        |          value: 134520058 0x10ab4-0x10ab8 (4)
0x10ab0|                        49 00 00 00            |        I...    |          size: 73 0x10ab8-0x10abc (4)
0x10ab0|                                    12         |            .   |          bind: "global" (1) 0x10abc-0x10abc.4 (0.4)
0x10ab0|                                    12         |            .   |          type: "func" (2) 0x10abc.4-0x10abd (0.4)
0x10ab0|                                       02      |             .  |          other_unused: 0 0x10abd-0x10abd.6 (0.6)
0x10ab0|                                       02      |             .  |          visibility: "hidden" (2) 0x10abd.6-0x10abe (0.2)
0x10ab0|                                          03 00|              ..|          shndx: 3 0x10abe-0x10ac0 (2)
       |                                               |                |        [121]{}: symbol 0x10ac0-0x10ad0 (16)
0x10ac0|45 05 00 00                                    |E...            |          name: "__lock" (1349) 0x10ac0-0x10ac4 (4)
0x10ac0|            48 9e 04 08                        |    H...        |          value: 134520392 0x10ac4-0x10ac8 (4)
0x10ac0|                        b8 00 00 00            |        ....    |          size: 184 0x10ac8-0x10acc (4)
0x10ac0|                                    12         |            .   |          bind: "global" (1) 0x10acc-0x10acc.4 (0.4)
0x10ac0|                                    12         |            .   |          type: "func" (2) 0x10acc.4-0x10acd (0.4)
0x10ac0|                                       02      |             .  |          other_unused: 0 0x10acd-0x10acd.6 (0.6)
0x10ac0|                                       02      |             .  |          visibility: "hidden" (2) 0x10acd.6-0x10ace (0.2)
0x10ac0|                                          03 00|              ..|          shndx: 3 0x10ace-0x10ad0 (2)
       |                                               |                |        [122]{}: symbol 0x10ad0-0x10ae0 (16)
0x10ad0|4c 05 00 00                                    |L...            |          name: "__aio_close" (1356) 0x10ad0-0x10ad4 (4)
0x10ad0|            28 99 04 08                        |    (...        |          value: 134519080 0x10ad4-0x10ad8 (4)
0x10ad0|                        05 00 00 00            |        ....    |          size: 5 0x10ad8-0x10adc (4)
0x10ad0|                                    22         |            "   |          bind: "weak" (2) 0x10adc-0x10adc.4 (0.4)
0x10ad0|                                    22         |            "   |          type: "func" (2) 0x10adc.4-0x10add (0.4)
0x10ad0|                                       02      |             .  |          other_unused: 0 0x10add-0x10add.6 (0.6)
0x10ad0|                                       02      |             .  |          visibility: "hidden" (2) 0x10add.6-0x10ade (0.2)
0x10ad0|                                          03 00|              ..|          shndx: 3 0x10ade-0x10ae0 (2)
       |                                               |                |        [123]{}: symbol 0x10ae0-0x10af0 (16)
0x10ae0|58 05 00 00                                    |X...            |          name: "__lseek" (1368) 0x10ae0-0x10ae4 (4)
0x10ae0|            3c 9c 04 08                        |    <...        |          value: 134519868 0x10ae4-0x10ae8 (4)
0x10ae0|                        4c 00 00 00            |        L...    |          size: 76 0x10ae8-0x10aec (4)
0x10ae0|                                    12         |            .   |          bind: "global" (1) 0x10aec-0x10aec.4 (0.4)
0x10ae0|                                    12         |            .   |          type: "func" (2) 0x10aec.4-0x10aed (0.4)
0x10ae0|                                       02      |             .  |          other_unused: 0 0x10aed-0x10aed.6 (0.6)
0x10ae0|                                       02      |             .  |          visibility: "hidden" (2) 0x10aed.6-0x10aee (0.2)
0x10ae0|                                          03 00|              ..|          shndx: 3 0x10aee-0x10af0 (2)
       |                                               |                |        [124]{}: symbol 0x10af0-0x10b00 (16)
0x10af0|6b 05 00 00                                    |k...            |          name: "_fini" (1387) 0x10af0-0x10af4 (4)
0x10af0|            99 9f 04 08                        |    ....        |          value: 134520729 0x10af4-0x10af8 (4)
0x10af0|                        00 00 00 00            |        ....    |          size: 0 0x10af8-0x10afc (4)
0x10af0|                                    10         |            .   |          bind: "global" (1) 0x10afc-0x10afc.4 (0.4)
0x10af0|                                    10         |            .   |          type: "notype" (0) 0x10afc.4-0x10afd (0.4)
0x10af0|                                       00      |             .  |          other_unused: 0 0x10afd-0x10afd.6 (0.6)
0x10af0|                                       00      |             .  |          visibility: "default" (0) 0x10afd.6-0x10afe (0.2)
0x10af0|                                          04 00|              ..|          shndx: 4 0x10afe-0x10b00 (2)
       |                                               |                |        [125]{}: symbol 0x10b00-0x10b10 (16)
0x10b00|60 05 00 00                                    |`...            |          name: "__libc_exit_fini" (1376) 0x10b00-0x10b04 (4)
0x10b00|            82 94 04 08                        |    ....        |          value: 134517890 0x10b04-0x10b08 (4)
0x10b00|                        30 00 00 00            |        0...    |          size: 48 0x10b08-0x10b0c (4)
0x10b00|                                    22         |            "   |          bind: "weak" (2) 0x10b0c-0x10b0c.4 (0.4)
0x10b00|                                    22         |            "   |          type: "func" (2) 0x10b0c.4-0x10b0d (0.4)
0x10b00|                                       02      |             .  |          other_unused: 0 0x10b0d-0x10b0d.6 (0.6)
0x10b00|                                       02      |             .  |          visibility: "hidden" (2) 0x10b0d.6-0x10b0e (0.2)
0x10b00|                                          03 00|              ..|          shndx: 3 0x10b0e-0x10b10 (2)
       |                                               |                |        [126]{}: symbol 0x10b10-0x10b20 (16)
0x10b10|71 05 00 00                                    |q...            |          name: "fwrite_unlocked" (1393) 0x10b10-0x10b14 (4)
0x10b10|            fa 9a 04 08                        |    ....        |          value: 134519546 0x10b14-0x10b18 (4)
0x10b10|                        78 00 00 00            |        x...    |          size: 120 0x10b18-0x10b1c (4)
0x10b10|                                    22         |            "   |          bind: "weak" (2) 0x10b1c-0x10b1c.4 (0.4)
0x10b10|                                    22         |            "   |          type: "func" (2) 0x10b1c.4-0x10b1d (0.4)
0x10b10|                                       00      |             .  |          other_unused: 0 0x10b1d-0x10b1d.6 (0.6)
0x10b10|                                       00      |             .  |          visibility: "default" (0) 0x10b1d.6-0x10b1e (0.2)
0x10b10|                                          03 00|              ..|          shndx: 3 0x10b1e-0x10b20 (2)
       |                                               |                |        [127]{}: symbol 0x10b20-0x10b30 (16)
0x10b20|81 05 00 00                                    |....            |          name: "fwrite" (1409) 0x10b20-0x10b24 (4)
0x10b20|            fa 9a 04 08                        |    ....        |          value: 134519546 0x10b24-0x10b28 (4)
0x10b20|                        78 00 00 00            |        x...    |          size: 120 0x10b28-0x10b2c (4)
0x10b20|                                    12         |            .   |          bind: "global" (1) 0x10b2c-0x10b2c.4 (0.4)
0x10b20|                                    12         |            .   |          type: "func" (2) 0x10b2c.4-0x10b2d (0.4)
0x10b20|                                       00      |             .  |          other_unused: 0 0x10b2d-0x10b2d.6 (0.6)
0x10b20|                                       00      |             .  |          visibility: "default" (0) 0x10b2d.6-0x10b2e (0.2)
0x10b20|                                          03 00|              ..|          shndx: 3 0x10b2e-0x10b30 (2)
       |                                               |                |        [128]{}: symbol 0x10b30-0x10b40 (16)
0x10b30|88 05 00 00                                    |....            |          name: "_edata" (1416) 0x10b30-0x10b34 (4)
0x10b30|            b4 c0 04 08                        |    ....        |          value: 134529204 0x10b34-0x10b38 (4)
0x10b30|                        00 00 00 00            |        ....    |          size: 0 0x10b38-0x10b3c (4)
0x10b30|                                    10         |            .   |          bind: "global" (1) 0x10b3c-0x10b3c.4 (0.4)
0x10b30|                                    10         |            .   |          type: "notype" (0) 0x10b3c.4-0x10b3d (0.4)
0x10b30|                                       00      |             .  |          other_unused: 0 0x10b3d-0x10b3d.6 (0.6)
0x10b30|                                       00      |             .  |          visibility: "default" (0) 0x10b3d.6-0x10b3e (0.2)
0x10b30|                                          0b 00|              ..|          shndx: 11 0x10b3e-0x10b40 (2)
       |                                               |                |        [129]{}: symbol 0x10b40-0x10b50 (16)
0x10b40|64 02 00 00                                    |d...            |          name: "_end" (612) 0x10b40-0x10b44 (4)
0x10b40|            44 c6 04 08                        |    D...        |          value: 134530628 0x10b44-0x10b48 (4)
0x10b40|                        00 00 00 00            |        ....    |          size: 0 0x10b48-0x10b4c (4)
0x10b40|                                    10         |            .   |          bind: "global" (1) 0x10b4c-0x10b4c.4 (0.4)
0x10b40|                                    10         |            .   |          type: "notype" (0) 0x10b4c.4-0x10b4d (0.4)
0x10b40|                                       00      |             .  |          other_unused: 0 0x10b4d-0x10b4d.6 (0.6)
0x10b40|                                       00      |             .  |          visibility: "default" (0) 0x10b4d.6-0x10b4e (0.2)
0x10b40|                                          0c 00|              ..|          shndx: 12 0x10b4e-0x10b50 (2)
       |                                               |                |        [130]{}: symbol 0x10b50-0x10b60 (16)
0x10b50|8f 05 00 00                                    |....            |          name: "__stdio_close" (1423) 0x10b50-0x10b54 (4)
0x10b50|            2d 99 04 08                        |    -...        |          value: 134519085 0x10b54-0x10b58 (4)
0x10b50|                        2d 00 00 00            |        -...    |          size: 45 0x10b58-0x10b5c (4)
0x10b50|                                    12         |            .   |          bind: "global" (1) 0x10b5c-0x10b5c.4 (0.4)
0x10b50|                                    12         |            .   |          type: "func" (2) 0x10b5c.4-0x10b5d (0.4)
0x10b50|                                       02      |             .  |          other_unused: 0 0x10b5d-0x10b5d.6 (0.6)
0x10b50|                                       02      |             .  |          visibility: "hidden" (2) 0x10b5d.6-0x10b5e (0.2)
0x10b50|                                          03 00|              ..|          shndx: 3 0x10b5e-0x10b60 (2)
       |                                               |                |        [131]{}: symbol 0x10b60-0x10b70 (16)
0x10b60|03 04 00 00                                    |....            |          name: "__errno_location" (1027) 0x10b60-0x10b64 (4)
0x10b60|            47 9f 04 08                        |    G...        |          value: 134520647 0x10b64-0x10b68 (4)
0x10b60|                        0a 00 00 00            |        ....    |          size: 10 0x10b68-0x10b6c (4)
0x10b60|                                    12         |            .   |          bind: "global" (1) 0x10b6c-0x10b6c.4 (0.4)
0x10b60|                                    12         |            .   |          type: "func" (2) 0x10b6c.4-0x10b6d (0.4)
0x10b60|                                       00      |             .  |          other_unused: 0 0x10b6d-0x10b6d.6 (0.6)
0x10b60|                                       00      |             .  |          visibility: "default" (0) 0x10b6d.6-0x10b6e (0.2)
0x10b60|                                          03 00|              ..|          shndx: 3 0x10b6e-0x10b70 (2)
       |                                               |                |        [132]{}: symbol 0x10b70-0x10b80 (16)
0x10b70|4f 04 00 00                                    |O...            |          name: "exit" (1103) 0x10b70-0x10b74 (4)
0x10b70|            20 90 04 08                        |     ...        |          value: 134516768 0x10b74-0x10b78 (4)
0x10b70|                        2a 00 00 00            |        *...    |          size: 42 0x10b78-0x10b7c (4)
0x10b70|                                    12         |            .   |          bind: "global" (1) 0x10b7c-0x10b7c.4 (0.4)
0x10b70|                                    12         |            .   |          type: "func" (2) 0x10b7c.4-0x10b7d (0.4)
0x10b70|                                       00      |             .  |          other_unused: 0 0x10b7d-0x10b7d.6 (0.6)
0x10b70|                                       00      |             .  |          visibility: "default" (0) 0x10b7d.6-0x10b7e (0.2)
0x10b70|                                          03 00|              ..|          shndx: 3 0x10b7e-0x10b80 (2)
       |                                               |                |        [133]{}: symbol 0x10b80-0x10b90 (16)
0x10b80|9d 05 00 00                                    |....            |          name: "__stderr_used" (1437) 0x10b80-0x10b84 (4)
0x10b80|            38 c6 04 08                        |    8...        |          value: 134530616 0x10b84-0x10b88 (4)
0x10b80|                        04 00 00 00            |        ....    |          size: 4 0x10b88-0x10b8c (4)
0x10b80|                                    21         |            !   |          bind: "weak" (2) 0x10b8c-0x10b8c.4 (0.4)
0x10b80|                                    21         |            !   |          type: "object" (1) 0x10b8c.4-0x10b8d (0.4)
0x10b80|                                       02      |             .  |          other_unused: 0 0x10b8d-0x10b8d.6 (0.6)
0x10b80|                                       02      |             .  |          visibility: "hidden" (2) 0x10b8d.6-0x10b8e (0.2)
0x10b80|                                          0c 00|              ..|          shndx: 12 0x10b8e-0x10b90 (2)
       |                                               |                |        [134]{}: symbol 0x10b90-0x10ba0 (16)
0x10b90|ab 05 00 00                                    |....            |          name: "__stdio_exit_needed" (1451) 0x10b90-0x10b94 (4)
0x10b90|            fa 9c 04 08                        |    ....        |          value: 134520058 0x10b94-0x10b98 (4)
0x10b90|                        49 00 00 00            |        I...    |          size: 73 0x10b98-0x10b9c (4)
0x10b90|                                    22         |            "   |          bind: "weak" (2) 0x10b9c-0x10b9c.4 (0.4)
0x10b90|                                    22         |            "   |          type: "func" (2) 0x10b9c.4-0x10b9d (0.4)
0x10b90|                                       02      |             .  |          other_unused: 0 0x10b9d-0x10b9d.6 (0.6)
0x10b90|                                       02      |             .  |          visibility: "hidden" (2) 0x10b9d.6-0x10b9e (0.2)
0x10b90|                                          03 00|              ..|          shndx: 3 0x10b9e-0x10ba0 (2)
       |                                               |                |        [135]{}: symbol 0x10ba0-0x10bb0 (16)
0x10ba0|bf 05 00 00                                    |....            |          name: "libbbb_bbb" (1471) 0x10ba0-0x10ba4 (4)
0x10ba0|            3a 92 04 08                        |    :...        |          value: 134517306 0x10ba4-0x10ba8 (4)
0x10ba0|                        2b 00 00 00            |        +...    |          size: 43 0x10ba8-0x10bac (4)
0x10ba0|                                    12         |            .   |          bind: "global" (1) 0x10bac-0x10bac.4 (0.4)
0x10ba0|                                    12         |            .   |          type: "func" (2) 0x10bac.4-0x10bad (0.4)
0x10ba0|                                       00      |             .  |          other_unused: 0 0x10bad-0x10bad.6 (0.6)
0x10ba0|                                       00      |             .  |          visibility: "default" (0) 0x10bad.6-0x10bae (0.2)
0x10ba0|                                          03 00|              ..|          shndx: 3 0x10bae-0x10bb0 (2)
       |                                               |                |        [136]{}: symbol 0x10bb0-0x10bc0 (16)
0x10bb0|ca 05 00 00                                    |....            |          name: "__libc_start_main" (1482) 0x10bb0-0x10bb4 (4)
0x10bb0|            34 94 04 08                        |    4...        |          value: 134517812 0x10bb4-0x10bb8 (4)
0x10bb0|                        45 00 00 00            |        E...    |          size: 69 0x10bb8-0x10bbc (4)
0x10bb0|                                    12         |            .   |          bind: "global" (1) 0x10bbc-0x10bbc.4 (0.4)
0x10bb0|                                    12         |            .   |          type: "func" (2) 0x10bbc.4-0x10bbd (0.4)
0x10bb0|                                       00      |             .  |          other_unused: 0 0x10bbd-0x10bbd.6 (0.6)
0x10bb0|                                       00      |             .  |          visibility: "default" (0) 0x10bbd.6-0x10bbe (0.2)
0x10bb0|                                          03 00|              ..|          shndx: 3 0x10bbe-0x10bc0 (2)
       |                                               |                |        [137]{}: symbol 0x10bc0-0x10bd0 (16)
0x10bc0|dc 05 00 00                                    |....            |          name: "strlen" (1500) 0x10bc0-0x10bc4 (4)
0x10bc0|            ac 9b 04 08                        |    ....        |          value: 134519724 0x10bc4-0x10bc8 (4)
0x10bc0|                        38 00 00 00            |        8...    |          size: 56 0x10bc8-0x10bcc (4)
0x10bc0|                                    12         |            .   |          bind: "global" (1) 0x10bcc-0x10bcc.4 (0.4)
0x10bc0|                                    12         |            .   |          type: "func" (2) 0x10bcc.4-0x10bcd (0.4)
0x10bc0|                                       00      |             .  |          other_unused: 0 0x10bcd-0x10bcd.6 (0.6)
0x10bc0|                                       00      |             .  |          visibility: "default" (0) 0x10bcd.6-0x10bce (0.2)
0x10bc0|                                          03 00|              ..|          shndx: 3 0x10bce-0x10bd0 (2)
       |                                               |                |        [138]{}: symbol 0x10bd0-0x10be0 (16)
0x10bd0|e3 05 00 00                                    |....            |          name: "lseek64" (1507) 0x10bd0-0x10bd4 (4)
0x10bd0|            3c 9c 04 08                        |    <...        |          value: 134519868 0x10bd4-0x10bd8 (4)
0x10bd0|                        4c 00 00 00            |        L...    |          size: 76 0x10bd8-0x10bdc (4)
0x10bd0|                                    22         |            "   |          bind: "weak" (2) 0x10bdc-0x10bdc.4 (0.4)
0x10bd0|                                    22         |            "   |          type: "func" (2) 0x10bdc.4-0x10bdd (0.4)
0x10bd0|                                       00      |             .  |          other_unused: 0 0x10bdd-0x10bdd.6 (0.6)
0x10bd0|                                       00      |             .  |          visibility: "default" (0) 0x10bdd.6-0x10bde (0.2)
0x10bd0|                                          03 00|              ..|          shndx: 3 0x10bde-0x10be0 (2)
       |                                               |                |        [139]{}: symbol 0x10be0-0x10bf0 (16)
0x10be0|eb 05 00 00                                    |....            |          name: "program_invocation_name" (1515) 0x10be0-0x10be4 (4)
0x10be0|            e0 c0 04 08                        |    ....        |          value: 134529248 0x10be4-0x10be8 (4)
0x10be0|                        04 00 00 00            |        ....    |          size: 4 0x10be8-0x10bec (4)
0x10be0|                                    21         |            !   |          bind: "weak" (2) 0x10bec-0x10bec.4 (0.4)
0x10be0|                                    21         |            !   |          type: "object" (1) 0x10bec.4-0x10bed (0.4)
0x10be0|                                       00      |             .  |          other_unused: 0 0x10bed-0x10bed.6 (0.6)
0x10be0|                                       00      |             .  |          visibility: "default" (0) 0x10bed.6-0x10bee (0.2)
0x10be0|                                          0c 00|              ..|          shndx: 12 0x10bee-0x10bf0 (2)
       |                                               |                |        [140]{}: symbol 0x10bf0-0x10c00 (16)
0x10bf0|03 06 00 00                                    |....            |          name: "__default_stacksize" (1539) 0x10bf0-0x10bf4 (4)
0x10bf0|            ac c0 04 08                        |    ....        |          value: 134529196 0x10bf4-0x10bf8 (4)
0x10bf0|                        04 00 00 00            |        ....    |          size: 4 0x10bf8-0x10bfc (4)
0x10bf0|                                    11         |            .   |          bind: "global" (1) 0x10bfc-0x10bfc.4 (0.4)
0x10bf0|                                    11         |            .   |          type: "object" (1) 0x10bfc.4-0x10bfd (0.4)
0x10bf0|                                       02      |             .  |          other_unused: 0 0x10bfd-0x10bfd.6 (0.6)
0x10bf0|                                       02      |             .  |          visibility: "hidden" (2) 0x10bfd.6-0x10bfe (0.2)
0x10bf0|                                          0b 00|              ..|          shndx: 11 0x10bfe-0x10c00 (2)
       |                                               |                |        [141]{}: symbol 0x10c00-0x10c10 (16)
0x10c00|17 06 00 00                                    |....            |          name: "fputs" (1559) 0x10c00-0x10c04 (4)
0x10c00|            07 9a 04 08                        |    ....        |          value: 134519303 0x10c04-0x10c08 (4)
0x10c00|                        3b 00 00 00            |        ;...    |          size: 59 0x10c08-0x10c0c (4)
0x10c00|                                    12         |            .   |          bind: "global" (1) 0x10c0c-0x10c0c.4 (0.4)
0x10c00|                                    12         |            .   |          type: "func" (2) 0x10c0c.4-0x10c0d (0.4)
0x10c00|                                       00      |             .  |          other_unused: 0 0x10c0d-0x10c0d.6 (0.6)
0x10c00|                                       00      |             .  |          visibility: "default" (0) 0x10c0d.6-0x10c0e (0.2)
0x10c00|                                          03 00|              ..|          shndx: 3 0x10c0e-0x10c10 (2)
       |                                               |                |        [142]{}: symbol 0x10c10-0x10c20 (16)
0x10c10|1d 06 00 00                                    |....            |          name: "__default_guardsize" (1565) 0x10c10-0x10c14 (4)
0x10c10|            a8 c0 04 08                        |    ....        |          value: 134529192 0x10c14-0x10c18 (4)
0x10c10|                        04 00 00 00            |        ....    |          size: 4 0x10c18-0x10c1c (4)
0x10c10|                                    11         |            .   |          bind: "global" (1) 0x10c1c-0x10c1c.4 (0.4)
0x10c10|                                    11         |            .   |          type: "object" (1) 0x10c1c.4-0x10c1d (0.4)
0x10c10|                                       02      |             .  |          other_unused: 0 0x10c1d-0x10c1d.6 (0.6)
0x10c10|                                       02      |             .  |          visibility: "hidden" (2) 0x10c1d.6-0x10c1e (0.2)
0x10c10|                                          0b 00|              ..|          shndx: 11 0x10c1e-0x10c20 (2)
       |                                               |                |        [143]{}: symbol 0x10c20-0x10c30 (16)
0x10c20|31 06 00 00                                    |1...            |          name: "__sysinfo" (1585) 0x10c20-0x10c24 (4)
0x10c20|            04 c0 04 08                        |    ....        |          value: 134529028 0x10c24-0x10c28 (4)
0x10c20|                        00 00 00 00            |        ....    |          size: 0 0x10c28-0x10c2c (4)
0x10c20|                                    10         |            .   |          bind: "global" (1) 0x10c2c-0x10c2c.4 (0.4)
0x10c20|                                    10         |            .   |          type: "notype" (0) 0x10c2c.4-0x10c2d (0.4)
0x10c20|                                       02      |             .  |          other_unused: 0 0x10c2d-0x10c2d.6 (0.6)
0x10c20|                                       02      |             .  |          visibility: "hidden" (2) 0x10c2d.6-0x10c2e (0.2)
0x10c20|                                          0b 00|              ..|          shndx: 11 0x10c2e-0x10c30 (2)
       |                                               |                |        [144]{}: symbol 0x10c30-0x10c40 (16)
0x10c30|3b 06 00 00                                    |;...            |          name: "__progname_full" (1595) 0x10c30-0x10c34 (4)
0x10c30|            e0 c0 04 08                        |    ....        |          value: 134529248 0x10c34-0x10c38 (4)
0x10c30|                        04 00 00 00            |        ....    |          size: 4 0x10c38-0x10c3c (4)
0x10c30|                                    11         |            .   |          bind: "global" (1) 0x10c3c-0x10c3c.4 (0.4)
0x10c30|                                    11         |            .   |          type: "object" (1) 0x10c3c.4-0x10c3d (0.4)
0x10c30|                                       00      |             .  |          other_unused: 0 0x10c3d-0x10c3d.6 (0.6)
0x10c30|                                       00      |             .  |          visibility: "default" (0) 0x10c3d.6-0x10c3e (0.2)
0x10c30|                                          0c 00|              ..|          shndx: 12 0x10c3e-0x10c40 (2)
0x116e0|                        01 00 00 00            |        ....    |      name: ".symtab" (1) 0x116e8-0x116ec (4)
0x116e0|                                    02 00 00 00|            ....|      type: "symtab" (0x2) (Symbol table) 0x116ec-0x116f0 (4)
       |                                               |                |      flags{}: 0x116f0-0x116f4 (4)
0x116f0|00                                             |.               |        link_order: false 0x116f0-0x116f0.1 (0.1)
0x116f0|00                                             |.               |        info_link: false 0x116f0.1-0x116f0.2 (0.1)
0x116f0|00                                             |.               |        strings: false 0x116f0.2-0x116f0.3 (0.1)
0x116f0|00                                             |.               |        merge: false 0x116f0.3-0x116f0.4 (0.1)
0x116f0|00                                             |.               |        unused0: 0 0x116f0.4-0x116f0.5 (0.1)
0x116f0|00                                             |.               |        execinstr: false 0x116f0.5-0x116f0.6 (0.1)
0x116f0|00                                             |.               |        alloc: false 0x116f0.6-0x116f0.7 (0.1)
0x116f0|00                                             |.               |        write: false 0x116f0.7-0x116f1 (0.1)
0x116f0|   00                                          | .              |        tls: false 0x116f1-0x116f1.1 (0.1)
0x116f0|   00                                          | .              |        group: false 0x116f1.1-0x116f1.2 (0.1)
0x116f0|   00                                          | .              |        os_nonconforming: false 0x116f1.2-0x116f1.3 (0.1)
0x116f0|   00 00                                       | ..             |        unused1: 0 0x116f1.3-0x116f2.4 (1.1)
0x116f0|      00 00                                    |  ..            |        os_specific: 0 0x116f2.4-0x116f3.4 (1)
0x116f0|         00                                    |   .            |        processor_specific: 0 0x116f3.4-0x116f4 (0.4)
0x116f0|            00 00 00 00                        |    ....        |      addr: 0x0 0x116f4-0x116f8 (4)
0x116f0|                        30 03 01 00            |        0...    |      offset: 66352 0x116f8-0x116fc (4)
0x116f0|                                    10 09 00 00|            ....|      size: 0x910 0x116fc-0x11700 (4)
0x11700|17 00 00 00                                    |....            |      link: 23 0x11700-0x11704 (4)
0x11700|            41 00 00 00                        |    A...        |      info: 65 0x11704-0x11708 (4)
0x11700|                        04 00 00 00            |        ....    |      addralign: 4 0x11708-0x1170c (4)
0x11700|                                    10 00 00 00|            ....|      entsize: 16 0x1170c-0x11710 (4)
       |                                               |                |    [23]{}: section_header 0x10c40-0x11738 (2808)
0x10c40|00 63 72 74 31 2e 63 00 63 72 74 73 74 75 66 66|.crt1.c.crtstuff|      string: "\x00crt1.c\x00crtstuff.c\x00__CTOR_LIST__\x00__DTOR_LIST__\x00__EH_FRAME_BEGIN__\x00deregister_tm_clones\x00__do_global_dtors_aux\x00completed.2\x00dtor_idx.1\x00frame_dummy\x00object.0\x00__CTOR_END__\x00__FRAME_END__\x00__do_global_ctors_aux\x00a.c\x00libbbb.c\x00__libc_start_main.c\x00dummy1\x00libc_start_main_stage2\x00libc.c\x00stdout.c\x00buf\x00__environ.c\x00__init_tls.c\x00static_init_tls\x00main_tls\x00builtin_tls\x00_Exit.c\x00__lockfile.c\x00__overflow.c\x00__stdio_close.c\x00__stdio_seek.c\x00__stdout_write.c\x00__towrite.c\x00fputs.c\x00fwrite.c\x00strlen.c\x00default_attr.c\x00lseek.c\x00syscall_ret.c\x00__stdio_exit.c\x00close_file\x00dummy_file\x00__stdio_write.c\x00ofl.c\x00ofl_head\x00__lock.c\x00__errno_location.c\x00__fini_array_end\x00__fini_array_start\x00__init_array_end\x00_GLOBAL_OFFSET_TABLE_\x00__init_array_start\x00__thread_list_lock\x00__stdout_used\x00stdout\x00__x86.get_pc_thunk.si\x00__init_libc\x00__syscall_ret\x00__stdout_write\x00__ofl_unlock\x00__unlockfile\x00__hwcap\x00__stdio_write\x00__towrite\x00memcpy\x00__ofl_lock\x00__TMC_END__\x00__unlock\x00__DTOR_END__\x00__overflow\x00__libc\x00__x86.get_pc_thunk.ax\x00__dso_handle\x00__set_thread_area\x00__stdin_used\x00__copy_tls\x00__stdio_seek\x00__lockfile\x00___errno_location\x00aaa\x00_Exit\x00__towrite_needs_stdio_exit\x00__init_tls\x00__funcs_on_exit\x00__memcpy_fwd\x00__stdio_ofl_lockptr\x00fputs_unlocked\x00___environ\x00__progname\x00_start_c\x00__stdout_FILE\x00program_invocation_short_name\x00__libc_start_init\x00__init_tp\x00__x86.get_pc_thunk.bx\x00__init_ssp\x00__fwritex\x00__x86.get_pc_thunk.bp\x00__bss_start\x00__stdio_exit\x00__lock\x00__aio_close\x00__lseek\x00__libc_exit_fini\x00fwrite_unlocked\x00fwrite\x00_edata\x00__stdio_close\x00__stderr_used\x00__stdio_exit_needed\x00libbbb_bbb\x00__libc_start_main\x00strlen\x00lseek64\x00program_invocation_name\x00__default_stacksize\x00fputs\x00__default_guardsize\x00__sysinfo\x00__progname_full\x00" 0x10c40-0x1128b (1611)
*      |until 0x1128a.7 (1611)                         |                |
0x11710|09 00 00 00                                    |....            |      name: ".strtab" (9) 0x11710-0x11714 (4)
0x11710|            03 00 00 00                        |    ....        |      type: "strtab" (0x3) (String table) 0x11714-0x11718 (4)
       |                                               |                |      flags{}: 0x11718-0x1171c (4)
0x11710|                        00                     |        .       |        link_order: false 0x11718-0x11718.1 (0.1)
0x11710|                        00                     |        .       |        info_link: false 0x11718.1-0x11718.2 (0.1)
0x11710|                        00                     |        .       |        strings: false 0x11718.2-0x11718.3 (0.1)
0x11710|                        00                     |        .       |        merge: false 0x11718.3-0x11718.4 (0.1)
0x11710|                        00                     |        .       |        unused0: 0 0x11718.4-0x11718.5 (0.1)
0x11710|                        00                     |        .       |        execinstr: false 0x11718.5-0x11718.6 (0.1)
0x11710|                        00                     |        .       |        alloc: false 0x11718.6-0x11718.7 (0.1)
0x11710|                        00                     |        .       |        write: false 0x11718.7-0x11719 (0.1)
0x11710|                           00                  |         .      |        tls: false 0x11719-0x11719.1 (0.1)
0x11710|                           00                  |         .      |        group: false 0x11719.1-0x11719.2 (0.1)
0x11710|                           00                  |         .      |        os_nonconforming: false 0x11719.2-0x11719.3 (0.1)
0x11710|                           00 00               |         ..     |        unused1: 0 0x11719.3-0x1171a.4 (1.1)
0x11710|                              00 00            |          ..    |        os_specific: 0 0x1171a.4-0x1171b.4 (1)
0x11710|                                 00            |           .    |        processor_specific: 0 0x1171b.4-0x1171c (0.4)
0x11710|                                    00 00 00 00|            ....|      addr: 0x0 0x1171c-0x11720 (4)
0x11720|40 0c 01 00                                    |@...            |      offset: 68672 0x11720-0x11724 (4)
0x11720|            4b 06 00 00                        |    K...        |      size: 0x64b 0x11724-0x11728 (4)
0x11720|                        00 00 00 00            |        ....    |      link: 0 0x11728-0x1172c (4)
0x11720|                                    00 00 00 00|            ....|      info: 0 0x1172c-0x11730 (4)
0x11730|01 00 00 00                                    |....            |      addralign: 1 0x11730-0x11734 (4)
0x11730|            00 00 00 00                        |    ....        |      entsize: 0 0x11734-0x11738 (4)
       |                                               |                |    [24]{}: section_header 0x1128b-0x11760 (1237)
0x11280|                                 00 2e 73 79 6d|           ..sym|      string: "\x00.symtab\x00.strtab\x00.shstrtab\x00.note.gnu.property\x00.init\x00.text\x00.fini\x00.rodata\x00.eh_frame\x00.ctors\x00.dtors\x00.data.rel.ro\x00.got\x00.data\x00.bss\x00.comment\x00.debug_aranges\x00.debug_info\x00.debug_abbrev\x00.debug_line\x00.debug_frame\x00.debug_str\x00.debug_loc\x00.debug_ranges\x00" 0x1128b-0x11377 (236)
0x11290|74 61 62 00 2e 73 74 72 74 61 62 00 2e 73 68 73|tab..strtab..shs|
*      |until 0x11376.7 (236)                          |                |
0x11730|                        11 00 00 00            |        ....    |      name: ".shstrtab" (17) 0x11738-0x1173c (4)
0x11730|                                    03 00 00 00|            ....|      type: "strtab" (0x3) (String table) 0x1173c-0x11740 (4)
       |                                               |                |      flags{}: 0x11740-0x11744 (4)
0x11740|00                                             |.               |        link_order: false 0x11740-0x11740.1 (0.1)
0x11740|00                                             |.               |        info_link: false 0x11740.1-0x11740.2 (0.1)
0x11740|00                                             |.               |        strings: false 0x11740.2-0x11740.3 (0.1)
0x11740|00                                             |.               |        merge: false 0x11740.3-0x11740.4 (0.1)
0x11740|00                                             |.               |        unused0: 0 0x11740.4-0x11740.5 (0.1)
0x11740|00                                             |.               |        execinstr: false 0x11740.5-0x11740.6 (0.1)
0x11740|00                                             |.               |        alloc: false 0x11740.6-0x11740.7 (0.1)
0x11740|00                                             |.               |        write: false 0x11740.7-0x11741 (0.1)
0x11740|   00                                          | .              |        tls: false 0x11741-0x11741.1 (0.1)
0x11740|   00                                          | .              |        group: false 0x11741.1-0x11741.2 (0.1)
0x11740|   00                                          | .              |        os_nonconforming: false 0x11741.2-0x11741.3 (0.1)
0x11740|   00 00                                       | ..             |        unused1: 0 0x11741.3-0x11742.4 (1.1)
0x11740|      00 00                                    |  ..            |        os_specific: 0 0x11742.4-0x11743.4 (1)
0x11740|         00                                    |   .            |        processor_specific: 0 0x11743.4-0x11744 (0.4)
0x11740|            00 00 00 00                        |    ....        |      addr: 0x0 0x11744-0x11748 (4)
0x11740|                        8b 12 01 00            |        ....    |      offset: 70283 0x11748-0x1174c (4)
0x11740|                                    ec 00 00 00|            ....|      size: 0xec 0x1174c-0x11750 (4)
0x11750|00 00 00 00                                    |....            |      link: 0 0x11750-0x11754 (4)
0x11750|            00 00 00 00                        |    ....        |      info: 0 0x11754-0x11758 (4)
0x11750|                        01 00 00 00            |        ....    |      addralign: 1 0x11758-0x1175c (4)
0x11750|                                    00 00 00 00|            ....|      entsize: 0 0x1175c-0x11760 (4)
0x00150|                                    00 00 00 00|            ....|  gap0: raw bits 0x15c-0x1000 (3748)
0x00160|00 00 00 00 00 00 00 00 00 00 00 00 00 00 00 00|................|
*      |until 0xfff.7 (3748)                           |                |
0x01fa0|               00 00 00 00 00 00 00 00 00 00 00|     ...........|  gap1: raw bits 0x1fa5-0x2000 (91)
0x01fb0|00 00 00 00 00 00 00 00 00 00 00 00 00 00 00 00|................|
*      |until 0x1fff.7 (91)                            |                |
0x020b0|                        00 00 00 00 00 00 00 00|        ........|  gap2: raw bits 0x20b8-0x2fd0 (3864)
0x020c0|00 00 00 00 00 00 00 00 00 00 00 00 00 00 00 00|................|
*      |until 0x2fcf.7 (3864)                          |                |
0x030e0|               00 00 00                        |     ...        |  gap3: raw bits 0x30e5-0x30e8 (3)
0x0d420|                                       00 00 00|             ...|  gap4: raw bits 0xd42d-0xd430 (3)
0x0ffb0|      00 00 00 00 00 00                        |  ......        |  gap5: raw bits 0xffb2-0xffb8 (6)
0x11370|                     00                        |       .        |  gap6: raw bits 0x11377-0x11378 (1)
