$ fq -d elf dv a_static
      |00 01 02 03 04 05 06 07 08 09 0a 0b 0c 0d 0e 0f|0123456789abcdef|.{}: a_static (elf) 0x0-0x4207.7 (16904)
      |                                               |                |  header{}: 0x0-0x33.7 (52)
      |                                               |                |    ident{}: 0x0-0xf.7 (16)
0x0000|7f 45 4c 46                                    |.ELF            |      magic: raw bits (valid) 0x0-0x3.7 (4)
0x0000|            01                                 |    .           |      class: 32 (1) 0x4-0x4.7 (1)
0x0000|               01                              |     .          |      data: "little_endian" (1) 0x5-0x5.7 (1)
0x0000|                  01                           |      .         |      version: 1 0x6-0x6.7 (1)
0x0000|                     00                        |       .        |      os_abi: "sysv" (0) 0x7-0x7.7 (1)
0x0000|                        00                     |        .       |      abi_version: 0 0x8-0x8.7 (1)
0x0000|                           00 00 00 00 00 00 00|         .......|      pad: raw bits (all zero) 0x9-0xf.7 (7)
0x0010|03 00                                          |..              |    type: "dyn" (0x3) 0x10-0x11.7 (2)
0x0010|      03 00                                    |  ..            |    machine: "x86" (0x3) (x86) 0x12-0x13.7 (2)
0x0010|            01 00 00 00                        |    ....        |    version: 1 0x14-0x17.7 (4)
0x0010|                        70 10 00 00            |        p...    |    entry: 4208 0x18-0x1b.7 (4)
0x0010|                                    34 00 00 00|            4...|    phoff: 52 0x1c-0x1f.7 (4)
0x0020|b8 3c 00 00                                    |.<..            |    shoff: 15544 0x20-0x23.7 (4)
0x0020|            00 00 00 00                        |    ....        |    flags: 0 0x24-0x27.7 (4)
0x0020|                        34 00                  |        4.      |    ehsize: 52 0x28-0x29.7 (2)
0x0020|                              20 00            |           .    |    phentsize: 32 0x2a-0x2b.7 (2)
0x0020|                                    0c 00      |            ..  |    phnum: 12 0x2c-0x2d.7 (2)
0x0020|                                          28 00|              (.|    shentsize: 40 0x2e-0x2f.7 (2)
0x0030|22 00                                          |".              |    shnum: 34 0x30-0x31.7 (2)
0x0030|      21 00                                    |  !.            |    shstrndx: 33 0x32-0x33.7 (2)
      |                                               |                |  program_headers[0:12]: 0x0-0x3003.7 (12292)
      |                                               |                |    [0]{}: program_header 0x34-0x1b3.7 (384)
      |                                               |                |      program_header{}: 0x34-0x1b3.7 (384)
0x0030|            06 00 00 00                        |    ....        |        type: "phdr" (6) (Program header location and size) 0x34-0x37.7 (4)
0x0030|            06 00 00 00 34 00 00 00 34 00 00 00|    ....4...4...|        data: raw bits 0x34-0x1b3.7 (384)
0x0040|34 00 00 00 80 01 00 00 80 01 00 00 04 00 00 00|4...............|
*     |until 0x1b3.7 (384)                            |                |
0x0030|                        34 00 00 00            |        4...    |        offset: 0x34 0x38-0x3b.7 (4)
0x0030|                                    34 00 00 00|            4...|        vaddr: 0x34 0x3c-0x3f.7 (4)
0x0040|34 00 00 00                                    |4...            |        paddr: 0x34 0x40-0x43.7 (4)
0x0040|            80 01 00 00                        |    ....        |        filesz: 384 0x44-0x47.7 (4)
0x0040|                        80 01 00 00            |        ....    |        memsz: 384 0x48-0x4b.7 (4)
      |                                               |                |        flags{}: 0x4c-0x4f.7 (4)
0x0040|                                    04         |            .   |          unused0: 0 0x4c-0x4c.4 (0.5)
0x0040|                                    04         |            .   |          r: true 0x4c.5-0x4c.5 (0.1)
0x0040|                                    04         |            .   |          w: false 0x4c.6-0x4c.6 (0.1)
0x0040|                                    04         |            .   |          x: false 0x4c.7-0x4c.7 (0.1)
0x0040|                                       00 00 00|             ...|          unused1: 0 0x4d-0x4f.7 (3)
0x0050|04 00 00 00                                    |....            |        align: 4 0x50-0x53.7 (4)
      |                                               |                |    [1]{}: program_header 0x54-0x1ca.7 (375)
      |                                               |                |      program_header{}: 0x54-0x1ca.7 (375)
0x0050|            03 00 00 00                        |    ....        |        type: "interp" (3) (Interpreter to invoke) 0x54-0x57.7 (4)
0x0050|                        b4 01 00 00            |        ....    |        offset: 0x1b4 0x58-0x5b.7 (4)
0x0050|                                    b4 01 00 00|            ....|        vaddr: 0x1b4 0x5c-0x5f.7 (4)
0x0060|b4 01 00 00                                    |....            |        paddr: 0x1b4 0x60-0x63.7 (4)
0x0060|            17 00 00 00                        |    ....        |        filesz: 23 0x64-0x67.7 (4)
0x0060|                        17 00 00 00            |        ....    |        memsz: 23 0x68-0x6b.7 (4)
      |                                               |                |        flags{}: 0x6c-0x6f.7 (4)
0x0060|                                    04         |            .   |          unused0: 0 0x6c-0x6c.4 (0.5)
0x0060|                                    04         |            .   |          r: true 0x6c.5-0x6c.5 (0.1)
0x0060|                                    04         |            .   |          w: false 0x6c.6-0x6c.6 (0.1)
0x0060|                                    04         |            .   |          x: false 0x6c.7-0x6c.7 (0.1)
0x0060|                                       00 00 00|             ...|          unused1: 0 0x6d-0x6f.7 (3)
0x0070|01 00 00 00                                    |....            |        align: 1 0x70-0x73.7 (4)
0x01b0|            2f 6c 69 62 2f 6c 64 2d 6d 75 73 6c|    /lib/ld-musl|        data: raw bits 0x1b4-0x1ca.7 (23)
0x01c0|2d 69 33 38 36 2e 73 6f 2e 31 00               |-i386.so.1.     |
      |                                               |                |    [2]{}: program_header 0x0-0x3c7.7 (968)
      |                                               |                |      program_header{}: 0x0-0x3c7.7 (968)
0x0000|7f 45 4c 46 01 01 01 00 00 00 00 00 00 00 00 00|.ELF............|        data: raw bits 0x0-0x3c7.7 (968)
*     |until 0x3c7.7 (968)                            |                |
0x0070|            01 00 00 00                        |    ....        |        type: "load" (1) (Loadable segment) 0x74-0x77.7 (4)
0x0070|                        00 00 00 00            |        ....    |        offset: 0x0 0x78-0x7b.7 (4)
0x0070|                                    00 00 00 00|            ....|        vaddr: 0x0 0x7c-0x7f.7 (4)
0x0080|00 00 00 00                                    |....            |        paddr: 0x0 0x80-0x83.7 (4)
0x0080|            c8 03 00 00                        |    ....        |        filesz: 968 0x84-0x87.7 (4)
0x0080|                        c8 03 00 00            |        ....    |        memsz: 968 0x88-0x8b.7 (4)
      |                                               |                |        flags{}: 0x8c-0x8f.7 (4)
0x0080|                                    04         |            .   |          unused0: 0 0x8c-0x8c.4 (0.5)
0x0080|                                    04         |            .   |          r: true 0x8c.5-0x8c.5 (0.1)
0x0080|                                    04         |            .   |          w: false 0x8c.6-0x8c.6 (0.1)
0x0080|                                    04         |            .   |          x: false 0x8c.7-0x8c.7 (0.1)
0x0080|                                       00 00 00|             ...|          unused1: 0 0x8d-0x8f.7 (3)
0x0090|00 10 00 00                                    |....            |        align: 4096 0x90-0x93.7 (4)
      |                                               |                |    [3]{}: program_header 0x94-0x133c.7 (4777)
      |                                               |                |      program_header{}: 0x94-0x133c.7 (4777)
0x0090|            01 00 00 00                        |    ....        |        type: "load" (1) (Loadable segment) 0x94-0x97.7 (4)
0x0090|                        00 10 00 00            |        ....    |        offset: 0x1000 0x98-0x9b.7 (4)
0x0090|                                    00 10 00 00|            ....|        vaddr: 0x1000 0x9c-0x9f.7 (4)
0x00a0|00 10 00 00                                    |....            |        paddr: 0x1000 0xa0-0xa3.7 (4)
0x00a0|            3d 03 00 00                        |    =...        |        filesz: 829 0xa4-0xa7.7 (4)
0x00a0|                        3d 03 00 00            |        =...    |        memsz: 829 0xa8-0xab.7 (4)
      |                                               |                |        flags{}: 0xac-0xaf.7 (4)
0x00a0|                                    05         |            .   |          unused0: 0 0xac-0xac.4 (0.5)
0x00a0|                                    05         |            .   |          r: true 0xac.5-0xac.5 (0.1)
0x00a0|                                    05         |            .   |          w: false 0xac.6-0xac.6 (0.1)
0x00a0|                                    05         |            .   |          x: true 0xac.7-0xac.7 (0.1)
0x00a0|                                       00 00 00|             ...|          unused1: 0 0xad-0xaf.7 (3)
0x00b0|00 10 00 00                                    |....            |        align: 4096 0xb0-0xb3.7 (4)
0x1000|83 ec 0c e8 08 02 00 00 e8 e3 02 00 00 83 c4 0c|................|        data: raw bits 0x1000-0x133c.7 (829)
*     |until 0x133c.7 (829)                           |                |
      |                                               |                |    [4]{}: program_header 0xb4-0x211f.7 (8300)
      |                                               |                |      program_header{}: 0xb4-0x211f.7 (8300)
0x00b0|            01 00 00 00                        |    ....        |        type: "load" (1) (Loadable segment) 0xb4-0xb7.7 (4)
0x00b0|                        00 20 00 00            |        . ..    |        offset: 0x2000 0xb8-0xbb.7 (4)
0x00b0|                                    00 20 00 00|            . ..|        vaddr: 0x2000 0xbc-0xbf.7 (4)
0x00c0|00 20 00 00                                    |. ..            |        paddr: 0x2000 0xc0-0xc3.7 (4)
0x00c0|            20 01 00 00                        |     ...        |        filesz: 288 0xc4-0xc7.7 (4)
0x00c0|                        20 01 00 00            |         ...    |        memsz: 288 0xc8-0xcb.7 (4)
      |                                               |                |        flags{}: 0xcc-0xcf.7 (4)
0x00c0|                                    04         |            .   |          unused0: 0 0xcc-0xcc.4 (0.5)
0x00c0|                                    04         |            .   |          r: true 0xcc.5-0xcc.5 (0.1)
0x00c0|                                    04         |            .   |          w: false 0xcc.6-0xcc.6 (0.1)
0x00c0|                                    04         |            .   |          x: false 0xcc.7-0xcc.7 (0.1)
0x00c0|                                       00 00 00|             ...|          unused1: 0 0xcd-0xcf.7 (3)
0x00d0|00 10 00 00                                    |....            |        align: 4096 0xd0-0xd3.7 (4)
0x2000|61 61 61 00 6c 69 62 62 62 62 5f 62 62 62 00 00|aaa.libbbb_bbb..|        data: raw bits 0x2000-0x211f.7 (288)
*     |until 0x211f.7 (288)                           |                |
      |                                               |                |    [5]{}: program_header 0xd4-0x3003.7 (12080)
      |                                               |                |      program_header{}: 0xd4-0x3003.7 (12080)
0x00d0|            01 00 00 00                        |    ....        |        type: "load" (1) (Loadable segment) 0xd4-0xd7.7 (4)
0x00d0|                        fc 2e 00 00            |        ....    |        offset: 0x2efc 0xd8-0xdb.7 (4)
0x00d0|                                    fc 3e 00 00|            .>..|        vaddr: 0x3efc 0xdc-0xdf.7 (4)
0x00e0|fc 3e 00 00                                    |.>..            |        paddr: 0x3efc 0xe0-0xe3.7 (4)
0x00e0|            08 01 00 00                        |    ....        |        filesz: 264 0xe4-0xe7.7 (4)
0x00e0|                        28 01 00 00            |        (...    |        memsz: 296 0xe8-0xeb.7 (4)
      |                                               |                |        flags{}: 0xec-0xef.7 (4)
0x00e0|                                    06         |            .   |          unused0: 0 0xec-0xec.4 (0.5)
0x00e0|                                    06         |            .   |          r: true 0xec.5-0xec.5 (0.1)
0x00e0|                                    06         |            .   |          w: true 0xec.6-0xec.6 (0.1)
0x00e0|                                    06         |            .   |          x: false 0xec.7-0xec.7 (0.1)
0x00e0|                                       00 00 00|             ...|          unused1: 0 0xed-0xef.7 (3)
0x00f0|00 10 00 00                                    |....            |        align: 4096 0xf0-0xf3.7 (4)
0x2ef0|                                    ff ff ff ff|            ....|        data: raw bits 0x2efc-0x3003.7 (264)
0x2f00|00 00 00 00 ff ff ff ff 00 00 00 00 01 00 00 00|................|
*     |until 0x3003.7 (264)                           |                |
      |                                               |                |    [6]{}: program_header 0xf4-0x2fcb.7 (11992)
      |                                               |                |      program_header{}: 0xf4-0x2fcb.7 (11992)
0x00f0|            02 00 00 00                        |    ....        |        type: "dynamic" (2) (Dynamic linking information) 0xf4-0xf7.7 (4)
0x00f0|                        0c 2f 00 00            |        ./..    |        offset: 0x2f0c 0xf8-0xfb.7 (4)
0x00f0|                                    0c 3f 00 00|            .?..|        vaddr: 0x3f0c 0xfc-0xff.7 (4)
0x0100|0c 3f 00 00                                    |.?..            |        paddr: 0x3f0c 0x100-0x103.7 (4)
0x0100|            c0 00 00 00                        |    ....        |        filesz: 192 0x104-0x107.7 (4)
0x0100|                        c0 00 00 00            |        ....    |        memsz: 192 0x108-0x10b.7 (4)
      |                                               |                |        flags{}: 0x10c-0x10f.7 (4)
0x0100|                                    06         |            .   |          unused0: 0 0x10c-0x10c.4 (0.5)
0x0100|                                    06         |            .   |          r: true 0x10c.5-0x10c.5 (0.1)
0x0100|                                    06         |            .   |          w: true 0x10c.6-0x10c.6 (0.1)
0x0100|                                    06         |            .   |          x: false 0x10c.7-0x10c.7 (0.1)
0x0100|                                       00 00 00|             ...|          unused1: 0 0x10d-0x10f.7 (3)
0x0110|04 00 00 00                                    |....            |        align: 4 0x110-0x113.7 (4)
0x2f00|                                    01 00 00 00|            ....|        data: raw bits 0x2f0c-0x2fcb.7 (192)
0x2f10|33 00 00 00 0c 00 00 00 00 10 00 00 0d 00 00 00|3...............|
*     |until 0x2fcb.7 (192)                           |                |
      |                                               |                |    [7]{}: program_header 0x114-0x1f3.7 (224)
      |                                               |                |      program_header{}: 0x114-0x1f3.7 (224)
0x0110|            04 00 00 00                        |    ....        |        type: "note" (4) (Auxiliary information) 0x114-0x117.7 (4)
0x0110|                        cc 01 00 00            |        ....    |        offset: 0x1cc 0x118-0x11b.7 (4)
0x0110|                                    cc 01 00 00|            ....|        vaddr: 0x1cc 0x11c-0x11f.7 (4)
0x0120|cc 01 00 00                                    |....            |        paddr: 0x1cc 0x120-0x123.7 (4)
0x0120|            28 00 00 00                        |    (...        |        filesz: 40 0x124-0x127.7 (4)
0x0120|                        28 00 00 00            |        (...    |        memsz: 40 0x128-0x12b.7 (4)
      |                                               |                |        flags{}: 0x12c-0x12f.7 (4)
0x0120|                                    04         |            .   |          unused0: 0 0x12c-0x12c.4 (0.5)
0x0120|                                    04         |            .   |          r: true 0x12c.5-0x12c.5 (0.1)
0x0120|                                    04         |            .   |          w: false 0x12c.6-0x12c.6 (0.1)
0x0120|                                    04         |            .   |          x: false 0x12c.7-0x12c.7 (0.1)
0x0120|                                       00 00 00|             ...|          unused1: 0 0x12d-0x12f.7 (3)
0x0130|04 00 00 00                                    |....            |        align: 4 0x130-0x133.7 (4)
0x01c0|                                    04 00 00 00|            ....|        data: raw bits 0x1cc-0x1f3.7 (40)
0x01d0|18 00 00 00 05 00 00 00 47 4e 55 00 01 00 01 c0|........GNU.....|
*     |until 0x1f3.7 (40)                             |                |
      |                                               |                |    [8]{}: program_header 0x134-0x1f3.7 (192)
      |                                               |                |      program_header{}: 0x134-0x1f3.7 (192)
0x0130|            53 e5 74 64                        |    S.td        |        type: "os" (1685382483) (Operating system-specific) 0x134-0x137.7 (4)
0x0130|                        cc 01 00 00            |        ....    |        offset: 0x1cc 0x138-0x13b.7 (4)
0x0130|                                    cc 01 00 00|            ....|        vaddr: 0x1cc 0x13c-0x13f.7 (4)
0x0140|cc 01 00 00                                    |....            |        paddr: 0x1cc 0x140-0x143.7 (4)
0x0140|            28 00 00 00                        |    (...        |        filesz: 40 0x144-0x147.7 (4)
0x0140|                        28 00 00 00            |        (...    |        memsz: 40 0x148-0x14b.7 (4)
      |                                               |                |        flags{}: 0x14c-0x14f.7 (4)
0x0140|                                    04         |            .   |          unused0: 0 0x14c-0x14c.4 (0.5)
0x0140|                                    04         |            .   |          r: true 0x14c.5-0x14c.5 (0.1)
0x0140|                                    04         |            .   |          w: false 0x14c.6-0x14c.6 (0.1)
0x0140|                                    04         |            .   |          x: false 0x14c.7-0x14c.7 (0.1)
0x0140|                                       00 00 00|             ...|          unused1: 0 0x14d-0x14f.7 (3)
0x0150|04 00 00 00                                    |....            |        align: 4 0x150-0x153.7 (4)
0x01c0|                                    04 00 00 00|            ....|        data: raw bits 0x1cc-0x1f3.7 (40)
0x01d0|18 00 00 00 05 00 00 00 47 4e 55 00 01 00 01 c0|........GNU.....|
*     |until 0x1f3.7 (40)                             |                |
      |                                               |                |    [9]{}: program_header 0x154-0x204b.7 (7928)
      |                                               |                |      program_header{}: 0x154-0x204b.7 (7928)
0x0150|            50 e5 74 64                        |    P.td        |        type: "gnu_eh_frame" (1685382480) (GNU frame unwind information) 0x154-0x157.7 (4)
0x0150|                        10 20 00 00            |        . ..    |        offset: 0x2010 0x158-0x15b.7 (4)
0x0150|                                    10 20 00 00|            . ..|        vaddr: 0x2010 0x15c-0x15f.7 (4)
0x0160|10 20 00 00                                    |. ..            |        paddr: 0x2010 0x160-0x163.7 (4)
0x0160|            3c 00 00 00                        |    <...        |        filesz: 60 0x164-0x167.7 (4)
0x0160|                        3c 00 00 00            |        <...    |        memsz: 60 0x168-0x16b.7 (4)
      |                                               |                |        flags{}: 0x16c-0x16f.7 (4)
0x0160|                                    04         |            .   |          unused0: 0 0x16c-0x16c.4 (0.5)
0x0160|                                    04         |            .   |          r: true 0x16c.5-0x16c.5 (0.1)
0x0160|                                    04         |            .   |          w: false 0x16c.6-0x16c.6 (0.1)
0x0160|                                    04         |            .   |          x: false 0x16c.7-0x16c.7 (0.1)
0x0160|                                       00 00 00|             ...|          unused1: 0 0x16d-0x16f.7 (3)
0x0170|04 00 00 00                                    |....            |        align: 4 0x170-0x173.7 (4)
0x2010|01 1b 03 3b 38 00 00 00 06 00 00 00 10 f0 ff ff|...;8...........|        data: raw bits 0x2010-0x204b.7 (60)
*     |until 0x204b.7 (60)                            |                |
      |                                               |                |    [10]{}: program_header 0x0-0x193.7 (404)
      |                                               |                |      program_header{}: 0x0-0x193.7 (404)
      |                                               |                |        data: raw bits 0x0-NA (0)
0x0170|            51 e5 74 64                        |    Q.td        |        type: "gnu_stack" (1685382481) (GNU stack permission) 0x174-0x177.7 (4)
0x0170|                        00 00 00 00            |        ....    |        offset: 0x0 0x178-0x17b.7 (4)
0x0170|                                    00 00 00 00|            ....|        vaddr: 0x0 0x17c-0x17f.7 (4)
0x0180|00 00 00 00                                    |....            |        paddr: 0x0 0x180-0x183.7 (4)
0x0180|            00 00 00 00                        |    ....        |        filesz: 0 0x184-0x187.7 (4)
0x0180|                        00 00 00 00            |        ....    |        memsz: 0 0x188-0x18b.7 (4)
      |                                               |                |        flags{}: 0x18c-0x18f.7 (4)
0x0180|                                    06         |            .   |          unused0: 0 0x18c-0x18c.4 (0.5)
0x0180|                                    06         |            .   |          r: true 0x18c.5-0x18c.5 (0.1)
0x0180|                                    06         |            .   |          w: true 0x18c.6-0x18c.6 (0.1)
0x0180|                                    06         |            .   |          x: false 0x18c.7-0x18c.7 (0.1)
0x0180|                                       00 00 00|             ...|          unused1: 0 0x18d-0x18f.7 (3)
0x0190|10 00 00 00                                    |....            |        align: 16 0x190-0x193.7 (4)
      |                                               |                |    [11]{}: program_header 0x194-0x2fff.7 (11884)
      |                                               |                |      program_header{}: 0x194-0x2fff.7 (11884)
0x0190|            52 e5 74 64                        |    R.td        |        type: "gnu_relro" (1685382482) (GNU read-only after relocation) 0x194-0x197.7 (4)
0x0190|                        fc 2e 00 00            |        ....    |        offset: 0x2efc 0x198-0x19b.7 (4)
0x0190|                                    fc 3e 00 00|            .>..|        vaddr: 0x3efc 0x19c-0x19f.7 (4)
0x01a0|fc 3e 00 00                                    |.>..            |        paddr: 0x3efc 0x1a0-0x1a3.7 (4)
0x01a0|            04 01 00 00                        |    ....        |        filesz: 260 0x1a4-0x1a7.7 (4)
0x01a0|                        04 01 00 00            |        ....    |        memsz: 260 0x1a8-0x1ab.7 (4)
      |                                               |                |        flags{}: 0x1ac-0x1af.7 (4)
0x01a0|                                    04         |            .   |          unused0: 0 0x1ac-0x1ac.4 (0.5)
0x01a0|                                    04         |            .   |          r: true 0x1ac.5-0x1ac.5 (0.1)
0x01a0|                                    04         |            .   |          w: false 0x1ac.6-0x1ac.6 (0.1)
0x01a0|                                    04         |            .   |          x: false 0x1ac.7-0x1ac.7 (0.1)
0x01a0|                                       00 00 00|             ...|          unused1: 0 0x1ad-0x1af.7 (3)
0x01b0|01 00 00 00                                    |....            |        align: 1 0x1b0-0x1b3.7 (4)
0x2ef0|                                    ff ff ff ff|            ....|        data: raw bits 0x2efc-0x2fff.7 (260)
0x2f00|00 00 00 00 ff ff ff ff 00 00 00 00 01 00 00 00|................|
*     |until 0x2fff.7 (260)                           |                |
      |                                               |                |  section_headers[0:34]: 0x0-0x4207.7 (16904)
      |                                               |                |    [0]{}: section_header 0x0-0x3cdf.7 (15584)
      |                                               |                |      data: raw bits 0x0-NA (0)
0x3cb0|                        00 00 00 00            |        ....    |      name: "" (0) 0x3cb8-0x3cbb.7 (4)
0x3cb0|                                    00 00 00 00|            ....|      type: "null" (0x0) (Header inactive) 0x3cbc-0x3cbf.7 (4)
      |                                               |                |      flags{}: 0x3cc0-0x3cc3.7 (4)
0x3cc0|00                                             |.               |        link_order: false 0x3cc0-0x3cc0 (0.1)
0x3cc0|00                                             |.               |        info_link: false 0x3cc0.1-0x3cc0.1 (0.1)
0x3cc0|00                                             |.               |        strings: false 0x3cc0.2-0x3cc0.2 (0.1)
0x3cc0|00                                             |.               |        merge: false 0x3cc0.3-0x3cc0.3 (0.1)
0x3cc0|00                                             |.               |        unused0: 0 0x3cc0.4-0x3cc0.4 (0.1)
0x3cc0|00                                             |.               |        execinstr: false 0x3cc0.5-0x3cc0.5 (0.1)
0x3cc0|00                                             |.               |        alloc: false 0x3cc0.6-0x3cc0.6 (0.1)
0x3cc0|00                                             |.               |        write: false 0x3cc0.7-0x3cc0.7 (0.1)
0x3cc0|   00                                          | .              |        tls: false 0x3cc1-0x3cc1 (0.1)
0x3cc0|   00                                          | .              |        group: false 0x3cc1.1-0x3cc1.1 (0.1)
0x3cc0|   00                                          | .              |        os_nonconforming: false 0x3cc1.2-0x3cc1.2 (0.1)
0x3cc0|   00 00                                       | ..             |        unused1: 0 0x3cc1.3-0x3cc2.3 (1.1)
0x3cc0|      00 00                                    |  ..            |        os_specific: 0 0x3cc2.4-0x3cc3.3 (1)
0x3cc0|         00                                    |   .            |        processor_specific: 0 0x3cc3.4-0x3cc3.7 (0.4)
0x3cc0|            00 00 00 00                        |    ....        |      addr: 0x0 0x3cc4-0x3cc7.7 (4)
0x3cc0|                        00 00 00 00            |        ....    |      offset: 0 0x3cc8-0x3ccb.7 (4)
0x3cc0|                                    00 00 00 00|            ....|      size: 0x0 0x3ccc-0x3ccf.7 (4)
0x3cd0|00 00 00 00                                    |....            |      link: 0 0x3cd0-0x3cd3.7 (4)
0x3cd0|            00 00 00 00                        |    ....        |      info: 0 0x3cd4-0x3cd7.7 (4)
0x3cd0|                        00 00 00 00            |        ....    |      addralign: 0 0x3cd8-0x3cdb.7 (4)
0x3cd0|                                    00 00 00 00|            ....|      entsize: 0 0x3cdc-0x3cdf.7 (4)
      |                                               |                |    [1]{}: section_header 0x1b4-0x3d07.7 (15188)
0x01b0|            2f 6c 69 62 2f 6c 64 2d 6d 75 73 6c|    /lib/ld-musl|      data: raw bits 0x1b4-0x1ca.7 (23)
0x01c0|2d 69 33 38 36 2e 73 6f 2e 31 00               |-i386.so.1.     |
0x3ce0|1b 00 00 00                                    |....            |      name: ".interp" (27) 0x3ce0-0x3ce3.7 (4)
0x3ce0|            01 00 00 00                        |    ....        |      type: "progbits" (0x1) (Information defined by the program) 0x3ce4-0x3ce7.7 (4)
      |                                               |                |      flags{}: 0x3ce8-0x3ceb.7 (4)
0x3ce0|                        02                     |        .       |        link_order: false 0x3ce8-0x3ce8 (0.1)
0x3ce0|                        02                     |        .       |        info_link: false 0x3ce8.1-0x3ce8.1 (0.1)
0x3ce0|                        02                     |        .       |        strings: false 0x3ce8.2-0x3ce8.2 (0.1)
0x3ce0|                        02                     |        .       |        merge: false 0x3ce8.3-0x3ce8.3 (0.1)
0x3ce0|                        02                     |        .       |        unused0: 0 0x3ce8.4-0x3ce8.4 (0.1)
0x3ce0|                        02                     |        .       |        execinstr: false 0x3ce8.5-0x3ce8.5 (0.1)
0x3ce0|                        02                     |        .       |        alloc: true 0x3ce8.6-0x3ce8.6 (0.1)
0x3ce0|                        02                     |        .       |        write: false 0x3ce8.7-0x3ce8.7 (0.1)
0x3ce0|                           00                  |         .      |        tls: false 0x3ce9-0x3ce9 (0.1)
0x3ce0|                           00                  |         .      |        group: false 0x3ce9.1-0x3ce9.1 (0.1)
0x3ce0|                           00                  |         .      |        os_nonconforming: false 0x3ce9.2-0x3ce9.2 (0.1)
0x3ce0|                           00 00               |         ..     |        unused1: 0 0x3ce9.3-0x3cea.3 (1.1)
0x3ce0|                              00 00            |          ..    |        os_specific: 0 0x3cea.4-0x3ceb.3 (1)
0x3ce0|                                 00            |           .    |        processor_specific: 0 0x3ceb.4-0x3ceb.7 (0.4)
0x3ce0|                                    b4 01 00 00|            ....|      addr: 0x1b4 0x3cec-0x3cef.7 (4)
0x3cf0|b4 01 00 00                                    |....            |      offset: 436 0x3cf0-0x3cf3.7 (4)
0x3cf0|            17 00 00 00                        |    ....        |      size: 0x17 0x3cf4-0x3cf7.7 (4)
0x3cf0|                        00 00 00 00            |        ....    |      link: 0 0x3cf8-0x3cfb.7 (4)
0x3cf0|                                    00 00 00 00|            ....|      info: 0 0x3cfc-0x3cff.7 (4)
0x3d00|01 00 00 00                                    |....            |      addralign: 1 0x3d00-0x3d03.7 (4)
0x3d00|            00 00 00 00                        |    ....        |      entsize: 0 0x3d04-0x3d07.7 (4)
      |                                               |                |    [2]{}: section_header 0x1cc-0x3d2f.7 (15204)
0x01c0|                                    04 00 00 00|            ....|      data: raw bits 0x1cc-0x1f3.7 (40)
0x01d0|18 00 00 00 05 00 00 00 47 4e 55 00 01 00 01 c0|........GNU.....|
*     |until 0x1f3.7 (40)                             |                |
0x3d00|                        23 00 00 00            |        #...    |      name: ".note.gnu.property" (35) 0x3d08-0x3d0b.7 (4)
0x3d00|                                    07 00 00 00|            ....|      type: "note" (0x7) (Information that marks the file in some way) 0x3d0c-0x3d0f.7 (4)
      |                                               |                |      flags{}: 0x3d10-0x3d13.7 (4)
0x3d10|02                                             |.               |        link_order: false 0x3d10-0x3d10 (0.1)
0x3d10|02                                             |.               |        info_link: false 0x3d10.1-0x3d10.1 (0.1)
0x3d10|02                                             |.               |        strings: false 0x3d10.2-0x3d10.2 (0.1)
0x3d10|02                                             |.               |        merge: false 0x3d10.3-0x3d10.3 (0.1)
0x3d10|02                                             |.               |        unused0: 0 0x3d10.4-0x3d10.4 (0.1)
0x3d10|02                                             |.               |        execinstr: false 0x3d10.5-0x3d10.5 (0.1)
0x3d10|02                                             |.               |        alloc: true 0x3d10.6-0x3d10.6 (0.1)
0x3d10|02                                             |.               |        write: false 0x3d10.7-0x3d10.7 (0.1)
0x3d10|   00                                          | .              |        tls: false 0x3d11-0x3d11 (0.1)
0x3d10|   00                                          | .              |        group: false 0x3d11.1-0x3d11.1 (0.1)
0x3d10|   00                                          | .              |        os_nonconforming: false 0x3d11.2-0x3d11.2 (0.1)
0x3d10|   00 00                                       | ..             |        unused1: 0 0x3d11.3-0x3d12.3 (1.1)
0x3d10|      00 00                                    |  ..            |        os_specific: 0 0x3d12.4-0x3d13.3 (1)
0x3d10|         00                                    |   .            |        processor_specific: 0 0x3d13.4-0x3d13.7 (0.4)
0x3d10|            cc 01 00 00                        |    ....        |      addr: 0x1cc 0x3d14-0x3d17.7 (4)
0x3d10|                        cc 01 00 00            |        ....    |      offset: 460 0x3d18-0x3d1b.7 (4)
0x3d10|                                    28 00 00 00|            (...|      size: 0x28 0x3d1c-0x3d1f.7 (4)
0x3d20|00 00 00 00                                    |....            |      link: 0 0x3d20-0x3d23.7 (4)
0x3d20|            00 00 00 00                        |    ....        |      info: 0 0x3d24-0x3d27.7 (4)
0x3d20|                        04 00 00 00            |        ....    |      addralign: 4 0x3d28-0x3d2b.7 (4)
0x3d20|                                    00 00 00 00|            ....|      entsize: 0 0x3d2c-0x3d2f.7 (4)
      |                                               |                |    [3]{}: section_header 0x1f4-0x3d57.7 (15204)
      |                                               |                |      gnu_hash{}: 0x1f4-0x217.7 (36)
0x01f0|            02 00 00 00                        |    ....        |        nbuckets: 2 0x1f4-0x1f7.7 (4)
0x01f0|                        08 00 00 00            |        ....    |        symndx: 8 0x1f8-0x1fb.7 (4)
0x01f0|                                    01 00 00 00|            ....|        maskwords: 1 0x1fc-0x1ff.7 (4)
0x0200|05 00 00 00                                    |....            |        shift2: 5 0x200-0x203.7 (4)
      |                                               |                |        bloom_filter[0:1]: 0x204-0x207.7 (4)
0x0200|            00 24 00 81                        |    .$..        |          [0]: 2164270080 maskword 0x204-0x207.7 (4)
      |                                               |                |        buckets[0:2]: 0x208-0x20f.7 (8)
0x0200|                        08 00 00 00            |        ....    |          [0]: 8 bucket 0x208-0x20b.7 (4)
0x0200|                                    00 00 00 00|            ....|          [1]: 0 bucket 0x20c-0x20f.7 (4)
      |                                               |                |        values[0:2]: 0x210-0x217.7 (8)
0x0210|b8 8d f1 0e                                    |....            |          [0]: 250711480 value 0x210-0x213.7 (4)
0x0210|            eb d3 ef 0e                        |    ....        |          [1]: 250598379 value 0x214-0x217.7 (4)
0x3d30|36 00 00 00                                    |6...            |      name: ".gnu.hash" (54) 0x3d30-0x3d33.7 (4)
0x3d30|            f6 ff ff 6f                        |    ...o        |      type: "gnu_hash" (0x6ffffff6) (GNU symbol hash table) 0x3d34-0x3d37.7 (4)
      |                                               |                |      flags{}: 0x3d38-0x3d3b.7 (4)
0x3d30|                        02                     |        .       |        link_order: false 0x3d38-0x3d38 (0.1)
0x3d30|                        02                     |        .       |        info_link: false 0x3d38.1-0x3d38.1 (0.1)
0x3d30|                        02                     |        .       |        strings: false 0x3d38.2-0x3d38.2 (0.1)
0x3d30|                        02                     |        .       |        merge: false 0x3d38.3-0x3d38.3 (0.1)
0x3d30|                        02                     |        .       |        unused0: 0 0x3d38.4-0x3d38.4 (0.1)
0x3d30|                        02                     |        .       |        execinstr: false 0x3d38.5-0x3d38.5 (0.1)
0x3d30|                        02                     |        .       |        alloc: true 0x3d38.6-0x3d38.6 (0.1)
0x3d30|                        02                     |        .       |        write: false 0x3d38.7-0x3d38.7 (0.1)
0x3d30|                           00                  |         .      |        tls: false 0x3d39-0x3d39 (0.1)
0x3d30|                           00                  |         .      |        group: false 0x3d39.1-0x3d39.1 (0.1)
0x3d30|                           00                  |         .      |        os_nonconforming: false 0x3d39.2-0x3d39.2 (0.1)
0x3d30|                           00 00               |         ..     |        unused1: 0 0x3d39.3-0x3d3a.3 (1.1)
0x3d30|                              00 00            |          ..    |        os_specific: 0 0x3d3a.4-0x3d3b.3 (1)
0x3d30|                                 00            |           .    |        processor_specific: 0 0x3d3b.4-0x3d3b.7 (0.4)
0x3d30|                                    f4 01 00 00|            ....|      addr: 0x1f4 0x3d3c-0x3d3f.7 (4)
0x3d40|f4 01 00 00                                    |....            |      offset: 500 0x3d40-0x3d43.7 (4)
0x3d40|            24 00 00 00                        |    $...        |      size: 0x24 0x3d44-0x3d47.7 (4)
0x3d40|                        04 00 00 00            |        ....    |      link: 4 0x3d48-0x3d4b.7 (4)
0x3d40|                                    00 00 00 00|            ....|      info: 0 0x3d4c-0x3d4f.7 (4)
0x3d50|04 00 00 00                                    |....            |      addralign: 4 0x3d50-0x3d53.7 (4)
0x3d50|            04 00 00 00                        |    ....        |      entsize: 4 0x3d54-0x3d57.7 (4)
      |                                               |                |    [4]{}: section_header 0x218-0x3d7f.7 (15208)
      |                                               |                |      symbol_table[0:10]: 0x218-0x2b7.7 (160)
      |                                               |                |        [0]{}: symbol 0x218-0x227.7 (16)
0x0210|                        00 00 00 00            |        ....    |          name: "" (0) 0x218-0x21b.7 (4)
0x0210|                                    00 00 00 00|            ....|          value: 0 0x21c-0x21f.7 (4)
0x0220|00 00 00 00                                    |....            |          size: 0 0x220-0x223.7 (4)
0x0220|            00                                 |    .           |          bind: "local" (0) 0x224-0x224.3 (0.4)
0x0220|            00                                 |    .           |          type: "notype" (0) 0x224.4-0x224.7 (0.4)
0x0220|               00                              |     .          |          other_unused: 0 0x225-0x225.5 (0.6)
0x0220|               00                              |     .          |          visibility: "default" (0) 0x225.6-0x225.7 (0.2)
0x0220|                  00 00                        |      ..        |          shndx: 0 0x226-0x227.7 (2)
      |                                               |                |        [1]{}: symbol 0x228-0x237.7 (16)
0x0220|                        01 00 00 00            |        ....    |          name: "puts" (1) 0x228-0x22b.7 (4)
0x0220|                                    00 00 00 00|            ....|          value: 0 0x22c-0x22f.7 (4)
0x0230|00 00 00 00                                    |....            |          size: 0 0x230-0x233.7 (4)
0x0230|            12                                 |    .           |          bind: "global" (1) 0x234-0x234.3 (0.4)
0x0230|            12                                 |    .           |          type: "func" (2) 0x234.4-0x234.7 (0.4)
0x0230|               00                              |     .          |          other_unused: 0 0x235-0x235.5 (0.6)
0x0230|               00                              |     .          |          visibility: "default" (0) 0x235.6-0x235.7 (0.2)
0x0230|                  00 00                        |      ..        |          shndx: 0 0x236-0x237.7 (2)
      |                                               |                |        [2]{}: symbol 0x238-0x247.7 (16)
0x0230|                        12 00 00 00            |        ....    |          name: "__cxa_finalize" (18) 0x238-0x23b.7 (4)
0x0230|                                    00 00 00 00|            ....|          value: 0 0x23c-0x23f.7 (4)
0x0240|00 00 00 00                                    |....            |          size: 0 0x240-0x243.7 (4)
0x0240|            22                                 |    "           |          bind: "weak" (2) 0x244-0x244.3 (0.4)
0x0240|            22                                 |    "           |          type: "func" (2) 0x244.4-0x244.7 (0.4)
0x0240|               00                              |     .          |          other_unused: 0 0x245-0x245.5 (0.6)
0x0240|               00                              |     .          |          visibility: "default" (0) 0x245.6-0x245.7 (0.2)
0x0240|                  00 00                        |      ..        |          shndx: 0 0x246-0x247.7 (2)
      |                                               |                |        [3]{}: symbol 0x248-0x257.7 (16)
0x0240|                        46 00 00 00            |        F...    |          name: "__register_frame_info_bases" (70) 0x248-0x24b.7 (4)
0x0240|                                    00 00 00 00|            ....|          value: 0 0x24c-0x24f.7 (4)
0x0250|00 00 00 00                                    |....            |          size: 0 0x250-0x253.7 (4)
0x0250|            20                                 |                |          bind: "weak" (2) 0x254-0x254.3 (0.4)
0x0250|            20                                 |                |          type: "notype" (0) 0x254.4-0x254.7 (0.4)
0x0250|               00                              |     .          |          other_unused: 0 0x255-0x255.5 (0.6)
0x0250|               00                              |     .          |          visibility: "default" (0) 0x255.6-0x255.7 (0.2)
0x0250|                  00 00                        |      ..        |          shndx: 0 0x256-0x257.7 (2)
      |                                               |                |        [4]{}: symbol 0x258-0x267.7 (16)
0x0250|                        62 00 00 00            |        b...    |          name: "_ITM_registerTMCloneTable" (98) 0x258-0x25b.7 (4)
0x0250|                                    00 00 00 00|            ....|          value: 0 0x25c-0x25f.7 (4)
0x0260|00 00 00 00                                    |....            |          size: 0 0x260-0x263.7 (4)
0x0260|            20                                 |                |          bind: "weak" (2) 0x264-0x264.3 (0.4)
0x0260|            20                                 |                |          type: "notype" (0) 0x264.4-0x264.7 (0.4)
0x0260|               00                              |     .          |          other_unused: 0 0x265-0x265.5 (0.6)
0x0260|               00                              |     .          |          visibility: "default" (0) 0x265.6-0x265.7 (0.2)
0x0260|                  00 00                        |      ..        |          shndx: 0 0x266-0x267.7 (2)
      |                                               |                |        [5]{}: symbol 0x268-0x277.7 (16)
0x0260|                        7c 00 00 00            |        |...    |          name: "__deregister_frame_info_bases" (124) 0x268-0x26b.7 (4)
0x0260|                                    00 00 00 00|            ....|          value: 0 0x26c-0x26f.7 (4)
0x0270|00 00 00 00                                    |....            |          size: 0 0x270-0x273.7 (4)
0x0270|            20                                 |                |          bind: "weak" (2) 0x274-0x274.3 (0.4)
0x0270|            20                                 |                |          type: "notype" (0) 0x274.4-0x274.7 (0.4)
0x0270|               00                              |     .          |          other_unused: 0 0x275-0x275.5 (0.6)
0x0270|               00                              |     .          |          visibility: "default" (0) 0x275.6-0x275.7 (0.2)
0x0270|                  00 00                        |      ..        |          shndx: 0 0x276-0x277.7 (2)
      |                                               |                |        [6]{}: symbol 0x278-0x287.7 (16)
0x0270|                        9a 00 00 00            |        ....    |          name: "_ITM_deregisterTMCloneTable" (154) 0x278-0x27b.7 (4)
0x0270|                                    00 00 00 00|            ....|          value: 0 0x27c-0x27f.7 (4)
0x0280|00 00 00 00                                    |....            |          size: 0 0x280-0x283.7 (4)
0x0280|            20                                 |                |          bind: "weak" (2) 0x284-0x284.3 (0.4)
0x0280|            20                                 |                |          type: "notype" (0) 0x284.4-0x284.7 (0.4)
0x0280|               00                              |     .          |          other_unused: 0 0x285-0x285.5 (0.6)
0x0280|               00                              |     .          |          visibility: "default" (0) 0x285.6-0x285.7 (0.2)
0x0280|                  00 00                        |      ..        |          shndx: 0 0x286-0x287.7 (2)
      |                                               |                |        [7]{}: symbol 0x288-0x297.7 (16)
0x0280|                        21 00 00 00            |        !...    |          name: "__libc_start_main" (33) 0x288-0x28b.7 (4)
0x0280|                                    00 00 00 00|            ....|          value: 0 0x28c-0x28f.7 (4)
0x0290|00 00 00 00                                    |....            |          size: 0 0x290-0x293.7 (4)
0x0290|            12                                 |    .           |          bind: "global" (1) 0x294-0x294.3 (0.4)
0x0290|            12                                 |    .           |          type: "func" (2) 0x294.4-0x294.7 (0.4)
0x0290|               00                              |     .          |          other_unused: 0 0x295-0x295.5 (0.6)
0x0290|               00                              |     .          |          visibility: "default" (0) 0x295.6-0x295.7 (0.2)
0x0290|                  00 00                        |      ..        |          shndx: 0 0x296-0x297.7 (2)
      |                                               |                |        [8]{}: symbol 0x298-0x2a7.7 (16)
0x0290|                        06 00 00 00            |        ....    |          name: "_init" (6) 0x298-0x29b.7 (4)
0x0290|                                    00 10 00 00|            ....|          value: 4096 0x29c-0x29f.7 (4)
0x02a0|01 00 00 00                                    |....            |          size: 1 0x2a0-0x2a3.7 (4)
0x02a0|            12                                 |    .           |          bind: "global" (1) 0x2a4-0x2a4.3 (0.4)
0x02a0|            12                                 |    .           |          type: "func" (2) 0x2a4.4-0x2a4.7 (0.4)
0x02a0|               00                              |     .          |          other_unused: 0 0x2a5-0x2a5.5 (0.6)
0x02a0|               00                              |     .          |          visibility: "default" (0) 0x2a5.6-0x2a5.7 (0.2)
0x02a0|                  08 00                        |      ..        |          shndx: 8 0x2a6-0x2a7.7 (2)
      |                                               |                |        [9]{}: symbol 0x2a8-0x2b7.7 (16)
0x02a0|                        0c 00 00 00            |        ....    |          name: "_fini" (12) 0x2a8-0x2ab.7 (4)
0x02a0|                                    31 13 00 00|            1...|          value: 4913 0x2ac-0x2af.7 (4)
0x02b0|01 00 00 00                                    |....            |          size: 1 0x2b0-0x2b3.7 (4)
0x02b0|            12                                 |    .           |          bind: "global" (1) 0x2b4-0x2b4.3 (0.4)
0x02b0|            12                                 |    .           |          type: "func" (2) 0x2b4.4-0x2b4.7 (0.4)
0x02b0|               00                              |     .          |          other_unused: 0 0x2b5-0x2b5.5 (0.6)
0x02b0|               00                              |     .          |          visibility: "default" (0) 0x2b5.6-0x2b5.7 (0.2)
0x02b0|                  0c 00                        |      ..        |          shndx: 12 0x2b6-0x2b7.7 (2)
0x3d50|                        40 00 00 00            |        @...    |      name: ".dynsym" (64) 0x3d58-0x3d5b.7 (4)
0x3d50|                                    0b 00 00 00|            ....|      type: "dynsym" (0xb) (Dynamic linking symbol table) 0x3d5c-0x3d5f.7 (4)
      |                                               |                |      flags{}: 0x3d60-0x3d63.7 (4)
0x3d60|02                                             |.               |        link_order: false 0x3d60-0x3d60 (0.1)
0x3d60|02                                             |.               |        info_link: false 0x3d60.1-0x3d60.1 (0.1)
0x3d60|02                                             |.               |        strings: false 0x3d60.2-0x3d60.2 (0.1)
0x3d60|02                                             |.               |        merge: false 0x3d60.3-0x3d60.3 (0.1)
0x3d60|02                                             |.               |        unused0: 0 0x3d60.4-0x3d60.4 (0.1)
0x3d60|02                                             |.               |        execinstr: false 0x3d60.5-0x3d60.5 (0.1)
0x3d60|02                                             |.               |        alloc: true 0x3d60.6-0x3d60.6 (0.1)
0x3d60|02                                             |.               |        write: false 0x3d60.7-0x3d60.7 (0.1)
0x3d60|   00                                          | .              |        tls: false 0x3d61-0x3d61 (0.1)
0x3d60|   00                                          | .              |        group: false 0x3d61.1-0x3d61.1 (0.1)
0x3d60|   00                                          | .              |        os_nonconforming: false 0x3d61.2-0x3d61.2 (0.1)
0x3d60|   00 00                                       | ..             |        unused1: 0 0x3d61.3-0x3d62.3 (1.1)
0x3d60|      00 00                                    |  ..            |        os_specific: 0 0x3d62.4-0x3d63.3 (1)
0x3d60|         00                                    |   .            |        processor_specific: 0 0x3d63.4-0x3d63.7 (0.4)
0x3d60|            18 02 00 00                        |    ....        |      addr: 0x218 0x3d64-0x3d67.7 (4)
0x3d60|                        18 02 00 00            |        ....    |      offset: 536 0x3d68-0x3d6b.7 (4)
0x3d60|                                    a0 00 00 00|            ....|      size: 0xa0 0x3d6c-0x3d6f.7 (4)
0x3d70|05 00 00 00                                    |....            |      link: 5 0x3d70-0x3d73.7 (4)
0x3d70|            01 00 00 00                        |    ....        |      info: 1 0x3d74-0x3d77.7 (4)
0x3d70|                        04 00 00 00            |        ....    |      addralign: 4 0x3d78-0x3d7b.7 (4)
0x3d70|                                    10 00 00 00|            ....|      entsize: 16 0x3d7c-0x3d7f.7 (4)
      |                                               |                |    [5]{}: section_header 0x2b8-0x3da7.7 (15088)
0x02b0|                        00 70 75 74 73 00 5f 69|        .puts._i|      string: "\x00puts\x00_init\x00_fini\x00__cxa_finalize\x00__libc_start_main"... 0x2b8-0x36d.7 (182)
0x02c0|6e 69 74 00 5f 66 69 6e 69 00 5f 5f 63 78 61 5f|nit._fini.__cxa_|
*     |until 0x36d.7 (182)                            |                |
0x3d80|48 00 00 00                                    |H...            |      name: ".dynstr" (72) 0x3d80-0x3d83.7 (4)
0x3d80|            03 00 00 00                        |    ....        |      type: "strtab" (0x3) (String table) 0x3d84-0x3d87.7 (4)
      |                                               |                |      flags{}: 0x3d88-0x3d8b.7 (4)
0x3d80|                        02                     |        .       |        link_order: false 0x3d88-0x3d88 (0.1)
0x3d80|                        02                     |        .       |        info_link: false 0x3d88.1-0x3d88.1 (0.1)
0x3d80|                        02                     |        .       |        strings: false 0x3d88.2-0x3d88.2 (0.1)
0x3d80|                        02                     |        .       |        merge: false 0x3d88.3-0x3d88.3 (0.1)
0x3d80|                        02                     |        .       |        unused0: 0 0x3d88.4-0x3d88.4 (0.1)
0x3d80|                        02                     |        .       |        execinstr: false 0x3d88.5-0x3d88.5 (0.1)
0x3d80|                        02                     |        .       |        alloc: true 0x3d88.6-0x3d88.6 (0.1)
0x3d80|                        02                     |        .       |        write: false 0x3d88.7-0x3d88.7 (0.1)
0x3d80|                           00                  |         .      |        tls: false 0x3d89-0x3d89 (0.1)
0x3d80|                           00                  |         .      |        group: false 0x3d89.1-0x3d89.1 (0.1)
0x3d80|                           00                  |         .      |        os_nonconforming: false 0x3d89.2-0x3d89.2 (0.1)
0x3d80|                           00 00               |         ..     |        unused1: 0 0x3d89.3-0x3d8a.3 (1.1)
0x3d80|                              00 00            |          ..    |        os_specific: 0 0x3d8a.4-0x3d8b.3 (1)
0x3d80|                                 00            |           .    |        processor_specific: 0 0x3d8b.4-0x3d8b.7 (0.4)
0x3d80|                                    b8 02 00 00|            ....|      addr: 0x2b8 0x3d8c-0x3d8f.7 (4)
0x3d90|b8 02 00 00                                    |....            |      offset: 696 0x3d90-0x3d93.7 (4)
0x3d90|            b6 00 00 00                        |    ....        |      size: 0xb6 0x3d94-0x3d97.7 (4)
0x3d90|                        00 00 00 00            |        ....    |      link: 0 0x3d98-0x3d9b.7 (4)
0x3d90|                                    00 00 00 00|            ....|      info: 0 0x3d9c-0x3d9f.7 (4)
0x3da0|01 00 00 00                                    |....            |      addralign: 1 0x3da0-0x3da3.7 (4)
0x3da0|            00 00 00 00                        |    ....        |      entsize: 0 0x3da4-0x3da7.7 (4)
      |                                               |                |    [6]{}: section_header 0x370-0x3dcf.7 (14944)
0x0370|e4 3f 00 00 08 00 00 00 f8 3f 00 00 08 00 00 00|.?.......?......|      data: raw bits 0x370-0x3b7.7 (72)
*     |until 0x3b7.7 (72)                             |                |
0x3da0|                        50 00 00 00            |        P...    |      name: ".rel.dyn" (80) 0x3da8-0x3dab.7 (4)
0x3da0|                                    09 00 00 00|            ....|      type: "rel" (0x9) (Relocation entries without explicit addends) 0x3dac-0x3daf.7 (4)
      |                                               |                |      flags{}: 0x3db0-0x3db3.7 (4)
0x3db0|02                                             |.               |        link_order: false 0x3db0-0x3db0 (0.1)
0x3db0|02                                             |.               |        info_link: false 0x3db0.1-0x3db0.1 (0.1)
0x3db0|02                                             |.               |        strings: false 0x3db0.2-0x3db0.2 (0.1)
0x3db0|02                                             |.               |        merge: false 0x3db0.3-0x3db0.3 (0.1)
0x3db0|02                                             |.               |        unused0: 0 0x3db0.4-0x3db0.4 (0.1)
0x3db0|02                                             |.               |        execinstr: false 0x3db0.5-0x3db0.5 (0.1)
0x3db0|02                                             |.               |        alloc: true 0x3db0.6-0x3db0.6 (0.1)
0x3db0|02                                             |.               |        write: false 0x3db0.7-0x3db0.7 (0.1)
0x3db0|   00                                          | .              |        tls: false 0x3db1-0x3db1 (0.1)
0x3db0|   00                                          | .              |        group: false 0x3db1.1-0x3db1.1 (0.1)
0x3db0|   00                                          | .              |        os_nonconforming: false 0x3db1.2-0x3db1.2 (0.1)
0x3db0|   00 00                                       | ..             |        unused1: 0 0x3db1.3-0x3db2.3 (1.1)
0x3db0|      00 00                                    |  ..            |        os_specific: 0 0x3db2.4-0x3db3.3 (1)
0x3db0|         00                                    |   .            |        processor_specific: 0 0x3db3.4-0x3db3.7 (0.4)
0x3db0|            70 03 00 00                        |    p...        |      addr: 0x370 0x3db4-0x3db7.7 (4)
0x3db0|                        70 03 00 00            |        p...    |      offset: 880 0x3db8-0x3dbb.7 (4)
0x3db0|                                    48 00 00 00|            H...|      size: 0x48 0x3dbc-0x3dbf.7 (4)
0x3dc0|04 00 00 00                                    |....            |      link: 4 0x3dc0-0x3dc3.7 (4)
0x3dc0|            00 00 00 00                        |    ....        |      info: 0 0x3dc4-0x3dc7.7 (4)
0x3dc0|                        04 00 00 00            |        ....    |      addralign: 4 0x3dc8-0x3dcb.7 (4)
0x3dc0|                                    08 00 00 00|            ....|      entsize: 8 0x3dcc-0x3dcf.7 (4)
      |                                               |                |    [7]{}: section_header 0x3b8-0x3df7.7 (14912)
0x03b0|                        d8 3f 00 00 07 01 00 00|        .?......|      data: raw bits 0x3b8-0x3c7.7 (16)
0x03c0|dc 3f 00 00 07 07 00 00                        |.?......        |
0x3dd0|59 00 00 00                                    |Y...            |      name: ".rel.plt" (89) 0x3dd0-0x3dd3.7 (4)
0x3dd0|            09 00 00 00                        |    ....        |      type: "rel" (0x9) (Relocation entries without explicit addends) 0x3dd4-0x3dd7.7 (4)
      |                                               |                |      flags{}: 0x3dd8-0x3ddb.7 (4)
0x3dd0|                        42                     |        B       |        link_order: false 0x3dd8-0x3dd8 (0.1)
0x3dd0|                        42                     |        B       |        info_link: true 0x3dd8.1-0x3dd8.1 (0.1)
0x3dd0|                        42                     |        B       |        strings: false 0x3dd8.2-0x3dd8.2 (0.1)
0x3dd0|                        42                     |        B       |        merge: false 0x3dd8.3-0x3dd8.3 (0.1)
0x3dd0|                        42                     |        B       |        unused0: 0 0x3dd8.4-0x3dd8.4 (0.1)
0x3dd0|                        42                     |        B       |        execinstr: false 0x3dd8.5-0x3dd8.5 (0.1)
0x3dd0|                        42                     |        B       |        alloc: true 0x3dd8.6-0x3dd8.6 (0.1)
0x3dd0|                        42                     |        B       |        write: false 0x3dd8.7-0x3dd8.7 (0.1)
0x3dd0|                           00                  |         .      |        tls: false 0x3dd9-0x3dd9 (0.1)
0x3dd0|                           00                  |         .      |        group: false 0x3dd9.1-0x3dd9.1 (0.1)
0x3dd0|                           00                  |         .      |        os_nonconforming: false 0x3dd9.2-0x3dd9.2 (0.1)
0x3dd0|                           00 00               |         ..     |        unused1: 0 0x3dd9.3-0x3dda.3 (1.1)
0x3dd0|                              00 00            |          ..    |        os_specific: 0 0x3dda.4-0x3ddb.3 (1)
0x3dd0|                                 00            |           .    |        processor_specific: 0 0x3ddb.4-0x3ddb.7 (0.4)
0x3dd0|                                    b8 03 00 00|            ....|      addr: 0x3b8 0x3ddc-0x3ddf.7 (4)
0x3de0|b8 03 00 00                                    |....            |      offset: 952 0x3de0-0x3de3.7 (4)
0x3de0|            10 00 00 00                        |    ....        |      size: 0x10 0x3de4-0x3de7.7 (4)
0x3de0|                        04 00 00 00            |        ....    |      link: 4 0x3de8-0x3deb.7 (4)
0x3de0|                                    13 00 00 00|            ....|      info: 19 0x3dec-0x3def.7 (4)
0x3df0|04 00 00 00                                    |....            |      addralign: 4 0x3df0-0x3df3.7 (4)
0x3df0|            08 00 00 00                        |    ....        |      entsize: 8 0x3df4-0x3df7.7 (4)
      |                                               |                |    [8]{}: section_header 0x1000-0x3e1f.7 (11808)
0x1000|83 ec 0c e8 08 02 00 00 e8 e3 02 00 00 83 c4 0c|................|      data: raw bits 0x1000-0x1010.7 (17)
0x1010|c3                                             |.               |
0x3df0|                        62 00 00 00            |        b...    |      name: ".init" (98) 0x3df8-0x3dfb.7 (4)
0x3df0|                                    01 00 00 00|            ....|      type: "progbits" (0x1) (Information defined by the program) 0x3dfc-0x3dff.7 (4)
      |                                               |                |      flags{}: 0x3e00-0x3e03.7 (4)
0x3e00|06                                             |.               |        link_order: false 0x3e00-0x3e00 (0.1)
0x3e00|06                                             |.               |        info_link: false 0x3e00.1-0x3e00.1 (0.1)
0x3e00|06                                             |.               |        strings: false 0x3e00.2-0x3e00.2 (0.1)
0x3e00|06                                             |.               |        merge: false 0x3e00.3-0x3e00.3 (0.1)
0x3e00|06                                             |.               |        unused0: 0 0x3e00.4-0x3e00.4 (0.1)
0x3e00|06                                             |.               |        execinstr: true 0x3e00.5-0x3e00.5 (0.1)
0x3e00|06                                             |.               |        alloc: true 0x3e00.6-0x3e00.6 (0.1)
0x3e00|06                                             |.               |        write: false 0x3e00.7-0x3e00.7 (0.1)
0x3e00|   00                                          | .              |        tls: false 0x3e01-0x3e01 (0.1)
0x3e00|   00                                          | .              |        group: false 0x3e01.1-0x3e01.1 (0.1)
0x3e00|   00                                          | .              |        os_nonconforming: false 0x3e01.2-0x3e01.2 (0.1)
0x3e00|   00 00                                       | ..             |        unused1: 0 0x3e01.3-0x3e02.3 (1.1)
0x3e00|      00 00                                    |  ..            |        os_specific: 0 0x3e02.4-0x3e03.3 (1)
0x3e00|         00                                    |   .            |        processor_specific: 0 0x3e03.4-0x3e03.7 (0.4)
0x3e00|            00 10 00 00                        |    ....        |      addr: 0x1000 0x3e04-0x3e07.7 (4)
0x3e00|                        00 10 00 00            |        ....    |      offset: 4096 0x3e08-0x3e0b.7 (4)
0x3e00|                                    11 00 00 00|            ....|      size: 0x11 0x3e0c-0x3e0f.7 (4)
0x3e10|00 00 00 00                                    |....            |      link: 0 0x3e10-0x3e13.7 (4)
0x3e10|            00 00 00 00                        |    ....        |      info: 0 0x3e14-0x3e17.7 (4)
0x3e10|                        01 00 00 00            |        ....    |      addralign: 1 0x3e18-0x3e1b.7 (4)
0x3e10|                                    00 00 00 00|            ....|      entsize: 0 0x3e1c-0x3e1f.7 (4)
      |                                               |                |    [9]{}: section_header 0x1020-0x3e47.7 (11816)
0x1020|ff b3 04 00 00 00 ff a3 08 00 00 00 00 00 00 00|................|      data: raw bits 0x1020-0x104f.7 (48)
*     |until 0x104f.7 (48)                            |                |
0x3e20|5d 00 00 00                                    |]...            |      name: ".plt" (93) 0x3e20-0x3e23.7 (4)
0x3e20|            01 00 00 00                        |    ....        |      type: "progbits" (0x1) (Information defined by the program) 0x3e24-0x3e27.7 (4)
      |                                               |                |      flags{}: 0x3e28-0x3e2b.7 (4)
0x3e20|                        06                     |        .       |        link_order: false 0x3e28-0x3e28 (0.1)
0x3e20|                        06                     |        .       |        info_link: false 0x3e28.1-0x3e28.1 (0.1)
0x3e20|                        06                     |        .       |        strings: false 0x3e28.2-0x3e28.2 (0.1)
0x3e20|                        06                     |        .       |        merge: false 0x3e28.3-0x3e28.3 (0.1)
0x3e20|                        06                     |        .       |        unused0: 0 0x3e28.4-0x3e28.4 (0.1)
0x3e20|                        06                     |        .       |        execinstr: true 0x3e28.5-0x3e28.5 (0.1)
0x3e20|                        06                     |        .       |        alloc: true 0x3e28.6-0x3e28.6 (0.1)
0x3e20|                        06                     |        .       |        write: false 0x3e28.7-0x3e28.7 (0.1)
0x3e20|                           00                  |         .      |        tls: false 0x3e29-0x3e29 (0.1)
0x3e20|                           00                  |         .      |        group: false 0x3e29.1-0x3e29.1 (0.1)
0x3e20|                           00                  |         .      |        os_nonconforming: false 0x3e29.2-0x3e29.2 (0.1)
0x3e20|                           00 00               |         ..     |        unused1: 0 0x3e29.3-0x3e2a.3 (1.1)
0x3e20|                              00 00            |          ..    |        os_specific: 0 0x3e2a.4-0x3e2b.3 (1)
0x3e20|                                 00            |           .    |        processor_specific: 0 0x3e2b.4-0x3e2b.7 (0.4)
0x3e20|                                    20 10 00 00|             ...|      addr: 0x1020 0x3e2c-0x3e2f.7 (4)
0x3e30|20 10 00 00                                    | ...            |      offset: 4128 0x3e30-0x3e33.7 (4)
0x3e30|            30 00 00 00                        |    0...        |      size: 0x30 0x3e34-0x3e37.7 (4)
0x3e30|                        00 00 00 00            |        ....    |      link: 0 0x3e38-0x3e3b.7 (4)
0x3e30|                                    00 00 00 00|            ....|      info: 0 0x3e3c-0x3e3f.7 (4)
0x3e40|10 00 00 00                                    |....            |      addralign: 16 0x3e40-0x3e43.7 (4)
0x3e40|            04 00 00 00                        |    ....        |      entsize: 4 0x3e44-0x3e47.7 (4)
      |                                               |                |    [10]{}: section_header 0x1050-0x3e6f.7 (11808)
0x1050|ff a3 14 00 00 00 66 90 ff a3 1c 00 00 00 66 90|......f.......f.|      data: raw bits 0x1050-0x1067.7 (24)
0x1060|ff a3 24 00 00 00 66 90                        |..$...f.        |
0x3e40|                        68 00 00 00            |        h...    |      name: ".plt.got" (104) 0x3e48-0x3e4b.7 (4)
0x3e40|                                    01 00 00 00|            ....|      type: "progbits" (0x1) (Information defined by the program) 0x3e4c-0x3e4f.7 (4)
      |                                               |                |      flags{}: 0x3e50-0x3e53.7 (4)
0x3e50|06                                             |.               |        link_order: false 0x3e50-0x3e50 (0.1)
0x3e50|06                                             |.               |        info_link: false 0x3e50.1-0x3e50.1 (0.1)
0x3e50|06                                             |.               |        strings: false 0x3e50.2-0x3e50.2 (0.1)
0x3e50|06                                             |.               |        merge: false 0x3e50.3-0x3e50.3 (0.1)
0x3e50|06                                             |.               |        unused0: 0 0x3e50.4-0x3e50.4 (0.1)
0x3e50|06                                             |.               |        execinstr: true 0x3e50.5-0x3e50.5 (0.1)
0x3e50|06                                             |.               |        alloc: true 0x3e50.6-0x3e50.6 (0.1)
0x3e50|06                                             |.               |        write: false 0x3e50.7-0x3e50.7 (0.1)
0x3e50|   00                                          | .              |        tls: false 0x3e51-0x3e51 (0.1)
0x3e50|   00                                          | .              |        group: false 0x3e51.1-0x3e51.1 (0.1)
0x3e50|   00                                          | .              |        os_nonconforming: false 0x3e51.2-0x3e51.2 (0.1)
0x3e50|   00 00                                       | ..             |        unused1: 0 0x3e51.3-0x3e52.3 (1.1)
0x3e50|      00 00                                    |  ..            |        os_specific: 0 0x3e52.4-0x3e53.3 (1)
0x3e50|         00                                    |   .            |        processor_specific: 0 0x3e53.4-0x3e53.7 (0.4)
0x3e50|            50 10 00 00                        |    P...        |      addr: 0x1050 0x3e54-0x3e57.7 (4)
0x3e50|                        50 10 00 00            |        P...    |      offset: 4176 0x3e58-0x3e5b.7 (4)
0x3e50|                                    18 00 00 00|            ....|      size: 0x18 0x3e5c-0x3e5f.7 (4)
0x3e60|00 00 00 00                                    |....            |      link: 0 0x3e60-0x3e63.7 (4)
0x3e60|            00 00 00 00                        |    ....        |      info: 0 0x3e64-0x3e67.7 (4)
0x3e60|                        08 00 00 00            |        ....    |      addralign: 8 0x3e68-0x3e6b.7 (4)
0x3e60|                                    08 00 00 00|            ....|      entsize: 8 0x3e6c-0x3e6f.7 (4)
      |                                               |                |    [11]{}: section_header 0x1070-0x3e97.7 (11816)
0x1070|31 ed 89 e0 83 e4 f0 50 50 e8 00 00 00 00 81 04|1......PP.......|      data: raw bits 0x1070-0x1330.7 (705)
*     |until 0x1330.7 (705)                           |                |
0x3e70|71 00 00 00                                    |q...            |      name: ".text" (113) 0x3e70-0x3e73.7 (4)
0x3e70|            01 00 00 00                        |    ....        |      type: "progbits" (0x1) (Information defined by the program) 0x3e74-0x3e77.7 (4)
      |                                               |                |      flags{}: 0x3e78-0x3e7b.7 (4)
0x3e70|                        06                     |        .       |        link_order: false 0x3e78-0x3e78 (0.1)
0x3e70|                        06                     |        .       |        info_link: false 0x3e78.1-0x3e78.1 (0.1)
0x3e70|                        06                     |        .       |        strings: false 0x3e78.2-0x3e78.2 (0.1)
0x3e70|                        06                     |        .       |        merge: false 0x3e78.3-0x3e78.3 (0.1)
0x3e70|                        06                     |        .       |        unused0: 0 0x3e78.4-0x3e78.4 (0.1)
0x3e70|                        06                     |        .       |        execinstr: true 0x3e78.5-0x3e78.5 (0.1)
0x3e70|                        06                     |        .       |        alloc: true 0x3e78.6-0x3e78.6 (0.1)
0x3e70|                        06                     |        .       |        write: false 0x3e78.7-0x3e78.7 (0.1)
0x3e70|                           00                  |         .      |        tls: false 0x3e79-0x3e79 (0.1)
0x3e70|                           00                  |         .      |        group: false 0x3e79.1-0x3e79.1 (0.1)
0x3e70|                           00                  |         .      |        os_nonconforming: false 0x3e79.2-0x3e79.2 (0.1)
0x3e70|                           00 00               |         ..     |        unused1: 0 0x3e79.3-0x3e7a.3 (1.1)
0x3e70|                              00 00            |          ..    |        os_specific: 0 0x3e7a.4-0x3e7b.3 (1)
0x3e70|                                 00            |           .    |        processor_specific: 0 0x3e7b.4-0x3e7b.7 (0.4)
0x3e70|                                    70 10 00 00|            p...|      addr: 0x1070 0x3e7c-0x3e7f.7 (4)
0x3e80|70 10 00 00                                    |p...            |      offset: 4208 0x3e80-0x3e83.7 (4)
0x3e80|            c1 02 00 00                        |    ....        |      size: 0x2c1 0x3e84-0x3e87.7 (4)
0x3e80|                        00 00 00 00            |        ....    |      link: 0 0x3e88-0x3e8b.7 (4)
0x3e80|                                    00 00 00 00|            ....|      info: 0 0x3e8c-0x3e8f.7 (4)
0x3e90|10 00 00 00                                    |....            |      addralign: 16 0x3e90-0x3e93.7 (4)
0x3e90|            00 00 00 00                        |    ....        |      entsize: 0 0x3e94-0x3e97.7 (4)
      |                                               |                |    [12]{}: section_header 0x1331-0x3ebf.7 (11151)
0x1330|   83 ec 0c e8 27 fe ff ff 83 c4 0c c3         | ....'.......   |      data: raw bits 0x1331-0x133c.7 (12)
0x3e90|                        77 00 00 00            |        w...    |      name: ".fini" (119) 0x3e98-0x3e9b.7 (4)
0x3e90|                                    01 00 00 00|            ....|      type: "progbits" (0x1) (Information defined by the program) 0x3e9c-0x3e9f.7 (4)
      |                                               |                |      flags{}: 0x3ea0-0x3ea3.7 (4)
0x3ea0|06                                             |.               |        link_order: false 0x3ea0-0x3ea0 (0.1)
0x3ea0|06                                             |.               |        info_link: false 0x3ea0.1-0x3ea0.1 (0.1)
0x3ea0|06                                             |.               |        strings: false 0x3ea0.2-0x3ea0.2 (0.1)
0x3ea0|06                                             |.               |        merge: false 0x3ea0.3-0x3ea0.3 (0.1)
0x3ea0|06                                             |.               |        unused0: 0 0x3ea0.4-0x3ea0.4 (0.1)
0x3ea0|06                                             |.               |        execinstr: true 0x3ea0.5-0x3ea0.5 (0.1)
0x3ea0|06                                             |.               |        alloc: true 0x3ea0.6-0x3ea0.6 (0.1)
0x3ea0|06                                             |.               |        write: false 0x3ea0.7-0x3ea0.7 (0.1)
0x3ea0|   00                                          | .              |        tls: false 0x3ea1-0x3ea1 (0.1)
0x3ea0|   00                                          | .              |        group: false 0x3ea1.1-0x3ea1.1 (0.1)
0x3ea0|   00                                          | .              |        os_nonconforming: false 0x3ea1.2-0x3ea1.2 (0.1)
0x3ea0|   00 00                                       | ..             |        unused1: 0 0x3ea1.3-0x3ea2.3 (1.1)
0x3ea0|      00 00                                    |  ..            |        os_specific: 0 0x3ea2.4-0x3ea3.3 (1)
0x3ea0|         00                                    |   .            |        processor_specific: 0 0x3ea3.4-0x3ea3.7 (0.4)
0x3ea0|            31 13 00 00                        |    1...        |      addr: 0x1331 0x3ea4-0x3ea7.7 (4)
0x3ea0|                        31 13 00 00            |        1...    |      offset: 4913 0x3ea8-0x3eab.7 (4)
0x3ea0|                                    0c 00 00 00|            ....|      size: 0xc 0x3eac-0x3eaf.7 (4)
0x3eb0|00 00 00 00                                    |....            |      link: 0 0x3eb0-0x3eb3.7 (4)
0x3eb0|            00 00 00 00                        |    ....        |      info: 0 0x3eb4-0x3eb7.7 (4)
0x3eb0|                        01 00 00 00            |        ....    |      addralign: 1 0x3eb8-0x3ebb.7 (4)
0x3eb0|                                    00 00 00 00|            ....|      entsize: 0 0x3ebc-0x3ebf.7 (4)
      |                                               |                |    [13]{}: section_header 0x2000-0x3ee7.7 (7912)
0x2000|61 61 61 00 6c 69 62 62 62 62 5f 62 62 62 00   |aaa.libbbb_bbb. |      data: raw bits 0x2000-0x200e.7 (15)
0x3ec0|7d 00 00 00                                    |}...            |      name: ".rodata" (125) 0x3ec0-0x3ec3.7 (4)
0x3ec0|            01 00 00 00                        |    ....        |      type: "progbits" (0x1) (Information defined by the program) 0x3ec4-0x3ec7.7 (4)
      |                                               |                |      flags{}: 0x3ec8-0x3ecb.7 (4)
0x3ec0|                        02                     |        .       |        link_order: false 0x3ec8-0x3ec8 (0.1)
0x3ec0|                        02                     |        .       |        info_link: false 0x3ec8.1-0x3ec8.1 (0.1)
0x3ec0|                        02                     |        .       |        strings: false 0x3ec8.2-0x3ec8.2 (0.1)
0x3ec0|                        02                     |        .       |        merge: false 0x3ec8.3-0x3ec8.3 (0.1)
0x3ec0|                        02                     |        .       |        unused0: 0 0x3ec8.4-0x3ec8.4 (0.1)
0x3ec0|                        02                     |        .       |        execinstr: false 0x3ec8.5-0x3ec8.5 (0.1)
0x3ec0|                        02                     |        .       |        alloc: true 0x3ec8.6-0x3ec8.6 (0.1)
0x3ec0|                        02                     |        .       |        write: false 0x3ec8.7-0x3ec8.7 (0.1)
0x3ec0|                           00                  |         .      |        tls: false 0x3ec9-0x3ec9 (0.1)
0x3ec0|                           00                  |         .      |        group: false 0x3ec9.1-0x3ec9.1 (0.1)
0x3ec0|                           00                  |         .      |        os_nonconforming: false 0x3ec9.2-0x3ec9.2 (0.1)
0x3ec0|                           00 00               |         ..     |        unused1: 0 0x3ec9.3-0x3eca.3 (1.1)
0x3ec0|                              00 00            |          ..    |        os_specific: 0 0x3eca.4-0x3ecb.3 (1)
0x3ec0|                                 00            |           .    |        processor_specific: 0 0x3ecb.4-0x3ecb.7 (0.4)
0x3ec0|                                    00 20 00 00|            . ..|      addr: 0x2000 0x3ecc-0x3ecf.7 (4)
0x3ed0|00 20 00 00                                    |. ..            |      offset: 8192 0x3ed0-0x3ed3.7 (4)
0x3ed0|            0f 00 00 00                        |    ....        |      size: 0xf 0x3ed4-0x3ed7.7 (4)
0x3ed0|                        00 00 00 00            |        ....    |      link: 0 0x3ed8-0x3edb.7 (4)
0x3ed0|                                    00 00 00 00|            ....|      info: 0 0x3edc-0x3edf.7 (4)
0x3ee0|01 00 00 00                                    |....            |      addralign: 1 0x3ee0-0x3ee3.7 (4)
0x3ee0|            00 00 00 00                        |    ....        |      entsize: 0 0x3ee4-0x3ee7.7 (4)
      |                                               |                |    [14]{}: section_header 0x2010-0x3f0f.7 (7936)
0x2010|01 1b 03 3b 38 00 00 00 06 00 00 00 10 f0 ff ff|...;8...........|      data: raw bits 0x2010-0x204b.7 (60)
*     |until 0x204b.7 (60)                            |                |
0x3ee0|                        85 00 00 00            |        ....    |      name: ".eh_frame_hdr" (133) 0x3ee8-0x3eeb.7 (4)
0x3ee0|                                    01 00 00 00|            ....|      type: "progbits" (0x1) (Information defined by the program) 0x3eec-0x3eef.7 (4)
      |                                               |                |      flags{}: 0x3ef0-0x3ef3.7 (4)
0x3ef0|02                                             |.               |        link_order: false 0x3ef0-0x3ef0 (0.1)
0x3ef0|02                                             |.               |        info_link: false 0x3ef0.1-0x3ef0.1 (0.1)
0x3ef0|02                                             |.               |        strings: false 0x3ef0.2-0x3ef0.2 (0.1)
0x3ef0|02                                             |.               |        merge: false 0x3ef0.3-0x3ef0.3 (0.1)
0x3ef0|02                                             |.               |        unused0: 0 0x3ef0.4-0x3ef0.4 (0.1)
0x3ef0|02                                             |.               |        execinstr: false 0x3ef0.5-0x3ef0.5 (0.1)
0x3ef0|02                                             |.               |        alloc: true 0x3ef0.6-0x3ef0.6 (0.1)
0x3ef0|02                                             |.               |        write: false 0x3ef0.7-0x3ef0.7 (0.1)
0x3ef0|   00                                          | .              |        tls: false 0x3ef1-0x3ef1 (0.1)
0x3ef0|   00                                          | .              |        group: false 0x3ef1.1-0x3ef1.1 (0.1)
0x3ef0|   00                                          | .              |        os_nonconforming: false 0x3ef1.2-0x3ef1.2 (0.1)
0x3ef0|   00 00                                       | ..             |        unused1: 0 0x3ef1.3-0x3ef2.3 (1.1)
0x3ef0|      00 00                                    |  ..            |        os_specific: 0 0x3ef2.4-0x3ef3.3 (1)
0x3ef0|         00                                    |   .            |        processor_specific: 0 0x3ef3.4-0x3ef3.7 (0.4)
0x3ef0|            10 20 00 00                        |    . ..        |      addr: 0x2010 0x3ef4-0x3ef7.7 (4)
0x3ef0|                        10 20 00 00            |        . ..    |      offset: 8208 0x3ef8-0x3efb.7 (4)
0x3ef0|                                    3c 00 00 00|            <...|      size: 0x3c 0x3efc-0x3eff.7 (4)
0x3f00|00 00 00 00                                    |....            |      link: 0 0x3f00-0x3f03.7 (4)
0x3f00|            00 00 00 00                        |    ....        |      info: 0 0x3f04-0x3f07.7 (4)
0x3f00|                        04 00 00 00            |        ....    |      addralign: 4 0x3f08-0x3f0b.7 (4)
0x3f00|                                    00 00 00 00|            ....|      entsize: 0 0x3f0c-0x3f0f.7 (4)
      |                                               |                |    [15]{}: section_header 0x204c-0x3f37.7 (7916)
0x2040|                                    14 00 00 00|            ....|      data: raw bits 0x204c-0x211f.7 (212)
0x2050|00 00 00 00 01 7a 52 00 01 7c 08 01 1b 0c 04 04|.....zR..|......|
*     |until 0x211f.7 (212)                           |                |
0x3f10|93 00 00 00                                    |....            |      name: ".eh_frame" (147) 0x3f10-0x3f13.7 (4)
0x3f10|            01 00 00 00                        |    ....        |      type: "progbits" (0x1) (Information defined by the program) 0x3f14-0x3f17.7 (4)
      |                                               |                |      flags{}: 0x3f18-0x3f1b.7 (4)
0x3f10|                        02                     |        .       |        link_order: false 0x3f18-0x3f18 (0.1)
0x3f10|                        02                     |        .       |        info_link: false 0x3f18.1-0x3f18.1 (0.1)
0x3f10|                        02                     |        .       |        strings: false 0x3f18.2-0x3f18.2 (0.1)
0x3f10|                        02                     |        .       |        merge: false 0x3f18.3-0x3f18.3 (0.1)
0x3f10|                        02                     |        .       |        unused0: 0 0x3f18.4-0x3f18.4 (0.1)
0x3f10|                        02                     |        .       |        execinstr: false 0x3f18.5-0x3f18.5 (0.1)
0x3f10|                        02                     |        .       |        alloc: true 0x3f18.6-0x3f18.6 (0.1)
0x3f10|                        02                     |        .       |        write: false 0x3f18.7-0x3f18.7 (0.1)
0x3f10|                           00                  |         .      |        tls: false 0x3f19-0x3f19 (0.1)
0x3f10|                           00                  |         .      |        group: false 0x3f19.1-0x3f19.1 (0.1)
0x3f10|                           00                  |         .      |        os_nonconforming: false 0x3f19.2-0x3f19.2 (0.1)
0x3f10|                           00 00               |         ..     |        unused1: 0 0x3f19.3-0x3f1a.3 (1.1)
0x3f10|                              00 00            |          ..    |        os_specific: 0 0x3f1a.4-0x3f1b.3 (1)
0x3f10|                                 00            |           .    |        processor_specific: 0 0x3f1b.4-0x3f1b.7 (0.4)
0x3f10|                                    4c 20 00 00|            L ..|      addr: 0x204c 0x3f1c-0x3f1f.7 (4)
0x3f20|4c 20 00 00                                    |L ..            |      offset: 8268 0x3f20-0x3f23.7 (4)
0x3f20|            d4 00 00 00                        |    ....        |      size: 0xd4 0x3f24-0x3f27.7 (4)
0x3f20|                        00 00 00 00            |        ....    |      link: 0 0x3f28-0x3f2b.7 (4)
0x3f20|                                    00 00 00 00|            ....|      info: 0 0x3f2c-0x3f2f.7 (4)
0x3f30|04 00 00 00                                    |....            |      addralign: 4 0x3f30-0x3f33.7 (4)
0x3f30|            00 00 00 00                        |    ....        |      entsize: 0 0x3f34-0x3f37.7 (4)
      |                                               |                |    [16]{}: section_header 0x2efc-0x3f5f.7 (4196)
0x2ef0|                                    ff ff ff ff|            ....|      data: raw bits 0x2efc-0x2f03.7 (8)
0x2f00|00 00 00 00                                    |....            |
0x3f30|                        9d 00 00 00            |        ....    |      name: ".ctors" (157) 0x3f38-0x3f3b.7 (4)
0x3f30|                                    01 00 00 00|            ....|      type: "progbits" (0x1) (Information defined by the program) 0x3f3c-0x3f3f.7 (4)
      |                                               |                |      flags{}: 0x3f40-0x3f43.7 (4)
0x3f40|03                                             |.               |        link_order: false 0x3f40-0x3f40 (0.1)
0x3f40|03                                             |.               |        info_link: false 0x3f40.1-0x3f40.1 (0.1)
0x3f40|03                                             |.               |        strings: false 0x3f40.2-0x3f40.2 (0.1)
0x3f40|03                                             |.               |        merge: false 0x3f40.3-0x3f40.3 (0.1)
0x3f40|03                                             |.               |        unused0: 0 0x3f40.4-0x3f40.4 (0.1)
0x3f40|03                                             |.               |        execinstr: false 0x3f40.5-0x3f40.5 (0.1)
0x3f40|03                                             |.               |        alloc: true 0x3f40.6-0x3f40.6 (0.1)
0x3f40|03                                             |.               |        write: true 0x3f40.7-0x3f40.7 (0.1)
0x3f40|   00                                          | .              |        tls: false 0x3f41-0x3f41 (0.1)
0x3f40|   00                                          | .              |        group: false 0x3f41.1-0x3f41.1 (0.1)
0x3f40|   00                                          | .              |        os_nonconforming: false 0x3f41.2-0x3f41.2 (0.1)
0x3f40|   00 00                                       | ..             |        unused1: 0 0x3f41.3-0x3f42.3 (1.1)
0x3f40|      00 00                                    |  ..            |        os_specific: 0 0x3f42.4-0x3f43.3 (1)
0x3f40|         00                                    |   .            |        processor_specific: 0 0x3f43.4-0x3f43.7 (0.4)
0x3f40|            fc 3e 00 00                        |    .>..        |      addr: 0x3efc 0x3f44-0x3f47.7 (4)
0x3f40|                        fc 2e 00 00            |        ....    |      offset: 12028 0x3f48-0x3f4b.7 (4)
0x3f40|                                    08 00 00 00|            ....|      size: 0x8 0x3f4c-0x3f4f.7 (4)
0x3f50|00 00 00 00                                    |....            |      link: 0 0x3f50-0x3f53.7 (4)
0x3f50|            00 00 00 00                        |    ....        |      info: 0 0x3f54-0x3f57.7 (4)
0x3f50|                        04 00 00 00            |        ....    |      addralign: 4 0x3f58-0x3f5b.7 (4)
0x3f50|                                    00 00 00 00|            ....|      entsize: 0 0x3f5c-0x3f5f.7 (4)
      |                                               |                |    [17]{}: section_header 0x2f04-0x3f87.7 (4228)
0x2f00|            ff ff ff ff 00 00 00 00            |    ........    |      data: raw bits 0x2f04-0x2f0b.7 (8)
0x3f60|a4 00 00 00                                    |....            |      name: ".dtors" (164) 0x3f60-0x3f63.7 (4)
0x3f60|            01 00 00 00                        |    ....        |      type: "progbits" (0x1) (Information defined by the program) 0x3f64-0x3f67.7 (4)
      |                                               |                |      flags{}: 0x3f68-0x3f6b.7 (4)
0x3f60|                        03                     |        .       |        link_order: false 0x3f68-0x3f68 (0.1)
0x3f60|                        03                     |        .       |        info_link: false 0x3f68.1-0x3f68.1 (0.1)
0x3f60|                        03                     |        .       |        strings: false 0x3f68.2-0x3f68.2 (0.1)
0x3f60|                        03                     |        .       |        merge: false 0x3f68.3-0x3f68.3 (0.1)
0x3f60|                        03                     |        .       |        unused0: 0 0x3f68.4-0x3f68.4 (0.1)
0x3f60|                        03                     |        .       |        execinstr: false 0x3f68.5-0x3f68.5 (0.1)
0x3f60|                        03                     |        .       |        alloc: true 0x3f68.6-0x3f68.6 (0.1)
0x3f60|                        03                     |        .       |        write: true 0x3f68.7-0x3f68.7 (0.1)
0x3f60|                           00                  |         .      |        tls: false 0x3f69-0x3f69 (0.1)
0x3f60|                           00                  |         .      |        group: false 0x3f69.1-0x3f69.1 (0.1)
0x3f60|                           00                  |         .      |        os_nonconforming: false 0x3f69.2-0x3f69.2 (0.1)
0x3f60|                           00 00               |         ..     |        unused1: 0 0x3f69.3-0x3f6a.3 (1.1)
0x3f60|                              00 00            |          ..    |        os_specific: 0 0x3f6a.4-0x3f6b.3 (1)
0x3f60|                                 00            |           .    |        processor_specific: 0 0x3f6b.4-0x3f6b.7 (0.4)
0x3f60|                                    04 3f 00 00|            .?..|      addr: 0x3f04 0x3f6c-0x3f6f.7 (4)
0x3f70|04 2f 00 00                                    |./..            |      offset: 12036 0x3f70-0x3f73.7 (4)
0x3f70|            08 00 00 00                        |    ....        |      size: 0x8 0x3f74-0x3f77.7 (4)
0x3f70|                        00 00 00 00            |        ....    |      link: 0 0x3f78-0x3f7b.7 (4)
0x3f70|                                    00 00 00 00|            ....|      info: 0 0x3f7c-0x3f7f.7 (4)
0x3f80|04 00 00 00                                    |....            |      addralign: 4 0x3f80-0x3f83.7 (4)
0x3f80|            00 00 00 00                        |    ....        |      entsize: 0 0x3f84-0x3f87.7 (4)
      |                                               |                |    [18]{}: section_header 0x2f0c-0x3faf.7 (4260)
      |                                               |                |      dynamic_tags[0:20]: 0x2f0c-0x2fab.7 (160)
      |                                               |                |        [0]{}: dynamic_tags 0x2f0c-0x2f13.7 (8)
0x2f00|                                    01 00 00 00|            ....|          tag: "needed" (1) (String table offset to name of a needed library) 0x2f0c-0x2f0f.7 (4)
0x2f10|33 00 00 00                                    |3...            |          val: "libc.musl-x86.so.1" (51) 0x2f10-0x2f13.7 (4)
      |                                               |                |        [1]{}: dynamic_tags 0x2f14-0x2f1b.7 (8)
0x2f10|            0c 00 00 00                        |    ....        |          tag: "init" (12) (Address of the initialization function) 0x2f14-0x2f17.7 (4)
0x2f10|                        00 10 00 00            |        ....    |          ptr: 0x1000 0x2f18-0x2f1b.7 (4)
      |                                               |                |          section_index: 8 0x2f1c-NA (0)
      |                                               |                |        [2]{}: dynamic_tags 0x2f1c-0x2f23.7 (8)
0x2f10|                                    0d 00 00 00|            ....|          tag: "fini" (13) (Address of the termination function) 0x2f1c-0x2f1f.7 (4)
0x2f20|31 13 00 00                                    |1...            |          ptr: 0x1331 0x2f20-0x2f23.7 (4)
      |                                               |                |          section_index: 12 0x2f24-NA (0)
      |                                               |                |        [3]{}: dynamic_tags 0x2f24-0x2f2b.7 (8)
0x2f20|            f5 fe ff 6f                        |    ...o        |          tag: 1879047925 0x2f24-0x2f27.7 (4)
0x2f20|                        f4 01 00 00            |        ....    |          unspecified: 0x1f4 0x2f28-0x2f2b.7 (4)
      |                                               |                |        [4]{}: dynamic_tags 0x2f2c-0x2f33.7 (8)
0x2f20|                                    05 00 00 00|            ....|          tag: "strtab" (5) (Address of string table) 0x2f2c-0x2f2f.7 (4)
0x2f30|b8 02 00 00                                    |....            |          ptr: 0x2b8 0x2f30-0x2f33.7 (4)
      |                                               |                |          section_index: 5 0x2f34-NA (0)
      |                                               |                |        [5]{}: dynamic_tags 0x2f34-0x2f3b.7 (8)
0x2f30|            06 00 00 00                        |    ....        |          tag: "symtab" (6) (Address of symbol table) 0x2f34-0x2f37.7 (4)
0x2f30|                        18 02 00 00            |        ....    |          ptr: 0x218 0x2f38-0x2f3b.7 (4)
      |                                               |                |          section_index: 4 0x2f3c-NA (0)
      |                                               |                |        [6]{}: dynamic_tags 0x2f3c-0x2f43.7 (8)
0x2f30|                                    0a 00 00 00|            ....|          tag: "strsz" (10) (Size in bytes of string table) 0x2f3c-0x2f3f.7 (4)
0x2f40|b6 00 00 00                                    |....            |          val: 182 0x2f40-0x2f43.7 (4)
      |                                               |                |        [7]{}: dynamic_tags 0x2f44-0x2f4b.7 (8)
0x2f40|            0b 00 00 00                        |    ....        |          tag: "syment" (11) (Size in bytes of a symbol table entry) 0x2f44-0x2f47.7 (4)
0x2f40|                        10 00 00 00            |        ....    |          val: 16 0x2f48-0x2f4b.7 (4)
      |                                               |                |        [8]{}: dynamic_tags 0x2f4c-0x2f53.7 (8)
0x2f40|                                    15 00 00 00|            ....|          tag: "debug" (21) (Undefined use for debugging) 0x2f4c-0x2f4f.7 (4)
0x2f50|00 00 00 00                                    |....            |          ptr: 0x0 0x2f50-0x2f53.7 (4)
      |                                               |                |        [9]{}: dynamic_tags 0x2f54-0x2f5b.7 (8)
0x2f50|            03 00 00 00                        |    ....        |          tag: "pltgot" (3) (Address of PLT and/or GOT) 0x2f54-0x2f57.7 (4)
0x2f50|                        cc 3f 00 00            |        .?..    |          ptr: 0x3fcc 0x2f58-0x2f5b.7 (4)
      |                                               |                |          section_index: 19 0x2f5c-NA (0)
      |                                               |                |        [10]{}: dynamic_tags 0x2f5c-0x2f63.7 (8)
0x2f50|                                    02 00 00 00|            ....|          tag: "pltrelsz" (2) (Size in bytes of PLT relocation entries) 0x2f5c-0x2f5f.7 (4)
0x2f60|10 00 00 00                                    |....            |          val: 16 0x2f60-0x2f63.7 (4)
      |                                               |                |        [11]{}: dynamic_tags 0x2f64-0x2f6b.7 (8)
0x2f60|            14 00 00 00                        |    ....        |          tag: "pltrel" (20) (Type of relocation entry to which the PLT refers (Rela or Rel)) 0x2f64-0x2f67.7 (4)
0x2f60|                        11 00 00 00            |        ....    |          val: 17 0x2f68-0x2f6b.7 (4)
      |                                               |                |        [12]{}: dynamic_tags 0x2f6c-0x2f73.7 (8)
0x2f60|                                    17 00 00 00|            ....|          tag: "jmprel" (23) (Address of relocation entries associated solely with the PLT) 0x2f6c-0x2f6f.7 (4)
0x2f70|b8 03 00 00                                    |....            |          ptr: 0x3b8 0x2f70-0x2f73.7 (4)
      |                                               |                |          section_index: 7 0x2f74-NA (0)
      |                                               |                |        [13]{}: dynamic_tags 0x2f74-0x2f7b.7 (8)
0x2f70|            11 00 00 00                        |    ....        |          tag: "rel" (17) 0x2f74-0x2f77.7 (4)
0x2f70|                        70 03 00 00            |        p...    |          ptr: 0x370 0x2f78-0x2f7b.7 (4)
      |                                               |                |        [14]{}: dynamic_tags 0x2f7c-0x2f83.7 (8)
0x2f70|                                    12 00 00 00|            ....|          tag: "relsz" (18) (Size in bytes of Rel relocation table) 0x2f7c-0x2f7f.7 (4)
0x2f80|48 00 00 00                                    |H...            |          val: 72 0x2f80-0x2f83.7 (4)
      |                                               |                |        [15]{}: dynamic_tags 0x2f84-0x2f8b.7 (8)
0x2f80|            13 00 00 00                        |    ....        |          tag: "relent" (19) (Size in bytes of a Rel table entry) 0x2f84-0x2f87.7 (4)
0x2f80|                        08 00 00 00            |        ....    |          val: 8 0x2f88-0x2f8b.7 (4)
      |                                               |                |        [16]{}: dynamic_tags 0x2f8c-0x2f93.7 (8)
0x2f80|                                    18 00 00 00|            ....|          tag: "bind_now" (24) (Instruct dynamic linker to process all relocations before transferring control to the executable) 0x2f8c-0x2f8f.7 (4)
0x2f90|00 00 00 00                                    |....            |          ignored: 0x0 0x2f90-0x2f93.7 (4)
      |                                               |                |        [17]{}: dynamic_tags 0x2f94-0x2f9b.7 (8)
0x2f90|            fb ff ff 6f                        |    ...o        |          tag: 1879048187 0x2f94-0x2f97.7 (4)
0x2f90|                        01 00 00 08            |        ....    |          unspecified: 0x8000001 0x2f98-0x2f9b.7 (4)
      |                                               |                |        [18]{}: dynamic_tags 0x2f9c-0x2fa3.7 (8)
0x2f90|                                    fa ff ff 6f|            ...o|          tag: 1879048186 0x2f9c-0x2f9f.7 (4)
0x2fa0|04 00 00 00                                    |....            |          unspecified: 0x4 0x2fa0-0x2fa3.7 (4)
      |                                               |                |        [19]{}: dynamic_tags 0x2fa4-0x2fab.7 (8)
0x2fa0|            00 00 00 00                        |    ....        |          tag: "null" (0) (Marks end of dynamic section) 0x2fa4-0x2fa7.7 (4)
0x2fa0|                        00 00 00 00            |        ....    |          ignored: 0x0 0x2fa8-0x2fab.7 (4)
0x3f80|                        ab 00 00 00            |        ....    |      name: ".dynamic" (171) 0x3f88-0x3f8b.7 (4)
0x3f80|                                    06 00 00 00|            ....|      type: "dynamic" (0x6) (Information for dynamic linking) 0x3f8c-0x3f8f.7 (4)
      |                                               |                |      flags{}: 0x3f90-0x3f93.7 (4)
0x3f90|03                                             |.               |        link_order: false 0x3f90-0x3f90 (0.1)
0x3f90|03                                             |.               |        info_link: false 0x3f90.1-0x3f90.1 (0.1)
0x3f90|03                                             |.               |        strings: false 0x3f90.2-0x3f90.2 (0.1)
0x3f90|03                                             |.               |        merge: false 0x3f90.3-0x3f90.3 (0.1)
0x3f90|03                                             |.               |        unused0: 0 0x3f90.4-0x3f90.4 (0.1)
0x3f90|03                                             |.               |        execinstr: false 0x3f90.5-0x3f90.5 (0.1)
0x3f90|03                                             |.               |        alloc: true 0x3f90.6-0x3f90.6 (0.1)
0x3f90|03                                             |.               |        write: true 0x3f90.7-0x3f90.7 (0.1)
0x3f90|   00                                          | .              |        tls: false 0x3f91-0x3f91 (0.1)
0x3f90|   00                                          | .              |        group: false 0x3f91.1-0x3f91.1 (0.1)
0x3f90|   00                                          | .              |        os_nonconforming: false 0x3f91.2-0x3f91.2 (0.1)
0x3f90|   00 00                                       | ..             |        unused1: 0 0x3f91.3-0x3f92.3 (1.1)
0x3f90|      00 00                                    |  ..            |        os_specific: 0 0x3f92.4-0x3f93.3 (1)
0x3f90|         00                                    |   .            |        processor_specific: 0 0x3f93.4-0x3f93.7 (0.4)
0x3f90|            0c 3f 00 00                        |    .?..        |      addr: 0x3f0c 0x3f94-0x3f97.7 (4)
0x3f90|                        0c 2f 00 00            |        ./..    |      offset: 12044 0x3f98-0x3f9b.7 (4)
0x3f90|                                    c0 00 00 00|            ....|      size: 0xc0 0x3f9c-0x3f9f.7 (4)
0x3fa0|05 00 00 00                                    |....            |      link: 5 0x3fa0-0x3fa3.7 (4)
0x3fa0|            00 00 00 00                        |    ....        |      info: 0 0x3fa4-0x3fa7.7 (4)
0x3fa0|                        04 00 00 00            |        ....    |      addralign: 4 0x3fa8-0x3fab.7 (4)
0x3fa0|                                    08 00 00 00|            ....|      entsize: 8 0x3fac-0x3faf.7 (4)
      |                                               |                |    [19]{}: section_header 0x2fcc-0x3fd7.7 (4108)
0x2fc0|                                    0c 3f 00 00|            .?..|      data: raw bits 0x2fcc-0x2fff.7 (52)
0x2fd0|00 00 00 00 00 00 00 00 36 10 00 00 46 10 00 00|........6...F...|
*     |until 0x2fff.7 (52)                            |                |
0x3fb0|6c 00 00 00                                    |l...            |      name: ".got" (108) 0x3fb0-0x3fb3.7 (4)
0x3fb0|            01 00 00 00                        |    ....        |      type: "progbits" (0x1) (Information defined by the program) 0x3fb4-0x3fb7.7 (4)
      |                                               |                |      flags{}: 0x3fb8-0x3fbb.7 (4)
0x3fb0|                        03                     |        .       |        link_order: false 0x3fb8-0x3fb8 (0.1)
0x3fb0|                        03                     |        .       |        info_link: false 0x3fb8.1-0x3fb8.1 (0.1)
0x3fb0|                        03                     |        .       |        strings: false 0x3fb8.2-0x3fb8.2 (0.1)
0x3fb0|                        03                     |        .       |        merge: false 0x3fb8.3-0x3fb8.3 (0.1)
0x3fb0|                        03                     |        .       |        unused0: 0 0x3fb8.4-0x3fb8.4 (0.1)
0x3fb0|                        03                     |        .       |        execinstr: false 0x3fb8.5-0x3fb8.5 (0.1)
0x3fb0|                        03                     |        .       |        alloc: true 0x3fb8.6-0x3fb8.6 (0.1)
0x3fb0|                        03                     |        .       |        write: true 0x3fb8.7-0x3fb8.7 (0.1)
0x3fb0|                           00                  |         .      |        tls: false 0x3fb9-0x3fb9 (0.1)
0x3fb0|                           00                  |         .      |        group: false 0x3fb9.1-0x3fb9.1 (0.1)
0x3fb0|                           00                  |         .      |        os_nonconforming: false 0x3fb9.2-0x3fb9.2 (0.1)
0x3fb0|                           00 00               |         ..     |        unused1: 0 0x3fb9.3-0x3fba.3 (1.1)
0x3fb0|                              00 00            |          ..    |        os_specific: 0 0x3fba.4-0x3fbb.3 (1)
0x3fb0|                                 00            |           .    |        processor_specific: 0 0x3fbb.4-0x3fbb.7 (0.4)
0x3fb0|                                    cc 3f 00 00|            .?..|      addr: 0x3fcc 0x3fbc-0x3fbf.7 (4)
0x3fc0|cc 2f 00 00                                    |./..            |      offset: 12236 0x3fc0-0x3fc3.7 (4)
0x3fc0|            34 00 00 00                        |    4...        |      size: 0x34 0x3fc4-0x3fc7.7 (4)
0x3fc0|                        00 00 00 00            |        ....    |      link: 0 0x3fc8-0x3fcb.7 (4)
0x3fc0|                                    00 00 00 00|            ....|      info: 0 0x3fcc-0x3fcf.7 (4)
0x3fd0|04 00 00 00                                    |....            |      addralign: 4 0x3fd0-0x3fd3.7 (4)
0x3fd0|            04 00 00 00                        |    ....        |      entsize: 4 0x3fd4-0x3fd7.7 (4)
      |                                               |                |    [20]{}: section_header 0x3000-0x3fff.7 (4096)
0x3000|00 40 00 00                                    |.@..            |      data: raw bits 0x3000-0x3003.7 (4)
0x3fd0|                        b4 00 00 00            |        ....    |      name: ".data" (180) 0x3fd8-0x3fdb.7 (4)
0x3fd0|                                    01 00 00 00|            ....|      type: "progbits" (0x1) (Information defined by the program) 0x3fdc-0x3fdf.7 (4)
      |                                               |                |      flags{}: 0x3fe0-0x3fe3.7 (4)
0x3fe0|03                                             |.               |        link_order: false 0x3fe0-0x3fe0 (0.1)
0x3fe0|03                                             |.               |        info_link: false 0x3fe0.1-0x3fe0.1 (0.1)
0x3fe0|03                                             |.               |        strings: false 0x3fe0.2-0x3fe0.2 (0.1)
0x3fe0|03                                             |.               |        merge: false 0x3fe0.3-0x3fe0.3 (0.1)
0x3fe0|03                                             |.               |        unused0: 0 0x3fe0.4-0x3fe0.4 (0.1)
0x3fe0|03                                             |.               |        execinstr: false 0x3fe0.5-0x3fe0.5 (0.1)
0x3fe0|03                                             |.               |        alloc: true 0x3fe0.6-0x3fe0.6 (0.1)
0x3fe0|03                                             |.               |        write: true 0x3fe0.7-0x3fe0.7 (0.1)
0x3fe0|   00                                          | .              |        tls: false 0x3fe1-0x3fe1 (0.1)
0x3fe0|   00                                          | .              |        group: false 0x3fe1.1-0x3fe1.1 (0.1)
0x3fe0|   00                                          | .              |        os_nonconforming: false 0x3fe1.2-0x3fe1.2 (0.1)
0x3fe0|   00 00                                       | ..             |        unused1: 0 0x3fe1.3-0x3fe2.3 (1.1)
0x3fe0|      00 00                                    |  ..            |        os_specific: 0 0x3fe2.4-0x3fe3.3 (1)
0x3fe0|         00                                    |   .            |        processor_specific: 0 0x3fe3.4-0x3fe3.7 (0.4)
0x3fe0|            00 40 00 00                        |    .@..        |      addr: 0x4000 0x3fe4-0x3fe7.7 (4)
0x3fe0|                        00 30 00 00            |        .0..    |      offset: 12288 0x3fe8-0x3feb.7 (4)
0x3fe0|                                    04 00 00 00|            ....|      size: 0x4 0x3fec-0x3fef.7 (4)
0x3ff0|00 00 00 00                                    |....            |      link: 0 0x3ff0-0x3ff3.7 (4)
0x3ff0|            00 00 00 00                        |    ....        |      info: 0 0x3ff4-0x3ff7.7 (4)
0x3ff0|                        04 00 00 00            |        ....    |      addralign: 4 0x3ff8-0x3ffb.7 (4)
0x3ff0|                                    00 00 00 00|            ....|      entsize: 0 0x3ffc-0x3fff.7 (4)
      |                                               |                |    [21]{}: section_header 0x4000-0x4027.7 (40)
0x4000|ba 00 00 00                                    |....            |      name: ".bss" (186) 0x4000-0x4003.7 (4)
0x4000|            08 00 00 00                        |    ....        |      type: "nobits" (0x8) (No space in the file) 0x4004-0x4007.7 (4)
      |                                               |                |      flags{}: 0x4008-0x400b.7 (4)
0x4000|                        03                     |        .       |        link_order: false 0x4008-0x4008 (0.1)
0x4000|                        03                     |        .       |        info_link: false 0x4008.1-0x4008.1 (0.1)
0x4000|                        03                     |        .       |        strings: false 0x4008.2-0x4008.2 (0.1)
0x4000|                        03                     |        .       |        merge: false 0x4008.3-0x4008.3 (0.1)
0x4000|                        03                     |        .       |        unused0: 0 0x4008.4-0x4008.4 (0.1)
0x4000|                        03                     |        .       |        execinstr: false 0x4008.5-0x4008.5 (0.1)
0x4000|                        03                     |        .       |        alloc: true 0x4008.6-0x4008.6 (0.1)
0x4000|                        03                     |        .       |        write: true 0x4008.7-0x4008.7 (0.1)
0x4000|                           00                  |         .      |        tls: false 0x4009-0x4009 (0.1)
0x4000|                           00                  |         .      |        group: false 0x4009.1-0x4009.1 (0.1)
0x4000|                           00                  |         .      |        os_nonconforming: false 0x4009.2-0x4009.2 (0.1)
0x4000|                           00 00               |         ..     |        unused1: 0 0x4009.3-0x400a.3 (1.1)
0x4000|                              00 00            |          ..    |        os_specific: 0 0x400a.4-0x400b.3 (1)
0x4000|                                 00            |           .    |        processor_specific: 0 0x400b.4-0x400b.7 (0.4)
0x4000|                                    04 40 00 00|            .@..|      addr: 0x4004 0x400c-0x400f.7 (4)
0x4010|04 30 00 00                                    |.0..            |      offset: 12292 0x4010-0x4013.7 (4)
0x4010|            20 00 00 00                        |     ...        |      size: 0x20 0x4014-0x4017.7 (4)
0x4010|                        00 00 00 00            |        ....    |      link: 0 0x4018-0x401b.7 (4)
0x4010|                                    00 00 00 00|            ....|      info: 0 0x401c-0x401f.7 (4)
0x4020|04 00 00 00                                    |....            |      addralign: 4 0x4020-0x4023.7 (4)
0x4020|            00 00 00 00                        |    ....        |      entsize: 0 0x4024-0x4027.7 (4)
      |                                               |                |    [22]{}: section_header 0x3004-0x404f.7 (4172)
0x3000|            47 43 43 3a 20 28 41 6c 70 69 6e 65|    GCC: (Alpine|      data: raw bits 0x3004-0x3065.7 (98)
0x3010|20 31 30 2e 33 2e 31 5f 67 69 74 32 30 32 31 30| 10.3.1_git20210|
*     |until 0x3065.7 (98)                            |                |
0x4020|                        bf 00 00 00            |        ....    |      name: ".comment" (191) 0x4028-0x402b.7 (4)
0x4020|                                    01 00 00 00|            ....|      type: "progbits" (0x1) (Information defined by the program) 0x402c-0x402f.7 (4)
      |                                               |                |      flags{}: 0x4030-0x4033.7 (4)
0x4030|30                                             |0               |        link_order: false 0x4030-0x4030 (0.1)
0x4030|30                                             |0               |        info_link: false 0x4030.1-0x4030.1 (0.1)
0x4030|30                                             |0               |        strings: true 0x4030.2-0x4030.2 (0.1)
0x4030|30                                             |0               |        merge: true 0x4030.3-0x4030.3 (0.1)
0x4030|30                                             |0               |        unused0: 0 0x4030.4-0x4030.4 (0.1)
0x4030|30                                             |0               |        execinstr: false 0x4030.5-0x4030.5 (0.1)
0x4030|30                                             |0               |        alloc: false 0x4030.6-0x4030.6 (0.1)
0x4030|30                                             |0               |        write: false 0x4030.7-0x4030.7 (0.1)
0x4030|   00                                          | .              |        tls: false 0x4031-0x4031 (0.1)
0x4030|   00                                          | .              |        group: false 0x4031.1-0x4031.1 (0.1)
0x4030|   00                                          | .              |        os_nonconforming: false 0x4031.2-0x4031.2 (0.1)
0x4030|   00 00                                       | ..             |        unused1: 0 0x4031.3-0x4032.3 (1.1)
0x4030|      00 00                                    |  ..            |        os_specific: 0 0x4032.4-0x4033.3 (1)
0x4030|         00                                    |   .            |        processor_specific: 0 0x4033.4-0x4033.7 (0.4)
0x4030|            00 00 00 00                        |    ....        |      addr: 0x0 0x4034-0x4037.7 (4)
0x4030|                        04 30 00 00            |        .0..    |      offset: 12292 0x4038-0x403b.7 (4)
0x4030|                                    62 00 00 00|            b...|      size: 0x62 0x403c-0x403f.7 (4)
0x4040|00 00 00 00                                    |....            |      link: 0 0x4040-0x4043.7 (4)
0x4040|            00 00 00 00                        |    ....        |      info: 0 0x4044-0x4047.7 (4)
0x4040|                        01 00 00 00            |        ....    |      addralign: 1 0x4048-0x404b.7 (4)
0x4040|                                    01 00 00 00|            ....|      entsize: 1 0x404c-0x404f.7 (4)
      |                                               |                |    [23]{}: section_header 0x3068-0x4077.7 (4112)
0x3060|                        1c 00 00 00 02 00 00 00|        ........|      data: raw bits 0x3068-0x30d7.7 (112)
0x3070|00 00 04 00 00 00 00 00 8b 10 00 00 37 00 00 00|............7...|
*     |until 0x30d7.7 (112)                           |                |
0x4050|c8 00 00 00                                    |....            |      name: ".debug_aranges" (200) 0x4050-0x4053.7 (4)
0x4050|            01 00 00 00                        |    ....        |      type: "progbits" (0x1) (Information defined by the program) 0x4054-0x4057.7 (4)
      |                                               |                |      flags{}: 0x4058-0x405b.7 (4)
0x4050|                        00                     |        .       |        link_order: false 0x4058-0x4058 (0.1)
0x4050|                        00                     |        .       |        info_link: false 0x4058.1-0x4058.1 (0.1)
0x4050|                        00                     |        .       |        strings: false 0x4058.2-0x4058.2 (0.1)
0x4050|                        00                     |        .       |        merge: false 0x4058.3-0x4058.3 (0.1)
0x4050|                        00                     |        .       |        unused0: 0 0x4058.4-0x4058.4 (0.1)
0x4050|                        00                     |        .       |        execinstr: false 0x4058.5-0x4058.5 (0.1)
0x4050|                        00                     |        .       |        alloc: false 0x4058.6-0x4058.6 (0.1)
0x4050|                        00                     |        .       |        write: false 0x4058.7-0x4058.7 (0.1)
0x4050|                           00                  |         .      |        tls: false 0x4059-0x4059 (0.1)
0x4050|                           00                  |         .      |        group: false 0x4059.1-0x4059.1 (0.1)
0x4050|                           00                  |         .      |        os_nonconforming: false 0x4059.2-0x4059.2 (0.1)
0x4050|                           00 00               |         ..     |        unused1: 0 0x4059.3-0x405a.3 (1.1)
0x4050|                              00 00            |          ..    |        os_specific: 0 0x405a.4-0x405b.3 (1)
0x4050|                                 00            |           .    |        processor_specific: 0 0x405b.4-0x405b.7 (0.4)
0x4050|                                    00 00 00 00|            ....|      addr: 0x0 0x405c-0x405f.7 (4)
0x4060|68 30 00 00                                    |h0..            |      offset: 12392 0x4060-0x4063.7 (4)
0x4060|            70 00 00 00                        |    p...        |      size: 0x70 0x4064-0x4067.7 (4)
0x4060|                        00 00 00 00            |        ....    |      link: 0 0x4068-0x406b.7 (4)
0x4060|                                    00 00 00 00|            ....|      info: 0 0x406c-0x406f.7 (4)
0x4070|08 00 00 00                                    |....            |      addralign: 8 0x4070-0x4073.7 (4)
0x4070|            00 00 00 00                        |    ....        |      entsize: 0 0x4074-0x4077.7 (4)
      |                                               |                |    [24]{}: section_header 0x30d8-0x409f.7 (4040)
0x30d0|                        c6 00 00 00 04 00 00 00|        ........|      data: raw bits 0x30d8-0x31e5.7 (270)
0x30e0|00 00 04 01 8b 00 00 00 0c 0d 00 00 00 3f 00 00|.............?..|
*     |until 0x31e5.7 (270)                           |                |
0x4070|                        d7 00 00 00            |        ....    |      name: ".debug_info" (215) 0x4078-0x407b.7 (4)
0x4070|                                    01 00 00 00|            ....|      type: "progbits" (0x1) (Information defined by the program) 0x407c-0x407f.7 (4)
      |                                               |                |      flags{}: 0x4080-0x4083.7 (4)
0x4080|00                                             |.               |        link_order: false 0x4080-0x4080 (0.1)
0x4080|00                                             |.               |        info_link: false 0x4080.1-0x4080.1 (0.1)
0x4080|00                                             |.               |        strings: false 0x4080.2-0x4080.2 (0.1)
0x4080|00                                             |.               |        merge: false 0x4080.3-0x4080.3 (0.1)
0x4080|00                                             |.               |        unused0: 0 0x4080.4-0x4080.4 (0.1)
0x4080|00                                             |.               |        execinstr: false 0x4080.5-0x4080.5 (0.1)
0x4080|00                                             |.               |        alloc: false 0x4080.6-0x4080.6 (0.1)
0x4080|00                                             |.               |        write: false 0x4080.7-0x4080.7 (0.1)
0x4080|   00                                          | .              |        tls: false 0x4081-0x4081 (0.1)
0x4080|   00                                          | .              |        group: false 0x4081.1-0x4081.1 (0.1)
0x4080|   00                                          | .              |        os_nonconforming: false 0x4081.2-0x4081.2 (0.1)
0x4080|   00 00                                       | ..             |        unused1: 0 0x4081.3-0x4082.3 (1.1)
0x4080|      00 00                                    |  ..            |        os_specific: 0 0x4082.4-0x4083.3 (1)
0x4080|         00                                    |   .            |        processor_specific: 0 0x4083.4-0x4083.7 (0.4)
0x4080|            00 00 00 00                        |    ....        |      addr: 0x0 0x4084-0x4087.7 (4)
0x4080|                        d8 30 00 00            |        .0..    |      offset: 12504 0x4088-0x408b.7 (4)
0x4080|                                    0e 01 00 00|            ....|      size: 0x10e 0x408c-0x408f.7 (4)
0x4090|00 00 00 00                                    |....            |      link: 0 0x4090-0x4093.7 (4)
0x4090|            00 00 00 00                        |    ....        |      info: 0 0x4094-0x4097.7 (4)
0x4090|                        01 00 00 00            |        ....    |      addralign: 1 0x4098-0x409b.7 (4)
0x4090|                                    00 00 00 00|            ....|      entsize: 0 0x409c-0x409f.7 (4)
      |                                               |                |    [25]{}: section_header 0x31e6-0x40c7.7 (3810)
0x31e0|                  01 11 01 25 0e 13 0b 03 0e 1b|      ...%......|      data: raw bits 0x31e6-0x329b.7 (182)
0x31f0|0e 55 17 11 01 10 17 00 00 02 24 00 0b 0b 3e 0b|.U........$...>.|
*     |until 0x329b.7 (182)                           |                |
0x40a0|e3 00 00 00                                    |....            |      name: ".debug_abbrev" (227) 0x40a0-0x40a3.7 (4)
0x40a0|            01 00 00 00                        |    ....        |      type: "progbits" (0x1) (Information defined by the program) 0x40a4-0x40a7.7 (4)
      |                                               |                |      flags{}: 0x40a8-0x40ab.7 (4)
0x40a0|                        00                     |        .       |        link_order: false 0x40a8-0x40a8 (0.1)
0x40a0|                        00                     |        .       |        info_link: false 0x40a8.1-0x40a8.1 (0.1)
0x40a0|                        00                     |        .       |        strings: false 0x40a8.2-0x40a8.2 (0.1)
0x40a0|                        00                     |        .       |        merge: false 0x40a8.3-0x40a8.3 (0.1)
0x40a0|                        00                     |        .       |        unused0: 0 0x40a8.4-0x40a8.4 (0.1)
0x40a0|                        00                     |        .       |        execinstr: false 0x40a8.5-0x40a8.5 (0.1)
0x40a0|                        00                     |        .       |        alloc: false 0x40a8.6-0x40a8.6 (0.1)
0x40a0|                        00                     |        .       |        write: false 0x40a8.7-0x40a8.7 (0.1)
0x40a0|                           00                  |         .      |        tls: false 0x40a9-0x40a9 (0.1)
0x40a0|                           00                  |         .      |        group: false 0x40a9.1-0x40a9.1 (0.1)
0x40a0|                           00                  |         .      |        os_nonconforming: false 0x40a9.2-0x40a9.2 (0.1)
0x40a0|                           00 00               |         ..     |        unused1: 0 0x40a9.3-0x40aa.3 (1.1)
0x40a0|                              00 00            |          ..    |        os_specific: 0 0x40aa.4-0x40ab.3 (1)
0x40a0|                                 00            |           .    |        processor_specific: 0 0x40ab.4-0x40ab.7 (0.4)
0x40a0|                                    00 00 00 00|            ....|      addr: 0x0 0x40ac-0x40af.7 (4)
0x40b0|e6 31 00 00                                    |.1..            |      offset: 12774 0x40b0-0x40b3.7 (4)
0x40b0|            b6 00 00 00                        |    ....        |      size: 0xb6 0x40b4-0x40b7.7 (4)
0x40b0|                        00 00 00 00            |        ....    |      link: 0 0x40b8-0x40bb.7 (4)
0x40b0|                                    00 00 00 00|            ....|      info: 0 0x40bc-0x40bf.7 (4)
0x40c0|01 00 00 00                                    |....            |      addralign: 1 0x40c0-0x40c3.7 (4)
0x40c0|            00 00 00 00                        |    ....        |      entsize: 0 0x40c4-0x40c7.7 (4)
      |                                               |                |    [26]{}: section_header 0x329c-0x40ef.7 (3668)
0x3290|                                    50 00 00 00|            P...|      data: raw bits 0x329c-0x3387.7 (236)
0x32a0|03 00 21 00 00 00 01 01 fb 0e 0d 00 01 01 01 01|..!.............|
*     |until 0x3387.7 (236)                           |                |
0x40c0|                        f1 00 00 00            |        ....    |      name: ".debug_line" (241) 0x40c8-0x40cb.7 (4)
0x40c0|                                    01 00 00 00|            ....|      type: "progbits" (0x1) (Information defined by the program) 0x40cc-0x40cf.7 (4)
      |                                               |                |      flags{}: 0x40d0-0x40d3.7 (4)
0x40d0|00                                             |.               |        link_order: false 0x40d0-0x40d0 (0.1)
0x40d0|00                                             |.               |        info_link: false 0x40d0.1-0x40d0.1 (0.1)
0x40d0|00                                             |.               |        strings: false 0x40d0.2-0x40d0.2 (0.1)
0x40d0|00                                             |.               |        merge: false 0x40d0.3-0x40d0.3 (0.1)
0x40d0|00                                             |.               |        unused0: 0 0x40d0.4-0x40d0.4 (0.1)
0x40d0|00                                             |.               |        execinstr: false 0x40d0.5-0x40d0.5 (0.1)
0x40d0|00                                             |.               |        alloc: false 0x40d0.6-0x40d0.6 (0.1)
0x40d0|00                                             |.               |        write: false 0x40d0.7-0x40d0.7 (0.1)
0x40d0|   00                                          | .              |        tls: false 0x40d1-0x40d1 (0.1)
0x40d0|   00                                          | .              |        group: false 0x40d1.1-0x40d1.1 (0.1)
0x40d0|   00                                          | .              |        os_nonconforming: false 0x40d1.2-0x40d1.2 (0.1)
0x40d0|   00 00                                       | ..             |        unused1: 0 0x40d1.3-0x40d2.3 (1.1)
0x40d0|      00 00                                    |  ..            |        os_specific: 0 0x40d2.4-0x40d3.3 (1)
0x40d0|         00                                    |   .            |        processor_specific: 0 0x40d3.4-0x40d3.7 (0.4)
0x40d0|            00 00 00 00                        |    ....        |      addr: 0x0 0x40d4-0x40d7.7 (4)
0x40d0|                        9c 32 00 00            |        .2..    |      offset: 12956 0x40d8-0x40db.7 (4)
0x40d0|                                    ec 00 00 00|            ....|      size: 0xec 0x40dc-0x40df.7 (4)
0x40e0|00 00 00 00                                    |....            |      link: 0 0x40e0-0x40e3.7 (4)
0x40e0|            00 00 00 00                        |    ....        |      info: 0 0x40e4-0x40e7.7 (4)
0x40e0|                        01 00 00 00            |        ....    |      addralign: 1 0x40e8-0x40eb.7 (4)
0x40e0|                                    00 00 00 00|            ....|      entsize: 0 0x40ec-0x40ef.7 (4)
      |                                               |                |    [27]{}: section_header 0x3388-0x4117.7 (3472)
0x3380|                        10 00 00 00 ff ff ff ff|        ........|      data: raw bits 0x3388-0x33df.7 (88)
0x3390|01 00 01 7c 08 0c 04 04 88 01 00 00 30 00 00 00|...|........0...|
*     |until 0x33df.7 (88)                            |                |
0x40f0|fd 00 00 00                                    |....            |      name: ".debug_frame" (253) 0x40f0-0x40f3.7 (4)
0x40f0|            01 00 00 00                        |    ....        |      type: "progbits" (0x1) (Information defined by the program) 0x40f4-0x40f7.7 (4)
      |                                               |                |      flags{}: 0x40f8-0x40fb.7 (4)
0x40f0|                        00                     |        .       |        link_order: false 0x40f8-0x40f8 (0.1)
0x40f0|                        00                     |        .       |        info_link: false 0x40f8.1-0x40f8.1 (0.1)
0x40f0|                        00                     |        .       |        strings: false 0x40f8.2-0x40f8.2 (0.1)
0x40f0|                        00                     |        .       |        merge: false 0x40f8.3-0x40f8.3 (0.1)
0x40f0|                        00                     |        .       |        unused0: 0 0x40f8.4-0x40f8.4 (0.1)
0x40f0|                        00                     |        .       |        execinstr: false 0x40f8.5-0x40f8.5 (0.1)
0x40f0|                        00                     |        .       |        alloc: false 0x40f8.6-0x40f8.6 (0.1)
0x40f0|                        00                     |        .       |        write: false 0x40f8.7-0x40f8.7 (0.1)
0x40f0|                           00                  |         .      |        tls: false 0x40f9-0x40f9 (0.1)
0x40f0|                           00                  |         .      |        group: false 0x40f9.1-0x40f9.1 (0.1)
0x40f0|                           00                  |         .      |        os_nonconforming: false 0x40f9.2-0x40f9.2 (0.1)
0x40f0|                           00 00               |         ..     |        unused1: 0 0x40f9.3-0x40fa.3 (1.1)
0x40f0|                              00 00            |          ..    |        os_specific: 0 0x40fa.4-0x40fb.3 (1)
0x40f0|                                 00            |           .    |        processor_specific: 0 0x40fb.4-0x40fb.7 (0.4)
0x40f0|                                    00 00 00 00|            ....|      addr: 0x0 0x40fc-0x40ff.7 (4)
0x4100|88 33 00 00                                    |.3..            |      offset: 13192 0x4100-0x4103.7 (4)
0x4100|            58 00 00 00                        |    X...        |      size: 0x58 0x4104-0x4107.7 (4)
0x4100|                        00 00 00 00            |        ....    |      link: 0 0x4108-0x410b.7 (4)
0x4100|                                    00 00 00 00|            ....|      info: 0 0x410c-0x410f.7 (4)
0x4110|04 00 00 00                                    |....            |      addralign: 4 0x4110-0x4113.7 (4)
0x4110|            00 00 00 00                        |    ....        |      entsize: 0 0x4114-0x4117.7 (4)
      |                                               |                |    [28]{}: section_header 0x33e0-0x413f.7 (3424)
0x33e0|75 6e 73 69 67 6e 65 64 20 69 6e 74 00 63 72 74|unsigned int.crt|      data: raw bits 0x33e0-0x35a2.7 (451)
*     |until 0x35a2.7 (451)                           |                |
0x4110|                        0a 01 00 00            |        ....    |      name: ".debug_str" (266) 0x4118-0x411b.7 (4)
0x4110|                                    01 00 00 00|            ....|      type: "progbits" (0x1) (Information defined by the program) 0x411c-0x411f.7 (4)
      |                                               |                |      flags{}: 0x4120-0x4123.7 (4)
0x4120|30                                             |0               |        link_order: false 0x4120-0x4120 (0.1)
0x4120|30                                             |0               |        info_link: false 0x4120.1-0x4120.1 (0.1)
0x4120|30                                             |0               |        strings: true 0x4120.2-0x4120.2 (0.1)
0x4120|30                                             |0               |        merge: true 0x4120.3-0x4120.3 (0.1)
0x4120|30                                             |0               |        unused0: 0 0x4120.4-0x4120.4 (0.1)
0x4120|30                                             |0               |        execinstr: false 0x4120.5-0x4120.5 (0.1)
0x4120|30                                             |0               |        alloc: false 0x4120.6-0x4120.6 (0.1)
0x4120|30                                             |0               |        write: false 0x4120.7-0x4120.7 (0.1)
0x4120|   00                                          | .              |        tls: false 0x4121-0x4121 (0.1)
0x4120|   00                                          | .              |        group: false 0x4121.1-0x4121.1 (0.1)
0x4120|   00                                          | .              |        os_nonconforming: false 0x4121.2-0x4121.2 (0.1)
0x4120|   00 00                                       | ..             |        unused1: 0 0x4121.3-0x4122.3 (1.1)
0x4120|      00 00                                    |  ..            |        os_specific: 0 0x4122.4-0x4123.3 (1)
0x4120|         00                                    |   .            |        processor_specific: 0 0x4123.4-0x4123.7 (0.4)
0x4120|            00 00 00 00                        |    ....        |      addr: 0x0 0x4124-0x4127.7 (4)
0x4120|                        e0 33 00 00            |        .3..    |      offset: 13280 0x4128-0x412b.7 (4)
0x4120|                                    c3 01 00 00|            ....|      size: 0x1c3 0x412c-0x412f.7 (4)
0x4130|00 00 00 00                                    |....            |      link: 0 0x4130-0x4133.7 (4)
0x4130|            00 00 00 00                        |    ....        |      info: 0 0x4134-0x4137.7 (4)
0x4130|                        01 00 00 00            |        ....    |      addralign: 1 0x4138-0x413b.7 (4)
0x4130|                                    01 00 00 00|            ....|      entsize: 1 0x413c-0x413f.7 (4)
      |                                               |                |    [29]{}: section_header 0x35a3-0x4167.7 (3013)
0x35a0|         00 00 9e 10 00 00 a0 10 00 00 02 00 70|   ............p|      data: raw bits 0x35a3-0x35ee.7 (76)
0x35b0|00 00 00 00 00 00 00 00 00 01 00 00 00 00 00 9e|................|
*     |until 0x35ee.7 (76)                            |                |
0x4140|15 01 00 00                                    |....            |      name: ".debug_loc" (277) 0x4140-0x4143.7 (4)
0x4140|            01 00 00 00                        |    ....        |      type: "progbits" (0x1) (Information defined by the program) 0x4144-0x4147.7 (4)
      |                                               |                |      flags{}: 0x4148-0x414b.7 (4)
0x4140|                        00                     |        .       |        link_order: false 0x4148-0x4148 (0.1)
0x4140|                        00                     |        .       |        info_link: false 0x4148.1-0x4148.1 (0.1)
0x4140|                        00                     |        .       |        strings: false 0x4148.2-0x4148.2 (0.1)
0x4140|                        00                     |        .       |        merge: false 0x4148.3-0x4148.3 (0.1)
0x4140|                        00                     |        .       |        unused0: 0 0x4148.4-0x4148.4 (0.1)
0x4140|                        00                     |        .       |        execinstr: false 0x4148.5-0x4148.5 (0.1)
0x4140|                        00                     |        .       |        alloc: false 0x4148.6-0x4148.6 (0.1)
0x4140|                        00                     |        .       |        write: false 0x4148.7-0x4148.7 (0.1)
0x4140|                           00                  |         .      |        tls: false 0x4149-0x4149 (0.1)
0x4140|                           00                  |         .      |        group: false 0x4149.1-0x4149.1 (0.1)
0x4140|                           00                  |         .      |        os_nonconforming: false 0x4149.2-0x4149.2 (0.1)
0x4140|                           00 00               |         ..     |        unused1: 0 0x4149.3-0x414a.3 (1.1)
0x4140|                              00 00            |          ..    |        os_specific: 0 0x414a.4-0x414b.3 (1)
0x4140|                                 00            |           .    |        processor_specific: 0 0x414b.4-0x414b.7 (0.4)
0x4140|                                    00 00 00 00|            ....|      addr: 0x0 0x414c-0x414f.7 (4)
0x4150|a3 35 00 00                                    |.5..            |      offset: 13731 0x4150-0x4153.7 (4)
0x4150|            4c 00 00 00                        |    L...        |      size: 0x4c 0x4154-0x4157.7 (4)
0x4150|                        00 00 00 00            |        ....    |      link: 0 0x4158-0x415b.7 (4)
0x4150|                                    00 00 00 00|            ....|      info: 0 0x415c-0x415f.7 (4)
0x4160|01 00 00 00                                    |....            |      addralign: 1 0x4160-0x4163.7 (4)
0x4160|            00 00 00 00                        |    ....        |      entsize: 0 0x4164-0x4167.7 (4)
      |                                               |                |    [30]{}: section_header 0x35f0-0x418f.7 (2976)
0x35f0|8b 10 00 00 c2 10 00 00 00 00 00 00 00 00 00 00|................|      data: raw bits 0x35f0-0x363f.7 (80)
*     |until 0x363f.7 (80)                            |                |
0x4160|                        20 01 00 00            |         ...    |      name: ".debug_ranges" (288) 0x4168-0x416b.7 (4)
0x4160|                                    01 00 00 00|            ....|      type: "progbits" (0x1) (Information defined by the program) 0x416c-0x416f.7 (4)
      |                                               |                |      flags{}: 0x4170-0x4173.7 (4)
0x4170|00                                             |.               |        link_order: false 0x4170-0x4170 (0.1)
0x4170|00                                             |.               |        info_link: false 0x4170.1-0x4170.1 (0.1)
0x4170|00                                             |.               |        strings: false 0x4170.2-0x4170.2 (0.1)
0x4170|00                                             |.               |        merge: false 0x4170.3-0x4170.3 (0.1)
0x4170|00                                             |.               |        unused0: 0 0x4170.4-0x4170.4 (0.1)
0x4170|00                                             |.               |        execinstr: false 0x4170.5-0x4170.5 (0.1)
0x4170|00                                             |.               |        alloc: false 0x4170.6-0x4170.6 (0.1)
0x4170|00                                             |.               |        write: false 0x4170.7-0x4170.7 (0.1)
0x4170|   00                                          | .              |        tls: false 0x4171-0x4171 (0.1)
0x4170|   00                                          | .              |        group: false 0x4171.1-0x4171.1 (0.1)
0x4170|   00                                          | .              |        os_nonconforming: false 0x4171.2-0x4171.2 (0.1)
0x4170|   00 00                                       | ..             |        unused1: 0 0x4171.3-0x4172.3 (1.1)
0x4170|      00 00                                    |  ..            |        os_specific: 0 0x4172.4-0x4173.3 (1)
0x4170|         00                                    |   .            |        processor_specific: 0 0x4173.4-0x4173.7 (0.4)
0x4170|            00 00 00 00                        |    ....        |      addr: 0x0 0x4174-0x4177.7 (4)
0x4170|                        f0 35 00 00            |        .5..    |      offset: 13808 0x4178-0x417b.7 (4)
0x4170|                                    50 00 00 00|            P...|      size: 0x50 0x417c-0x417f.7 (4)
0x4180|00 00 00 00                                    |....            |      link: 0 0x4180-0x4183.7 (4)
0x4180|            00 00 00 00                        |    ....        |      info: 0 0x4184-0x4187.7 (4)
0x4180|                        08 00 00 00            |        ....    |      addralign: 8 0x4188-0x418b.7 (4)
0x4180|                                    00 00 00 00|            ....|      entsize: 0 0x418c-0x418f.7 (4)
      |                                               |                |    [31]{}: section_header 0x3640-0x41b7.7 (2936)
      |                                               |                |      symbol_table[0:47]: 0x3640-0x392f.7 (752)
      |                                               |                |        [0]{}: symbol 0x3640-0x364f.7 (16)
0x3640|00 00 00 00                                    |....            |          name: "" (0) 0x3640-0x3643.7 (4)
0x3640|            00 00 00 00                        |    ....        |          value: 0 0x3644-0x3647.7 (4)
0x3640|                        00 00 00 00            |        ....    |          size: 0 0x3648-0x364b.7 (4)
0x3640|                                    00         |            .   |          bind: "local" (0) 0x364c-0x364c.3 (0.4)
0x3640|                                    00         |            .   |          type: "notype" (0) 0x364c.4-0x364c.7 (0.4)
0x3640|                                       00      |             .  |          other_unused: 0 0x364d-0x364d.5 (0.6)
0x3640|                                       00      |             .  |          visibility: "default" (0) 0x364d.6-0x364d.7 (0.2)
0x3640|                                          00 00|              ..|          shndx: 0 0x364e-0x364f.7 (2)
      |                                               |                |        [1]{}: symbol 0x3650-0x365f.7 (16)
0x3650|01 00 00 00                                    |....            |          name: "Scrt1.c" (1) 0x3650-0x3653.7 (4)
0x3650|            00 00 00 00                        |    ....        |          value: 0 0x3654-0x3657.7 (4)
0x3650|                        00 00 00 00            |        ....    |          size: 0 0x3658-0x365b.7 (4)
0x3650|                                    04         |            .   |          bind: "local" (0) 0x365c-0x365c.3 (0.4)
0x3650|                                    04         |            .   |          type: "file" (4) 0x365c.4-0x365c.7 (0.4)
0x3650|                                       00      |             .  |          other_unused: 0 0x365d-0x365d.5 (0.6)
0x3650|                                       00      |             .  |          visibility: "default" (0) 0x365d.6-0x365d.7 (0.2)
0x3650|                                          f1 ff|              ..|          shndx: 65521 0x365e-0x365f.7 (2)
      |                                               |                |        [2]{}: symbol 0x3660-0x366f.7 (16)
0x3660|09 00 00 00                                    |....            |          name: "crtstuff.c" (9) 0x3660-0x3663.7 (4)
0x3660|            00 00 00 00                        |    ....        |          value: 0 0x3664-0x3667.7 (4)
0x3660|                        00 00 00 00            |        ....    |          size: 0 0x3668-0x366b.7 (4)
0x3660|                                    04         |            .   |          bind: "local" (0) 0x366c-0x366c.3 (0.4)
0x3660|                                    04         |            .   |          type: "file" (4) 0x366c.4-0x366c.7 (0.4)
0x3660|                                       00      |             .  |          other_unused: 0 0x366d-0x366d.5 (0.6)
0x3660|                                       00      |             .  |          visibility: "default" (0) 0x366d.6-0x366d.7 (0.2)
0x3660|                                          f1 ff|              ..|          shndx: 65521 0x366e-0x366f.7 (2)
      |                                               |                |        [3]{}: symbol 0x3670-0x367f.7 (16)
0x3670|14 00 00 00                                    |....            |          name: "__CTOR_LIST__" (20) 0x3670-0x3673.7 (4)
0x3670|            fc 3e 00 00                        |    .>..        |          value: 16124 0x3674-0x3677.7 (4)
0x3670|                        00 00 00 00            |        ....    |          size: 0 0x3678-0x367b.7 (4)
0x3670|                                    01         |            .   |          bind: "local" (0) 0x367c-0x367c.3 (0.4)
0x3670|                                    01         |            .   |          type: "object" (1) 0x367c.4-0x367c.7 (0.4)
0x3670|                                       00      |             .  |          other_unused: 0 0x367d-0x367d.5 (0.6)
0x3670|                                       00      |             .  |          visibility: "default" (0) 0x367d.6-0x367d.7 (0.2)
0x3670|                                          10 00|              ..|          shndx: 16 0x367e-0x367f.7 (2)
      |                                               |                |        [4]{}: symbol 0x3680-0x368f.7 (16)
0x3680|22 00 00 00                                    |"...            |          name: "__DTOR_LIST__" (34) 0x3680-0x3683.7 (4)
0x3680|            04 3f 00 00                        |    .?..        |          value: 16132 0x3684-0x3687.7 (4)
0x3680|                        00 00 00 00            |        ....    |          size: 0 0x3688-0x368b.7 (4)
0x3680|                                    01         |            .   |          bind: "local" (0) 0x368c-0x368c.3 (0.4)
0x3680|                                    01         |            .   |          type: "object" (1) 0x368c.4-0x368c.7 (0.4)
0x3680|                                       00      |             .  |          other_unused: 0 0x368d-0x368d.5 (0.6)
0x3680|                                       00      |             .  |          visibility: "default" (0) 0x368d.6-0x368d.7 (0.2)
0x3680|                                          11 00|              ..|          shndx: 17 0x368e-0x368f.7 (2)
      |                                               |                |        [5]{}: symbol 0x3690-0x369f.7 (16)
0x3690|30 00 00 00                                    |0...            |          name: "__EH_FRAME_BEGIN__" (48) 0x3690-0x3693.7 (4)
0x3690|            9c 20 00 00                        |    . ..        |          value: 8348 0x3694-0x3697.7 (4)
0x3690|                        00 00 00 00            |        ....    |          size: 0 0x3698-0x369b.7 (4)
0x3690|                                    01         |            .   |          bind: "local" (0) 0x369c-0x369c.3 (0.4)
0x3690|                                    01         |            .   |          type: "object" (1) 0x369c.4-0x369c.7 (0.4)
0x3690|                                       00      |             .  |          other_unused: 0 0x369d-0x369d.5 (0.6)
0x3690|                                       00      |             .  |          visibility: "default" (0) 0x369d.6-0x369d.7 (0.2)
0x3690|                                          0f 00|              ..|          shndx: 15 0x369e-0x369f.7 (2)
      |                                               |                |        [6]{}: symbol 0x36a0-0x36af.7 (16)
0x36a0|43 00 00 00                                    |C...            |          name: "deregister_tm_clones" (67) 0x36a0-0x36a3.7 (4)
0x36a0|            d0 10 00 00                        |    ....        |          value: 4304 0x36a4-0x36a7.7 (4)
0x36a0|                        00 00 00 00            |        ....    |          size: 0 0x36a8-0x36ab.7 (4)
0x36a0|                                    02         |            .   |          bind: "local" (0) 0x36ac-0x36ac.3 (0.4)
0x36a0|                                    02         |            .   |          type: "func" (2) 0x36ac.4-0x36ac.7 (0.4)
0x36a0|                                       00      |             .  |          other_unused: 0 0x36ad-0x36ad.5 (0.6)
0x36a0|                                       00      |             .  |          visibility: "default" (0) 0x36ad.6-0x36ad.7 (0.2)
0x36a0|                                          0b 00|              ..|          shndx: 11 0x36ae-0x36af.7 (2)
      |                                               |                |        [7]{}: symbol 0x36b0-0x36bf.7 (16)
0x36b0|45 00 00 00                                    |E...            |          name: "register_tm_clones" (69) 0x36b0-0x36b3.7 (4)
0x36b0|            10 11 00 00                        |    ....        |          value: 4368 0x36b4-0x36b7.7 (4)
0x36b0|                        00 00 00 00            |        ....    |          size: 0 0x36b8-0x36bb.7 (4)
0x36b0|                                    02         |            .   |          bind: "local" (0) 0x36bc-0x36bc.3 (0.4)
0x36b0|                                    02         |            .   |          type: "func" (2) 0x36bc.4-0x36bc.7 (0.4)
0x36b0|                                       00      |             .  |          other_unused: 0 0x36bd-0x36bd.5 (0.6)
0x36b0|                                       00      |             .  |          visibility: "default" (0) 0x36bd.6-0x36bd.7 (0.2)
0x36b0|                                          0b 00|              ..|          shndx: 11 0x36be-0x36bf.7 (2)
      |                                               |                |        [8]{}: symbol 0x36c0-0x36cf.7 (16)
0x36c0|58 00 00 00                                    |X...            |          name: "__do_global_dtors_aux" (88) 0x36c0-0x36c3.7 (4)
0x36c0|            60 11 00 00                        |    `...        |          value: 4448 0x36c4-0x36c7.7 (4)
0x36c0|                        00 00 00 00            |        ....    |          size: 0 0x36c8-0x36cb.7 (4)
0x36c0|                                    02         |            .   |          bind: "local" (0) 0x36cc-0x36cc.3 (0.4)
0x36c0|                                    02         |            .   |          type: "func" (2) 0x36cc.4-0x36cc.7 (0.4)
0x36c0|                                       00      |             .  |          other_unused: 0 0x36cd-0x36cd.5 (0.6)
0x36c0|                                       00      |             .  |          visibility: "default" (0) 0x36cd.6-0x36cd.7 (0.2)
0x36c0|                                          0b 00|              ..|          shndx: 11 0x36ce-0x36cf.7 (2)
      |                                               |                |        [9]{}: symbol 0x36d0-0x36df.7 (16)
0x36d0|6e 00 00 00                                    |n...            |          name: "completed.2" (110) 0x36d0-0x36d3.7 (4)
0x36d0|            04 40 00 00                        |    .@..        |          value: 16388 0x36d4-0x36d7.7 (4)
0x36d0|                        01 00 00 00            |        ....    |          size: 1 0x36d8-0x36db.7 (4)
0x36d0|                                    01         |            .   |          bind: "local" (0) 0x36dc-0x36dc.3 (0.4)
0x36d0|                                    01         |            .   |          type: "object" (1) 0x36dc.4-0x36dc.7 (0.4)
0x36d0|                                       00      |             .  |          other_unused: 0 0x36dd-0x36dd.5 (0.6)
0x36d0|                                       00      |             .  |          visibility: "default" (0) 0x36dd.6-0x36dd.7 (0.2)
0x36d0|                                          15 00|              ..|          shndx: 21 0x36de-0x36df.7 (2)
      |                                               |                |        [10]{}: symbol 0x36e0-0x36ef.7 (16)
0x36e0|7a 00 00 00                                    |z...            |          name: "dtor_idx.1" (122) 0x36e0-0x36e3.7 (4)
0x36e0|            08 40 00 00                        |    .@..        |          value: 16392 0x36e4-0x36e7.7 (4)
0x36e0|                        04 00 00 00            |        ....    |          size: 4 0x36e8-0x36eb.7 (4)
0x36e0|                                    01         |            .   |          bind: "local" (0) 0x36ec-0x36ec.3 (0.4)
0x36e0|                                    01         |            .   |          type: "object" (1) 0x36ec.4-0x36ec.7 (0.4)
0x36e0|                                       00      |             .  |          other_unused: 0 0x36ed-0x36ed.5 (0.6)
0x36e0|                                       00      |             .  |          visibility: "default" (0) 0x36ed.6-0x36ed.7 (0.2)
0x36e0|                                          15 00|              ..|          shndx: 21 0x36ee-0x36ef.7 (2)
      |                                               |                |        [11]{}: symbol 0x36f0-0x36ff.7 (16)
0x36f0|85 00 00 00                                    |....            |          name: "frame_dummy" (133) 0x36f0-0x36f3.7 (4)
0x36f0|            10 12 00 00                        |    ....        |          value: 4624 0x36f4-0x36f7.7 (4)
0x36f0|                        00 00 00 00            |        ....    |          size: 0 0x36f8-0x36fb.7 (4)
0x36f0|                                    02         |            .   |          bind: "local" (0) 0x36fc-0x36fc.3 (0.4)
0x36f0|                                    02         |            .   |          type: "func" (2) 0x36fc.4-0x36fc.7 (0.4)
0x36f0|                                       00      |             .  |          other_unused: 0 0x36fd-0x36fd.5 (0.6)
0x36f0|                                       00      |             .  |          visibility: "default" (0) 0x36fd.6-0x36fd.7 (0.2)
0x36f0|                                          0b 00|              ..|          shndx: 11 0x36fe-0x36ff.7 (2)
      |                                               |                |        [12]{}: symbol 0x3700-0x370f.7 (16)
0x3700|91 00 00 00                                    |....            |          name: "object.0" (145) 0x3700-0x3703.7 (4)
0x3700|            0c 40 00 00                        |    .@..        |          value: 16396 0x3704-0x3707.7 (4)
0x3700|                        18 00 00 00            |        ....    |          size: 24 0x3708-0x370b.7 (4)
0x3700|                                    01         |            .   |          bind: "local" (0) 0x370c-0x370c.3 (0.4)
0x3700|                                    01         |            .   |          type: "object" (1) 0x370c.4-0x370c.7 (0.4)
0x3700|                                       00      |             .  |          other_unused: 0 0x370d-0x370d.5 (0.6)
0x3700|                                       00      |             .  |          visibility: "default" (0) 0x370d.6-0x370d.7 (0.2)
0x3700|                                          15 00|              ..|          shndx: 21 0x370e-0x370f.7 (2)
      |                                               |                |        [13]{}: symbol 0x3710-0x371f.7 (16)
0x3710|09 00 00 00                                    |....            |          name: "crtstuff.c" (9) 0x3710-0x3713.7 (4)
0x3710|            00 00 00 00                        |    ....        |          value: 0 0x3714-0x3717.7 (4)
0x3710|                        00 00 00 00            |        ....    |          size: 0 0x3718-0x371b.7 (4)
0x3710|                                    04         |            .   |          bind: "local" (0) 0x371c-0x371c.3 (0.4)
0x3710|                                    04         |            .   |          type: "file" (4) 0x371c.4-0x371c.7 (0.4)
0x3710|                                       00      |             .  |          other_unused: 0 0x371d-0x371d.5 (0.6)
0x3710|                                       00      |             .  |          visibility: "default" (0) 0x371d.6-0x371d.7 (0.2)
0x3710|                                          f1 ff|              ..|          shndx: 65521 0x371e-0x371f.7 (2)
      |                                               |                |        [14]{}: symbol 0x3720-0x372f.7 (16)
0x3720|9a 00 00 00                                    |....            |          name: "__CTOR_END__" (154) 0x3720-0x3723.7 (4)
0x3720|            00 3f 00 00                        |    .?..        |          value: 16128 0x3724-0x3727.7 (4)
0x3720|                        00 00 00 00            |        ....    |          size: 0 0x3728-0x372b.7 (4)
0x3720|                                    01         |            .   |          bind: "local" (0) 0x372c-0x372c.3 (0.4)
0x3720|                                    01         |            .   |          type: "object" (1) 0x372c.4-0x372c.7 (0.4)
0x3720|                                       00      |             .  |          other_unused: 0 0x372d-0x372d.5 (0.6)
0x3720|                                       00      |             .  |          visibility: "default" (0) 0x372d.6-0x372d.7 (0.2)
0x3720|                                          10 00|              ..|          shndx: 16 0x372e-0x372f.7 (2)
      |                                               |                |        [15]{}: symbol 0x3730-0x373f.7 (16)
0x3730|a7 00 00 00                                    |....            |          name: "__FRAME_END__" (167) 0x3730-0x3733.7 (4)
0x3730|            1c 21 00 00                        |    .!..        |          value: 8476 0x3734-0x3737.7 (4)
0x3730|                        00 00 00 00            |        ....    |          size: 0 0x3738-0x373b.7 (4)
0x3730|                                    01         |            .   |          bind: "local" (0) 0x373c-0x373c.3 (0.4)
0x3730|                                    01         |            .   |          type: "object" (1) 0x373c.4-0x373c.7 (0.4)
0x3730|                                       00      |             .  |          other_unused: 0 0x373d-0x373d.5 (0.6)
0x3730|                                       00      |             .  |          visibility: "default" (0) 0x373d.6-0x373d.7 (0.2)
0x3730|                                          0f 00|              ..|          shndx: 15 0x373e-0x373f.7 (2)
      |                                               |                |        [16]{}: symbol 0x3740-0x374f.7 (16)
0x3740|b5 00 00 00                                    |....            |          name: "__do_global_ctors_aux" (181) 0x3740-0x3743.7 (4)
0x3740|            f0 12 00 00                        |    ....        |          value: 4848 0x3744-0x3747.7 (4)
0x3740|                        00 00 00 00            |        ....    |          size: 0 0x3748-0x374b.7 (4)
0x3740|                                    02         |            .   |          bind: "local" (0) 0x374c-0x374c.3 (0.4)
0x3740|                                    02         |            .   |          type: "func" (2) 0x374c.4-0x374c.7 (0.4)
0x3740|                                       00      |             .  |          other_unused: 0 0x374d-0x374d.5 (0.6)
0x3740|                                       00      |             .  |          visibility: "default" (0) 0x374d.6-0x374d.7 (0.2)
0x3740|                                          0b 00|              ..|          shndx: 11 0x374e-0x374f.7 (2)
      |                                               |                |        [17]{}: symbol 0x3750-0x375f.7 (16)
0x3750|cb 00 00 00                                    |....            |          name: "a.c" (203) 0x3750-0x3753.7 (4)
0x3750|            00 00 00 00                        |    ....        |          value: 0 0x3754-0x3757.7 (4)
0x3750|                        00 00 00 00            |        ....    |          size: 0 0x3758-0x375b.7 (4)
0x3750|                                    04         |            .   |          bind: "local" (0) 0x375c-0x375c.3 (0.4)
0x3750|                                    04         |            .   |          type: "file" (4) 0x375c.4-0x375c.7 (0.4)
0x3750|                                       00      |             .  |          other_unused: 0 0x375d-0x375d.5 (0.6)
0x3750|                                       00      |             .  |          visibility: "default" (0) 0x375d.6-0x375d.7 (0.2)
0x3750|                                          f1 ff|              ..|          shndx: 65521 0x375e-0x375f.7 (2)
      |                                               |                |        [18]{}: symbol 0x3760-0x376f.7 (16)
0x3760|cf 00 00 00                                    |....            |          name: "libbbb.c" (207) 0x3760-0x3763.7 (4)
0x3760|            00 00 00 00                        |    ....        |          value: 0 0x3764-0x3767.7 (4)
0x3760|                        00 00 00 00            |        ....    |          size: 0 0x3768-0x376b.7 (4)
0x3760|                                    04         |            .   |          bind: "local" (0) 0x376c-0x376c.3 (0.4)
0x3760|                                    04         |            .   |          type: "file" (4) 0x376c.4-0x376c.7 (0.4)
0x3760|                                       00      |             .  |          other_unused: 0 0x376d-0x376d.5 (0.6)
0x3760|                                       00      |             .  |          visibility: "default" (0) 0x376d.6-0x376d.7 (0.2)
0x3760|                                          f1 ff|              ..|          shndx: 65521 0x376e-0x376f.7 (2)
      |                                               |                |        [19]{}: symbol 0x3770-0x377f.7 (16)
0x3770|00 00 00 00                                    |....            |          name: "" (0) 0x3770-0x3773.7 (4)
0x3770|            00 00 00 00                        |    ....        |          value: 0 0x3774-0x3777.7 (4)
0x3770|                        00 00 00 00            |        ....    |          size: 0 0x3778-0x377b.7 (4)
0x3770|                                    04         |            .   |          bind: "local" (0) 0x377c-0x377c.3 (0.4)
0x3770|                                    04         |            .   |          type: "file" (4) 0x377c.4-0x377c.7 (0.4)
0x3770|                                       00      |             .  |          other_unused: 0 0x377d-0x377d.5 (0.6)
0x3770|                                       00      |             .  |          visibility: "default" (0) 0x377d.6-0x377d.7 (0.2)
0x3770|                                          f1 ff|              ..|          shndx: 65521 0x377e-0x377f.7 (2)
      |                                               |                |        [20]{}: symbol 0x3780-0x378f.7 (16)
0x3780|d8 00 00 00                                    |....            |          name: "_DYNAMIC" (216) 0x3780-0x3783.7 (4)
0x3780|            0c 3f 00 00                        |    .?..        |          value: 16140 0x3784-0x3787.7 (4)
0x3780|                        00 00 00 00            |        ....    |          size: 0 0x3788-0x378b.7 (4)
0x3780|                                    01         |            .   |          bind: "local" (0) 0x378c-0x378c.3 (0.4)
0x3780|                                    01         |            .   |          type: "object" (1) 0x378c.4-0x378c.7 (0.4)
0x3780|                                       00      |             .  |          other_unused: 0 0x378d-0x378d.5 (0.6)
0x3780|                                       00      |             .  |          visibility: "default" (0) 0x378d.6-0x378d.7 (0.2)
0x3780|                                          12 00|              ..|          shndx: 18 0x378e-0x378f.7 (2)
      |                                               |                |        [21]{}: symbol 0x3790-0x379f.7 (16)
0x3790|e1 00 00 00                                    |....            |          name: "__GNU_EH_FRAME_HDR" (225) 0x3790-0x3793.7 (4)
0x3790|            10 20 00 00                        |    . ..        |          value: 8208 0x3794-0x3797.7 (4)
0x3790|                        00 00 00 00            |        ....    |          size: 0 0x3798-0x379b.7 (4)
0x3790|                                    00         |            .   |          bind: "local" (0) 0x379c-0x379c.3 (0.4)
0x3790|                                    00         |            .   |          type: "notype" (0) 0x379c.4-0x379c.7 (0.4)
0x3790|                                       00      |             .  |          other_unused: 0 0x379d-0x379d.5 (0.6)
0x3790|                                       00      |             .  |          visibility: "default" (0) 0x379d.6-0x379d.7 (0.2)
0x3790|                                          0e 00|              ..|          shndx: 14 0x379e-0x379f.7 (2)
      |                                               |                |        [22]{}: symbol 0x37a0-0x37af.7 (16)
0x37a0|f4 00 00 00                                    |....            |          name: "_GLOBAL_OFFSET_TABLE_" (244) 0x37a0-0x37a3.7 (4)
0x37a0|            cc 3f 00 00                        |    .?..        |          value: 16332 0x37a4-0x37a7.7 (4)
0x37a0|                        00 00 00 00            |        ....    |          size: 0 0x37a8-0x37ab.7 (4)
0x37a0|                                    01         |            .   |          bind: "local" (0) 0x37ac-0x37ac.3 (0.4)
0x37a0|                                    01         |            .   |          type: "object" (1) 0x37ac.4-0x37ac.7 (0.4)
0x37a0|                                       00      |             .  |          other_unused: 0 0x37ad-0x37ad.5 (0.6)
0x37a0|                                       00      |             .  |          visibility: "default" (0) 0x37ad.6-0x37ad.7 (0.2)
0x37a0|                                          13 00|              ..|          shndx: 19 0x37ae-0x37af.7 (2)
      |                                               |                |        [23]{}: symbol 0x37b0-0x37bf.7 (16)
0x37b0|0a 01 00 00                                    |....            |          name: "__x86.get_pc_thunk.di" (266) 0x37b0-0x37b3.7 (4)
0x37b0|            5e 12 00 00                        |    ^...        |          value: 4702 0x37b4-0x37b7.7 (4)
0x37b0|                        00 00 00 00            |        ....    |          size: 0 0x37b8-0x37bb.7 (4)
0x37b0|                                    12         |            .   |          bind: "global" (1) 0x37bc-0x37bc.3 (0.4)
0x37b0|                                    12         |            .   |          type: "func" (2) 0x37bc.4-0x37bc.7 (0.4)
0x37b0|                                       02      |             .  |          other_unused: 0 0x37bd-0x37bd.5 (0.6)
0x37b0|                                       02      |             .  |          visibility: "hidden" (2) 0x37bd.6-0x37bd.7 (0.2)
0x37b0|                                          0b 00|              ..|          shndx: 11 0x37be-0x37bf.7 (2)
      |                                               |                |        [24]{}: symbol 0x37c0-0x37cf.7 (16)
0x37c0|20 01 00 00                                    | ...            |          name: "__TMC_END__" (288) 0x37c0-0x37c3.7 (4)
0x37c0|            04 40 00 00                        |    .@..        |          value: 16388 0x37c4-0x37c7.7 (4)
0x37c0|                        00 00 00 00            |        ....    |          size: 0 0x37c8-0x37cb.7 (4)
0x37c0|                                    11         |            .   |          bind: "global" (1) 0x37cc-0x37cc.3 (0.4)
0x37c0|                                    11         |            .   |          type: "object" (1) 0x37cc.4-0x37cc.7 (0.4)
0x37c0|                                       02      |             .  |          other_unused: 0 0x37cd-0x37cd.5 (0.6)
0x37c0|                                       02      |             .  |          visibility: "hidden" (2) 0x37cd.6-0x37cd.7 (0.2)
0x37c0|                                          14 00|              ..|          shndx: 20 0x37ce-0x37cf.7 (2)
      |                                               |                |        [25]{}: symbol 0x37d0-0x37df.7 (16)
0x37d0|2c 01 00 00                                    |,...            |          name: "__DTOR_END__" (300) 0x37d0-0x37d3.7 (4)
0x37d0|            08 3f 00 00                        |    .?..        |          value: 16136 0x37d4-0x37d7.7 (4)
0x37d0|                        00 00 00 00            |        ....    |          size: 0 0x37d8-0x37db.7 (4)
0x37d0|                                    11         |            .   |          bind: "global" (1) 0x37dc-0x37dc.3 (0.4)
0x37d0|                                    11         |            .   |          type: "object" (1) 0x37dc.4-0x37dc.7 (0.4)
0x37d0|                                       02      |             .  |          other_unused: 0 0x37dd-0x37dd.5 (0.6)
0x37d0|                                       02      |             .  |          visibility: "hidden" (2) 0x37dd.6-0x37dd.7 (0.2)
0x37d0|                                          11 00|              ..|          shndx: 17 0x37de-0x37df.7 (2)
      |                                               |                |        [26]{}: symbol 0x37e0-0x37ef.7 (16)
0x37e0|39 01 00 00                                    |9...            |          name: "puts" (313) 0x37e0-0x37e3.7 (4)
0x37e0|            00 00 00 00                        |    ....        |          value: 0 0x37e4-0x37e7.7 (4)
0x37e0|                        00 00 00 00            |        ....    |          size: 0 0x37e8-0x37eb.7 (4)
0x37e0|                                    12         |            .   |          bind: "global" (1) 0x37ec-0x37ec.3 (0.4)
0x37e0|                                    12         |            .   |          type: "func" (2) 0x37ec.4-0x37ec.7 (0.4)
0x37e0|                                       00      |             .  |          other_unused: 0 0x37ed-0x37ed.5 (0.6)
0x37e0|                                       00      |             .  |          visibility: "default" (0) 0x37ed.6-0x37ed.7 (0.2)
0x37e0|                                          00 00|              ..|          shndx: 0 0x37ee-0x37ef.7 (2)
      |                                               |                |        [27]{}: symbol 0x37f0-0x37ff.7 (16)
0x37f0|3e 01 00 00                                    |>...            |          name: "__cxa_finalize" (318) 0x37f0-0x37f3.7 (4)
0x37f0|            00 00 00 00                        |    ....        |          value: 0 0x37f4-0x37f7.7 (4)
0x37f0|                        00 00 00 00            |        ....    |          size: 0 0x37f8-0x37fb.7 (4)
0x37f0|                                    22         |            "   |          bind: "weak" (2) 0x37fc-0x37fc.3 (0.4)
0x37f0|                                    22         |            "   |          type: "func" (2) 0x37fc.4-0x37fc.7 (0.4)
0x37f0|                                       00      |             .  |          other_unused: 0 0x37fd-0x37fd.5 (0.6)
0x37f0|                                       00      |             .  |          visibility: "default" (0) 0x37fd.6-0x37fd.7 (0.2)
0x37f0|                                          00 00|              ..|          shndx: 0 0x37fe-0x37ff.7 (2)
      |                                               |                |        [28]{}: symbol 0x3800-0x380f.7 (16)
0x3800|4d 01 00 00                                    |M...            |          name: "__x86.get_pc_thunk.ax" (333) 0x3800-0x3803.7 (4)
0x3800|            b3 12 00 00                        |    ....        |          value: 4787 0x3804-0x3807.7 (4)
0x3800|                        00 00 00 00            |        ....    |          size: 0 0x3808-0x380b.7 (4)
0x3800|                                    12         |            .   |          bind: "global" (1) 0x380c-0x380c.3 (0.4)
0x3800|                                    12         |            .   |          type: "func" (2) 0x380c.4-0x380c.7 (0.4)
0x3800|                                       02      |             .  |          other_unused: 0 0x380d-0x380d.5 (0.6)
0x3800|                                       02      |             .  |          visibility: "hidden" (2) 0x380d.6-0x380d.7 (0.2)
0x3800|                                          0b 00|              ..|          shndx: 11 0x380e-0x380f.7 (2)
      |                                               |                |        [29]{}: symbol 0x3810-0x381f.7 (16)
0x3810|63 01 00 00                                    |c...            |          name: "__dso_handle" (355) 0x3810-0x3813.7 (4)
0x3810|            00 40 00 00                        |    .@..        |          value: 16384 0x3814-0x3817.7 (4)
0x3810|                        00 00 00 00            |        ....    |          size: 0 0x3818-0x381b.7 (4)
0x3810|                                    11         |            .   |          bind: "global" (1) 0x381c-0x381c.3 (0.4)
0x3810|                                    11         |            .   |          type: "object" (1) 0x381c.4-0x381c.7 (0.4)
0x3810|                                       02      |             .  |          other_unused: 0 0x381d-0x381d.5 (0.6)
0x3810|                                       02      |             .  |          visibility: "hidden" (2) 0x381d.6-0x381d.7 (0.2)
0x3810|                                          14 00|              ..|          shndx: 20 0x381e-0x381f.7 (2)
      |                                               |                |        [30]{}: symbol 0x3820-0x382f.7 (16)
0x3820|70 01 00 00                                    |p...            |          name: "aaa" (368) 0x3820-0x3823.7 (4)
0x3820|            62 12 00 00                        |    b...        |          value: 4706 0x3824-0x3827.7 (4)
0x3820|                        2b 00 00 00            |        +...    |          size: 43 0x3828-0x382b.7 (4)
0x3820|                                    12         |            .   |          bind: "global" (1) 0x382c-0x382c.3 (0.4)
0x3820|                                    12         |            .   |          type: "func" (2) 0x382c.4-0x382c.7 (0.4)
0x3820|                                       00      |             .  |          other_unused: 0 0x382d-0x382d.5 (0.6)
0x3820|                                       00      |             .  |          visibility: "default" (0) 0x382d.6-0x382d.7 (0.2)
0x3820|                                          0b 00|              ..|          shndx: 11 0x382e-0x382f.7 (2)
      |                                               |                |        [31]{}: symbol 0x3830-0x383f.7 (16)
0x3830|74 01 00 00                                    |t...            |          name: "__x86.get_pc_thunk.dx" (372) 0x3830-0x3833.7 (4)
0x3830|            5a 12 00 00                        |    Z...        |          value: 4698 0x3834-0x3837.7 (4)
0x3830|                        00 00 00 00            |        ....    |          size: 0 0x3838-0x383b.7 (4)
0x3830|                                    12         |            .   |          bind: "global" (1) 0x383c-0x383c.3 (0.4)
0x3830|                                    12         |            .   |          type: "func" (2) 0x383c.4-0x383c.7 (0.4)
0x3830|                                       02      |             .  |          other_unused: 0 0x383d-0x383d.5 (0.6)
0x3830|                                       02      |             .  |          visibility: "hidden" (2) 0x383d.6-0x383d.7 (0.2)
0x3830|                                          0b 00|              ..|          shndx: 11 0x383e-0x383f.7 (2)
      |                                               |                |        [32]{}: symbol 0x3840-0x384f.7 (16)
0x3840|8a 01 00 00                                    |....            |          name: "_init" (394) 0x3840-0x3843.7 (4)
0x3840|            00 10 00 00                        |    ....        |          value: 4096 0x3844-0x3847.7 (4)
0x3840|                        01 00 00 00            |        ....    |          size: 1 0x3848-0x384b.7 (4)
0x3840|                                    12         |            .   |          bind: "global" (1) 0x384c-0x384c.3 (0.4)
0x3840|                                    12         |            .   |          type: "func" (2) 0x384c.4-0x384c.7 (0.4)
0x3840|                                       00      |             .  |          other_unused: 0 0x384d-0x384d.5 (0.6)
0x3840|                                       00      |             .  |          visibility: "default" (0) 0x384d.6-0x384d.7 (0.2)
0x3840|                                          08 00|              ..|          shndx: 8 0x384e-0x384f.7 (2)
      |                                               |                |        [33]{}: symbol 0x3850-0x385f.7 (16)
0x3850|90 01 00 00                                    |....            |          name: "__register_frame_info_bases" (400) 0x3850-0x3853.7 (4)
0x3850|            00 00 00 00                        |    ....        |          value: 0 0x3854-0x3857.7 (4)
0x3850|                        00 00 00 00            |        ....    |          size: 0 0x3858-0x385b.7 (4)
0x3850|                                    20         |                |          bind: "weak" (2) 0x385c-0x385c.3 (0.4)
0x3850|                                    20         |                |          type: "notype" (0) 0x385c.4-0x385c.7 (0.4)
0x3850|                                       00      |             .  |          other_unused: 0 0x385d-0x385d.5 (0.6)
0x3850|                                       00      |             .  |          visibility: "default" (0) 0x385d.6-0x385d.7 (0.2)
0x3850|                                          00 00|              ..|          shndx: 0 0x385e-0x385f.7 (2)
      |                                               |                |        [34]{}: symbol 0x3860-0x386f.7 (16)
0x3860|ac 01 00 00                                    |....            |          name: "_ITM_registerTMCloneTable" (428) 0x3860-0x3863.7 (4)
0x3860|            00 00 00 00                        |    ....        |          value: 0 0x3864-0x3867.7 (4)
0x3860|                        00 00 00 00            |        ....    |          size: 0 0x3868-0x386b.7 (4)
0x3860|                                    20         |                |          bind: "weak" (2) 0x386c-0x386c.3 (0.4)
0x3860|                                    20         |                |          type: "notype" (0) 0x386c.4-0x386c.7 (0.4)
0x3860|                                       00      |             .  |          other_unused: 0 0x386d-0x386d.5 (0.6)
0x3860|                                       00      |             .  |          visibility: "default" (0) 0x386d.6-0x386d.7 (0.2)
0x3860|                                          00 00|              ..|          shndx: 0 0x386e-0x386f.7 (2)
      |                                               |                |        [35]{}: symbol 0x3870-0x387f.7 (16)
0x3870|24 02 00 00                                    |$...            |          name: "_start" (548) 0x3870-0x3873.7 (4)
0x3870|            70 10 00 00                        |    p...        |          value: 4208 0x3874-0x3877.7 (4)
0x3870|                        00 00 00 00            |        ....    |          size: 0 0x3878-0x387b.7 (4)
0x3870|                                    10         |            .   |          bind: "global" (1) 0x387c-0x387c.3 (0.4)
0x3870|                                    10         |            .   |          type: "notype" (0) 0x387c.4-0x387c.7 (0.4)
0x3870|                                       00      |             .  |          other_unused: 0 0x387d-0x387d.5 (0.6)
0x3870|                                       00      |             .  |          visibility: "default" (0) 0x387d.6-0x387d.7 (0.2)
0x3870|                                          0b 00|              ..|          shndx: 11 0x387e-0x387f.7 (2)
      |                                               |                |        [36]{}: symbol 0x3880-0x388f.7 (16)
0x3880|c6 01 00 00                                    |....            |          name: "__deregister_frame_info_bases" (454) 0x3880-0x3883.7 (4)
0x3880|            00 00 00 00                        |    ....        |          value: 0 0x3884-0x3887.7 (4)
0x3880|                        00 00 00 00            |        ....    |          size: 0 0x3888-0x388b.7 (4)
0x3880|                                    20         |                |          bind: "weak" (2) 0x388c-0x388c.3 (0.4)
0x3880|                                    20         |                |          type: "notype" (0) 0x388c.4-0x388c.7 (0.4)
0x3880|                                       00      |             .  |          other_unused: 0 0x388d-0x388d.5 (0.6)
0x3880|                                       00      |             .  |          visibility: "default" (0) 0x388d.6-0x388d.7 (0.2)
0x3880|                                          00 00|              ..|          shndx: 0 0x388e-0x388f.7 (2)
      |                                               |                |        [37]{}: symbol 0x3890-0x389f.7 (16)
0x3890|e4 01 00 00                                    |....            |          name: "_start_c" (484) 0x3890-0x3893.7 (4)
0x3890|            8b 10 00 00                        |    ....        |          value: 4235 0x3894-0x3897.7 (4)
0x3890|                        37 00 00 00            |        7...    |          size: 55 0x3898-0x389b.7 (4)
0x3890|                                    12         |            .   |          bind: "global" (1) 0x389c-0x389c.3 (0.4)
0x3890|                                    12         |            .   |          type: "func" (2) 0x389c.4-0x389c.7 (0.4)
0x3890|                                       00      |             .  |          other_unused: 0 0x389d-0x389d.5 (0.6)
0x3890|                                       00      |             .  |          visibility: "default" (0) 0x389d.6-0x389d.7 (0.2)
0x3890|                                          0b 00|              ..|          shndx: 11 0x389e-0x389f.7 (2)
      |                                               |                |        [38]{}: symbol 0x38a0-0x38af.7 (16)
0x38a0|ed 01 00 00                                    |....            |          name: "__x86.get_pc_thunk.bx" (493) 0x38a0-0x38a3.7 (4)
0x38a0|            c2 10 00 00                        |    ....        |          value: 4290 0x38a4-0x38a7.7 (4)
0x38a0|                        00 00 00 00            |        ....    |          size: 0 0x38a8-0x38ab.7 (4)
0x38a0|                                    12         |            .   |          bind: "global" (1) 0x38ac-0x38ac.3 (0.4)
0x38a0|                                    12         |            .   |          type: "func" (2) 0x38ac.4-0x38ac.7 (0.4)
0x38a0|                                       02      |             .  |          other_unused: 0 0x38ad-0x38ad.5 (0.6)
0x38a0|                                       02      |             .  |          visibility: "hidden" (2) 0x38ad.6-0x38ad.7 (0.2)
0x38a0|                                          0b 00|              ..|          shndx: 11 0x38ae-0x38af.7 (2)
      |                                               |                |        [39]{}: symbol 0x38b0-0x38bf.7 (16)
0x38b0|03 02 00 00                                    |....            |          name: "_ITM_deregisterTMCloneTable" (515) 0x38b0-0x38b3.7 (4)
0x38b0|            00 00 00 00                        |    ....        |          value: 0 0x38b4-0x38b7.7 (4)
0x38b0|                        00 00 00 00            |        ....    |          size: 0 0x38b8-0x38bb.7 (4)
0x38b0|                                    20         |                |          bind: "weak" (2) 0x38bc-0x38bc.3 (0.4)
0x38b0|                                    20         |                |          type: "notype" (0) 0x38bc.4-0x38bc.7 (0.4)
0x38b0|                                       00      |             .  |          other_unused: 0 0x38bd-0x38bd.5 (0.6)
0x38b0|                                       00      |             .  |          visibility: "default" (0) 0x38bd.6-0x38bd.7 (0.2)
0x38b0|                                          00 00|              ..|          shndx: 0 0x38be-0x38bf.7 (2)
      |                                               |                |        [40]{}: symbol 0x38c0-0x38cf.7 (16)
0x38c0|1f 02 00 00                                    |....            |          name: "__bss_start" (543) 0x38c0-0x38c3.7 (4)
0x38c0|            04 40 00 00                        |    .@..        |          value: 16388 0x38c4-0x38c7.7 (4)
0x38c0|                        00 00 00 00            |        ....    |          size: 0 0x38c8-0x38cb.7 (4)
0x38c0|                                    10         |            .   |          bind: "global" (1) 0x38cc-0x38cc.3 (0.4)
0x38c0|                                    10         |            .   |          type: "notype" (0) 0x38cc.4-0x38cc.7 (0.4)
0x38c0|                                       00      |             .  |          other_unused: 0 0x38cd-0x38cd.5 (0.6)
0x38c0|                                       00      |             .  |          visibility: "default" (0) 0x38cd.6-0x38cd.7 (0.2)
0x38c0|                                          15 00|              ..|          shndx: 21 0x38ce-0x38cf.7 (2)
      |                                               |                |        [41]{}: symbol 0x38d0-0x38df.7 (16)
0x38d0|55 02 00 00                                    |U...            |          name: "main" (597) 0x38d0-0x38d3.7 (4)
0x38d0|            8d 12 00 00                        |    ....        |          value: 4749 0x38d4-0x38d7.7 (4)
0x38d0|                        26 00 00 00            |        &...    |          size: 38 0x38d8-0x38db.7 (4)
0x38d0|                                    12         |            .   |          bind: "global" (1) 0x38dc-0x38dc.3 (0.4)
0x38d0|                                    12         |            .   |          type: "func" (2) 0x38dc.4-0x38dc.7 (0.4)
0x38d0|                                       00      |             .  |          other_unused: 0 0x38dd-0x38dd.5 (0.6)
0x38d0|                                       00      |             .  |          visibility: "default" (0) 0x38dd.6-0x38dd.7 (0.2)
0x38d0|                                          0b 00|              ..|          shndx: 11 0x38de-0x38df.7 (2)
      |                                               |                |        [42]{}: symbol 0x38e0-0x38ef.7 (16)
0x38e0|2b 02 00 00                                    |+...            |          name: "_fini" (555) 0x38e0-0x38e3.7 (4)
0x38e0|            31 13 00 00                        |    1...        |          value: 4913 0x38e4-0x38e7.7 (4)
0x38e0|                        01 00 00 00            |        ....    |          size: 1 0x38e8-0x38eb.7 (4)
0x38e0|                                    12         |            .   |          bind: "global" (1) 0x38ec-0x38ec.3 (0.4)
0x38e0|                                    12         |            .   |          type: "func" (2) 0x38ec.4-0x38ec.7 (0.4)
0x38e0|                                       00      |             .  |          other_unused: 0 0x38ed-0x38ed.5 (0.6)
0x38e0|                                       00      |             .  |          visibility: "default" (0) 0x38ed.6-0x38ed.7 (0.2)
0x38e0|                                          0c 00|              ..|          shndx: 12 0x38ee-0x38ef.7 (2)
      |                                               |                |        [43]{}: symbol 0x38f0-0x38ff.7 (16)
0x38f0|31 02 00 00                                    |1...            |          name: "_edata" (561) 0x38f0-0x38f3.7 (4)
0x38f0|            04 40 00 00                        |    .@..        |          value: 16388 0x38f4-0x38f7.7 (4)
0x38f0|                        00 00 00 00            |        ....    |          size: 0 0x38f8-0x38fb.7 (4)
0x38f0|                                    10         |            .   |          bind: "global" (1) 0x38fc-0x38fc.3 (0.4)
0x38f0|                                    10         |            .   |          type: "notype" (0) 0x38fc.4-0x38fc.7 (0.4)
0x38f0|                                       00      |             .  |          other_unused: 0 0x38fd-0x38fd.5 (0.6)
0x38f0|                                       00      |             .  |          visibility: "default" (0) 0x38fd.6-0x38fd.7 (0.2)
0x38f0|                                          14 00|              ..|          shndx: 20 0x38fe-0x38ff.7 (2)
      |                                               |                |        [44]{}: symbol 0x3900-0x390f.7 (16)
0x3900|38 02 00 00                                    |8...            |          name: "_end" (568) 0x3900-0x3903.7 (4)
0x3900|            24 40 00 00                        |    $@..        |          value: 16420 0x3904-0x3907.7 (4)
0x3900|                        00 00 00 00            |        ....    |          size: 0 0x3908-0x390b.7 (4)
0x3900|                                    10         |            .   |          bind: "global" (1) 0x390c-0x390c.3 (0.4)
0x3900|                                    10         |            .   |          type: "notype" (0) 0x390c.4-0x390c.7 (0.4)
0x3900|                                       00      |             .  |          other_unused: 0 0x390d-0x390d.5 (0.6)
0x3900|                                       00      |             .  |          visibility: "default" (0) 0x390d.6-0x390d.7 (0.2)
0x3900|                                          15 00|              ..|          shndx: 21 0x390e-0x390f.7 (2)
      |                                               |                |        [45]{}: symbol 0x3910-0x391f.7 (16)
0x3910|3d 02 00 00                                    |=...            |          name: "libbbb_bbb" (573) 0x3910-0x3913.7 (4)
0x3910|            b7 12 00 00                        |    ....        |          value: 4791 0x3914-0x3917.7 (4)
0x3910|                        2b 00 00 00            |        +...    |          size: 43 0x3918-0x391b.7 (4)
0x3910|                                    12         |            .   |          bind: "global" (1) 0x391c-0x391c.3 (0.4)
0x3910|                                    12         |            .   |          type: "func" (2) 0x391c.4-0x391c.7 (0.4)
0x3910|                                       00      |             .  |          other_unused: 0 0x391d-0x391d.5 (0.6)
0x3910|                                       00      |             .  |          visibility: "default" (0) 0x391d.6-0x391d.7 (0.2)
0x3910|                                          0b 00|              ..|          shndx: 11 0x391e-0x391f.7 (2)
      |                                               |                |        [46]{}: symbol 0x3920-0x392f.7 (16)
0x3920|48 02 00 00                                    |H...            |          name: "__libc_start_main" (584) 0x3920-0x3923.7 (4)
0x3920|            00 00 00 00                        |    ....        |          value: 0 0x3924-0x3927.7 (4)
0x3920|                        00 00 00 00            |        ....    |          size: 0 0x3928-0x392b.7 (4)
0x3920|                                    12         |            .   |          bind: "global" (1) 0x392c-0x392c.3 (0.4)
0x3920|                                    12         |            .   |          type: "func" (2) 0x392c.4-0x392c.7 (0.4)
0x3920|                                       00      |             .  |          other_unused: 0 0x392d-0x392d.5 (0.6)
0x3920|                                       00      |             .  |          visibility: "default" (0) 0x392d.6-0x392d.7 (0.2)
0x3920|                                          00 00|              ..|          shndx: 0 0x392e-0x392f.7 (2)
0x4190|01 00 00 00                                    |....            |      name: ".symtab" (1) 0x4190-0x4193.7 (4)
0x4190|            02 00 00 00                        |    ....        |      type: "symtab" (0x2) (Symbol table) 0x4194-0x4197.7 (4)
      |                                               |                |      flags{}: 0x4198-0x419b.7 (4)
0x4190|                        00                     |        .       |        link_order: false 0x4198-0x4198 (0.1)
0x4190|                        00                     |        .       |        info_link: false 0x4198.1-0x4198.1 (0.1)
0x4190|                        00                     |        .       |        strings: false 0x4198.2-0x4198.2 (0.1)
0x4190|                        00                     |        .       |        merge: false 0x4198.3-0x4198.3 (0.1)
0x4190|                        00                     |        .       |        unused0: 0 0x4198.4-0x4198.4 (0.1)
0x4190|                        00                     |        .       |        execinstr: false 0x4198.5-0x4198.5 (0.1)
0x4190|                        00                     |        .       |        alloc: false 0x4198.6-0x4198.6 (0.1)
0x4190|                        00                     |        .       |        write: false 0x4198.7-0x4198.7 (0.1)
0x4190|                           00                  |         .      |        tls: false 0x4199-0x4199 (0.1)
0x4190|                           00                  |         .      |        group: false 0x4199.1-0x4199.1 (0.1)
0x4190|                           00                  |         .      |        os_nonconforming: false 0x4199.2-0x4199.2 (0.1)
0x4190|                           00 00               |         ..     |        unused1: 0 0x4199.3-0x419a.3 (1.1)
0x4190|                              00 00            |          ..    |        os_specific: 0 0x419a.4-0x419b.3 (1)
0x4190|                                 00            |           .    |        processor_specific: 0 0x419b.4-0x419b.7 (0.4)
0x4190|                                    00 00 00 00|            ....|      addr: 0x0 0x419c-0x419f.7 (4)
0x41a0|40 36 00 00                                    |@6..            |      offset: 13888 0x41a0-0x41a3.7 (4)
0x41a0|            f0 02 00 00                        |    ....        |      size: 0x2f0 0x41a4-0x41a7.7 (4)
0x41a0|                        20 00 00 00            |         ...    |      link: 32 0x41a8-0x41ab.7 (4)
0x41a0|                                    17 00 00 00|            ....|      info: 23 0x41ac-0x41af.7 (4)
0x41b0|04 00 00 00                                    |....            |      addralign: 4 0x41b0-0x41b3.7 (4)
0x41b0|            10 00 00 00                        |    ....        |      entsize: 16 0x41b4-0x41b7.7 (4)
      |                                               |                |    [32]{}: section_header 0x3930-0x41df.7 (2224)
0x3930|00 53 63 72 74 31 2e 63 00 63 72 74 73 74 75 66|.Scrt1.c.crtstuf|      string: "\x00Scrt1.c\x00crtstuff.c\x00__CTOR_LIST__\x00__DTOR_LIST__\x00__"... 0x3930-0x3b89.7 (602)
*     |until 0x3b89.7 (602)                           |                |
0x41b0|                        09 00 00 00            |        ....    |      name: ".strtab" (9) 0x41b8-0x41bb.7 (4)
0x41b0|                                    03 00 00 00|            ....|      type: "strtab" (0x3) (String table) 0x41bc-0x41bf.7 (4)
      |                                               |                |      flags{}: 0x41c0-0x41c3.7 (4)
0x41c0|00                                             |.               |        link_order: false 0x41c0-0x41c0 (0.1)
0x41c0|00                                             |.               |        info_link: false 0x41c0.1-0x41c0.1 (0.1)
0x41c0|00                                             |.               |        strings: false 0x41c0.2-0x41c0.2 (0.1)
0x41c0|00                                             |.               |        merge: false 0x41c0.3-0x41c0.3 (0.1)
0x41c0|00                                             |.               |        unused0: 0 0x41c0.4-0x41c0.4 (0.1)
0x41c0|00                                             |.               |        execinstr: false 0x41c0.5-0x41c0.5 (0.1)
0x41c0|00                                             |.               |        alloc: false 0x41c0.6-0x41c0.6 (0.1)
0x41c0|00                                             |.               |        write: false 0x41c0.7-0x41c0.7 (0.1)
0x41c0|   00                                          | .              |        tls: false 0x41c1-0x41c1 (0.1)
0x41c0|   00                                          | .              |        group: false 0x41c1.1-0x41c1.1 (0.1)
0x41c0|   00                                          | .              |        os_nonconforming: false 0x41c1.2-0x41c1.2 (0.1)
0x41c0|   00 00                                       | ..             |        unused1: 0 0x41c1.3-0x41c2.3 (1.1)
0x41c0|      00 00                                    |  ..            |        os_specific: 0 0x41c2.4-0x41c3.3 (1)
0x41c0|         00                                    |   .            |        processor_specific: 0 0x41c3.4-0x41c3.7 (0.4)
0x41c0|            00 00 00 00                        |    ....        |      addr: 0x0 0x41c4-0x41c7.7 (4)
0x41c0|                        30 39 00 00            |        09..    |      offset: 14640 0x41c8-0x41cb.7 (4)
0x41c0|                                    5a 02 00 00|            Z...|      size: 0x25a 0x41cc-0x41cf.7 (4)
0x41d0|00 00 00 00                                    |....            |      link: 0 0x41d0-0x41d3.7 (4)
0x41d0|            00 00 00 00                        |    ....        |      info: 0 0x41d4-0x41d7.7 (4)
0x41d0|                        01 00 00 00            |        ....    |      addralign: 1 0x41d8-0x41db.7 (4)
0x41d0|                                    00 00 00 00|            ....|      entsize: 0 0x41dc-0x41df.7 (4)
      |                                               |                |    [33]{}: section_header 0x3b8a-0x4207.7 (1662)
0x3b80|                              00 2e 73 79 6d 74|          ..symt|      string: "\x00.symtab\x00.strtab\x00.shstrtab\x00.interp\x00.note.gnu.prope"... 0x3b8a-0x3cb7.7 (302)
0x3b90|61 62 00 2e 73 74 72 74 61 62 00 2e 73 68 73 74|ab..strtab..shst|
*     |until 0x3cb7.7 (302)                           |                |
0x41e0|11 00 00 00                                    |....            |      name: ".shstrtab" (17) 0x41e0-0x41e3.7 (4)
0x41e0|            03 00 00 00                        |    ....        |      type: "strtab" (0x3) (String table) 0x41e4-0x41e7.7 (4)
      |                                               |                |      flags{}: 0x41e8-0x41eb.7 (4)
0x41e0|                        00                     |        .       |        link_order: false 0x41e8-0x41e8 (0.1)
0x41e0|                        00                     |        .       |        info_link: false 0x41e8.1-0x41e8.1 (0.1)
0x41e0|                        00                     |        .       |        strings: false 0x41e8.2-0x41e8.2 (0.1)
0x41e0|                        00                     |        .       |        merge: false 0x41e8.3-0x41e8.3 (0.1)
0x41e0|                        00                     |        .       |        unused0: 0 0x41e8.4-0x41e8.4 (0.1)
0x41e0|                        00                     |        .       |        execinstr: false 0x41e8.5-0x41e8.5 (0.1)
0x41e0|                        00                     |        .       |        alloc: false 0x41e8.6-0x41e8.6 (0.1)
0x41e0|                        00                     |        .       |        write: false 0x41e8.7-0x41e8.7 (0.1)
0x41e0|                           00                  |         .      |        tls: false 0x41e9-0x41e9 (0.1)
0x41e0|                           00                  |         .      |        group: false 0x41e9.1-0x41e9.1 (0.1)
0x41e0|                           00                  |         .      |        os_nonconforming: false 0x41e9.2-0x41e9.2 (0.1)
0x41e0|                           00 00               |         ..     |        unused1: 0 0x41e9.3-0x41ea.3 (1.1)
0x41e0|                              00 00            |          ..    |        os_specific: 0 0x41ea.4-0x41eb.3 (1)
0x41e0|                                 00            |           .    |        processor_specific: 0 0x41eb.4-0x41eb.7 (0.4)
0x41e0|                                    00 00 00 00|            ....|      addr: 0x0 0x41ec-0x41ef.7 (4)
0x41f0|8a 3b 00 00                                    |.;..            |      offset: 15242 0x41f0-0x41f3.7 (4)
0x41f0|            2e 01 00 00                        |    ....        |      size: 0x12e 0x41f4-0x41f7.7 (4)
0x41f0|                        00 00 00 00            |        ....    |      link: 0 0x41f8-0x41fb.7 (4)
0x41f0|                                    00 00 00 00|            ....|      info: 0 0x41fc-0x41ff.7 (4)
0x4200|01 00 00 00                                    |....            |      addralign: 1 0x4200-0x4203.7 (4)
0x4200|            00 00 00 00|                       |    ....|       |      entsize: 0 0x4204-0x4207.7 (4)
0x03c0|                        00 00 00 00 00 00 00 00|        ........|  unknown0: raw bits 0x3c8-0xfff.7 (3128)
0x03d0|00 00 00 00 00 00 00 00 00 00 00 00 00 00 00 00|................|
*     |until 0xfff.7 (3128)                           |                |
0x1330|                                       00 00 00|             ...|  unknown1: raw bits 0x133d-0x1fff.7 (3267)
0x1340|00 00 00 00 00 00 00 00 00 00 00 00 00 00 00 00|................|
*     |until 0x1fff.7 (3267)                          |                |
0x2120|00 00 00 00 00 00 00 00 00 00 00 00 00 00 00 00|................|  unknown2: raw bits 0x2120-0x2efb.7 (3548)
*     |until 0x2efb.7 (3548)                          |                |
0x3060|                  00 00                        |      ..        |  unknown3: raw bits 0x3066-0x3067.7 (2)
0x35e0|                                             00|               .|  unknown4: raw bits 0x35ef-0x35ef.7 (1)
