$ fq -d elf dv coredump
       |00 01 02 03 04 05 06 07 08 09 0a 0b 0c 0d 0e 0f|0123456789abcdef|.{}: coredump (elf) 0x0-0x2efff.7 (192512)
       |                                               |                |  header{}: 0x0-0x33.7 (52)
       |                                               |                |    ident{}: 0x0-0xf.7 (16)
0x00000|7f 45 4c 46                                    |.ELF            |      magic: raw bits (valid) 0x0-0x3.7 (4)
0x00000|            01                                 |    .           |      class: 32 (1) 0x4-0x4.7 (1)
0x00000|               01                              |     .          |      data: "little_endian" (1) 0x5-0x5.7 (1)
0x00000|                  01                           |      .         |      version: 1 0x6-0x6.7 (1)
0x00000|                     00                        |       .        |      os_abi: "sysv" (0) 0x7-0x7.7 (1)
0x00000|                        00                     |        .       |      abi_version: 0 0x8-0x8.7 (1)
0x00000|                           00 00 00 00 00 00 00|         .......|      pad: raw bits (all zero) 0x9-0xf.7 (7)
0x00010|04 00                                          |..              |    type: "core" (0x4) 0x10-0x11.7 (2)
0x00010|      03 00                                    |  ..            |    machine: "x86" (0x3) (x86) 0x12-0x13.7 (2)
0x00010|            01 00 00 00                        |    ....        |    version: 1 0x14-0x17.7 (4)
0x00010|                        00 00 00 00            |        ....    |    entry: 0 0x18-0x1b.7 (4)
0x00010|                                    34 00 00 00|            4...|    phoff: 52 0x1c-0x1f.7 (4)
0x00020|00 00 00 00                                    |....            |    shoff: 0 0x20-0x23.7 (4)
0x00020|            00 00 00 00                        |    ....        |    flags: 0 0x24-0x27.7 (4)
0x00020|                        34 00                  |        4.      |    ehsize: 52 0x28-0x29.7 (2)
0x00020|                              20 00            |           .    |    phentsize: 32 0x2a-0x2b.7 (2)
0x00020|                                    11 00      |            ..  |    phnum: 17 0x2c-0x2d.7 (2)
0x00020|                                          00 00|              ..|    shentsize: 0 0x2e-0x2f.7 (2)
0x00030|00 00                                          |..              |    shnum: 0 0x30-0x31.7 (2)
0x00030|      00 00                                    |  ..            |    shstrndx: 0 0x32-0x33.7 (2)
       |                                               |                |  program_headers[0:17]: 0x34-0x2efff.7 (192460)
       |                                               |                |    [0]{}: program_header 0x34-0xd07.7 (3284)
0x00030|            04 00 00 00                        |    ....        |      type: "note" (4) (Auxiliary information) 0x34-0x37.7 (4)
0x00030|                        54 02 00 00            |        T...    |      offset: 0x254 0x38-0x3b.7 (4)
0x00030|                                    00 00 00 00|            ....|      vaddr: 0x0 0x3c-0x3f.7 (4)
0x00040|00 00 00 00                                    |....            |      paddr: 0x0 0x40-0x43.7 (4)
0x00040|            b4 0a 00 00                        |    ....        |      filesz: 2740 0x44-0x47.7 (4)
0x00040|                        00 00 00 00            |        ....    |      memsz: 0 0x48-0x4b.7 (4)
       |                                               |                |      flags{}: 0x4c-0x4f.7 (4)
0x00040|                                    00         |            .   |        unused0: 0 0x4c-0x4c.4 (0.5)
0x00040|                                    00         |            .   |        r: false 0x4c.5-0x4c.5 (0.1)
0x00040|                                    00         |            .   |        w: false 0x4c.6-0x4c.6 (0.1)
0x00040|                                    00         |            .   |        x: false 0x4c.7-0x4c.7 (0.1)
0x00040|                                       00 00 00|             ...|        unused1: 0 0x4d-0x4f.7 (3)
0x00050|00 00 00 00                                    |....            |      align: 0 0x50-0x53.7 (4)
       |                                               |                |      notes[0:9]: 0x254-0xd07.7 (2740)
       |                                               |                |        [0]{}: note 0x254-0x2f7.7 (164)
0x00250|            05 00 00 00                        |    ....        |          n_namesz: 5 0x254-0x257.7 (4)
0x00250|                        90 00 00 00            |        ....    |          n_descsz: 144 0x258-0x25b.7 (4)
0x00250|                                    01 00 00 00|            ....|          n_type: "prstatus" (0x1) 0x25c-0x25f.7 (4)
0x00260|43 4f 52 45 00                                 |CORE.           |          name: "CORE" 0x260-0x264.7 (5)
0x00260|               00 00 00                        |     ...        |          name_align: raw bits 0x265-0x267.7 (3)
0x00260|                        0b 00 00 00 00 00 00 00|        ........|          desc: raw bits 0x268-0x2f7.7 (144)
0x00270|00 00 00 00 0b 00 00 00 00 00 00 00 00 00 00 00|................|
*      |until 0x2f7.7 (144)                            |                |
       |                                               |                |        [1]{}: note 0x2f8-0x387.7 (144)
0x002f0|                        05 00 00 00            |        ....    |          n_namesz: 5 0x2f8-0x2fb.7 (4)
0x002f0|                                    7c 00 00 00|            |...|          n_descsz: 124 0x2fc-0x2ff.7 (4)
0x00300|03 00 00 00                                    |....            |          n_type: "prpsinfo" (0x3) 0x300-0x303.7 (4)
0x00300|            43 4f 52 45 00                     |    CORE.       |          name: "CORE" 0x304-0x308.7 (5)
0x00300|                           00 00 00            |         ...    |          name_align: raw bits 0x309-0x30b.7 (3)
0x00300|                                    00 52 00 00|            .R..|          desc: raw bits 0x30c-0x387.7 (124)
0x00310|00 06 40 00 00 00 00 00 23 00 00 00 22 00 00 00|..@.....#..."...|
*      |until 0x387.7 (124)                            |                |
       |                                               |                |        [2]{}: note 0x388-0x41b.7 (148)
0x00380|                        05 00 00 00            |        ....    |          n_namesz: 5 0x388-0x38b.7 (4)
0x00380|                                    80 00 00 00|            ....|          n_descsz: 128 0x38c-0x38f.7 (4)
0x00390|49 47 49 53                                    |IGIS            |          n_type: "siginfo" (0x53494749) (Signal info) 0x390-0x393.7 (4)
0x00390|            43 4f 52 45 00                     |    CORE.       |          name: "CORE" 0x394-0x398.7 (5)
0x00390|                           00 00 00            |         ...    |          name_align: raw bits 0x399-0x39b.7 (3)
0x00390|                                    0b 00 00 00|            ....|          desc: raw bits 0x39c-0x41b.7 (128)
0x003a0|00 00 00 00 01 00 00 00 00 00 00 00 00 00 00 00|................|
*      |until 0x41b.7 (128)                            |                |
       |                                               |                |        [3]{}: note 0x41c-0x4df.7 (196)
0x00410|                                    05 00 00 00|            ....|          n_namesz: 5 0x41c-0x41f.7 (4)
0x00420|b0 00 00 00                                    |....            |          n_descsz: 176 0x420-0x423.7 (4)
0x00420|            06 00 00 00                        |    ....        |          n_type: "auxv" (0x6) 0x424-0x427.7 (4)
0x00420|                        43 4f 52 45 00         |        CORE.   |          name: "CORE" 0x428-0x42c.7 (5)
0x00420|                                       00 00 00|             ...|          name_align: raw bits 0x42d-0x42f.7 (3)
0x00430|20 00 00 00 40 05 f0 f7 21 00 00 00 00 00 f0 f7| ...@...!.......|          desc: raw bits 0x430-0x4df.7 (176)
*      |until 0x4df.7 (176)                            |                |
       |                                               |                |        [4]{}: note 0x4e0-0x6db.7 (508)
0x004e0|05 00 00 00                                    |....            |          n_namesz: 5 0x4e0-0x4e3.7 (4)
0x004e0|            e8 01 00 00                        |    ....        |          n_descsz: 488 0x4e4-0x4e7.7 (4)
0x004e0|                        45 4c 49 46            |        ELIF    |          n_type: "file" (0x46494c45) (File info) 0x4e8-0x4eb.7 (4)
0x004e0|                                    43 4f 52 45|            CORE|          name: "CORE" 0x4ec-0x4f0.7 (5)
0x004f0|00                                             |.               |
0x004f0|   00 00 00                                    | ...            |          name_align: raw bits 0x4f1-0x4f3.7 (3)
0x004f0|            0a 00 00 00 00 10 00 00 00 b0 5b 56|    ..........[V|          desc: raw bits 0x4f4-0x6db.7 (488)
0x00500|00 c0 5b 56 00 00 00 00 00 c0 5b 56 00 d0 5b 56|..[V......[V..[V|
*      |until 0x6db.7 (488)                            |                |
       |                                               |                |        [5]{}: note 0x6dc-0x75b.7 (128)
0x006d0|                                    05 00 00 00|            ....|          n_namesz: 5 0x6dc-0x6df.7 (4)
0x006e0|6c 00 00 00                                    |l...            |          n_descsz: 108 0x6e0-0x6e3.7 (4)
0x006e0|            02 00 00 00                        |    ....        |          n_type: "prfpreg" (0x2) 0x6e4-0x6e7.7 (4)
0x006e0|                        43 4f 52 45 00         |        CORE.   |          name: "CORE" 0x6e8-0x6ec.7 (5)
0x006e0|                                       00 00 00|             ...|          name_align: raw bits 0x6ed-0x6ef.7 (3)
0x006f0|7f 03 ff ff 00 00 ff ff ff ff ff ff 00 00 00 00|................|          desc: raw bits 0x6f0-0x75b.7 (108)
*      |until 0x75b.7 (108)                            |                |
       |                                               |                |        [6]{}: note 0x75c-0x96f.7 (532)
0x00750|                                    06 00 00 00|            ....|          n_namesz: 6 0x75c-0x75f.7 (4)
0x00760|00 02 00 00                                    |....            |          n_descsz: 512 0x760-0x763.7 (4)
0x00760|            7f 2b e6 46                        |    .+.F        |          n_type: "prxfpreg" (0x46e62b7f) 0x764-0x767.7 (4)
0x00760|                        4c 49 4e 55 58 00      |        LINUX.  |          name: "LINUX" 0x768-0x76d.7 (6)
0x00760|                                          00 00|              ..|          name_align: raw bits 0x76e-0x76f.7 (2)
0x00770|7f 03 00 00 00 00 00 00 00 00 00 00 00 00 00 00|................|          desc: raw bits 0x770-0x96f.7 (512)
*      |until 0x96f.7 (512)                            |                |
       |                                               |                |        [7]{}: note 0x970-0xcc3.7 (852)
0x00970|06 00 00 00                                    |....            |          n_namesz: 6 0x970-0x973.7 (4)
0x00970|            40 03 00 00                        |    @...        |          n_descsz: 832 0x974-0x977.7 (4)
0x00970|                        02 02 00 00            |        ....    |          n_type: "x86_xstate" (0x202) (x86 extended state using xsave) 0x978-0x97b.7 (4)
0x00970|                                    4c 49 4e 55|            LINU|          name: "LINUX" 0x97c-0x981.7 (6)
0x00980|58 00                                          |X.              |
0x00980|      00 00                                    |  ..            |          name_align: raw bits 0x982-0x983.7 (2)
0x00980|            7f 03 00 00 00 00 00 00 00 00 00 00|    ............|          desc: raw bits 0x984-0xcc3.7 (832)
0x00990|00 00 00 00 00 00 00 00 00 00 00 00 80 1f 00 00|................|
*      |until 0xcc3.7 (832)                            |                |
       |                                               |                |        [8]{}: note 0xcc4-0xd07.7 (68)
0x00cc0|            06 00 00 00                        |    ....        |          n_namesz: 6 0xcc4-0xcc7.7 (4)
0x00cc0|                        30 00 00 00            |        0...    |          n_descsz: 48 0xcc8-0xccb.7 (4)
0x00cc0|                                    00 02 00 00|            ....|          n_type: "386_tls" (0x200) (i386 TLS slots (struct user_desc)) 0xccc-0xccf.7 (4)
0x00cd0|4c 49 4e 55 58 00                              |LINUX.          |          name: "LINUX" 0xcd0-0xcd5.7 (6)
0x00cd0|                  00 00                        |      ..        |          name_align: raw bits 0xcd6-0xcd7.7 (2)
0x00cd0|                        0c 00 00 00 84 9c f9 f7|        ........|          desc: raw bits 0xcd8-0xd07.7 (48)
0x00ce0|ff ff 0f 00 51 00 00 00 0d 00 00 00 00 00 00 00|....Q...........|
*      |until 0xd07.7 (48)                             |                |
       |                                               |                |    [1]{}: program_header 0x54-0xfff.7 (4012)
0x00050|            01 00 00 00                        |    ....        |      type: "load" (1) (Loadable segment) 0x54-0x57.7 (4)
0x00050|                        00 10 00 00            |        ....    |      offset: 0x1000 0x58-0x5b.7 (4)
0x00050|                                    00 b0 5b 56|            ..[V|      vaddr: 0x565bb000 0x5c-0x5f.7 (4)
0x00060|00 00 00 00                                    |....            |      paddr: 0x0 0x60-0x63.7 (4)
0x00060|            00 00 00 00                        |    ....        |      filesz: 0 0x64-0x67.7 (4)
0x00060|                        00 10 00 00            |        ....    |      memsz: 4096 0x68-0x6b.7 (4)
       |                                               |                |      flags{}: 0x6c-0x6f.7 (4)
0x00060|                                    04         |            .   |        unused0: 0 0x6c-0x6c.4 (0.5)
0x00060|                                    04         |            .   |        r: true 0x6c.5-0x6c.5 (0.1)
0x00060|                                    04         |            .   |        w: false 0x6c.6-0x6c.6 (0.1)
0x00060|                                    04         |            .   |        x: false 0x6c.7-0x6c.7 (0.1)
0x00060|                                       00 00 00|             ...|        unused1: 0 0x6d-0x6f.7 (3)
0x00070|00 10 00 00                                    |....            |      align: 4096 0x70-0x73.7 (4)
       |                                               |                |      data: raw bits 0x1000-NA (0)
       |                                               |                |    [2]{}: program_header 0x74-0xfff.7 (3980)
0x00070|            01 00 00 00                        |    ....        |      type: "load" (1) (Loadable segment) 0x74-0x77.7 (4)
0x00070|                        00 10 00 00            |        ....    |      offset: 0x1000 0x78-0x7b.7 (4)
0x00070|                                    00 c0 5b 56|            ..[V|      vaddr: 0x565bc000 0x7c-0x7f.7 (4)
0x00080|00 00 00 00                                    |....            |      paddr: 0x0 0x80-0x83.7 (4)
0x00080|            00 00 00 00                        |    ....        |      filesz: 0 0x84-0x87.7 (4)
0x00080|                        00 10 00 00            |        ....    |      memsz: 4096 0x88-0x8b.7 (4)
       |                                               |                |      flags{}: 0x8c-0x8f.7 (4)
0x00080|                                    05         |            .   |        unused0: 0 0x8c-0x8c.4 (0.5)
0x00080|                                    05         |            .   |        r: true 0x8c.5-0x8c.5 (0.1)
0x00080|                                    05         |            .   |        w: false 0x8c.6-0x8c.6 (0.1)
0x00080|                                    05         |            .   |        x: true 0x8c.7-0x8c.7 (0.1)
0x00080|                                       00 00 00|             ...|        unused1: 0 0x8d-0x8f.7 (3)
0x00090|00 10 00 00                                    |....            |      align: 4096 0x90-0x93.7 (4)
       |                                               |                |      data: raw bits 0x1000-NA (0)
       |                                               |                |    [3]{}: program_header 0x94-0xfff.7 (3948)
0x00090|            01 00 00 00                        |    ....        |      type: "load" (1) (Loadable segment) 0x94-0x97.7 (4)
0x00090|                        00 10 00 00            |        ....    |      offset: 0x1000 0x98-0x9b.7 (4)
0x00090|                                    00 d0 5b 56|            ..[V|      vaddr: 0x565bd000 0x9c-0x9f.7 (4)
0x000a0|00 00 00 00                                    |....            |      paddr: 0x0 0xa0-0xa3.7 (4)
0x000a0|            00 00 00 00                        |    ....        |      filesz: 0 0xa4-0xa7.7 (4)
0x000a0|                        00 10 00 00            |        ....    |      memsz: 4096 0xa8-0xab.7 (4)
       |                                               |                |      flags{}: 0xac-0xaf.7 (4)
0x000a0|                                    04         |            .   |        unused0: 0 0xac-0xac.4 (0.5)
0x000a0|                                    04         |            .   |        r: true 0xac.5-0xac.5 (0.1)
0x000a0|                                    04         |            .   |        w: false 0xac.6-0xac.6 (0.1)
0x000a0|                                    04         |            .   |        x: false 0xac.7-0xac.7 (0.1)
0x000a0|                                       00 00 00|             ...|        unused1: 0 0xad-0xaf.7 (3)
0x000b0|00 10 00 00                                    |....            |      align: 4096 0xb0-0xb3.7 (4)
       |                                               |                |      data: raw bits 0x1000-NA (0)
       |                                               |                |    [4]{}: program_header 0xb4-0x1fff.7 (8012)
0x000b0|            01 00 00 00                        |    ....        |      type: "load" (1) (Loadable segment) 0xb4-0xb7.7 (4)
0x000b0|                        00 10 00 00            |        ....    |      offset: 0x1000 0xb8-0xbb.7 (4)
0x000b0|                                    00 e0 5b 56|            ..[V|      vaddr: 0x565be000 0xbc-0xbf.7 (4)
0x000c0|00 00 00 00                                    |....            |      paddr: 0x0 0xc0-0xc3.7 (4)
0x000c0|            00 10 00 00                        |    ....        |      filesz: 4096 0xc4-0xc7.7 (4)
0x000c0|                        00 10 00 00            |        ....    |      memsz: 4096 0xc8-0xcb.7 (4)
       |                                               |                |      flags{}: 0xcc-0xcf.7 (4)
0x000c0|                                    04         |            .   |        unused0: 0 0xcc-0xcc.4 (0.5)
0x000c0|                                    04         |            .   |        r: true 0xcc.5-0xcc.5 (0.1)
0x000c0|                                    04         |            .   |        w: false 0xcc.6-0xcc.6 (0.1)
0x000c0|                                    04         |            .   |        x: false 0xcc.7-0xcc.7 (0.1)
0x000c0|                                       00 00 00|             ...|        unused1: 0 0xcd-0xcf.7 (3)
0x000d0|00 10 00 00                                    |....            |      align: 4096 0xd0-0xd3.7 (4)
0x01000|01 1b 03 3b 28 00 00 00 04 00 00 00 20 f0 ff ff|...;(....... ...|      data: raw bits 0x1000-0x1fff.7 (4096)
*      |until 0x1fff.7 (4096)                          |                |
       |                                               |                |    [5]{}: program_header 0xd4-0x2fff.7 (12076)
0x000d0|            01 00 00 00                        |    ....        |      type: "load" (1) (Loadable segment) 0xd4-0xd7.7 (4)
0x000d0|                        00 20 00 00            |        . ..    |      offset: 0x2000 0xd8-0xdb.7 (4)
0x000d0|                                    00 f0 5b 56|            ..[V|      vaddr: 0x565bf000 0xdc-0xdf.7 (4)
0x000e0|00 00 00 00                                    |....            |      paddr: 0x0 0xe0-0xe3.7 (4)
0x000e0|            00 10 00 00                        |    ....        |      filesz: 4096 0xe4-0xe7.7 (4)
0x000e0|                        00 10 00 00            |        ....    |      memsz: 4096 0xe8-0xeb.7 (4)
       |                                               |                |      flags{}: 0xec-0xef.7 (4)
0x000e0|                                    06         |            .   |        unused0: 0 0xec-0xec.4 (0.5)
0x000e0|                                    06         |            .   |        r: true 0xec.5-0xec.5 (0.1)
0x000e0|                                    06         |            .   |        w: true 0xec.6-0xec.6 (0.1)
0x000e0|                                    06         |            .   |        x: false 0xec.7-0xec.7 (0.1)
0x000e0|                                       00 00 00|             ...|        unused1: 0 0xed-0xef.7 (3)
0x000f0|00 10 00 00                                    |....            |      align: 4096 0xf0-0xf3.7 (4)
0x02000|00 f0 5b 56 00 00 00 00 00 00 00 00 00 00 00 00|..[V............|      data: raw bits 0x2000-0x2fff.7 (4096)
*      |until 0x2fff.7 (4096)                          |                |
       |                                               |                |    [6]{}: program_header 0xf4-0x2fff.7 (12044)
0x000f0|            01 00 00 00                        |    ....        |      type: "load" (1) (Loadable segment) 0xf4-0xf7.7 (4)
0x000f0|                        00 30 00 00            |        .0..    |      offset: 0x3000 0xf8-0xfb.7 (4)
0x000f0|                                    00 f0 de 56|            ...V|      vaddr: 0x56def000 0xfc-0xff.7 (4)
0x00100|00 00 00 00                                    |....            |      paddr: 0x0 0x100-0x103.7 (4)
0x00100|            00 00 00 00                        |    ....        |      filesz: 0 0x104-0x107.7 (4)
0x00100|                        00 10 00 00            |        ....    |      memsz: 4096 0x108-0x10b.7 (4)
       |                                               |                |      flags{}: 0x10c-0x10f.7 (4)
0x00100|                                    00         |            .   |        unused0: 0 0x10c-0x10c.4 (0.5)
0x00100|                                    00         |            .   |        r: false 0x10c.5-0x10c.5 (0.1)
0x00100|                                    00         |            .   |        w: false 0x10c.6-0x10c.6 (0.1)
0x00100|                                    00         |            .   |        x: false 0x10c.7-0x10c.7 (0.1)
0x00100|                                       00 00 00|             ...|        unused1: 0 0x10d-0x10f.7 (3)
0x00110|00 10 00 00                                    |....            |      align: 4096 0x110-0x113.7 (4)
       |                                               |                |      data: raw bits 0x3000-NA (0)
       |                                               |                |    [7]{}: program_header 0x114-0x3fff.7 (16108)
0x00110|            01 00 00 00                        |    ....        |      type: "load" (1) (Loadable segment) 0x114-0x117.7 (4)
0x00110|                        00 30 00 00            |        .0..    |      offset: 0x3000 0x118-0x11b.7 (4)
0x00110|                                    00 00 df 56|            ...V|      vaddr: 0x56df0000 0x11c-0x11f.7 (4)
0x00120|00 00 00 00                                    |....            |      paddr: 0x0 0x120-0x123.7 (4)
0x00120|            00 10 00 00                        |    ....        |      filesz: 4096 0x124-0x127.7 (4)
0x00120|                        00 10 00 00            |        ....    |      memsz: 4096 0x128-0x12b.7 (4)
       |                                               |                |      flags{}: 0x12c-0x12f.7 (4)
0x00120|                                    06         |            .   |        unused0: 0 0x12c-0x12c.4 (0.5)
0x00120|                                    06         |            .   |        r: true 0x12c.5-0x12c.5 (0.1)
0x00120|                                    06         |            .   |        w: true 0x12c.6-0x12c.6 (0.1)
0x00120|                                    06         |            .   |        x: false 0x12c.7-0x12c.7 (0.1)
0x00120|                                       00 00 00|             ...|        unused1: 0 0x12d-0x12f.7 (3)
0x00130|00 10 00 00                                    |....            |      align: 4096 0x130-0x133.7 (4)
0x03000|5e 1e d2 01 b9 17 c2 21 00 00 00 00 aa 00 00 00|^......!........|      data: raw bits 0x3000-0x3fff.7 (4096)
*      |until 0x3fff.7 (4096)                          |                |
       |                                               |                |    [8]{}: program_header 0x134-0x7fff.7 (32460)
0x00130|            01 00 00 00                        |    ....        |      type: "load" (1) (Loadable segment) 0x134-0x137.7 (4)
0x00130|                        00 40 00 00            |        .@..    |      offset: 0x4000 0x138-0x13b.7 (4)
0x00130|                                    00 c0 ef f7|            ....|      vaddr: 0xf7efc000 0x13c-0x13f.7 (4)
0x00140|00 00 00 00                                    |....            |      paddr: 0x0 0x140-0x143.7 (4)
0x00140|            00 40 00 00                        |    .@..        |      filesz: 16384 0x144-0x147.7 (4)
0x00140|                        00 40 00 00            |        .@..    |      memsz: 16384 0x148-0x14b.7 (4)
       |                                               |                |      flags{}: 0x14c-0x14f.7 (4)
0x00140|                                    04         |            .   |        unused0: 0 0x14c-0x14c.4 (0.5)
0x00140|                                    04         |            .   |        r: true 0x14c.5-0x14c.5 (0.1)
0x00140|                                    04         |            .   |        w: false 0x14c.6-0x14c.6 (0.1)
0x00140|                                    04         |            .   |        x: false 0x14c.7-0x14c.7 (0.1)
0x00140|                                       00 00 00|             ...|        unused1: 0 0x14d-0x14f.7 (3)
0x00150|00 10 00 00                                    |....            |      align: 4096 0x150-0x153.7 (4)
0x04000|00 00 00 00 00 00 00 00 00 00 00 00 00 00 00 00|................|      data: raw bits 0x4000-0x7fff.7 (16384)
*      |until 0x7fff.7 (16384)                         |                |
       |                                               |                |    [9]{}: program_header 0x154-0x9fff.7 (40620)
0x00150|            01 00 00 00                        |    ....        |      type: "load" (1) (Loadable segment) 0x154-0x157.7 (4)
0x00150|                        00 80 00 00            |        ....    |      offset: 0x8000 0x158-0x15b.7 (4)
0x00150|                                    00 00 f0 f7|            ....|      vaddr: 0xf7f00000 0x15c-0x15f.7 (4)
0x00160|00 00 00 00                                    |....            |      paddr: 0x0 0x160-0x163.7 (4)
0x00160|            00 20 00 00                        |    . ..        |      filesz: 8192 0x164-0x167.7 (4)
0x00160|                        00 20 00 00            |        . ..    |      memsz: 8192 0x168-0x16b.7 (4)
       |                                               |                |      flags{}: 0x16c-0x16f.7 (4)
0x00160|                                    05         |            .   |        unused0: 0 0x16c-0x16c.4 (0.5)
0x00160|                                    05         |            .   |        r: true 0x16c.5-0x16c.5 (0.1)
0x00160|                                    05         |            .   |        w: false 0x16c.6-0x16c.6 (0.1)
0x00160|                                    05         |            .   |        x: true 0x16c.7-0x16c.7 (0.1)
0x00160|                                       00 00 00|             ...|        unused1: 0 0x16d-0x16f.7 (3)
0x00170|00 10 00 00                                    |....            |      align: 4096 0x170-0x173.7 (4)
0x08000|7f 45 4c 46 01 01 01 00 00 00 00 00 00 00 00 00|.ELF............|      data: raw bits 0x8000-0x9fff.7 (8192)
*      |until 0x9fff.7 (8192)                          |                |
       |                                               |                |    [10]{}: program_header 0x174-0x9fff.7 (40588)
0x00170|            01 00 00 00                        |    ....        |      type: "load" (1) (Loadable segment) 0x174-0x177.7 (4)
0x00170|                        00 a0 00 00            |        ....    |      offset: 0xa000 0x178-0x17b.7 (4)
0x00170|                                    00 20 f0 f7|            . ..|      vaddr: 0xf7f02000 0x17c-0x17f.7 (4)
0x00180|00 00 00 00                                    |....            |      paddr: 0x0 0x180-0x183.7 (4)
0x00180|            00 00 00 00                        |    ....        |      filesz: 0 0x184-0x187.7 (4)
0x00180|                        00 20 01 00            |        . ..    |      memsz: 73728 0x188-0x18b.7 (4)
       |                                               |                |      flags{}: 0x18c-0x18f.7 (4)
0x00180|                                    04         |            .   |        unused0: 0 0x18c-0x18c.4 (0.5)
0x00180|                                    04         |            .   |        r: true 0x18c.5-0x18c.5 (0.1)
0x00180|                                    04         |            .   |        w: false 0x18c.6-0x18c.6 (0.1)
0x00180|                                    04         |            .   |        x: false 0x18c.7-0x18c.7 (0.1)
0x00180|                                       00 00 00|             ...|        unused1: 0 0x18d-0x18f.7 (3)
0x00190|00 10 00 00                                    |....            |      align: 4096 0x190-0x193.7 (4)
       |                                               |                |      data: raw bits 0xa000-NA (0)
       |                                               |                |    [11]{}: program_header 0x194-0x9fff.7 (40556)
0x00190|            01 00 00 00                        |    ....        |      type: "load" (1) (Loadable segment) 0x194-0x197.7 (4)
0x00190|                        00 a0 00 00            |        ....    |      offset: 0xa000 0x198-0x19b.7 (4)
0x00190|                                    00 40 f1 f7|            .@..|      vaddr: 0xf7f14000 0x19c-0x19f.7 (4)
0x001a0|00 00 00 00                                    |....            |      paddr: 0x0 0x1a0-0x1a3.7 (4)
0x001a0|            00 00 00 00                        |    ....        |      filesz: 0 0x1a4-0x1a7.7 (4)
0x001a0|                        00 f0 04 00            |        ....    |      memsz: 323584 0x1a8-0x1ab.7 (4)
       |                                               |                |      flags{}: 0x1ac-0x1af.7 (4)
0x001a0|                                    05         |            .   |        unused0: 0 0x1ac-0x1ac.4 (0.5)
0x001a0|                                    05         |            .   |        r: true 0x1ac.5-0x1ac.5 (0.1)
0x001a0|                                    05         |            .   |        w: false 0x1ac.6-0x1ac.6 (0.1)
0x001a0|                                    05         |            .   |        x: true 0x1ac.7-0x1ac.7 (0.1)
0x001a0|                                       00 00 00|             ...|        unused1: 0 0x1ad-0x1af.7 (3)
0x001b0|00 10 00 00                                    |....            |      align: 4096 0x1b0-0x1b3.7 (4)
       |                                               |                |      data: raw bits 0xa000-NA (0)
       |                                               |                |    [12]{}: program_header 0x1b4-0x9fff.7 (40524)
0x001b0|            01 00 00 00                        |    ....        |      type: "load" (1) (Loadable segment) 0x1b4-0x1b7.7 (4)
0x001b0|                        00 a0 00 00            |        ....    |      offset: 0xa000 0x1b8-0x1bb.7 (4)
0x001b0|                                    00 30 f6 f7|            .0..|      vaddr: 0xf7f63000 0x1bc-0x1bf.7 (4)
0x001c0|00 00 00 00                                    |....            |      paddr: 0x0 0x1c0-0x1c3.7 (4)
0x001c0|            00 00 00 00                        |    ....        |      filesz: 0 0x1c4-0x1c7.7 (4)
0x001c0|                        00 40 03 00            |        .@..    |      memsz: 212992 0x1c8-0x1cb.7 (4)
       |                                               |                |      flags{}: 0x1cc-0x1cf.7 (4)
0x001c0|                                    04         |            .   |        unused0: 0 0x1cc-0x1cc.4 (0.5)
0x001c0|                                    04         |            .   |        r: true 0x1cc.5-0x1cc.5 (0.1)
0x001c0|                                    04         |            .   |        w: false 0x1cc.6-0x1cc.6 (0.1)
0x001c0|                                    04         |            .   |        x: false 0x1cc.7-0x1cc.7 (0.1)
0x001c0|                                       00 00 00|             ...|        unused1: 0 0x1cd-0x1cf.7 (3)
0x001d0|00 10 00 00                                    |....            |      align: 4096 0x1d0-0x1d3.7 (4)
       |                                               |                |      data: raw bits 0xa000-NA (0)
       |                                               |                |    [13]{}: program_header 0x1d4-0xafff.7 (44588)
0x001d0|            01 00 00 00                        |    ....        |      type: "load" (1) (Loadable segment) 0x1d4-0x1d7.7 (4)
0x001d0|                        00 a0 00 00            |        ....    |      offset: 0xa000 0x1d8-0x1db.7 (4)
0x001d0|                                    00 70 f9 f7|            .p..|      vaddr: 0xf7f97000 0x1dc-0x1df.7 (4)
0x001e0|00 00 00 00                                    |....            |      paddr: 0x0 0x1e0-0x1e3.7 (4)
0x001e0|            00 10 00 00                        |    ....        |      filesz: 4096 0x1e4-0x1e7.7 (4)
0x001e0|                        00 10 00 00            |        ....    |      memsz: 4096 0x1e8-0x1eb.7 (4)
       |                                               |                |      flags{}: 0x1ec-0x1ef.7 (4)
0x001e0|                                    04         |            .   |        unused0: 0 0x1ec-0x1ec.4 (0.5)
0x001e0|                                    04         |            .   |        r: true 0x1ec.5-0x1ec.5 (0.1)
0x001e0|                                    04         |            .   |        w: false 0x1ec.6-0x1ec.6 (0.1)
0x001e0|                                    04         |            .   |        x: false 0x1ec.7-0x1ec.7 (0.1)
0x001e0|                                       00 00 00|             ...|        unused1: 0 0x1ed-0x1ef.7 (3)
0x001f0|00 10 00 00                                    |....            |      align: 4096 0x1f0-0x1f3.7 (4)
0x0a000|25 73 00 00 01 1b 03 3b 40 00 00 00 07 00 00 00|%s.....;@.......|      data: raw bits 0xa000-0xafff.7 (4096)
*      |until 0xafff.7 (4096)                          |                |
       |                                               |                |    [14]{}: program_header 0x1f4-0xbfff.7 (48652)
0x001f0|            01 00 00 00                        |    ....        |      type: "load" (1) (Loadable segment) 0x1f4-0x1f7.7 (4)
0x001f0|                        00 b0 00 00            |        ....    |      offset: 0xb000 0x1f8-0x1fb.7 (4)
0x001f0|                                    00 80 f9 f7|            ....|      vaddr: 0xf7f98000 0x1fc-0x1ff.7 (4)
0x00200|00 00 00 00                                    |....            |      paddr: 0x0 0x200-0x203.7 (4)
0x00200|            00 10 00 00                        |    ....        |      filesz: 4096 0x204-0x207.7 (4)
0x00200|                        00 10 00 00            |        ....    |      memsz: 4096 0x208-0x20b.7 (4)
       |                                               |                |      flags{}: 0x20c-0x20f.7 (4)
0x00200|                                    06         |            .   |        unused0: 0 0x20c-0x20c.4 (0.5)
0x00200|                                    06         |            .   |        r: true 0x20c.5-0x20c.5 (0.1)
0x00200|                                    06         |            .   |        w: true 0x20c.6-0x20c.6 (0.1)
0x00200|                                    06         |            .   |        x: false 0x20c.7-0x20c.7 (0.1)
0x00200|                                       00 00 00|             ...|        unused1: 0 0x20d-0x20f.7 (3)
0x00210|00 10 00 00                                    |....            |      align: 4096 0x210-0x213.7 (4)
0x0b000|00 00 00 00 2d f4 51 58 cf 8c b1 c0 46 f6 b5 cb|....-.QX....F...|      data: raw bits 0xb000-0xbfff.7 (4096)
*      |until 0xbfff.7 (4096)                          |                |
       |                                               |                |    [15]{}: program_header 0x214-0xdfff.7 (56812)
0x00210|            01 00 00 00                        |    ....        |      type: "load" (1) (Loadable segment) 0x214-0x217.7 (4)
0x00210|                        00 c0 00 00            |        ....    |      offset: 0xc000 0x218-0x21b.7 (4)
0x00210|                                    00 90 f9 f7|            ....|      vaddr: 0xf7f99000 0x21c-0x21f.7 (4)
0x00220|00 00 00 00                                    |....            |      paddr: 0x0 0x220-0x223.7 (4)
0x00220|            00 20 00 00                        |    . ..        |      filesz: 8192 0x224-0x227.7 (4)
0x00220|                        00 20 00 00            |        . ..    |      memsz: 8192 0x228-0x22b.7 (4)
       |                                               |                |      flags{}: 0x22c-0x22f.7 (4)
0x00220|                                    06         |            .   |        unused0: 0 0x22c-0x22c.4 (0.5)
0x00220|                                    06         |            .   |        r: true 0x22c.5-0x22c.5 (0.1)
0x00220|                                    06         |            .   |        w: true 0x22c.6-0x22c.6 (0.1)
0x00220|                                    06         |            .   |        x: false 0x22c.7-0x22c.7 (0.1)
0x00220|                                       00 00 00|             ...|        unused1: 0 0x22d-0x22f.7 (3)
0x00230|00 10 00 00                                    |....            |      align: 4096 0x230-0x233.7 (4)
0x0c000|00 00 00 00 00 00 00 00 00 00 00 00 00 00 00 00|................|      data: raw bits 0xc000-0xdfff.7 (8192)
*      |until 0xdfff.7 (8192)                          |                |
       |                                               |                |    [16]{}: program_header 0x234-0x2efff.7 (191948)
0x00230|            01 00 00 00                        |    ....        |      type: "load" (1) (Loadable segment) 0x234-0x237.7 (4)
0x00230|                        00 e0 00 00            |        ....    |      offset: 0xe000 0x238-0x23b.7 (4)
0x00230|                                    00 50 f3 ff|            .P..|      vaddr: 0xfff35000 0x23c-0x23f.7 (4)
0x00240|00 00 00 00                                    |....            |      paddr: 0x0 0x240-0x243.7 (4)
0x00240|            00 10 02 00                        |    ....        |      filesz: 135168 0x244-0x247.7 (4)
0x00240|                        00 10 02 00            |        ....    |      memsz: 135168 0x248-0x24b.7 (4)
       |                                               |                |      flags{}: 0x24c-0x24f.7 (4)
0x00240|                                    06         |            .   |        unused0: 0 0x24c-0x24c.4 (0.5)
0x00240|                                    06         |            .   |        r: true 0x24c.5-0x24c.5 (0.1)
0x00240|                                    06         |            .   |        w: true 0x24c.6-0x24c.6 (0.1)
0x00240|                                    06         |            .   |        x: false 0x24c.7-0x24c.7 (0.1)
0x00240|                                       00 00 00|             ...|        unused1: 0 0x24d-0x24f.7 (3)
0x00250|00 10 00 00                                    |....            |      align: 4096 0x250-0x253.7 (4)
0x0e000|00 00 00 00 00 00 00 00 00 00 00 00 00 00 00 00|................|      data: raw bits 0xe000-0x2efff.7 (135168)
*      |until 0x2efff.7 (end) (135168)                 |                |
       |                                               |                |  section_headers[0:0]: 0x254-NA (0)
0x00d00|                        00 00 00 00 00 00 00 00|        ........|  gap0: raw bits 0xd08-0xfff.7 (760)
0x00d10|00 00 00 00 00 00 00 00 00 00 00 00 00 00 00 00|................|
*      |until 0xfff.7 (760)                            |                |
