$ fq -d ar dv libbbb.a
     |00 01 02 03 04 05 06 07 08 09 0a 0b 0c 0d 0e 0f|0123456789abcdef|.{}: libbbb.a (ar) 0x0-0x5ee (1518)
0x000|21 3c 61 72 63 68 3e 0a                        |!<arch>.        |  signature: "!<arch>\n" (valid) 0x0-0x8 (8)
     |                                               |                |  files[0:2]: 0x8-0x5ee (1510)
     |                                               |                |    [0]{}: file 0x8-0x72 (106)
0x000|                        2f 20 20 20 20 20 20 20|        /       |      identifier: "/" 0x8-0x18 (16)
0x010|20 20 20 20 20 20 20 20                        |                |
0x010|                        30 20 20 20 20 20 20 20|        0       |      modification_timestamp: 0 ("0") 0x18-0x24 (12)
0x020|20 20 20 20                                    |                |
0x020|            30 20 20 20 20 20                  |    0           |      owner_id: 0 ("0") 0x24-0x2a (6)
0x020|                              30 20 20 20 20 20|          0     |      group_id: 0 ("0") 0x2a-0x30 (6)
0x030|30 20 20 20 20 20 20 20                        |0               |      file_mode: 0 ("0") 0x30-0x38 (8)
0x030|                        34 36 20 20 20 20 20 20|        46      |      file_size: 46 ("46") 0x38-0x42 (10)
0x040|20 20                                          |                |
0x040|      60 0a                                    |  `.            |      ending_characters: "`\n" 0x42-0x44 (2)
0x040|            00 00 00 02 00 00 00 72 00 00 00 72|    .......r...r|      data: raw bits 0x44-0x72 (46)
0x050|6c 69 62 62 62 62 5f 62 62 62 00 5f 5f 78 38 36|libbbb_bbb.__x86|
*    |until 0x71.7 (46)                              |                |
     |                                               |                |    [1]{}: file 0x72-0x5ee (1404)
0x070|      6c 69 62 62 62 62 2e 6f 2f 20 20 20 20 20|  libbbb.o/     |      identifier: "libbbb.o/" 0x72-0x82 (16)
0x080|20 20                                          |                |
0x080|      30 20 20 20 20 20 20 20 20 20 20 20      |  0             |      modification_timestamp: 0 ("0") 0x82-0x8e (12)
0x080|                                          30 20|              0 |      owner_id: 0 ("0") 0x8e-0x94 (6)
0x090|20 20 20 20                                    |                |
0x090|            30 20 20 20 20 20                  |    0           |      group_id: 0 ("0") 0x94-0x9a (6)
0x090|                              36 34 34 20 20 20|          644   |      file_mode: 420 ("644") 0x9a-0xa2 (8)
0x0a0|20 20                                          |                |
0x0a0|      31 33 34 34 20 20 20 20 20 20            |  1344          |      file_size: 1344 ("1344") 0xa2-0xac (10)
0x0a0|                                    60 0a      |            `.  |      ending_characters: "`\n" 0xac-0xae (2)
     |00 01 02 03 04 05 06 07 08 09 0a 0b 0c 0d 0e 0f|0123456789abcdef|      data{}: (elf) 0xae-0x5ee (1344)
     |                                               |                |        header{}: 0xae-0xe2 (52)
     |                                               |                |          ident{}: 0xae-0xbe (16)
0x0a0|                                          7f 45|              .E|            magic: raw bits (valid) 0xae-0xb2 (4)
0x0b0|4c 46                                          |LF              |
0x0b0|      01                                       |  .             |            class: 32 (1) 0xb2-0xb3 (1)
0x0b0|         01                                    |   .            |            data: "little_endian" (1) 0xb3-0xb4 (1)
0x0b0|            01                                 |    .           |            version: 1 0xb4-0xb5 (1)
0x0b0|               00                              |     .          |            os_abi: "sysv" (0) 0xb5-0xb6 (1)
0x0b0|                  00                           |      .         |            abi_version: 0 0xb6-0xb7 (1)
0x0b0|                     00 00 00 00 00 00 00      |       .......  |            pad: raw bits (all zero) 0xb7-0xbe (7)
0x0b0|                                          01 00|              ..|          type: "rel" (0x1) 0xbe-0xc0 (2)
0x0c0|03 00                                          |..              |          machine: "x86" (0x3) (x86) 0xc0-0xc2 (2)
0x0c0|      01 00 00 00                              |  ....          |          version: 1 0xc2-0xc6 (4)
0x0c0|                  00 00 00 00                  |      ....      |          entry: 0 0xc6-0xca (4)
0x0c0|                              00 00 00 00      |          ....  |          phoff: 0 0xca-0xce (4)
0x0c0|                                          c0 02|              ..|          shoff: 704 0xce-0xd2 (4)
0x0d0|00 00                                          |..              |
0x0d0|      00 00 00 00                              |  ....          |          flags: 0 0xd2-0xd6 (4)
0x0d0|                  34 00                        |      4.        |          ehsize: 52 0xd6-0xd8 (2)
0x0d0|                        00 00                  |        ..      |          phentsize: 0 0xd8-0xda (2)
0x0d0|                              00 00            |          ..    |          phnum: 0 0xda-0xdc (2)
0x0d0|                                    28 00      |            (.  |          shentsize: 40 0xdc-0xde (2)
0x0d0|                                          10 00|              ..|          shnum: 16 0xde-0xe0 (2)
0x0e0|0f 00                                          |..              |          shstrndx: 15 0xe0-0xe2 (2)
     |                                               |                |        section_headers[0:16]: 0xe2-0x5ee (1292)
     |                                               |                |          [0]{}: section_header 0x36e-0x396 (40)
0x360|                                          00 00|              ..|            name: "" (0) 0x36e-0x372 (4)
0x370|00 00                                          |..              |
0x370|      00 00 00 00                              |  ....          |            type: "null" (0x0) (Header inactive) 0x372-0x376 (4)
     |                                               |                |            flags{}: 0x376-0x37a (4)
0x370|                  00                           |      .         |              link_order: false 0x376-0x376.1 (0.1)
0x370|                  00                           |      .         |              info_link: false 0x376.1-0x376.2 (0.1)
0x370|                  00                           |      .         |              strings: false 0x376.2-0x376.3 (0.1)
0x370|                  00                           |      .         |              merge: false 0x376.3-0x376.4 (0.1)
0x370|                  00                           |      .         |              unused0: 0 0x376.4-0x376.5 (0.1)
0x370|                  00                           |      .         |              execinstr: false 0x376.5-0x376.6 (0.1)
0x370|                  00                           |      .         |              alloc: false 0x376.6-0x376.7 (0.1)
0x370|                  00                           |      .         |              write: false 0x376.7-0x377 (0.1)
0x370|                     00                        |       .        |              tls: false 0x377-0x377.1 (0.1)
0x370|                     00                        |       .        |              group: false 0x377.1-0x377.2 (0.1)
0x370|                     00                        |       .        |              os_nonconforming: false 0x377.2-0x377.3 (0.1)
0x370|                     00 00                     |       ..       |              unused1: 0 0x377.3-0x378.4 (1.1)
0x370|                        00 00                  |        ..      |              os_specific: 0 0x378.4-0x379.4 (1)
0x370|                           00                  |         .      |              processor_specific: 0 0x379.4-0x37a (0.4)
0x370|                              00 00 00 00      |          ....  |            addr: 0x0 0x37a-0x37e (4)
0x370|                                          00 00|              ..|            offset: 0 0x37e-0x382 (4)
0x380|00 00                                          |..              |
0x380|      00 00 00 00                              |  ....          |            size: 0x0 0x382-0x386 (4)
0x380|                  00 00 00 00                  |      ....      |            link: 0 0x386-0x38a (4)
0x380|                              00 00 00 00      |          ....  |            info: 0 0x38a-0x38e (4)
0x380|                                          00 00|              ..|            addralign: 0 0x38e-0x392 (4)
0x390|00 00                                          |..              |
0x390|      00 00 00 00                              |  ....          |            entsize: 0 0x392-0x396 (4)
     |                                               |                |          [1]{}: section_header 0xe2-0x3be (732)
0x0e0|      01 00 00 00 07 00 00 00                  |  ........      |            data: raw bits 0xe2-0xea (8)
0x390|                  8e 00 00 00                  |      ....      |            name: ".group" (142) 0x396-0x39a (4)
0x390|                              11 00 00 00      |          ....  |            type: "group" (0x11) (Section group) 0x39a-0x39e (4)
     |                                               |                |            flags{}: 0x39e-0x3a2 (4)
0x390|                                          00   |              . |              link_order: false 0x39e-0x39e.1 (0.1)
0x390|                                          00   |              . |              info_link: false 0x39e.1-0x39e.2 (0.1)
0x390|                                          00   |              . |              strings: false 0x39e.2-0x39e.3 (0.1)
0x390|                                          00   |              . |              merge: false 0x39e.3-0x39e.4 (0.1)
0x390|                                          00   |              . |              unused0: 0 0x39e.4-0x39e.5 (0.1)
0x390|                                          00   |              . |              execinstr: false 0x39e.5-0x39e.6 (0.1)
0x390|                                          00   |              . |              alloc: false 0x39e.6-0x39e.7 (0.1)
0x390|                                          00   |              . |              write: false 0x39e.7-0x39f (0.1)
0x390|                                             00|               .|              tls: false 0x39f-0x39f.1 (0.1)
0x390|                                             00|               .|              group: false 0x39f.1-0x39f.2 (0.1)
0x390|                                             00|               .|              os_nonconforming: false 0x39f.2-0x39f.3 (0.1)
0x390|                                             00|               .|              unused1: 0 0x39f.3-0x3a0.4 (1.1)
0x3a0|00                                             |.               |
0x3a0|00 00                                          |..              |              os_specific: 0 0x3a0.4-0x3a1.4 (1)
0x3a0|   00                                          | .              |              processor_specific: 0 0x3a1.4-0x3a2 (0.4)
0x3a0|      00 00 00 00                              |  ....          |            addr: 0x0 0x3a2-0x3a6 (4)
0x3a0|                  34 00 00 00                  |      4...      |            offset: 52 0x3a6-0x3aa (4)
0x3a0|                              08 00 00 00      |          ....  |            size: 0x8 0x3aa-0x3ae (4)
0x3a0|                                          0d 00|              ..|            link: 13 0x3ae-0x3b2 (4)
0x3b0|00 00                                          |..              |
0x3b0|      06 00 00 00                              |  ....          |            info: 6 0x3b2-0x3b6 (4)
0x3b0|                  04 00 00 00                  |      ....      |            addralign: 4 0x3b6-0x3ba (4)
0x3b0|                              04 00 00 00      |          ....  |            entsize: 4 0x3ba-0x3be (4)
     |                                               |                |          [2]{}: section_header 0xea-0x3e6 (764)
0x0e0|                              55 89 e5 53 83 ec|          U..S..|            data: raw bits 0xea-0x115 (43)
0x0f0|04 e8 fc ff ff ff 05 01 00 00 00 83 ec 0c 8d 90|................|
*    |until 0x114.7 (43)                             |                |
0x3b0|                                          1f 00|              ..|            name: ".text" (31) 0x3be-0x3c2 (4)
0x3c0|00 00                                          |..              |
0x3c0|      01 00 00 00                              |  ....          |            type: "progbits" (0x1) (Information defined by the program) 0x3c2-0x3c6 (4)
     |                                               |                |            flags{}: 0x3c6-0x3ca (4)
0x3c0|                  06                           |      .         |              link_order: false 0x3c6-0x3c6.1 (0.1)
0x3c0|                  06                           |      .         |              info_link: false 0x3c6.1-0x3c6.2 (0.1)
0x3c0|                  06                           |      .         |              strings: false 0x3c6.2-0x3c6.3 (0.1)
0x3c0|                  06                           |      .         |              merge: false 0x3c6.3-0x3c6.4 (0.1)
0x3c0|                  06                           |      .         |              unused0: 0 0x3c6.4-0x3c6.5 (0.1)
0x3c0|                  06                           |      .         |              execinstr: true 0x3c6.5-0x3c6.6 (0.1)
0x3c0|                  06                           |      .         |              alloc: true 0x3c6.6-0x3c6.7 (0.1)
0x3c0|                  06                           |      .         |              write: false 0x3c6.7-0x3c7 (0.1)
0x3c0|                     00                        |       .        |              tls: false 0x3c7-0x3c7.1 (0.1)
0x3c0|                     00                        |       .        |              group: false 0x3c7.1-0x3c7.2 (0.1)
0x3c0|                     00                        |       .        |              os_nonconforming: false 0x3c7.2-0x3c7.3 (0.1)
0x3c0|                     00 00                     |       ..       |              unused1: 0 0x3c7.3-0x3c8.4 (1.1)
0x3c0|                        00 00                  |        ..      |              os_specific: 0 0x3c8.4-0x3c9.4 (1)
0x3c0|                           00                  |         .      |              processor_specific: 0 0x3c9.4-0x3ca (0.4)
0x3c0|                              00 00 00 00      |          ....  |            addr: 0x0 0x3ca-0x3ce (4)
0x3c0|                                          3c 00|              <.|            offset: 60 0x3ce-0x3d2 (4)
0x3d0|00 00                                          |..              |
0x3d0|      2b 00 00 00                              |  +...          |            size: 0x2b 0x3d2-0x3d6 (4)
0x3d0|                  00 00 00 00                  |      ....      |            link: 0 0x3d6-0x3da (4)
0x3d0|                              00 00 00 00      |          ....  |            info: 0 0x3da-0x3de (4)
0x3d0|                                          01 00|              ..|            addralign: 1 0x3de-0x3e2 (4)
0x3e0|00 00                                          |..              |
0x3e0|      00 00 00 00                              |  ....          |            entsize: 0 0x3e2-0x3e6 (4)
     |                                               |                |          [3]{}: section_header 0x2a6-0x40e (360)
0x2a0|                  08 00 00 00 02 06 00 00 0d 00|      ..........|            data: raw bits 0x2a6-0x2c6 (32)
0x2b0|00 00 0a 07 00 00 16 00 00 00 09 03 00 00 1e 00|................|
0x2c0|00 00 04 08 00 00                              |......          |
0x3e0|                  1b 00 00 00                  |      ....      |            name: ".rel.text" (27) 0x3e6-0x3ea (4)
0x3e0|                              09 00 00 00      |          ....  |            type: "rel" (0x9) (Relocation entries without explicit addends) 0x3ea-0x3ee (4)
     |                                               |                |            flags{}: 0x3ee-0x3f2 (4)
0x3e0|                                          40   |              @ |              link_order: false 0x3ee-0x3ee.1 (0.1)
0x3e0|                                          40   |              @ |              info_link: true 0x3ee.1-0x3ee.2 (0.1)
0x3e0|                                          40   |              @ |              strings: false 0x3ee.2-0x3ee.3 (0.1)
0x3e0|                                          40   |              @ |              merge: false 0x3ee.3-0x3ee.4 (0.1)
0x3e0|                                          40   |              @ |              unused0: 0 0x3ee.4-0x3ee.5 (0.1)
0x3e0|                                          40   |              @ |              execinstr: false 0x3ee.5-0x3ee.6 (0.1)
0x3e0|                                          40   |              @ |              alloc: false 0x3ee.6-0x3ee.7 (0.1)
0x3e0|                                          40   |              @ |              write: false 0x3ee.7-0x3ef (0.1)
0x3e0|                                             00|               .|              tls: false 0x3ef-0x3ef.1 (0.1)
0x3e0|                                             00|               .|              group: false 0x3ef.1-0x3ef.2 (0.1)
0x3e0|                                             00|               .|              os_nonconforming: false 0x3ef.2-0x3ef.3 (0.1)
0x3e0|                                             00|               .|              unused1: 0 0x3ef.3-0x3f0.4 (1.1)
0x3f0|00                                             |.               |
0x3f0|00 00                                          |..              |              os_specific: 0 0x3f0.4-0x3f1.4 (1)
0x3f0|   00                                          | .              |              processor_specific: 0 0x3f1.4-0x3f2 (0.4)
0x3f0|      00 00 00 00                              |  ....          |            addr: 0x0 0x3f2-0x3f6 (4)
0x3f0|                  f8 01 00 00                  |      ....      |            offset: 504 0x3f6-0x3fa (4)
0x3f0|                              20 00 00 00      |           ...  |            size: 0x20 0x3fa-0x3fe (4)
0x3f0|                                          0d 00|              ..|            link: 13 0x3fe-0x402 (4)
0x400|00 00                                          |..              |
0x400|      02 00 00 00                              |  ....          |            info: 2 0x402-0x406 (4)
0x400|                  04 00 00 00                  |      ....      |            addralign: 4 0x406-0x40a (4)
0x400|                              08 00 00 00      |          ....  |            entsize: 8 0x40a-0x40e (4)
     |                                               |                |          [4]{}: section_header 0x115-0x436 (801)
     |                                               |                |            data: raw bits 0x115-0x115 (0)
0x400|                                          25 00|              %.|            name: ".data" (37) 0x40e-0x412 (4)
0x410|00 00                                          |..              |
0x410|      01 00 00 00                              |  ....          |            type: "progbits" (0x1) (Information defined by the program) 0x412-0x416 (4)
     |                                               |                |            flags{}: 0x416-0x41a (4)
0x410|                  03                           |      .         |              link_order: false 0x416-0x416.1 (0.1)
0x410|                  03                           |      .         |              info_link: false 0x416.1-0x416.2 (0.1)
0x410|                  03                           |      .         |              strings: false 0x416.2-0x416.3 (0.1)
0x410|                  03                           |      .         |              merge: false 0x416.3-0x416.4 (0.1)
0x410|                  03                           |      .         |              unused0: 0 0x416.4-0x416.5 (0.1)
0x410|                  03                           |      .         |              execinstr: false 0x416.5-0x416.6 (0.1)
0x410|                  03                           |      .         |              alloc: true 0x416.6-0x416.7 (0.1)
0x410|                  03                           |      .         |              write: true 0x416.7-0x417 (0.1)
0x410|                     00                        |       .        |              tls: false 0x417-0x417.1 (0.1)
0x410|                     00                        |       .        |              group: false 0x417.1-0x417.2 (0.1)
0x410|                     00                        |       .        |              os_nonconforming: false 0x417.2-0x417.3 (0.1)
0x410|                     00 00                     |       ..       |              unused1: 0 0x417.3-0x418.4 (1.1)
0x410|                        00 00                  |        ..      |              os_specific: 0 0x418.4-0x419.4 (1)
0x410|                           00                  |         .      |              processor_specific: 0 0x419.4-0x41a (0.4)
0x410|                              00 00 00 00      |          ....  |            addr: 0x0 0x41a-0x41e (4)
0x410|                                          67 00|              g.|            offset: 103 0x41e-0x422 (4)
0x420|00 00                                          |..              |
0x420|      00 00 00 00                              |  ....          |            size: 0x0 0x422-0x426 (4)
0x420|                  00 00 00 00                  |      ....      |            link: 0 0x426-0x42a (4)
0x420|                              00 00 00 00      |          ....  |            info: 0 0x42a-0x42e (4)
0x420|                                          01 00|              ..|            addralign: 1 0x42e-0x432 (4)
0x430|00 00                                          |..              |
0x430|      00 00 00 00                              |  ....          |            entsize: 0 0x432-0x436 (4)
     |                                               |                |          [5]{}: section_header 0x436-0x45e (40)
0x430|                  2b 00 00 00                  |      +...      |            name: ".bss" (43) 0x436-0x43a (4)
0x430|                              08 00 00 00      |          ....  |            type: "nobits" (0x8) (No space in the file) 0x43a-0x43e (4)
     |                                               |                |            flags{}: 0x43e-0x442 (4)
0x430|                                          03   |              . |              link_order: false 0x43e-0x43e.1 (0.1)
0x430|                                          03   |              . |              info_link: false 0x43e.1-0x43e.2 (0.1)
0x430|                                          03   |              . |              strings: false 0x43e.2-0x43e.3 (0.1)
0x430|                                          03   |              . |              merge: false 0x43e.3-0x43e.4 (0.1)
0x430|                                          03   |              . |              unused0: 0 0x43e.4-0x43e.5 (0.1)
0x430|                                          03   |              . |              execinstr: false 0x43e.5-0x43e.6 (0.1)
0x430|                                          03   |              . |              alloc: true 0x43e.6-0x43e.7 (0.1)
0x430|                                          03   |              . |              write: true 0x43e.7-0x43f (0.1)
0x430|                                             00|               .|              tls: false 0x43f-0x43f.1 (0.1)
0x430|                                             00|               .|              group: false 0x43f.1-0x43f.2 (0.1)
0x430|                                             00|               .|              os_nonconforming: false 0x43f.2-0x43f.3 (0.1)
0x430|                                             00|               .|              unused1: 0 0x43f.3-0x440.4 (1.1)
0x440|00                                             |.               |
0x440|00 00                                          |..              |              os_specific: 0 0x440.4-0x441.4 (1)
0x440|   00                                          | .              |              processor_specific: 0 0x441.4-0x442 (0.4)
0x440|      00 00 00 00                              |  ....          |            addr: 0x0 0x442-0x446 (4)
0x440|                  67 00 00 00                  |      g...      |            offset: 103 0x446-0x44a (4)
0x440|                              00 00 00 00      |          ....  |            size: 0x0 0x44a-0x44e (4)
0x440|                                          00 00|              ..|            link: 0 0x44e-0x452 (4)
0x450|00 00                                          |..              |
0x450|      00 00 00 00                              |  ....          |            info: 0 0x452-0x456 (4)
0x450|                  01 00 00 00                  |      ....      |            addralign: 1 0x456-0x45a (4)
0x450|                              00 00 00 00      |          ....  |            entsize: 0 0x45a-0x45e (4)
     |                                               |                |          [6]{}: section_header 0x115-0x486 (881)
0x110|               6c 69 62 62 62 62 5f 62 62 62 00|     libbbb_bbb.|            data: raw bits 0x115-0x120 (11)
0x450|                                          30 00|              0.|            name: ".rodata" (48) 0x45e-0x462 (4)
0x460|00 00                                          |..              |
0x460|      01 00 00 00                              |  ....          |            type: "progbits" (0x1) (Information defined by the program) 0x462-0x466 (4)
     |                                               |                |            flags{}: 0x466-0x46a (4)
0x460|                  02                           |      .         |              link_order: false 0x466-0x466.1 (0.1)
0x460|                  02                           |      .         |              info_link: false 0x466.1-0x466.2 (0.1)
0x460|                  02                           |      .         |              strings: false 0x466.2-0x466.3 (0.1)
0x460|                  02                           |      .         |              merge: false 0x466.3-0x466.4 (0.1)
0x460|                  02                           |      .         |              unused0: 0 0x466.4-0x466.5 (0.1)
0x460|                  02                           |      .         |              execinstr: false 0x466.5-0x466.6 (0.1)
0x460|                  02                           |      .         |              alloc: true 0x466.6-0x466.7 (0.1)
0x460|                  02                           |      .         |              write: false 0x466.7-0x467 (0.1)
0x460|                     00                        |       .        |              tls: false 0x467-0x467.1 (0.1)
0x460|                     00                        |       .        |              group: false 0x467.1-0x467.2 (0.1)
0x460|                     00                        |       .        |              os_nonconforming: false 0x467.2-0x467.3 (0.1)
0x460|                     00 00                     |       ..       |              unused1: 0 0x467.3-0x468.4 (1.1)
0x460|                        00 00                  |        ..      |              os_specific: 0 0x468.4-0x469.4 (1)
0x460|                           00                  |         .      |              processor_specific: 0 0x469.4-0x46a (0.4)
0x460|                              00 00 00 00      |          ....  |            addr: 0x0 0x46a-0x46e (4)
0x460|                                          67 00|              g.|            offset: 103 0x46e-0x472 (4)
0x470|00 00                                          |..              |
0x470|      0b 00 00 00                              |  ....          |            size: 0xb 0x472-0x476 (4)
0x470|                  00 00 00 00                  |      ....      |            link: 0 0x476-0x47a (4)
0x470|                              00 00 00 00      |          ....  |            info: 0 0x47a-0x47e (4)
0x470|                                          01 00|              ..|            addralign: 1 0x47e-0x482 (4)
0x480|00 00                                          |..              |
0x480|      00 00 00 00                              |  ....          |            entsize: 0 0x482-0x486 (4)
     |                                               |                |          [7]{}: section_header 0x120-0x4ae (910)
0x120|8b 04 24 c3                                    |..$.            |            data: raw bits 0x120-0x124 (4)
0x480|                  38 00 00 00                  |      8...      |            name: ".text.__x86.get_pc_thunk.ax" (56) 0x486-0x48a (4)
0x480|                              01 00 00 00      |          ....  |            type: "progbits" (0x1) (Information defined by the program) 0x48a-0x48e (4)
     |                                               |                |            flags{}: 0x48e-0x492 (4)
0x480|                                          06   |              . |              link_order: false 0x48e-0x48e.1 (0.1)
0x480|                                          06   |              . |              info_link: false 0x48e.1-0x48e.2 (0.1)
0x480|                                          06   |              . |              strings: false 0x48e.2-0x48e.3 (0.1)
0x480|                                          06   |              . |              merge: false 0x48e.3-0x48e.4 (0.1)
0x480|                                          06   |              . |              unused0: 0 0x48e.4-0x48e.5 (0.1)
0x480|                                          06   |              . |              execinstr: true 0x48e.5-0x48e.6 (0.1)
0x480|                                          06   |              . |              alloc: true 0x48e.6-0x48e.7 (0.1)
0x480|                                          06   |              . |              write: false 0x48e.7-0x48f (0.1)
0x480|                                             02|               .|              tls: false 0x48f-0x48f.1 (0.1)
0x480|                                             02|               .|              group: false 0x48f.1-0x48f.2 (0.1)
0x480|                                             02|               .|              os_nonconforming: false 0x48f.2-0x48f.3 (0.1)
0x480|                                             02|               .|              unused1: 8192 0x48f.3-0x490.4 (1.1)
0x490|00                                             |.               |
0x490|00 00                                          |..              |              os_specific: 0 0x490.4-0x491.4 (1)
0x490|   00                                          | .              |              processor_specific: 0 0x491.4-0x492 (0.4)
0x490|      00 00 00 00                              |  ....          |            addr: 0x0 0x492-0x496 (4)
0x490|                  72 00 00 00                  |      r...      |            offset: 114 0x496-0x49a (4)
0x490|                              04 00 00 00      |          ....  |            size: 0x4 0x49a-0x49e (4)
0x490|                                          00 00|              ..|            link: 0 0x49e-0x4a2 (4)
0x4a0|00 00                                          |..              |
0x4a0|      00 00 00 00                              |  ....          |            info: 0 0x4a2-0x4a6 (4)
0x4a0|                  01 00 00 00                  |      ....      |            addralign: 1 0x4a6-0x4aa (4)
0x4a0|                              00 00 00 00      |          ....  |            entsize: 0 0x4aa-0x4ae (4)
     |                                               |                |          [8]{}: section_header 0x124-0x4d6 (946)
0x120|            00 47 43 43 3a 20 28 41 6c 70 69 6e|    .GCC: (Alpin|            data: raw bits 0x124-0x156 (50)
0x130|65 20 31 30 2e 33 2e 31 5f 67 69 74 32 30 32 31|e 10.3.1_git2021|
*    |until 0x155.7 (50)                             |                |
0x4a0|                                          54 00|              T.|            name: ".comment" (84) 0x4ae-0x4b2 (4)
0x4b0|00 00                                          |..              |
0x4b0|      01 00 00 00                              |  ....          |            type: "progbits" (0x1) (Information defined by the program) 0x4b2-0x4b6 (4)
     |                                               |                |            flags{}: 0x4b6-0x4ba (4)
0x4b0|                  30                           |      0         |              link_order: false 0x4b6-0x4b6.1 (0.1)
0x4b0|                  30                           |      0         |              info_link: false 0x4b6.1-0x4b6.2 (0.1)
0x4b0|                  30                           |      0         |              strings: true 0x4b6.2-0x4b6.3 (0.1)
0x4b0|                  30                           |      0         |              merge: true 0x4b6.3-0x4b6.4 (0.1)
0x4b0|                  30                           |      0         |              unused0: 0 0x4b6.4-0x4b6.5 (0.1)
0x4b0|                  30                           |      0         |              execinstr: false 0x4b6.5-0x4b6.6 (0.1)
0x4b0|                  30                           |      0         |              alloc: false 0x4b6.6-0x4b6.7 (0.1)
0x4b0|                  30                           |      0         |              write: false 0x4b6.7-0x4b7 (0.1)
0x4b0|                     00                        |       .        |              tls: false 0x4b7-0x4b7.1 (0.1)
0x4b0|                     00                        |       .        |              group: false 0x4b7.1-0x4b7.2 (0.1)
0x4b0|                     00                        |       .        |              os_nonconforming: false 0x4b7.2-0x4b7.3 (0.1)
0x4b0|                     00 00                     |       ..       |              unused1: 0 0x4b7.3-0x4b8.4 (1.1)
0x4b0|                        00 00                  |        ..      |              os_specific: 0 0x4b8.4-0x4b9.4 (1)
0x4b0|                           00                  |         .      |              processor_specific: 0 0x4b9.4-0x4ba (0.4)
0x4b0|                              00 00 00 00      |          ....  |            addr: 0x0 0x4ba-0x4be (4)
0x4b0|                                          76 00|              v.|            offset: 118 0x4be-0x4c2 (4)
0x4c0|00 00                                          |..              |
0x4c0|      32 00 00 00                              |  2...          |            size: 0x32 0x4c2-0x4c6 (4)
0x4c0|                  00 00 00 00                  |      ....      |            link: 0 0x4c6-0x4ca (4)
0x4c0|                              00 00 00 00      |          ....  |            info: 0 0x4ca-0x4ce (4)
0x4c0|                                          01 00|              ..|            addralign: 1 0x4ce-0x4d2 (4)
0x4d0|00 00                                          |..              |
0x4d0|      01 00 00 00                              |  ....          |            entsize: 1 0x4d2-0x4d6 (4)
     |                                               |                |          [9]{}: section_header 0x156-0x4fe (936)
     |                                               |                |            data: raw bits 0x156-0x156 (0)
0x4d0|                  5d 00 00 00                  |      ]...      |            name: ".note.GNU-stack" (93) 0x4d6-0x4da (4)
0x4d0|                              01 00 00 00      |          ....  |            type: "progbits" (0x1) (Information defined by the program) 0x4da-0x4de (4)
     |                                               |                |            flags{}: 0x4de-0x4e2 (4)
0x4d0|                                          00   |              . |              link_order: false 0x4de-0x4de.1 (0.1)
0x4d0|                                          00   |              . |              info_link: false 0x4de.1-0x4de.2 (0.1)
0x4d0|                                          00   |              . |              strings: false 0x4de.2-0x4de.3 (0.1)
0x4d0|                                          00   |              . |              merge: false 0x4de.3-0x4de.4 (0.1)
0x4d0|                                          00   |              . |              unused0: 0 0x4de.4-0x4de.5 (0.1)
0x4d0|                                          00   |              . |              execinstr: false 0x4de.5-0x4de.6 (0.1)
0x4d0|                                          00   |              . |              alloc: false 0x4de.6-0x4de.7 (0.1)
0x4d0|                                          00   |              . |              write: false 0x4de.7-0x4df (0.1)
0x4d0|                                             00|               .|              tls: false 0x4df-0x4df.1 (0.1)
0x4d0|                                             00|               .|              group: false 0x4df.1-0x4df.2 (0.1)
0x4d0|                                             00|               .|              os_nonconforming: false 0x4df.2-0x4df.3 (0.1)
0x4d0|                                             00|               .|              unused1: 0 0x4df.3-0x4e0.4 (1.1)
0x4e0|00                                             |.               |
0x4e0|00 00                                          |..              |              os_specific: 0 0x4e0.4-0x4e1.4 (1)
0x4e0|   00                                          | .              |              processor_specific: 0 0x4e1.4-0x4e2 (0.4)
0x4e0|      00 00 00 00                              |  ....          |            addr: 0x0 0x4e2-0x4e6 (4)
0x4e0|                  a8 00 00 00                  |      ....      |            offset: 168 0x4e6-0x4ea (4)
0x4e0|                              00 00 00 00      |          ....  |            size: 0x0 0x4ea-0x4ee (4)
0x4e0|                                          00 00|              ..|            link: 0 0x4ee-0x4f2 (4)
0x4f0|00 00                                          |..              |
0x4f0|      00 00 00 00                              |  ....          |            info: 0 0x4f2-0x4f6 (4)
0x4f0|                  01 00 00 00                  |      ....      |            addralign: 1 0x4f6-0x4fa (4)
0x4f0|                              00 00 00 00      |          ....  |            entsize: 0 0x4fa-0x4fe (4)
     |                                               |                |          [10]{}: section_header 0x156-0x526 (976)
0x150|                  04 00 00 00 18 00 00 00 05 00|      ..........|            data: raw bits 0x156-0x17e (40)
0x160|00 00 47 4e 55 00 02 00 01 c0 04 00 00 00 00 00|..GNU...........|
0x170|00 00 01 00 01 c0 04 00 00 00 01 00 00 00      |..............  |
0x4f0|                                          6d 00|              m.|            name: ".note.gnu.property" (109) 0x4fe-0x502 (4)
0x500|00 00                                          |..              |
0x500|      07 00 00 00                              |  ....          |            type: "note" (0x7) (Information that marks the file in some way) 0x502-0x506 (4)
     |                                               |                |            flags{}: 0x506-0x50a (4)
0x500|                  02                           |      .         |              link_order: false 0x506-0x506.1 (0.1)
0x500|                  02                           |      .         |              info_link: false 0x506.1-0x506.2 (0.1)
0x500|                  02                           |      .         |              strings: false 0x506.2-0x506.3 (0.1)
0x500|                  02                           |      .         |              merge: false 0x506.3-0x506.4 (0.1)
0x500|                  02                           |      .         |              unused0: 0 0x506.4-0x506.5 (0.1)
0x500|                  02                           |      .         |              execinstr: false 0x506.5-0x506.6 (0.1)
0x500|                  02                           |      .         |              alloc: true 0x506.6-0x506.7 (0.1)
0x500|                  02                           |      .         |              write: false 0x506.7-0x507 (0.1)
0x500|                     00                        |       .        |              tls: false 0x507-0x507.1 (0.1)
0x500|                     00                        |       .        |              group: false 0x507.1-0x507.2 (0.1)
0x500|                     00                        |       .        |              os_nonconforming: false 0x507.2-0x507.3 (0.1)
0x500|                     00 00                     |       ..       |              unused1: 0 0x507.3-0x508.4 (1.1)
0x500|                        00 00                  |        ..      |              os_specific: 0 0x508.4-0x509.4 (1)
0x500|                           00                  |         .      |              processor_specific: 0 0x509.4-0x50a (0.4)
0x500|                              00 00 00 00      |          ....  |            addr: 0x0 0x50a-0x50e (4)
0x500|                                          a8 00|              ..|            offset: 168 0x50e-0x512 (4)
0x510|00 00                                          |..              |
0x510|      28 00 00 00                              |  (...          |            size: 0x28 0x512-0x516 (4)
0x510|                  00 00 00 00                  |      ....      |            link: 0 0x516-0x51a (4)
0x510|                              00 00 00 00      |          ....  |            info: 0 0x51a-0x51e (4)
0x510|                                          04 00|              ..|            addralign: 4 0x51e-0x522 (4)
0x520|00 00                                          |..              |
0x520|      00 00 00 00                              |  ....          |            entsize: 0 0x522-0x526 (4)
     |                                               |                |          [11]{}: section_header 0x17e-0x54e (976)
0x170|                                          14 00|              ..|            data: raw bits 0x17e-0x1ce (80)
0x180|00 00 00 00 00 00 01 7a 52 00 01 7c 08 01 1b 0c|.......zR..|....|
*    |until 0x1cd.7 (80)                             |                |
0x520|                  84 00 00 00                  |      ....      |            name: ".eh_frame" (132) 0x526-0x52a (4)
0x520|                              01 00 00 00      |          ....  |            type: "progbits" (0x1) (Information defined by the program) 0x52a-0x52e (4)
     |                                               |                |            flags{}: 0x52e-0x532 (4)
0x520|                                          02   |              . |              link_order: false 0x52e-0x52e.1 (0.1)
0x520|                                          02   |              . |              info_link: false 0x52e.1-0x52e.2 (0.1)
0x520|                                          02   |              . |              strings: false 0x52e.2-0x52e.3 (0.1)
0x520|                                          02   |              . |              merge: false 0x52e.3-0x52e.4 (0.1)
0x520|                                          02   |              . |              unused0: 0 0x52e.4-0x52e.5 (0.1)
0x520|                                          02   |              . |              execinstr: false 0x52e.5-0x52e.6 (0.1)
0x520|                                          02   |              . |              alloc: true 0x52e.6-0x52e.7 (0.1)
0x520|                                          02   |              . |              write: false 0x52e.7-0x52f (0.1)
0x520|                                             00|               .|              tls: false 0x52f-0x52f.1 (0.1)
0x520|                                             00|               .|              group: false 0x52f.1-0x52f.2 (0.1)
0x520|                                             00|               .|              os_nonconforming: false 0x52f.2-0x52f.3 (0.1)
0x520|                                             00|               .|              unused1: 0 0x52f.3-0x530.4 (1.1)
0x530|00                                             |.               |
0x530|00 00                                          |..              |              os_specific: 0 0x530.4-0x531.4 (1)
0x530|   00                                          | .              |              processor_specific: 0 0x531.4-0x532 (0.4)
0x530|      00 00 00 00                              |  ....          |            addr: 0x0 0x532-0x536 (4)
0x530|                  d0 00 00 00                  |      ....      |            offset: 208 0x536-0x53a (4)
0x530|                              50 00 00 00      |          P...  |            size: 0x50 0x53a-0x53e (4)
0x530|                                          00 00|              ..|            link: 0 0x53e-0x542 (4)
0x540|00 00                                          |..              |
0x540|      00 00 00 00                              |  ....          |            info: 0 0x542-0x546 (4)
0x540|                  04 00 00 00                  |      ....      |            addralign: 4 0x546-0x54a (4)
0x540|                              00 00 00 00      |          ....  |            entsize: 0 0x54a-0x54e (4)
     |                                               |                |          [12]{}: section_header 0x2c6-0x576 (688)
0x2c0|                  20 00 00 00 02 02 00 00 44 00|       .......D.|            data: raw bits 0x2c6-0x2d6 (16)
0x2d0|00 00 02 04 00 00                              |......          |
0x540|                                          80 00|              ..|            name: ".rel.eh_frame" (128) 0x54e-0x552 (4)
0x550|00 00                                          |..              |
0x550|      09 00 00 00                              |  ....          |            type: "rel" (0x9) (Relocation entries without explicit addends) 0x552-0x556 (4)
     |                                               |                |            flags{}: 0x556-0x55a (4)
0x550|                  40                           |      @         |              link_order: false 0x556-0x556.1 (0.1)
0x550|                  40                           |      @         |              info_link: true 0x556.1-0x556.2 (0.1)
0x550|                  40                           |      @         |              strings: false 0x556.2-0x556.3 (0.1)
0x550|                  40                           |      @         |              merge: false 0x556.3-0x556.4 (0.1)
0x550|                  40                           |      @         |              unused0: 0 0x556.4-0x556.5 (0.1)
0x550|                  40                           |      @         |              execinstr: false 0x556.5-0x556.6 (0.1)
0x550|                  40                           |      @         |              alloc: false 0x556.6-0x556.7 (0.1)
0x550|                  40                           |      @         |              write: false 0x556.7-0x557 (0.1)
0x550|                     00                        |       .        |              tls: false 0x557-0x557.1 (0.1)
0x550|                     00                        |       .        |              group: false 0x557.1-0x557.2 (0.1)
0x550|                     00                        |       .        |              os_nonconforming: false 0x557.2-0x557.3 (0.1)
0x550|                     00 00                     |       ..       |              unused1: 0 0x557.3-0x558.4 (1.1)
0x550|                        00 00                  |        ..      |              os_specific: 0 0x558.4-0x559.4 (1)
0x550|                           00                  |         .      |              processor_specific: 0 0x559.4-0x55a (0.4)
0x550|                              00 00 00 00      |          ....  |            addr: 0x0 0x55a-0x55e (4)
0x550|                                          18 02|              ..|            offset: 536 0x55e-0x562 (4)
0x560|00 00                                          |..              |
0x560|      10 00 00 00                              |  ....          |            size: 0x10 0x562-0x566 (4)
0x560|                  0d 00 00 00                  |      ....      |            link: 13 0x566-0x56a (4)
0x560|                              0b 00 00 00      |          ....  |            info: 11 0x56a-0x56e (4)
0x560|                                          04 00|              ..|            addralign: 4 0x56e-0x572 (4)
0x570|00 00                                          |..              |
0x570|      08 00 00 00                              |  ....          |            entsize: 8 0x572-0x576 (4)
     |                                               |                |          [13]{}: section_header 0x1ce-0x59e (976)
     |                                               |                |            symbol_table[0:9]: 0x1ce-0x25e (144)
     |                                               |                |              [0]{}: symbol 0x1ce-0x1de (16)
0x1c0|                                          00 00|              ..|                name: "" (0) 0x1ce-0x1d2 (4)
0x1d0|00 00                                          |..              |
0x1d0|      00 00 00 00                              |  ....          |                value: 0 0x1d2-0x1d6 (4)
0x1d0|                  00 00 00 00                  |      ....      |                size: 0 0x1d6-0x1da (4)
0x1d0|                              00               |          .     |                bind: "local" (0) 0x1da-0x1da.4 (0.4)
0x1d0|                              00               |          .     |                type: "notype" (0) 0x1da.4-0x1db (0.4)
0x1d0|                                 00            |           .    |                other_unused: 0 0x1db-0x1db.6 (0.6)
0x1d0|                                 00            |           .    |                visibility: "default" (0) 0x1db.6-0x1dc (0.2)
0x1d0|                                    00 00      |            ..  |                shndx: 0 0x1dc-0x1de (2)
     |                                               |                |              [1]{}: symbol 0x1de-0x1ee (16)
0x1d0|                                          01 00|              ..|                name: "libbbb.c" (1) 0x1de-0x1e2 (4)
0x1e0|00 00                                          |..              |
0x1e0|      00 00 00 00                              |  ....          |                value: 0 0x1e2-0x1e6 (4)
0x1e0|                  00 00 00 00                  |      ....      |                size: 0 0x1e6-0x1ea (4)
0x1e0|                              04               |          .     |                bind: "local" (0) 0x1ea-0x1ea.4 (0.4)
0x1e0|                              04               |          .     |                type: "file" (4) 0x1ea.4-0x1eb (0.4)
0x1e0|                                 00            |           .    |                other_unused: 0 0x1eb-0x1eb.6 (0.6)
0x1e0|                                 00            |           .    |                visibility: "default" (0) 0x1eb.6-0x1ec (0.2)
0x1e0|                                    f1 ff      |            ..  |                shndx: 65521 0x1ec-0x1ee (2)
     |                                               |                |              [2]{}: symbol 0x1ee-0x1fe (16)
0x1e0|                                          00 00|              ..|                name: "" (0) 0x1ee-0x1f2 (4)
0x1f0|00 00                                          |..              |
0x1f0|      00 00 00 00                              |  ....          |                value: 0 0x1f2-0x1f6 (4)
0x1f0|                  00 00 00 00                  |      ....      |                size: 0 0x1f6-0x1fa (4)
0x1f0|                              03               |          .     |                bind: "local" (0) 0x1fa-0x1fa.4 (0.4)
0x1f0|                              03               |          .     |                type: "section" (3) 0x1fa.4-0x1fb (0.4)
0x1f0|                                 00            |           .    |                other_unused: 0 0x1fb-0x1fb.6 (0.6)
0x1f0|                                 00            |           .    |                visibility: "default" (0) 0x1fb.6-0x1fc (0.2)
0x1f0|                                    02 00      |            ..  |                shndx: 2 0x1fc-0x1fe (2)
     |                                               |                |              [3]{}: symbol 0x1fe-0x20e (16)
0x1f0|                                          00 00|              ..|                name: "" (0) 0x1fe-0x202 (4)
0x200|00 00                                          |..              |
0x200|      00 00 00 00                              |  ....          |                value: 0 0x202-0x206 (4)
0x200|                  00 00 00 00                  |      ....      |                size: 0 0x206-0x20a (4)
0x200|                              03               |          .     |                bind: "local" (0) 0x20a-0x20a.4 (0.4)
0x200|                              03               |          .     |                type: "section" (3) 0x20a.4-0x20b (0.4)
0x200|                                 00            |           .    |                other_unused: 0 0x20b-0x20b.6 (0.6)
0x200|                                 00            |           .    |                visibility: "default" (0) 0x20b.6-0x20c (0.2)
0x200|                                    06 00      |            ..  |                shndx: 6 0x20c-0x20e (2)
     |                                               |                |              [4]{}: symbol 0x20e-0x21e (16)
0x200|                                          00 00|              ..|                name: "" (0) 0x20e-0x212 (4)
0x210|00 00                                          |..              |
0x210|      00 00 00 00                              |  ....          |                value: 0 0x212-0x216 (4)
0x210|                  00 00 00 00                  |      ....      |                size: 0 0x216-0x21a (4)
0x210|                              03               |          .     |                bind: "local" (0) 0x21a-0x21a.4 (0.4)
0x210|                              03               |          .     |                type: "section" (3) 0x21a.4-0x21b (0.4)
0x210|                                 00            |           .    |                other_unused: 0 0x21b-0x21b.6 (0.6)
0x210|                                 00            |           .    |                visibility: "default" (0) 0x21b.6-0x21c (0.2)
0x210|                                    07 00      |            ..  |                shndx: 7 0x21c-0x21e (2)
     |                                               |                |              [5]{}: symbol 0x21e-0x22e (16)
0x210|                                          0a 00|              ..|                name: "libbbb_bbb" (10) 0x21e-0x222 (4)
0x220|00 00                                          |..              |
0x220|      00 00 00 00                              |  ....          |                value: 0 0x222-0x226 (4)
0x220|                  2b 00 00 00                  |      +...      |                size: 43 0x226-0x22a (4)
0x220|                              12               |          .     |                bind: "global" (1) 0x22a-0x22a.4 (0.4)
0x220|                              12               |          .     |                type: "func" (2) 0x22a.4-0x22b (0.4)
0x220|                                 00            |           .    |                other_unused: 0 0x22b-0x22b.6 (0.6)
0x220|                                 00            |           .    |                visibility: "default" (0) 0x22b.6-0x22c (0.2)
0x220|                                    02 00      |            ..  |                shndx: 2 0x22c-0x22e (2)
     |                                               |                |              [6]{}: symbol 0x22e-0x23e (16)
0x220|                                          15 00|              ..|                name: "__x86.get_pc_thunk.ax" (21) 0x22e-0x232 (4)
0x230|00 00                                          |..              |
0x230|      00 00 00 00                              |  ....          |                value: 0 0x232-0x236 (4)
0x230|                  00 00 00 00                  |      ....      |                size: 0 0x236-0x23a (4)
0x230|                              12               |          .     |                bind: "global" (1) 0x23a-0x23a.4 (0.4)
0x230|                              12               |          .     |                type: "func" (2) 0x23a.4-0x23b (0.4)
0x230|                                 02            |           .    |                other_unused: 0 0x23b-0x23b.6 (0.6)
0x230|                                 02            |           .    |                visibility: "hidden" (2) 0x23b.6-0x23c (0.2)
0x230|                                    07 00      |            ..  |                shndx: 7 0x23c-0x23e (2)
     |                                               |                |              [7]{}: symbol 0x23e-0x24e (16)
0x230|                                          2b 00|              +.|                name: "_GLOBAL_OFFSET_TABLE_" (43) 0x23e-0x242 (4)
0x240|00 00                                          |..              |
0x240|      00 00 00 00                              |  ....          |                value: 0 0x242-0x246 (4)
0x240|                  00 00 00 00                  |      ....      |                size: 0 0x246-0x24a (4)
0x240|                              10               |          .     |                bind: "global" (1) 0x24a-0x24a.4 (0.4)
0x240|                              10               |          .     |                type: "notype" (0) 0x24a.4-0x24b (0.4)
0x240|                                 00            |           .    |                other_unused: 0 0x24b-0x24b.6 (0.6)
0x240|                                 00            |           .    |                visibility: "default" (0) 0x24b.6-0x24c (0.2)
0x240|                                    00 00      |            ..  |                shndx: 0 0x24c-0x24e (2)
     |                                               |                |              [8]{}: symbol 0x24e-0x25e (16)
0x240|                                          41 00|              A.|                name: "puts" (65) 0x24e-0x252 (4)
0x250|00 00                                          |..              |
0x250|      00 00 00 00                              |  ....          |                value: 0 0x252-0x256 (4)
0x250|                  00 00 00 00                  |      ....      |                size: 0 0x256-0x25a (4)
0x250|                              10               |          .     |                bind: "global" (1) 0x25a-0x25a.4 (0.4)
0x250|                              10               |          .     |                type: "notype" (0) 0x25a.4-0x25b (0.4)
0x250|                                 00            |           .    |                other_unused: 0 0x25b-0x25b.6 (0.6)
0x250|                                 00            |           .    |                visibility: "default" (0) 0x25b.6-0x25c (0.2)
0x250|                                    00 00      |            ..  |                shndx: 0 0x25c-0x25e (2)
0x570|                  01 00 00 00                  |      ....      |            name: ".symtab" (1) 0x576-0x57a (4)
0x570|                              02 00 00 00      |          ....  |            type: "symtab" (0x2) (Symbol table) 0x57a-0x57e (4)
     |                                               |                |            flags{}: 0x57e-0x582 (4)
0x570|                                          00   |              . |              link_order: false 0x57e-0x57e.1 (0.1)
0x570|                                          00   |              . |              info_link: false 0x57e.1-0x57e.2 (0.1)
0x570|                                          00   |              . |              strings: false 0x57e.2-0x57e.3 (0.1)
0x570|                                          00   |              . |              merge: false 0x57e.3-0x57e.4 (0.1)
0x570|                                          00   |              . |              unused0: 0 0x57e.4-0x57e.5 (0.1)
0x570|                                          00   |              . |              execinstr: false 0x57e.5-0x57e.6 (0.1)
0x570|                                          00   |              . |              alloc: false 0x57e.6-0x57e.7 (0.1)
0x570|                                          00   |              . |              write: false 0x57e.7-0x57f (0.1)
0x570|                                             00|               .|              tls: false 0x57f-0x57f.1 (0.1)
0x570|                                             00|               .|              group: false 0x57f.1-0x57f.2 (0.1)
0x570|                                             00|               .|              os_nonconforming: false 0x57f.2-0x57f.3 (0.1)
0x570|                                             00|               .|              unused1: 0 0x57f.3-0x580.4 (1.1)
0x580|00                                             |.               |
0x580|00 00                                          |..              |              os_specific: 0 0x580.4-0x581.4 (1)
0x580|   00                                          | .              |              processor_specific: 0 0x581.4-0x582 (0.4)
0x580|      00 00 00 00                              |  ....          |            addr: 0x0 0x582-0x586 (4)
0x580|                  20 01 00 00                  |       ...      |            offset: 288 0x586-0x58a (4)
0x580|                              90 00 00 00      |          ....  |            size: 0x90 0x58a-0x58e (4)
0x580|                                          0e 00|              ..|            link: 14 0x58e-0x592 (4)
0x590|00 00                                          |..              |
0x590|      05 00 00 00                              |  ....          |            info: 5 0x592-0x596 (4)
0x590|                  04 00 00 00                  |      ....      |            addralign: 4 0x596-0x59a (4)
0x590|                              10 00 00 00      |          ....  |            entsize: 16 0x59a-0x59e (4)
     |                                               |                |          [14]{}: section_header 0x25e-0x5c6 (872)
0x250|                                          00 6c|              .l|            string: "\x00libbbb.c\x00libbbb_bbb\x00__x86.get_pc_thunk.ax\x00_GLOBAL_OFFSET_TABLE_\x00puts\x00" 0x25e-0x2a4 (70)
0x260|69 62 62 62 62 2e 63 00 6c 69 62 62 62 62 5f 62|ibbbb.c.libbbb_b|
*    |until 0x2a3.7 (70)                             |                |
0x590|                                          09 00|              ..|            name: ".strtab" (9) 0x59e-0x5a2 (4)
0x5a0|00 00                                          |..              |
0x5a0|      03 00 00 00                              |  ....          |            type: "strtab" (0x3) (String table) 0x5a2-0x5a6 (4)
     |                                               |                |            flags{}: 0x5a6-0x5aa (4)
0x5a0|                  00                           |      .         |              link_order: false 0x5a6-0x5a6.1 (0.1)
0x5a0|                  00                           |      .         |              info_link: false 0x5a6.1-0x5a6.2 (0.1)
0x5a0|                  00                           |      .         |              strings: false 0x5a6.2-0x5a6.3 (0.1)
0x5a0|                  00                           |      .         |              merge: false 0x5a6.3-0x5a6.4 (0.1)
0x5a0|                  00                           |      .         |              unused0: 0 0x5a6.4-0x5a6.5 (0.1)
0x5a0|                  00                           |      .         |              execinstr: false 0x5a6.5-0x5a6.6 (0.1)
0x5a0|                  00                           |      .         |              alloc: false 0x5a6.6-0x5a6.7 (0.1)
0x5a0|                  00                           |      .         |              write: false 0x5a6.7-0x5a7 (0.1)
0x5a0|                     00                        |       .        |              tls: false 0x5a7-0x5a7.1 (0.1)
0x5a0|                     00                        |       .        |              group: false 0x5a7.1-0x5a7.2 (0.1)
0x5a0|                     00                        |       .        |              os_nonconforming: false 0x5a7.2-0x5a7.3 (0.1)
0x5a0|                     00 00                     |       ..       |              unused1: 0 0x5a7.3-0x5a8.4 (1.1)
0x5a0|                        00 00                  |        ..      |              os_specific: 0 0x5a8.4-0x5a9.4 (1)
0x5a0|                           00                  |         .      |              processor_specific: 0 0x5a9.4-0x5aa (0.4)
0x5a0|                              00 00 00 00      |          ....  |            addr: 0x0 0x5aa-0x5ae (4)
0x5a0|                                          b0 01|              ..|            offset: 432 0x5ae-0x5b2 (4)
0x5b0|00 00                                          |..              |
0x5b0|      46 00 00 00                              |  F...          |            size: 0x46 0x5b2-0x5b6 (4)
0x5b0|                  00 00 00 00                  |      ....      |            link: 0 0x5b6-0x5ba (4)
0x5b0|                              00 00 00 00      |          ....  |            info: 0 0x5ba-0x5be (4)
0x5b0|                                          01 00|              ..|            addralign: 1 0x5be-0x5c2 (4)
0x5c0|00 00                                          |..              |
0x5c0|      00 00 00 00                              |  ....          |            entsize: 0 0x5c2-0x5c6 (4)
     |                                               |                |          [15]{}: section_header 0x2d6-0x5ee (792)
0x2d0|                  00 2e 73 79 6d 74 61 62 00 2e|      ..symtab..|            string: "\x00.symtab\x00.strtab\x00.shstrtab\x00.rel.text\x00.data\x00.bss\x00.rodata\x00.text.__x86.get_pc_thunk.ax\x00.comment\x00.note.GNU-stack\x00.note.gnu.property\x00.rel.eh_frame\x00.group\x00" 0x2d6-0x36b (149)
0x2e0|73 74 72 74 61 62 00 2e 73 68 73 74 72 74 61 62|strtab..shstrtab|
*    |until 0x36a.7 (149)                            |                |
0x5c0|                  11 00 00 00                  |      ....      |            name: ".shstrtab" (17) 0x5c6-0x5ca (4)
0x5c0|                              03 00 00 00      |          ....  |            type: "strtab" (0x3) (String table) 0x5ca-0x5ce (4)
     |                                               |                |            flags{}: 0x5ce-0x5d2 (4)
0x5c0|                                          00   |              . |              link_order: false 0x5ce-0x5ce.1 (0.1)
0x5c0|                                          00   |              . |              info_link: false 0x5ce.1-0x5ce.2 (0.1)
0x5c0|                                          00   |              . |              strings: false 0x5ce.2-0x5ce.3 (0.1)
0x5c0|                                          00   |              . |              merge: false 0x5ce.3-0x5ce.4 (0.1)
0x5c0|                                          00   |              . |              unused0: 0 0x5ce.4-0x5ce.5 (0.1)
0x5c0|                                          00   |              . |              execinstr: false 0x5ce.5-0x5ce.6 (0.1)
0x5c0|                                          00   |              . |              alloc: false 0x5ce.6-0x5ce.7 (0.1)
0x5c0|                                          00   |              . |              write: false 0x5ce.7-0x5cf (0.1)
0x5c0|                                             00|               .|              tls: false 0x5cf-0x5cf.1 (0.1)
0x5c0|                                             00|               .|              group: false 0x5cf.1-0x5cf.2 (0.1)
0x5c0|                                             00|               .|              os_nonconforming: false 0x5cf.2-0x5cf.3 (0.1)
0x5c0|                                             00|               .|              unused1: 0 0x5cf.3-0x5d0.4 (1.1)
0x5d0|00                                             |.               |
0x5d0|00 00                                          |..              |              os_specific: 0 0x5d0.4-0x5d1.4 (1)
0x5d0|   00                                          | .              |              processor_specific: 0 0x5d1.4-0x5d2 (0.4)
0x5d0|      00 00 00 00                              |  ....          |            addr: 0x0 0x5d2-0x5d6 (4)
0x5d0|                  28 02 00 00                  |      (...      |            offset: 552 0x5d6-0x5da (4)
0x5d0|                              95 00 00 00      |          ....  |            size: 0x95 0x5da-0x5de (4)
0x5d0|                                          00 00|              ..|            link: 0 0x5de-0x5e2 (4)
0x5e0|00 00                                          |..              |
0x5e0|      00 00 00 00                              |  ....          |            info: 0 0x5e2-0x5e6 (4)
0x5e0|                  01 00 00 00                  |      ....      |            addralign: 1 0x5e6-0x5ea (4)
0x5e0|                              00 00 00 00|     |          ....| |            entsize: 0 0x5ea-0x5ee (4)
0x2a0|            00 00                              |    ..          |        gap0: raw bits 0x2a4-0x2a6 (2)
0x360|                                 00 00 00      |           ...  |        gap1: raw bits 0x36b-0x36e (3)
     |                                               |                |        program_headers[0:0]: 0x5ee-0x5ee (0)
