$ fq -d elf dv libbbb.so
      |00 01 02 03 04 05 06 07 08 09 0a 0b 0c 0d 0e 0f|0123456789abcdef|.{}: libbbb.so (elf) 0x0-0x3c6f.7 (15472)
      |                                               |                |  header{}: 0x0-0x33.7 (52)
      |                                               |                |    ident{}: 0x0-0xf.7 (16)
0x0000|7f 45 4c 46                                    |.ELF            |      magic: raw bits (valid) 0x0-0x3.7 (4)
0x0000|            01                                 |    .           |      class: 32 (1) 0x4-0x4.7 (1)
0x0000|               01                              |     .          |      data: "little_endian" (1) 0x5-0x5.7 (1)
0x0000|                  01                           |      .         |      version: 1 0x6-0x6.7 (1)
0x0000|                     00                        |       .        |      os_abi: "sysv" (0) 0x7-0x7.7 (1)
0x0000|                        00                     |        .       |      abi_version: 0 0x8-0x8.7 (1)
0x0000|                           00 00 00 00 00 00 00|         .......|      pad: raw bits (all zero) 0x9-0xf.7 (7)
0x0010|03 00                                          |..              |    type: "dyn" (0x3) 0x10-0x11.7 (2)
0x0010|      03 00                                    |  ..            |    machine: "x86" (0x3) (x86) 0x12-0x13.7 (2)
0x0010|            01 00 00 00                        |    ....        |    version: 1 0x14-0x17.7 (4)
0x0010|                        60 10 00 00            |        `...    |    entry: 4192 0x18-0x1b.7 (4)
0x0010|                                    34 00 00 00|            4...|    phoff: 52 0x1c-0x1f.7 (4)
0x0020|98 37 00 00                                    |.7..            |    shoff: 14232 0x20-0x23.7 (4)
0x0020|            00 00 00 00                        |    ....        |    flags: 0 0x24-0x27.7 (4)
0x0020|                        34 00                  |        4.      |    ehsize: 52 0x28-0x29.7 (2)
0x0020|                              20 00            |           .    |    phentsize: 32 0x2a-0x2b.7 (2)
0x0020|                                    0a 00      |            ..  |    phnum: 10 0x2c-0x2d.7 (2)
0x0020|                                          28 00|              (.|    shentsize: 40 0x2e-0x2f.7 (2)
0x0030|1f 00                                          |..              |    shnum: 31 0x30-0x31.7 (2)
0x0030|      1e 00                                    |  ..            |    shstrndx: 30 0x32-0x33.7 (2)
      |                                               |                |  program_headers[0:10]: 0x0-0x3003.7 (12292)
      |                                               |                |    [0]{}: program_header 0x0-0x327.7 (808)
      |                                               |                |      program_header{}: 0x0-0x327.7 (808)
0x0000|7f 45 4c 46 01 01 01 00 00 00 00 00 00 00 00 00|.ELF............|        data: raw bits 0x0-0x327.7 (808)
*     |until 0x327.7 (808)                            |                |
0x0030|            01 00 00 00                        |    ....        |        type: "load" (1) (Loadable segment) 0x34-0x37.7 (4)
0x0030|                        00 00 00 00            |        ....    |        offset: 0x0 0x38-0x3b.7 (4)
0x0030|                                    00 00 00 00|            ....|        vaddr: 0x0 0x3c-0x3f.7 (4)
0x0040|00 00 00 00                                    |....            |        paddr: 0x0 0x40-0x43.7 (4)
0x0040|            28 03 00 00                        |    (...        |        filesz: 808 0x44-0x47.7 (4)
0x0040|                        28 03 00 00            |        (...    |        memsz: 808 0x48-0x4b.7 (4)
      |                                               |                |        flags{}: 0x4c-0x4f.7 (4)
0x0040|                                    04         |            .   |          unused0: 0 0x4c-0x4c.4 (0.5)
0x0040|                                    04         |            .   |          r: true 0x4c.5-0x4c.5 (0.1)
0x0040|                                    04         |            .   |          w: false 0x4c.6-0x4c.6 (0.1)
0x0040|                                    04         |            .   |          x: false 0x4c.7-0x4c.7 (0.1)
0x0040|                                       00 00 00|             ...|          unused1: 0 0x4d-0x4f.7 (3)
0x0050|00 10 00 00                                    |....            |        align: 4096 0x50-0x53.7 (4)
      |                                               |                |    [1]{}: program_header 0x54-0x127c.7 (4649)
      |                                               |                |      program_header{}: 0x54-0x127c.7 (4649)
0x0050|            01 00 00 00                        |    ....        |        type: "load" (1) (Loadable segment) 0x54-0x57.7 (4)
0x0050|                        00 10 00 00            |        ....    |        offset: 0x1000 0x58-0x5b.7 (4)
0x0050|                                    00 10 00 00|            ....|        vaddr: 0x1000 0x5c-0x5f.7 (4)
0x0060|00 10 00 00                                    |....            |        paddr: 0x1000 0x60-0x63.7 (4)
0x0060|            7d 02 00 00                        |    }...        |        filesz: 637 0x64-0x67.7 (4)
0x0060|                        7d 02 00 00            |        }...    |        memsz: 637 0x68-0x6b.7 (4)
      |                                               |                |        flags{}: 0x6c-0x6f.7 (4)
0x0060|                                    05         |            .   |          unused0: 0 0x6c-0x6c.4 (0.5)
0x0060|                                    05         |            .   |          r: true 0x6c.5-0x6c.5 (0.1)
0x0060|                                    05         |            .   |          w: false 0x6c.6-0x6c.6 (0.1)
0x0060|                                    05         |            .   |          x: true 0x6c.7-0x6c.7 (0.1)
0x0060|                                       00 00 00|             ...|          unused1: 0 0x6d-0x6f.7 (3)
0x0070|00 10 00 00                                    |....            |        align: 4096 0x70-0x73.7 (4)
0x1000|83 ec 0c e8 98 01 00 00 e8 23 02 00 00 83 c4 0c|.........#......|        data: raw bits 0x1000-0x127c.7 (637)
*     |until 0x127c.7 (637)                           |                |
      |                                               |                |    [2]{}: program_header 0x74-0x20eb.7 (8312)
      |                                               |                |      program_header{}: 0x74-0x20eb.7 (8312)
0x0070|            01 00 00 00                        |    ....        |        type: "load" (1) (Loadable segment) 0x74-0x77.7 (4)
0x0070|                        00 20 00 00            |        . ..    |        offset: 0x2000 0x78-0x7b.7 (4)
0x0070|                                    00 20 00 00|            . ..|        vaddr: 0x2000 0x7c-0x7f.7 (4)
0x0080|00 20 00 00                                    |. ..            |        paddr: 0x2000 0x80-0x83.7 (4)
0x0080|            ec 00 00 00                        |    ....        |        filesz: 236 0x84-0x87.7 (4)
0x0080|                        ec 00 00 00            |        ....    |        memsz: 236 0x88-0x8b.7 (4)
      |                                               |                |        flags{}: 0x8c-0x8f.7 (4)
0x0080|                                    04         |            .   |          unused0: 0 0x8c-0x8c.4 (0.5)
0x0080|                                    04         |            .   |          r: true 0x8c.5-0x8c.5 (0.1)
0x0080|                                    04         |            .   |          w: false 0x8c.6-0x8c.6 (0.1)
0x0080|                                    04         |            .   |          x: false 0x8c.7-0x8c.7 (0.1)
0x0080|                                       00 00 00|             ...|          unused1: 0 0x8d-0x8f.7 (3)
0x0090|00 10 00 00                                    |....            |        align: 4096 0x90-0x93.7 (4)
0x2000|6c 69 62 62 62 62 5f 62 62 62 00 00 01 1b 03 3b|libbbb_bbb.....;|        data: raw bits 0x2000-0x20eb.7 (236)
*     |until 0x20eb.7 (236)                           |                |
      |                                               |                |    [3]{}: program_header 0x94-0x3003.7 (12144)
      |                                               |                |      program_header{}: 0x94-0x3003.7 (12144)
0x0090|            01 00 00 00                        |    ....        |        type: "load" (1) (Loadable segment) 0x94-0x97.7 (4)
0x0090|                        14 2f 00 00            |        ./..    |        offset: 0x2f14 0x98-0x9b.7 (4)
0x0090|                                    14 3f 00 00|            .?..|        vaddr: 0x3f14 0x9c-0x9f.7 (4)
0x00a0|14 3f 00 00                                    |.?..            |        paddr: 0x3f14 0xa0-0xa3.7 (4)
0x00a0|            f0 00 00 00                        |    ....        |        filesz: 240 0xa4-0xa7.7 (4)
0x00a0|                        10 01 00 00            |        ....    |        memsz: 272 0xa8-0xab.7 (4)
      |                                               |                |        flags{}: 0xac-0xaf.7 (4)
0x00a0|                                    06         |            .   |          unused0: 0 0xac-0xac.4 (0.5)
0x00a0|                                    06         |            .   |          r: true 0xac.5-0xac.5 (0.1)
0x00a0|                                    06         |            .   |          w: true 0xac.6-0xac.6 (0.1)
0x00a0|                                    06         |            .   |          x: false 0xac.7-0xac.7 (0.1)
0x00a0|                                       00 00 00|             ...|          unused1: 0 0xad-0xaf.7 (3)
0x00b0|00 10 00 00                                    |....            |        align: 4096 0xb0-0xb3.7 (4)
0x2f10|            ff ff ff ff 00 00 00 00 ff ff ff ff|    ............|        data: raw bits 0x2f14-0x3003.7 (240)
0x2f20|00 00 00 00 01 00 00 00 9c 00 00 00 0c 00 00 00|................|
*     |until 0x3003.7 (240)                           |                |
      |                                               |                |    [4]{}: program_header 0xb4-0x2fdb.7 (12072)
      |                                               |                |      program_header{}: 0xb4-0x2fdb.7 (12072)
0x00b0|            02 00 00 00                        |    ....        |        type: "dynamic" (2) (Dynamic linking information) 0xb4-0xb7.7 (4)
0x00b0|                        24 2f 00 00            |        $/..    |        offset: 0x2f24 0xb8-0xbb.7 (4)
0x00b0|                                    24 3f 00 00|            $?..|        vaddr: 0x3f24 0xbc-0xbf.7 (4)
0x00c0|24 3f 00 00                                    |$?..            |        paddr: 0x3f24 0xc0-0xc3.7 (4)
0x00c0|            b8 00 00 00                        |    ....        |        filesz: 184 0xc4-0xc7.7 (4)
0x00c0|                        b8 00 00 00            |        ....    |        memsz: 184 0xc8-0xcb.7 (4)
      |                                               |                |        flags{}: 0xcc-0xcf.7 (4)
0x00c0|                                    06         |            .   |          unused0: 0 0xcc-0xcc.4 (0.5)
0x00c0|                                    06         |            .   |          r: true 0xcc.5-0xcc.5 (0.1)
0x00c0|                                    06         |            .   |          w: true 0xcc.6-0xcc.6 (0.1)
0x00c0|                                    06         |            .   |          x: false 0xcc.7-0xcc.7 (0.1)
0x00c0|                                       00 00 00|             ...|          unused1: 0 0xcd-0xcf.7 (3)
0x00d0|04 00 00 00                                    |....            |        align: 4 0xd0-0xd3.7 (4)
0x2f20|            01 00 00 00 9c 00 00 00 0c 00 00 00|    ............|        data: raw bits 0x2f24-0x2fdb.7 (184)
0x2f30|00 10 00 00 0d 00 00 00 71 12 00 00 f5 fe ff 6f|........q......o|
*     |until 0x2fdb.7 (184)                           |                |
      |                                               |                |    [5]{}: program_header 0xd4-0x20eb.7 (8216)
      |                                               |                |      program_header{}: 0xd4-0x20eb.7 (8216)
0x00d0|            04 00 00 00                        |    ....        |        type: "note" (4) (Auxiliary information) 0xd4-0xd7.7 (4)
0x00d0|                        c4 20 00 00            |        . ..    |        offset: 0x20c4 0xd8-0xdb.7 (4)
0x00d0|                                    c4 20 00 00|            . ..|        vaddr: 0x20c4 0xdc-0xdf.7 (4)
0x00e0|c4 20 00 00                                    |. ..            |        paddr: 0x20c4 0xe0-0xe3.7 (4)
0x00e0|            28 00 00 00                        |    (...        |        filesz: 40 0xe4-0xe7.7 (4)
0x00e0|                        28 00 00 00            |        (...    |        memsz: 40 0xe8-0xeb.7 (4)
      |                                               |                |        flags{}: 0xec-0xef.7 (4)
0x00e0|                                    04         |            .   |          unused0: 0 0xec-0xec.4 (0.5)
0x00e0|                                    04         |            .   |          r: true 0xec.5-0xec.5 (0.1)
0x00e0|                                    04         |            .   |          w: false 0xec.6-0xec.6 (0.1)
0x00e0|                                    04         |            .   |          x: false 0xec.7-0xec.7 (0.1)
0x00e0|                                       00 00 00|             ...|          unused1: 0 0xed-0xef.7 (3)
0x00f0|04 00 00 00                                    |....            |        align: 4 0xf0-0xf3.7 (4)
0x20c0|            04 00 00 00 18 00 00 00 05 00 00 00|    ............|        data: raw bits 0x20c4-0x20eb.7 (40)
0x20d0|47 4e 55 00 01 00 01 c0 04 00 00 00 01 00 00 00|GNU.............|
0x20e0|02 00 01 c0 04 00 00 00 00 00 00 00            |............    |
      |                                               |                |    [6]{}: program_header 0xf4-0x20eb.7 (8184)
      |                                               |                |      program_header{}: 0xf4-0x20eb.7 (8184)
0x00f0|            53 e5 74 64                        |    S.td        |        type: "os" (1685382483) (Operating system-specific) 0xf4-0xf7.7 (4)
0x00f0|                        c4 20 00 00            |        . ..    |        offset: 0x20c4 0xf8-0xfb.7 (4)
0x00f0|                                    c4 20 00 00|            . ..|        vaddr: 0x20c4 0xfc-0xff.7 (4)
0x0100|c4 20 00 00                                    |. ..            |        paddr: 0x20c4 0x100-0x103.7 (4)
0x0100|            28 00 00 00                        |    (...        |        filesz: 40 0x104-0x107.7 (4)
0x0100|                        28 00 00 00            |        (...    |        memsz: 40 0x108-0x10b.7 (4)
      |                                               |                |        flags{}: 0x10c-0x10f.7 (4)
0x0100|                                    04         |            .   |          unused0: 0 0x10c-0x10c.4 (0.5)
0x0100|                                    04         |            .   |          r: true 0x10c.5-0x10c.5 (0.1)
0x0100|                                    04         |            .   |          w: false 0x10c.6-0x10c.6 (0.1)
0x0100|                                    04         |            .   |          x: false 0x10c.7-0x10c.7 (0.1)
0x0100|                                       00 00 00|             ...|          unused1: 0 0x10d-0x10f.7 (3)
0x0110|04 00 00 00                                    |....            |        align: 4 0x110-0x113.7 (4)
0x20c0|            04 00 00 00 18 00 00 00 05 00 00 00|    ............|        data: raw bits 0x20c4-0x20eb.7 (40)
0x20d0|47 4e 55 00 01 00 01 c0 04 00 00 00 01 00 00 00|GNU.............|
0x20e0|02 00 01 c0 04 00 00 00 00 00 00 00            |............    |
      |                                               |                |    [7]{}: program_header 0x114-0x2037.7 (7972)
      |                                               |                |      program_header{}: 0x114-0x2037.7 (7972)
0x0110|            50 e5 74 64                        |    P.td        |        type: "gnu_eh_frame" (1685382480) (GNU frame unwind information) 0x114-0x117.7 (4)
0x0110|                        0c 20 00 00            |        . ..    |        offset: 0x200c 0x118-0x11b.7 (4)
0x0110|                                    0c 20 00 00|            . ..|        vaddr: 0x200c 0x11c-0x11f.7 (4)
0x0120|0c 20 00 00                                    |. ..            |        paddr: 0x200c 0x120-0x123.7 (4)
0x0120|            2c 00 00 00                        |    ,...        |        filesz: 44 0x124-0x127.7 (4)
0x0120|                        2c 00 00 00            |        ,...    |        memsz: 44 0x128-0x12b.7 (4)
      |                                               |                |        flags{}: 0x12c-0x12f.7 (4)
0x0120|                                    04         |            .   |          unused0: 0 0x12c-0x12c.4 (0.5)
0x0120|                                    04         |            .   |          r: true 0x12c.5-0x12c.5 (0.1)
0x0120|                                    04         |            .   |          w: false 0x12c.6-0x12c.6 (0.1)
0x0120|                                    04         |            .   |          x: false 0x12c.7-0x12c.7 (0.1)
0x0120|                                       00 00 00|             ...|          unused1: 0 0x12d-0x12f.7 (3)
0x0130|04 00 00 00                                    |....            |        align: 4 0x130-0x133.7 (4)
0x2000|                                    01 1b 03 3b|            ...;|        data: raw bits 0x200c-0x2037.7 (44)
0x2010|28 00 00 00 04 00 00 00 14 f0 ff ff 44 00 00 00|(...........D...|
*     |until 0x2037.7 (44)                            |                |
      |                                               |                |    [8]{}: program_header 0x0-0x153.7 (340)
      |                                               |                |      program_header{}: 0x0-0x153.7 (340)
      |                                               |                |        data: raw bits 0x0-NA (0)
0x0130|            51 e5 74 64                        |    Q.td        |        type: "gnu_stack" (1685382481) (GNU stack permission) 0x134-0x137.7 (4)
0x0130|                        00 00 00 00            |        ....    |        offset: 0x0 0x138-0x13b.7 (4)
0x0130|                                    00 00 00 00|            ....|        vaddr: 0x0 0x13c-0x13f.7 (4)
0x0140|00 00 00 00                                    |....            |        paddr: 0x0 0x140-0x143.7 (4)
0x0140|            00 00 00 00                        |    ....        |        filesz: 0 0x144-0x147.7 (4)
0x0140|                        00 00 00 00            |        ....    |        memsz: 0 0x148-0x14b.7 (4)
      |                                               |                |        flags{}: 0x14c-0x14f.7 (4)
0x0140|                                    06         |            .   |          unused0: 0 0x14c-0x14c.4 (0.5)
0x0140|                                    06         |            .   |          r: true 0x14c.5-0x14c.5 (0.1)
0x0140|                                    06         |            .   |          w: true 0x14c.6-0x14c.6 (0.1)
0x0140|                                    06         |            .   |          x: false 0x14c.7-0x14c.7 (0.1)
0x0140|                                       00 00 00|             ...|          unused1: 0 0x14d-0x14f.7 (3)
0x0150|10 00 00 00                                    |....            |        align: 16 0x150-0x153.7 (4)
      |                                               |                |    [9]{}: program_header 0x154-0x2fff.7 (11948)
      |                                               |                |      program_header{}: 0x154-0x2fff.7 (11948)
0x0150|            52 e5 74 64                        |    R.td        |        type: "gnu_relro" (1685382482) (GNU read-only after relocation) 0x154-0x157.7 (4)
0x0150|                        14 2f 00 00            |        ./..    |        offset: 0x2f14 0x158-0x15b.7 (4)
0x0150|                                    14 3f 00 00|            .?..|        vaddr: 0x3f14 0x15c-0x15f.7 (4)
0x0160|14 3f 00 00                                    |.?..            |        paddr: 0x3f14 0x160-0x163.7 (4)
0x0160|            ec 00 00 00                        |    ....        |        filesz: 236 0x164-0x167.7 (4)
0x0160|                        ec 00 00 00            |        ....    |        memsz: 236 0x168-0x16b.7 (4)
      |                                               |                |        flags{}: 0x16c-0x16f.7 (4)
0x0160|                                    04         |            .   |          unused0: 0 0x16c-0x16c.4 (0.5)
0x0160|                                    04         |            .   |          r: true 0x16c.5-0x16c.5 (0.1)
0x0160|                                    04         |            .   |          w: false 0x16c.6-0x16c.6 (0.1)
0x0160|                                    04         |            .   |          x: false 0x16c.7-0x16c.7 (0.1)
0x0160|                                       00 00 00|             ...|          unused1: 0 0x16d-0x16f.7 (3)
0x0170|01 00 00 00                                    |....            |        align: 1 0x170-0x173.7 (4)
0x2f10|            ff ff ff ff 00 00 00 00 ff ff ff ff|    ............|        data: raw bits 0x2f14-0x2fff.7 (236)
0x2f20|00 00 00 00 01 00 00 00 9c 00 00 00 0c 00 00 00|................|
*     |until 0x2fff.7 (236)                           |                |
      |                                               |                |  section_headers[0:31]: 0x0-0x3c6f.7 (15472)
      |                                               |                |    [0]{}: section_header 0x0-0x37bf.7 (14272)
      |                                               |                |      data: raw bits 0x0-NA (0)
0x3790|                        00 00 00 00            |        ....    |      name: "" (0) 0x3798-0x379b.7 (4)
0x3790|                                    00 00 00 00|            ....|      type: "null" (0x0) (Header inactive) 0x379c-0x379f.7 (4)
      |                                               |                |      flags{}: 0x37a0-0x37a3.7 (4)
0x37a0|00                                             |.               |        link_order: false 0x37a0-0x37a0 (0.1)
0x37a0|00                                             |.               |        info_link: false 0x37a0.1-0x37a0.1 (0.1)
0x37a0|00                                             |.               |        strings: false 0x37a0.2-0x37a0.2 (0.1)
0x37a0|00                                             |.               |        merge: false 0x37a0.3-0x37a0.3 (0.1)
0x37a0|00                                             |.               |        unused0: 0 0x37a0.4-0x37a0.4 (0.1)
0x37a0|00                                             |.               |        execinstr: false 0x37a0.5-0x37a0.5 (0.1)
0x37a0|00                                             |.               |        alloc: false 0x37a0.6-0x37a0.6 (0.1)
0x37a0|00                                             |.               |        write: false 0x37a0.7-0x37a0.7 (0.1)
0x37a0|   00                                          | .              |        tls: false 0x37a1-0x37a1 (0.1)
0x37a0|   00                                          | .              |        group: false 0x37a1.1-0x37a1.1 (0.1)
0x37a0|   00                                          | .              |        os_nonconforming: false 0x37a1.2-0x37a1.2 (0.1)
0x37a0|   00 00                                       | ..             |        unused1: 0 0x37a1.3-0x37a2.3 (1.1)
0x37a0|      00 00                                    |  ..            |        os_specific: 0 0x37a2.4-0x37a3.3 (1)
0x37a0|         00                                    |   .            |        processor_specific: 0 0x37a3.4-0x37a3.7 (0.4)
0x37a0|            00 00 00 00                        |    ....        |      addr: 0x0 0x37a4-0x37a7.7 (4)
0x37a0|                        00 00 00 00            |        ....    |      offset: 0 0x37a8-0x37ab.7 (4)
0x37a0|                                    00 00 00 00|            ....|      size: 0x0 0x37ac-0x37af.7 (4)
0x37b0|00 00 00 00                                    |....            |      link: 0 0x37b0-0x37b3.7 (4)
0x37b0|            00 00 00 00                        |    ....        |      info: 0 0x37b4-0x37b7.7 (4)
0x37b0|                        00 00 00 00            |        ....    |      addralign: 0 0x37b8-0x37bb.7 (4)
0x37b0|                                    00 00 00 00|            ....|      entsize: 0 0x37bc-0x37bf.7 (4)
      |                                               |                |    [1]{}: section_header 0x174-0x37e7.7 (13940)
      |                                               |                |      gnu_hash{}: 0x174-0x19f.7 (44)
0x0170|            03 00 00 00                        |    ....        |        nbuckets: 3 0x174-0x177.7 (4)
0x0170|                        07 00 00 00            |        ....    |        symndx: 7 0x178-0x17b.7 (4)
0x0170|                                    01 00 00 00|            ....|        maskwords: 1 0x17c-0x17f.7 (4)
0x0180|05 00 00 00                                    |....            |        shift2: 5 0x180-0x183.7 (4)
      |                                               |                |        bloom_filter[0:1]: 0x184-0x187.7 (4)
0x0180|            80 24 00 91                        |    .$..        |          [0]: 2432705664 maskword 0x184-0x187.7 (4)
      |                                               |                |        buckets[0:3]: 0x188-0x193.7 (12)
0x0180|                        00 00 00 00            |        ....    |          [0]: 0 bucket 0x188-0x18b.7 (4)
0x0180|                                    07 00 00 00|            ....|          [1]: 7 bucket 0x18c-0x18f.7 (4)
0x0190|08 00 00 00                                    |....            |          [2]: 8 bucket 0x190-0x193.7 (4)
      |                                               |                |        values[0:3]: 0x194-0x19f.7 (12)
0x0190|            b9 8d f1 0e                        |    ....        |          [0]: 250711481 value 0x194-0x197.7 (4)
0x0190|                        ea d3 ef 0e            |        ....    |          [1]: 250598378 value 0x198-0x19b.7 (4)
0x0190|                                    87 e7 e8 85|            ....|          [2]: 2246633351 value 0x19c-0x19f.7 (4)
0x37c0|1b 00 00 00                                    |....            |      name: ".gnu.hash" (27) 0x37c0-0x37c3.7 (4)
0x37c0|            f6 ff ff 6f                        |    ...o        |      type: "gnu_hash" (0x6ffffff6) (GNU symbol hash table) 0x37c4-0x37c7.7 (4)
      |                                               |                |      flags{}: 0x37c8-0x37cb.7 (4)
0x37c0|                        02                     |        .       |        link_order: false 0x37c8-0x37c8 (0.1)
0x37c0|                        02                     |        .       |        info_link: false 0x37c8.1-0x37c8.1 (0.1)
0x37c0|                        02                     |        .       |        strings: false 0x37c8.2-0x37c8.2 (0.1)
0x37c0|                        02                     |        .       |        merge: false 0x37c8.3-0x37c8.3 (0.1)
0x37c0|                        02                     |        .       |        unused0: 0 0x37c8.4-0x37c8.4 (0.1)
0x37c0|                        02                     |        .       |        execinstr: false 0x37c8.5-0x37c8.5 (0.1)
0x37c0|                        02                     |        .       |        alloc: true 0x37c8.6-0x37c8.6 (0.1)
0x37c0|                        02                     |        .       |        write: false 0x37c8.7-0x37c8.7 (0.1)
0x37c0|                           00                  |         .      |        tls: false 0x37c9-0x37c9 (0.1)
0x37c0|                           00                  |         .      |        group: false 0x37c9.1-0x37c9.1 (0.1)
0x37c0|                           00                  |         .      |        os_nonconforming: false 0x37c9.2-0x37c9.2 (0.1)
0x37c0|                           00 00               |         ..     |        unused1: 0 0x37c9.3-0x37ca.3 (1.1)
0x37c0|                              00 00            |          ..    |        os_specific: 0 0x37ca.4-0x37cb.3 (1)
0x37c0|                                 00            |           .    |        processor_specific: 0 0x37cb.4-0x37cb.7 (0.4)
0x37c0|                                    74 01 00 00|            t...|      addr: 0x174 0x37cc-0x37cf.7 (4)
0x37d0|74 01 00 00                                    |t...            |      offset: 372 0x37d0-0x37d3.7 (4)
0x37d0|            2c 00 00 00                        |    ,...        |      size: 0x2c 0x37d4-0x37d7.7 (4)
0x37d0|                        02 00 00 00            |        ....    |      link: 2 0x37d8-0x37db.7 (4)
0x37d0|                                    00 00 00 00|            ....|      info: 0 0x37dc-0x37df.7 (4)
0x37e0|04 00 00 00                                    |....            |      addralign: 4 0x37e0-0x37e3.7 (4)
0x37e0|            04 00 00 00                        |    ....        |      entsize: 4 0x37e4-0x37e7.7 (4)
      |                                               |                |    [2]{}: section_header 0x1a0-0x380f.7 (13936)
      |                                               |                |      symbol_table[0:10]: 0x1a0-0x23f.7 (160)
      |                                               |                |        [0]{}: symbol 0x1a0-0x1af.7 (16)
0x01a0|00 00 00 00                                    |....            |          name: "" (0) 0x1a0-0x1a3.7 (4)
0x01a0|            00 00 00 00                        |    ....        |          value: 0 0x1a4-0x1a7.7 (4)
0x01a0|                        00 00 00 00            |        ....    |          size: 0 0x1a8-0x1ab.7 (4)
0x01a0|                                    00         |            .   |          bind: "local" (0) 0x1ac-0x1ac.3 (0.4)
0x01a0|                                    00         |            .   |          type: "notype" (0) 0x1ac.4-0x1ac.7 (0.4)
0x01a0|                                       00      |             .  |          other_unused: 0 0x1ad-0x1ad.5 (0.6)
0x01a0|                                       00      |             .  |          visibility: "default" (0) 0x1ad.6-0x1ad.7 (0.2)
0x01a0|                                          00 00|              ..|          shndx: 0 0x1ae-0x1af.7 (2)
      |                                               |                |        [1]{}: symbol 0x1b0-0x1bf.7 (16)
0x01b0|97 00 00 00                                    |....            |          name: "puts" (151) 0x1b0-0x1b3.7 (4)
0x01b0|            00 00 00 00                        |    ....        |          value: 0 0x1b4-0x1b7.7 (4)
0x01b0|                        00 00 00 00            |        ....    |          size: 0 0x1b8-0x1bb.7 (4)
0x01b0|                                    12         |            .   |          bind: "global" (1) 0x1bc-0x1bc.3 (0.4)
0x01b0|                                    12         |            .   |          type: "func" (2) 0x1bc.4-0x1bc.7 (0.4)
0x01b0|                                       00      |             .  |          other_unused: 0 0x1bd-0x1bd.5 (0.6)
0x01b0|                                       00      |             .  |          visibility: "default" (0) 0x1bd.6-0x1bd.7 (0.2)
0x01b0|                                          00 00|              ..|          shndx: 0 0x1be-0x1bf.7 (2)
      |                                               |                |        [2]{}: symbol 0x1c0-0x1cf.7 (16)
0x01c0|43 00 00 00                                    |C...            |          name: "__cxa_finalize" (67) 0x1c0-0x1c3.7 (4)
0x01c0|            00 00 00 00                        |    ....        |          value: 0 0x1c4-0x1c7.7 (4)
0x01c0|                        00 00 00 00            |        ....    |          size: 0 0x1c8-0x1cb.7 (4)
0x01c0|                                    22         |            "   |          bind: "weak" (2) 0x1cc-0x1cc.3 (0.4)
0x01c0|                                    22         |            "   |          type: "func" (2) 0x1cc.4-0x1cc.7 (0.4)
0x01c0|                                       00      |             .  |          other_unused: 0 0x1cd-0x1cd.5 (0.6)
0x01c0|                                       00      |             .  |          visibility: "default" (0) 0x1cd.6-0x1cd.7 (0.2)
0x01c0|                                          00 00|              ..|          shndx: 0 0x1ce-0x1cf.7 (2)
      |                                               |                |        [3]{}: symbol 0x1d0-0x1df.7 (16)
0x01d0|70 00 00 00                                    |p...            |          name: "__register_frame_info_bases" (112) 0x1d0-0x1d3.7 (4)
0x01d0|            00 00 00 00                        |    ....        |          value: 0 0x1d4-0x1d7.7 (4)
0x01d0|                        00 00 00 00            |        ....    |          size: 0 0x1d8-0x1db.7 (4)
0x01d0|                                    20         |                |          bind: "weak" (2) 0x1dc-0x1dc.3 (0.4)
0x01d0|                                    20         |                |          type: "notype" (0) 0x1dc.4-0x1dc.7 (0.4)
0x01d0|                                       00      |             .  |          other_unused: 0 0x1dd-0x1dd.5 (0.6)
0x01d0|                                       00      |             .  |          visibility: "default" (0) 0x1dd.6-0x1dd.7 (0.2)
0x01d0|                                          00 00|              ..|          shndx: 0 0x1de-0x1df.7 (2)
      |                                               |                |        [4]{}: symbol 0x1e0-0x1ef.7 (16)
0x01e0|29 00 00 00                                    |)...            |          name: "_ITM_registerTMCloneTable" (41) 0x1e0-0x1e3.7 (4)
0x01e0|            00 00 00 00                        |    ....        |          value: 0 0x1e4-0x1e7.7 (4)
0x01e0|                        00 00 00 00            |        ....    |          size: 0 0x1e8-0x1eb.7 (4)
0x01e0|                                    20         |                |          bind: "weak" (2) 0x1ec-0x1ec.3 (0.4)
0x01e0|                                    20         |                |          type: "notype" (0) 0x1ec.4-0x1ec.7 (0.4)
0x01e0|                                       00      |             .  |          other_unused: 0 0x1ed-0x1ed.5 (0.6)
0x01e0|                                       00      |             .  |          visibility: "default" (0) 0x1ed.6-0x1ed.7 (0.2)
0x01e0|                                          00 00|              ..|          shndx: 0 0x1ee-0x1ef.7 (2)
      |                                               |                |        [5]{}: symbol 0x1f0-0x1ff.7 (16)
0x01f0|52 00 00 00                                    |R...            |          name: "__deregister_frame_info_bases" (82) 0x1f0-0x1f3.7 (4)
0x01f0|            00 00 00 00                        |    ....        |          value: 0 0x1f4-0x1f7.7 (4)
0x01f0|                        00 00 00 00            |        ....    |          size: 0 0x1f8-0x1fb.7 (4)
0x01f0|                                    20         |                |          bind: "weak" (2) 0x1fc-0x1fc.3 (0.4)
0x01f0|                                    20         |                |          type: "notype" (0) 0x1fc.4-0x1fc.7 (0.4)
0x01f0|                                       00      |             .  |          other_unused: 0 0x1fd-0x1fd.5 (0.6)
0x01f0|                                       00      |             .  |          visibility: "default" (0) 0x1fd.6-0x1fd.7 (0.2)
0x01f0|                                          00 00|              ..|          shndx: 0 0x1fe-0x1ff.7 (2)
      |                                               |                |        [6]{}: symbol 0x200-0x20f.7 (16)
0x0200|0d 00 00 00                                    |....            |          name: "_ITM_deregisterTMCloneTable" (13) 0x200-0x203.7 (4)
0x0200|            00 00 00 00                        |    ....        |          value: 0 0x204-0x207.7 (4)
0x0200|                        00 00 00 00            |        ....    |          size: 0 0x208-0x20b.7 (4)
0x0200|                                    20         |                |          bind: "weak" (2) 0x20c-0x20c.3 (0.4)
0x0200|                                    20         |                |          type: "notype" (0) 0x20c.4-0x20c.7 (0.4)
0x0200|                                       00      |             .  |          other_unused: 0 0x20d-0x20d.5 (0.6)
0x0200|                                       00      |             .  |          visibility: "default" (0) 0x20d.6-0x20d.7 (0.2)
0x0200|                                          00 00|              ..|          shndx: 0 0x20e-0x20f.7 (2)
      |                                               |                |        [7]{}: symbol 0x210-0x21f.7 (16)
0x0210|01 00 00 00                                    |....            |          name: "_init" (1) 0x210-0x213.7 (4)
0x0210|            00 10 00 00                        |    ....        |          value: 4096 0x214-0x217.7 (4)
0x0210|                        01 00 00 00            |        ....    |          size: 1 0x218-0x21b.7 (4)
0x0210|                                    12         |            .   |          bind: "global" (1) 0x21c-0x21c.3 (0.4)
0x0210|                                    12         |            .   |          type: "func" (2) 0x21c.4-0x21c.7 (0.4)
0x0210|                                       00      |             .  |          other_unused: 0 0x21d-0x21d.5 (0.6)
0x0210|                                       00      |             .  |          visibility: "default" (0) 0x21d.6-0x21d.7 (0.2)
0x0210|                                          06 00|              ..|          shndx: 6 0x21e-0x21f.7 (2)
      |                                               |                |        [8]{}: symbol 0x220-0x22f.7 (16)
0x0220|07 00 00 00                                    |....            |          name: "_fini" (7) 0x220-0x223.7 (4)
0x0220|            71 12 00 00                        |    q...        |          value: 4721 0x224-0x227.7 (4)
0x0220|                        01 00 00 00            |        ....    |          size: 1 0x228-0x22b.7 (4)
0x0220|                                    12         |            .   |          bind: "global" (1) 0x22c-0x22c.3 (0.4)
0x0220|                                    12         |            .   |          type: "func" (2) 0x22c.4-0x22c.7 (0.4)
0x0220|                                       00      |             .  |          other_unused: 0 0x22d-0x22d.5 (0.6)
0x0220|                                       00      |             .  |          visibility: "default" (0) 0x22d.6-0x22d.7 (0.2)
0x0220|                                          0a 00|              ..|          shndx: 10 0x22e-0x22f.7 (2)
      |                                               |                |        [9]{}: symbol 0x230-0x23f.7 (16)
0x0230|8c 00 00 00                                    |....            |          name: "libbbb_bbb" (140) 0x230-0x233.7 (4)
0x0230|            f6 11 00 00                        |    ....        |          value: 4598 0x234-0x237.7 (4)
0x0230|                        2b 00 00 00            |        +...    |          size: 43 0x238-0x23b.7 (4)
0x0230|                                    12         |            .   |          bind: "global" (1) 0x23c-0x23c.3 (0.4)
0x0230|                                    12         |            .   |          type: "func" (2) 0x23c.4-0x23c.7 (0.4)
0x0230|                                       00      |             .  |          other_unused: 0 0x23d-0x23d.5 (0.6)
0x0230|                                       00      |             .  |          visibility: "default" (0) 0x23d.6-0x23d.7 (0.2)
0x0230|                                          09 00|              ..|          shndx: 9 0x23e-0x23f.7 (2)
0x37e0|                        25 00 00 00            |        %...    |      name: ".dynsym" (37) 0x37e8-0x37eb.7 (4)
0x37e0|                                    0b 00 00 00|            ....|      type: "dynsym" (0xb) (Dynamic linking symbol table) 0x37ec-0x37ef.7 (4)
      |                                               |                |      flags{}: 0x37f0-0x37f3.7 (4)
0x37f0|02                                             |.               |        link_order: false 0x37f0-0x37f0 (0.1)
0x37f0|02                                             |.               |        info_link: false 0x37f0.1-0x37f0.1 (0.1)
0x37f0|02                                             |.               |        strings: false 0x37f0.2-0x37f0.2 (0.1)
0x37f0|02                                             |.               |        merge: false 0x37f0.3-0x37f0.3 (0.1)
0x37f0|02                                             |.               |        unused0: 0 0x37f0.4-0x37f0.4 (0.1)
0x37f0|02                                             |.               |        execinstr: false 0x37f0.5-0x37f0.5 (0.1)
0x37f0|02                                             |.               |        alloc: true 0x37f0.6-0x37f0.6 (0.1)
0x37f0|02                                             |.               |        write: false 0x37f0.7-0x37f0.7 (0.1)
0x37f0|   00                                          | .              |        tls: false 0x37f1-0x37f1 (0.1)
0x37f0|   00                                          | .              |        group: false 0x37f1.1-0x37f1.1 (0.1)
0x37f0|   00                                          | .              |        os_nonconforming: false 0x37f1.2-0x37f1.2 (0.1)
0x37f0|   00 00                                       | ..             |        unused1: 0 0x37f1.3-0x37f2.3 (1.1)
0x37f0|      00 00                                    |  ..            |        os_specific: 0 0x37f2.4-0x37f3.3 (1)
0x37f0|         00                                    |   .            |        processor_specific: 0 0x37f3.4-0x37f3.7 (0.4)
0x37f0|            a0 01 00 00                        |    ....        |      addr: 0x1a0 0x37f4-0x37f7.7 (4)
0x37f0|                        a0 01 00 00            |        ....    |      offset: 416 0x37f8-0x37fb.7 (4)
0x37f0|                                    a0 00 00 00|            ....|      size: 0xa0 0x37fc-0x37ff.7 (4)
0x3800|03 00 00 00                                    |....            |      link: 3 0x3800-0x3803.7 (4)
0x3800|            01 00 00 00                        |    ....        |      info: 1 0x3804-0x3807.7 (4)
0x3800|                        04 00 00 00            |        ....    |      addralign: 4 0x3808-0x380b.7 (4)
0x3800|                                    10 00 00 00|            ....|      entsize: 16 0x380c-0x380f.7 (4)
      |                                               |                |    [3]{}: section_header 0x240-0x3837.7 (13816)
0x0240|00 5f 69 6e 69 74 00 5f 66 69 6e 69 00 5f 49 54|._init._fini._IT|      string: "\x00_init\x00_fini\x00_ITM_deregisterTMCloneTable\x00_ITM_regi"... 0x240-0x2ee.7 (175)
*     |until 0x2ee.7 (175)                            |                |
0x3810|2d 00 00 00                                    |-...            |      name: ".dynstr" (45) 0x3810-0x3813.7 (4)
0x3810|            03 00 00 00                        |    ....        |      type: "strtab" (0x3) (String table) 0x3814-0x3817.7 (4)
      |                                               |                |      flags{}: 0x3818-0x381b.7 (4)
0x3810|                        02                     |        .       |        link_order: false 0x3818-0x3818 (0.1)
0x3810|                        02                     |        .       |        info_link: false 0x3818.1-0x3818.1 (0.1)
0x3810|                        02                     |        .       |        strings: false 0x3818.2-0x3818.2 (0.1)
0x3810|                        02                     |        .       |        merge: false 0x3818.3-0x3818.3 (0.1)
0x3810|                        02                     |        .       |        unused0: 0 0x3818.4-0x3818.4 (0.1)
0x3810|                        02                     |        .       |        execinstr: false 0x3818.5-0x3818.5 (0.1)
0x3810|                        02                     |        .       |        alloc: true 0x3818.6-0x3818.6 (0.1)
0x3810|                        02                     |        .       |        write: false 0x3818.7-0x3818.7 (0.1)
0x3810|                           00                  |         .      |        tls: false 0x3819-0x3819 (0.1)
0x3810|                           00                  |         .      |        group: false 0x3819.1-0x3819.1 (0.1)
0x3810|                           00                  |         .      |        os_nonconforming: false 0x3819.2-0x3819.2 (0.1)
0x3810|                           00 00               |         ..     |        unused1: 0 0x3819.3-0x381a.3 (1.1)
0x3810|                              00 00            |          ..    |        os_specific: 0 0x381a.4-0x381b.3 (1)
0x3810|                                 00            |           .    |        processor_specific: 0 0x381b.4-0x381b.7 (0.4)
0x3810|                                    40 02 00 00|            @...|      addr: 0x240 0x381c-0x381f.7 (4)
0x3820|40 02 00 00                                    |@...            |      offset: 576 0x3820-0x3823.7 (4)
0x3820|            af 00 00 00                        |    ....        |      size: 0xaf 0x3824-0x3827.7 (4)
0x3820|                        00 00 00 00            |        ....    |      link: 0 0x3828-0x382b.7 (4)
0x3820|                                    00 00 00 00|            ....|      info: 0 0x382c-0x382f.7 (4)
0x3830|01 00 00 00                                    |....            |      addralign: 1 0x3830-0x3833.7 (4)
0x3830|            00 00 00 00                        |    ....        |      entsize: 0 0x3834-0x3837.7 (4)
      |                                               |                |    [4]{}: section_header 0x2f0-0x385f.7 (13680)
0x02f0|00 40 00 00 08 00 00 00 ec 3f 00 00 06 02 00 00|.@.......?......|      data: raw bits 0x2f0-0x31f.7 (48)
*     |until 0x31f.7 (48)                             |                |
0x3830|                        35 00 00 00            |        5...    |      name: ".rel.dyn" (53) 0x3838-0x383b.7 (4)
0x3830|                                    09 00 00 00|            ....|      type: "rel" (0x9) (Relocation entries without explicit addends) 0x383c-0x383f.7 (4)
      |                                               |                |      flags{}: 0x3840-0x3843.7 (4)
0x3840|02                                             |.               |        link_order: false 0x3840-0x3840 (0.1)
0x3840|02                                             |.               |        info_link: false 0x3840.1-0x3840.1 (0.1)
0x3840|02                                             |.               |        strings: false 0x3840.2-0x3840.2 (0.1)
0x3840|02                                             |.               |        merge: false 0x3840.3-0x3840.3 (0.1)
0x3840|02                                             |.               |        unused0: 0 0x3840.4-0x3840.4 (0.1)
0x3840|02                                             |.               |        execinstr: false 0x3840.5-0x3840.5 (0.1)
0x3840|02                                             |.               |        alloc: true 0x3840.6-0x3840.6 (0.1)
0x3840|02                                             |.               |        write: false 0x3840.7-0x3840.7 (0.1)
0x3840|   00                                          | .              |        tls: false 0x3841-0x3841 (0.1)
0x3840|   00                                          | .              |        group: false 0x3841.1-0x3841.1 (0.1)
0x3840|   00                                          | .              |        os_nonconforming: false 0x3841.2-0x3841.2 (0.1)
0x3840|   00 00                                       | ..             |        unused1: 0 0x3841.3-0x3842.3 (1.1)
0x3840|      00 00                                    |  ..            |        os_specific: 0 0x3842.4-0x3843.3 (1)
0x3840|         00                                    |   .            |        processor_specific: 0 0x3843.4-0x3843.7 (0.4)
0x3840|            f0 02 00 00                        |    ....        |      addr: 0x2f0 0x3844-0x3847.7 (4)
0x3840|                        f0 02 00 00            |        ....    |      offset: 752 0x3848-0x384b.7 (4)
0x3840|                                    30 00 00 00|            0...|      size: 0x30 0x384c-0x384f.7 (4)
0x3850|02 00 00 00                                    |....            |      link: 2 0x3850-0x3853.7 (4)
0x3850|            00 00 00 00                        |    ....        |      info: 0 0x3854-0x3857.7 (4)
0x3850|                        04 00 00 00            |        ....    |      addralign: 4 0x3858-0x385b.7 (4)
0x3850|                                    08 00 00 00|            ....|      entsize: 8 0x385c-0x385f.7 (4)
      |                                               |                |    [5]{}: section_header 0x320-0x3887.7 (13672)
0x0320|e8 3f 00 00 07 01 00 00                        |.?......        |      data: raw bits 0x320-0x327.7 (8)
0x3860|3e 00 00 00                                    |>...            |      name: ".rel.plt" (62) 0x3860-0x3863.7 (4)
0x3860|            09 00 00 00                        |    ....        |      type: "rel" (0x9) (Relocation entries without explicit addends) 0x3864-0x3867.7 (4)
      |                                               |                |      flags{}: 0x3868-0x386b.7 (4)
0x3860|                        42                     |        B       |        link_order: false 0x3868-0x3868 (0.1)
0x3860|                        42                     |        B       |        info_link: true 0x3868.1-0x3868.1 (0.1)
0x3860|                        42                     |        B       |        strings: false 0x3868.2-0x3868.2 (0.1)
0x3860|                        42                     |        B       |        merge: false 0x3868.3-0x3868.3 (0.1)
0x3860|                        42                     |        B       |        unused0: 0 0x3868.4-0x3868.4 (0.1)
0x3860|                        42                     |        B       |        execinstr: false 0x3868.5-0x3868.5 (0.1)
0x3860|                        42                     |        B       |        alloc: true 0x3868.6-0x3868.6 (0.1)
0x3860|                        42                     |        B       |        write: false 0x3868.7-0x3868.7 (0.1)
0x3860|                           00                  |         .      |        tls: false 0x3869-0x3869 (0.1)
0x3860|                           00                  |         .      |        group: false 0x3869.1-0x3869.1 (0.1)
0x3860|                           00                  |         .      |        os_nonconforming: false 0x3869.2-0x3869.2 (0.1)
0x3860|                           00 00               |         ..     |        unused1: 0 0x3869.3-0x386a.3 (1.1)
0x3860|                              00 00            |          ..    |        os_specific: 0 0x386a.4-0x386b.3 (1)
0x3860|                                 00            |           .    |        processor_specific: 0 0x386b.4-0x386b.7 (0.4)
0x3860|                                    20 03 00 00|             ...|      addr: 0x320 0x386c-0x386f.7 (4)
0x3870|20 03 00 00                                    | ...            |      offset: 800 0x3870-0x3873.7 (4)
0x3870|            08 00 00 00                        |    ....        |      size: 0x8 0x3874-0x3877.7 (4)
0x3870|                        02 00 00 00            |        ....    |      link: 2 0x3878-0x387b.7 (4)
0x3870|                                    12 00 00 00|            ....|      info: 18 0x387c-0x387f.7 (4)
0x3880|04 00 00 00                                    |....            |      addralign: 4 0x3880-0x3883.7 (4)
0x3880|            08 00 00 00                        |    ....        |      entsize: 8 0x3884-0x3887.7 (4)
      |                                               |                |    [6]{}: section_header 0x1000-0x38af.7 (10416)
0x1000|83 ec 0c e8 98 01 00 00 e8 23 02 00 00 83 c4 0c|.........#......|      data: raw bits 0x1000-0x1010.7 (17)
0x1010|c3                                             |.               |
0x3880|                        47 00 00 00            |        G...    |      name: ".init" (71) 0x3888-0x388b.7 (4)
0x3880|                                    01 00 00 00|            ....|      type: "progbits" (0x1) (Information defined by the program) 0x388c-0x388f.7 (4)
      |                                               |                |      flags{}: 0x3890-0x3893.7 (4)
0x3890|06                                             |.               |        link_order: false 0x3890-0x3890 (0.1)
0x3890|06                                             |.               |        info_link: false 0x3890.1-0x3890.1 (0.1)
0x3890|06                                             |.               |        strings: false 0x3890.2-0x3890.2 (0.1)
0x3890|06                                             |.               |        merge: false 0x3890.3-0x3890.3 (0.1)
0x3890|06                                             |.               |        unused0: 0 0x3890.4-0x3890.4 (0.1)
0x3890|06                                             |.               |        execinstr: true 0x3890.5-0x3890.5 (0.1)
0x3890|06                                             |.               |        alloc: true 0x3890.6-0x3890.6 (0.1)
0x3890|06                                             |.               |        write: false 0x3890.7-0x3890.7 (0.1)
0x3890|   00                                          | .              |        tls: false 0x3891-0x3891 (0.1)
0x3890|   00                                          | .              |        group: false 0x3891.1-0x3891.1 (0.1)
0x3890|   00                                          | .              |        os_nonconforming: false 0x3891.2-0x3891.2 (0.1)
0x3890|   00 00                                       | ..             |        unused1: 0 0x3891.3-0x3892.3 (1.1)
0x3890|      00 00                                    |  ..            |        os_specific: 0 0x3892.4-0x3893.3 (1)
0x3890|         00                                    |   .            |        processor_specific: 0 0x3893.4-0x3893.7 (0.4)
0x3890|            00 10 00 00                        |    ....        |      addr: 0x1000 0x3894-0x3897.7 (4)
0x3890|                        00 10 00 00            |        ....    |      offset: 4096 0x3898-0x389b.7 (4)
0x3890|                                    11 00 00 00|            ....|      size: 0x11 0x389c-0x389f.7 (4)
0x38a0|00 00 00 00                                    |....            |      link: 0 0x38a0-0x38a3.7 (4)
0x38a0|            00 00 00 00                        |    ....        |      info: 0 0x38a4-0x38a7.7 (4)
0x38a0|                        01 00 00 00            |        ....    |      addralign: 1 0x38a8-0x38ab.7 (4)
0x38a0|                                    00 00 00 00|            ....|      entsize: 0 0x38ac-0x38af.7 (4)
      |                                               |                |    [7]{}: section_header 0x1020-0x38d7.7 (10424)
0x1020|ff b3 04 00 00 00 ff a3 08 00 00 00 00 00 00 00|................|      data: raw bits 0x1020-0x103f.7 (32)
0x1030|ff a3 0c 00 00 00 68 00 00 00 00 e9 e0 ff ff ff|......h.........|
0x38b0|42 00 00 00                                    |B...            |      name: ".plt" (66) 0x38b0-0x38b3.7 (4)
0x38b0|            01 00 00 00                        |    ....        |      type: "progbits" (0x1) (Information defined by the program) 0x38b4-0x38b7.7 (4)
      |                                               |                |      flags{}: 0x38b8-0x38bb.7 (4)
0x38b0|                        06                     |        .       |        link_order: false 0x38b8-0x38b8 (0.1)
0x38b0|                        06                     |        .       |        info_link: false 0x38b8.1-0x38b8.1 (0.1)
0x38b0|                        06                     |        .       |        strings: false 0x38b8.2-0x38b8.2 (0.1)
0x38b0|                        06                     |        .       |        merge: false 0x38b8.3-0x38b8.3 (0.1)
0x38b0|                        06                     |        .       |        unused0: 0 0x38b8.4-0x38b8.4 (0.1)
0x38b0|                        06                     |        .       |        execinstr: true 0x38b8.5-0x38b8.5 (0.1)
0x38b0|                        06                     |        .       |        alloc: true 0x38b8.6-0x38b8.6 (0.1)
0x38b0|                        06                     |        .       |        write: false 0x38b8.7-0x38b8.7 (0.1)
0x38b0|                           00                  |         .      |        tls: false 0x38b9-0x38b9 (0.1)
0x38b0|                           00                  |         .      |        group: false 0x38b9.1-0x38b9.1 (0.1)
0x38b0|                           00                  |         .      |        os_nonconforming: false 0x38b9.2-0x38b9.2 (0.1)
0x38b0|                           00 00               |         ..     |        unused1: 0 0x38b9.3-0x38ba.3 (1.1)
0x38b0|                              00 00            |          ..    |        os_specific: 0 0x38ba.4-0x38bb.3 (1)
0x38b0|                                 00            |           .    |        processor_specific: 0 0x38bb.4-0x38bb.7 (0.4)
0x38b0|                                    20 10 00 00|             ...|      addr: 0x1020 0x38bc-0x38bf.7 (4)
0x38c0|20 10 00 00                                    | ...            |      offset: 4128 0x38c0-0x38c3.7 (4)
0x38c0|            20 00 00 00                        |     ...        |      size: 0x20 0x38c4-0x38c7.7 (4)
0x38c0|                        00 00 00 00            |        ....    |      link: 0 0x38c8-0x38cb.7 (4)
0x38c0|                                    00 00 00 00|            ....|      info: 0 0x38cc-0x38cf.7 (4)
0x38d0|10 00 00 00                                    |....            |      addralign: 16 0x38d0-0x38d3.7 (4)
0x38d0|            04 00 00 00                        |    ....        |      entsize: 4 0x38d4-0x38d7.7 (4)
      |                                               |                |    [8]{}: section_header 0x1040-0x38ff.7 (10432)
0x1040|ff a3 10 00 00 00 66 90 ff a3 14 00 00 00 66 90|......f.......f.|      data: raw bits 0x1040-0x1057.7 (24)
0x1050|ff a3 1c 00 00 00 66 90                        |......f.        |
0x38d0|                        4d 00 00 00            |        M...    |      name: ".plt.got" (77) 0x38d8-0x38db.7 (4)
0x38d0|                                    01 00 00 00|            ....|      type: "progbits" (0x1) (Information defined by the program) 0x38dc-0x38df.7 (4)
      |                                               |                |      flags{}: 0x38e0-0x38e3.7 (4)
0x38e0|06                                             |.               |        link_order: false 0x38e0-0x38e0 (0.1)
0x38e0|06                                             |.               |        info_link: false 0x38e0.1-0x38e0.1 (0.1)
0x38e0|06                                             |.               |        strings: false 0x38e0.2-0x38e0.2 (0.1)
0x38e0|06                                             |.               |        merge: false 0x38e0.3-0x38e0.3 (0.1)
0x38e0|06                                             |.               |        unused0: 0 0x38e0.4-0x38e0.4 (0.1)
0x38e0|06                                             |.               |        execinstr: true 0x38e0.5-0x38e0.5 (0.1)
0x38e0|06                                             |.               |        alloc: true 0x38e0.6-0x38e0.6 (0.1)
0x38e0|06                                             |.               |        write: false 0x38e0.7-0x38e0.7 (0.1)
0x38e0|   00                                          | .              |        tls: false 0x38e1-0x38e1 (0.1)
0x38e0|   00                                          | .              |        group: false 0x38e1.1-0x38e1.1 (0.1)
0x38e0|   00                                          | .              |        os_nonconforming: false 0x38e1.2-0x38e1.2 (0.1)
0x38e0|   00 00                                       | ..             |        unused1: 0 0x38e1.3-0x38e2.3 (1.1)
0x38e0|      00 00                                    |  ..            |        os_specific: 0 0x38e2.4-0x38e3.3 (1)
0x38e0|         00                                    |   .            |        processor_specific: 0 0x38e3.4-0x38e3.7 (0.4)
0x38e0|            40 10 00 00                        |    @...        |      addr: 0x1040 0x38e4-0x38e7.7 (4)
0x38e0|                        40 10 00 00            |        @...    |      offset: 4160 0x38e8-0x38eb.7 (4)
0x38e0|                                    18 00 00 00|            ....|      size: 0x18 0x38ec-0x38ef.7 (4)
0x38f0|00 00 00 00                                    |....            |      link: 0 0x38f0-0x38f3.7 (4)
0x38f0|            00 00 00 00                        |    ....        |      info: 0 0x38f4-0x38f7.7 (4)
0x38f0|                        08 00 00 00            |        ....    |      addralign: 8 0x38f8-0x38fb.7 (4)
0x38f0|                                    08 00 00 00|            ....|      entsize: 8 0x38fc-0x38ff.7 (4)
      |                                               |                |    [9]{}: section_header 0x1060-0x3927.7 (10440)
0x1060|e8 85 01 00 00 81 c2 77 2f 00 00 8d 8a 28 00 00|.......w/....(..|      data: raw bits 0x1060-0x1270.7 (529)
*     |until 0x1270.7 (529)                           |                |
0x3900|56 00 00 00                                    |V...            |      name: ".text" (86) 0x3900-0x3903.7 (4)
0x3900|            01 00 00 00                        |    ....        |      type: "progbits" (0x1) (Information defined by the program) 0x3904-0x3907.7 (4)
      |                                               |                |      flags{}: 0x3908-0x390b.7 (4)
0x3900|                        06                     |        .       |        link_order: false 0x3908-0x3908 (0.1)
0x3900|                        06                     |        .       |        info_link: false 0x3908.1-0x3908.1 (0.1)
0x3900|                        06                     |        .       |        strings: false 0x3908.2-0x3908.2 (0.1)
0x3900|                        06                     |        .       |        merge: false 0x3908.3-0x3908.3 (0.1)
0x3900|                        06                     |        .       |        unused0: 0 0x3908.4-0x3908.4 (0.1)
0x3900|                        06                     |        .       |        execinstr: true 0x3908.5-0x3908.5 (0.1)
0x3900|                        06                     |        .       |        alloc: true 0x3908.6-0x3908.6 (0.1)
0x3900|                        06                     |        .       |        write: false 0x3908.7-0x3908.7 (0.1)
0x3900|                           00                  |         .      |        tls: false 0x3909-0x3909 (0.1)
0x3900|                           00                  |         .      |        group: false 0x3909.1-0x3909.1 (0.1)
0x3900|                           00                  |         .      |        os_nonconforming: false 0x3909.2-0x3909.2 (0.1)
0x3900|                           00 00               |         ..     |        unused1: 0 0x3909.3-0x390a.3 (1.1)
0x3900|                              00 00            |          ..    |        os_specific: 0 0x390a.4-0x390b.3 (1)
0x3900|                                 00            |           .    |        processor_specific: 0 0x390b.4-0x390b.7 (0.4)
0x3900|                                    60 10 00 00|            `...|      addr: 0x1060 0x390c-0x390f.7 (4)
0x3910|60 10 00 00                                    |`...            |      offset: 4192 0x3910-0x3913.7 (4)
0x3910|            11 02 00 00                        |    ....        |      size: 0x211 0x3914-0x3917.7 (4)
0x3910|                        00 00 00 00            |        ....    |      link: 0 0x3918-0x391b.7 (4)
0x3910|                                    00 00 00 00|            ....|      info: 0 0x391c-0x391f.7 (4)
0x3920|10 00 00 00                                    |....            |      addralign: 16 0x3920-0x3923.7 (4)
0x3920|            00 00 00 00                        |    ....        |      entsize: 0 0x3924-0x3927.7 (4)
      |                                               |                |    [10]{}: section_header 0x1271-0x394f.7 (9951)
0x1270|   83 ec 0c e8 77 fe ff ff 83 c4 0c c3         | ....w.......   |      data: raw bits 0x1271-0x127c.7 (12)
0x3920|                        5c 00 00 00            |        \...    |      name: ".fini" (92) 0x3928-0x392b.7 (4)
0x3920|                                    01 00 00 00|            ....|      type: "progbits" (0x1) (Information defined by the program) 0x392c-0x392f.7 (4)
      |                                               |                |      flags{}: 0x3930-0x3933.7 (4)
0x3930|06                                             |.               |        link_order: false 0x3930-0x3930 (0.1)
0x3930|06                                             |.               |        info_link: false 0x3930.1-0x3930.1 (0.1)
0x3930|06                                             |.               |        strings: false 0x3930.2-0x3930.2 (0.1)
0x3930|06                                             |.               |        merge: false 0x3930.3-0x3930.3 (0.1)
0x3930|06                                             |.               |        unused0: 0 0x3930.4-0x3930.4 (0.1)
0x3930|06                                             |.               |        execinstr: true 0x3930.5-0x3930.5 (0.1)
0x3930|06                                             |.               |        alloc: true 0x3930.6-0x3930.6 (0.1)
0x3930|06                                             |.               |        write: false 0x3930.7-0x3930.7 (0.1)
0x3930|   00                                          | .              |        tls: false 0x3931-0x3931 (0.1)
0x3930|   00                                          | .              |        group: false 0x3931.1-0x3931.1 (0.1)
0x3930|   00                                          | .              |        os_nonconforming: false 0x3931.2-0x3931.2 (0.1)
0x3930|   00 00                                       | ..             |        unused1: 0 0x3931.3-0x3932.3 (1.1)
0x3930|      00 00                                    |  ..            |        os_specific: 0 0x3932.4-0x3933.3 (1)
0x3930|         00                                    |   .            |        processor_specific: 0 0x3933.4-0x3933.7 (0.4)
0x3930|            71 12 00 00                        |    q...        |      addr: 0x1271 0x3934-0x3937.7 (4)
0x3930|                        71 12 00 00            |        q...    |      offset: 4721 0x3938-0x393b.7 (4)
0x3930|                                    0c 00 00 00|            ....|      size: 0xc 0x393c-0x393f.7 (4)
0x3940|00 00 00 00                                    |....            |      link: 0 0x3940-0x3943.7 (4)
0x3940|            00 00 00 00                        |    ....        |      info: 0 0x3944-0x3947.7 (4)
0x3940|                        01 00 00 00            |        ....    |      addralign: 1 0x3948-0x394b.7 (4)
0x3940|                                    00 00 00 00|            ....|      entsize: 0 0x394c-0x394f.7 (4)
      |                                               |                |    [11]{}: section_header 0x2000-0x3977.7 (6520)
0x2000|6c 69 62 62 62 62 5f 62 62 62 00               |libbbb_bbb.     |      data: raw bits 0x2000-0x200a.7 (11)
0x3950|62 00 00 00                                    |b...            |      name: ".rodata" (98) 0x3950-0x3953.7 (4)
0x3950|            01 00 00 00                        |    ....        |      type: "progbits" (0x1) (Information defined by the program) 0x3954-0x3957.7 (4)
      |                                               |                |      flags{}: 0x3958-0x395b.7 (4)
0x3950|                        02                     |        .       |        link_order: false 0x3958-0x3958 (0.1)
0x3950|                        02                     |        .       |        info_link: false 0x3958.1-0x3958.1 (0.1)
0x3950|                        02                     |        .       |        strings: false 0x3958.2-0x3958.2 (0.1)
0x3950|                        02                     |        .       |        merge: false 0x3958.3-0x3958.3 (0.1)
0x3950|                        02                     |        .       |        unused0: 0 0x3958.4-0x3958.4 (0.1)
0x3950|                        02                     |        .       |        execinstr: false 0x3958.5-0x3958.5 (0.1)
0x3950|                        02                     |        .       |        alloc: true 0x3958.6-0x3958.6 (0.1)
0x3950|                        02                     |        .       |        write: false 0x3958.7-0x3958.7 (0.1)
0x3950|                           00                  |         .      |        tls: false 0x3959-0x3959 (0.1)
0x3950|                           00                  |         .      |        group: false 0x3959.1-0x3959.1 (0.1)
0x3950|                           00                  |         .      |        os_nonconforming: false 0x3959.2-0x3959.2 (0.1)
0x3950|                           00 00               |         ..     |        unused1: 0 0x3959.3-0x395a.3 (1.1)
0x3950|                              00 00            |          ..    |        os_specific: 0 0x395a.4-0x395b.3 (1)
0x3950|                                 00            |           .    |        processor_specific: 0 0x395b.4-0x395b.7 (0.4)
0x3950|                                    00 20 00 00|            . ..|      addr: 0x2000 0x395c-0x395f.7 (4)
0x3960|00 20 00 00                                    |. ..            |      offset: 8192 0x3960-0x3963.7 (4)
0x3960|            0b 00 00 00                        |    ....        |      size: 0xb 0x3964-0x3967.7 (4)
0x3960|                        00 00 00 00            |        ....    |      link: 0 0x3968-0x396b.7 (4)
0x3960|                                    00 00 00 00|            ....|      info: 0 0x396c-0x396f.7 (4)
0x3970|01 00 00 00                                    |....            |      addralign: 1 0x3970-0x3973.7 (4)
0x3970|            00 00 00 00                        |    ....        |      entsize: 0 0x3974-0x3977.7 (4)
      |                                               |                |    [12]{}: section_header 0x200c-0x399f.7 (6548)
0x2000|                                    01 1b 03 3b|            ...;|      data: raw bits 0x200c-0x2037.7 (44)
0x2010|28 00 00 00 04 00 00 00 14 f0 ff ff 44 00 00 00|(...........D...|
*     |until 0x2037.7 (44)                            |                |
0x3970|                        6a 00 00 00            |        j...    |      name: ".eh_frame_hdr" (106) 0x3978-0x397b.7 (4)
0x3970|                                    01 00 00 00|            ....|      type: "progbits" (0x1) (Information defined by the program) 0x397c-0x397f.7 (4)
      |                                               |                |      flags{}: 0x3980-0x3983.7 (4)
0x3980|02                                             |.               |        link_order: false 0x3980-0x3980 (0.1)
0x3980|02                                             |.               |        info_link: false 0x3980.1-0x3980.1 (0.1)
0x3980|02                                             |.               |        strings: false 0x3980.2-0x3980.2 (0.1)
0x3980|02                                             |.               |        merge: false 0x3980.3-0x3980.3 (0.1)
0x3980|02                                             |.               |        unused0: 0 0x3980.4-0x3980.4 (0.1)
0x3980|02                                             |.               |        execinstr: false 0x3980.5-0x3980.5 (0.1)
0x3980|02                                             |.               |        alloc: true 0x3980.6-0x3980.6 (0.1)
0x3980|02                                             |.               |        write: false 0x3980.7-0x3980.7 (0.1)
0x3980|   00                                          | .              |        tls: false 0x3981-0x3981 (0.1)
0x3980|   00                                          | .              |        group: false 0x3981.1-0x3981.1 (0.1)
0x3980|   00                                          | .              |        os_nonconforming: false 0x3981.2-0x3981.2 (0.1)
0x3980|   00 00                                       | ..             |        unused1: 0 0x3981.3-0x3982.3 (1.1)
0x3980|      00 00                                    |  ..            |        os_specific: 0 0x3982.4-0x3983.3 (1)
0x3980|         00                                    |   .            |        processor_specific: 0 0x3983.4-0x3983.7 (0.4)
0x3980|            0c 20 00 00                        |    . ..        |      addr: 0x200c 0x3984-0x3987.7 (4)
0x3980|                        0c 20 00 00            |        . ..    |      offset: 8204 0x3988-0x398b.7 (4)
0x3980|                                    2c 00 00 00|            ,...|      size: 0x2c 0x398c-0x398f.7 (4)
0x3990|00 00 00 00                                    |....            |      link: 0 0x3990-0x3993.7 (4)
0x3990|            00 00 00 00                        |    ....        |      info: 0 0x3994-0x3997.7 (4)
0x3990|                        04 00 00 00            |        ....    |      addralign: 4 0x3998-0x399b.7 (4)
0x3990|                                    00 00 00 00|            ....|      entsize: 0 0x399c-0x399f.7 (4)
      |                                               |                |    [13]{}: section_header 0x2038-0x39c7.7 (6544)
0x2030|                        14 00 00 00 00 00 00 00|        ........|      data: raw bits 0x2038-0x20c3.7 (140)
0x2040|01 7a 52 00 01 7c 08 01 1b 0c 04 04 88 01 00 00|.zR..|..........|
*     |until 0x20c3.7 (140)                           |                |
0x39a0|78 00 00 00                                    |x...            |      name: ".eh_frame" (120) 0x39a0-0x39a3.7 (4)
0x39a0|            01 00 00 00                        |    ....        |      type: "progbits" (0x1) (Information defined by the program) 0x39a4-0x39a7.7 (4)
      |                                               |                |      flags{}: 0x39a8-0x39ab.7 (4)
0x39a0|                        02                     |        .       |        link_order: false 0x39a8-0x39a8 (0.1)
0x39a0|                        02                     |        .       |        info_link: false 0x39a8.1-0x39a8.1 (0.1)
0x39a0|                        02                     |        .       |        strings: false 0x39a8.2-0x39a8.2 (0.1)
0x39a0|                        02                     |        .       |        merge: false 0x39a8.3-0x39a8.3 (0.1)
0x39a0|                        02                     |        .       |        unused0: 0 0x39a8.4-0x39a8.4 (0.1)
0x39a0|                        02                     |        .       |        execinstr: false 0x39a8.5-0x39a8.5 (0.1)
0x39a0|                        02                     |        .       |        alloc: true 0x39a8.6-0x39a8.6 (0.1)
0x39a0|                        02                     |        .       |        write: false 0x39a8.7-0x39a8.7 (0.1)
0x39a0|                           00                  |         .      |        tls: false 0x39a9-0x39a9 (0.1)
0x39a0|                           00                  |         .      |        group: false 0x39a9.1-0x39a9.1 (0.1)
0x39a0|                           00                  |         .      |        os_nonconforming: false 0x39a9.2-0x39a9.2 (0.1)
0x39a0|                           00 00               |         ..     |        unused1: 0 0x39a9.3-0x39aa.3 (1.1)
0x39a0|                              00 00            |          ..    |        os_specific: 0 0x39aa.4-0x39ab.3 (1)
0x39a0|                                 00            |           .    |        processor_specific: 0 0x39ab.4-0x39ab.7 (0.4)
0x39a0|                                    38 20 00 00|            8 ..|      addr: 0x2038 0x39ac-0x39af.7 (4)
0x39b0|38 20 00 00                                    |8 ..            |      offset: 8248 0x39b0-0x39b3.7 (4)
0x39b0|            8c 00 00 00                        |    ....        |      size: 0x8c 0x39b4-0x39b7.7 (4)
0x39b0|                        00 00 00 00            |        ....    |      link: 0 0x39b8-0x39bb.7 (4)
0x39b0|                                    00 00 00 00|            ....|      info: 0 0x39bc-0x39bf.7 (4)
0x39c0|04 00 00 00                                    |....            |      addralign: 4 0x39c0-0x39c3.7 (4)
0x39c0|            00 00 00 00                        |    ....        |      entsize: 0 0x39c4-0x39c7.7 (4)
      |                                               |                |    [14]{}: section_header 0x20c4-0x39ef.7 (6444)
0x20c0|            04 00 00 00 18 00 00 00 05 00 00 00|    ............|      data: raw bits 0x20c4-0x20eb.7 (40)
0x20d0|47 4e 55 00 01 00 01 c0 04 00 00 00 01 00 00 00|GNU.............|
0x20e0|02 00 01 c0 04 00 00 00 00 00 00 00            |............    |
0x39c0|                        82 00 00 00            |        ....    |      name: ".note.gnu.property" (130) 0x39c8-0x39cb.7 (4)
0x39c0|                                    07 00 00 00|            ....|      type: "note" (0x7) (Information that marks the file in some way) 0x39cc-0x39cf.7 (4)
      |                                               |                |      flags{}: 0x39d0-0x39d3.7 (4)
0x39d0|02                                             |.               |        link_order: false 0x39d0-0x39d0 (0.1)
0x39d0|02                                             |.               |        info_link: false 0x39d0.1-0x39d0.1 (0.1)
0x39d0|02                                             |.               |        strings: false 0x39d0.2-0x39d0.2 (0.1)
0x39d0|02                                             |.               |        merge: false 0x39d0.3-0x39d0.3 (0.1)
0x39d0|02                                             |.               |        unused0: 0 0x39d0.4-0x39d0.4 (0.1)
0x39d0|02                                             |.               |        execinstr: false 0x39d0.5-0x39d0.5 (0.1)
0x39d0|02                                             |.               |        alloc: true 0x39d0.6-0x39d0.6 (0.1)
0x39d0|02                                             |.               |        write: false 0x39d0.7-0x39d0.7 (0.1)
0x39d0|   00                                          | .              |        tls: false 0x39d1-0x39d1 (0.1)
0x39d0|   00                                          | .              |        group: false 0x39d1.1-0x39d1.1 (0.1)
0x39d0|   00                                          | .              |        os_nonconforming: false 0x39d1.2-0x39d1.2 (0.1)
0x39d0|   00 00                                       | ..             |        unused1: 0 0x39d1.3-0x39d2.3 (1.1)
0x39d0|      00 00                                    |  ..            |        os_specific: 0 0x39d2.4-0x39d3.3 (1)
0x39d0|         00                                    |   .            |        processor_specific: 0 0x39d3.4-0x39d3.7 (0.4)
0x39d0|            c4 20 00 00                        |    . ..        |      addr: 0x20c4 0x39d4-0x39d7.7 (4)
0x39d0|                        c4 20 00 00            |        . ..    |      offset: 8388 0x39d8-0x39db.7 (4)
0x39d0|                                    28 00 00 00|            (...|      size: 0x28 0x39dc-0x39df.7 (4)
0x39e0|00 00 00 00                                    |....            |      link: 0 0x39e0-0x39e3.7 (4)
0x39e0|            00 00 00 00                        |    ....        |      info: 0 0x39e4-0x39e7.7 (4)
0x39e0|                        04 00 00 00            |        ....    |      addralign: 4 0x39e8-0x39eb.7 (4)
0x39e0|                                    00 00 00 00|            ....|      entsize: 0 0x39ec-0x39ef.7 (4)
      |                                               |                |    [15]{}: section_header 0x2f14-0x3a17.7 (2820)
0x2f10|            ff ff ff ff 00 00 00 00            |    ........    |      data: raw bits 0x2f14-0x2f1b.7 (8)
0x39f0|95 00 00 00                                    |....            |      name: ".ctors" (149) 0x39f0-0x39f3.7 (4)
0x39f0|            01 00 00 00                        |    ....        |      type: "progbits" (0x1) (Information defined by the program) 0x39f4-0x39f7.7 (4)
      |                                               |                |      flags{}: 0x39f8-0x39fb.7 (4)
0x39f0|                        03                     |        .       |        link_order: false 0x39f8-0x39f8 (0.1)
0x39f0|                        03                     |        .       |        info_link: false 0x39f8.1-0x39f8.1 (0.1)
0x39f0|                        03                     |        .       |        strings: false 0x39f8.2-0x39f8.2 (0.1)
0x39f0|                        03                     |        .       |        merge: false 0x39f8.3-0x39f8.3 (0.1)
0x39f0|                        03                     |        .       |        unused0: 0 0x39f8.4-0x39f8.4 (0.1)
0x39f0|                        03                     |        .       |        execinstr: false 0x39f8.5-0x39f8.5 (0.1)
0x39f0|                        03                     |        .       |        alloc: true 0x39f8.6-0x39f8.6 (0.1)
0x39f0|                        03                     |        .       |        write: true 0x39f8.7-0x39f8.7 (0.1)
0x39f0|                           00                  |         .      |        tls: false 0x39f9-0x39f9 (0.1)
0x39f0|                           00                  |         .      |        group: false 0x39f9.1-0x39f9.1 (0.1)
0x39f0|                           00                  |         .      |        os_nonconforming: false 0x39f9.2-0x39f9.2 (0.1)
0x39f0|                           00 00               |         ..     |        unused1: 0 0x39f9.3-0x39fa.3 (1.1)
0x39f0|                              00 00            |          ..    |        os_specific: 0 0x39fa.4-0x39fb.3 (1)
0x39f0|                                 00            |           .    |        processor_specific: 0 0x39fb.4-0x39fb.7 (0.4)
0x39f0|                                    14 3f 00 00|            .?..|      addr: 0x3f14 0x39fc-0x39ff.7 (4)
0x3a00|14 2f 00 00                                    |./..            |      offset: 12052 0x3a00-0x3a03.7 (4)
0x3a00|            08 00 00 00                        |    ....        |      size: 0x8 0x3a04-0x3a07.7 (4)
0x3a00|                        00 00 00 00            |        ....    |      link: 0 0x3a08-0x3a0b.7 (4)
0x3a00|                                    00 00 00 00|            ....|      info: 0 0x3a0c-0x3a0f.7 (4)
0x3a10|04 00 00 00                                    |....            |      addralign: 4 0x3a10-0x3a13.7 (4)
0x3a10|            00 00 00 00                        |    ....        |      entsize: 0 0x3a14-0x3a17.7 (4)
      |                                               |                |    [16]{}: section_header 0x2f1c-0x3a3f.7 (2852)
0x2f10|                                    ff ff ff ff|            ....|      data: raw bits 0x2f1c-0x2f23.7 (8)
0x2f20|00 00 00 00                                    |....            |
0x3a10|                        9c 00 00 00            |        ....    |      name: ".dtors" (156) 0x3a18-0x3a1b.7 (4)
0x3a10|                                    01 00 00 00|            ....|      type: "progbits" (0x1) (Information defined by the program) 0x3a1c-0x3a1f.7 (4)
      |                                               |                |      flags{}: 0x3a20-0x3a23.7 (4)
0x3a20|03                                             |.               |        link_order: false 0x3a20-0x3a20 (0.1)
0x3a20|03                                             |.               |        info_link: false 0x3a20.1-0x3a20.1 (0.1)
0x3a20|03                                             |.               |        strings: false 0x3a20.2-0x3a20.2 (0.1)
0x3a20|03                                             |.               |        merge: false 0x3a20.3-0x3a20.3 (0.1)
0x3a20|03                                             |.               |        unused0: 0 0x3a20.4-0x3a20.4 (0.1)
0x3a20|03                                             |.               |        execinstr: false 0x3a20.5-0x3a20.5 (0.1)
0x3a20|03                                             |.               |        alloc: true 0x3a20.6-0x3a20.6 (0.1)
0x3a20|03                                             |.               |        write: true 0x3a20.7-0x3a20.7 (0.1)
0x3a20|   00                                          | .              |        tls: false 0x3a21-0x3a21 (0.1)
0x3a20|   00                                          | .              |        group: false 0x3a21.1-0x3a21.1 (0.1)
0x3a20|   00                                          | .              |        os_nonconforming: false 0x3a21.2-0x3a21.2 (0.1)
0x3a20|   00 00                                       | ..             |        unused1: 0 0x3a21.3-0x3a22.3 (1.1)
0x3a20|      00 00                                    |  ..            |        os_specific: 0 0x3a22.4-0x3a23.3 (1)
0x3a20|         00                                    |   .            |        processor_specific: 0 0x3a23.4-0x3a23.7 (0.4)
0x3a20|            1c 3f 00 00                        |    .?..        |      addr: 0x3f1c 0x3a24-0x3a27.7 (4)
0x3a20|                        1c 2f 00 00            |        ./..    |      offset: 12060 0x3a28-0x3a2b.7 (4)
0x3a20|                                    08 00 00 00|            ....|      size: 0x8 0x3a2c-0x3a2f.7 (4)
0x3a30|00 00 00 00                                    |....            |      link: 0 0x3a30-0x3a33.7 (4)
0x3a30|            00 00 00 00                        |    ....        |      info: 0 0x3a34-0x3a37.7 (4)
0x3a30|                        04 00 00 00            |        ....    |      addralign: 4 0x3a38-0x3a3b.7 (4)
0x3a30|                                    00 00 00 00|            ....|      entsize: 0 0x3a3c-0x3a3f.7 (4)
      |                                               |                |    [17]{}: section_header 0x2f24-0x3a67.7 (2884)
      |                                               |                |      dynamic_tags[0:19]: 0x2f24-0x2fbb.7 (152)
      |                                               |                |        [0]{}: dynamic_tags 0x2f24-0x2f2b.7 (8)
0x2f20|            01 00 00 00                        |    ....        |          tag: "needed" (1) (String table offset to name of a needed library) 0x2f24-0x2f27.7 (4)
0x2f20|                        9c 00 00 00            |        ....    |          val: "libc.musl-x86.so.1" (156) 0x2f28-0x2f2b.7 (4)
      |                                               |                |        [1]{}: dynamic_tags 0x2f2c-0x2f33.7 (8)
0x2f20|                                    0c 00 00 00|            ....|          tag: "init" (12) (Address of the initialization function) 0x2f2c-0x2f2f.7 (4)
0x2f30|00 10 00 00                                    |....            |          ptr: 0x1000 0x2f30-0x2f33.7 (4)
      |                                               |                |          section_index: 6 0x2f34-NA (0)
      |                                               |                |        [2]{}: dynamic_tags 0x2f34-0x2f3b.7 (8)
0x2f30|            0d 00 00 00                        |    ....        |          tag: "fini" (13) (Address of the termination function) 0x2f34-0x2f37.7 (4)
0x2f30|                        71 12 00 00            |        q...    |          ptr: 0x1271 0x2f38-0x2f3b.7 (4)
      |                                               |                |          section_index: 10 0x2f3c-NA (0)
      |                                               |                |        [3]{}: dynamic_tags 0x2f3c-0x2f43.7 (8)
0x2f30|                                    f5 fe ff 6f|            ...o|          tag: 1879047925 0x2f3c-0x2f3f.7 (4)
0x2f40|74 01 00 00                                    |t...            |          unspecified: 0x174 0x2f40-0x2f43.7 (4)
      |                                               |                |        [4]{}: dynamic_tags 0x2f44-0x2f4b.7 (8)
0x2f40|            05 00 00 00                        |    ....        |          tag: "strtab" (5) (Address of string table) 0x2f44-0x2f47.7 (4)
0x2f40|                        40 02 00 00            |        @...    |          ptr: 0x240 0x2f48-0x2f4b.7 (4)
      |                                               |                |          section_index: 3 0x2f4c-NA (0)
      |                                               |                |        [5]{}: dynamic_tags 0x2f4c-0x2f53.7 (8)
0x2f40|                                    06 00 00 00|            ....|          tag: "symtab" (6) (Address of symbol table) 0x2f4c-0x2f4f.7 (4)
0x2f50|a0 01 00 00                                    |....            |          ptr: 0x1a0 0x2f50-0x2f53.7 (4)
      |                                               |                |          section_index: 2 0x2f54-NA (0)
      |                                               |                |        [6]{}: dynamic_tags 0x2f54-0x2f5b.7 (8)
0x2f50|            0a 00 00 00                        |    ....        |          tag: "strsz" (10) (Size in bytes of string table) 0x2f54-0x2f57.7 (4)
0x2f50|                        af 00 00 00            |        ....    |          val: 175 0x2f58-0x2f5b.7 (4)
      |                                               |                |        [7]{}: dynamic_tags 0x2f5c-0x2f63.7 (8)
0x2f50|                                    0b 00 00 00|            ....|          tag: "syment" (11) (Size in bytes of a symbol table entry) 0x2f5c-0x2f5f.7 (4)
0x2f60|10 00 00 00                                    |....            |          val: 16 0x2f60-0x2f63.7 (4)
      |                                               |                |        [8]{}: dynamic_tags 0x2f64-0x2f6b.7 (8)
0x2f60|            03 00 00 00                        |    ....        |          tag: "pltgot" (3) (Address of PLT and/or GOT) 0x2f64-0x2f67.7 (4)
0x2f60|                        dc 3f 00 00            |        .?..    |          ptr: 0x3fdc 0x2f68-0x2f6b.7 (4)
      |                                               |                |          section_index: 18 0x2f6c-NA (0)
      |                                               |                |        [9]{}: dynamic_tags 0x2f6c-0x2f73.7 (8)
0x2f60|                                    02 00 00 00|            ....|          tag: "pltrelsz" (2) (Size in bytes of PLT relocation entries) 0x2f6c-0x2f6f.7 (4)
0x2f70|08 00 00 00                                    |....            |          val: 8 0x2f70-0x2f73.7 (4)
      |                                               |                |        [10]{}: dynamic_tags 0x2f74-0x2f7b.7 (8)
0x2f70|            14 00 00 00                        |    ....        |          tag: "pltrel" (20) (Type of relocation entry to which the PLT refers (Rela or Rel)) 0x2f74-0x2f77.7 (4)
0x2f70|                        11 00 00 00            |        ....    |          val: 17 0x2f78-0x2f7b.7 (4)
      |                                               |                |        [11]{}: dynamic_tags 0x2f7c-0x2f83.7 (8)
0x2f70|                                    17 00 00 00|            ....|          tag: "jmprel" (23) (Address of relocation entries associated solely with the PLT) 0x2f7c-0x2f7f.7 (4)
0x2f80|20 03 00 00                                    | ...            |          ptr: 0x320 0x2f80-0x2f83.7 (4)
      |                                               |                |          section_index: 5 0x2f84-NA (0)
      |                                               |                |        [12]{}: dynamic_tags 0x2f84-0x2f8b.7 (8)
0x2f80|            11 00 00 00                        |    ....        |          tag: "rel" (17) 0x2f84-0x2f87.7 (4)
0x2f80|                        f0 02 00 00            |        ....    |          ptr: 0x2f0 0x2f88-0x2f8b.7 (4)
      |                                               |                |        [13]{}: dynamic_tags 0x2f8c-0x2f93.7 (8)
0x2f80|                                    12 00 00 00|            ....|          tag: "relsz" (18) (Size in bytes of Rel relocation table) 0x2f8c-0x2f8f.7 (4)
0x2f90|30 00 00 00                                    |0...            |          val: 48 0x2f90-0x2f93.7 (4)
      |                                               |                |        [14]{}: dynamic_tags 0x2f94-0x2f9b.7 (8)
0x2f90|            13 00 00 00                        |    ....        |          tag: "relent" (19) (Size in bytes of a Rel table entry) 0x2f94-0x2f97.7 (4)
0x2f90|                        08 00 00 00            |        ....    |          val: 8 0x2f98-0x2f9b.7 (4)
      |                                               |                |        [15]{}: dynamic_tags 0x2f9c-0x2fa3.7 (8)
0x2f90|                                    18 00 00 00|            ....|          tag: "bind_now" (24) (Instruct dynamic linker to process all relocations before transferring control to the executable) 0x2f9c-0x2f9f.7 (4)
0x2fa0|00 00 00 00                                    |....            |          ignored: 0x0 0x2fa0-0x2fa3.7 (4)
      |                                               |                |        [16]{}: dynamic_tags 0x2fa4-0x2fab.7 (8)
0x2fa0|            fb ff ff 6f                        |    ...o        |          tag: 1879048187 0x2fa4-0x2fa7.7 (4)
0x2fa0|                        01 00 00 00            |        ....    |          unspecified: 0x1 0x2fa8-0x2fab.7 (4)
      |                                               |                |        [17]{}: dynamic_tags 0x2fac-0x2fb3.7 (8)
0x2fa0|                                    fa ff ff 6f|            ...o|          tag: 1879048186 0x2fac-0x2faf.7 (4)
0x2fb0|01 00 00 00                                    |....            |          unspecified: 0x1 0x2fb0-0x2fb3.7 (4)
      |                                               |                |        [18]{}: dynamic_tags 0x2fb4-0x2fbb.7 (8)
0x2fb0|            00 00 00 00                        |    ....        |          tag: "null" (0) (Marks end of dynamic section) 0x2fb4-0x2fb7.7 (4)
0x2fb0|                        00 00 00 00            |        ....    |          ignored: 0x0 0x2fb8-0x2fbb.7 (4)
0x3a40|a3 00 00 00                                    |....            |      name: ".dynamic" (163) 0x3a40-0x3a43.7 (4)
0x3a40|            06 00 00 00                        |    ....        |      type: "dynamic" (0x6) (Information for dynamic linking) 0x3a44-0x3a47.7 (4)
      |                                               |                |      flags{}: 0x3a48-0x3a4b.7 (4)
0x3a40|                        03                     |        .       |        link_order: false 0x3a48-0x3a48 (0.1)
0x3a40|                        03                     |        .       |        info_link: false 0x3a48.1-0x3a48.1 (0.1)
0x3a40|                        03                     |        .       |        strings: false 0x3a48.2-0x3a48.2 (0.1)
0x3a40|                        03                     |        .       |        merge: false 0x3a48.3-0x3a48.3 (0.1)
0x3a40|                        03                     |        .       |        unused0: 0 0x3a48.4-0x3a48.4 (0.1)
0x3a40|                        03                     |        .       |        execinstr: false 0x3a48.5-0x3a48.5 (0.1)
0x3a40|                        03                     |        .       |        alloc: true 0x3a48.6-0x3a48.6 (0.1)
0x3a40|                        03                     |        .       |        write: true 0x3a48.7-0x3a48.7 (0.1)
0x3a40|                           00                  |         .      |        tls: false 0x3a49-0x3a49 (0.1)
0x3a40|                           00                  |         .      |        group: false 0x3a49.1-0x3a49.1 (0.1)
0x3a40|                           00                  |         .      |        os_nonconforming: false 0x3a49.2-0x3a49.2 (0.1)
0x3a40|                           00 00               |         ..     |        unused1: 0 0x3a49.3-0x3a4a.3 (1.1)
0x3a40|                              00 00            |          ..    |        os_specific: 0 0x3a4a.4-0x3a4b.3 (1)
0x3a40|                                 00            |           .    |        processor_specific: 0 0x3a4b.4-0x3a4b.7 (0.4)
0x3a40|                                    24 3f 00 00|            $?..|      addr: 0x3f24 0x3a4c-0x3a4f.7 (4)
0x3a50|24 2f 00 00                                    |$/..            |      offset: 12068 0x3a50-0x3a53.7 (4)
0x3a50|            b8 00 00 00                        |    ....        |      size: 0xb8 0x3a54-0x3a57.7 (4)
0x3a50|                        03 00 00 00            |        ....    |      link: 3 0x3a58-0x3a5b.7 (4)
0x3a50|                                    00 00 00 00|            ....|      info: 0 0x3a5c-0x3a5f.7 (4)
0x3a60|04 00 00 00                                    |....            |      addralign: 4 0x3a60-0x3a63.7 (4)
0x3a60|            08 00 00 00                        |    ....        |      entsize: 8 0x3a64-0x3a67.7 (4)
      |                                               |                |    [18]{}: section_header 0x2fdc-0x3a8f.7 (2740)
0x2fd0|                                    24 3f 00 00|            $?..|      data: raw bits 0x2fdc-0x2fff.7 (36)
0x2fe0|00 00 00 00 00 00 00 00 36 10 00 00 00 00 00 00|........6.......|
0x2ff0|00 00 00 00 00 00 00 00 00 00 00 00 00 00 00 00|................|
0x3a60|                        51 00 00 00            |        Q...    |      name: ".got" (81) 0x3a68-0x3a6b.7 (4)
0x3a60|                                    01 00 00 00|            ....|      type: "progbits" (0x1) (Information defined by the program) 0x3a6c-0x3a6f.7 (4)
      |                                               |                |      flags{}: 0x3a70-0x3a73.7 (4)
0x3a70|03                                             |.               |        link_order: false 0x3a70-0x3a70 (0.1)
0x3a70|03                                             |.               |        info_link: false 0x3a70.1-0x3a70.1 (0.1)
0x3a70|03                                             |.               |        strings: false 0x3a70.2-0x3a70.2 (0.1)
0x3a70|03                                             |.               |        merge: false 0x3a70.3-0x3a70.3 (0.1)
0x3a70|03                                             |.               |        unused0: 0 0x3a70.4-0x3a70.4 (0.1)
0x3a70|03                                             |.               |        execinstr: false 0x3a70.5-0x3a70.5 (0.1)
0x3a70|03                                             |.               |        alloc: true 0x3a70.6-0x3a70.6 (0.1)
0x3a70|03                                             |.               |        write: true 0x3a70.7-0x3a70.7 (0.1)
0x3a70|   00                                          | .              |        tls: false 0x3a71-0x3a71 (0.1)
0x3a70|   00                                          | .              |        group: false 0x3a71.1-0x3a71.1 (0.1)
0x3a70|   00                                          | .              |        os_nonconforming: false 0x3a71.2-0x3a71.2 (0.1)
0x3a70|   00 00                                       | ..             |        unused1: 0 0x3a71.3-0x3a72.3 (1.1)
0x3a70|      00 00                                    |  ..            |        os_specific: 0 0x3a72.4-0x3a73.3 (1)
0x3a70|         00                                    |   .            |        processor_specific: 0 0x3a73.4-0x3a73.7 (0.4)
0x3a70|            dc 3f 00 00                        |    .?..        |      addr: 0x3fdc 0x3a74-0x3a77.7 (4)
0x3a70|                        dc 2f 00 00            |        ./..    |      offset: 12252 0x3a78-0x3a7b.7 (4)
0x3a70|                                    24 00 00 00|            $...|      size: 0x24 0x3a7c-0x3a7f.7 (4)
0x3a80|00 00 00 00                                    |....            |      link: 0 0x3a80-0x3a83.7 (4)
0x3a80|            00 00 00 00                        |    ....        |      info: 0 0x3a84-0x3a87.7 (4)
0x3a80|                        04 00 00 00            |        ....    |      addralign: 4 0x3a88-0x3a8b.7 (4)
0x3a80|                                    04 00 00 00|            ....|      entsize: 4 0x3a8c-0x3a8f.7 (4)
      |                                               |                |    [19]{}: section_header 0x3000-0x3ab7.7 (2744)
0x3000|00 40 00 00                                    |.@..            |      data: raw bits 0x3000-0x3003.7 (4)
0x3a90|ac 00 00 00                                    |....            |      name: ".data" (172) 0x3a90-0x3a93.7 (4)
0x3a90|            01 00 00 00                        |    ....        |      type: "progbits" (0x1) (Information defined by the program) 0x3a94-0x3a97.7 (4)
      |                                               |                |      flags{}: 0x3a98-0x3a9b.7 (4)
0x3a90|                        03                     |        .       |        link_order: false 0x3a98-0x3a98 (0.1)
0x3a90|                        03                     |        .       |        info_link: false 0x3a98.1-0x3a98.1 (0.1)
0x3a90|                        03                     |        .       |        strings: false 0x3a98.2-0x3a98.2 (0.1)
0x3a90|                        03                     |        .       |        merge: false 0x3a98.3-0x3a98.3 (0.1)
0x3a90|                        03                     |        .       |        unused0: 0 0x3a98.4-0x3a98.4 (0.1)
0x3a90|                        03                     |        .       |        execinstr: false 0x3a98.5-0x3a98.5 (0.1)
0x3a90|                        03                     |        .       |        alloc: true 0x3a98.6-0x3a98.6 (0.1)
0x3a90|                        03                     |        .       |        write: true 0x3a98.7-0x3a98.7 (0.1)
0x3a90|                           00                  |         .      |        tls: false 0x3a99-0x3a99 (0.1)
0x3a90|                           00                  |         .      |        group: false 0x3a99.1-0x3a99.1 (0.1)
0x3a90|                           00                  |         .      |        os_nonconforming: false 0x3a99.2-0x3a99.2 (0.1)
0x3a90|                           00 00               |         ..     |        unused1: 0 0x3a99.3-0x3a9a.3 (1.1)
0x3a90|                              00 00            |          ..    |        os_specific: 0 0x3a9a.4-0x3a9b.3 (1)
0x3a90|                                 00            |           .    |        processor_specific: 0 0x3a9b.4-0x3a9b.7 (0.4)
0x3a90|                                    00 40 00 00|            .@..|      addr: 0x4000 0x3a9c-0x3a9f.7 (4)
0x3aa0|00 30 00 00                                    |.0..            |      offset: 12288 0x3aa0-0x3aa3.7 (4)
0x3aa0|            04 00 00 00                        |    ....        |      size: 0x4 0x3aa4-0x3aa7.7 (4)
0x3aa0|                        00 00 00 00            |        ....    |      link: 0 0x3aa8-0x3aab.7 (4)
0x3aa0|                                    00 00 00 00|            ....|      info: 0 0x3aac-0x3aaf.7 (4)
0x3ab0|04 00 00 00                                    |....            |      addralign: 4 0x3ab0-0x3ab3.7 (4)
0x3ab0|            00 00 00 00                        |    ....        |      entsize: 0 0x3ab4-0x3ab7.7 (4)
      |                                               |                |    [20]{}: section_header 0x3ab8-0x3adf.7 (40)
0x3ab0|                        b2 00 00 00            |        ....    |      name: ".bss" (178) 0x3ab8-0x3abb.7 (4)
0x3ab0|                                    08 00 00 00|            ....|      type: "nobits" (0x8) (No space in the file) 0x3abc-0x3abf.7 (4)
      |                                               |                |      flags{}: 0x3ac0-0x3ac3.7 (4)
0x3ac0|03                                             |.               |        link_order: false 0x3ac0-0x3ac0 (0.1)
0x3ac0|03                                             |.               |        info_link: false 0x3ac0.1-0x3ac0.1 (0.1)
0x3ac0|03                                             |.               |        strings: false 0x3ac0.2-0x3ac0.2 (0.1)
0x3ac0|03                                             |.               |        merge: false 0x3ac0.3-0x3ac0.3 (0.1)
0x3ac0|03                                             |.               |        unused0: 0 0x3ac0.4-0x3ac0.4 (0.1)
0x3ac0|03                                             |.               |        execinstr: false 0x3ac0.5-0x3ac0.5 (0.1)
0x3ac0|03                                             |.               |        alloc: true 0x3ac0.6-0x3ac0.6 (0.1)
0x3ac0|03                                             |.               |        write: true 0x3ac0.7-0x3ac0.7 (0.1)
0x3ac0|   00                                          | .              |        tls: false 0x3ac1-0x3ac1 (0.1)
0x3ac0|   00                                          | .              |        group: false 0x3ac1.1-0x3ac1.1 (0.1)
0x3ac0|   00                                          | .              |        os_nonconforming: false 0x3ac1.2-0x3ac1.2 (0.1)
0x3ac0|   00 00                                       | ..             |        unused1: 0 0x3ac1.3-0x3ac2.3 (1.1)
0x3ac0|      00 00                                    |  ..            |        os_specific: 0 0x3ac2.4-0x3ac3.3 (1)
0x3ac0|         00                                    |   .            |        processor_specific: 0 0x3ac3.4-0x3ac3.7 (0.4)
0x3ac0|            04 40 00 00                        |    .@..        |      addr: 0x4004 0x3ac4-0x3ac7.7 (4)
0x3ac0|                        04 30 00 00            |        .0..    |      offset: 12292 0x3ac8-0x3acb.7 (4)
0x3ac0|                                    20 00 00 00|             ...|      size: 0x20 0x3acc-0x3acf.7 (4)
0x3ad0|00 00 00 00                                    |....            |      link: 0 0x3ad0-0x3ad3.7 (4)
0x3ad0|            00 00 00 00                        |    ....        |      info: 0 0x3ad4-0x3ad7.7 (4)
0x3ad0|                        04 00 00 00            |        ....    |      addralign: 4 0x3ad8-0x3adb.7 (4)
0x3ad0|                                    00 00 00 00|            ....|      entsize: 0 0x3adc-0x3adf.7 (4)
      |                                               |                |    [21]{}: section_header 0x3004-0x3b07.7 (2820)
0x3000|            47 43 43 3a 20 28 41 6c 70 69 6e 65|    GCC: (Alpine|      data: raw bits 0x3004-0x3034.7 (49)
0x3010|20 31 30 2e 33 2e 31 5f 67 69 74 32 30 32 31 31| 10.3.1_git20211|
*     |until 0x3034.7 (49)                            |                |
0x3ae0|b7 00 00 00                                    |....            |      name: ".comment" (183) 0x3ae0-0x3ae3.7 (4)
0x3ae0|            01 00 00 00                        |    ....        |      type: "progbits" (0x1) (Information defined by the program) 0x3ae4-0x3ae7.7 (4)
      |                                               |                |      flags{}: 0x3ae8-0x3aeb.7 (4)
0x3ae0|                        30                     |        0       |        link_order: false 0x3ae8-0x3ae8 (0.1)
0x3ae0|                        30                     |        0       |        info_link: false 0x3ae8.1-0x3ae8.1 (0.1)
0x3ae0|                        30                     |        0       |        strings: true 0x3ae8.2-0x3ae8.2 (0.1)
0x3ae0|                        30                     |        0       |        merge: true 0x3ae8.3-0x3ae8.3 (0.1)
0x3ae0|                        30                     |        0       |        unused0: 0 0x3ae8.4-0x3ae8.4 (0.1)
0x3ae0|                        30                     |        0       |        execinstr: false 0x3ae8.5-0x3ae8.5 (0.1)
0x3ae0|                        30                     |        0       |        alloc: false 0x3ae8.6-0x3ae8.6 (0.1)
0x3ae0|                        30                     |        0       |        write: false 0x3ae8.7-0x3ae8.7 (0.1)
0x3ae0|                           00                  |         .      |        tls: false 0x3ae9-0x3ae9 (0.1)
0x3ae0|                           00                  |         .      |        group: false 0x3ae9.1-0x3ae9.1 (0.1)
0x3ae0|                           00                  |         .      |        os_nonconforming: false 0x3ae9.2-0x3ae9.2 (0.1)
0x3ae0|                           00 00               |         ..     |        unused1: 0 0x3ae9.3-0x3aea.3 (1.1)
0x3ae0|                              00 00            |          ..    |        os_specific: 0 0x3aea.4-0x3aeb.3 (1)
0x3ae0|                                 00            |           .    |        processor_specific: 0 0x3aeb.4-0x3aeb.7 (0.4)
0x3ae0|                                    00 00 00 00|            ....|      addr: 0x0 0x3aec-0x3aef.7 (4)
0x3af0|04 30 00 00                                    |.0..            |      offset: 12292 0x3af0-0x3af3.7 (4)
0x3af0|            31 00 00 00                        |    1...        |      size: 0x31 0x3af4-0x3af7.7 (4)
0x3af0|                        00 00 00 00            |        ....    |      link: 0 0x3af8-0x3afb.7 (4)
0x3af0|                                    00 00 00 00|            ....|      info: 0 0x3afc-0x3aff.7 (4)
0x3b00|01 00 00 00                                    |....            |      addralign: 1 0x3b00-0x3b03.7 (4)
0x3b00|            01 00 00 00                        |    ....        |      entsize: 1 0x3b04-0x3b07.7 (4)
      |                                               |                |    [22]{}: section_header 0x3038-0x3b2f.7 (2808)
0x3030|                        24 00 00 00 02 00 00 00|        $.......|      data: raw bits 0x3038-0x3087.7 (80)
0x3040|00 00 04 00 00 00 00 00 00 10 00 00 03 00 00 00|................|
*     |until 0x3087.7 (80)                            |                |
0x3b00|                        c0 00 00 00            |        ....    |      name: ".debug_aranges" (192) 0x3b08-0x3b0b.7 (4)
0x3b00|                                    01 00 00 00|            ....|      type: "progbits" (0x1) (Information defined by the program) 0x3b0c-0x3b0f.7 (4)
      |                                               |                |      flags{}: 0x3b10-0x3b13.7 (4)
0x3b10|00                                             |.               |        link_order: false 0x3b10-0x3b10 (0.1)
0x3b10|00                                             |.               |        info_link: false 0x3b10.1-0x3b10.1 (0.1)
0x3b10|00                                             |.               |        strings: false 0x3b10.2-0x3b10.2 (0.1)
0x3b10|00                                             |.               |        merge: false 0x3b10.3-0x3b10.3 (0.1)
0x3b10|00                                             |.               |        unused0: 0 0x3b10.4-0x3b10.4 (0.1)
0x3b10|00                                             |.               |        execinstr: false 0x3b10.5-0x3b10.5 (0.1)
0x3b10|00                                             |.               |        alloc: false 0x3b10.6-0x3b10.6 (0.1)
0x3b10|00                                             |.               |        write: false 0x3b10.7-0x3b10.7 (0.1)
0x3b10|   00                                          | .              |        tls: false 0x3b11-0x3b11 (0.1)
0x3b10|   00                                          | .              |        group: false 0x3b11.1-0x3b11.1 (0.1)
0x3b10|   00                                          | .              |        os_nonconforming: false 0x3b11.2-0x3b11.2 (0.1)
0x3b10|   00 00                                       | ..             |        unused1: 0 0x3b11.3-0x3b12.3 (1.1)
0x3b10|      00 00                                    |  ..            |        os_specific: 0 0x3b12.4-0x3b13.3 (1)
0x3b10|         00                                    |   .            |        processor_specific: 0 0x3b13.4-0x3b13.7 (0.4)
0x3b10|            00 00 00 00                        |    ....        |      addr: 0x0 0x3b14-0x3b17.7 (4)
0x3b10|                        38 30 00 00            |        80..    |      offset: 12344 0x3b18-0x3b1b.7 (4)
0x3b10|                                    50 00 00 00|            P...|      size: 0x50 0x3b1c-0x3b1f.7 (4)
0x3b20|00 00 00 00                                    |....            |      link: 0 0x3b20-0x3b23.7 (4)
0x3b20|            00 00 00 00                        |    ....        |      info: 0 0x3b24-0x3b27.7 (4)
0x3b20|                        08 00 00 00            |        ....    |      addralign: 8 0x3b28-0x3b2b.7 (4)
0x3b20|                                    00 00 00 00|            ....|      entsize: 0 0x3b2c-0x3b2f.7 (4)
      |                                               |                |    [23]{}: section_header 0x3088-0x3b57.7 (2768)
0x3080|                        1e 00 00 00 02 00 00 00|        ........|      data: raw bits 0x3088-0x30cb.7 (68)
0x3090|00 00 04 01 00 00 00 00 00 00 00 00 00 00 00 00|................|
*     |until 0x30cb.7 (68)                            |                |
0x3b30|cf 00 00 00                                    |....            |      name: ".debug_info" (207) 0x3b30-0x3b33.7 (4)
0x3b30|            01 00 00 00                        |    ....        |      type: "progbits" (0x1) (Information defined by the program) 0x3b34-0x3b37.7 (4)
      |                                               |                |      flags{}: 0x3b38-0x3b3b.7 (4)
0x3b30|                        00                     |        .       |        link_order: false 0x3b38-0x3b38 (0.1)
0x3b30|                        00                     |        .       |        info_link: false 0x3b38.1-0x3b38.1 (0.1)
0x3b30|                        00                     |        .       |        strings: false 0x3b38.2-0x3b38.2 (0.1)
0x3b30|                        00                     |        .       |        merge: false 0x3b38.3-0x3b38.3 (0.1)
0x3b30|                        00                     |        .       |        unused0: 0 0x3b38.4-0x3b38.4 (0.1)
0x3b30|                        00                     |        .       |        execinstr: false 0x3b38.5-0x3b38.5 (0.1)
0x3b30|                        00                     |        .       |        alloc: false 0x3b38.6-0x3b38.6 (0.1)
0x3b30|                        00                     |        .       |        write: false 0x3b38.7-0x3b38.7 (0.1)
0x3b30|                           00                  |         .      |        tls: false 0x3b39-0x3b39 (0.1)
0x3b30|                           00                  |         .      |        group: false 0x3b39.1-0x3b39.1 (0.1)
0x3b30|                           00                  |         .      |        os_nonconforming: false 0x3b39.2-0x3b39.2 (0.1)
0x3b30|                           00 00               |         ..     |        unused1: 0 0x3b39.3-0x3b3a.3 (1.1)
0x3b30|                              00 00            |          ..    |        os_specific: 0 0x3b3a.4-0x3b3b.3 (1)
0x3b30|                                 00            |           .    |        processor_specific: 0 0x3b3b.4-0x3b3b.7 (0.4)
0x3b30|                                    00 00 00 00|            ....|      addr: 0x0 0x3b3c-0x3b3f.7 (4)
0x3b40|88 30 00 00                                    |.0..            |      offset: 12424 0x3b40-0x3b43.7 (4)
0x3b40|            44 00 00 00                        |    D...        |      size: 0x44 0x3b44-0x3b47.7 (4)
0x3b40|                        00 00 00 00            |        ....    |      link: 0 0x3b48-0x3b4b.7 (4)
0x3b40|                                    00 00 00 00|            ....|      info: 0 0x3b4c-0x3b4f.7 (4)
0x3b50|01 00 00 00                                    |....            |      addralign: 1 0x3b50-0x3b53.7 (4)
0x3b50|            00 00 00 00                        |    ....        |      entsize: 0 0x3b54-0x3b57.7 (4)
      |                                               |                |    [24]{}: section_header 0x30cc-0x3b7f.7 (2740)
0x30c0|                                    01 11 00 10|            ....|      data: raw bits 0x30cc-0x30ef.7 (36)
0x30d0|06 55 06 03 0e 1b 0e 25 0e 13 05 00 00 00 01 11|.U.....%........|
0x30e0|00 10 06 55 06 03 0e 1b 0e 25 0e 13 05 00 00 00|...U.....%......|
0x3b50|                        db 00 00 00            |        ....    |      name: ".debug_abbrev" (219) 0x3b58-0x3b5b.7 (4)
0x3b50|                                    01 00 00 00|            ....|      type: "progbits" (0x1) (Information defined by the program) 0x3b5c-0x3b5f.7 (4)
      |                                               |                |      flags{}: 0x3b60-0x3b63.7 (4)
0x3b60|00                                             |.               |        link_order: false 0x3b60-0x3b60 (0.1)
0x3b60|00                                             |.               |        info_link: false 0x3b60.1-0x3b60.1 (0.1)
0x3b60|00                                             |.               |        strings: false 0x3b60.2-0x3b60.2 (0.1)
0x3b60|00                                             |.               |        merge: false 0x3b60.3-0x3b60.3 (0.1)
0x3b60|00                                             |.               |        unused0: 0 0x3b60.4-0x3b60.4 (0.1)
0x3b60|00                                             |.               |        execinstr: false 0x3b60.5-0x3b60.5 (0.1)
0x3b60|00                                             |.               |        alloc: false 0x3b60.6-0x3b60.6 (0.1)
0x3b60|00                                             |.               |        write: false 0x3b60.7-0x3b60.7 (0.1)
0x3b60|   00                                          | .              |        tls: false 0x3b61-0x3b61 (0.1)
0x3b60|   00                                          | .              |        group: false 0x3b61.1-0x3b61.1 (0.1)
0x3b60|   00                                          | .              |        os_nonconforming: false 0x3b61.2-0x3b61.2 (0.1)
0x3b60|   00 00                                       | ..             |        unused1: 0 0x3b61.3-0x3b62.3 (1.1)
0x3b60|      00 00                                    |  ..            |        os_specific: 0 0x3b62.4-0x3b63.3 (1)
0x3b60|         00                                    |   .            |        processor_specific: 0 0x3b63.4-0x3b63.7 (0.4)
0x3b60|            00 00 00 00                        |    ....        |      addr: 0x0 0x3b64-0x3b67.7 (4)
0x3b60|                        cc 30 00 00            |        .0..    |      offset: 12492 0x3b68-0x3b6b.7 (4)
0x3b60|                                    24 00 00 00|            $...|      size: 0x24 0x3b6c-0x3b6f.7 (4)
0x3b70|00 00 00 00                                    |....            |      link: 0 0x3b70-0x3b73.7 (4)
0x3b70|            00 00 00 00                        |    ....        |      info: 0 0x3b74-0x3b77.7 (4)
0x3b70|                        01 00 00 00            |        ....    |      addralign: 1 0x3b78-0x3b7b.7 (4)
0x3b70|                                    00 00 00 00|            ....|      entsize: 0 0x3b7c-0x3b7f.7 (4)
      |                                               |                |    [25]{}: section_header 0x30f0-0x3ba7.7 (2744)
0x30f0|48 00 00 00 03 00 26 00 00 00 01 01 fb 0e 0d 00|H.....&.........|      data: raw bits 0x30f0-0x3187.7 (152)
*     |until 0x3187.7 (152)                           |                |
0x3b80|e9 00 00 00                                    |....            |      name: ".debug_line" (233) 0x3b80-0x3b83.7 (4)
0x3b80|            01 00 00 00                        |    ....        |      type: "progbits" (0x1) (Information defined by the program) 0x3b84-0x3b87.7 (4)
      |                                               |                |      flags{}: 0x3b88-0x3b8b.7 (4)
0x3b80|                        00                     |        .       |        link_order: false 0x3b88-0x3b88 (0.1)
0x3b80|                        00                     |        .       |        info_link: false 0x3b88.1-0x3b88.1 (0.1)
0x3b80|                        00                     |        .       |        strings: false 0x3b88.2-0x3b88.2 (0.1)
0x3b80|                        00                     |        .       |        merge: false 0x3b88.3-0x3b88.3 (0.1)
0x3b80|                        00                     |        .       |        unused0: 0 0x3b88.4-0x3b88.4 (0.1)
0x3b80|                        00                     |        .       |        execinstr: false 0x3b88.5-0x3b88.5 (0.1)
0x3b80|                        00                     |        .       |        alloc: false 0x3b88.6-0x3b88.6 (0.1)
0x3b80|                        00                     |        .       |        write: false 0x3b88.7-0x3b88.7 (0.1)
0x3b80|                           00                  |         .      |        tls: false 0x3b89-0x3b89 (0.1)
0x3b80|                           00                  |         .      |        group: false 0x3b89.1-0x3b89.1 (0.1)
0x3b80|                           00                  |         .      |        os_nonconforming: false 0x3b89.2-0x3b89.2 (0.1)
0x3b80|                           00 00               |         ..     |        unused1: 0 0x3b89.3-0x3b8a.3 (1.1)
0x3b80|                              00 00            |          ..    |        os_specific: 0 0x3b8a.4-0x3b8b.3 (1)
0x3b80|                                 00            |           .    |        processor_specific: 0 0x3b8b.4-0x3b8b.7 (0.4)
0x3b80|                                    00 00 00 00|            ....|      addr: 0x0 0x3b8c-0x3b8f.7 (4)
0x3b90|f0 30 00 00                                    |.0..            |      offset: 12528 0x3b90-0x3b93.7 (4)
0x3b90|            98 00 00 00                        |    ....        |      size: 0x98 0x3b94-0x3b97.7 (4)
0x3b90|                        00 00 00 00            |        ....    |      link: 0 0x3b98-0x3b9b.7 (4)
0x3b90|                                    00 00 00 00|            ....|      info: 0 0x3b9c-0x3b9f.7 (4)
0x3ba0|01 00 00 00                                    |....            |      addralign: 1 0x3ba0-0x3ba3.7 (4)
0x3ba0|            00 00 00 00                        |    ....        |      entsize: 0 0x3ba4-0x3ba7.7 (4)
      |                                               |                |    [26]{}: section_header 0x3188-0x3bcf.7 (2632)
0x3180|                        63 72 74 2f 69 33 38 36|        crt/i386|      data: raw bits 0x3188-0x31df.7 (88)
0x3190|2f 63 72 74 69 2e 73 00 2f 68 6f 6d 65 2f 62 75|/crti.s./home/bu|
*     |until 0x31df.7 (88)                            |                |
0x3ba0|                        f5 00 00 00            |        ....    |      name: ".debug_str" (245) 0x3ba8-0x3bab.7 (4)
0x3ba0|                                    01 00 00 00|            ....|      type: "progbits" (0x1) (Information defined by the program) 0x3bac-0x3baf.7 (4)
      |                                               |                |      flags{}: 0x3bb0-0x3bb3.7 (4)
0x3bb0|30                                             |0               |        link_order: false 0x3bb0-0x3bb0 (0.1)
0x3bb0|30                                             |0               |        info_link: false 0x3bb0.1-0x3bb0.1 (0.1)
0x3bb0|30                                             |0               |        strings: true 0x3bb0.2-0x3bb0.2 (0.1)
0x3bb0|30                                             |0               |        merge: true 0x3bb0.3-0x3bb0.3 (0.1)
0x3bb0|30                                             |0               |        unused0: 0 0x3bb0.4-0x3bb0.4 (0.1)
0x3bb0|30                                             |0               |        execinstr: false 0x3bb0.5-0x3bb0.5 (0.1)
0x3bb0|30                                             |0               |        alloc: false 0x3bb0.6-0x3bb0.6 (0.1)
0x3bb0|30                                             |0               |        write: false 0x3bb0.7-0x3bb0.7 (0.1)
0x3bb0|   00                                          | .              |        tls: false 0x3bb1-0x3bb1 (0.1)
0x3bb0|   00                                          | .              |        group: false 0x3bb1.1-0x3bb1.1 (0.1)
0x3bb0|   00                                          | .              |        os_nonconforming: false 0x3bb1.2-0x3bb1.2 (0.1)
0x3bb0|   00 00                                       | ..             |        unused1: 0 0x3bb1.3-0x3bb2.3 (1.1)
0x3bb0|      00 00                                    |  ..            |        os_specific: 0 0x3bb2.4-0x3bb3.3 (1)
0x3bb0|         00                                    |   .            |        processor_specific: 0 0x3bb3.4-0x3bb3.7 (0.4)
0x3bb0|            00 00 00 00                        |    ....        |      addr: 0x0 0x3bb4-0x3bb7.7 (4)
0x3bb0|                        88 31 00 00            |        .1..    |      offset: 12680 0x3bb8-0x3bbb.7 (4)
0x3bb0|                                    58 00 00 00|            X...|      size: 0x58 0x3bbc-0x3bbf.7 (4)
0x3bc0|00 00 00 00                                    |....            |      link: 0 0x3bc0-0x3bc3.7 (4)
0x3bc0|            00 00 00 00                        |    ....        |      info: 0 0x3bc4-0x3bc7.7 (4)
0x3bc0|                        01 00 00 00            |        ....    |      addralign: 1 0x3bc8-0x3bcb.7 (4)
0x3bc0|                                    01 00 00 00|            ....|      entsize: 1 0x3bcc-0x3bcf.7 (4)
      |                                               |                |    [27]{}: section_header 0x31e0-0x3bf7.7 (2584)
0x31e0|ff ff ff ff 00 00 00 00 00 10 00 00 03 10 00 00|................|      data: raw bits 0x31e0-0x321f.7 (64)
*     |until 0x321f.7 (64)                            |                |
0x3bd0|00 01 00 00                                    |....            |      name: ".debug_ranges" (256) 0x3bd0-0x3bd3.7 (4)
0x3bd0|            01 00 00 00                        |    ....        |      type: "progbits" (0x1) (Information defined by the program) 0x3bd4-0x3bd7.7 (4)
      |                                               |                |      flags{}: 0x3bd8-0x3bdb.7 (4)
0x3bd0|                        00                     |        .       |        link_order: false 0x3bd8-0x3bd8 (0.1)
0x3bd0|                        00                     |        .       |        info_link: false 0x3bd8.1-0x3bd8.1 (0.1)
0x3bd0|                        00                     |        .       |        strings: false 0x3bd8.2-0x3bd8.2 (0.1)
0x3bd0|                        00                     |        .       |        merge: false 0x3bd8.3-0x3bd8.3 (0.1)
0x3bd0|                        00                     |        .       |        unused0: 0 0x3bd8.4-0x3bd8.4 (0.1)
0x3bd0|                        00                     |        .       |        execinstr: false 0x3bd8.5-0x3bd8.5 (0.1)
0x3bd0|                        00                     |        .       |        alloc: false 0x3bd8.6-0x3bd8.6 (0.1)
0x3bd0|                        00                     |        .       |        write: false 0x3bd8.7-0x3bd8.7 (0.1)
0x3bd0|                           00                  |         .      |        tls: false 0x3bd9-0x3bd9 (0.1)
0x3bd0|                           00                  |         .      |        group: false 0x3bd9.1-0x3bd9.1 (0.1)
0x3bd0|                           00                  |         .      |        os_nonconforming: false 0x3bd9.2-0x3bd9.2 (0.1)
0x3bd0|                           00 00               |         ..     |        unused1: 0 0x3bd9.3-0x3bda.3 (1.1)
0x3bd0|                              00 00            |          ..    |        os_specific: 0 0x3bda.4-0x3bdb.3 (1)
0x3bd0|                                 00            |           .    |        processor_specific: 0 0x3bdb.4-0x3bdb.7 (0.4)
0x3bd0|                                    00 00 00 00|            ....|      addr: 0x0 0x3bdc-0x3bdf.7 (4)
0x3be0|e0 31 00 00                                    |.1..            |      offset: 12768 0x3be0-0x3be3.7 (4)
0x3be0|            40 00 00 00                        |    @...        |      size: 0x40 0x3be4-0x3be7.7 (4)
0x3be0|                        00 00 00 00            |        ....    |      link: 0 0x3be8-0x3beb.7 (4)
0x3be0|                                    00 00 00 00|            ....|      info: 0 0x3bec-0x3bef.7 (4)
0x3bf0|08 00 00 00                                    |....            |      addralign: 8 0x3bf0-0x3bf3.7 (4)
0x3bf0|            00 00 00 00                        |    ....        |      entsize: 0 0x3bf4-0x3bf7.7 (4)
      |                                               |                |    [28]{}: section_header 0x3220-0x3c1f.7 (2560)
      |                                               |                |      symbol_table[0:37]: 0x3220-0x346f.7 (592)
      |                                               |                |        [0]{}: symbol 0x3220-0x322f.7 (16)
0x3220|00 00 00 00                                    |....            |          name: "" (0) 0x3220-0x3223.7 (4)
0x3220|            00 00 00 00                        |    ....        |          value: 0 0x3224-0x3227.7 (4)
0x3220|                        00 00 00 00            |        ....    |          size: 0 0x3228-0x322b.7 (4)
0x3220|                                    00         |            .   |          bind: "local" (0) 0x322c-0x322c.3 (0.4)
0x3220|                                    00         |            .   |          type: "notype" (0) 0x322c.4-0x322c.7 (0.4)
0x3220|                                       00      |             .  |          other_unused: 0 0x322d-0x322d.5 (0.6)
0x3220|                                       00      |             .  |          visibility: "default" (0) 0x322d.6-0x322d.7 (0.2)
0x3220|                                          00 00|              ..|          shndx: 0 0x322e-0x322f.7 (2)
      |                                               |                |        [1]{}: symbol 0x3230-0x323f.7 (16)
0x3230|01 00 00 00                                    |....            |          name: "crtstuff.c" (1) 0x3230-0x3233.7 (4)
0x3230|            00 00 00 00                        |    ....        |          value: 0 0x3234-0x3237.7 (4)
0x3230|                        00 00 00 00            |        ....    |          size: 0 0x3238-0x323b.7 (4)
0x3230|                                    04         |            .   |          bind: "local" (0) 0x323c-0x323c.3 (0.4)
0x3230|                                    04         |            .   |          type: "file" (4) 0x323c.4-0x323c.7 (0.4)
0x3230|                                       00      |             .  |          other_unused: 0 0x323d-0x323d.5 (0.6)
0x3230|                                       00      |             .  |          visibility: "default" (0) 0x323d.6-0x323d.7 (0.2)
0x3230|                                          f1 ff|              ..|          shndx: 65521 0x323e-0x323f.7 (2)
      |                                               |                |        [2]{}: symbol 0x3240-0x324f.7 (16)
0x3240|0c 00 00 00                                    |....            |          name: "__CTOR_LIST__" (12) 0x3240-0x3243.7 (4)
0x3240|            14 3f 00 00                        |    .?..        |          value: 16148 0x3244-0x3247.7 (4)
0x3240|                        00 00 00 00            |        ....    |          size: 0 0x3248-0x324b.7 (4)
0x3240|                                    01         |            .   |          bind: "local" (0) 0x324c-0x324c.3 (0.4)
0x3240|                                    01         |            .   |          type: "object" (1) 0x324c.4-0x324c.7 (0.4)
0x3240|                                       00      |             .  |          other_unused: 0 0x324d-0x324d.5 (0.6)
0x3240|                                       00      |             .  |          visibility: "default" (0) 0x324d.6-0x324d.7 (0.2)
0x3240|                                          0f 00|              ..|          shndx: 15 0x324e-0x324f.7 (2)
      |                                               |                |        [3]{}: symbol 0x3250-0x325f.7 (16)
0x3250|1a 00 00 00                                    |....            |          name: "__DTOR_LIST__" (26) 0x3250-0x3253.7 (4)
0x3250|            1c 3f 00 00                        |    .?..        |          value: 16156 0x3254-0x3257.7 (4)
0x3250|                        00 00 00 00            |        ....    |          size: 0 0x3258-0x325b.7 (4)
0x3250|                                    01         |            .   |          bind: "local" (0) 0x325c-0x325c.3 (0.4)
0x3250|                                    01         |            .   |          type: "object" (1) 0x325c.4-0x325c.7 (0.4)
0x3250|                                       00      |             .  |          other_unused: 0 0x325d-0x325d.5 (0.6)
0x3250|                                       00      |             .  |          visibility: "default" (0) 0x325d.6-0x325d.7 (0.2)
0x3250|                                          10 00|              ..|          shndx: 16 0x325e-0x325f.7 (2)
      |                                               |                |        [4]{}: symbol 0x3260-0x326f.7 (16)
0x3260|28 00 00 00                                    |(...            |          name: "__EH_FRAME_BEGIN__" (40) 0x3260-0x3263.7 (4)
0x3260|            88 20 00 00                        |    . ..        |          value: 8328 0x3264-0x3267.7 (4)
0x3260|                        00 00 00 00            |        ....    |          size: 0 0x3268-0x326b.7 (4)
0x3260|                                    01         |            .   |          bind: "local" (0) 0x326c-0x326c.3 (0.4)
0x3260|                                    01         |            .   |          type: "object" (1) 0x326c.4-0x326c.7 (0.4)
0x3260|                                       00      |             .  |          other_unused: 0 0x326d-0x326d.5 (0.6)
0x3260|                                       00      |             .  |          visibility: "default" (0) 0x326d.6-0x326d.7 (0.2)
0x3260|                                          0d 00|              ..|          shndx: 13 0x326e-0x326f.7 (2)
      |                                               |                |        [5]{}: symbol 0x3270-0x327f.7 (16)
0x3270|3b 00 00 00                                    |;...            |          name: "deregister_tm_clones" (59) 0x3270-0x3273.7 (4)
0x3270|            60 10 00 00                        |    `...        |          value: 4192 0x3274-0x3277.7 (4)
0x3270|                        00 00 00 00            |        ....    |          size: 0 0x3278-0x327b.7 (4)
0x3270|                                    02         |            .   |          bind: "local" (0) 0x327c-0x327c.3 (0.4)
0x3270|                                    02         |            .   |          type: "func" (2) 0x327c.4-0x327c.7 (0.4)
0x3270|                                       00      |             .  |          other_unused: 0 0x327d-0x327d.5 (0.6)
0x3270|                                       00      |             .  |          visibility: "default" (0) 0x327d.6-0x327d.7 (0.2)
0x3270|                                          09 00|              ..|          shndx: 9 0x327e-0x327f.7 (2)
      |                                               |                |        [6]{}: symbol 0x3280-0x328f.7 (16)
0x3280|3d 00 00 00                                    |=...            |          name: "register_tm_clones" (61) 0x3280-0x3283.7 (4)
0x3280|            a0 10 00 00                        |    ....        |          value: 4256 0x3284-0x3287.7 (4)
0x3280|                        00 00 00 00            |        ....    |          size: 0 0x3288-0x328b.7 (4)
0x3280|                                    02         |            .   |          bind: "local" (0) 0x328c-0x328c.3 (0.4)
0x3280|                                    02         |            .   |          type: "func" (2) 0x328c.4-0x328c.7 (0.4)
0x3280|                                       00      |             .  |          other_unused: 0 0x328d-0x328d.5 (0.6)
0x3280|                                       00      |             .  |          visibility: "default" (0) 0x328d.6-0x328d.7 (0.2)
0x3280|                                          09 00|              ..|          shndx: 9 0x328e-0x328f.7 (2)
      |                                               |                |        [7]{}: symbol 0x3290-0x329f.7 (16)
0x3290|50 00 00 00                                    |P...            |          name: "__do_global_dtors_aux" (80) 0x3290-0x3293.7 (4)
0x3290|            f0 10 00 00                        |    ....        |          value: 4336 0x3294-0x3297.7 (4)
0x3290|                        00 00 00 00            |        ....    |          size: 0 0x3298-0x329b.7 (4)
0x3290|                                    02         |            .   |          bind: "local" (0) 0x329c-0x329c.3 (0.4)
0x3290|                                    02         |            .   |          type: "func" (2) 0x329c.4-0x329c.7 (0.4)
0x3290|                                       00      |             .  |          other_unused: 0 0x329d-0x329d.5 (0.6)
0x3290|                                       00      |             .  |          visibility: "default" (0) 0x329d.6-0x329d.7 (0.2)
0x3290|                                          09 00|              ..|          shndx: 9 0x329e-0x329f.7 (2)
      |                                               |                |        [8]{}: symbol 0x32a0-0x32af.7 (16)
0x32a0|66 00 00 00                                    |f...            |          name: "completed.2" (102) 0x32a0-0x32a3.7 (4)
0x32a0|            04 40 00 00                        |    .@..        |          value: 16388 0x32a4-0x32a7.7 (4)
0x32a0|                        01 00 00 00            |        ....    |          size: 1 0x32a8-0x32ab.7 (4)
0x32a0|                                    01         |            .   |          bind: "local" (0) 0x32ac-0x32ac.3 (0.4)
0x32a0|                                    01         |            .   |          type: "object" (1) 0x32ac.4-0x32ac.7 (0.4)
0x32a0|                                       00      |             .  |          other_unused: 0 0x32ad-0x32ad.5 (0.6)
0x32a0|                                       00      |             .  |          visibility: "default" (0) 0x32ad.6-0x32ad.7 (0.2)
0x32a0|                                          14 00|              ..|          shndx: 20 0x32ae-0x32af.7 (2)
      |                                               |                |        [9]{}: symbol 0x32b0-0x32bf.7 (16)
0x32b0|72 00 00 00                                    |r...            |          name: "dtor_idx.1" (114) 0x32b0-0x32b3.7 (4)
0x32b0|            08 40 00 00                        |    .@..        |          value: 16392 0x32b4-0x32b7.7 (4)
0x32b0|                        04 00 00 00            |        ....    |          size: 4 0x32b8-0x32bb.7 (4)
0x32b0|                                    01         |            .   |          bind: "local" (0) 0x32bc-0x32bc.3 (0.4)
0x32b0|                                    01         |            .   |          type: "object" (1) 0x32bc.4-0x32bc.7 (0.4)
0x32b0|                                       00      |             .  |          other_unused: 0 0x32bd-0x32bd.5 (0.6)
0x32b0|                                       00      |             .  |          visibility: "default" (0) 0x32bd.6-0x32bd.7 (0.2)
0x32b0|                                          14 00|              ..|          shndx: 20 0x32be-0x32bf.7 (2)
      |                                               |                |        [10]{}: symbol 0x32c0-0x32cf.7 (16)
0x32c0|7d 00 00 00                                    |}...            |          name: "frame_dummy" (125) 0x32c0-0x32c3.7 (4)
0x32c0|            a0 11 00 00                        |    ....        |          value: 4512 0x32c4-0x32c7.7 (4)
0x32c0|                        00 00 00 00            |        ....    |          size: 0 0x32c8-0x32cb.7 (4)
0x32c0|                                    02         |            .   |          bind: "local" (0) 0x32cc-0x32cc.3 (0.4)
0x32c0|                                    02         |            .   |          type: "func" (2) 0x32cc.4-0x32cc.7 (0.4)
0x32c0|                                       00      |             .  |          other_unused: 0 0x32cd-0x32cd.5 (0.6)
0x32c0|                                       00      |             .  |          visibility: "default" (0) 0x32cd.6-0x32cd.7 (0.2)
0x32c0|                                          09 00|              ..|          shndx: 9 0x32ce-0x32cf.7 (2)
      |                                               |                |        [11]{}: symbol 0x32d0-0x32df.7 (16)
0x32d0|89 00 00 00                                    |....            |          name: "object.0" (137) 0x32d0-0x32d3.7 (4)
0x32d0|            0c 40 00 00                        |    .@..        |          value: 16396 0x32d4-0x32d7.7 (4)
0x32d0|                        18 00 00 00            |        ....    |          size: 24 0x32d8-0x32db.7 (4)
0x32d0|                                    01         |            .   |          bind: "local" (0) 0x32dc-0x32dc.3 (0.4)
0x32d0|                                    01         |            .   |          type: "object" (1) 0x32dc.4-0x32dc.7 (0.4)
0x32d0|                                       00      |             .  |          other_unused: 0 0x32dd-0x32dd.5 (0.6)
0x32d0|                                       00      |             .  |          visibility: "default" (0) 0x32dd.6-0x32dd.7 (0.2)
0x32d0|                                          14 00|              ..|          shndx: 20 0x32de-0x32df.7 (2)
      |                                               |                |        [12]{}: symbol 0x32e0-0x32ef.7 (16)
0x32e0|01 00 00 00                                    |....            |          name: "crtstuff.c" (1) 0x32e0-0x32e3.7 (4)
0x32e0|            00 00 00 00                        |    ....        |          value: 0 0x32e4-0x32e7.7 (4)
0x32e0|                        00 00 00 00            |        ....    |          size: 0 0x32e8-0x32eb.7 (4)
0x32e0|                                    04         |            .   |          bind: "local" (0) 0x32ec-0x32ec.3 (0.4)
0x32e0|                                    04         |            .   |          type: "file" (4) 0x32ec.4-0x32ec.7 (0.4)
0x32e0|                                       00      |             .  |          other_unused: 0 0x32ed-0x32ed.5 (0.6)
0x32e0|                                       00      |             .  |          visibility: "default" (0) 0x32ed.6-0x32ed.7 (0.2)
0x32e0|                                          f1 ff|              ..|          shndx: 65521 0x32ee-0x32ef.7 (2)
      |                                               |                |        [13]{}: symbol 0x32f0-0x32ff.7 (16)
0x32f0|92 00 00 00                                    |....            |          name: "__CTOR_END__" (146) 0x32f0-0x32f3.7 (4)
0x32f0|            18 3f 00 00                        |    .?..        |          value: 16152 0x32f4-0x32f7.7 (4)
0x32f0|                        00 00 00 00            |        ....    |          size: 0 0x32f8-0x32fb.7 (4)
0x32f0|                                    01         |            .   |          bind: "local" (0) 0x32fc-0x32fc.3 (0.4)
0x32f0|                                    01         |            .   |          type: "object" (1) 0x32fc.4-0x32fc.7 (0.4)
0x32f0|                                       00      |             .  |          other_unused: 0 0x32fd-0x32fd.5 (0.6)
0x32f0|                                       00      |             .  |          visibility: "default" (0) 0x32fd.6-0x32fd.7 (0.2)
0x32f0|                                          0f 00|              ..|          shndx: 15 0x32fe-0x32ff.7 (2)
      |                                               |                |        [14]{}: symbol 0x3300-0x330f.7 (16)
0x3300|9f 00 00 00                                    |....            |          name: "__FRAME_END__" (159) 0x3300-0x3303.7 (4)
0x3300|            c0 20 00 00                        |    . ..        |          value: 8384 0x3304-0x3307.7 (4)
0x3300|                        00 00 00 00            |        ....    |          size: 0 0x3308-0x330b.7 (4)
0x3300|                                    01         |            .   |          bind: "local" (0) 0x330c-0x330c.3 (0.4)
0x3300|                                    01         |            .   |          type: "object" (1) 0x330c.4-0x330c.7 (0.4)
0x3300|                                       00      |             .  |          other_unused: 0 0x330d-0x330d.5 (0.6)
0x3300|                                       00      |             .  |          visibility: "default" (0) 0x330d.6-0x330d.7 (0.2)
0x3300|                                          0d 00|              ..|          shndx: 13 0x330e-0x330f.7 (2)
      |                                               |                |        [15]{}: symbol 0x3310-0x331f.7 (16)
0x3310|ad 00 00 00                                    |....            |          name: "__do_global_ctors_aux" (173) 0x3310-0x3313.7 (4)
0x3310|            30 12 00 00                        |    0...        |          value: 4656 0x3314-0x3317.7 (4)
0x3310|                        00 00 00 00            |        ....    |          size: 0 0x3318-0x331b.7 (4)
0x3310|                                    02         |            .   |          bind: "local" (0) 0x331c-0x331c.3 (0.4)
0x3310|                                    02         |            .   |          type: "func" (2) 0x331c.4-0x331c.7 (0.4)
0x3310|                                       00      |             .  |          other_unused: 0 0x331d-0x331d.5 (0.6)
0x3310|                                       00      |             .  |          visibility: "default" (0) 0x331d.6-0x331d.7 (0.2)
0x3310|                                          09 00|              ..|          shndx: 9 0x331e-0x331f.7 (2)
      |                                               |                |        [16]{}: symbol 0x3320-0x332f.7 (16)
0x3320|c3 00 00 00                                    |....            |          name: "libbbb.c" (195) 0x3320-0x3323.7 (4)
0x3320|            00 00 00 00                        |    ....        |          value: 0 0x3324-0x3327.7 (4)
0x3320|                        00 00 00 00            |        ....    |          size: 0 0x3328-0x332b.7 (4)
0x3320|                                    04         |            .   |          bind: "local" (0) 0x332c-0x332c.3 (0.4)
0x3320|                                    04         |            .   |          type: "file" (4) 0x332c.4-0x332c.7 (0.4)
0x3320|                                       00      |             .  |          other_unused: 0 0x332d-0x332d.5 (0.6)
0x3320|                                       00      |             .  |          visibility: "default" (0) 0x332d.6-0x332d.7 (0.2)
0x3320|                                          f1 ff|              ..|          shndx: 65521 0x332e-0x332f.7 (2)
      |                                               |                |        [17]{}: symbol 0x3330-0x333f.7 (16)
0x3330|00 00 00 00                                    |....            |          name: "" (0) 0x3330-0x3333.7 (4)
0x3330|            00 00 00 00                        |    ....        |          value: 0 0x3334-0x3337.7 (4)
0x3330|                        00 00 00 00            |        ....    |          size: 0 0x3338-0x333b.7 (4)
0x3330|                                    04         |            .   |          bind: "local" (0) 0x333c-0x333c.3 (0.4)
0x3330|                                    04         |            .   |          type: "file" (4) 0x333c.4-0x333c.7 (0.4)
0x3330|                                       00      |             .  |          other_unused: 0 0x333d-0x333d.5 (0.6)
0x3330|                                       00      |             .  |          visibility: "default" (0) 0x333d.6-0x333d.7 (0.2)
0x3330|                                          f1 ff|              ..|          shndx: 65521 0x333e-0x333f.7 (2)
      |                                               |                |        [18]{}: symbol 0x3340-0x334f.7 (16)
0x3340|cc 00 00 00                                    |....            |          name: "__x86.get_pc_thunk.di" (204) 0x3340-0x3343.7 (4)
0x3340|            f2 11 00 00                        |    ....        |          value: 4594 0x3344-0x3347.7 (4)
0x3340|                        00 00 00 00            |        ....    |          size: 0 0x3348-0x334b.7 (4)
0x3340|                                    02         |            .   |          bind: "local" (0) 0x334c-0x334c.3 (0.4)
0x3340|                                    02         |            .   |          type: "func" (2) 0x334c.4-0x334c.7 (0.4)
0x3340|                                       00      |             .  |          other_unused: 0 0x334d-0x334d.5 (0.6)
0x3340|                                       00      |             .  |          visibility: "default" (0) 0x334d.6-0x334d.7 (0.2)
0x3340|                                          09 00|              ..|          shndx: 9 0x334e-0x334f.7 (2)
      |                                               |                |        [19]{}: symbol 0x3350-0x335f.7 (16)
0x3350|e2 00 00 00                                    |....            |          name: "_DYNAMIC" (226) 0x3350-0x3353.7 (4)
0x3350|            24 3f 00 00                        |    $?..        |          value: 16164 0x3354-0x3357.7 (4)
0x3350|                        00 00 00 00            |        ....    |          size: 0 0x3358-0x335b.7 (4)
0x3350|                                    01         |            .   |          bind: "local" (0) 0x335c-0x335c.3 (0.4)
0x3350|                                    01         |            .   |          type: "object" (1) 0x335c.4-0x335c.7 (0.4)
0x3350|                                       00      |             .  |          other_unused: 0 0x335d-0x335d.5 (0.6)
0x3350|                                       00      |             .  |          visibility: "default" (0) 0x335d.6-0x335d.7 (0.2)
0x3350|                                          11 00|              ..|          shndx: 17 0x335e-0x335f.7 (2)
      |                                               |                |        [20]{}: symbol 0x3360-0x336f.7 (16)
0x3360|eb 00 00 00                                    |....            |          name: "__TMC_END__" (235) 0x3360-0x3363.7 (4)
0x3360|            04 40 00 00                        |    .@..        |          value: 16388 0x3364-0x3367.7 (4)
0x3360|                        00 00 00 00            |        ....    |          size: 0 0x3368-0x336b.7 (4)
0x3360|                                    01         |            .   |          bind: "local" (0) 0x336c-0x336c.3 (0.4)
0x3360|                                    01         |            .   |          type: "object" (1) 0x336c.4-0x336c.7 (0.4)
0x3360|                                       00      |             .  |          other_unused: 0 0x336d-0x336d.5 (0.6)
0x3360|                                       00      |             .  |          visibility: "default" (0) 0x336d.6-0x336d.7 (0.2)
0x3360|                                          13 00|              ..|          shndx: 19 0x336e-0x336f.7 (2)
      |                                               |                |        [21]{}: symbol 0x3370-0x337f.7 (16)
0x3370|f7 00 00 00                                    |....            |          name: "__DTOR_END__" (247) 0x3370-0x3373.7 (4)
0x3370|            20 3f 00 00                        |     ?..        |          value: 16160 0x3374-0x3377.7 (4)
0x3370|                        00 00 00 00            |        ....    |          size: 0 0x3378-0x337b.7 (4)
0x3370|                                    01         |            .   |          bind: "local" (0) 0x337c-0x337c.3 (0.4)
0x3370|                                    01         |            .   |          type: "object" (1) 0x337c.4-0x337c.7 (0.4)
0x3370|                                       00      |             .  |          other_unused: 0 0x337d-0x337d.5 (0.6)
0x3370|                                       00      |             .  |          visibility: "default" (0) 0x337d.6-0x337d.7 (0.2)
0x3370|                                          10 00|              ..|          shndx: 16 0x337e-0x337f.7 (2)
      |                                               |                |        [22]{}: symbol 0x3380-0x338f.7 (16)
0x3380|04 01 00 00                                    |....            |          name: "__x86.get_pc_thunk.ax" (260) 0x3380-0x3383.7 (4)
0x3380|            21 12 00 00                        |    !...        |          value: 4641 0x3384-0x3387.7 (4)
0x3380|                        00 00 00 00            |        ....    |          size: 0 0x3388-0x338b.7 (4)
0x3380|                                    02         |            .   |          bind: "local" (0) 0x338c-0x338c.3 (0.4)
0x3380|                                    02         |            .   |          type: "func" (2) 0x338c.4-0x338c.7 (0.4)
0x3380|                                       00      |             .  |          other_unused: 0 0x338d-0x338d.5 (0.6)
0x3380|                                       00      |             .  |          visibility: "default" (0) 0x338d.6-0x338d.7 (0.2)
0x3380|                                          09 00|              ..|          shndx: 9 0x338e-0x338f.7 (2)
      |                                               |                |        [23]{}: symbol 0x3390-0x339f.7 (16)
0x3390|1a 01 00 00                                    |....            |          name: "__dso_handle" (282) 0x3390-0x3393.7 (4)
0x3390|            00 40 00 00                        |    .@..        |          value: 16384 0x3394-0x3397.7 (4)
0x3390|                        00 00 00 00            |        ....    |          size: 0 0x3398-0x339b.7 (4)
0x3390|                                    01         |            .   |          bind: "local" (0) 0x339c-0x339c.3 (0.4)
0x3390|                                    01         |            .   |          type: "object" (1) 0x339c.4-0x339c.7 (0.4)
0x3390|                                       00      |             .  |          other_unused: 0 0x339d-0x339d.5 (0.6)
0x3390|                                       00      |             .  |          visibility: "default" (0) 0x339d.6-0x339d.7 (0.2)
0x3390|                                          13 00|              ..|          shndx: 19 0x339e-0x339f.7 (2)
      |                                               |                |        [24]{}: symbol 0x33a0-0x33af.7 (16)
0x33a0|27 01 00 00                                    |'...            |          name: "__x86.get_pc_thunk.dx" (295) 0x33a0-0x33a3.7 (4)
0x33a0|            ea 11 00 00                        |    ....        |          value: 4586 0x33a4-0x33a7.7 (4)
0x33a0|                        00 00 00 00            |        ....    |          size: 0 0x33a8-0x33ab.7 (4)
0x33a0|                                    02         |            .   |          bind: "local" (0) 0x33ac-0x33ac.3 (0.4)
0x33a0|                                    02         |            .   |          type: "func" (2) 0x33ac.4-0x33ac.7 (0.4)
0x33a0|                                       00      |             .  |          other_unused: 0 0x33ad-0x33ad.5 (0.6)
0x33a0|                                       00      |             .  |          visibility: "default" (0) 0x33ad.6-0x33ad.7 (0.2)
0x33a0|                                          09 00|              ..|          shndx: 9 0x33ae-0x33af.7 (2)
      |                                               |                |        [25]{}: symbol 0x33b0-0x33bf.7 (16)
0x33b0|3d 01 00 00                                    |=...            |          name: "__x86.get_pc_thunk.bx" (317) 0x33b0-0x33b3.7 (4)
0x33b0|            ee 11 00 00                        |    ....        |          value: 4590 0x33b4-0x33b7.7 (4)
0x33b0|                        00 00 00 00            |        ....    |          size: 0 0x33b8-0x33bb.7 (4)
0x33b0|                                    02         |            .   |          bind: "local" (0) 0x33bc-0x33bc.3 (0.4)
0x33b0|                                    02         |            .   |          type: "func" (2) 0x33bc.4-0x33bc.7 (0.4)
0x33b0|                                       00      |             .  |          other_unused: 0 0x33bd-0x33bd.5 (0.6)
0x33b0|                                       00      |             .  |          visibility: "default" (0) 0x33bd.6-0x33bd.7 (0.2)
0x33b0|                                          09 00|              ..|          shndx: 9 0x33be-0x33bf.7 (2)
      |                                               |                |        [26]{}: symbol 0x33c0-0x33cf.7 (16)
0x33c0|53 01 00 00                                    |S...            |          name: "__GNU_EH_FRAME_HDR" (339) 0x33c0-0x33c3.7 (4)
0x33c0|            0c 20 00 00                        |    . ..        |          value: 8204 0x33c4-0x33c7.7 (4)
0x33c0|                        00 00 00 00            |        ....    |          size: 0 0x33c8-0x33cb.7 (4)
0x33c0|                                    00         |            .   |          bind: "local" (0) 0x33cc-0x33cc.3 (0.4)
0x33c0|                                    00         |            .   |          type: "notype" (0) 0x33cc.4-0x33cc.7 (0.4)
0x33c0|                                       00      |             .  |          other_unused: 0 0x33cd-0x33cd.5 (0.6)
0x33c0|                                       00      |             .  |          visibility: "default" (0) 0x33cd.6-0x33cd.7 (0.2)
0x33c0|                                          0c 00|              ..|          shndx: 12 0x33ce-0x33cf.7 (2)
      |                                               |                |        [27]{}: symbol 0x33d0-0x33df.7 (16)
0x33d0|66 01 00 00                                    |f...            |          name: "_GLOBAL_OFFSET_TABLE_" (358) 0x33d0-0x33d3.7 (4)
0x33d0|            dc 3f 00 00                        |    .?..        |          value: 16348 0x33d4-0x33d7.7 (4)
0x33d0|                        00 00 00 00            |        ....    |          size: 0 0x33d8-0x33db.7 (4)
0x33d0|                                    01         |            .   |          bind: "local" (0) 0x33dc-0x33dc.3 (0.4)
0x33d0|                                    01         |            .   |          type: "object" (1) 0x33dc.4-0x33dc.7 (0.4)
0x33d0|                                       00      |             .  |          other_unused: 0 0x33dd-0x33dd.5 (0.6)
0x33d0|                                       00      |             .  |          visibility: "default" (0) 0x33dd.6-0x33dd.7 (0.2)
0x33d0|                                          12 00|              ..|          shndx: 18 0x33de-0x33df.7 (2)
      |                                               |                |        [28]{}: symbol 0x33e0-0x33ef.7 (16)
0x33e0|7c 01 00 00                                    ||...            |          name: "puts" (380) 0x33e0-0x33e3.7 (4)
0x33e0|            00 00 00 00                        |    ....        |          value: 0 0x33e4-0x33e7.7 (4)
0x33e0|                        00 00 00 00            |        ....    |          size: 0 0x33e8-0x33eb.7 (4)
0x33e0|                                    12         |            .   |          bind: "global" (1) 0x33ec-0x33ec.3 (0.4)
0x33e0|                                    12         |            .   |          type: "func" (2) 0x33ec.4-0x33ec.7 (0.4)
0x33e0|                                       00      |             .  |          other_unused: 0 0x33ed-0x33ed.5 (0.6)
0x33e0|                                       00      |             .  |          visibility: "default" (0) 0x33ed.6-0x33ed.7 (0.2)
0x33e0|                                          00 00|              ..|          shndx: 0 0x33ee-0x33ef.7 (2)
      |                                               |                |        [29]{}: symbol 0x33f0-0x33ff.7 (16)
0x33f0|81 01 00 00                                    |....            |          name: "__cxa_finalize" (385) 0x33f0-0x33f3.7 (4)
0x33f0|            00 00 00 00                        |    ....        |          value: 0 0x33f4-0x33f7.7 (4)
0x33f0|                        00 00 00 00            |        ....    |          size: 0 0x33f8-0x33fb.7 (4)
0x33f0|                                    22         |            "   |          bind: "weak" (2) 0x33fc-0x33fc.3 (0.4)
0x33f0|                                    22         |            "   |          type: "func" (2) 0x33fc.4-0x33fc.7 (0.4)
0x33f0|                                       00      |             .  |          other_unused: 0 0x33fd-0x33fd.5 (0.6)
0x33f0|                                       00      |             .  |          visibility: "default" (0) 0x33fd.6-0x33fd.7 (0.2)
0x33f0|                                          00 00|              ..|          shndx: 0 0x33fe-0x33ff.7 (2)
      |                                               |                |        [30]{}: symbol 0x3400-0x340f.7 (16)
0x3400|90 01 00 00                                    |....            |          name: "_init" (400) 0x3400-0x3403.7 (4)
0x3400|            00 10 00 00                        |    ....        |          value: 4096 0x3404-0x3407.7 (4)
0x3400|                        01 00 00 00            |        ....    |          size: 1 0x3408-0x340b.7 (4)
0x3400|                                    12         |            .   |          bind: "global" (1) 0x340c-0x340c.3 (0.4)
0x3400|                                    12         |            .   |          type: "func" (2) 0x340c.4-0x340c.7 (0.4)
0x3400|                                       00      |             .  |          other_unused: 0 0x340d-0x340d.5 (0.6)
0x3400|                                       00      |             .  |          visibility: "default" (0) 0x340d.6-0x340d.7 (0.2)
0x3400|                                          06 00|              ..|          shndx: 6 0x340e-0x340f.7 (2)
      |                                               |                |        [31]{}: symbol 0x3410-0x341f.7 (16)
0x3410|96 01 00 00                                    |....            |          name: "__register_frame_info_bases" (406) 0x3410-0x3413.7 (4)
0x3410|            00 00 00 00                        |    ....        |          value: 0 0x3414-0x3417.7 (4)
0x3410|                        00 00 00 00            |        ....    |          size: 0 0x3418-0x341b.7 (4)
0x3410|                                    20         |                |          bind: "weak" (2) 0x341c-0x341c.3 (0.4)
0x3410|                                    20         |                |          type: "notype" (0) 0x341c.4-0x341c.7 (0.4)
0x3410|                                       00      |             .  |          other_unused: 0 0x341d-0x341d.5 (0.6)
0x3410|                                       00      |             .  |          visibility: "default" (0) 0x341d.6-0x341d.7 (0.2)
0x3410|                                          00 00|              ..|          shndx: 0 0x341e-0x341f.7 (2)
      |                                               |                |        [32]{}: symbol 0x3420-0x342f.7 (16)
0x3420|b2 01 00 00                                    |....            |          name: "_ITM_registerTMCloneTable" (434) 0x3420-0x3423.7 (4)
0x3420|            00 00 00 00                        |    ....        |          value: 0 0x3424-0x3427.7 (4)
0x3420|                        00 00 00 00            |        ....    |          size: 0 0x3428-0x342b.7 (4)
0x3420|                                    20         |                |          bind: "weak" (2) 0x342c-0x342c.3 (0.4)
0x3420|                                    20         |                |          type: "notype" (0) 0x342c.4-0x342c.7 (0.4)
0x3420|                                       00      |             .  |          other_unused: 0 0x342d-0x342d.5 (0.6)
0x3420|                                       00      |             .  |          visibility: "default" (0) 0x342d.6-0x342d.7 (0.2)
0x3420|                                          00 00|              ..|          shndx: 0 0x342e-0x342f.7 (2)
      |                                               |                |        [33]{}: symbol 0x3430-0x343f.7 (16)
0x3430|cc 01 00 00                                    |....            |          name: "__deregister_frame_info_bases" (460) 0x3430-0x3433.7 (4)
0x3430|            00 00 00 00                        |    ....        |          value: 0 0x3434-0x3437.7 (4)
0x3430|                        00 00 00 00            |        ....    |          size: 0 0x3438-0x343b.7 (4)
0x3430|                                    20         |                |          bind: "weak" (2) 0x343c-0x343c.3 (0.4)
0x3430|                                    20         |                |          type: "notype" (0) 0x343c.4-0x343c.7 (0.4)
0x3430|                                       00      |             .  |          other_unused: 0 0x343d-0x343d.5 (0.6)
0x3430|                                       00      |             .  |          visibility: "default" (0) 0x343d.6-0x343d.7 (0.2)
0x3430|                                          00 00|              ..|          shndx: 0 0x343e-0x343f.7 (2)
      |                                               |                |        [34]{}: symbol 0x3440-0x344f.7 (16)
0x3440|ea 01 00 00                                    |....            |          name: "_ITM_deregisterTMCloneTable" (490) 0x3440-0x3443.7 (4)
0x3440|            00 00 00 00                        |    ....        |          value: 0 0x3444-0x3447.7 (4)
0x3440|                        00 00 00 00            |        ....    |          size: 0 0x3448-0x344b.7 (4)
0x3440|                                    20         |                |          bind: "weak" (2) 0x344c-0x344c.3 (0.4)
0x3440|                                    20         |                |          type: "notype" (0) 0x344c.4-0x344c.7 (0.4)
0x3440|                                       00      |             .  |          other_unused: 0 0x344d-0x344d.5 (0.6)
0x3440|                                       00      |             .  |          visibility: "default" (0) 0x344d.6-0x344d.7 (0.2)
0x3440|                                          00 00|              ..|          shndx: 0 0x344e-0x344f.7 (2)
      |                                               |                |        [35]{}: symbol 0x3450-0x345f.7 (16)
0x3450|06 02 00 00                                    |....            |          name: "_fini" (518) 0x3450-0x3453.7 (4)
0x3450|            71 12 00 00                        |    q...        |          value: 4721 0x3454-0x3457.7 (4)
0x3450|                        01 00 00 00            |        ....    |          size: 1 0x3458-0x345b.7 (4)
0x3450|                                    12         |            .   |          bind: "global" (1) 0x345c-0x345c.3 (0.4)
0x3450|                                    12         |            .   |          type: "func" (2) 0x345c.4-0x345c.7 (0.4)
0x3450|                                       00      |             .  |          other_unused: 0 0x345d-0x345d.5 (0.6)
0x3450|                                       00      |             .  |          visibility: "default" (0) 0x345d.6-0x345d.7 (0.2)
0x3450|                                          0a 00|              ..|          shndx: 10 0x345e-0x345f.7 (2)
      |                                               |                |        [36]{}: symbol 0x3460-0x346f.7 (16)
0x3460|0c 02 00 00                                    |....            |          name: "libbbb_bbb" (524) 0x3460-0x3463.7 (4)
0x3460|            f6 11 00 00                        |    ....        |          value: 4598 0x3464-0x3467.7 (4)
0x3460|                        2b 00 00 00            |        +...    |          size: 43 0x3468-0x346b.7 (4)
0x3460|                                    12         |            .   |          bind: "global" (1) 0x346c-0x346c.3 (0.4)
0x3460|                                    12         |            .   |          type: "func" (2) 0x346c.4-0x346c.7 (0.4)
0x3460|                                       00      |             .  |          other_unused: 0 0x346d-0x346d.5 (0.6)
0x3460|                                       00      |             .  |          visibility: "default" (0) 0x346d.6-0x346d.7 (0.2)
0x3460|                                          09 00|              ..|          shndx: 9 0x346e-0x346f.7 (2)
0x3bf0|                        01 00 00 00            |        ....    |      name: ".symtab" (1) 0x3bf8-0x3bfb.7 (4)
0x3bf0|                                    02 00 00 00|            ....|      type: "symtab" (0x2) (Symbol table) 0x3bfc-0x3bff.7 (4)
      |                                               |                |      flags{}: 0x3c00-0x3c03.7 (4)
0x3c00|00                                             |.               |        link_order: false 0x3c00-0x3c00 (0.1)
0x3c00|00                                             |.               |        info_link: false 0x3c00.1-0x3c00.1 (0.1)
0x3c00|00                                             |.               |        strings: false 0x3c00.2-0x3c00.2 (0.1)
0x3c00|00                                             |.               |        merge: false 0x3c00.3-0x3c00.3 (0.1)
0x3c00|00                                             |.               |        unused0: 0 0x3c00.4-0x3c00.4 (0.1)
0x3c00|00                                             |.               |        execinstr: false 0x3c00.5-0x3c00.5 (0.1)
0x3c00|00                                             |.               |        alloc: false 0x3c00.6-0x3c00.6 (0.1)
0x3c00|00                                             |.               |        write: false 0x3c00.7-0x3c00.7 (0.1)
0x3c00|   00                                          | .              |        tls: false 0x3c01-0x3c01 (0.1)
0x3c00|   00                                          | .              |        group: false 0x3c01.1-0x3c01.1 (0.1)
0x3c00|   00                                          | .              |        os_nonconforming: false 0x3c01.2-0x3c01.2 (0.1)
0x3c00|   00 00                                       | ..             |        unused1: 0 0x3c01.3-0x3c02.3 (1.1)
0x3c00|      00 00                                    |  ..            |        os_specific: 0 0x3c02.4-0x3c03.3 (1)
0x3c00|         00                                    |   .            |        processor_specific: 0 0x3c03.4-0x3c03.7 (0.4)
0x3c00|            00 00 00 00                        |    ....        |      addr: 0x0 0x3c04-0x3c07.7 (4)
0x3c00|                        20 32 00 00            |         2..    |      offset: 12832 0x3c08-0x3c0b.7 (4)
0x3c00|                                    50 02 00 00|            P...|      size: 0x250 0x3c0c-0x3c0f.7 (4)
0x3c10|1d 00 00 00                                    |....            |      link: 29 0x3c10-0x3c13.7 (4)
0x3c10|            1c 00 00 00                        |    ....        |      info: 28 0x3c14-0x3c17.7 (4)
0x3c10|                        04 00 00 00            |        ....    |      addralign: 4 0x3c18-0x3c1b.7 (4)
0x3c10|                                    10 00 00 00|            ....|      entsize: 16 0x3c1c-0x3c1f.7 (4)
      |                                               |                |    [29]{}: section_header 0x3470-0x3c47.7 (2008)
0x3470|00 63 72 74 73 74 75 66 66 2e 63 00 5f 5f 43 54|.crtstuff.c.__CT|      string: "\x00crtstuff.c\x00__CTOR_LIST__\x00__DTOR_LIST__\x00__EH_FRAME"... 0x3470-0x3686.7 (535)
*     |until 0x3686.7 (535)                           |                |
0x3c20|09 00 00 00                                    |....            |      name: ".strtab" (9) 0x3c20-0x3c23.7 (4)
0x3c20|            03 00 00 00                        |    ....        |      type: "strtab" (0x3) (String table) 0x3c24-0x3c27.7 (4)
      |                                               |                |      flags{}: 0x3c28-0x3c2b.7 (4)
0x3c20|                        00                     |        .       |        link_order: false 0x3c28-0x3c28 (0.1)
0x3c20|                        00                     |        .       |        info_link: false 0x3c28.1-0x3c28.1 (0.1)
0x3c20|                        00                     |        .       |        strings: false 0x3c28.2-0x3c28.2 (0.1)
0x3c20|                        00                     |        .       |        merge: false 0x3c28.3-0x3c28.3 (0.1)
0x3c20|                        00                     |        .       |        unused0: 0 0x3c28.4-0x3c28.4 (0.1)
0x3c20|                        00                     |        .       |        execinstr: false 0x3c28.5-0x3c28.5 (0.1)
0x3c20|                        00                     |        .       |        alloc: false 0x3c28.6-0x3c28.6 (0.1)
0x3c20|                        00                     |        .       |        write: false 0x3c28.7-0x3c28.7 (0.1)
0x3c20|                           00                  |         .      |        tls: false 0x3c29-0x3c29 (0.1)
0x3c20|                           00                  |         .      |        group: false 0x3c29.1-0x3c29.1 (0.1)
0x3c20|                           00                  |         .      |        os_nonconforming: false 0x3c29.2-0x3c29.2 (0.1)
0x3c20|                           00 00               |         ..     |        unused1: 0 0x3c29.3-0x3c2a.3 (1.1)
0x3c20|                              00 00            |          ..    |        os_specific: 0 0x3c2a.4-0x3c2b.3 (1)
0x3c20|                                 00            |           .    |        processor_specific: 0 0x3c2b.4-0x3c2b.7 (0.4)
0x3c20|                                    00 00 00 00|            ....|      addr: 0x0 0x3c2c-0x3c2f.7 (4)
0x3c30|70 34 00 00                                    |p4..            |      offset: 13424 0x3c30-0x3c33.7 (4)
0x3c30|            17 02 00 00                        |    ....        |      size: 0x217 0x3c34-0x3c37.7 (4)
0x3c30|                        00 00 00 00            |        ....    |      link: 0 0x3c38-0x3c3b.7 (4)
0x3c30|                                    00 00 00 00|            ....|      info: 0 0x3c3c-0x3c3f.7 (4)
0x3c40|01 00 00 00                                    |....            |      addralign: 1 0x3c40-0x3c43.7 (4)
0x3c40|            00 00 00 00                        |    ....        |      entsize: 0 0x3c44-0x3c47.7 (4)
      |                                               |                |    [30]{}: section_header 0x3687-0x3c6f.7 (1513)
0x3680|                     00 2e 73 79 6d 74 61 62 00|       ..symtab.|      string: "\x00.symtab\x00.strtab\x00.shstrtab\x00.gnu.hash\x00.dynsym\x00.dyns"... 0x3687-0x3794.7 (270)
0x3690|2e 73 74 72 74 61 62 00 2e 73 68 73 74 72 74 61|.strtab..shstrta|
*     |until 0x3794.7 (270)                           |                |
0x3c40|                        11 00 00 00            |        ....    |      name: ".shstrtab" (17) 0x3c48-0x3c4b.7 (4)
0x3c40|                                    03 00 00 00|            ....|      type: "strtab" (0x3) (String table) 0x3c4c-0x3c4f.7 (4)
      |                                               |                |      flags{}: 0x3c50-0x3c53.7 (4)
0x3c50|00                                             |.               |        link_order: false 0x3c50-0x3c50 (0.1)
0x3c50|00                                             |.               |        info_link: false 0x3c50.1-0x3c50.1 (0.1)
0x3c50|00                                             |.               |        strings: false 0x3c50.2-0x3c50.2 (0.1)
0x3c50|00                                             |.               |        merge: false 0x3c50.3-0x3c50.3 (0.1)
0x3c50|00                                             |.               |        unused0: 0 0x3c50.4-0x3c50.4 (0.1)
0x3c50|00                                             |.               |        execinstr: false 0x3c50.5-0x3c50.5 (0.1)
0x3c50|00                                             |.               |        alloc: false 0x3c50.6-0x3c50.6 (0.1)
0x3c50|00                                             |.               |        write: false 0x3c50.7-0x3c50.7 (0.1)
0x3c50|   00                                          | .              |        tls: false 0x3c51-0x3c51 (0.1)
0x3c50|   00                                          | .              |        group: false 0x3c51.1-0x3c51.1 (0.1)
0x3c50|   00                                          | .              |        os_nonconforming: false 0x3c51.2-0x3c51.2 (0.1)
0x3c50|   00 00                                       | ..             |        unused1: 0 0x3c51.3-0x3c52.3 (1.1)
0x3c50|      00 00                                    |  ..            |        os_specific: 0 0x3c52.4-0x3c53.3 (1)
0x3c50|         00                                    |   .            |        processor_specific: 0 0x3c53.4-0x3c53.7 (0.4)
0x3c50|            00 00 00 00                        |    ....        |      addr: 0x0 0x3c54-0x3c57.7 (4)
0x3c50|                        87 36 00 00            |        .6..    |      offset: 13959 0x3c58-0x3c5b.7 (4)
0x3c50|                                    0e 01 00 00|            ....|      size: 0x10e 0x3c5c-0x3c5f.7 (4)
0x3c60|00 00 00 00                                    |....            |      link: 0 0x3c60-0x3c63.7 (4)
0x3c60|            00 00 00 00                        |    ....        |      info: 0 0x3c64-0x3c67.7 (4)
0x3c60|                        01 00 00 00            |        ....    |      addralign: 1 0x3c68-0x3c6b.7 (4)
0x3c60|                                    00 00 00 00|            ....|      entsize: 0 0x3c6c-0x3c6f.7 (4)
0x0320|                        00 00 00 00 00 00 00 00|        ........|  unknown0: raw bits 0x328-0xfff.7 (3288)
0x0330|00 00 00 00 00 00 00 00 00 00 00 00 00 00 00 00|................|
*     |until 0xfff.7 (3288)                           |                |
0x1270|                                       00 00 00|             ...|  unknown1: raw bits 0x127d-0x1fff.7 (3459)
0x1280|00 00 00 00 00 00 00 00 00 00 00 00 00 00 00 00|................|
*     |until 0x1fff.7 (3459)                          |                |
0x20e0|                                    00 00 00 00|            ....|  unknown2: raw bits 0x20ec-0x2f13.7 (3624)
0x20f0|00 00 00 00 00 00 00 00 00 00 00 00 00 00 00 00|................|
*     |until 0x2f13.7 (3624)                          |                |
0x3030|               00 00 00                        |     ...        |  unknown3: raw bits 0x3035-0x3037.7 (3)
0x3790|               00 00 00                        |     ...        |  unknown4: raw bits 0x3795-0x3797.7 (3)
