# Generated using https://gist.github.com/xentripetal/c0f1645ee1abd4d25f71896c8d650543
$ fq dv allDataTypes.avro
     |00 01 02 03 04 05 06 07 08 09 0a 0b 0c 0d 0e 0f|0123456789abcdef|.{}: allDataTypes.avro (avro_ocf) 0x0-0x738.7 (1849)
0x000|4f 62 6a 01                                    |Obj.            |  magic: raw bits (valid) 0x0-0x3.7 (4)
     |                                               |                |  header{}: 0x4-0x41d.7 (1050)
     |                                               |                |    meta[0:2]: 0x4-0x40d.7 (1034)
     |                                               |                |      [0]{}: block 0x4-0x40c.7 (1033)
0x000|            04                                 |    .           |        count: 2 0x4-0x4.7 (1)
     |                                               |                |        data[0:2]: 0x5-0x40c.7 (1032)
     |                                               |                |          [0]{}: entry 0x5-0x3fc.7 (1016)
     |                                               |                |            key{}: 0x5-0x10.7 (12)
0x000|               16                              |     .          |              length: 11 0x5-0x5.7 (1)
0x000|                  61 76 72 6f 2e 73 63 68 65 6d|      avro.schem|              data: "avro.schema" 0x6-0x10.7 (11)
0x010|61                                             |a               |
     |                                               |                |            value{}: 0x11-0x3fc.7 (1004)
0x010|   d4 0f                                       | ..             |              length: 1002 0x11-0x12.7 (2)
0x010|         7b 22 66 69 65 6c 64 73 22 3a 5b 7b 22|   {"fields":[{"|              data: "{\"fields\":[{\"name\":\"null\",\"type\":\"null\"},{\"name..." 0x13-0x3fc.7 (1002)
0x020|6e 61 6d 65 22 3a 22 6e 75 6c 6c 22 2c 22 74 79|name":"null","ty|
*    |until 0x3fc.7 (1002)                           |                |
     |                                               |                |          [1]{}: entry 0x3fd-0x40c.7 (16)
     |                                               |                |            key{}: 0x3fd-0x407.7 (11)
0x3f0|                                       14      |             .  |              length: 10 0x3fd-0x3fd.7 (1)
0x3f0|                                          61 76|              av|              data: "avro.codec" 0x3fe-0x407.7 (10)
0x400|72 6f 2e 63 6f 64 65 63                        |ro.codec        |
     |                                               |                |            value{}: 0x408-0x40c.7 (5)
0x400|                        08                     |        .       |              length: 4 0x408-0x408.7 (1)
0x400|                           6e 75 6c 6c         |         null   |              data: "null" 0x409-0x40c.7 (4)
     |                                               |                |      [1]{}: block 0x40d-0x40d.7 (1)
0x400|                                       00      |             .  |        count: 0 0x40d-0x40d.7 (1)
     |                                               |                |        data[0:0]: 0x40e-NA (0)
0x400|                                          d3 c3|              ..|    sync: raw bits 0x40e-0x41d.7 (16)
0x410|7b dd 09 d4 11 0f ab 81 70 3e 70 78 9e a0      |{.......p>px..  |
     |                                               |                |  blocks[0:1]: 0x41e-0x738.7 (795)
     |                                               |                |    [0]{}: block 0x41e-0x738.7 (795)
0x410|                                          14   |              . |      count: 10 0x41e-0x41e.7 (1)
0x410|                                             90|               .|      size: 776 0x41f-0x420.7 (2)
0x420|0c                                             |.               |
     |                                               |                |      data[0:10]: 0x421-0x728.7 (776)
     |                                               |                |        [0]{}: datum 0x421-0x46b.7 (75)
     |                                               |                |          null: null 0x421-NA (0)
0x420|   01                                          | .              |          boolean: true 0x421-0x421.7 (1)
0x420|      0e                                       |  .             |          int: 7 0x422-0x422.7 (1)
0x420|         42                                    |   B            |          long: 33 0x423-0x423.7 (1)
0x420|            00 00 00 00                        |    ....        |          float: 0 0x424-0x427.7 (4)
0x420|                        92 24 49 92 24 49 f2 3f|        .$I.$I.?|          double: -2.8062043420318885e-221 0x428-0x42f.7 (8)
     |                                               |                |          bytes{}: 0x430-0x431.7 (2)
0x430|02                                             |.               |            length: 1 0x430-0x430.7 (1)
0x430|   39                                          | 9              |            data: raw bits 0x431-0x431.7 (1)
     |                                               |                |          string{}: 0x432-0x434.7 (3)
0x430|      04                                       |  .             |            length: 2 0x432-0x432.7 (1)
0x430|         31 30                                 |   10           |            data: "10" 0x433-0x434.7 (2)
0x430|               00                              |     .          |          enum: "A" (0) 0x435-0x435.7 (1)
     |                                               |                |          array[0:1]: 0x436-0x436.7 (1)
     |                                               |                |            [0]{}: block 0x436-0x436.7 (1)
0x430|                  00                           |      .         |              count: 0 0x436-0x436.7 (1)
     |                                               |                |              data[0:0]: 0x437-NA (0)
     |                                               |                |          map[0:2]: 0x437-0x444.7 (14)
     |                                               |                |            [0]{}: block 0x437-0x443.7 (13)
0x430|                     06                        |       .        |              count: 3 0x437-0x437.7 (1)
     |                                               |                |              data[0:3]: 0x438-0x443.7 (12)
     |                                               |                |                [0]{}: entry 0x438-0x43b.7 (4)
     |                                               |                |                  key{}: 0x438-0x439.7 (2)
0x430|                        02                     |        .       |                    length: 1 0x438-0x438.7 (1)
0x430|                           61                  |         a      |                    data: "a" 0x439-0x439.7 (1)
     |                                               |                |                  value{}: 0x43a-0x43b.7 (2)
0x430|                              02               |          .     |                    length: 1 0x43a-0x43a.7 (1)
0x430|                                 41            |           A    |                    data: "A" 0x43b-0x43b.7 (1)
     |                                               |                |                [1]{}: entry 0x43c-0x43f.7 (4)
     |                                               |                |                  key{}: 0x43c-0x43d.7 (2)
0x430|                                    02         |            .   |                    length: 1 0x43c-0x43c.7 (1)
0x430|                                       62      |             b  |                    data: "b" 0x43d-0x43d.7 (1)
     |                                               |                |                  value{}: 0x43e-0x43f.7 (2)
0x430|                                          02   |              . |                    length: 1 0x43e-0x43e.7 (1)
0x430|                                             42|               B|                    data: "B" 0x43f-0x43f.7 (1)
     |                                               |                |                [2]{}: entry 0x440-0x443.7 (4)
     |                                               |                |                  key{}: 0x440-0x441.7 (2)
0x440|02                                             |.               |                    length: 1 0x440-0x440.7 (1)
0x440|   63                                          | c              |                    data: "c" 0x441-0x441.7 (1)
     |                                               |                |                  value{}: 0x442-0x443.7 (2)
0x440|      02                                       |  .             |                    length: 1 0x442-0x442.7 (1)
0x440|         43                                    |   C            |                    data: "C" 0x443-0x443.7 (1)
     |                                               |                |            [1]{}: block 0x444-0x444.7 (1)
0x440|            00                                 |    .           |              count: 0 0x444-0x444.7 (1)
     |                                               |                |              data[0:0]: 0x445-NA (0)
     |                                               |                |          union{}: 0x445-0x447.7 (3)
0x440|               02                              |     .          |            type: 1 0x445-0x445.7 (1)
     |                                               |                |            value{}: 0x446-0x447.7 (2)
0x440|                  02                           |      .         |              length: 1 0x446-0x446.7 (1)
0x440|                     30                        |       0        |              data: "0" 0x447-0x447.7 (1)
0x440|                        00 01 02 03 04 05 06 07|        ........|          fixed: raw bits 0x448-0x457.7 (16)
0x450|08 09 0a 0b 0c 0d 0e 0f                        |........        |
0x450|                        0c                     |        .       |          date: "1970-01-07" (6) 0x458-0x458.7 (1)
0x450|                           c0 a9 07            |         ...    |          timeMillis: "00:01:00.000" (60000) 0x459-0x45b.7 (3)
0x450|                                    e0 5d      |            .]  |          timeMicros: "00:00:00.006000" (6000) 0x45c-0x45d.7 (2)
0x450|                                          c0 d9|              ..|          timestampMillis: "2000-01-01T00:01:00Z" (946684860000) 0x45e-0x463.7 (6)
0x460|84 ad 8d 37                                    |...7            |
0x460|            e0 dd bf b3 a7 c0 ae 03            |    ........    |          timestampMicros: "2000-01-01T00:00:00.006Z" (946684800006000) 0x464-0x46b.7 (8)
     |                                               |                |        [1]{}: datum 0x46c-0x4b9.7 (78)
     |                                               |                |          null: null 0x46c-NA (0)
0x460|                                    00         |            .   |          boolean: false 0x46c-0x46c.7 (1)
0x460|                                       0c      |             .  |          int: 6 0x46d-0x46d.7 (1)
0x460|                                          40   |              @ |          long: 32 0x46e-0x46e.7 (1)
0x460|                                             ab|               .|          float: -1.2126478207002966e-12 0x46f-0x472.7 (4)
0x470|aa aa 3e                                       |..>             |
0x470|         25 49 92 24 49 92 f4 3f               |   %I.$I..?     |          double: 4.61123556404525e-129 0x473-0x47a.7 (8)
     |                                               |                |          bytes{}: 0x47b-0x47c.7 (2)
0x470|                                 02            |           .    |            length: 1 0x47b-0x47b.7 (1)
0x470|                                    38         |            8   |            data: raw bits 0x47c-0x47c.7 (1)
     |                                               |                |          string{}: 0x47d-0x47f.7 (3)
0x470|                                       04      |             .  |            length: 2 0x47d-0x47d.7 (1)
0x470|                                          31 31|              11|            data: "11" 0x47e-0x47f.7 (2)
0x480|02                                             |.               |          enum: "B" (1) 0x480-0x480.7 (1)
     |                                               |                |          array[0:2]: 0x481-0x484.7 (4)
     |                                               |                |            [0]{}: block 0x481-0x483.7 (3)
0x480|   02                                          | .              |              count: 1 0x481-0x481.7 (1)
     |                                               |                |              data[0:1]: 0x482-0x483.7 (2)
     |                                               |                |                [0]{}: entry 0x482-0x483.7 (2)
0x480|      02                                       |  .             |                  length: 1 0x482-0x482.7 (1)
0x480|         61                                    |   a            |                  data: "a" 0x483-0x483.7 (1)
     |                                               |                |            [1]{}: block 0x484-0x484.7 (1)
0x480|            00                                 |    .           |              count: 0 0x484-0x484.7 (1)
     |                                               |                |              data[0:0]: 0x485-NA (0)
     |                                               |                |          map[0:2]: 0x485-0x492.7 (14)
     |                                               |                |            [0]{}: block 0x485-0x491.7 (13)
0x480|               06                              |     .          |              count: 3 0x485-0x485.7 (1)
     |                                               |                |              data[0:3]: 0x486-0x491.7 (12)
     |                                               |                |                [0]{}: entry 0x486-0x489.7 (4)
     |                                               |                |                  key{}: 0x486-0x487.7 (2)
0x480|                  02                           |      .         |                    length: 1 0x486-0x486.7 (1)
0x480|                     61                        |       a        |                    data: "a" 0x487-0x487.7 (1)
     |                                               |                |                  value{}: 0x488-0x489.7 (2)
0x480|                        02                     |        .       |                    length: 1 0x488-0x488.7 (1)
0x480|                           41                  |         A      |                    data: "A" 0x489-0x489.7 (1)
     |                                               |                |                [1]{}: entry 0x48a-0x48d.7 (4)
     |                                               |                |                  key{}: 0x48a-0x48b.7 (2)
0x480|                              02               |          .     |                    length: 1 0x48a-0x48a.7 (1)
0x480|                                 62            |           b    |                    data: "b" 0x48b-0x48b.7 (1)
     |                                               |                |                  value{}: 0x48c-0x48d.7 (2)
0x480|                                    02         |            .   |                    length: 1 0x48c-0x48c.7 (1)
0x480|                                       42      |             B  |                    data: "B" 0x48d-0x48d.7 (1)
     |                                               |                |                [2]{}: entry 0x48e-0x491.7 (4)
     |                                               |                |                  key{}: 0x48e-0x48f.7 (2)
0x480|                                          02   |              . |                    length: 1 0x48e-0x48e.7 (1)
0x480|                                             63|               c|                    data: "c" 0x48f-0x48f.7 (1)
     |                                               |                |                  value{}: 0x490-0x491.7 (2)
0x490|02                                             |.               |                    length: 1 0x490-0x490.7 (1)
0x490|   43                                          | C              |                    data: "C" 0x491-0x491.7 (1)
     |                                               |                |            [1]{}: block 0x492-0x492.7 (1)
0x490|      00                                       |  .             |              count: 0 0x492-0x492.7 (1)
     |                                               |                |              data[0:0]: 0x493-NA (0)
     |                                               |                |          union{}: 0x493-0x495.7 (3)
0x490|         02                                    |   .            |            type: 1 0x493-0x493.7 (1)
     |                                               |                |            value{}: 0x494-0x495.7 (2)
0x490|            02                                 |    .           |              length: 1 0x494-0x494.7 (1)
0x490|               31                              |     1          |              data: "1" 0x495-0x495.7 (1)
0x490|                  00 01 02 03 04 05 06 07 08 09|      ..........|          fixed: raw bits 0x496-0x4a5.7 (16)
0x4a0|0a 0b 0c 0d 0e 0f                              |......          |
0x4a0|                  0e                           |      .         |          date: "1970-01-08" (7) 0x4a6-0x4a6.7 (1)
0x4a0|                     c2 a9 07                  |       ...      |          timeMillis: "00:01:00.001" (60001) 0x4a7-0x4a9.7 (3)
0x4a0|                              dd 5d            |          .]    |          timeMicros: "23:59:59.994001" (-5999) 0x4aa-0x4ab.7 (2)
0x4a0|                                    c2 c9 b7 ff|            ....|          timestampMillis: "2000-01-02T00:01:00.001Z" (946771260001) 0x4ac-0x4b1.7 (6)
0x4b0|8d 37                                          |.7              |
0x4b0|      a2 a2 f9 90 ab c5 ae 03                  |  ........      |          timestampMicros: "2000-01-01T23:59:59.994001Z" (946771199994001) 0x4b2-0x4b9.7 (8)
     |                                               |                |        [2]{}: datum 0x4ba-0x509.7 (80)
     |                                               |                |          null: null 0x4ba-NA (0)
0x4b0|                              01               |          .     |          boolean: true 0x4ba-0x4ba.7 (1)
0x4b0|                                 0a            |           .    |          int: 5 0x4bb-0x4bb.7 (1)
0x4b0|                                    46         |            F   |          long: 35 0x4bc-0x4bc.7 (1)
0x4b0|                                       ab aa 2a|             ..*|          float: -1.2090952154417134e-12 0x4bd-0x4c0.7 (4)
0x4c0|3f                                             |?               |
0x4c0|   b7 6d db b6 6d db f6 3f                     | .m..m..?       |          double: -1.071112274748446e-41 0x4c1-0x4c8.7 (8)
     |                                               |                |          bytes{}: 0x4c9-0x4cb.7 (3)
0x4c0|                           04                  |         .      |            length: 2 0x4c9-0x4c9.7 (1)
0x4c0|                              31 31            |          11    |            data: raw bits 0x4ca-0x4cb.7 (2)
     |                                               |                |          string{}: 0x4cc-0x4cd.7 (2)
0x4c0|                                    02         |            .   |            length: 1 0x4cc-0x4cc.7 (1)
0x4c0|                                       38      |             8  |            data: "8" 0x4cd-0x4cd.7 (1)
0x4c0|                                          04   |              . |          enum: "C" (2) 0x4ce-0x4ce.7 (1)
     |                                               |                |          array[0:2]: 0x4cf-0x4d4.7 (6)
     |                                               |                |            [0]{}: block 0x4cf-0x4d3.7 (5)
0x4c0|                                             04|               .|              count: 2 0x4cf-0x4cf.7 (1)
     |                                               |                |              data[0:2]: 0x4d0-0x4d3.7 (4)
     |                                               |                |                [0]{}: entry 0x4d0-0x4d1.7 (2)
0x4d0|02                                             |.               |                  length: 1 0x4d0-0x4d0.7 (1)
0x4d0|   61                                          | a              |                  data: "a" 0x4d1-0x4d1.7 (1)
     |                                               |                |                [1]{}: entry 0x4d2-0x4d3.7 (2)
0x4d0|      02                                       |  .             |                  length: 1 0x4d2-0x4d2.7 (1)
0x4d0|         62                                    |   b            |                  data: "b" 0x4d3-0x4d3.7 (1)
     |                                               |                |            [1]{}: block 0x4d4-0x4d4.7 (1)
0x4d0|            00                                 |    .           |              count: 0 0x4d4-0x4d4.7 (1)
     |                                               |                |              data[0:0]: 0x4d5-NA (0)
     |                                               |                |          map[0:2]: 0x4d5-0x4e2.7 (14)
     |                                               |                |            [0]{}: block 0x4d5-0x4e1.7 (13)
0x4d0|               06                              |     .          |              count: 3 0x4d5-0x4d5.7 (1)
     |                                               |                |              data[0:3]: 0x4d6-0x4e1.7 (12)
     |                                               |                |                [0]{}: entry 0x4d6-0x4d9.7 (4)
     |                                               |                |                  key{}: 0x4d6-0x4d7.7 (2)
0x4d0|                  02                           |      .         |                    length: 1 0x4d6-0x4d6.7 (1)
0x4d0|                     63                        |       c        |                    data: "c" 0x4d7-0x4d7.7 (1)
     |                                               |                |                  value{}: 0x4d8-0x4d9.7 (2)
0x4d0|                        02                     |        .       |                    length: 1 0x4d8-0x4d8.7 (1)
0x4d0|                           43                  |         C      |                    data: "C" 0x4d9-0x4d9.7 (1)
     |                                               |                |                [1]{}: entry 0x4da-0x4dd.7 (4)
     |                                               |                |                  key{}: 0x4da-0x4db.7 (2)
0x4d0|                              02               |          .     |                    length: 1 0x4da-0x4da.7 (1)
0x4d0|                                 61            |           a    |                    data: "a" 0x4db-0x4db.7 (1)
     |                                               |                |                  value{}: 0x4dc-0x4dd.7 (2)
0x4d0|                                    02         |            .   |                    length: 1 0x4dc-0x4dc.7 (1)
0x4d0|                                       41      |             A  |                    data: "A" 0x4dd-0x4dd.7 (1)
     |                                               |                |                [2]{}: entry 0x4de-0x4e1.7 (4)
     |                                               |                |                  key{}: 0x4de-0x4df.7 (2)
0x4d0|                                          02   |              . |                    length: 1 0x4de-0x4de.7 (1)
0x4d0|                                             62|               b|                    data: "b" 0x4df-0x4df.7 (1)
     |                                               |                |                  value{}: 0x4e0-0x4e1.7 (2)
0x4e0|02                                             |.               |                    length: 1 0x4e0-0x4e0.7 (1)
0x4e0|   42                                          | B              |                    data: "B" 0x4e1-0x4e1.7 (1)
     |                                               |                |            [1]{}: block 0x4e2-0x4e2.7 (1)
0x4e0|      00                                       |  .             |              count: 0 0x4e2-0x4e2.7 (1)
     |                                               |                |              data[0:0]: 0x4e3-NA (0)
     |                                               |                |          union{}: 0x4e3-0x4e5.7 (3)
0x4e0|         02                                    |   .            |            type: 1 0x4e3-0x4e3.7 (1)
     |                                               |                |            value{}: 0x4e4-0x4e5.7 (2)
0x4e0|            02                                 |    .           |              length: 1 0x4e4-0x4e4.7 (1)
0x4e0|               32                              |     2          |              data: "2" 0x4e5-0x4e5.7 (1)
0x4e0|                  00 01 02 03 04 05 06 07 08 09|      ..........|          fixed: raw bits 0x4e6-0x4f5.7 (16)
0x4f0|0a 0b 0c 0d 0e 0f                              |......          |
0x4f0|                  08                           |      .         |          date: "1970-01-05" (4) 0x4f6-0x4f6.7 (1)
0x4f0|                     c4 a9 07                  |       ...      |          timeMillis: "00:01:00.002" (60002) 0x4f7-0x4f9.7 (3)
0x4f0|                              e4 5d            |          .]    |          timeMicros: "00:00:00.006002" (6002) 0x4fa-0x4fb.7 (2)
0x4f0|                                    c4 b9 ea d1|            ....|          timestampMillis: "2000-01-03T00:01:00.002Z" (946857660002) 0x4fc-0x501.7 (6)
0x500|8e 37                                          |.7              |
0x500|      e4 dd b5 ee ae ca ae 03                  |  ........      |          timestampMicros: "2000-01-03T00:00:00.006002Z" (946857600006002) 0x502-0x509.7 (8)
     |                                               |                |        [3]{}: datum 0x50a-0x554.7 (75)
     |                                               |                |          null: null 0x50a-NA (0)
0x500|                              00               |          .     |          boolean: false 0x50a-0x50a.7 (1)
0x500|                                 08            |           .    |          int: 4 0x50b-0x50b.7 (1)
0x500|                                    44         |            D   |          long: 34 0x50c-0x50c.7 (1)
0x500|                                       00 00 80|             ...|          float: 4.600602988224807e-41 0x50d-0x510.7 (4)
0x510|3f                                             |?               |
0x510|   49 92 24 49 92 24 f9 3f                     | I.$I.$.?       |          double: 2.5892767407305293e+46 0x511-0x518.7 (8)
     |                                               |                |          bytes{}: 0x519-0x51b.7 (3)
0x510|                           04                  |         .      |            length: 2 0x519-0x519.7 (1)
0x510|                              31 30            |          10    |            data: raw bits 0x51a-0x51b.7 (2)
     |                                               |                |          string{}: 0x51c-0x51d.7 (2)
0x510|                                    02         |            .   |            length: 1 0x51c-0x51c.7 (1)
0x510|                                       39      |             9  |            data: "9" 0x51d-0x51d.7 (1)
0x510|                                          00   |              . |          enum: "A" (0) 0x51e-0x51e.7 (1)
     |                                               |                |          array[0:1]: 0x51f-0x51f.7 (1)
     |                                               |                |            [0]{}: block 0x51f-0x51f.7 (1)
0x510|                                             00|               .|              count: 0 0x51f-0x51f.7 (1)
     |                                               |                |              data[0:0]: 0x520-NA (0)
     |                                               |                |          map[0:2]: 0x520-0x52d.7 (14)
     |                                               |                |            [0]{}: block 0x520-0x52c.7 (13)
0x520|06                                             |.               |              count: 3 0x520-0x520.7 (1)
     |                                               |                |              data[0:3]: 0x521-0x52c.7 (12)
     |                                               |                |                [0]{}: entry 0x521-0x524.7 (4)
     |                                               |                |                  key{}: 0x521-0x522.7 (2)
0x520|   02                                          | .              |                    length: 1 0x521-0x521.7 (1)
0x520|      62                                       |  b             |                    data: "b" 0x522-0x522.7 (1)
     |                                               |                |                  value{}: 0x523-0x524.7 (2)
0x520|         02                                    |   .            |                    length: 1 0x523-0x523.7 (1)
0x520|            42                                 |    B           |                    data: "B" 0x524-0x524.7 (1)
     |                                               |                |                [1]{}: entry 0x525-0x528.7 (4)
     |                                               |                |                  key{}: 0x525-0x526.7 (2)
0x520|               02                              |     .          |                    length: 1 0x525-0x525.7 (1)
0x520|                  63                           |      c         |                    data: "c" 0x526-0x526.7 (1)
     |                                               |                |                  value{}: 0x527-0x528.7 (2)
0x520|                     02                        |       .        |                    length: 1 0x527-0x527.7 (1)
0x520|                        43                     |        C       |                    data: "C" 0x528-0x528.7 (1)
     |                                               |                |                [2]{}: entry 0x529-0x52c.7 (4)
     |                                               |                |                  key{}: 0x529-0x52a.7 (2)
0x520|                           02                  |         .      |                    length: 1 0x529-0x529.7 (1)
0x520|                              61               |          a     |                    data: "a" 0x52a-0x52a.7 (1)
     |                                               |                |                  value{}: 0x52b-0x52c.7 (2)
0x520|                                 02            |           .    |                    length: 1 0x52b-0x52b.7 (1)
0x520|                                    41         |            A   |                    data: "A" 0x52c-0x52c.7 (1)
     |                                               |                |            [1]{}: block 0x52d-0x52d.7 (1)
0x520|                                       00      |             .  |              count: 0 0x52d-0x52d.7 (1)
     |                                               |                |              data[0:0]: 0x52e-NA (0)
     |                                               |                |          union{}: 0x52e-0x530.7 (3)
0x520|                                          02   |              . |            type: 1 0x52e-0x52e.7 (1)
     |                                               |                |            value{}: 0x52f-0x530.7 (2)
0x520|                                             02|               .|              length: 1 0x52f-0x52f.7 (1)
0x530|33                                             |3               |              data: "3" 0x530-0x530.7 (1)
0x530|   00 01 02 03 04 05 06 07 08 09 0a 0b 0c 0d 0e| ...............|          fixed: raw bits 0x531-0x540.7 (16)
0x540|0f                                             |.               |
0x540|   0a                                          | .              |          date: "1970-01-06" (5) 0x541-0x541.7 (1)
0x540|      c6 a9 07                                 |  ...           |          timeMillis: "00:01:00.003" (60003) 0x542-0x544.7 (3)
0x540|               d9 5d                           |     .]         |          timeMicros: "23:59:59.994003" (-5997) 0x545-0x546.7 (2)
0x540|                     c6 a9 9d a4 8f 37         |       .....7   |          timestampMillis: "2000-01-04T00:01:00.003Z" (946944060003) 0x547-0x54c.7 (6)
0x540|                                       a6 a2 ef|             ...|          timestampMicros: "2000-01-03T23:59:59.994003Z" (946943999994003) 0x54d-0x554.7 (8)
0x550|cb b2 cf ae 03                                 |.....           |
     |                                               |                |        [4]{}: datum 0x555-0x5a3.7 (79)
     |                                               |                |          null: null 0x555-NA (0)
0x550|               01                              |     .          |          boolean: true 0x555-0x555.7 (1)
0x550|                  06                           |      .         |          int: 3 0x556-0x556.7 (1)
0x550|                     4a                        |       J        |          long: 37 0x557-0x557.7 (1)
0x550|                        ab aa aa 3f            |        ...?    |          float: -1.2126479291205139e-12 0x558-0x55b.7 (4)
0x550|                                    db b6 6d db|            ..m.|          double: -6.368110545752354e+133 0x55c-0x563.7 (8)
0x560|b6 6d fb 3f                                    |.m.?            |
     |                                               |                |          bytes{}: 0x564-0x566.7 (3)
0x560|            04                                 |    .           |            length: 2 0x564-0x564.7 (1)
0x560|               31 33                           |     13         |            data: raw bits 0x565-0x566.7 (2)
     |                                               |                |          string{}: 0x567-0x569.7 (3)
0x560|                     04                        |       .        |            length: 2 0x567-0x567.7 (1)
0x560|                        31 34                  |        14      |            data: "14" 0x568-0x569.7 (2)
0x560|                              02               |          .     |          enum: "B" (1) 0x56a-0x56a.7 (1)
     |                                               |                |          array[0:2]: 0x56b-0x56e.7 (4)
     |                                               |                |            [0]{}: block 0x56b-0x56d.7 (3)
0x560|                                 02            |           .    |              count: 1 0x56b-0x56b.7 (1)
     |                                               |                |              data[0:1]: 0x56c-0x56d.7 (2)
     |                                               |                |                [0]{}: entry 0x56c-0x56d.7 (2)
0x560|                                    02         |            .   |                  length: 1 0x56c-0x56c.7 (1)
0x560|                                       61      |             a  |                  data: "a" 0x56d-0x56d.7 (1)
     |                                               |                |            [1]{}: block 0x56e-0x56e.7 (1)
0x560|                                          00   |              . |              count: 0 0x56e-0x56e.7 (1)
     |                                               |                |              data[0:0]: 0x56f-NA (0)
     |                                               |                |          map[0:2]: 0x56f-0x57c.7 (14)
     |                                               |                |            [0]{}: block 0x56f-0x57b.7 (13)
0x560|                                             06|               .|              count: 3 0x56f-0x56f.7 (1)
     |                                               |                |              data[0:3]: 0x570-0x57b.7 (12)
     |                                               |                |                [0]{}: entry 0x570-0x573.7 (4)
     |                                               |                |                  key{}: 0x570-0x571.7 (2)
0x570|02                                             |.               |                    length: 1 0x570-0x570.7 (1)
0x570|   61                                          | a              |                    data: "a" 0x571-0x571.7 (1)
     |                                               |                |                  value{}: 0x572-0x573.7 (2)
0x570|      02                                       |  .             |                    length: 1 0x572-0x572.7 (1)
0x570|         41                                    |   A            |                    data: "A" 0x573-0x573.7 (1)
     |                                               |                |                [1]{}: entry 0x574-0x577.7 (4)
     |                                               |                |                  key{}: 0x574-0x575.7 (2)
0x570|            02                                 |    .           |                    length: 1 0x574-0x574.7 (1)
0x570|               62                              |     b          |                    data: "b" 0x575-0x575.7 (1)
     |                                               |                |                  value{}: 0x576-0x577.7 (2)
0x570|                  02                           |      .         |                    length: 1 0x576-0x576.7 (1)
0x570|                     42                        |       B        |                    data: "B" 0x577-0x577.7 (1)
     |                                               |                |                [2]{}: entry 0x578-0x57b.7 (4)
     |                                               |                |                  key{}: 0x578-0x579.7 (2)
0x570|                        02                     |        .       |                    length: 1 0x578-0x578.7 (1)
0x570|                           63                  |         c      |                    data: "c" 0x579-0x579.7 (1)
     |                                               |                |                  value{}: 0x57a-0x57b.7 (2)
0x570|                              02               |          .     |                    length: 1 0x57a-0x57a.7 (1)
0x570|                                 43            |           C    |                    data: "C" 0x57b-0x57b.7 (1)
     |                                               |                |            [1]{}: block 0x57c-0x57c.7 (1)
0x570|                                    00         |            .   |              count: 0 0x57c-0x57c.7 (1)
     |                                               |                |              data[0:0]: 0x57d-NA (0)
     |                                               |                |          union{}: 0x57d-0x57f.7 (3)
0x570|                                       02      |             .  |            type: 1 0x57d-0x57d.7 (1)
     |                                               |                |            value{}: 0x57e-0x57f.7 (2)
0x570|                                          02   |              . |              length: 1 0x57e-0x57e.7 (1)
0x570|                                             34|               4|              data: "4" 0x57f-0x57f.7 (1)
0x580|00 01 02 03 04 05 06 07 08 09 0a 0b 0c 0d 0e 0f|................|          fixed: raw bits 0x580-0x58f.7 (16)
0x590|04                                             |.               |          date: "1970-01-03" (2) 0x590-0x590.7 (1)
0x590|   c8 a9 07                                    | ...            |          timeMillis: "00:01:00.004" (60004) 0x591-0x593.7 (3)
0x590|            e8 5d                              |    .]          |          timeMicros: "00:00:00.006004" (6004) 0x594-0x595.7 (2)
0x590|                  c8 99 d0 f6 8f 37            |      .....7    |          timestampMillis: "2000-01-05T00:01:00.004Z" (947030460004) 0x596-0x59b.7 (6)
0x590|                                    e8 dd ab a9|            ....|          timestampMicros: "2000-01-05T00:00:00.006004Z" (947030400006004) 0x59c-0x5a3.7 (8)
0x5a0|b6 d4 ae 03                                    |....            |
     |                                               |                |        [5]{}: datum 0x5a4-0x5f4.7 (81)
     |                                               |                |          null: null 0x5a4-NA (0)
0x5a0|            00                                 |    .           |          boolean: false 0x5a4-0x5a4.7 (1)
0x5a0|               04                              |     .          |          int: 2 0x5a5-0x5a5.7 (1)
0x5a0|                  48                           |      H         |          long: 36 0x5a6-0x5a6.7 (1)
0x5a0|                     55 55 d5 3f               |       UU.?     |          float: 1.4694491357184e+13 0x5a7-0x5aa.7 (4)
0x5a0|                                 6e db b6 6d db|           n..m.|          double: 1.0257800654339733e+226 0x5ab-0x5b2.7 (8)
0x5b0|b6 fd 3f                                       |..?             |
     |                                               |                |          bytes{}: 0x5b3-0x5b5.7 (3)
0x5b0|         04                                    |   .            |            length: 2 0x5b3-0x5b3.7 (1)
0x5b0|            31 32                              |    12          |            data: raw bits 0x5b4-0x5b5.7 (2)
     |                                               |                |          string{}: 0x5b6-0x5b8.7 (3)
0x5b0|                  04                           |      .         |            length: 2 0x5b6-0x5b6.7 (1)
0x5b0|                     31 35                     |       15       |            data: "15" 0x5b7-0x5b8.7 (2)
0x5b0|                           04                  |         .      |          enum: "C" (2) 0x5b9-0x5b9.7 (1)
     |                                               |                |          array[0:2]: 0x5ba-0x5bf.7 (6)
     |                                               |                |            [0]{}: block 0x5ba-0x5be.7 (5)
0x5b0|                              04               |          .     |              count: 2 0x5ba-0x5ba.7 (1)
     |                                               |                |              data[0:2]: 0x5bb-0x5be.7 (4)
     |                                               |                |                [0]{}: entry 0x5bb-0x5bc.7 (2)
0x5b0|                                 02            |           .    |                  length: 1 0x5bb-0x5bb.7 (1)
0x5b0|                                    61         |            a   |                  data: "a" 0x5bc-0x5bc.7 (1)
     |                                               |                |                [1]{}: entry 0x5bd-0x5be.7 (2)
0x5b0|                                       02      |             .  |                  length: 1 0x5bd-0x5bd.7 (1)
0x5b0|                                          62   |              b |                  data: "b" 0x5be-0x5be.7 (1)
     |                                               |                |            [1]{}: block 0x5bf-0x5bf.7 (1)
0x5b0|                                             00|               .|              count: 0 0x5bf-0x5bf.7 (1)
     |                                               |                |              data[0:0]: 0x5c0-NA (0)
     |                                               |                |          map[0:2]: 0x5c0-0x5cd.7 (14)
     |                                               |                |            [0]{}: block 0x5c0-0x5cc.7 (13)
0x5c0|06                                             |.               |              count: 3 0x5c0-0x5c0.7 (1)
     |                                               |                |              data[0:3]: 0x5c1-0x5cc.7 (12)
     |                                               |                |                [0]{}: entry 0x5c1-0x5c4.7 (4)
     |                                               |                |                  key{}: 0x5c1-0x5c2.7 (2)
0x5c0|   02                                          | .              |                    length: 1 0x5c1-0x5c1.7 (1)
0x5c0|      61                                       |  a             |                    data: "a" 0x5c2-0x5c2.7 (1)
     |                                               |                |                  value{}: 0x5c3-0x5c4.7 (2)
0x5c0|         02                                    |   .            |                    length: 1 0x5c3-0x5c3.7 (1)
0x5c0|            41                                 |    A           |                    data: "A" 0x5c4-0x5c4.7 (1)
     |                                               |                |                [1]{}: entry 0x5c5-0x5c8.7 (4)
     |                                               |                |                  key{}: 0x5c5-0x5c6.7 (2)
0x5c0|               02                              |     .          |                    length: 1 0x5c5-0x5c5.7 (1)
0x5c0|                  62                           |      b         |                    data: "b" 0x5c6-0x5c6.7 (1)
     |                                               |                |                  value{}: 0x5c7-0x5c8.7 (2)
0x5c0|                     02                        |       .        |                    length: 1 0x5c7-0x5c7.7 (1)
0x5c0|                        42                     |        B       |                    data: "B" 0x5c8-0x5c8.7 (1)
     |                                               |                |                [2]{}: entry 0x5c9-0x5cc.7 (4)
     |                                               |                |                  key{}: 0x5c9-0x5ca.7 (2)
0x5c0|                           02                  |         .      |                    length: 1 0x5c9-0x5c9.7 (1)
0x5c0|                              63               |          c     |                    data: "c" 0x5ca-0x5ca.7 (1)
     |                                               |                |                  value{}: 0x5cb-0x5cc.7 (2)
0x5c0|                                 02            |           .    |                    length: 1 0x5cb-0x5cb.7 (1)
0x5c0|                                    43         |            C   |                    data: "C" 0x5cc-0x5cc.7 (1)
     |                                               |                |            [1]{}: block 0x5cd-0x5cd.7 (1)
0x5c0|                                       00      |             .  |              count: 0 0x5cd-0x5cd.7 (1)
     |                                               |                |              data[0:0]: 0x5ce-NA (0)
     |                                               |                |          union{}: 0x5ce-0x5d0.7 (3)
0x5c0|                                          02   |              . |            type: 1 0x5ce-0x5ce.7 (1)
     |                                               |                |            value{}: 0x5cf-0x5d0.7 (2)
0x5c0|                                             02|               .|              length: 1 0x5cf-0x5cf.7 (1)
0x5d0|35                                             |5               |              data: "5" 0x5d0-0x5d0.7 (1)
0x5d0|   00 01 02 03 04 05 06 07 08 09 0a 0b 0c 0d 0e| ...............|          fixed: raw bits 0x5d1-0x5e0.7 (16)
0x5e0|0f                                             |.               |
0x5e0|   06                                          | .              |          date: "1970-01-04" (3) 0x5e1-0x5e1.7 (1)
0x5e0|      ca a9 07                                 |  ...           |          timeMillis: "00:01:00.005" (60005) 0x5e2-0x5e4.7 (3)
0x5e0|               d5 5d                           |     .]         |          timeMicros: "23:59:59.994005" (-5995) 0x5e5-0x5e6.7 (2)
0x5e0|                     ca 89 83 c9 90 37         |       .....7   |          timestampMillis: "2000-01-06T00:01:00.005Z" (947116860005) 0x5e7-0x5ec.7 (6)
0x5e0|                                       aa a2 e5|             ...|          timestampMicros: "2000-01-05T23:59:59.994005Z" (947116799994005) 0x5ed-0x5f4.7 (8)
0x5f0|86 ba d9 ae 03                                 |.....           |
     |                                               |                |        [6]{}: datum 0x5f5-0x640.7 (76)
     |                                               |                |          null: null 0x5f5-NA (0)
0x5f0|               01                              |     .          |          boolean: true 0x5f5-0x5f5.7 (1)
0x5f0|                  02                           |      .         |          int: 1 0x5f6-0x5f6.7 (1)
0x5f0|                     4e                        |       N        |          long: 39 0x5f7-0x5f7.7 (1)
0x5f0|                        00 00 00 40            |        ...@    |          float: 8.96831017167883e-44 0x5f8-0x5fb.7 (4)
0x5f0|                                    00 00 00 00|            ....|          double: 3.16e-322 0x5fc-0x603.7 (8)
0x600|00 00 00 40                                    |...@            |
     |                                               |                |          bytes{}: 0x604-0x606.7 (3)
0x600|            04                                 |    .           |            length: 2 0x604-0x604.7 (1)
0x600|               31 35                           |     15         |            data: raw bits 0x605-0x606.7 (2)
     |                                               |                |          string{}: 0x607-0x609.7 (3)
0x600|                     04                        |       .        |            length: 2 0x607-0x607.7 (1)
0x600|                        31 32                  |        12      |            data: "12" 0x608-0x609.7 (2)
0x600|                              00               |          .     |          enum: "A" (0) 0x60a-0x60a.7 (1)
     |                                               |                |          array[0:1]: 0x60b-0x60b.7 (1)
     |                                               |                |            [0]{}: block 0x60b-0x60b.7 (1)
0x600|                                 00            |           .    |              count: 0 0x60b-0x60b.7 (1)
     |                                               |                |              data[0:0]: 0x60c-NA (0)
     |                                               |                |          map[0:2]: 0x60c-0x619.7 (14)
     |                                               |                |            [0]{}: block 0x60c-0x618.7 (13)
0x600|                                    06         |            .   |              count: 3 0x60c-0x60c.7 (1)
     |                                               |                |              data[0:3]: 0x60d-0x618.7 (12)
     |                                               |                |                [0]{}: entry 0x60d-0x610.7 (4)
     |                                               |                |                  key{}: 0x60d-0x60e.7 (2)
0x600|                                       02      |             .  |                    length: 1 0x60d-0x60d.7 (1)
0x600|                                          61   |              a |                    data: "a" 0x60e-0x60e.7 (1)
     |                                               |                |                  value{}: 0x60f-0x610.7 (2)
0x600|                                             02|               .|                    length: 1 0x60f-0x60f.7 (1)
0x610|41                                             |A               |                    data: "A" 0x610-0x610.7 (1)
     |                                               |                |                [1]{}: entry 0x611-0x614.7 (4)
     |                                               |                |                  key{}: 0x611-0x612.7 (2)
0x610|   02                                          | .              |                    length: 1 0x611-0x611.7 (1)
0x610|      62                                       |  b             |                    data: "b" 0x612-0x612.7 (1)
     |                                               |                |                  value{}: 0x613-0x614.7 (2)
0x610|         02                                    |   .            |                    length: 1 0x613-0x613.7 (1)
0x610|            42                                 |    B           |                    data: "B" 0x614-0x614.7 (1)
     |                                               |                |                [2]{}: entry 0x615-0x618.7 (4)
     |                                               |                |                  key{}: 0x615-0x616.7 (2)
0x610|               02                              |     .          |                    length: 1 0x615-0x615.7 (1)
0x610|                  63                           |      c         |                    data: "c" 0x616-0x616.7 (1)
     |                                               |                |                  value{}: 0x617-0x618.7 (2)
0x610|                     02                        |       .        |                    length: 1 0x617-0x617.7 (1)
0x610|                        43                     |        C       |                    data: "C" 0x618-0x618.7 (1)
     |                                               |                |            [1]{}: block 0x619-0x619.7 (1)
0x610|                           00                  |         .      |              count: 0 0x619-0x619.7 (1)
     |                                               |                |              data[0:0]: 0x61a-NA (0)
     |                                               |                |          union{}: 0x61a-0x61c.7 (3)
0x610|                              02               |          .     |            type: 1 0x61a-0x61a.7 (1)
     |                                               |                |            value{}: 0x61b-0x61c.7 (2)
0x610|                                 02            |           .    |              length: 1 0x61b-0x61b.7 (1)
0x610|                                    36         |            6   |              data: "6" 0x61c-0x61c.7 (1)
0x610|                                       00 01 02|             ...|          fixed: raw bits 0x61d-0x62c.7 (16)
0x620|03 04 05 06 07 08 09 0a 0b 0c 0d 0e 0f         |.............   |
0x620|                                       00      |             .  |          date: "1970-01-01" (0) 0x62d-0x62d.7 (1)
0x620|                                          cc a9|              ..|          timeMillis: "00:01:00.006" (60006) 0x62e-0x630.7 (3)
0x630|07                                             |.               |
0x630|   ec 5d                                       | .]             |          timeMicros: "00:00:00.006006" (6006) 0x631-0x632.7 (2)
0x630|         cc f9 b5 9b 91 37                     |   .....7       |          timestampMillis: "2000-01-07T00:01:00.006Z" (947203260006) 0x633-0x638.7 (6)
0x630|                           ec dd a1 e4 bd de ae|         .......|          timestampMicros: "2000-01-07T00:00:00.006006Z" (947203200006006) 0x639-0x640.7 (8)
0x640|03                                             |.               |
     |                                               |                |        [7]{}: datum 0x641-0x68f.7 (79)
     |                                               |                |          null: null 0x641-NA (0)
0x640|   00                                          | .              |          boolean: false 0x641-0x641.7 (1)
0x640|      00                                       |  .             |          int: 0 0x642-0x642.7 (1)
0x640|         4c                                    |   L            |          long: 38 0x643-0x643.7 (1)
0x640|            55 55 15 40                        |    UU.@        |          float: 1.4642952798208e+13 0x644-0x647.7 (4)
0x640|                        49 92 24 49 92 24 01 40|        I.$I.$.@|          double: 2.5892767406983375e+46 0x648-0x64f.7 (8)
     |                                               |                |          bytes{}: 0x650-0x652.7 (3)
0x650|04                                             |.               |            length: 2 0x650-0x650.7 (1)
0x650|   31 34                                       | 14             |            data: raw bits 0x651-0x652.7 (2)
     |                                               |                |          string{}: 0x653-0x655.7 (3)
0x650|         04                                    |   .            |            length: 2 0x653-0x653.7 (1)
0x650|            31 33                              |    13          |            data: "13" 0x654-0x655.7 (2)
0x650|                  02                           |      .         |          enum: "B" (1) 0x656-0x656.7 (1)
     |                                               |                |          array[0:2]: 0x657-0x65a.7 (4)
     |                                               |                |            [0]{}: block 0x657-0x659.7 (3)
0x650|                     02                        |       .        |              count: 1 0x657-0x657.7 (1)
     |                                               |                |              data[0:1]: 0x658-0x659.7 (2)
     |                                               |                |                [0]{}: entry 0x658-0x659.7 (2)
0x650|                        02                     |        .       |                  length: 1 0x658-0x658.7 (1)
0x650|                           61                  |         a      |                  data: "a" 0x659-0x659.7 (1)
     |                                               |                |            [1]{}: block 0x65a-0x65a.7 (1)
0x650|                              00               |          .     |              count: 0 0x65a-0x65a.7 (1)
     |                                               |                |              data[0:0]: 0x65b-NA (0)
     |                                               |                |          map[0:2]: 0x65b-0x668.7 (14)
     |                                               |                |            [0]{}: block 0x65b-0x667.7 (13)
0x650|                                 06            |           .    |              count: 3 0x65b-0x65b.7 (1)
     |                                               |                |              data[0:3]: 0x65c-0x667.7 (12)
     |                                               |                |                [0]{}: entry 0x65c-0x65f.7 (4)
     |                                               |                |                  key{}: 0x65c-0x65d.7 (2)
0x650|                                    02         |            .   |                    length: 1 0x65c-0x65c.7 (1)
0x650|                                       61      |             a  |                    data: "a" 0x65d-0x65d.7 (1)
     |                                               |                |                  value{}: 0x65e-0x65f.7 (2)
0x650|                                          02   |              . |                    length: 1 0x65e-0x65e.7 (1)
0x650|                                             41|               A|                    data: "A" 0x65f-0x65f.7 (1)
     |                                               |                |                [1]{}: entry 0x660-0x663.7 (4)
     |                                               |                |                  key{}: 0x660-0x661.7 (2)
0x660|02                                             |.               |                    length: 1 0x660-0x660.7 (1)
0x660|   62                                          | b              |                    data: "b" 0x661-0x661.7 (1)
     |                                               |                |                  value{}: 0x662-0x663.7 (2)
0x660|      02                                       |  .             |                    length: 1 0x662-0x662.7 (1)
0x660|         42                                    |   B            |                    data: "B" 0x663-0x663.7 (1)
     |                                               |                |                [2]{}: entry 0x664-0x667.7 (4)
     |                                               |                |                  key{}: 0x664-0x665.7 (2)
0x660|            02                                 |    .           |                    length: 1 0x664-0x664.7 (1)
0x660|               63                              |     c          |                    data: "c" 0x665-0x665.7 (1)
     |                                               |                |                  value{}: 0x666-0x667.7 (2)
0x660|                  02                           |      .         |                    length: 1 0x666-0x666.7 (1)
0x660|                     43                        |       C        |                    data: "C" 0x667-0x667.7 (1)
     |                                               |                |            [1]{}: block 0x668-0x668.7 (1)
0x660|                        00                     |        .       |              count: 0 0x668-0x668.7 (1)
     |                                               |                |              data[0:0]: 0x669-NA (0)
     |                                               |                |          union{}: 0x669-0x66b.7 (3)
0x660|                           02                  |         .      |            type: 1 0x669-0x669.7 (1)
     |                                               |                |            value{}: 0x66a-0x66b.7 (2)
0x660|                              02               |          .     |              length: 1 0x66a-0x66a.7 (1)
0x660|                                 37            |           7    |              data: "7" 0x66b-0x66b.7 (1)
0x660|                                    00 01 02 03|            ....|          fixed: raw bits 0x66c-0x67b.7 (16)
0x670|04 05 06 07 08 09 0a 0b 0c 0d 0e 0f            |............    |
0x670|                                    02         |            .   |          date: "1970-01-02" (1) 0x67c-0x67c.7 (1)
0x670|                                       ce a9 07|             ...|          timeMillis: "00:01:00.007" (60007) 0x67d-0x67f.7 (3)
0x680|d1 5d                                          |.]              |          timeMicros: "23:59:59.994007" (-5993) 0x680-0x681.7 (2)
0x680|      ce e9 e8 ed 91 37                        |  .....7        |          timestampMillis: "2000-01-08T00:01:00.007Z" (947289660007) 0x682-0x687.7 (6)
0x680|                        ae a2 db c1 c1 e3 ae 03|        ........|          timestampMicros: "2000-01-07T23:59:59.994007Z" (947289599994007) 0x688-0x68f.7 (8)
     |                                               |                |        [8]{}: datum 0x690-0x6de.7 (79)
     |                                               |                |          null: null 0x690-NA (0)
0x690|01                                             |.               |          boolean: true 0x690-0x690.7 (1)
0x690|   1e                                          | .              |          int: 15 0x691-0x691.7 (1)
0x690|      52                                       |  R             |          long: 41 0x692-0x692.7 (1)
0x690|         ab aa 2a 40                           |   ..*@         |          float: -1.2090953238619306e-12 0x693-0x696.7 (4)
0x690|                     00 00 00 00 00 00 00 00   |       ........ |          double: 0 0x697-0x69e.7 (8)
     |                                               |                |          bytes{}: 0x69f-0x6a0.7 (2)
0x690|                                             02|               .|            length: 1 0x69f-0x69f.7 (1)
0x6a0|31                                             |1               |            data: raw bits 0x6a0-0x6a0.7 (1)
     |                                               |                |          string{}: 0x6a1-0x6a2.7 (2)
0x6a0|   02                                          | .              |            length: 1 0x6a1-0x6a1.7 (1)
0x6a0|      32                                       |  2             |            data: "2" 0x6a2-0x6a2.7 (1)
0x6a0|         04                                    |   .            |          enum: "C" (2) 0x6a3-0x6a3.7 (1)
     |                                               |                |          array[0:2]: 0x6a4-0x6a9.7 (6)
     |                                               |                |            [0]{}: block 0x6a4-0x6a8.7 (5)
0x6a0|            04                                 |    .           |              count: 2 0x6a4-0x6a4.7 (1)
     |                                               |                |              data[0:2]: 0x6a5-0x6a8.7 (4)
     |                                               |                |                [0]{}: entry 0x6a5-0x6a6.7 (2)
0x6a0|               02                              |     .          |                  length: 1 0x6a5-0x6a5.7 (1)
0x6a0|                  61                           |      a         |                  data: "a" 0x6a6-0x6a6.7 (1)
     |                                               |                |                [1]{}: entry 0x6a7-0x6a8.7 (2)
0x6a0|                     02                        |       .        |                  length: 1 0x6a7-0x6a7.7 (1)
0x6a0|                        62                     |        b       |                  data: "b" 0x6a8-0x6a8.7 (1)
     |                                               |                |            [1]{}: block 0x6a9-0x6a9.7 (1)
0x6a0|                           00                  |         .      |              count: 0 0x6a9-0x6a9.7 (1)
     |                                               |                |              data[0:0]: 0x6aa-NA (0)
     |                                               |                |          map[0:2]: 0x6aa-0x6b7.7 (14)
     |                                               |                |            [0]{}: block 0x6aa-0x6b6.7 (13)
0x6a0|                              06               |          .     |              count: 3 0x6aa-0x6aa.7 (1)
     |                                               |                |              data[0:3]: 0x6ab-0x6b6.7 (12)
     |                                               |                |                [0]{}: entry 0x6ab-0x6ae.7 (4)
     |                                               |                |                  key{}: 0x6ab-0x6ac.7 (2)
0x6a0|                                 02            |           .    |                    length: 1 0x6ab-0x6ab.7 (1)
0x6a0|                                    63         |            c   |                    data: "c" 0x6ac-0x6ac.7 (1)
     |                                               |                |                  value{}: 0x6ad-0x6ae.7 (2)
0x6a0|                                       02      |             .  |                    length: 1 0x6ad-0x6ad.7 (1)
0x6a0|                                          43   |              C |                    data: "C" 0x6ae-0x6ae.7 (1)
     |                                               |                |                [1]{}: entry 0x6af-0x6b2.7 (4)
     |                                               |                |                  key{}: 0x6af-0x6b0.7 (2)
0x6a0|                                             02|               .|                    length: 1 0x6af-0x6af.7 (1)
0x6b0|61                                             |a               |                    data: "a" 0x6b0-0x6b0.7 (1)
     |                                               |                |                  value{}: 0x6b1-0x6b2.7 (2)
0x6b0|   02                                          | .              |                    length: 1 0x6b1-0x6b1.7 (1)
0x6b0|      41                                       |  A             |                    data: "A" 0x6b2-0x6b2.7 (1)
     |                                               |                |                [2]{}: entry 0x6b3-0x6b6.7 (4)
     |                                               |                |                  key{}: 0x6b3-0x6b4.7 (2)
0x6b0|         02                                    |   .            |                    length: 1 0x6b3-0x6b3.7 (1)
0x6b0|            62                                 |    b           |                    data: "b" 0x6b4-0x6b4.7 (1)
     |                                               |                |                  value{}: 0x6b5-0x6b6.7 (2)
0x6b0|               02                              |     .          |                    length: 1 0x6b5-0x6b5.7 (1)
0x6b0|                  42                           |      B         |                    data: "B" 0x6b6-0x6b6.7 (1)
     |                                               |                |            [1]{}: block 0x6b7-0x6b7.7 (1)
0x6b0|                     00                        |       .        |              count: 0 0x6b7-0x6b7.7 (1)
     |                                               |                |              data[0:0]: 0x6b8-NA (0)
     |                                               |                |          union{}: 0x6b8-0x6ba.7 (3)
0x6b0|                        02                     |        .       |            type: 1 0x6b8-0x6b8.7 (1)
     |                                               |                |            value{}: 0x6b9-0x6ba.7 (2)
0x6b0|                           02                  |         .      |              length: 1 0x6b9-0x6b9.7 (1)
0x6b0|                              38               |          8     |              data: "8" 0x6ba-0x6ba.7 (1)
0x6b0|                                 00 01 02 03 04|           .....|          fixed: raw bits 0x6bb-0x6ca.7 (16)
0x6c0|05 06 07 08 09 0a 0b 0c 0d 0e 0f               |...........     |
0x6c0|                                 1c            |           .    |          date: "1970-01-15" (14) 0x6cb-0x6cb.7 (1)
0x6c0|                                    d0 a9 07   |            ... |          timeMillis: "00:01:00.008" (60008) 0x6cc-0x6ce.7 (3)
0x6c0|                                             f0|               .|          timeMicros: "00:00:00.006008" (6008) 0x6cf-0x6d0.7 (2)
0x6d0|5d                                             |]               |
0x6d0|   d0 d9 9b c0 92 37                           | .....7         |          timestampMillis: "2000-01-09T00:01:00.008Z" (947376060008) 0x6d1-0x6d6.7 (6)
0x6d0|                     f0 dd 97 9f c5 e8 ae 03   |       ........ |          timestampMicros: "2000-01-09T00:00:00.006008Z" (947376000006008) 0x6d7-0x6de.7 (8)
     |                                               |                |        [9]{}: datum 0x6df-0x728.7 (74)
     |                                               |                |          null: null 0x6df-NA (0)
0x6d0|                                             00|               .|          boolean: false 0x6df-0x6df.7 (1)
0x6e0|1c                                             |.               |          int: 14 0x6e0-0x6e0.7 (1)
0x6e0|   50                                          | P              |          long: 40 0x6e1-0x6e1.7 (1)
0x6e0|      00 00 40 40                              |  ..@@          |          float: 2.304855714121459e-41 0x6e2-0x6e5.7 (4)
0x6e0|                  92 24 49 92 24 49 c2 3f      |      .$I.$I.?  |          double: -2.80620434202585e-221 0x6e6-0x6ed.7 (8)
     |                                               |                |          bytes{}: 0x6ee-0x6ef.7 (2)
0x6e0|                                          02   |              . |            length: 1 0x6ee-0x6ee.7 (1)
0x6e0|                                             30|               0|            data: raw bits 0x6ef-0x6ef.7 (1)
     |                                               |                |          string{}: 0x6f0-0x6f1.7 (2)
0x6f0|02                                             |.               |            length: 1 0x6f0-0x6f0.7 (1)
0x6f0|   33                                          | 3              |            data: "3" 0x6f1-0x6f1.7 (1)
0x6f0|      00                                       |  .             |          enum: "A" (0) 0x6f2-0x6f2.7 (1)
     |                                               |                |          array[0:1]: 0x6f3-0x6f3.7 (1)
     |                                               |                |            [0]{}: block 0x6f3-0x6f3.7 (1)
0x6f0|         00                                    |   .            |              count: 0 0x6f3-0x6f3.7 (1)
     |                                               |                |              data[0:0]: 0x6f4-NA (0)
     |                                               |                |          map[0:2]: 0x6f4-0x701.7 (14)
     |                                               |                |            [0]{}: block 0x6f4-0x700.7 (13)
0x6f0|            06                                 |    .           |              count: 3 0x6f4-0x6f4.7 (1)
     |                                               |                |              data[0:3]: 0x6f5-0x700.7 (12)
     |                                               |                |                [0]{}: entry 0x6f5-0x6f8.7 (4)
     |                                               |                |                  key{}: 0x6f5-0x6f6.7 (2)
0x6f0|               02                              |     .          |                    length: 1 0x6f5-0x6f5.7 (1)
0x6f0|                  61                           |      a         |                    data: "a" 0x6f6-0x6f6.7 (1)
     |                                               |                |                  value{}: 0x6f7-0x6f8.7 (2)
0x6f0|                     02                        |       .        |                    length: 1 0x6f7-0x6f7.7 (1)
0x6f0|                        41                     |        A       |                    data: "A" 0x6f8-0x6f8.7 (1)
     |                                               |                |                [1]{}: entry 0x6f9-0x6fc.7 (4)
     |                                               |                |                  key{}: 0x6f9-0x6fa.7 (2)
0x6f0|                           02                  |         .      |                    length: 1 0x6f9-0x6f9.7 (1)
0x6f0|                              62               |          b     |                    data: "b" 0x6fa-0x6fa.7 (1)
     |                                               |                |                  value{}: 0x6fb-0x6fc.7 (2)
0x6f0|                                 02            |           .    |                    length: 1 0x6fb-0x6fb.7 (1)
0x6f0|                                    42         |            B   |                    data: "B" 0x6fc-0x6fc.7 (1)
     |                                               |                |                [2]{}: entry 0x6fd-0x700.7 (4)
     |                                               |                |                  key{}: 0x6fd-0x6fe.7 (2)
0x6f0|                                       02      |             .  |                    length: 1 0x6fd-0x6fd.7 (1)
0x6f0|                                          63   |              c |                    data: "c" 0x6fe-0x6fe.7 (1)
     |                                               |                |                  value{}: 0x6ff-0x700.7 (2)
0x6f0|                                             02|               .|                    length: 1 0x6ff-0x6ff.7 (1)
0x700|43                                             |C               |                    data: "C" 0x700-0x700.7 (1)
     |                                               |                |            [1]{}: block 0x701-0x701.7 (1)
0x700|   00                                          | .              |              count: 0 0x701-0x701.7 (1)
     |                                               |                |              data[0:0]: 0x702-NA (0)
     |                                               |                |          union{}: 0x702-0x704.7 (3)
0x700|      02                                       |  .             |            type: 1 0x702-0x702.7 (1)
     |                                               |                |            value{}: 0x703-0x704.7 (2)
0x700|         02                                    |   .            |              length: 1 0x703-0x703.7 (1)
0x700|            39                                 |    9           |              data: "9" 0x704-0x704.7 (1)
0x700|               00 01 02 03 04 05 06 07 08 09 0a|     ...........|          fixed: raw bits 0x705-0x714.7 (16)
0x710|0b 0c 0d 0e 0f                                 |.....           |
0x710|               1e                              |     .          |          date: "1970-01-16" (15) 0x715-0x715.7 (1)
0x710|                  d2 a9 07                     |      ...       |          timeMillis: "00:01:00.009" (60009) 0x716-0x718.7 (3)
0x710|                           cd 5d               |         .]     |          timeMicros: "23:59:59.994009" (-5991) 0x719-0x71a.7 (2)
0x710|                                 d2 c9 ce 92 93|           .....|          timestampMillis: "2000-01-10T00:01:00.009Z" (947462460009) 0x71b-0x720.7 (6)
0x720|37                                             |7               |
0x720|   b2 a2 d1 fc c8 ed ae 03                     | ........       |          timestampMicros: "2000-01-09T23:59:59.994009Z" (947462399994009) 0x721-0x728.7 (8)
0x720|                           d3 c3 7b dd 09 d4 11|         ..{....|      sync: raw bits (valid) 0x729-0x738.7 (16)
0x730|0f ab 81 70 3e 70 78 9e a0|                    |...p>px..|      |
