$ fq . firstBlockCountNotGreaterThanZero.avro
    |00 01 02 03 04 05 06 07 08 09 0a 0b 0c 0d 0e 0f|0123456789abcdef|.{}: firstBlockCountNotGreaterThanZero.avro (avro_ocf)
0x00|4f 62 6a 01                                    |Obj.            |  magic: raw bits (valid)
0x00|            02 16 61 76 72 6f 2e 73 63 68 65 6d|    ..avro.schem|  meta[0:2]:
0x10|61 1e 7b 22 74 79 70 65 22 3a 22 6c 6f 6e 67 22|a.{"type":"long"|
0x20|7d 00                                          |}.              |
0x20|      30 31 32 33 34 35 36 37 38 39 61 62 63 64|  0123456789abcd|  sync: raw bits
0x30|65 66                                          |ef              |
0x30|      00|                                      |  .|            |  blocks[0:1]:
$ fq '.blocks[0]' firstBlockCountNotGreaterThanZero.avro
    |00 01 02 03 04 05 06 07 08 09 0a 0b 0c 0d 0e 0f|0123456789abcdef|.blocks[0]{}:
0x30|      00|                                      |  .|            |  count: 0
