# Testcase taken from linkedin/goavro https://github.com/linkedin/goavro
$ fq '.blocks[0]' quickstop-deflate.avro
       |00 01 02 03 04 05 06 07 08 09 0a 0b 0c 0d 0e 0f|0123456789abcdef|.blocks[0]{}:
 0x0000|02 0a 44 61 6e 74 65 0a 48 69 63 6b 73 06 28 30|..Dante.Hicks.(0|  data[0:602]:
 *     |until 0x3ff1.7 (end) (16370)                   |                |
0x00120|                              b4 09            |          ..    |  count: 602
0x00120|                                    be 22      |            ."  |  size: 2207
0x00120|                                          8d db|              ..|  compressed: raw bits
0x00130|6f 64 ac f9 19 c6 71 f9 37 49 8e 63 1d 55 55 b5|od....q.7I.c.UU.|
*      |until 0x9cc.7 (2207)                           |                |
0x009c0|                                       93 e7 87|             ...|  sync: raw bits (valid)
0x009d0|9e 02 95 d5 9e 4f 58 37 ad b2 a2 ce cd         |.....OX7.....   |
