# Testcase taken from linkedin/goavro https://github.com/linkedin/goavro
$ fq verbose quickstop-deflate.avro
      |00 01 02 03 04 05 06 07 08 09 0a 0b 0c 0d 0e 0f|0123456789abcdef|.{}: quickstop-deflate.avro (avro_ocf) 0x0-0x5835.7 (22582)
0x0000|4f 62 6a 01                                    |Obj.            |  magic: raw bits (valid) 0x0-0x3.7 (4)
      |                                               |                |  header{}: 0x4-0x129.7 (294)
      |                                               |                |    meta[0:2]: 0x4-0x119.7 (278)
      |                                               |                |      [0]{}: block 0x4-0x118.7 (277)
0x0000|            04                                 |    .           |        count: 2 0x4-0x4.7 (1)
      |                                               |                |        data[0:2]: 0x5-0x118.7 (276)
      |                                               |                |          [0]{}: entry 0x5-0x17.7 (19)
      |                                               |                |            key{}: 0x5-0xf.7 (11)
0x0000|               14                              |     .          |              length: 10 0x5-0x5.7 (1)
0x0000|                  61 76 72 6f 2e 63 6f 64 65 63|      avro.codec|              data: "avro.codec" 0x6-0xf.7 (10)
      |                                               |                |            value{}: 0x10-0x17.7 (8)
0x0010|0e                                             |.               |              length: 7 0x10-0x10.7 (1)
0x0010|   64 65 66 6c 61 74 65                        | deflate        |              data: "deflate" 0x11-0x17.7 (7)
      |                                               |                |          [1]{}: entry 0x18-0x118.7 (257)
      |                                               |                |            key{}: 0x18-0x23.7 (12)
0x0010|                        16                     |        .       |              length: 11 0x18-0x18.7 (1)
0x0010|                           61 76 72 6f 2e 73 63|         avro.sc|              data: "avro.schema" 0x19-0x23.7 (11)
0x0020|68 65 6d 61                                    |hema            |
      |                                               |                |            value{}: 0x24-0x118.7 (245)
0x0020|            e6 03                              |    ..          |              length: 243 0x24-0x25.7 (2)
0x0020|                  7b 22 74 79 70 65 22 3a 22 72|      {"type":"r|              data: "{\"type\":\"record\",\"name\":\"Person\",\"fields\":[{\"name\""... 0x26-0x118.7 (243)
0x0030|65 63 6f 72 64 22 2c 22 6e 61 6d 65 22 3a 22 50|ecord","name":"P|
*     |until 0x118.7 (243)                            |                |
      |                                               |                |      [1]{}: block 0x119-0x119.7 (1)
0x0110|                           00                  |         .      |        count: 0 0x119-0x119.7 (1)
      |                                               |                |        data[0:0]: 0x11a-NA (0)
0x0110|                              93 e7 87 9e 02 95|          ......|    sync: raw bits 0x11a-0x129.7 (16)
0x0120|d5 9e 4f 58 37 ad b2 a2 ce cd                  |..OX7.....      |
      |                                               |                |  blocks[0:12]: 0x12a-0x5835.7 (22284)
      |                                               |                |    [0]{}: block 0x12a-0x9dc.7 (2227)
0x0120|                              b4 09            |          ..    |      count: 602 0x12a-0x12b.7 (2)
0x0120|                                    be 22      |            ."  |      size: 2207 0x12c-0x12d.7 (2)
0x0120|                                          8d db|              ..|      data: raw bits (deflate encoded) 0x12e-0x9cc.7 (2207)
0x0130|6f 64 ac f9 19 c6 71 f9 37 49 8e 63 1d 55 55 b5|od....q.7I.c.UU.|
*     |until 0x9cc.7 (2207)                           |                |
0x09c0|                                       93 e7 87|             ...|      sync: raw bits (valid) 0x9cd-0x9dc.7 (16)
0x09d0|9e 02 95 d5 9e 4f 58 37 ad b2 a2 ce cd         |.....OX7.....   |
      |                                               |                |    [1]{}: block 0x9dd-0x1257.7 (2171)
0x09d0|                                       a0 09   |             .. |      count: 592 0x9dd-0x9de.7 (2)
0x09d0|                                             ce|               .|      size: 2151 0x9df-0x9e0.7 (2)
0x09e0|21                                             |!               |
0x09e0|   8d d8 5f 44 fc 7b 1e c7 f1 bb 9f d3 ff 3f d7| .._D.{.......?.|      data: raw bits (deflate encoded) 0x9e1-0x1247.7 (2151)
0x09f0|7b b1 97 e7 7b 71 f8 55 df fe fc d6 f2 1b e7 2c|{...{q.U.......,|
*     |until 0x1247.7 (2151)                          |                |
0x1240|                        93 e7 87 9e 02 95 d5 9e|        ........|      sync: raw bits (valid) 0x1248-0x1257.7 (16)
0x1250|4f 58 37 ad b2 a2 ce cd                        |OX7.....        |
      |                                               |                |    [2]{}: block 0x1258-0x1ad5.7 (2174)
0x1250|                        9e 09                  |        ..      |      count: 591 0x1258-0x1259.7 (2)
0x1250|                              d4 21            |          .!    |      size: 2154 0x125a-0x125b.7 (2)
0x1250|                                    8d d8 5f 44|            .._D|      data: raw bits (deflate encoded) 0x125c-0x1ac5.7 (2154)
0x1260|ec 0d 1e c7 f1 bb 63 1d c7 7a f4 ff cf 5e ec e5|......c..z...^..|
*     |until 0x1ac5.7 (2154)                          |                |
0x1ac0|                  93 e7 87 9e 02 95 d5 9e 4f 58|      ........OX|      sync: raw bits (valid) 0x1ac6-0x1ad5.7 (16)
0x1ad0|37 ad b2 a2 ce cd                              |7.....          |
      |                                               |                |    [3]{}: block 0x1ad6-0x235f.7 (2186)
0x1ad0|                  a0 09                        |      ..        |      count: 592 0x1ad6-0x1ad7.7 (2)
0x1ad0|                        ec 21                  |        .!      |      size: 2166 0x1ad8-0x1ad9.7 (2)
0x1ad0|                              8d d8 7f 44 ec 7b|          ...D.{|      data: raw bits (deflate encoded) 0x1ada-0x234f.7 (2166)
0x1ae0|1e c7 f1 ff 8e 75 1c d7 fd bf df bf b8 df 3f 96|.....u........?.|
*     |until 0x234f.7 (2166)                          |                |
0x2350|93 e7 87 9e 02 95 d5 9e 4f 58 37 ad b2 a2 ce cd|........OX7.....|      sync: raw bits (valid) 0x2350-0x235f.7 (16)
      |                                               |                |    [4]{}: block 0x2360-0x2bda.7 (2171)
0x2360|9e 09                                          |..              |      count: 591 0x2360-0x2361.7 (2)
0x2360|      ce 21                                    |  .!            |      size: 2151 0x2362-0x2363.7 (2)
0x2360|            8d d8 df 47 ec fb 1e c7 f1 bb 65 5b|    ...G......e[|      data: raw bits (deflate encoded) 0x2364-0x2bca.7 (2151)
0x2370|96 6d ff 01 e7 e2 dc f4 e3 db 2f 6b d5 b7 5f c7|.m......../k.._.|
*     |until 0x2bca.7 (2151)                          |                |
0x2bc0|                                 93 e7 87 9e 02|           .....|      sync: raw bits (valid) 0x2bcb-0x2bda.7 (16)
0x2bd0|95 d5 9e 4f 58 37 ad b2 a2 ce cd               |...OX7.....     |
      |                                               |                |    [5]{}: block 0x2bdb-0x3453.7 (2169)
0x2bd0|                                 a0 09         |           ..   |      count: 592 0x2bdb-0x2bdc.7 (2)
0x2bd0|                                       ca 21   |             .! |      size: 2149 0x2bdd-0x2bde.7 (2)
0x2bd0|                                             8d|               .|      data: raw bits (deflate encoded) 0x2bdf-0x3443.7 (2149)
0x2be0|d8 d1 47 fc 7b 1e c7 f1 bb 9f f5 f3 b3 ce 1f b0|..G.{...........|
*     |until 0x3443.7 (2149)                          |                |
0x3440|            93 e7 87 9e 02 95 d5 9e 4f 58 37 ad|    ........OX7.|      sync: raw bits (valid) 0x3444-0x3453.7 (16)
0x3450|b2 a2 ce cd                                    |....            |
      |                                               |                |    [6]{}: block 0x3454-0x3ccd.7 (2170)
0x3450|            a0 09                              |    ..          |      count: 592 0x3454-0x3455.7 (2)
0x3450|                  cc 21                        |      .!        |      size: 2150 0x3456-0x3457.7 (2)
0x3450|                        8d d8 df 47 f4 7d 1e c7|        ...G.}..|      data: raw bits (deflate encoded) 0x3458-0x3cbd.7 (2150)
0x3460|f1 b3 cb ba 5c d6 fd 07 ec c1 1e de df 83 e5 ba|....\...........|
*     |until 0x3cbd.7 (2150)                          |                |
0x3cb0|                                          93 e7|              ..|      sync: raw bits (valid) 0x3cbe-0x3ccd.7 (16)
0x3cc0|87 9e 02 95 d5 9e 4f 58 37 ad b2 a2 ce cd      |......OX7.....  |
      |                                               |                |    [7]{}: block 0x3cce-0x454c.7 (2175)
0x3cc0|                                          9e 09|              ..|      count: 591 0x3cce-0x3ccf.7 (2)
0x3cd0|d6 21                                          |.!              |      size: 2155 0x3cd0-0x3cd1.7 (2)
0x3cd0|      8d d8 df 47 ec 0f 1e c7 f1 bb 63 1d c7 fa|  ...G......c...|      data: raw bits (deflate encoded) 0x3cd2-0x453c.7 (2155)
0x3ce0|fe 01 7b b1 97 df cf c5 72 4e 7d fa b5 96 33 fd|..{.....rN}...3.|
*     |until 0x453c.7 (2155)                          |                |
0x4530|                                       93 e7 87|             ...|      sync: raw bits (valid) 0x453d-0x454c.7 (16)
0x4540|9e 02 95 d5 9e 4f 58 37 ad b2 a2 ce cd         |.....OX7.....   |
      |                                               |                |    [8]{}: block 0x454d-0x4dcd.7 (2177)
0x4540|                                       a0 09   |             .. |      count: 592 0x454d-0x454e.7 (2)
0x4540|                                             da|               .|      size: 2157 0x454f-0x4550.7 (2)
0x4550|21                                             |!               |
0x4550|   8d d8 ef 47 ec 7d 1e c7 f1 7b c7 3a 8e 75 fd| ...G.}...{.:.u.|      data: raw bits (deflate encoded) 0x4551-0x4dbd.7 (2157)
0x4560|01 7b e3 ba 79 7d 6f 2c e7 d4 b7 1f 67 5d 9c 71|.{..y}o,....g].q|
*     |until 0x4dbd.7 (2157)                          |                |
0x4db0|                                          93 e7|              ..|      sync: raw bits (valid) 0x4dbe-0x4dcd.7 (16)
0x4dc0|87 9e 02 95 d5 9e 4f 58 37 ad b2 a2 ce cd      |......OX7.....  |
      |                                               |                |    [9]{}: block 0x4dce-0x564a.7 (2173)
0x4dc0|                                          9e 09|              ..|      count: 591 0x4dce-0x4dcf.7 (2)
0x4dd0|d2 21                                          |.!              |      size: 2153 0x4dd0-0x4dd1.7 (2)
0x4dd0|      8d d8 df 47 ec fb 1e c7 f1 bb 65 5b 96 63|  ...G......e[.c|      data: raw bits (deflate encoded) 0x4dd2-0x563a.7 (2153)
0x4de0|ff 01 e7 e2 5c ee ef c5 61 ad fa f6 6b db ac b1|....\...a...k...|
*     |until 0x563a.7 (2153)                          |                |
0x5630|                                 93 e7 87 9e 02|           .....|      sync: raw bits (valid) 0x563b-0x564a.7 (16)
0x5640|95 d5 9e 4f 58 37 ad b2 a2 ce cd               |...OX7.....     |
      |                                               |                |    [10]{}: block 0x564b-0x580d.7 (451)
0x5640|                                 94 01         |           ..   |      count: 74 0x564b-0x564c.7 (2)
0x5640|                                       de 06   |             .. |      size: 431 0x564d-0x564e.7 (2)
0x5640|                                             8d|               .|      data: raw bits (deflate encoded) 0x564f-0x57fd.7 (431)
0x5650|d5 c1 2b 04 71 14 c0 f1 db a6 6d 93 3f c0 c1 d1|..+.q.....m.?...|
*     |until 0x57fd.7 (431)                           |                |
0x57f0|                                          93 e7|              ..|      sync: raw bits (valid) 0x57fe-0x580d.7 (16)
0x5800|87 9e 02 95 d5 9e 4f 58 37 ad b2 a2 ce cd      |......OX7.....  |
      |                                               |                |    [11]{}: block 0x580e-0x5835.7 (40)
0x5800|                                          02   |              . |      count: 1 0x580e-0x580e.7 (1)
0x5800|                                             2c|               ,|      size: 22 0x580f-0x580f.7 (1)
0x5810|7b 14 cb 15 5c 5a 90 5a c4 e6 9b 98 c7 63 68 64|{...\Z.Z.....chd|      data: raw bits (deflate encoded) 0x5810-0x5825.7 (22)
0x5820|6c 62 6a 66 07 00                              |lbjf..          |
0x5820|                  93 e7 87 9e 02 95 d5 9e 4f 58|      ........OX|      sync: raw bits (valid) 0x5826-0x5835.7 (16)
0x5830|37 ad b2 a2 ce cd|                             |7.....|         |
