# Testcase taken from linkedin/goavro https://github.com/linkedin/goavro
$ fq 'dv({array_truncate: 5})' quickstop-deflate.avro
       |00 01 02 03 04 05 06 07 08 09 0a 0b 0c 0d 0e 0f|0123456789abcdef|.{}: quickstop-deflate.avro (avro_ocf) 0x0-0x5835.7 (22582)
0x00000|4f 62 6a 01                                    |Obj.            |  magic: raw bits (valid) 0x0-0x3.7 (4)
       |                                               |                |  header{}: 0x4-0x129.7 (294)
       |                                               |                |    meta[0:2]: 0x4-0x119.7 (278)
       |                                               |                |      [0]{}: block 0x4-0x118.7 (277)
0x00000|            04                                 |    .           |        count: 2 0x4-0x4.7 (1)
       |                                               |                |        data[0:2]: 0x5-0x118.7 (276)
       |                                               |                |          [0]{}: entry 0x5-0x17.7 (19)
       |                                               |                |            key{}: 0x5-0xf.7 (11)
0x00000|               14                              |     .          |              length: 10 0x5-0x5.7 (1)
0x00000|                  61 76 72 6f 2e 63 6f 64 65 63|      avro.codec|              data: "avro.codec" 0x6-0xf.7 (10)
       |                                               |                |            value{}: 0x10-0x17.7 (8)
0x00010|0e                                             |.               |              length: 7 0x10-0x10.7 (1)
0x00010|   64 65 66 6c 61 74 65                        | deflate        |              data: "deflate" 0x11-0x17.7 (7)
       |                                               |                |          [1]{}: entry 0x18-0x118.7 (257)
       |                                               |                |            key{}: 0x18-0x23.7 (12)
0x00010|                        16                     |        .       |              length: 11 0x18-0x18.7 (1)
0x00010|                           61 76 72 6f 2e 73 63|         avro.sc|              data: "avro.schema" 0x19-0x23.7 (11)
0x00020|68 65 6d 61                                    |hema            |
       |                                               |                |            value{}: 0x24-0x118.7 (245)
0x00020|            e6 03                              |    ..          |              length: 243 0x24-0x25.7 (2)
0x00020|                  7b 22 74 79 70 65 22 3a 22 72|      {"type":"r|              data: "{\"type\":\"record\",\"name\":\"Person\",\"fields\":[{\"name\""... 0x26-0x118.7 (243)
0x00030|65 63 6f 72 64 22 2c 22 6e 61 6d 65 22 3a 22 50|ecord","name":"P|
*      |until 0x118.7 (243)                            |                |
       |                                               |                |      [1]{}: block 0x119-0x119.7 (1)
0x00110|                           00                  |         .      |        count: 0 0x119-0x119.7 (1)
       |                                               |                |        data[0:0]: 0x11a-NA (0)
0x00110|                              93 e7 87 9e 02 95|          ......|    sync: raw bits 0x11a-0x129.7 (16)
0x00120|d5 9e 4f 58 37 ad b2 a2 ce cd                  |..OX7.....      |
       |                                               |                |  blocks[0:12]: 0x12a-0x5835.7 (22284)
       |                                               |                |    [0]{}: block 0x12a-0x9dc.7 (2227)
       |                                               |                |      data[0:602]: 0x0-0x3ff1.7 (16370)
       |                                               |                |        [0]{}: data 0x0-0x11.7 (18)
 0x0000|02                                             |.               |          ID: 1 0x0-0x0.7 (1)
       |                                               |                |          First{}: 0x1-0x6.7 (6)
 0x0000|   0a                                          | .              |            length: 5 0x1-0x1.7 (1)
 0x0000|      44 61 6e 74 65                           |  Dante         |            data: "Dante" 0x2-0x6.7 (5)
       |                                               |                |          Last{}: 0x7-0xc.7 (6)
 0x0000|                     0a                        |       .        |            length: 5 0x7-0x7.7 (1)
 0x0000|                        48 69 63 6b 73         |        Hicks   |            data: "Hicks" 0x8-0xc.7 (5)
       |                                               |                |          Phone{}: 0xd-0x10.7 (4)
 0x0000|                                       06      |             .  |            length: 3 0xd-0xd.7 (1)
 0x0000|                                          28 30|              (0|            data: "(0)" 0xe-0x10.7 (3)
 0x0010|29                                             |)               |
 0x0010|   40                                          | @              |          Age: 32 0x11-0x11.7 (1)
       |                                               |                |        [1]{}: data 0x12-0x30.7 (31)
 0x0010|      04                                       |  .             |          ID: 2 0x12-0x12.7 (1)
       |                                               |                |          First{}: 0x13-0x19.7 (7)
 0x0010|         0c                                    |   .            |            length: 6 0x13-0x13.7 (1)
 0x0010|            52 61 6e 64 61 6c                  |    Randal      |            data: "Randal" 0x14-0x19.7 (6)
       |                                               |                |          Last{}: 0x1a-0x20.7 (7)
 0x0010|                              0c               |          .     |            length: 6 0x1a-0x1a.7 (1)
 0x0010|                                 47 72 61 76 65|           Grave|            data: "Graves" 0x1b-0x20.7 (6)
 0x0020|73                                             |s               |
       |                                               |                |          Phone{}: 0x21-0x2f.7 (15)
 0x0020|   1c                                          | .              |            length: 14 0x21-0x21.7 (1)
 0x0020|      28 35 35 35 29 20 31 32 33 2d 35 36 37 38|  (555) 123-5678|            data: "(555) 123-5678" 0x22-0x2f.7 (14)
 0x0030|3c                                             |<               |          Age: 30 0x30-0x30.7 (1)
       |                                               |                |        [2]{}: data 0x31-0x53.7 (35)
 0x0030|   06                                          | .              |          ID: 3 0x31-0x31.7 (1)
       |                                               |                |          First{}: 0x32-0x3a.7 (9)
 0x0030|      10                                       |  .             |            length: 8 0x32-0x32.7 (1)
 0x0030|         56 65 72 6f 6e 69 63 61               |   Veronica     |            data: "Veronica" 0x33-0x3a.7 (8)
       |                                               |                |          Last{}: 0x3b-0x43.7 (9)
 0x0030|                                 10            |           .    |            length: 8 0x3b-0x3b.7 (1)
 0x0030|                                    4c 6f 75 67|            Loug|            data: "Loughran" 0x3c-0x43.7 (8)
 0x0040|68 72 61 6e                                    |hran            |
       |                                               |                |          Phone{}: 0x44-0x52.7 (15)
 0x0040|            1c                                 |    .           |            length: 14 0x44-0x44.7 (1)
 0x0040|               28 35 35 35 29 20 31 32 33 2d 30|     (555) 123-0|            data: "(555) 123-0987" 0x45-0x52.7 (14)
 0x0050|39 38 37                                       |987             |
 0x0050|         38                                    |   8            |          Age: 28 0x53-0x53.7 (1)
       |                                               |                |        [3]{}: data 0x54-0x71.7 (30)
 0x0050|            08                                 |    .           |          ID: 4 0x54-0x54.7 (1)
       |                                               |                |          First{}: 0x55-0x5c.7 (8)
 0x0050|               0e                              |     .          |            length: 7 0x55-0x55.7 (1)
 0x0050|                  43 61 69 74 6c 69 6e         |      Caitlin   |            data: "Caitlin" 0x56-0x5c.7 (7)
       |                                               |                |          Last{}: 0x5d-0x61.7 (5)
 0x0050|                                       08      |             .  |            length: 4 0x5d-0x5d.7 (1)
 0x0050|                                          42 72|              Br|            data: "Bree" 0x5e-0x61.7 (4)
 0x0060|65 65                                          |ee              |
       |                                               |                |          Phone{}: 0x62-0x70.7 (15)
 0x0060|      1c                                       |  .             |            length: 14 0x62-0x62.7 (1)
 0x0060|         28 35 35 35 29 20 31 32 33 2d 32 33 32|   (555) 123-232|            data: "(555) 123-2323" 0x63-0x70.7 (14)
 0x0070|33                                             |3               |
 0x0070|   36                                          | 6              |          Age: 27 0x71-0x71.7 (1)
       |                                               |                |        [4]{}: data 0x72-0x8d.7 (28)
 0x0070|      0a                                       |  .             |          ID: 5 0x72-0x72.7 (1)
       |                                               |                |          First{}: 0x73-0x76.7 (4)
 0x0070|         06                                    |   .            |            length: 3 0x73-0x73.7 (1)
 0x0070|            42 6f 62                           |    Bob         |            data: "Bob" 0x74-0x76.7 (3)
       |                                               |                |          Last{}: 0x77-0x7d.7 (7)
 0x0070|                     0c                        |       .        |            length: 6 0x77-0x77.7 (1)
 0x0070|                        53 69 6c 65 6e 74      |        Silent  |            data: "Silent" 0x78-0x7d.7 (6)
       |                                               |                |          Phone{}: 0x7e-0x8c.7 (15)
 0x0070|                                          1c   |              . |            length: 14 0x7e-0x7e.7 (1)
 0x0070|                                             28|               (|            data: "(555) 123-6422" 0x7f-0x8c.7 (14)
 0x0080|35 35 35 29 20 31 32 33 2d 36 34 32 32         |555) 123-6422   |
 0x0080|                                       3a      |             :  |          Age: 29 0x8d-0x8d.7 (1)
       |                                               |                |        [5:602]: ...
0x00120|                              b4 09            |          ..    |      count: 602 0x12a-0x12b.7 (2)
0x00120|                                    be 22      |            ."  |      size: 2207 0x12c-0x12d.7 (2)
0x00120|                                          8d db|              ..|      compressed: raw bits 0x12e-0x9cc.7 (2207)
0x00130|6f 64 ac f9 19 c6 71 f9 37 49 8e 63 1d 55 55 b5|od....q.7I.c.UU.|
*      |until 0x9cc.7 (2207)                           |                |
0x009c0|                                       93 e7 87|             ...|      sync: raw bits (valid) 0x9cd-0x9dc.7 (16)
0x009d0|9e 02 95 d5 9e 4f 58 37 ad b2 a2 ce cd         |.....OX7.....   |
       |                                               |                |    [1]{}: block 0x9dd-0x1257.7 (2171)
       |                                               |                |      data[0:592]: 0x0-0x3ffc.7 (16381)
       |                                               |                |        [0]{}: data 0x0-0x23.7 (36)
 0x0000|b6 09                                          |..              |          ID: 603 0x0-0x1.7 (2)
       |                                               |                |          First{}: 0x2-0xa.7 (9)
 0x0000|      10                                       |  .             |            length: 8 0x2-0x2.7 (1)
 0x0000|         56 65 72 6f 6e 69 63 61               |   Veronica     |            data: "Veronica" 0x3-0xa.7 (8)
       |                                               |                |          Last{}: 0xb-0x13.7 (9)
 0x0000|                                 10            |           .    |            length: 8 0xb-0xb.7 (1)
 0x0000|                                    4c 6f 75 67|            Loug|            data: "Loughran" 0xc-0x13.7 (8)
 0x0010|68 72 61 6e                                    |hran            |
       |                                               |                |          Phone{}: 0x14-0x22.7 (15)
 0x0010|            1c                                 |    .           |            length: 14 0x14-0x14.7 (1)
 0x0010|               28 35 35 35 29 20 31 32 33 2d 30|     (555) 123-0|            data: "(555) 123-0987" 0x15-0x22.7 (14)
 0x0020|39 38 37                                       |987             |
 0x0020|         38                                    |   8            |          Age: 28 0x23-0x23.7 (1)
       |                                               |                |        [1]{}: data 0x24-0x42.7 (31)
 0x0020|            b8 09                              |    ..          |          ID: 604 0x24-0x25.7 (2)
       |                                               |                |          First{}: 0x26-0x2d.7 (8)
 0x0020|                  0e                           |      .         |            length: 7 0x26-0x26.7 (1)
 0x0020|                     43 61 69 74 6c 69 6e      |       Caitlin  |            data: "Caitlin" 0x27-0x2d.7 (7)
       |                                               |                |          Last{}: 0x2e-0x32.7 (5)
 0x0020|                                          08   |              . |            length: 4 0x2e-0x2e.7 (1)
 0x0020|                                             42|               B|            data: "Bree" 0x2f-0x32.7 (4)
 0x0030|72 65 65                                       |ree             |
       |                                               |                |          Phone{}: 0x33-0x41.7 (15)
 0x0030|         1c                                    |   .            |            length: 14 0x33-0x33.7 (1)
 0x0030|            28 35 35 35 29 20 31 32 33 2d 32 33|    (555) 123-23|            data: "(555) 123-2323" 0x34-0x41.7 (14)
 0x0040|32 33                                          |23              |
 0x0040|      36                                       |  6             |          Age: 27 0x42-0x42.7 (1)
       |                                               |                |        [2]{}: data 0x43-0x5f.7 (29)
 0x0040|         ba 09                                 |   ..           |          ID: 605 0x43-0x44.7 (2)
       |                                               |                |          First{}: 0x45-0x48.7 (4)
 0x0040|               06                              |     .          |            length: 3 0x45-0x45.7 (1)
 0x0040|                  42 6f 62                     |      Bob       |            data: "Bob" 0x46-0x48.7 (3)
       |                                               |                |          Last{}: 0x49-0x4f.7 (7)
 0x0040|                           0c                  |         .      |            length: 6 0x49-0x49.7 (1)
 0x0040|                              53 69 6c 65 6e 74|          Silent|            data: "Silent" 0x4a-0x4f.7 (6)
       |                                               |                |          Phone{}: 0x50-0x5e.7 (15)
 0x0050|1c                                             |.               |            length: 14 0x50-0x50.7 (1)
 0x0050|   28 35 35 35 29 20 31 32 33 2d 36 34 32 32   | (555) 123-6422 |            data: "(555) 123-6422" 0x51-0x5e.7 (14)
 0x0050|                                             3a|               :|          Age: 29 0x5f-0x5f.7 (1)
       |                                               |                |        [3]{}: data 0x60-0x70.7 (17)
 0x0060|bc 09                                          |..              |          ID: 606 0x60-0x61.7 (2)
       |                                               |                |          First{}: 0x62-0x65.7 (4)
 0x0060|      06                                       |  .             |            length: 3 0x62-0x62.7 (1)
 0x0060|         4a 61 79                              |   Jay          |            data: "Jay" 0x63-0x65.7 (3)
       |                                               |                |          Last{}: 0x66-0x69.7 (4)
 0x0060|                  06                           |      .         |            length: 3 0x66-0x66.7 (1)
 0x0060|                     3f 3f 3f                  |       ???      |            data: "???" 0x67-0x69.7 (3)
       |                                               |                |          Phone{}: 0x6a-0x6f.7 (6)
 0x0060|                              0a               |          .     |            length: 5 0x6a-0x6a.7 (1)
 0x0060|                                 28 31 30 30 29|           (100)|            data: "(100)" 0x6b-0x6f.7 (5)
 0x0070|34                                             |4               |          Age: 26 0x70-0x70.7 (1)
       |                                               |                |        [4]{}: data 0x71-0x85.7 (21)
 0x0070|   be 09                                       | ..             |          ID: 607 0x71-0x72.7 (2)
       |                                               |                |          First{}: 0x73-0x78.7 (6)
 0x0070|         0a                                    |   .            |            length: 5 0x73-0x73.7 (1)
 0x0070|            44 61 6e 74 65                     |    Dante       |            data: "Dante" 0x74-0x78.7 (5)
       |                                               |                |          Last{}: 0x79-0x7e.7 (6)
 0x0070|                           0a                  |         .      |            length: 5 0x79-0x79.7 (1)
 0x0070|                              48 69 63 6b 73   |          Hicks |            data: "Hicks" 0x7a-0x7e.7 (5)
       |                                               |                |          Phone{}: 0x7f-0x84.7 (6)
 0x0070|                                             0a|               .|            length: 5 0x7f-0x7f.7 (1)
 0x0080|28 31 30 31 29                                 |(101)           |            data: "(101)" 0x80-0x84.7 (5)
 0x0080|               40                              |     @          |          Age: 32 0x85-0x85.7 (1)
       |                                               |                |        [5:592]: ...
0x009d0|                                       a0 09   |             .. |      count: 592 0x9dd-0x9de.7 (2)
0x009d0|                                             ce|               .|      size: 2151 0x9df-0x9e0.7 (2)
0x009e0|21                                             |!               |
0x009e0|   8d d8 5f 44 fc 7b 1e c7 f1 bb 9f d3 ff 3f d7| .._D.{.......?.|      compressed: raw bits 0x9e1-0x1247.7 (2151)
0x009f0|7b b1 97 e7 7b 71 f8 55 df fe fc d6 f2 1b e7 2c|{...{q.U.......,|
*      |until 0x1247.7 (2151)                          |                |
0x01240|                        93 e7 87 9e 02 95 d5 9e|        ........|      sync: raw bits (valid) 0x1248-0x1257.7 (16)
0x01250|4f 58 37 ad b2 a2 ce cd                        |OX7.....        |
       |                                               |                |    [2]{}: block 0x1258-0x1ad5.7 (2174)
       |                                               |                |      data[0:591]: 0x0-0x3fe4.7 (16357)
       |                                               |                |        [0]{}: data 0x0-0x14.7 (21)
 0x0000|d6 12                                          |..              |          ID: 1195 0x0-0x1.7 (2)
       |                                               |                |          First{}: 0x2-0x7.7 (6)
 0x0000|      0a                                       |  .             |            length: 5 0x2-0x2.7 (1)
 0x0000|         44 61 6e 74 65                        |   Dante        |            data: "Dante" 0x3-0x7.7 (5)
       |                                               |                |          Last{}: 0x8-0xd.7 (6)
 0x0000|                        0a                     |        .       |            length: 5 0x8-0x8.7 (1)
 0x0000|                           48 69 63 6b 73      |         Hicks  |            data: "Hicks" 0x9-0xd.7 (5)
       |                                               |                |          Phone{}: 0xe-0x13.7 (6)
 0x0000|                                          0a   |              . |            length: 5 0xe-0xe.7 (1)
 0x0000|                                             28|               (|            data: "(199)" 0xf-0x13.7 (5)
 0x0010|31 39 39 29                                    |199)            |
 0x0010|            40                                 |    @           |          Age: 32 0x14-0x14.7 (1)
       |                                               |                |        [1]{}: data 0x15-0x34.7 (32)
 0x0010|               d8 12                           |     ..         |          ID: 1196 0x15-0x16.7 (2)
       |                                               |                |          First{}: 0x17-0x1d.7 (7)
 0x0010|                     0c                        |       .        |            length: 6 0x17-0x17.7 (1)
 0x0010|                        52 61 6e 64 61 6c      |        Randal  |            data: "Randal" 0x18-0x1d.7 (6)
       |                                               |                |          Last{}: 0x1e-0x24.7 (7)
 0x0010|                                          0c   |              . |            length: 6 0x1e-0x1e.7 (1)
 0x0010|                                             47|               G|            data: "Graves" 0x1f-0x24.7 (6)
 0x0020|72 61 76 65 73                                 |raves           |
       |                                               |                |          Phone{}: 0x25-0x33.7 (15)
 0x0020|               1c                              |     .          |            length: 14 0x25-0x25.7 (1)
 0x0020|                  28 35 35 35 29 20 31 32 33 2d|      (555) 123-|            data: "(555) 123-5678" 0x26-0x33.7 (14)
 0x0030|35 36 37 38                                    |5678            |
 0x0030|            3c                                 |    <           |          Age: 30 0x34-0x34.7 (1)
       |                                               |                |        [2]{}: data 0x35-0x58.7 (36)
 0x0030|               da 12                           |     ..         |          ID: 1197 0x35-0x36.7 (2)
       |                                               |                |          First{}: 0x37-0x3f.7 (9)
 0x0030|                     10                        |       .        |            length: 8 0x37-0x37.7 (1)
 0x0030|                        56 65 72 6f 6e 69 63 61|        Veronica|            data: "Veronica" 0x38-0x3f.7 (8)
       |                                               |                |          Last{}: 0x40-0x48.7 (9)
 0x0040|10                                             |.               |            length: 8 0x40-0x40.7 (1)
 0x0040|   4c 6f 75 67 68 72 61 6e                     | Loughran       |            data: "Loughran" 0x41-0x48.7 (8)
       |                                               |                |          Phone{}: 0x49-0x57.7 (15)
 0x0040|                           1c                  |         .      |            length: 14 0x49-0x49.7 (1)
 0x0040|                              28 35 35 35 29 20|          (555) |            data: "(555) 123-0987" 0x4a-0x57.7 (14)
 0x0050|31 32 33 2d 30 39 38 37                        |123-0987        |
 0x0050|                        38                     |        8       |          Age: 28 0x58-0x58.7 (1)
       |                                               |                |        [3]{}: data 0x59-0x77.7 (31)
 0x0050|                           dc 12               |         ..     |          ID: 1198 0x59-0x5a.7 (2)
       |                                               |                |          First{}: 0x5b-0x62.7 (8)
 0x0050|                                 0e            |           .    |            length: 7 0x5b-0x5b.7 (1)
 0x0050|                                    43 61 69 74|            Cait|            data: "Caitlin" 0x5c-0x62.7 (7)
 0x0060|6c 69 6e                                       |lin             |
       |                                               |                |          Last{}: 0x63-0x67.7 (5)
 0x0060|         08                                    |   .            |            length: 4 0x63-0x63.7 (1)
 0x0060|            42 72 65 65                        |    Bree        |            data: "Bree" 0x64-0x67.7 (4)
       |                                               |                |          Phone{}: 0x68-0x76.7 (15)
 0x0060|                        1c                     |        .       |            length: 14 0x68-0x68.7 (1)
 0x0060|                           28 35 35 35 29 20 31|         (555) 1|            data: "(555) 123-2323" 0x69-0x76.7 (14)
 0x0070|32 33 2d 32 33 32 33                           |23-2323         |
 0x0070|                     36                        |       6        |          Age: 27 0x77-0x77.7 (1)
       |                                               |                |        [4]{}: data 0x78-0x94.7 (29)
 0x0070|                        de 12                  |        ..      |          ID: 1199 0x78-0x79.7 (2)
       |                                               |                |          First{}: 0x7a-0x7d.7 (4)
 0x0070|                              06               |          .     |            length: 3 0x7a-0x7a.7 (1)
 0x0070|                                 42 6f 62      |           Bob  |            data: "Bob" 0x7b-0x7d.7 (3)
       |                                               |                |          Last{}: 0x7e-0x84.7 (7)
 0x0070|                                          0c   |              . |            length: 6 0x7e-0x7e.7 (1)
 0x0070|                                             53|               S|            data: "Silent" 0x7f-0x84.7 (6)
 0x0080|69 6c 65 6e 74                                 |ilent           |
       |                                               |                |          Phone{}: 0x85-0x93.7 (15)
 0x0080|               1c                              |     .          |            length: 14 0x85-0x85.7 (1)
 0x0080|                  28 35 35 35 29 20 31 32 33 2d|      (555) 123-|            data: "(555) 123-6422" 0x86-0x93.7 (14)
 0x0090|36 34 32 32                                    |6422            |
 0x0090|            3a                                 |    :           |          Age: 29 0x94-0x94.7 (1)
       |                                               |                |        [5:591]: ...
0x01250|                        9e 09                  |        ..      |      count: 591 0x1258-0x1259.7 (2)
0x01250|                              d4 21            |          .!    |      size: 2154 0x125a-0x125b.7 (2)
0x01250|                                    8d d8 5f 44|            .._D|      compressed: raw bits 0x125c-0x1ac5.7 (2154)
0x01260|ec 0d 1e c7 f1 bb 63 1d c7 7a f4 ff cf 5e ec e5|......c..z...^..|
*      |until 0x1ac5.7 (2154)                          |                |
0x01ac0|                  93 e7 87 9e 02 95 d5 9e 4f 58|      ........OX|      sync: raw bits (valid) 0x1ac6-0x1ad5.7 (16)
0x01ad0|37 ad b2 a2 ce cd                              |7.....          |
       |                                               |                |    [3]{}: block 0x1ad6-0x235f.7 (2186)
       |                                               |                |      data[0:592]: 0x0-0x3fed.7 (16366)
       |                                               |                |        [0]{}: data 0x0-0x1e.7 (31)
 0x0000|f4 1b                                          |..              |          ID: 1786 0x0-0x1.7 (2)
       |                                               |                |          First{}: 0x2-0x9.7 (8)
 0x0000|      0e                                       |  .             |            length: 7 0x2-0x2.7 (1)
 0x0000|         43 61 69 74 6c 69 6e                  |   Caitlin      |            data: "Caitlin" 0x3-0x9.7 (7)
       |                                               |                |          Last{}: 0xa-0xe.7 (5)
 0x0000|                              08               |          .     |            length: 4 0xa-0xa.7 (1)
 0x0000|                                 42 72 65 65   |           Bree |            data: "Bree" 0xb-0xe.7 (4)
       |                                               |                |          Phone{}: 0xf-0x1d.7 (15)
 0x0000|                                             1c|               .|            length: 14 0xf-0xf.7 (1)
 0x0010|28 35 35 35 29 20 31 32 33 2d 32 33 32 33      |(555) 123-2323  |            data: "(555) 123-2323" 0x10-0x1d.7 (14)
 0x0010|                                          36   |              6 |          Age: 27 0x1e-0x1e.7 (1)
       |                                               |                |        [1]{}: data 0x1f-0x3b.7 (29)
 0x0010|                                             f6|               .|          ID: 1787 0x1f-0x20.7 (2)
 0x0020|1b                                             |.               |
       |                                               |                |          First{}: 0x21-0x24.7 (4)
 0x0020|   06                                          | .              |            length: 3 0x21-0x21.7 (1)
 0x0020|      42 6f 62                                 |  Bob           |            data: "Bob" 0x22-0x24.7 (3)
       |                                               |                |          Last{}: 0x25-0x2b.7 (7)
 0x0020|               0c                              |     .          |            length: 6 0x25-0x25.7 (1)
 0x0020|                  53 69 6c 65 6e 74            |      Silent    |            data: "Silent" 0x26-0x2b.7 (6)
       |                                               |                |          Phone{}: 0x2c-0x3a.7 (15)
 0x0020|                                    1c         |            .   |            length: 14 0x2c-0x2c.7 (1)
 0x0020|                                       28 35 35|             (55|            data: "(555) 123-6422" 0x2d-0x3a.7 (14)
 0x0030|35 29 20 31 32 33 2d 36 34 32 32               |5) 123-6422     |
 0x0030|                                 3a            |           :    |          Age: 29 0x3b-0x3b.7 (1)
       |                                               |                |        [2]{}: data 0x3c-0x4c.7 (17)
 0x0030|                                    f8 1b      |            ..  |          ID: 1788 0x3c-0x3d.7 (2)
       |                                               |                |          First{}: 0x3e-0x41.7 (4)
 0x0030|                                          06   |              . |            length: 3 0x3e-0x3e.7 (1)
 0x0030|                                             4a|               J|            data: "Jay" 0x3f-0x41.7 (3)
 0x0040|61 79                                          |ay              |
       |                                               |                |          Last{}: 0x42-0x45.7 (4)
 0x0040|      06                                       |  .             |            length: 3 0x42-0x42.7 (1)
 0x0040|         3f 3f 3f                              |   ???          |            data: "???" 0x43-0x45.7 (3)
       |                                               |                |          Phone{}: 0x46-0x4b.7 (6)
 0x0040|                  0a                           |      .         |            length: 5 0x46-0x46.7 (1)
 0x0040|                     28 32 39 37 29            |       (297)    |            data: "(297)" 0x47-0x4b.7 (5)
 0x0040|                                    34         |            4   |          Age: 26 0x4c-0x4c.7 (1)
       |                                               |                |        [3]{}: data 0x4d-0x61.7 (21)
 0x0040|                                       fa 1b   |             .. |          ID: 1789 0x4d-0x4e.7 (2)
       |                                               |                |          First{}: 0x4f-0x54.7 (6)
 0x0040|                                             0a|               .|            length: 5 0x4f-0x4f.7 (1)
 0x0050|44 61 6e 74 65                                 |Dante           |            data: "Dante" 0x50-0x54.7 (5)
       |                                               |                |          Last{}: 0x55-0x5a.7 (6)
 0x0050|               0a                              |     .          |            length: 5 0x55-0x55.7 (1)
 0x0050|                  48 69 63 6b 73               |      Hicks     |            data: "Hicks" 0x56-0x5a.7 (5)
       |                                               |                |          Phone{}: 0x5b-0x60.7 (6)
 0x0050|                                 0a            |           .    |            length: 5 0x5b-0x5b.7 (1)
 0x0050|                                    28 32 39 38|            (298|            data: "(298)" 0x5c-0x60.7 (5)
 0x0060|29                                             |)               |
 0x0060|   40                                          | @              |          Age: 32 0x61-0x61.7 (1)
       |                                               |                |        [4]{}: data 0x62-0x81.7 (32)
 0x0060|      fc 1b                                    |  ..            |          ID: 1790 0x62-0x63.7 (2)
       |                                               |                |          First{}: 0x64-0x6a.7 (7)
 0x0060|            0c                                 |    .           |            length: 6 0x64-0x64.7 (1)
 0x0060|               52 61 6e 64 61 6c               |     Randal     |            data: "Randal" 0x65-0x6a.7 (6)
       |                                               |                |          Last{}: 0x6b-0x71.7 (7)
 0x0060|                                 0c            |           .    |            length: 6 0x6b-0x6b.7 (1)
 0x0060|                                    47 72 61 76|            Grav|            data: "Graves" 0x6c-0x71.7 (6)
 0x0070|65 73                                          |es              |
       |                                               |                |          Phone{}: 0x72-0x80.7 (15)
 0x0070|      1c                                       |  .             |            length: 14 0x72-0x72.7 (1)
 0x0070|         28 35 35 35 29 20 31 32 33 2d 35 36 37|   (555) 123-567|            data: "(555) 123-5678" 0x73-0x80.7 (14)
 0x0080|38                                             |8               |
 0x0080|   3c                                          | <              |          Age: 30 0x81-0x81.7 (1)
       |                                               |                |        [5:592]: ...
0x01ad0|                  a0 09                        |      ..        |      count: 592 0x1ad6-0x1ad7.7 (2)
0x01ad0|                        ec 21                  |        .!      |      size: 2166 0x1ad8-0x1ad9.7 (2)
0x01ad0|                              8d d8 7f 44 ec 7b|          ...D.{|      compressed: raw bits 0x1ada-0x234f.7 (2166)
0x01ae0|1e c7 f1 ff 8e 75 1c d7 fd bf df bf b8 df 3f 96|.....u........?.|
*      |until 0x234f.7 (2166)                          |                |
0x02350|93 e7 87 9e 02 95 d5 9e 4f 58 37 ad b2 a2 ce cd|........OX7.....|      sync: raw bits (valid) 0x2350-0x235f.7 (16)
       |                                               |                |    [4]{}: block 0x2360-0x2bda.7 (2171)
       |                                               |                |      data[0:591]: 0x0-0x3fee.7 (16367)
       |                                               |                |        [0]{}: data 0x0-0x1f.7 (32)
 0x0000|94 25                                          |.%              |          ID: 2378 0x0-0x1.7 (2)
       |                                               |                |          First{}: 0x2-0x8.7 (7)
 0x0000|      0c                                       |  .             |            length: 6 0x2-0x2.7 (1)
 0x0000|         52 61 6e 64 61 6c                     |   Randal       |            data: "Randal" 0x3-0x8.7 (6)
       |                                               |                |          Last{}: 0x9-0xf.7 (7)
 0x0000|                           0c                  |         .      |            length: 6 0x9-0x9.7 (1)
 0x0000|                              47 72 61 76 65 73|          Graves|            data: "Graves" 0xa-0xf.7 (6)
       |                                               |                |          Phone{}: 0x10-0x1e.7 (15)
 0x0010|1c                                             |.               |            length: 14 0x10-0x10.7 (1)
 0x0010|   28 35 35 35 29 20 31 32 33 2d 35 36 37 38   | (555) 123-5678 |            data: "(555) 123-5678" 0x11-0x1e.7 (14)
 0x0010|                                             3c|               <|          Age: 30 0x1f-0x1f.7 (1)
       |                                               |                |        [1]{}: data 0x20-0x43.7 (36)
 0x0020|96 25                                          |.%              |          ID: 2379 0x20-0x21.7 (2)
       |                                               |                |          First{}: 0x22-0x2a.7 (9)
 0x0020|      10                                       |  .             |            length: 8 0x22-0x22.7 (1)
 0x0020|         56 65 72 6f 6e 69 63 61               |   Veronica     |            data: "Veronica" 0x23-0x2a.7 (8)
       |                                               |                |          Last{}: 0x2b-0x33.7 (9)
 0x0020|                                 10            |           .    |            length: 8 0x2b-0x2b.7 (1)
 0x0020|                                    4c 6f 75 67|            Loug|            data: "Loughran" 0x2c-0x33.7 (8)
 0x0030|68 72 61 6e                                    |hran            |
       |                                               |                |          Phone{}: 0x34-0x42.7 (15)
 0x0030|            1c                                 |    .           |            length: 14 0x34-0x34.7 (1)
 0x0030|               28 35 35 35 29 20 31 32 33 2d 30|     (555) 123-0|            data: "(555) 123-0987" 0x35-0x42.7 (14)
 0x0040|39 38 37                                       |987             |
 0x0040|         38                                    |   8            |          Age: 28 0x43-0x43.7 (1)
       |                                               |                |        [2]{}: data 0x44-0x62.7 (31)
 0x0040|            98 25                              |    .%          |          ID: 2380 0x44-0x45.7 (2)
       |                                               |                |          First{}: 0x46-0x4d.7 (8)
 0x0040|                  0e                           |      .         |            length: 7 0x46-0x46.7 (1)
 0x0040|                     43 61 69 74 6c 69 6e      |       Caitlin  |            data: "Caitlin" 0x47-0x4d.7 (7)
       |                                               |                |          Last{}: 0x4e-0x52.7 (5)
 0x0040|                                          08   |              . |            length: 4 0x4e-0x4e.7 (1)
 0x0040|                                             42|               B|            data: "Bree" 0x4f-0x52.7 (4)
 0x0050|72 65 65                                       |ree             |
       |                                               |                |          Phone{}: 0x53-0x61.7 (15)
 0x0050|         1c                                    |   .            |            length: 14 0x53-0x53.7 (1)
 0x0050|            28 35 35 35 29 20 31 32 33 2d 32 33|    (555) 123-23|            data: "(555) 123-2323" 0x54-0x61.7 (14)
 0x0060|32 33                                          |23              |
 0x0060|      36                                       |  6             |          Age: 27 0x62-0x62.7 (1)
       |                                               |                |        [3]{}: data 0x63-0x7f.7 (29)
 0x0060|         9a 25                                 |   .%           |          ID: 2381 0x63-0x64.7 (2)
       |                                               |                |          First{}: 0x65-0x68.7 (4)
 0x0060|               06                              |     .          |            length: 3 0x65-0x65.7 (1)
 0x0060|                  42 6f 62                     |      Bob       |            data: "Bob" 0x66-0x68.7 (3)
       |                                               |                |          Last{}: 0x69-0x6f.7 (7)
 0x0060|                           0c                  |         .      |            length: 6 0x69-0x69.7 (1)
 0x0060|                              53 69 6c 65 6e 74|          Silent|            data: "Silent" 0x6a-0x6f.7 (6)
       |                                               |                |          Phone{}: 0x70-0x7e.7 (15)
 0x0070|1c                                             |.               |            length: 14 0x70-0x70.7 (1)
 0x0070|   28 35 35 35 29 20 31 32 33 2d 36 34 32 32   | (555) 123-6422 |            data: "(555) 123-6422" 0x71-0x7e.7 (14)
 0x0070|                                             3a|               :|          Age: 29 0x7f-0x7f.7 (1)
       |                                               |                |        [4]{}: data 0x80-0x90.7 (17)
 0x0080|9c 25                                          |.%              |          ID: 2382 0x80-0x81.7 (2)
       |                                               |                |          First{}: 0x82-0x85.7 (4)
 0x0080|      06                                       |  .             |            length: 3 0x82-0x82.7 (1)
 0x0080|         4a 61 79                              |   Jay          |            data: "Jay" 0x83-0x85.7 (3)
       |                                               |                |          Last{}: 0x86-0x89.7 (4)
 0x0080|                  06                           |      .         |            length: 3 0x86-0x86.7 (1)
 0x0080|                     3f 3f 3f                  |       ???      |            data: "???" 0x87-0x89.7 (3)
       |                                               |                |          Phone{}: 0x8a-0x8f.7 (6)
 0x0080|                              0a               |          .     |            length: 5 0x8a-0x8a.7 (1)
 0x0080|                                 28 33 39 36 29|           (396)|            data: "(396)" 0x8b-0x8f.7 (5)
 0x0090|34                                             |4               |          Age: 26 0x90-0x90.7 (1)
       |                                               |                |        [5:591]: ...
0x02360|9e 09                                          |..              |      count: 591 0x2360-0x2361.7 (2)
0x02360|      ce 21                                    |  .!            |      size: 2151 0x2362-0x2363.7 (2)
0x02360|            8d d8 df 47 ec fb 1e c7 f1 bb 65 5b|    ...G......e[|      compressed: raw bits 0x2364-0x2bca.7 (2151)
0x02370|96 6d ff 01 e7 e2 dc f4 e3 db 2f 6b d5 b7 5f c7|.m......../k.._.|
*      |until 0x2bca.7 (2151)                          |                |
0x02bc0|                                 93 e7 87 9e 02|           .....|      sync: raw bits (valid) 0x2bcb-0x2bda.7 (16)
0x02bd0|95 d5 9e 4f 58 37 ad b2 a2 ce cd               |...OX7.....     |
       |                                               |                |    [5:12]: ...
