# Generated using https://gist.github.com/xentripetal/c0f1645ee1abd4d25f71896c8d650543
$ fq 'dv({array_truncate: 25})' snappy.avro
       |00 01 02 03 04 05 06 07 08 09 0a 0b 0c 0d 0e 0f|0123456789abcdef|.{}: snappy.avro (avro_ocf) 0x0-0x639 (1593)
0x00000|4f 62 6a 01                                    |Obj.            |  magic: raw bits (valid) 0x0-0x4 (4)
       |                                               |                |  header{}: 0x4-0x420 (1052)
       |                                               |                |    meta[0:2]: 0x4-0x410 (1036)
       |                                               |                |      [0]{}: block 0x4-0x40f (1035)
0x00000|            04                                 |    .           |        count: 2 0x4-0x5 (1)
       |                                               |                |        data[0:2]: 0x5-0x40f (1034)
       |                                               |                |          [0]{}: entry 0x5-0x3fd (1016)
       |                                               |                |            key{}: 0x5-0x11 (12)
0x00000|               16                              |     .          |              length: 11 0x5-0x6 (1)
0x00000|                  61 76 72 6f 2e 73 63 68 65 6d|      avro.schem|              data: "avro.schema" 0x6-0x11 (11)
0x00010|61                                             |a               |
       |                                               |                |            value{}: 0x11-0x3fd (1004)
0x00010|   d4 0f                                       | ..             |              length: 1002 0x11-0x13 (2)
0x00010|         7b 22 66 69 65 6c 64 73 22 3a 5b 7b 22|   {"fields":[{"|              data: "{\"fields\":[{\"name\":\"null\",\"type\":\"null\"},{\"name\":\"boolean\",\"type\":\"boolean\"},{\"name\":\"int\",\"type\":\"int\"},{\"name\":\"long\",\"type\":\"long\"},{\"name\":\"float\",\"type\":\"float\"},{\"name\":\"double\",\"type\":\"double\"},{\"name\":\"bytes\",\"type\":\"bytes\"},{\"name\":\"string\",\"type\":\"string\"},{\"name\":\"enum\",\"type\":{\"name\":\"enum\",\"symbols\":[\"A\",\"B\",\"C\"],\"type\":\"enum\"}},{\"name\":\"array\",\"type\":{\"items\":\"string\",\"name\":\"array\",\"type\":\"array\"}},{\"name\":\"map\",\"type\":{\"name\":\"map\",\"type\":\"map\",\"values\":\"string\"}},{\"name\":\"union\",\"type\":[\"int\",\"string\"]},{\"name\":\"fixed\",\"type\":{\"name\":\"fixed\",\"size\":16,\"type\":\"fixed\"}},{\"name\":\"date\",\"type\":{\"logicalType\":\"date\",\"type\":\"int\"}},{\"name\":\"timeMillis\",\"type\":{\"logicalType\":\"time-millis\",\"type\":\"long\"}},{\"name\":\"timeMicros\",\"type\":{\"logicalType\":\"time-micros\",\"type\":\"long\"}},{\"name\":\"timestampMillis\",\"type\":{\"logicalType\":\"timestamp-millis\",\"type\":\"long\"}},{\"name\":\"timestampMicros\",\"type\":{\"logicalType\":\"timestamp-micros\",\"type\":\"long\"}}],\"name\":\"AllDataTypes\",\"type\":\"record\"}" 0x13-0x3fd (1002)
0x00020|6e 61 6d 65 22 3a 22 6e 75 6c 6c 22 2c 22 74 79|name":"null","ty|
*      |until 0x3fc.7 (1002)                           |                |
       |                                               |                |          [1]{}: entry 0x3fd-0x40f (18)
       |                                               |                |            key{}: 0x3fd-0x408 (11)
0x003f0|                                       14      |             .  |              length: 10 0x3fd-0x3fe (1)
0x003f0|                                          61 76|              av|              data: "avro.codec" 0x3fe-0x408 (10)
0x00400|72 6f 2e 63 6f 64 65 63                        |ro.codec        |
       |                                               |                |            value{}: 0x408-0x40f (7)
0x00400|                        0c                     |        .       |              length: 6 0x408-0x409 (1)
0x00400|                           73 6e 61 70 70 79   |         snappy |              data: "snappy" 0x409-0x40f (6)
       |                                               |                |      [1]{}: block 0x40f-0x410 (1)
0x00400|                                             00|               .|        count: 0 0x40f-0x410 (1)
       |                                               |                |        data[0:0]: 0x410-0x410 (0)
0x00410|cc cc 61 31 fd 14 d0 61 16 b6 0f 9d 30 f4 1b f0|..a1...a....0...|    sync: raw bits 0x410-0x420 (16)
       |                                               |                |  blocks[0:1]: 0x420-0x639 (537)
       |                                               |                |    [0]{}: block 0x420-0x639 (537)
       |00 01 02 03 04 05 06 07 08 09 0a 0b 0c 0d 0e 0f|0123456789abcdef|      data[0:10]: 0x0-0x308 (776)
       |                                               |                |        [0]{}: data 0x0-0x4b (75)
       |                                               |                |          null: null
  0x000|01                                             |.               |          boolean: true 0x0-0x1 (1)
  0x000|   0e                                          | .              |          int: 7 0x1-0x2 (1)
  0x000|      42                                       |  B             |          long: 33 0x2-0x3 (1)
  0x000|         00 00 00 00                           |   ....         |          float: 0 0x3-0x7 (4)
  0x000|                     92 24 49 92 24 49 f2 3f   |       .$I.$I.? |          double: -2.8062043420318885e-221 0x7-0xf (8)
       |                                               |                |          bytes{}: 0xf-0x11 (2)
  0x000|                                             02|               .|            length: 1 0xf-0x10 (1)
  0x001|39                                             |9               |            data: raw bits 0x10-0x11 (1)
       |                                               |                |          string{}: 0x11-0x14 (3)
  0x001|   04                                          | .              |            length: 2 0x11-0x12 (1)
  0x001|      31 30                                    |  10            |            data: "10" 0x12-0x14 (2)
  0x001|            00                                 |    .           |          enum: "A" (0) 0x14-0x15 (1)
       |                                               |                |          array[0:1]: 0x15-0x16 (1)
       |                                               |                |            [0]{}: block 0x15-0x16 (1)
  0x001|               00                              |     .          |              count: 0 0x15-0x16 (1)
       |                                               |                |              data[0:0]: 0x16-0x16 (0)
       |                                               |                |          map[0:2]: 0x16-0x24 (14)
       |                                               |                |            [0]{}: block 0x16-0x23 (13)
  0x001|                  06                           |      .         |              count: 3 0x16-0x17 (1)
       |                                               |                |              data[0:3]: 0x17-0x23 (12)
       |                                               |                |                [0]{}: entry 0x17-0x1b (4)
       |                                               |                |                  key{}: 0x17-0x19 (2)
  0x001|                     02                        |       .        |                    length: 1 0x17-0x18 (1)
  0x001|                        61                     |        a       |                    data: "a" 0x18-0x19 (1)
       |                                               |                |                  value{}: 0x19-0x1b (2)
  0x001|                           02                  |         .      |                    length: 1 0x19-0x1a (1)
  0x001|                              41               |          A     |                    data: "A" 0x1a-0x1b (1)
       |                                               |                |                [1]{}: entry 0x1b-0x1f (4)
       |                                               |                |                  key{}: 0x1b-0x1d (2)
  0x001|                                 02            |           .    |                    length: 1 0x1b-0x1c (1)
  0x001|                                    62         |            b   |                    data: "b" 0x1c-0x1d (1)
       |                                               |                |                  value{}: 0x1d-0x1f (2)
  0x001|                                       02      |             .  |                    length: 1 0x1d-0x1e (1)
  0x001|                                          42   |              B |                    data: "B" 0x1e-0x1f (1)
       |                                               |                |                [2]{}: entry 0x1f-0x23 (4)
       |                                               |                |                  key{}: 0x1f-0x21 (2)
  0x001|                                             02|               .|                    length: 1 0x1f-0x20 (1)
  0x002|63                                             |c               |                    data: "c" 0x20-0x21 (1)
       |                                               |                |                  value{}: 0x21-0x23 (2)
  0x002|   02                                          | .              |                    length: 1 0x21-0x22 (1)
  0x002|      43                                       |  C             |                    data: "C" 0x22-0x23 (1)
       |                                               |                |            [1]{}: block 0x23-0x24 (1)
  0x002|         00                                    |   .            |              count: 0 0x23-0x24 (1)
       |                                               |                |              data[0:0]: 0x24-0x24 (0)
       |                                               |                |          union{}: 0x24-0x27 (3)
  0x002|            02                                 |    .           |            type: 1 0x24-0x25 (1)
       |                                               |                |            value{}: 0x25-0x27 (2)
  0x002|               02                              |     .          |              length: 1 0x25-0x26 (1)
  0x002|                  30                           |      0         |              data: "0" 0x26-0x27 (1)
  0x002|                     00 01 02 03 04 05 06 07 08|       .........|          fixed: raw bits 0x27-0x37 (16)
  0x003|09 0a 0b 0c 0d 0e 0f                           |.......         |
  0x003|                     0c                        |       .        |          date: "1970-01-07" (6) 0x37-0x38 (1)
  0x003|                        c0 a9 07               |        ...     |          timeMillis: "00:01:00.000" (60000) 0x38-0x3b (3)
  0x003|                                 e0 5d         |           .]   |          timeMicros: "00:00:00.006000" (6000) 0x3b-0x3d (2)
  0x003|                                       c0 d9 84|             ...|          timestampMillis: "2000-01-01T00:01:00Z" (946684860000) 0x3d-0x43 (6)
  0x004|ad 8d 37                                       |..7             |
  0x004|         e0 dd bf b3 a7 c0 ae 03               |   ........     |          timestampMicros: "2000-01-01T00:00:00.006Z" (946684800006000) 0x43-0x4b (8)
       |                                               |                |        [1]{}: data 0x4b-0x99 (78)
       |                                               |                |          null: null
  0x004|                                 00            |           .    |          boolean: false 0x4b-0x4c (1)
  0x004|                                    0c         |            .   |          int: 6 0x4c-0x4d (1)
  0x004|                                       40      |             @  |          long: 32 0x4d-0x4e (1)
  0x004|                                          ab aa|              ..|          float: -1.2126478207002966e-12 0x4e-0x52 (4)
  0x005|aa 3e                                          |.>              |
  0x005|      25 49 92 24 49 92 f4 3f                  |  %I.$I..?      |          double: 4.61123556404525e-129 0x52-0x5a (8)
       |                                               |                |          bytes{}: 0x5a-0x5c (2)
  0x005|                              02               |          .     |            length: 1 0x5a-0x5b (1)
  0x005|                                 38            |           8    |            data: raw bits 0x5b-0x5c (1)
       |                                               |                |          string{}: 0x5c-0x5f (3)
  0x005|                                    04         |            .   |            length: 2 0x5c-0x5d (1)
  0x005|                                       31 31   |             11 |            data: "11" 0x5d-0x5f (2)
  0x005|                                             02|               .|          enum: "B" (1) 0x5f-0x60 (1)
       |                                               |                |          array[0:2]: 0x60-0x64 (4)
       |                                               |                |            [0]{}: block 0x60-0x63 (3)
  0x006|02                                             |.               |              count: 1 0x60-0x61 (1)
       |                                               |                |              data[0:1]: 0x61-0x63 (2)
       |                                               |                |                [0]{}: entry 0x61-0x63 (2)
  0x006|   02                                          | .              |                  length: 1 0x61-0x62 (1)
  0x006|      61                                       |  a             |                  data: "a" 0x62-0x63 (1)
       |                                               |                |            [1]{}: block 0x63-0x64 (1)
  0x006|         00                                    |   .            |              count: 0 0x63-0x64 (1)
       |                                               |                |              data[0:0]: 0x64-0x64 (0)
       |                                               |                |          map[0:2]: 0x64-0x72 (14)
       |                                               |                |            [0]{}: block 0x64-0x71 (13)
  0x006|            06                                 |    .           |              count: 3 0x64-0x65 (1)
       |                                               |                |              data[0:3]: 0x65-0x71 (12)
       |                                               |                |                [0]{}: entry 0x65-0x69 (4)
       |                                               |                |                  key{}: 0x65-0x67 (2)
  0x006|               02                              |     .          |                    length: 1 0x65-0x66 (1)
  0x006|                  61                           |      a         |                    data: "a" 0x66-0x67 (1)
       |                                               |                |                  value{}: 0x67-0x69 (2)
  0x006|                     02                        |       .        |                    length: 1 0x67-0x68 (1)
  0x006|                        41                     |        A       |                    data: "A" 0x68-0x69 (1)
       |                                               |                |                [1]{}: entry 0x69-0x6d (4)
       |                                               |                |                  key{}: 0x69-0x6b (2)
  0x006|                           02                  |         .      |                    length: 1 0x69-0x6a (1)
  0x006|                              62               |          b     |                    data: "b" 0x6a-0x6b (1)
       |                                               |                |                  value{}: 0x6b-0x6d (2)
  0x006|                                 02            |           .    |                    length: 1 0x6b-0x6c (1)
  0x006|                                    42         |            B   |                    data: "B" 0x6c-0x6d (1)
       |                                               |                |                [2]{}: entry 0x6d-0x71 (4)
       |                                               |                |                  key{}: 0x6d-0x6f (2)
  0x006|                                       02      |             .  |                    length: 1 0x6d-0x6e (1)
  0x006|                                          63   |              c |                    data: "c" 0x6e-0x6f (1)
       |                                               |                |                  value{}: 0x6f-0x71 (2)
  0x006|                                             02|               .|                    length: 1 0x6f-0x70 (1)
  0x007|43                                             |C               |                    data: "C" 0x70-0x71 (1)
       |                                               |                |            [1]{}: block 0x71-0x72 (1)
  0x007|   00                                          | .              |              count: 0 0x71-0x72 (1)
       |                                               |                |              data[0:0]: 0x72-0x72 (0)
       |                                               |                |          union{}: 0x72-0x75 (3)
  0x007|      02                                       |  .             |            type: 1 0x72-0x73 (1)
       |                                               |                |            value{}: 0x73-0x75 (2)
  0x007|         02                                    |   .            |              length: 1 0x73-0x74 (1)
  0x007|            31                                 |    1           |              data: "1" 0x74-0x75 (1)
  0x007|               00 01 02 03 04 05 06 07 08 09 0a|     ...........|          fixed: raw bits 0x75-0x85 (16)
  0x008|0b 0c 0d 0e 0f                                 |.....           |
  0x008|               0e                              |     .          |          date: "1970-01-08" (7) 0x85-0x86 (1)
  0x008|                  c2 a9 07                     |      ...       |          timeMillis: "00:01:00.001" (60001) 0x86-0x89 (3)
  0x008|                           dd 5d               |         .]     |          timeMicros: "23:59:59.994001" (-5999) 0x89-0x8b (2)
  0x008|                                 c2 c9 b7 ff 8d|           .....|          timestampMillis: "2000-01-02T00:01:00.001Z" (946771260001) 0x8b-0x91 (6)
  0x009|37                                             |7               |
  0x009|   a2 a2 f9 90 ab c5 ae 03                     | ........       |          timestampMicros: "2000-01-01T23:59:59.994001Z" (946771199994001) 0x91-0x99 (8)
       |                                               |                |        [2]{}: data 0x99-0xe9 (80)
       |                                               |                |          null: null
  0x009|                           01                  |         .      |          boolean: true 0x99-0x9a (1)
  0x009|                              0a               |          .     |          int: 5 0x9a-0x9b (1)
  0x009|                                 46            |           F    |          long: 35 0x9b-0x9c (1)
  0x009|                                    ab aa 2a 3f|            ..*?|          float: -1.2090952154417134e-12 0x9c-0xa0 (4)
  0x00a|b7 6d db b6 6d db f6 3f                        |.m..m..?        |          double: -1.071112274748446e-41 0xa0-0xa8 (8)
       |                                               |                |          bytes{}: 0xa8-0xab (3)
  0x00a|                        04                     |        .       |            length: 2 0xa8-0xa9 (1)
  0x00a|                           31 31               |         11     |            data: raw bits 0xa9-0xab (2)
       |                                               |                |          string{}: 0xab-0xad (2)
  0x00a|                                 02            |           .    |            length: 1 0xab-0xac (1)
  0x00a|                                    38         |            8   |            data: "8" 0xac-0xad (1)
  0x00a|                                       04      |             .  |          enum: "C" (2) 0xad-0xae (1)
       |                                               |                |          array[0:2]: 0xae-0xb4 (6)
       |                                               |                |            [0]{}: block 0xae-0xb3 (5)
  0x00a|                                          04   |              . |              count: 2 0xae-0xaf (1)
       |                                               |                |              data[0:2]: 0xaf-0xb3 (4)
       |                                               |                |                [0]{}: entry 0xaf-0xb1 (2)
  0x00a|                                             02|               .|                  length: 1 0xaf-0xb0 (1)
  0x00b|61                                             |a               |                  data: "a" 0xb0-0xb1 (1)
       |                                               |                |                [1]{}: entry 0xb1-0xb3 (2)
  0x00b|   02                                          | .              |                  length: 1 0xb1-0xb2 (1)
  0x00b|      62                                       |  b             |                  data: "b" 0xb2-0xb3 (1)
       |                                               |                |            [1]{}: block 0xb3-0xb4 (1)
  0x00b|         00                                    |   .            |              count: 0 0xb3-0xb4 (1)
       |                                               |                |              data[0:0]: 0xb4-0xb4 (0)
       |                                               |                |          map[0:2]: 0xb4-0xc2 (14)
       |                                               |                |            [0]{}: block 0xb4-0xc1 (13)
  0x00b|            06                                 |    .           |              count: 3 0xb4-0xb5 (1)
       |                                               |                |              data[0:3]: 0xb5-0xc1 (12)
       |                                               |                |                [0]{}: entry 0xb5-0xb9 (4)
       |                                               |                |                  key{}: 0xb5-0xb7 (2)
  0x00b|               02                              |     .          |                    length: 1 0xb5-0xb6 (1)
  0x00b|                  61                           |      a         |                    data: "a" 0xb6-0xb7 (1)
       |                                               |                |                  value{}: 0xb7-0xb9 (2)
  0x00b|                     02                        |       .        |                    length: 1 0xb7-0xb8 (1)
  0x00b|                        41                     |        A       |                    data: "A" 0xb8-0xb9 (1)
       |                                               |                |                [1]{}: entry 0xb9-0xbd (4)
       |                                               |                |                  key{}: 0xb9-0xbb (2)
  0x00b|                           02                  |         .      |                    length: 1 0xb9-0xba (1)
  0x00b|                              62               |          b     |                    data: "b" 0xba-0xbb (1)
       |                                               |                |                  value{}: 0xbb-0xbd (2)
  0x00b|                                 02            |           .    |                    length: 1 0xbb-0xbc (1)
  0x00b|                                    42         |            B   |                    data: "B" 0xbc-0xbd (1)
       |                                               |                |                [2]{}: entry 0xbd-0xc1 (4)
       |                                               |                |                  key{}: 0xbd-0xbf (2)
  0x00b|                                       02      |             .  |                    length: 1 0xbd-0xbe (1)
  0x00b|                                          63   |              c |                    data: "c" 0xbe-0xbf (1)
       |                                               |                |                  value{}: 0xbf-0xc1 (2)
  0x00b|                                             02|               .|                    length: 1 0xbf-0xc0 (1)
  0x00c|43                                             |C               |                    data: "C" 0xc0-0xc1 (1)
       |                                               |                |            [1]{}: block 0xc1-0xc2 (1)
  0x00c|   00                                          | .              |              count: 0 0xc1-0xc2 (1)
       |                                               |                |              data[0:0]: 0xc2-0xc2 (0)
       |                                               |                |          union{}: 0xc2-0xc5 (3)
  0x00c|      02                                       |  .             |            type: 1 0xc2-0xc3 (1)
       |                                               |                |            value{}: 0xc3-0xc5 (2)
  0x00c|         02                                    |   .            |              length: 1 0xc3-0xc4 (1)
  0x00c|            32                                 |    2           |              data: "2" 0xc4-0xc5 (1)
  0x00c|               00 01 02 03 04 05 06 07 08 09 0a|     ...........|          fixed: raw bits 0xc5-0xd5 (16)
  0x00d|0b 0c 0d 0e 0f                                 |.....           |
  0x00d|               08                              |     .          |          date: "1970-01-05" (4) 0xd5-0xd6 (1)
  0x00d|                  c4 a9 07                     |      ...       |          timeMillis: "00:01:00.002" (60002) 0xd6-0xd9 (3)
  0x00d|                           e4 5d               |         .]     |          timeMicros: "00:00:00.006002" (6002) 0xd9-0xdb (2)
  0x00d|                                 c4 b9 ea d1 8e|           .....|          timestampMillis: "2000-01-03T00:01:00.002Z" (946857660002) 0xdb-0xe1 (6)
  0x00e|37                                             |7               |
  0x00e|   e4 dd b5 ee ae ca ae 03                     | ........       |          timestampMicros: "2000-01-03T00:00:00.006002Z" (946857600006002) 0xe1-0xe9 (8)
       |                                               |                |        [3]{}: data 0xe9-0x134 (75)
       |                                               |                |          null: null
  0x00e|                           00                  |         .      |          boolean: false 0xe9-0xea (1)
  0x00e|                              08               |          .     |          int: 4 0xea-0xeb (1)
  0x00e|                                 44            |           D    |          long: 34 0xeb-0xec (1)
  0x00e|                                    00 00 80 3f|            ...?|          float: 4.600602988224807e-41 0xec-0xf0 (4)
  0x00f|49 92 24 49 92 24 f9 3f                        |I.$I.$.?        |          double: 2.5892767407305293e+46 0xf0-0xf8 (8)
       |                                               |                |          bytes{}: 0xf8-0xfb (3)
  0x00f|                        04                     |        .       |            length: 2 0xf8-0xf9 (1)
  0x00f|                           31 30               |         10     |            data: raw bits 0xf9-0xfb (2)
       |                                               |                |          string{}: 0xfb-0xfd (2)
  0x00f|                                 02            |           .    |            length: 1 0xfb-0xfc (1)
  0x00f|                                    39         |            9   |            data: "9" 0xfc-0xfd (1)
  0x00f|                                       00      |             .  |          enum: "A" (0) 0xfd-0xfe (1)
       |                                               |                |          array[0:1]: 0xfe-0xff (1)
       |                                               |                |            [0]{}: block 0xfe-0xff (1)
  0x00f|                                          00   |              . |              count: 0 0xfe-0xff (1)
       |                                               |                |              data[0:0]: 0xff-0xff (0)
       |                                               |                |          map[0:2]: 0xff-0x10d (14)
       |                                               |                |            [0]{}: block 0xff-0x10c (13)
  0x00f|                                             06|               .|              count: 3 0xff-0x100 (1)
       |                                               |                |              data[0:3]: 0x100-0x10c (12)
       |                                               |                |                [0]{}: entry 0x100-0x104 (4)
       |                                               |                |                  key{}: 0x100-0x102 (2)
  0x010|02                                             |.               |                    length: 1 0x100-0x101 (1)
  0x010|   61                                          | a              |                    data: "a" 0x101-0x102 (1)
       |                                               |                |                  value{}: 0x102-0x104 (2)
  0x010|      02                                       |  .             |                    length: 1 0x102-0x103 (1)
  0x010|         41                                    |   A            |                    data: "A" 0x103-0x104 (1)
       |                                               |                |                [1]{}: entry 0x104-0x108 (4)
       |                                               |                |                  key{}: 0x104-0x106 (2)
  0x010|            02                                 |    .           |                    length: 1 0x104-0x105 (1)
  0x010|               62                              |     b          |                    data: "b" 0x105-0x106 (1)
       |                                               |                |                  value{}: 0x106-0x108 (2)
  0x010|                  02                           |      .         |                    length: 1 0x106-0x107 (1)
  0x010|                     42                        |       B        |                    data: "B" 0x107-0x108 (1)
       |                                               |                |                [2]{}: entry 0x108-0x10c (4)
       |                                               |                |                  key{}: 0x108-0x10a (2)
  0x010|                        02                     |        .       |                    length: 1 0x108-0x109 (1)
  0x010|                           63                  |         c      |                    data: "c" 0x109-0x10a (1)
       |                                               |                |                  value{}: 0x10a-0x10c (2)
  0x010|                              02               |          .     |                    length: 1 0x10a-0x10b (1)
  0x010|                                 43            |           C    |                    data: "C" 0x10b-0x10c (1)
       |                                               |                |            [1]{}: block 0x10c-0x10d (1)
  0x010|                                    00         |            .   |              count: 0 0x10c-0x10d (1)
       |                                               |                |              data[0:0]: 0x10d-0x10d (0)
       |                                               |                |          union{}: 0x10d-0x110 (3)
  0x010|                                       02      |             .  |            type: 1 0x10d-0x10e (1)
       |                                               |                |            value{}: 0x10e-0x110 (2)
  0x010|                                          02   |              . |              length: 1 0x10e-0x10f (1)
  0x010|                                             33|               3|              data: "3" 0x10f-0x110 (1)
  0x011|00 01 02 03 04 05 06 07 08 09 0a 0b 0c 0d 0e 0f|................|          fixed: raw bits 0x110-0x120 (16)
  0x012|0a                                             |.               |          date: "1970-01-06" (5) 0x120-0x121 (1)
  0x012|   c6 a9 07                                    | ...            |          timeMillis: "00:01:00.003" (60003) 0x121-0x124 (3)
  0x012|            d9 5d                              |    .]          |          timeMicros: "23:59:59.994003" (-5997) 0x124-0x126 (2)
  0x012|                  c6 a9 9d a4 8f 37            |      .....7    |          timestampMillis: "2000-01-04T00:01:00.003Z" (946944060003) 0x126-0x12c (6)
  0x012|                                    a6 a2 ef cb|            ....|          timestampMicros: "2000-01-03T23:59:59.994003Z" (946943999994003) 0x12c-0x134 (8)
  0x013|b2 cf ae 03                                    |....            |
       |                                               |                |        [4]{}: data 0x134-0x183 (79)
       |                                               |                |          null: null
  0x013|            01                                 |    .           |          boolean: true 0x134-0x135 (1)
  0x013|               06                              |     .          |          int: 3 0x135-0x136 (1)
  0x013|                  4a                           |      J         |          long: 37 0x136-0x137 (1)
  0x013|                     ab aa aa 3f               |       ...?     |          float: -1.2126479291205139e-12 0x137-0x13b (4)
  0x013|                                 db b6 6d db b6|           ..m..|          double: -6.368110545752354e+133 0x13b-0x143 (8)
  0x014|6d fb 3f                                       |m.?             |
       |                                               |                |          bytes{}: 0x143-0x146 (3)
  0x014|         04                                    |   .            |            length: 2 0x143-0x144 (1)
  0x014|            31 33                              |    13          |            data: raw bits 0x144-0x146 (2)
       |                                               |                |          string{}: 0x146-0x149 (3)
  0x014|                  04                           |      .         |            length: 2 0x146-0x147 (1)
  0x014|                     31 34                     |       14       |            data: "14" 0x147-0x149 (2)
  0x014|                           02                  |         .      |          enum: "B" (1) 0x149-0x14a (1)
       |                                               |                |          array[0:2]: 0x14a-0x14e (4)
       |                                               |                |            [0]{}: block 0x14a-0x14d (3)
  0x014|                              02               |          .     |              count: 1 0x14a-0x14b (1)
       |                                               |                |              data[0:1]: 0x14b-0x14d (2)
       |                                               |                |                [0]{}: entry 0x14b-0x14d (2)
  0x014|                                 02            |           .    |                  length: 1 0x14b-0x14c (1)
  0x014|                                    61         |            a   |                  data: "a" 0x14c-0x14d (1)
       |                                               |                |            [1]{}: block 0x14d-0x14e (1)
  0x014|                                       00      |             .  |              count: 0 0x14d-0x14e (1)
       |                                               |                |              data[0:0]: 0x14e-0x14e (0)
       |                                               |                |          map[0:2]: 0x14e-0x15c (14)
       |                                               |                |            [0]{}: block 0x14e-0x15b (13)
  0x014|                                          06   |              . |              count: 3 0x14e-0x14f (1)
       |                                               |                |              data[0:3]: 0x14f-0x15b (12)
       |                                               |                |                [0]{}: entry 0x14f-0x153 (4)
       |                                               |                |                  key{}: 0x14f-0x151 (2)
  0x014|                                             02|               .|                    length: 1 0x14f-0x150 (1)
  0x015|61                                             |a               |                    data: "a" 0x150-0x151 (1)
       |                                               |                |                  value{}: 0x151-0x153 (2)
  0x015|   02                                          | .              |                    length: 1 0x151-0x152 (1)
  0x015|      41                                       |  A             |                    data: "A" 0x152-0x153 (1)
       |                                               |                |                [1]{}: entry 0x153-0x157 (4)
       |                                               |                |                  key{}: 0x153-0x155 (2)
  0x015|         02                                    |   .            |                    length: 1 0x153-0x154 (1)
  0x015|            62                                 |    b           |                    data: "b" 0x154-0x155 (1)
       |                                               |                |                  value{}: 0x155-0x157 (2)
  0x015|               02                              |     .          |                    length: 1 0x155-0x156 (1)
  0x015|                  42                           |      B         |                    data: "B" 0x156-0x157 (1)
       |                                               |                |                [2]{}: entry 0x157-0x15b (4)
       |                                               |                |                  key{}: 0x157-0x159 (2)
  0x015|                     02                        |       .        |                    length: 1 0x157-0x158 (1)
  0x015|                        63                     |        c       |                    data: "c" 0x158-0x159 (1)
       |                                               |                |                  value{}: 0x159-0x15b (2)
  0x015|                           02                  |         .      |                    length: 1 0x159-0x15a (1)
  0x015|                              43               |          C     |                    data: "C" 0x15a-0x15b (1)
       |                                               |                |            [1]{}: block 0x15b-0x15c (1)
  0x015|                                 00            |           .    |              count: 0 0x15b-0x15c (1)
       |                                               |                |              data[0:0]: 0x15c-0x15c (0)
       |                                               |                |          union{}: 0x15c-0x15f (3)
  0x015|                                    02         |            .   |            type: 1 0x15c-0x15d (1)
       |                                               |                |            value{}: 0x15d-0x15f (2)
  0x015|                                       02      |             .  |              length: 1 0x15d-0x15e (1)
  0x015|                                          34   |              4 |              data: "4" 0x15e-0x15f (1)
  0x015|                                             00|               .|          fixed: raw bits 0x15f-0x16f (16)
  0x016|01 02 03 04 05 06 07 08 09 0a 0b 0c 0d 0e 0f   |............... |
  0x016|                                             04|               .|          date: "1970-01-03" (2) 0x16f-0x170 (1)
  0x017|c8 a9 07                                       |...             |          timeMillis: "00:01:00.004" (60004) 0x170-0x173 (3)
  0x017|         e8 5d                                 |   .]           |          timeMicros: "00:00:00.006004" (6004) 0x173-0x175 (2)
  0x017|               c8 99 d0 f6 8f 37               |     .....7     |          timestampMillis: "2000-01-05T00:01:00.004Z" (947030460004) 0x175-0x17b (6)
  0x017|                                 e8 dd ab a9 b6|           .....|          timestampMicros: "2000-01-05T00:00:00.006004Z" (947030400006004) 0x17b-0x183 (8)
  0x018|d4 ae 03                                       |...             |
       |                                               |                |        [5]{}: data 0x183-0x1d4 (81)
       |                                               |                |          null: null
  0x018|         00                                    |   .            |          boolean: false 0x183-0x184 (1)
  0x018|            04                                 |    .           |          int: 2 0x184-0x185 (1)
  0x018|               48                              |     H          |          long: 36 0x185-0x186 (1)
  0x018|                  55 55 d5 3f                  |      UU.?      |          float: 1.4694491357184e+13 0x186-0x18a (4)
  0x018|                              6e db b6 6d db b6|          n..m..|          double: 1.0257800654339733e+226 0x18a-0x192 (8)
  0x019|fd 3f                                          |.?              |
       |                                               |                |          bytes{}: 0x192-0x195 (3)
  0x019|      04                                       |  .             |            length: 2 0x192-0x193 (1)
  0x019|         31 32                                 |   12           |            data: raw bits 0x193-0x195 (2)
       |                                               |                |          string{}: 0x195-0x198 (3)
  0x019|               04                              |     .          |            length: 2 0x195-0x196 (1)
  0x019|                  31 35                        |      15        |            data: "15" 0x196-0x198 (2)
  0x019|                        04                     |        .       |          enum: "C" (2) 0x198-0x199 (1)
       |                                               |                |          array[0:2]: 0x199-0x19f (6)
       |                                               |                |            [0]{}: block 0x199-0x19e (5)
  0x019|                           04                  |         .      |              count: 2 0x199-0x19a (1)
       |                                               |                |              data[0:2]: 0x19a-0x19e (4)
       |                                               |                |                [0]{}: entry 0x19a-0x19c (2)
  0x019|                              02               |          .     |                  length: 1 0x19a-0x19b (1)
  0x019|                                 61            |           a    |                  data: "a" 0x19b-0x19c (1)
       |                                               |                |                [1]{}: entry 0x19c-0x19e (2)
  0x019|                                    02         |            .   |                  length: 1 0x19c-0x19d (1)
  0x019|                                       62      |             b  |                  data: "b" 0x19d-0x19e (1)
       |                                               |                |            [1]{}: block 0x19e-0x19f (1)
  0x019|                                          00   |              . |              count: 0 0x19e-0x19f (1)
       |                                               |                |              data[0:0]: 0x19f-0x19f (0)
       |                                               |                |          map[0:2]: 0x19f-0x1ad (14)
       |                                               |                |            [0]{}: block 0x19f-0x1ac (13)
  0x019|                                             06|               .|              count: 3 0x19f-0x1a0 (1)
       |                                               |                |              data[0:3]: 0x1a0-0x1ac (12)
       |                                               |                |                [0]{}: entry 0x1a0-0x1a4 (4)
       |                                               |                |                  key{}: 0x1a0-0x1a2 (2)
  0x01a|02                                             |.               |                    length: 1 0x1a0-0x1a1 (1)
  0x01a|   61                                          | a              |                    data: "a" 0x1a1-0x1a2 (1)
       |                                               |                |                  value{}: 0x1a2-0x1a4 (2)
  0x01a|      02                                       |  .             |                    length: 1 0x1a2-0x1a3 (1)
  0x01a|         41                                    |   A            |                    data: "A" 0x1a3-0x1a4 (1)
       |                                               |                |                [1]{}: entry 0x1a4-0x1a8 (4)
       |                                               |                |                  key{}: 0x1a4-0x1a6 (2)
  0x01a|            02                                 |    .           |                    length: 1 0x1a4-0x1a5 (1)
  0x01a|               62                              |     b          |                    data: "b" 0x1a5-0x1a6 (1)
       |                                               |                |                  value{}: 0x1a6-0x1a8 (2)
  0x01a|                  02                           |      .         |                    length: 1 0x1a6-0x1a7 (1)
  0x01a|                     42                        |       B        |                    data: "B" 0x1a7-0x1a8 (1)
       |                                               |                |                [2]{}: entry 0x1a8-0x1ac (4)
       |                                               |                |                  key{}: 0x1a8-0x1aa (2)
  0x01a|                        02                     |        .       |                    length: 1 0x1a8-0x1a9 (1)
  0x01a|                           63                  |         c      |                    data: "c" 0x1a9-0x1aa (1)
       |                                               |                |                  value{}: 0x1aa-0x1ac (2)
  0x01a|                              02               |          .     |                    length: 1 0x1aa-0x1ab (1)
  0x01a|                                 43            |           C    |                    data: "C" 0x1ab-0x1ac (1)
       |                                               |                |            [1]{}: block 0x1ac-0x1ad (1)
  0x01a|                                    00         |            .   |              count: 0 0x1ac-0x1ad (1)
       |                                               |                |              data[0:0]: 0x1ad-0x1ad (0)
       |                                               |                |          union{}: 0x1ad-0x1b0 (3)
  0x01a|                                       02      |             .  |            type: 1 0x1ad-0x1ae (1)
       |                                               |                |            value{}: 0x1ae-0x1b0 (2)
  0x01a|                                          02   |              . |              length: 1 0x1ae-0x1af (1)
  0x01a|                                             35|               5|              data: "5" 0x1af-0x1b0 (1)
  0x01b|00 01 02 03 04 05 06 07 08 09 0a 0b 0c 0d 0e 0f|................|          fixed: raw bits 0x1b0-0x1c0 (16)
  0x01c|06                                             |.               |          date: "1970-01-04" (3) 0x1c0-0x1c1 (1)
  0x01c|   ca a9 07                                    | ...            |          timeMillis: "00:01:00.005" (60005) 0x1c1-0x1c4 (3)
  0x01c|            d5 5d                              |    .]          |          timeMicros: "23:59:59.994005" (-5995) 0x1c4-0x1c6 (2)
  0x01c|                  ca 89 83 c9 90 37            |      .....7    |          timestampMillis: "2000-01-06T00:01:00.005Z" (947116860005) 0x1c6-0x1cc (6)
  0x01c|                                    aa a2 e5 86|            ....|          timestampMicros: "2000-01-05T23:59:59.994005Z" (947116799994005) 0x1cc-0x1d4 (8)
  0x01d|ba d9 ae 03                                    |....            |
       |                                               |                |        [6]{}: data 0x1d4-0x220 (76)
       |                                               |                |          null: null
  0x01d|            01                                 |    .           |          boolean: true 0x1d4-0x1d5 (1)
  0x01d|               02                              |     .          |          int: 1 0x1d5-0x1d6 (1)
  0x01d|                  4e                           |      N         |          long: 39 0x1d6-0x1d7 (1)
  0x01d|                     00 00 00 40               |       ...@     |          float: 8.96831017167883e-44 0x1d7-0x1db (4)
  0x01d|                                 00 00 00 00 00|           .....|          double: 3.16e-322 0x1db-0x1e3 (8)
  0x01e|00 00 40                                       |..@             |
       |                                               |                |          bytes{}: 0x1e3-0x1e6 (3)
  0x01e|         04                                    |   .            |            length: 2 0x1e3-0x1e4 (1)
  0x01e|            31 35                              |    15          |            data: raw bits 0x1e4-0x1e6 (2)
       |                                               |                |          string{}: 0x1e6-0x1e9 (3)
  0x01e|                  04                           |      .         |            length: 2 0x1e6-0x1e7 (1)
  0x01e|                     31 32                     |       12       |            data: "12" 0x1e7-0x1e9 (2)
  0x01e|                           00                  |         .      |          enum: "A" (0) 0x1e9-0x1ea (1)
       |                                               |                |          array[0:1]: 0x1ea-0x1eb (1)
       |                                               |                |            [0]{}: block 0x1ea-0x1eb (1)
  0x01e|                              00               |          .     |              count: 0 0x1ea-0x1eb (1)
       |                                               |                |              data[0:0]: 0x1eb-0x1eb (0)
       |                                               |                |          map[0:2]: 0x1eb-0x1f9 (14)
       |                                               |                |            [0]{}: block 0x1eb-0x1f8 (13)
  0x01e|                                 06            |           .    |              count: 3 0x1eb-0x1ec (1)
       |                                               |                |              data[0:3]: 0x1ec-0x1f8 (12)
       |                                               |                |                [0]{}: entry 0x1ec-0x1f0 (4)
       |                                               |                |                  key{}: 0x1ec-0x1ee (2)
  0x01e|                                    02         |            .   |                    length: 1 0x1ec-0x1ed (1)
  0x01e|                                       61      |             a  |                    data: "a" 0x1ed-0x1ee (1)
       |                                               |                |                  value{}: 0x1ee-0x1f0 (2)
  0x01e|                                          02   |              . |                    length: 1 0x1ee-0x1ef (1)
  0x01e|                                             41|               A|                    data: "A" 0x1ef-0x1f0 (1)
       |                                               |                |                [1]{}: entry 0x1f0-0x1f4 (4)
       |                                               |                |                  key{}: 0x1f0-0x1f2 (2)
  0x01f|02                                             |.               |                    length: 1 0x1f0-0x1f1 (1)
  0x01f|   62                                          | b              |                    data: "b" 0x1f1-0x1f2 (1)
       |                                               |                |                  value{}: 0x1f2-0x1f4 (2)
  0x01f|      02                                       |  .             |                    length: 1 0x1f2-0x1f3 (1)
  0x01f|         42                                    |   B            |                    data: "B" 0x1f3-0x1f4 (1)
       |                                               |                |                [2]{}: entry 0x1f4-0x1f8 (4)
       |                                               |                |                  key{}: 0x1f4-0x1f6 (2)
  0x01f|            02                                 |    .           |                    length: 1 0x1f4-0x1f5 (1)
  0x01f|               63                              |     c          |                    data: "c" 0x1f5-0x1f6 (1)
       |                                               |                |                  value{}: 0x1f6-0x1f8 (2)
  0x01f|                  02                           |      .         |                    length: 1 0x1f6-0x1f7 (1)
  0x01f|                     43                        |       C        |                    data: "C" 0x1f7-0x1f8 (1)
       |                                               |                |            [1]{}: block 0x1f8-0x1f9 (1)
  0x01f|                        00                     |        .       |              count: 0 0x1f8-0x1f9 (1)
       |                                               |                |              data[0:0]: 0x1f9-0x1f9 (0)
       |                                               |                |          union{}: 0x1f9-0x1fc (3)
  0x01f|                           02                  |         .      |            type: 1 0x1f9-0x1fa (1)
       |                                               |                |            value{}: 0x1fa-0x1fc (2)
  0x01f|                              02               |          .     |              length: 1 0x1fa-0x1fb (1)
  0x01f|                                 36            |           6    |              data: "6" 0x1fb-0x1fc (1)
  0x01f|                                    00 01 02 03|            ....|          fixed: raw bits 0x1fc-0x20c (16)
  0x020|04 05 06 07 08 09 0a 0b 0c 0d 0e 0f            |............    |
  0x020|                                    00         |            .   |          date: "1970-01-01" (0) 0x20c-0x20d (1)
  0x020|                                       cc a9 07|             ...|          timeMillis: "00:01:00.006" (60006) 0x20d-0x210 (3)
  0x021|ec 5d                                          |.]              |          timeMicros: "00:00:00.006006" (6006) 0x210-0x212 (2)
  0x021|      cc f9 b5 9b 91 37                        |  .....7        |          timestampMillis: "2000-01-07T00:01:00.006Z" (947203260006) 0x212-0x218 (6)
  0x021|                        ec dd a1 e4 bd de ae 03|        ........|          timestampMicros: "2000-01-07T00:00:00.006006Z" (947203200006006) 0x218-0x220 (8)
       |                                               |                |        [7]{}: data 0x220-0x26f (79)
       |                                               |                |          null: null
  0x022|00                                             |.               |          boolean: false 0x220-0x221 (1)
  0x022|   00                                          | .              |          int: 0 0x221-0x222 (1)
  0x022|      4c                                       |  L             |          long: 38 0x222-0x223 (1)
  0x022|         55 55 15 40                           |   UU.@         |          float: 1.4642952798208e+13 0x223-0x227 (4)
  0x022|                     49 92 24 49 92 24 01 40   |       I.$I.$.@ |          double: 2.5892767406983375e+46 0x227-0x22f (8)
       |                                               |                |          bytes{}: 0x22f-0x232 (3)
  0x022|                                             04|               .|            length: 2 0x22f-0x230 (1)
  0x023|31 34                                          |14              |            data: raw bits 0x230-0x232 (2)
       |                                               |                |          string{}: 0x232-0x235 (3)
  0x023|      04                                       |  .             |            length: 2 0x232-0x233 (1)
  0x023|         31 33                                 |   13           |            data: "13" 0x233-0x235 (2)
  0x023|               02                              |     .          |          enum: "B" (1) 0x235-0x236 (1)
       |                                               |                |          array[0:2]: 0x236-0x23a (4)
       |                                               |                |            [0]{}: block 0x236-0x239 (3)
  0x023|                  02                           |      .         |              count: 1 0x236-0x237 (1)
       |                                               |                |              data[0:1]: 0x237-0x239 (2)
       |                                               |                |                [0]{}: entry 0x237-0x239 (2)
  0x023|                     02                        |       .        |                  length: 1 0x237-0x238 (1)
  0x023|                        61                     |        a       |                  data: "a" 0x238-0x239 (1)
       |                                               |                |            [1]{}: block 0x239-0x23a (1)
  0x023|                           00                  |         .      |              count: 0 0x239-0x23a (1)
       |                                               |                |              data[0:0]: 0x23a-0x23a (0)
       |                                               |                |          map[0:2]: 0x23a-0x248 (14)
       |                                               |                |            [0]{}: block 0x23a-0x247 (13)
  0x023|                              06               |          .     |              count: 3 0x23a-0x23b (1)
       |                                               |                |              data[0:3]: 0x23b-0x247 (12)
       |                                               |                |                [0]{}: entry 0x23b-0x23f (4)
       |                                               |                |                  key{}: 0x23b-0x23d (2)
  0x023|                                 02            |           .    |                    length: 1 0x23b-0x23c (1)
  0x023|                                    61         |            a   |                    data: "a" 0x23c-0x23d (1)
       |                                               |                |                  value{}: 0x23d-0x23f (2)
  0x023|                                       02      |             .  |                    length: 1 0x23d-0x23e (1)
  0x023|                                          41   |              A |                    data: "A" 0x23e-0x23f (1)
       |                                               |                |                [1]{}: entry 0x23f-0x243 (4)
       |                                               |                |                  key{}: 0x23f-0x241 (2)
  0x023|                                             02|               .|                    length: 1 0x23f-0x240 (1)
  0x024|62                                             |b               |                    data: "b" 0x240-0x241 (1)
       |                                               |                |                  value{}: 0x241-0x243 (2)
  0x024|   02                                          | .              |                    length: 1 0x241-0x242 (1)
  0x024|      42                                       |  B             |                    data: "B" 0x242-0x243 (1)
       |                                               |                |                [2]{}: entry 0x243-0x247 (4)
       |                                               |                |                  key{}: 0x243-0x245 (2)
  0x024|         02                                    |   .            |                    length: 1 0x243-0x244 (1)
  0x024|            63                                 |    c           |                    data: "c" 0x244-0x245 (1)
       |                                               |                |                  value{}: 0x245-0x247 (2)
  0x024|               02                              |     .          |                    length: 1 0x245-0x246 (1)
  0x024|                  43                           |      C         |                    data: "C" 0x246-0x247 (1)
       |                                               |                |            [1]{}: block 0x247-0x248 (1)
  0x024|                     00                        |       .        |              count: 0 0x247-0x248 (1)
       |                                               |                |              data[0:0]: 0x248-0x248 (0)
       |                                               |                |          union{}: 0x248-0x24b (3)
  0x024|                        02                     |        .       |            type: 1 0x248-0x249 (1)
       |                                               |                |            value{}: 0x249-0x24b (2)
  0x024|                           02                  |         .      |              length: 1 0x249-0x24a (1)
  0x024|                              37               |          7     |              data: "7" 0x24a-0x24b (1)
  0x024|                                 00 01 02 03 04|           .....|          fixed: raw bits 0x24b-0x25b (16)
  0x025|05 06 07 08 09 0a 0b 0c 0d 0e 0f               |...........     |
  0x025|                                 02            |           .    |          date: "1970-01-02" (1) 0x25b-0x25c (1)
  0x025|                                    ce a9 07   |            ... |          timeMillis: "00:01:00.007" (60007) 0x25c-0x25f (3)
  0x025|                                             d1|               .|          timeMicros: "23:59:59.994007" (-5993) 0x25f-0x261 (2)
  0x026|5d                                             |]               |
  0x026|   ce e9 e8 ed 91 37                           | .....7         |          timestampMillis: "2000-01-08T00:01:00.007Z" (947289660007) 0x261-0x267 (6)
  0x026|                     ae a2 db c1 c1 e3 ae 03   |       ........ |          timestampMicros: "2000-01-07T23:59:59.994007Z" (947289599994007) 0x267-0x26f (8)
       |                                               |                |        [8]{}: data 0x26f-0x2be (79)
       |                                               |                |          null: null
  0x026|                                             01|               .|          boolean: true 0x26f-0x270 (1)
  0x027|1e                                             |.               |          int: 15 0x270-0x271 (1)
  0x027|   52                                          | R              |          long: 41 0x271-0x272 (1)
  0x027|      ab aa 2a 40                              |  ..*@          |          float: -1.2090953238619306e-12 0x272-0x276 (4)
  0x027|                  00 00 00 00 00 00 00 00      |      ........  |          double: 0 0x276-0x27e (8)
       |                                               |                |          bytes{}: 0x27e-0x280 (2)
  0x027|                                          02   |              . |            length: 1 0x27e-0x27f (1)
  0x027|                                             31|               1|            data: raw bits 0x27f-0x280 (1)
       |                                               |                |          string{}: 0x280-0x282 (2)
  0x028|02                                             |.               |            length: 1 0x280-0x281 (1)
  0x028|   32                                          | 2              |            data: "2" 0x281-0x282 (1)
  0x028|      04                                       |  .             |          enum: "C" (2) 0x282-0x283 (1)
       |                                               |                |          array[0:2]: 0x283-0x289 (6)
       |                                               |                |            [0]{}: block 0x283-0x288 (5)
  0x028|         04                                    |   .            |              count: 2 0x283-0x284 (1)
       |                                               |                |              data[0:2]: 0x284-0x288 (4)
       |                                               |                |                [0]{}: entry 0x284-0x286 (2)
  0x028|            02                                 |    .           |                  length: 1 0x284-0x285 (1)
  0x028|               61                              |     a          |                  data: "a" 0x285-0x286 (1)
       |                                               |                |                [1]{}: entry 0x286-0x288 (2)
  0x028|                  02                           |      .         |                  length: 1 0x286-0x287 (1)
  0x028|                     62                        |       b        |                  data: "b" 0x287-0x288 (1)
       |                                               |                |            [1]{}: block 0x288-0x289 (1)
  0x028|                        00                     |        .       |              count: 0 0x288-0x289 (1)
       |                                               |                |              data[0:0]: 0x289-0x289 (0)
       |                                               |                |          map[0:2]: 0x289-0x297 (14)
       |                                               |                |            [0]{}: block 0x289-0x296 (13)
  0x028|                           06                  |         .      |              count: 3 0x289-0x28a (1)
       |                                               |                |              data[0:3]: 0x28a-0x296 (12)
       |                                               |                |                [0]{}: entry 0x28a-0x28e (4)
       |                                               |                |                  key{}: 0x28a-0x28c (2)
  0x028|                              02               |          .     |                    length: 1 0x28a-0x28b (1)
  0x028|                                 61            |           a    |                    data: "a" 0x28b-0x28c (1)
       |                                               |                |                  value{}: 0x28c-0x28e (2)
  0x028|                                    02         |            .   |                    length: 1 0x28c-0x28d (1)
  0x028|                                       41      |             A  |                    data: "A" 0x28d-0x28e (1)
       |                                               |                |                [1]{}: entry 0x28e-0x292 (4)
       |                                               |                |                  key{}: 0x28e-0x290 (2)
  0x028|                                          02   |              . |                    length: 1 0x28e-0x28f (1)
  0x028|                                             62|               b|                    data: "b" 0x28f-0x290 (1)
       |                                               |                |                  value{}: 0x290-0x292 (2)
  0x029|02                                             |.               |                    length: 1 0x290-0x291 (1)
  0x029|   42                                          | B              |                    data: "B" 0x291-0x292 (1)
       |                                               |                |                [2]{}: entry 0x292-0x296 (4)
       |                                               |                |                  key{}: 0x292-0x294 (2)
  0x029|      02                                       |  .             |                    length: 1 0x292-0x293 (1)
  0x029|         63                                    |   c            |                    data: "c" 0x293-0x294 (1)
       |                                               |                |                  value{}: 0x294-0x296 (2)
  0x029|            02                                 |    .           |                    length: 1 0x294-0x295 (1)
  0x029|               43                              |     C          |                    data: "C" 0x295-0x296 (1)
       |                                               |                |            [1]{}: block 0x296-0x297 (1)
  0x029|                  00                           |      .         |              count: 0 0x296-0x297 (1)
       |                                               |                |              data[0:0]: 0x297-0x297 (0)
       |                                               |                |          union{}: 0x297-0x29a (3)
  0x029|                     02                        |       .        |            type: 1 0x297-0x298 (1)
       |                                               |                |            value{}: 0x298-0x29a (2)
  0x029|                        02                     |        .       |              length: 1 0x298-0x299 (1)
  0x029|                           38                  |         8      |              data: "8" 0x299-0x29a (1)
  0x029|                              00 01 02 03 04 05|          ......|          fixed: raw bits 0x29a-0x2aa (16)
  0x02a|06 07 08 09 0a 0b 0c 0d 0e 0f                  |..........      |
  0x02a|                              1c               |          .     |          date: "1970-01-15" (14) 0x2aa-0x2ab (1)
  0x02a|                                 d0 a9 07      |           ...  |          timeMillis: "00:01:00.008" (60008) 0x2ab-0x2ae (3)
  0x02a|                                          f0 5d|              .]|          timeMicros: "00:00:00.006008" (6008) 0x2ae-0x2b0 (2)
  0x02b|d0 d9 9b c0 92 37                              |.....7          |          timestampMillis: "2000-01-09T00:01:00.008Z" (947376060008) 0x2b0-0x2b6 (6)
  0x02b|                  f0 dd 97 9f c5 e8 ae 03      |      ........  |          timestampMicros: "2000-01-09T00:00:00.006008Z" (947376000006008) 0x2b6-0x2be (8)
       |                                               |                |        [9]{}: data 0x2be-0x308 (74)
       |                                               |                |          null: null
  0x02b|                                          00   |              . |          boolean: false 0x2be-0x2bf (1)
  0x02b|                                             1c|               .|          int: 14 0x2bf-0x2c0 (1)
  0x02c|50                                             |P               |          long: 40 0x2c0-0x2c1 (1)
  0x02c|   00 00 40 40                                 | ..@@           |          float: 2.304855714121459e-41 0x2c1-0x2c5 (4)
  0x02c|               92 24 49 92 24 49 c2 3f         |     .$I.$I.?   |          double: -2.80620434202585e-221 0x2c5-0x2cd (8)
       |                                               |                |          bytes{}: 0x2cd-0x2cf (2)
  0x02c|                                       02      |             .  |            length: 1 0x2cd-0x2ce (1)
  0x02c|                                          30   |              0 |            data: raw bits 0x2ce-0x2cf (1)
       |                                               |                |          string{}: 0x2cf-0x2d1 (2)
  0x02c|                                             02|               .|            length: 1 0x2cf-0x2d0 (1)
  0x02d|33                                             |3               |            data: "3" 0x2d0-0x2d1 (1)
  0x02d|   00                                          | .              |          enum: "A" (0) 0x2d1-0x2d2 (1)
       |                                               |                |          array[0:1]: 0x2d2-0x2d3 (1)
       |                                               |                |            [0]{}: block 0x2d2-0x2d3 (1)
  0x02d|      00                                       |  .             |              count: 0 0x2d2-0x2d3 (1)
       |                                               |                |              data[0:0]: 0x2d3-0x2d3 (0)
       |                                               |                |          map[0:2]: 0x2d3-0x2e1 (14)
       |                                               |                |            [0]{}: block 0x2d3-0x2e0 (13)
  0x02d|         06                                    |   .            |              count: 3 0x2d3-0x2d4 (1)
       |                                               |                |              data[0:3]: 0x2d4-0x2e0 (12)
       |                                               |                |                [0]{}: entry 0x2d4-0x2d8 (4)
       |                                               |                |                  key{}: 0x2d4-0x2d6 (2)
  0x02d|            02                                 |    .           |                    length: 1 0x2d4-0x2d5 (1)
  0x02d|               61                              |     a          |                    data: "a" 0x2d5-0x2d6 (1)
       |                                               |                |                  value{}: 0x2d6-0x2d8 (2)
  0x02d|                  02                           |      .         |                    length: 1 0x2d6-0x2d7 (1)
  0x02d|                     41                        |       A        |                    data: "A" 0x2d7-0x2d8 (1)
       |                                               |                |                [1]{}: entry 0x2d8-0x2dc (4)
       |                                               |                |                  key{}: 0x2d8-0x2da (2)
  0x02d|                        02                     |        .       |                    length: 1 0x2d8-0x2d9 (1)
  0x02d|                           62                  |         b      |                    data: "b" 0x2d9-0x2da (1)
       |                                               |                |                  value{}: 0x2da-0x2dc (2)
  0x02d|                              02               |          .     |                    length: 1 0x2da-0x2db (1)
  0x02d|                                 42            |           B    |                    data: "B" 0x2db-0x2dc (1)
       |                                               |                |                [2]{}: entry 0x2dc-0x2e0 (4)
       |                                               |                |                  key{}: 0x2dc-0x2de (2)
  0x02d|                                    02         |            .   |                    length: 1 0x2dc-0x2dd (1)
  0x02d|                                       63      |             c  |                    data: "c" 0x2dd-0x2de (1)
       |                                               |                |                  value{}: 0x2de-0x2e0 (2)
  0x02d|                                          02   |              . |                    length: 1 0x2de-0x2df (1)
  0x02d|                                             43|               C|                    data: "C" 0x2df-0x2e0 (1)
       |                                               |                |            [1]{}: block 0x2e0-0x2e1 (1)
  0x02e|00                                             |.               |              count: 0 0x2e0-0x2e1 (1)
       |                                               |                |              data[0:0]: 0x2e1-0x2e1 (0)
       |                                               |                |          union{}: 0x2e1-0x2e4 (3)
  0x02e|   02                                          | .              |            type: 1 0x2e1-0x2e2 (1)
       |                                               |                |            value{}: 0x2e2-0x2e4 (2)
  0x02e|      02                                       |  .             |              length: 1 0x2e2-0x2e3 (1)
  0x02e|         39                                    |   9            |              data: "9" 0x2e3-0x2e4 (1)
  0x02e|            00 01 02 03 04 05 06 07 08 09 0a 0b|    ............|          fixed: raw bits 0x2e4-0x2f4 (16)
  0x02f|0c 0d 0e 0f                                    |....            |
  0x02f|            1e                                 |    .           |          date: "1970-01-16" (15) 0x2f4-0x2f5 (1)
  0x02f|               d2 a9 07                        |     ...        |          timeMillis: "00:01:00.009" (60009) 0x2f5-0x2f8 (3)
  0x02f|                        cd 5d                  |        .]      |          timeMicros: "23:59:59.994009" (-5991) 0x2f8-0x2fa (2)
  0x02f|                              d2 c9 ce 92 93 37|          .....7|          timestampMillis: "2000-01-10T00:01:00.009Z" (947462460009) 0x2fa-0x300 (6)
  0x030|b2 a2 d1 fc c8 ed ae 03|                       |........|       |          timestampMicros: "2000-01-09T23:59:59.994009Z" (947462399994009) 0x300-0x308 (8)
0x00420|14                                             |.               |      count: 10 0x420-0x421 (1)
0x00420|   8c 08                                       | ..             |      size: 518 0x421-0x423 (2)
0x00420|         88 06 f0 52 01 0e 42 00 00 00 00 92 24|   ...R..B.....$|      compressed: raw bits 0x423-0x625 (514)
0x00430|49 92 24 49 f2 3f 02 39 04 31 30 00 00 06 02 61|I.$I.?.9.10....a|
*      |until 0x624.7 (514)                            |                |
0x00620|               87 b8 fe b6                     |     ....       |      crc: 0x87b8feb6 (valid) 0x625-0x629 (4)
0x00620|                           cc cc 61 31 fd 14 d0|         ..a1...|      sync: raw bits (valid) 0x629-0x639 (16)
0x00630|61 16 b6 0f 9d 30 f4 1b f0|                    |a....0...|      |
