# convert -size 4x4 pattern:gray50 -define bmp:format=bmp3 -type truecolor BMP3:4x4.bmp
$ fq -d bmp dv 4x4.bmp
    |00 01 02 03 04 05 06 07 08 09 0a 0b 0c 0d 0e 0f|0123456789abcdef|.{}: 4x4.bmp (bmp) 0x0-0x66 (102)
    |                                               |                |  file_header{}: 0x0-0xe (14)
0x00|42 4d                                          |BM              |    type: "BM" (valid) 0x0-0x2 (2)
0x00|      66 00 00 00                              |  f...          |    size: 102 0x2-0x6 (4)
0x00|                  00 00                        |      ..        |    reserved1: 0 0x6-0x8 (2)
0x00|                        00 00                  |        ..      |    reserved2: 0 0x8-0xa (2)
0x00|                              36 00 00 00      |          6...  |    bitmap_offset: 54 0xa-0xe (4)
    |                                               |                |  dib_header{}: 0xe-0x36 (40)
0x00|                                          28 00|              (.|    size: 40 0xe-0x12 (4)
0x10|00 00                                          |..              |
0x10|      04 00 00 00                              |  ....          |    width: 4 0x12-0x16 (4)
0x10|                  04 00 00 00                  |      ....      |    height: 4 0x16-0x1a (4)
0x10|                              01 00            |          ..    |    planes: 1 0x1a-0x1c (2)
0x10|                                    18 00      |            ..  |    bits_per_pixel: 24 0x1c-0x1e (2)
0x10|                                          00 00|              ..|    compression: "rgb" (0) 0x1e-0x22 (4)
0x20|00 00                                          |..              |
0x20|      30 00 00 00                              |  0...          |    image_size: 48 0x22-0x26 (4)
0x20|                  00 00 00 00                  |      ....      |    x_pixels_per_meter: 0 0x26-0x2a (4)
0x20|                              00 00 00 00      |          ....  |    y_pixels_per_meter: 0 0x2a-0x2e (4)
0x20|                                          00 00|              ..|    colors_used: 0 0x2e-0x32 (4)
0x30|00 00                                          |..              |
0x30|      00 00 00 00                              |  ....          |    colors_important: 0 0x32-0x36 (4)
0x30|                  ff ff ff 00 00 00 ff ff ff 00|      ..........|  pixels: raw bits 0x36-0x66 (48)
0x40|00 00 00 00 00 ff ff ff 00 00 00 ff ff ff ff ff|................|
*   |until 0x65.7 (end) (48)                        |                |
