# convert -size 8x1 pattern:gray50 -monochrome -define bmp:format=bmp3 BMP3:palette.bmp
$ fq -d bmp dv palette.bmp
    |00 01 02 03 04 05 06 07 08 09 0a 0b 0c 0d 0e 0f|0123456789abcdef|.{}: palette.bmp (bmp) 0x0-0x42 (66)
    |                                               |                |  file_header{}: 0x0-0xe (14)
0x00|42 4d                                          |BM              |    type: "BM" (valid) 0x0-0x2 (2)
0x00|      42 00 00 00                              |  B...          |    size: 66 0x2-0x6 (4)
0x00|                  00 00                        |      ..        |    reserved1: 0 0x6-0x8 (2)
0x00|                        00 00                  |        ..      |    reserved2: 0 0x8-0xa (2)
0x00|                              3e 00 00 00      |          >...  |    bitmap_offset: 62 0xa-0xe (4)
    |                                               |                |  dib_header{}: 0xe-0x36 (40)
0x00|                                          28 00|              (.|    size: 40 0xe-0x12 (4)
0x10|00 00                                          |..              |
0x10|      08 00 00 00                              |  ....          |    width: 8 0x12-0x16 (4)
0x10|                  01 00 00 00                  |      ....      |    height: 1 0x16-0x1a (4)
0x10|                              01 00            |          ..    |    planes: 1 0x1a-0x1c (2)
0x10|                                    01 00      |            ..  |    bits_per_pixel: 1 0x1c-0x1e (2)
0x10|                                          00 00|              ..|    compression: "rgb" (0) 0x1e-0x22 (4)
0x20|00 00                                          |..              |
0x20|      04 00 00 00                              |  ....          |    image_size: 4 0x22-0x26 (4)
0x20|                  00 00 00 00                  |      ....      |    x_pixels_per_meter: 0 0x26-0x2a (4)
0x20|                              00 00 00 00      |          ....  |    y_pixels_per_meter: 0 0x2a-0x2e (4)
0x20|                                          02 00|              ..|    colors_used: 2 0x2e-0x32 (4)
0x30|00 00                                          |..              |
0x30|      02 00 00 00                              |  ....          |    colors_important: 2 0x32-0x36 (4)
    |                                               |                |  color_table[0:2]: 0x36-0x3e (8)
    |                                               |                |    [0]{}: color 0x36-0x3a (4)
0x30|                  00                           |      .         |      blue: 0 0x36-0x37 (1)
0x30|                     00                        |       .        |      green: 0 0x37-0x38 (1)
0x30|                        00                     |        .       |      red: 0 0x38-0x39 (1)
0x30|                           00                  |         .      |      reserved: 0 0x39-0x3a (1)
    |                                               |                |    [1]{}: color 0x3a-0x3e (4)
0x30|                              ff               |          .     |      blue: 255 0x3a-0x3b (1)
0x30|                                 ff            |           .    |      green: 255 0x3b-0x3c (1)
0x30|                                    ff         |            .   |      red: 255 0x3c-0x3d (1)
0x30|                                       00      |             .  |      reserved: 0 0x3d-0x3e (1)
0x30|                                          55 00|              U.|  pixels: raw bits 0x3e-0x42 (4)
0x40|00 00|                                         |..|             |
