# BITMAPV4HEADER (108 byte) 2x2 32-bit BGRA image, generated by hand
$ fq -d bmp dv v4.bmp
    |00 01 02 03 04 05 06 07 08 09 0a 0b 0c 0d 0e 0f|0123456789abcdef|.{}: v4.bmp (bmp) 0x0-0x8a (138)
    |                                               |                |  file_header{}: 0x0-0xe (14)
0x00|42 4d                                          |BM              |    type: "BM" (valid) 0x0-0x2 (2)
0x00|      8a 00 00 00                              |  ....          |    size: 138 0x2-0x6 (4)
0x00|                  00 00                        |      ..        |    reserved1: 0 0x6-0x8 (2)
0x00|                        00 00                  |        ..      |    reserved2: 0 0x8-0xa (2)
0x00|                              7a 00 00 00      |          z...  |    bitmap_offset: 122 0xa-0xe (4)
    |                                               |                |  dib_header{}: 0xe-0x7a (108)
0x00|                                          6c 00|              l.|    size: 108 0xe-0x12 (4)
0x10|00 00                                          |..              |
0x10|      02 00 00 00                              |  ....          |    width: 2 0x12-0x16 (4)
0x10|                  02 00 00 00                  |      ....      |    height: 2 0x16-0x1a (4)
0x10|                              01 00            |          ..    |    planes: 1 0x1a-0x1c (2)
0x10|                                    20 00      |             .  |    bits_per_pixel: 32 0x1c-0x1e (2)
0x10|                                          03 00|              ..|    compression: "bitfields" (3) 0x1e-0x22 (4)
0x20|00 00                                          |..              |
0x20|      10 00 00 00                              |  ....          |    image_size: 16 0x22-0x26 (4)
0x20|                  00 00 00 00                  |      ....      |    x_pixels_per_meter: 0 0x26-0x2a (4)
0x20|                              00 00 00 00      |          ....  |    y_pixels_per_meter: 0 0x2a-0x2e (4)
0x20|                                          00 00|              ..|    colors_used: 0 0x2e-0x32 (4)
0x30|00 00                                          |..              |
0x30|      00 00 00 00                              |  ....          |    colors_important: 0 0x32-0x36 (4)
0x30|                  00 00 ff 00 00 ff 00 00 ff 00|      ..........|    rest: raw bits 0x36-0x7a (68)
0x40|00 00 00 00 00 ff 00 00 00 00 00 00 00 00 00 00|................|
*   |until 0x79.7 (68)                              |                |
0x70|                              00 00 ff ff 00 ff|          ......|  pixels: raw bits 0x7a-0x8a (16)
0x80|00 ff ff 00 00 ff ff ff ff ff|                 |..........|     |
