# ffmpeg -f lavfi -i sine -t 10ms -f mp3 pipe:1 | fq - '.headers._bytes, ("\x00\x00\x00" | bytes), .frames._bytes' > header-zeros-frames.mp3
/header-zeros-frames.mp3:
> fq -d mp3  header-zeros-frames.mp3 verbose
     |00 01 02 03 04 05 06 07 08 09 0a 0b 0c 0d 0e 0f|                |.: mp3 0x0-0x1d0.7 (465)
     |                                               |                |  headers: [1] 0x0-0x2c.7 (45)
     |                                               |                |    [0]: id3_v2 (header) 0x0-0x2c.7 (45)
0x000|49 44 33                                       |ID3             |      magic: "ID3" (Correct) 0x0-0x2.7 (3)
0x000|         04                                    |   .            |      version: 4 0x3-0x3.7 (1)
0x000|            00                                 |    .           |      revision: 0 0x4-0x4.7 (1)
     |                                               |                |      flags: {} 0x5-0x5.7 (1)
0x000|               00                              |     .          |        unsynchronisation: false 0x5-0x5 (0.1)
0x000|               00                              |     .          |        extended_header: false 0x5.1-0x5.1 (0.1)
0x000|               00                              |     .          |        experimental_indicator: false 0x5.2-0x5.2 (0.1)
0x000|               00                              |     .          |        unused: 0 0x5.3-0x5.7 (0.5)
0x000|                  00 00 00 23                  |      ...#      |      size: 35 0x6-0x9.7 (4)
     |                                               |                |      frames: [1] 0xa-0x22.7 (25)
     |                                               |                |        [0]: {} (frame) 0xa-0x22.7 (25)
0x000|                              54 53 53 45      |          TSSE  |          id: "TSSE" (Software/Hardware and settings used for encoding) 0xa-0xd.7 (4)
0x000|                                          00 00|              ..|          size: 15 0xe-0x11.7 (4)
0x010|00 0f                                          |..              |
     |                                               |                |          flags: {} 0x12-0x13.7 (2)
0x010|      00                                       |  .             |            unused0: 0 0x12-0x12 (0.1)
0x010|      00                                       |  .             |            tag_alter_preservation: false 0x12.1-0x12.1 (0.1)
0x010|      00                                       |  .             |            file_alter_preservation: false 0x12.2-0x12.2 (0.1)
0x010|      00                                       |  .             |            read_only: false 0x12.3-0x12.3 (0.1)
0x010|      00 00                                    |  ..            |            unused1: 0 0x12.4-0x13 (0.5)
0x010|         00                                    |   .            |            grouping_identity: false 0x13.1-0x13.1 (0.1)
0x010|         00                                    |   .            |            unused2: 0 0x13.2-0x13.3 (0.2)
0x010|         00                                    |   .            |            compression: false 0x13.4-0x13.4 (0.1)
0x010|         00                                    |   .            |            encryption: false 0x13.5-0x13.5 (0.1)
0x010|         00                                    |   .            |            unsync: false 0x13.6-0x13.6 (0.1)
0x010|         00                                    |   .            |            data_length_indicator: false 0x13.7-0x13.7 (0.1)
0x010|            03                                 |    .           |          text_encoding: UTF-8 (3) 0x14-0x14.7 (1)
0x010|               4c 61 76 66 35 38 2e 34 35 2e 31|     Lavf58.45.1|          text: "Lavf58.45.100" 0x15-0x22.7 (14)
0x020|30 30 00                                       |00.             |
0x020|         00 00 00 00 00 00 00 00 00 00         |   ..........   |      padding: Correct (none) (zero padding) 0x23-0x2c.7 (10)
0x020|                                       00 00 00|             ...|  unknown_zeros: 000000 0x2d-0x2f.7 (3)
     |                                               |                |  frames: [2] 0x30-0x1d0.7 (417)
     |                                               |                |    [0]: mp3_frame (frame) 0x30-0xff.7 (208)
0x030|ff fb                                          |..              |      sync: Correct (0x7ff) 0x30-0x31.2 (1.3)
0x030|   fb                                          | .              |      mpeg_version: MPEG Version 1 (1) 0x31.3-0x31.4 (0.2)
0x030|   fb                                          | .              |      layer: Layer III (3) 0x31.5-0x31.6 (0.2)
     |                                               |                |      samples_per_frame: 1152 0x31.7-NA (0)
0x030|   fb                                          | .              |      protection: Not protected (true) 0x31.7-0x31.7 (0.1)
0x030|      50                                       |  P             |      bitrate: 64000 0x32-0x32.3 (0.4)
0x030|      50                                       |  P             |      sample_rate: 44100 0x32.4-0x32.5 (0.2)
0x030|      50                                       |  P             |      padding: Not padded (0b0) 0x32.6-0x32.6 (0.1)
0x030|      50                                       |  P             |      private: 0 0x32.7-0x32.7 (0.1)
0x030|         c4                                    |   .            |      channels: Mono (0b11) 0x33-0x33.1 (0.2)
0x030|         c4                                    |   .            |      channel_mode: 0b0 0x33.2-0x33.3 (0.2)
0x030|         c4                                    |   .            |      copyright: 0 0x33.4-0x33.4 (0.1)
0x030|         c4                                    |   .            |      original: 1 0x33.5-0x33.5 (0.1)
0x030|         c4                                    |   .            |      emphasis: None (0b0) 0x33.6-0x33.7 (0.2)
     |                                               |                |      side_info: {} 0x34-0x44.7 (17)
0x030|            00 00                              |    ..          |        main_data_begin: 0 0x34-0x35 (1.1)
0x030|               00                              |     .          |        private_bits: 0 0x35.1-0x35.5 (0.5)
0x030|               00 0a                           |     ..         |        share0: 0 0x35.6-0x36.1 (0.4)
     |                                               |                |        granules: [2] 0x36.2-0x44.7 (14.6)
     |                                               |                |          [0]: {} (granule) 0x36.2-0x3d.4 (7.3)
0x030|                  0a 2c                        |      .,        |            part2_3_length0: 651 0x36.2-0x37.5 (1.4)
0x030|                     2c 43                     |       ,C       |            big_values0: 33 0x37.6-0x38.6 (1.1)
0x030|                        43 2e                  |        C.      |            global_gain0: 151 0x38.7-0x39.6 (1)
0x030|                           2e 55               |         .U     |            scalefac_compress0: 2 0x39.7-0x3a.2 (0.4)
0x030|                              55               |          U     |            window_switching0: 1 0x3a.3-0x3a.3 (0.1)
0x030|                              55 94            |          U.    |            table_select0_0: 11 0x3a.4-0x3b (0.5)
0x030|                                 94            |           .    |            table_select0_1: 5 0x3b.1-0x3b.5 (0.5)
0x030|                                 94 80         |           ..   |            table_select0_2: 4 0x3b.6-0x3c.2 (0.5)
0x030|                                    80         |            .   |            region0_count0: 0 0x3c.3-0x3c.6 (0.4)
0x030|                                    80 01      |            ..  |            region1_count0: 0 0x3c.7-0x3d.1 (0.3)
0x030|                                       01      |             .  |            preflag0: 0 0x3d.2-0x3d.2 (0.1)
0x030|                                       01      |             .  |            scalefac_scale0: 0 0x3d.3-0x3d.3 (0.1)
0x030|                                       01      |             .  |            count1table_select0: 0 0x3d.4-0x3d.4 (0.1)
     |                                               |                |          [1]: {} (granule) 0x3d.5-0x44.7 (7.3)
0x030|                                       01 80 93|             ...|            part2_3_length0: 769 0x3d.5-0x3f (1.4)
0x030|                                             93|               .|            big_values0: 77 0x3f.1-0x40.1 (1.1)
0x040|6b                                             |k               |
0x040|6b 27                                          |k'              |            global_gain0: 172 0x40.2-0x41.1 (1)
0x040|   27                                          | '              |            scalefac_compress0: 9 0x41.2-0x41.5 (0.4)
0x040|   27                                          | '              |            window_switching0: 1 0x41.6-0x41.6 (0.1)
0x040|   27 30                                       | '0             |            table_select0_0: 19 0x41.7-0x42.3 (0.5)
0x040|      30 80                                    |  0.            |            table_select0_1: 1 0x42.4-0x43 (0.5)
0x040|         80                                    |   .            |            table_select0_2: 0 0x43.1-0x43.5 (0.5)
0x040|         80 00                                 |   ..           |            region0_count0: 0 0x43.6-0x44.1 (0.4)
0x040|            00                                 |    .           |            region1_count0: 0 0x44.2-0x44.4 (0.3)
0x040|            00                                 |    .           |            preflag0: 0 0x44.5-0x44.5 (0.1)
0x040|            00                                 |    .           |            scalefac_scale0: 0 0x44.6-0x44.6 (0.1)
0x040|            00                                 |    .           |            count1table_select0: 0 0x44.7-0x44.7 (0.1)
0x040|               07 aa c3 8e 33 85 d3 64 f1 a1 c1|     ....3..d...|      samples: 07aac38e3385d364f1a1c1081c581f5e... 0x45-0xff.7 (187)
0x050|08 1c 58 1f 5e 1f 18 1c 46 04 1e 89 e5 b3 2e 5a|..X.^...F......Z|
*    |160 bytes more until 0xff.7                    |                |
     |                                               |                |      crc_calculated: e5b0 0x100-NA (0)
     |                                               |                |    [1]: mp3_frame (frame) 0x100-0x1d0.7 (209)
0x100|ff fb                                          |..              |      sync: Correct (0x7ff) 0x100-0x101.2 (1.3)
0x100|   fb                                          | .              |      mpeg_version: MPEG Version 1 (1) 0x101.3-0x101.4 (0.2)
0x100|   fb                                          | .              |      layer: Layer III (3) 0x101.5-0x101.6 (0.2)
     |                                               |                |      samples_per_frame: 1152 0x101.7-NA (0)
0x100|   fb                                          | .              |      protection: Not protected (true) 0x101.7-0x101.7 (0.1)
0x100|      52                                       |  R             |      bitrate: 64000 0x102-0x102.3 (0.4)
0x100|      52                                       |  R             |      sample_rate: 44100 0x102.4-0x102.5 (0.2)
0x100|      52                                       |  R             |      padding: Padded (0b1) 0x102.6-0x102.6 (0.1)
0x100|      52                                       |  R             |      private: 0 0x102.7-0x102.7 (0.1)
0x100|         c4                                    |   .            |      channels: Mono (0b11) 0x103-0x103.1 (0.2)
0x100|         c4                                    |   .            |      channel_mode: 0b0 0x103.2-0x103.3 (0.2)
0x100|         c4                                    |   .            |      copyright: 0 0x103.4-0x103.4 (0.1)
0x100|         c4                                    |   .            |      original: 1 0x103.5-0x103.5 (0.1)
0x100|         c4                                    |   .            |      emphasis: None (0b0) 0x103.6-0x103.7 (0.2)
     |                                               |                |      side_info: {} 0x104-0x114.7 (17)
0x100|            04 83                              |    ..          |        main_data_begin: 9 0x104-0x105 (1.1)
0x100|               83                              |     .          |        private_bits: 0 0x105.1-0x105.5 (0.5)
0x100|               83 c9                           |     ..         |        share0: 15 0x105.6-0x106.1 (0.4)
     |                                               |                |        granules: [2] 0x106.2-0x114.7 (14.6)
     |                                               |                |          [0]: {} (granule) 0x106.2-0x10d.4 (7.3)
0x100|                  c9 14                        |      ..        |            part2_3_length0: 581 0x106.2-0x107.5 (1.4)
0x100|                     14 39                     |       .9       |            big_values0: 28 0x107.6-0x108.6 (1.1)
0x100|                        39 29                  |        9)      |            global_gain0: 148 0x108.7-0x109.6 (1)
0x100|                           29 3c               |         )<     |            scalefac_compress0: 9 0x109.7-0x10a.2 (0.4)
0x100|                              3c               |          <     |            window_switching0: 1 0x10a.3-0x10a.3 (0.1)
0x100|                              3c c3            |          <.    |            table_select0_0: 25 0x10a.4-0x10b (0.5)
0x100|                                 c3            |           .    |            table_select0_1: 16 0x10b.1-0x10b.5 (0.5)
0x100|                                 c3 00         |           ..   |            table_select0_2: 24 0x10b.6-0x10c.2 (0.5)
0x100|                                    00         |            .   |            region0_count0: 0 0x10c.3-0x10c.6 (0.4)
0x100|                                    00 00      |            ..  |            region1_count0: 0 0x10c.7-0x10d.1 (0.3)
0x100|                                       00      |             .  |            preflag0: 0 0x10d.2-0x10d.2 (0.1)
0x100|                                       00      |             .  |            scalefac_scale0: 0 0x10d.3-0x10d.3 (0.1)
0x100|                                       00      |             .  |            count1table_select0: 0 0x10d.4-0x10d.4 (0.1)
     |                                               |                |          [1]: {} (granule) 0x10d.5-0x114.7 (7.3)
0x100|                                       00 00 00|             ...|            part2_3_length0: 0 0x10d.5-0x10f (1.4)
0x100|                                             00|               .|            big_values0: 0 0x10f.1-0x110.1 (1.1)
0x110|34                                             |4               |
0x110|34 80                                          |4.              |            global_gain0: 210 0x110.2-0x111.1 (1)
0x110|   80                                          | .              |            scalefac_compress0: 0 0x111.2-0x111.5 (0.4)
0x110|   80                                          | .              |            window_switching0: 0 0x111.6-0x111.6 (0.1)
0x110|   80 00                                       | ..             |            table_select0_0: 0 0x111.7-0x112.3 (0.5)
0x110|      00 00                                    |  ..            |            table_select0_1: 0 0x112.4-0x113 (0.5)
0x110|         00                                    |   .            |            table_select0_2: 0 0x113.1-0x113.5 (0.5)
0x110|         00 04                                 |   ..           |            region0_count0: 0 0x113.6-0x114.1 (0.4)
0x110|            04                                 |    .           |            region1_count0: 0 0x114.2-0x114.4 (0.3)
0x110|            04                                 |    .           |            preflag0: 1 0x114.5-0x114.5 (0.1)
0x110|            04                                 |    .           |            scalefac_scale0: 0 0x114.6-0x114.6 (0.1)
0x110|            04                                 |    .           |            count1table_select0: 0 0x114.7-0x114.7 (0.1)
0x110|               11 4b 36 4a 08 83 58 c9 20 d4 29|     .K6J..X. .)|      samples: 114b364a088358c920d4295298c8c8f9... 0x115-0x1d0.7 (188)
0x120|52 98 c8 c8 f9 13 80 40 24 bc 91 23 42 50 56 0d|R......@$..#BPV.|
*    |161 bytes more until 0x1d0.7 (end)             |                |
     |                                               |                |      crc_calculated: 61fd 0x1d1-NA (0)
     |                                               |                |  footers: [0] 0x1d1-NA (0)
