# ffmpeg -y -f lavfi -i sine -ac 1 -t 10ms -f mp3 file && fq file '.frame[1] | bits' > mp3-frame-mono
/mp3-frame-mono:
> fq -d mp3_frame mp3-frame-mono verbose
    |00 01 02 03 04 05 06 07 08 09 0a 0b 0c 0d 0e 0f|                |.: mp3_frame 0x0-0xcf.7 (208)
0x00|ff fb                                          |..              |  sync: Correct (0x7ff) 0x0-0x1.2 (1.3)
0x00|   fb                                          | .              |  mpeg_version: MPEG Version 1 (1) 0x1.3-0x1.4 (0.2)
0x00|   fb                                          | .              |  layer: Layer III (3) 0x1.5-0x1.6 (0.2)
    |                                               |                |  samples_per_frame: 1152 0x1.7-NA (0)
0x00|   fb                                          | .              |  protection: Not protected (true) 0x1.7-0x1.7 (0.1)
0x00|      50                                       |  P             |  bitrate: 64000 0x2-0x2.3 (0.4)
0x00|      50                                       |  P             |  sample_rate: 44100 0x2.4-0x2.5 (0.2)
0x00|      50                                       |  P             |  padding: Not padded (0b0) 0x2.6-0x2.6 (0.1)
0x00|      50                                       |  P             |  private: 0 0x2.7-0x2.7 (0.1)
0x00|         c4                                    |   .            |  channels: Mono (0b11) 0x3-0x3.1 (0.2)
0x00|         c4                                    |   .            |  channel_mode: 0b0 0x3.2-0x3.3 (0.2)
0x00|         c4                                    |   .            |  copyright: 0 0x3.4-0x3.4 (0.1)
0x00|         c4                                    |   .            |  original: 1 0x3.5-0x3.5 (0.1)
0x00|         c4                                    |   .            |  emphasis: None (0b0) 0x3.6-0x3.7 (0.2)
    |                                               |                |  side_info: {} 0x4-0x14.7 (17)
0x00|            00 00                              |    ..          |    main_data_begin: 0 0x4-0x5 (1.1)
0x00|               00                              |     .          |    private_bits: 0 0x5.1-0x5.5 (0.5)
0x00|               00 0a                           |     ..         |    share0: 0 0x5.6-0x6.1 (0.4)
    |                                               |                |    granules: [2] 0x6.2-0x14.7 (14.6)
    |                                               |                |      [0]: {} (granule) 0x6.2-0xd.4 (7.3)
0x00|                  0a 2c                        |      .,        |        part2_3_length0: 651 0x6.2-0x7.5 (1.4)
0x00|                     2c 43                     |       ,C       |        big_values0: 33 0x7.6-0x8.6 (1.1)
0x00|                        43 2e                  |        C.      |        global_gain0: 151 0x8.7-0x9.6 (1)
0x00|                           2e 55               |         .U     |        scalefac_compress0: 2 0x9.7-0xa.2 (0.4)
0x00|                              55               |          U     |        window_switching0: 1 0xa.3-0xa.3 (0.1)
0x00|                              55 94            |          U.    |        table_select0_0: 11 0xa.4-0xb (0.5)
0x00|                                 94            |           .    |        table_select0_1: 5 0xb.1-0xb.5 (0.5)
0x00|                                 94 80         |           ..   |        table_select0_2: 4 0xb.6-0xc.2 (0.5)
0x00|                                    80         |            .   |        region0_count0: 0 0xc.3-0xc.6 (0.4)
0x00|                                    80 01      |            ..  |        region1_count0: 0 0xc.7-0xd.1 (0.3)
0x00|                                       01      |             .  |        preflag0: 0 0xd.2-0xd.2 (0.1)
0x00|                                       01      |             .  |        scalefac_scale0: 0 0xd.3-0xd.3 (0.1)
0x00|                                       01      |             .  |        count1table_select0: 0 0xd.4-0xd.4 (0.1)
    |                                               |                |      [1]: {} (granule) 0xd.5-0x14.7 (7.3)
0x00|                                       01 80 93|             ...|        part2_3_length0: 769 0xd.5-0xf (1.4)
0x00|                                             93|               .|        big_values0: 77 0xf.1-0x10.1 (1.1)
0x10|6b                                             |k               |
0x10|6b 27                                          |k'              |        global_gain0: 172 0x10.2-0x11.1 (1)
0x10|   27                                          | '              |        scalefac_compress0: 9 0x11.2-0x11.5 (0.4)
0x10|   27                                          | '              |        window_switching0: 1 0x11.6-0x11.6 (0.1)
0x10|   27 30                                       | '0             |        table_select0_0: 19 0x11.7-0x12.3 (0.5)
0x10|      30 80                                    |  0.            |        table_select0_1: 1 0x12.4-0x13 (0.5)
0x10|         80                                    |   .            |        table_select0_2: 0 0x13.1-0x13.5 (0.5)
0x10|         80 00                                 |   ..           |        region0_count0: 0 0x13.6-0x14.1 (0.4)
0x10|            00                                 |    .           |        region1_count0: 0 0x14.2-0x14.4 (0.3)
0x10|            00                                 |    .           |        preflag0: 0 0x14.5-0x14.5 (0.1)
0x10|            00                                 |    .           |        scalefac_scale0: 0 0x14.6-0x14.6 (0.1)
0x10|            00                                 |    .           |        count1table_select0: 0 0x14.7-0x14.7 (0.1)
0x10|               07 aa c3 8e 33 85 d3 64 f1 a1 c1|     ....3..d...|  samples: 07aac38e3385d364f1a1c1081c581f5e... 0x15-0xcf.7 (187)
0x20|08 1c 58 1f 5e 1f 18 1c 46 04 1e 89 e5 b3 2e 5a|..X.^...F......Z|
*   |160 bytes more until 0xcf.7 (end)              |                |
    |                                               |                |  crc_calculated: e5b0 0xd0-NA (0)
