# ffmpeg -y -f lavfi -i sine -ac 2 -t 10ms -f mp3 file && fq file '.frame[1] | bits' > mp3-frame-stereo
/mp3-frame-stereo:
> fq -d mp3_frame mp3-frame-stereo verbose
     |00 01 02 03 04 05 06 07 08 09 0a 0b 0c 0d 0e 0f|                |.: mp3_frame 0x0-0x1a0+7 (417)
0x000|ff fb                                          |..              |  sync: Correct (7ff) 0x0-0x1+2 (1+3)
0x000|   fb                                          | .              |  mpeg_version: MPEG Version 1 (1) 0x1+3-0x1+4 (0+2)
0x000|   fb                                          | .              |  layer: Layer III (3) 0x1+5-0x1+6 (0+2)
     |                                               |                |  samples_per_frame: 1152 0x1+7-NA (0)
0x000|   fb                                          | .              |  protection: Not protected (true) 0x1+7-0x1+7 (0+1)
0x000|      90                                       |  .             |  bitrate: 128000 0x2-0x2+3 (0+4)
0x000|      90                                       |  .             |  sample_rate: 44100 0x2+4-0x2+5 (0+2)
0x000|      90                                       |  .             |  padding: Not padded (0) 0x2+6-0x2+6 (0+1)
0x000|      90                                       |  .             |  private: 0 0x2+7-0x2+7 (0+1)
0x000|         64                                    |   d            |  channels: Joint Stereo (1) 0x3-0x3+1 (0+2)
0x000|         64                                    |   d            |  channel_mode: MS Stereo (2) 0x3+2-0x3+3 (0+2)
0x000|         64                                    |   d            |  copyright: 0 0x3+4-0x3+4 (0+1)
0x000|         64                                    |   d            |  original: 1 0x3+5-0x3+5 (0+1)
0x000|         64                                    |   d            |  emphasis: None (0) 0x3+6-0x3+7 (0+2)
     |                                               |                | -side_info: 0x4-0x23+7 (32)
0x000|            00 00                              |    ..          |    main_data_begin: 0 0x4-0x5 (1+1)
0x000|               00                              |     .          |    private_bits: 0 0x5+1-0x5+3 (0+3)
0x000|               00                              |     .          |    share0: 0 0x5+4-0x5+7 (0+4)
0x000|                  02                           |      .         |    share1: 0 0x6-0x6+3 (0+4)
     |                                               |                |    granules[2]: 0x6+4-0x23+7 (29+4)
     |                                               |                |     -[0]: (granule) 0x6+4-0x15+1 (14+6)
0x000|                  02 6b                        |      .k        |        part2_3_length0: 619 0x6+4-0x7+7 (1+4)
0x000|                        0b ce                  |        ..      |        part2_3_length1: 188 0x8-0x9+3 (1+4)
0x000|                           ce 9d               |         ..     |        big_values0: 467 0x9+4-0xa+4 (1+1)
0x000|                              9d 60            |          .`    |        big_values1: 344 0xa+5-0xb+5 (1+1)
0x000|                                 60 60         |           ``   |        global_gain0: 24 0xb+6-0xc+5 (1)
0x000|                                    60 00      |            `.  |        global_gain1: 0 0xc+6-0xd+5 (1)
0x000|                                       00 00   |             .. |        scalefac_compress0: 0 0xd+6-0xe+1 (0+4)
0x000|                                          00   |              . |        scalefac_compress1: 0 0xe+2-0xe+5 (0+4)
0x000|                                          00   |              . |        window_switching0: 0 0xe+6-0xe+6 (0+1)
0x000|                                          00   |              . |        window_switching1: 0 0xe+7-0xe+7 (0+1)
0x000|                                             00|               .|        table_select0_0: 0 0xf-0xf+4 (0+5)
0x000|                                             00|               .|        table_select0_1: 0 0xf+5-0x10+1 (0+5)
0x010|0d                                             |.               |
0x010|0d                                             |.               |        table_select0_2: 6 0x10+2-0x10+6 (0+5)
0x010|0d 20                                          |.               |        table_select1_0: 18 0x10+7-0x11+3 (0+5)
0x010|   20 a0                                       |  .             |        table_select1_1: 1 0x11+4-0x12 (0+5)
0x010|      a0                                       |  .             |        table_select1_2: 8 0x12+1-0x12+5 (0+5)
0x010|      a0 00                                    |  ..            |        region0_count0: 0 0x12+6-0x13+1 (0+4)
0x010|         00                                    |   .            |        region0_count1: 0 0x13+2-0x13+5 (0+4)
0x010|         00 01                                 |   ..           |        region1_count0: 0 0x13+6-0x14 (0+3)
0x010|            01                                 |    .           |        region1_count1: 0 0x14+1-0x14+3 (0+3)
0x010|            01                                 |    .           |        preflag0: 0 0x14+4-0x14+4 (0+1)
0x010|            01                                 |    .           |        preflag1: 0 0x14+5-0x14+5 (0+1)
0x010|            01                                 |    .           |        scalefac_scale0: 0 0x14+6-0x14+6 (0+1)
0x010|            01                                 |    .           |        scalefac_scale1: 1 0x14+7-0x14+7 (0+1)
0x010|               18                              |     .          |        count1table_select0: 0 0x15-0x15 (0+1)
0x010|               18                              |     .          |        count1table_select1: 0 0x15+1-0x15+1 (0+1)
     |                                               |                |     -[1]: (granule) 0x15+2-0x23+7 (14+6)
0x010|               18 c9                           |     ..         |        part2_3_length0: 1586 0x15+2-0x16+5 (1+4)
0x010|                  c9 99 51                     |      ..Q       |        part2_3_length1: 1637 0x16+6-0x18+1 (1+4)
0x010|                        51 b9                  |        Q.      |        big_values0: 141 0x18+2-0x19+2 (1+1)
0x010|                           b9 a7               |         ..     |        big_values1: 410 0x19+3-0x1a+3 (1+1)
0x010|                              a7 80            |          ..    |        global_gain0: 120 0x1a+4-0x1b+3 (1)
0x010|                                 80 00         |           ..   |        global_gain1: 0 0x1b+4-0x1c+3 (1)
0x010|                                    00         |            .   |        scalefac_compress0: 0 0x1c+4-0x1c+7 (0+4)
0x010|                                       00      |             .  |        scalefac_compress1: 0 0x1d-0x1d+3 (0+4)
0x010|                                       00      |             .  |        window_switching0: 0 0x1d+4-0x1d+4 (0+1)
0x010|                                       00      |             .  |        window_switching1: 0 0x1d+5-0x1d+5 (0+1)
0x010|                                       00 00   |             .. |        table_select0_0: 0 0x1d+6-0x1e+2 (0+5)
0x010|                                          00   |              . |        table_select0_1: 0 0x1e+3-0x1e+7 (0+5)
0x010|                                             34|               4|        table_select0_2: 6 0x1f-0x1f+4 (0+5)
0x010|                                             34|               4|        table_select1_0: 18 0x1f+5-0x20+1 (0+5)
0x020|83                                             |.               |
0x020|83                                             |.               |        table_select1_1: 1 0x20+2-0x20+6 (0+5)
0x020|83 00                                          |..              |        table_select1_2: 16 0x20+7-0x21+3 (0+5)
0x020|   00                                          | .              |        region0_count0: 0 0x21+4-0x21+7 (0+4)
0x020|      00                                       |  .             |        region0_count1: 0 0x22-0x22+3 (0+4)
0x020|      00                                       |  .             |        region1_count0: 0 0x22+4-0x22+6 (0+3)
0x020|      00 00                                    |  ..            |        region1_count1: 0 0x22+7-0x23+1 (0+3)
0x020|         00                                    |   .            |        preflag0: 0 0x23+2-0x23+2 (0+1)
0x020|         00                                    |   .            |        preflag1: 0 0x23+3-0x23+3 (0+1)
0x020|         00                                    |   .            |        scalefac_scale0: 0 0x23+4-0x23+4 (0+1)
0x020|         00                                    |   .            |        scalefac_scale1: 0 0x23+5-0x23+5 (0+1)
0x020|         00                                    |   .            |        count1table_select0: 0 0x23+6-0x23+6 (0+1)
0x020|         00                                    |   .            |        count1table_select1: 0 0x23+7-0x23+7 (0+1)
0x020|            0a 6b 6d d8 c2 12 cd a0 0d bf 4d 03|    .km.......M.|  samples: 0a6b6dd8c212cda00dbf4d03018d4c35... 0x24-0x1a0+7 (381)
0x030|01 8d 4c 35 18 20 0c 1d db 6b 6d 7d df 7f e3 72|..L5. ...km}...r|
*    |353 bytes more until 0x1a0+7 (end)             |                |
     |                                               |                |  crc_calculated: 1855 0x1a1-NA (0)
