> fq -d mp3 test.mp3 '.headers[0].magic | verbose'
   |00 01 02 03 04 05 06 07 08 09 0a 0b 0c 0d 0e 0f|                |
0x0|49 44 33                                       |ID3             |.headers[0].magic: "ID3" (Correct) 0x0-0x2.7 (3)
/test.mp3:
> fq -d mp3 test.mp3 verbose
     |00 01 02 03 04 05 06 07 08 09 0a 0b 0c 0d 0e 0f|                |.: mp3 0x0-0x452.7 (1107)
     |                                               |                |  headers: [1] 0x0-0x3b.7 (60)
     |                                               |                |    [0]: id3_v2 (header) 0x0-0x3b.7 (60)
0x000|49 44 33                                       |ID3             |      magic: "ID3" (Correct) 0x0-0x2.7 (3)
0x000|         04                                    |   .            |      version: 4 0x3-0x3.7 (1)
0x000|            00                                 |    .           |      revision: 0 0x4-0x4.7 (1)
     |                                               |                |      flags: {} 0x5-0x5.7 (1)
0x000|               00                              |     .          |        unsynchronisation: false 0x5-0x5 (0.1)
0x000|               00                              |     .          |        extended_header: false 0x5.1-0x5.1 (0.1)
0x000|               00                              |     .          |        experimental_indicator: false 0x5.2-0x5.2 (0.1)
0x000|               00                              |     .          |        unused: 0 0x5.3-0x5.7 (0.5)
0x000|                  00 00 00 32                  |      ...2      |      size: 50 0x6-0x9.7 (4)
     |                                               |                |      frames: [2] 0xa-0x31.7 (40)
     |                                               |                |        [0]: {} (frame) 0xa-0x18.7 (15)
0x000|                              54 50 45 31      |          TPE1  |          id: "TPE1" (Lead performer(s)/Soloist(s)) 0xa-0xd.7 (4)
0x000|                                          00 00|              ..|          size: 5 0xe-0x11.7 (4)
0x010|00 05                                          |..              |
     |                                               |                |          flags: {} 0x12-0x13.7 (2)
0x010|      00                                       |  .             |            unused0: 0 0x12-0x12 (0.1)
0x010|      00                                       |  .             |            tag_alter_preservation: false 0x12.1-0x12.1 (0.1)
0x010|      00                                       |  .             |            file_alter_preservation: false 0x12.2-0x12.2 (0.1)
0x010|      00                                       |  .             |            read_only: false 0x12.3-0x12.3 (0.1)
0x010|      00 00                                    |  ..            |            unused1: 0 0x12.4-0x13 (0.5)
0x010|         00                                    |   .            |            grouping_identity: false 0x13.1-0x13.1 (0.1)
0x010|         00                                    |   .            |            unused2: 0 0x13.2-0x13.3 (0.2)
0x010|         00                                    |   .            |            compression: false 0x13.4-0x13.4 (0.1)
0x010|         00                                    |   .            |            encryption: false 0x13.5-0x13.5 (0.1)
0x010|         00                                    |   .            |            unsync: false 0x13.6-0x13.6 (0.1)
0x010|         00                                    |   .            |            data_length_indicator: false 0x13.7-0x13.7 (0.1)
0x010|            03                                 |    .           |          text_encoding: UTF-8 (3) 0x14-0x14.7 (1)
0x010|               62 6c 61 00                     |     bla.       |          text: "bla" 0x15-0x18.7 (4)
     |                                               |                |        [1]: {} (frame) 0x19-0x31.7 (25)
0x010|                           54 53 53 45         |         TSSE   |          id: "TSSE" (Software/Hardware and settings used for encoding) 0x19-0x1c.7 (4)
0x010|                                       00 00 00|             ...|          size: 15 0x1d-0x20.7 (4)
0x020|0f                                             |.               |
     |                                               |                |          flags: {} 0x21-0x22.7 (2)
0x020|   00                                          | .              |            unused0: 0 0x21-0x21 (0.1)
0x020|   00                                          | .              |            tag_alter_preservation: false 0x21.1-0x21.1 (0.1)
0x020|   00                                          | .              |            file_alter_preservation: false 0x21.2-0x21.2 (0.1)
0x020|   00                                          | .              |            read_only: false 0x21.3-0x21.3 (0.1)
0x020|   00 00                                       | ..             |            unused1: 0 0x21.4-0x22 (0.5)
0x020|      00                                       |  .             |            grouping_identity: false 0x22.1-0x22.1 (0.1)
0x020|      00                                       |  .             |            unused2: 0 0x22.2-0x22.3 (0.2)
0x020|      00                                       |  .             |            compression: false 0x22.4-0x22.4 (0.1)
0x020|      00                                       |  .             |            encryption: false 0x22.5-0x22.5 (0.1)
0x020|      00                                       |  .             |            unsync: false 0x22.6-0x22.6 (0.1)
0x020|      00                                       |  .             |            data_length_indicator: false 0x22.7-0x22.7 (0.1)
0x020|         03                                    |   .            |          text_encoding: UTF-8 (3) 0x23-0x23.7 (1)
0x020|            4c 61 76 66 35 38 2e 34 35 2e 31 30|    Lavf58.45.10|          text: "Lavf58.45.100" 0x24-0x31.7 (14)
0x030|30 00                                          |0.              |
0x030|      00 00 00 00 00 00 00 00 00 00            |  ..........    |      padding: Correct (none) (zero padding) 0x32-0x3b.7 (10)
     |                                               |                |  frames: [3] 0x3c-0x44e.7 (1043)
     |                                               |                |    [0]: mp3_frame (frame) 0x3c-0x10b.7 (208)
     |                                               |                |      header: {} 0x3c-0x3f.7 (4)
0x030|                                    ff fb      |            ..  |        sync: Correct (0x7ff) 0x3c-0x3d.2 (1.3)
0x030|                                       fb      |             .  |        mpeg_version: MPEG Version 1 (1) 0x3d.3-0x3d.4 (0.2)
0x030|                                       fb      |             .  |        layer: Layer III (3) 0x3d.5-0x3d.6 (0.2)
     |                                               |                |        samples_per_frame: 1152 0x3d.7-NA (0)
0x030|                                       fb      |             .  |        protection: Not protected (true) 0x3d.7-0x3d.7 (0.1)
0x030|                                          50   |              P |        bitrate: 64000 0x3e-0x3e.3 (0.4)
0x030|                                          50   |              P |        sample_rate: 44100 0x3e.4-0x3e.5 (0.2)
0x030|                                          50   |              P |        padding: Not padded (0b0) 0x3e.6-0x3e.6 (0.1)
0x030|                                          50   |              P |        private: 0 0x3e.7-0x3e.7 (0.1)
0x030|                                             00|               .|        channels: Stereo (0b0) 0x3f-0x3f.1 (0.2)
0x030|                                             00|               .|        channel_mode: 0b0 0x3f.2-0x3f.3 (0.2)
0x030|                                             00|               .|        copyright: 0 0x3f.4-0x3f.4 (0.1)
0x030|                                             00|               .|        original: 0 0x3f.5-0x3f.5 (0.1)
0x030|                                             00|               .|        emphasis: None (0b0) 0x3f.6-0x3f.7 (0.2)
     |                                               |                |      side_info: {} 0x40-0x5f.7 (32)
0x040|00 00                                          |..              |        main_data_end: 0 0x40-0x41 (1.1)
0x040|   00                                          | .              |        private_bits: 0 0x41.1-0x41.3 (0.3)
0x040|   00                                          | .              |        share0: 0 0x41.4-0x41.7 (0.4)
0x040|      00                                       |  .             |        share1: 0 0x42-0x42.3 (0.4)
     |                                               |                |        granules: [2] 0x42.4-0x5f.7 (29.4)
     |                                               |                |          [0]: {} (granule) 0x42.4-0x51.1 (14.6)
     |                                               |                |            channels: [2] 0x42.4-0x51.1 (14.6)
     |                                               |                |              [0]: {} (channel) 0x42.4-0x49.6 (7.3)
0x040|      00 00                                    |  ..            |                part2_3_length: 0 0x42.4-0x43.7 (1.4)
0x040|            00 00                              |    ..          |                big_values: 0 0x44-0x45 (1.1)
0x040|               00 00                           |     ..         |                global_gain: 0 0x45.1-0x46 (1)
0x040|                  00                           |      .         |                scalefac_compress: 0 0x46.1-0x46.4 (0.4)
0x040|                  00                           |      .         |                blocksplit_flag: 0 0x46.5-0x46.5 (0.1)
0x040|                  00 00                        |      ..        |                table_select0: 0 0x46.6-0x47.2 (0.5)
0x040|                     00                        |       .        |                table_select1: 0 0x47.3-0x47.7 (0.5)
0x040|                        00                     |        .       |                table_select2: 0 0x48-0x48.4 (0.5)
0x040|                        00 00                  |        ..      |                region_address1: 0 0x48.5-0x49 (0.4)
0x040|                           00                  |         .      |                region_address2: 0 0x49.1-0x49.3 (0.3)
0x040|                           00                  |         .      |                preflag: 0 0x49.4-0x49.4 (0.1)
0x040|                           00                  |         .      |                scalefac_scale: 0 0x49.5-0x49.5 (0.1)
0x040|                           00                  |         .      |                count1table_select: 0 0x49.6-0x49.6 (0.1)
     |                                               |                |              [1]: {} (channel) 0x49.7-0x51.1 (7.3)
0x040|                           00 00 00            |         ...    |                part2_3_length: 0 0x49.7-0x4b.2 (1.4)
0x040|                                 00 00         |           ..   |                big_values: 0 0x4b.3-0x4c.3 (1.1)
0x040|                                    00 00      |            ..  |                global_gain: 0 0x4c.4-0x4d.3 (1)
0x040|                                       00      |             .  |                scalefac_compress: 0 0x4d.4-0x4d.7 (0.4)
0x040|                                          00   |              . |                blocksplit_flag: 0 0x4e-0x4e (0.1)
0x040|                                          00   |              . |                table_select0: 0 0x4e.1-0x4e.5 (0.5)
0x040|                                          00 00|              ..|                table_select1: 0 0x4e.6-0x4f.2 (0.5)
0x040|                                             00|               .|                table_select2: 0 0x4f.3-0x4f.7 (0.5)
0x050|00                                             |.               |                region_address1: 0 0x50-0x50.3 (0.4)
0x050|00                                             |.               |                region_address2: 0 0x50.4-0x50.6 (0.3)
0x050|00                                             |.               |                preflag: 0 0x50.7-0x50.7 (0.1)
0x050|   00                                          | .              |                scalefac_scale: 0 0x51-0x51 (0.1)
0x050|   00                                          | .              |                count1table_select: 0 0x51.1-0x51.1 (0.1)
     |                                               |                |          [1]: {} (granule) 0x51.2-0x5f.7 (14.6)
     |                                               |                |            channels: [2] 0x51.2-0x5f.7 (14.6)
     |                                               |                |              [0]: {} (channel) 0x51.2-0x58.4 (7.3)
0x050|   00 00                                       | ..             |                part2_3_length: 0 0x51.2-0x52.5 (1.4)
0x050|      00 00                                    |  ..            |                big_values: 0 0x52.6-0x53.6 (1.1)
0x050|         00 00                                 |   ..           |                global_gain: 0 0x53.7-0x54.6 (1)
0x050|            00 00                              |    ..          |                scalefac_compress: 0 0x54.7-0x55.2 (0.4)
0x050|               00                              |     .          |                blocksplit_flag: 0 0x55.3-0x55.3 (0.1)
0x050|               00 00                           |     ..         |                table_select0: 0 0x55.4-0x56 (0.5)
0x050|                  00                           |      .         |                table_select1: 0 0x56.1-0x56.5 (0.5)
0x050|                  00 00                        |      ..        |                table_select2: 0 0x56.6-0x57.2 (0.5)
0x050|                     00                        |       .        |                region_address1: 0 0x57.3-0x57.6 (0.4)
0x050|                     00 00                     |       ..       |                region_address2: 0 0x57.7-0x58.1 (0.3)
0x050|                        00                     |        .       |                preflag: 0 0x58.2-0x58.2 (0.1)
0x050|                        00                     |        .       |                scalefac_scale: 0 0x58.3-0x58.3 (0.1)
0x050|                        00                     |        .       |                count1table_select: 0 0x58.4-0x58.4 (0.1)
     |                                               |                |              [1]: {} (channel) 0x58.5-0x5f.7 (7.3)
0x050|                        00 00 00               |        ...     |                part2_3_length: 0 0x58.5-0x5a (1.4)
0x050|                              00 00            |          ..    |                big_values: 0 0x5a.1-0x5b.1 (1.1)
0x050|                                 00 00         |           ..   |                global_gain: 0 0x5b.2-0x5c.1 (1)
0x050|                                    00         |            .   |                scalefac_compress: 0 0x5c.2-0x5c.5 (0.4)
0x050|                                    00         |            .   |                blocksplit_flag: 0 0x5c.6-0x5c.6 (0.1)
0x050|                                    00 00      |            ..  |                table_select0: 0 0x5c.7-0x5d.3 (0.5)
0x050|                                       00 00   |             .. |                table_select1: 0 0x5d.4-0x5e (0.5)
0x050|                                          00   |              . |                table_select2: 0 0x5e.1-0x5e.5 (0.5)
0x050|                                          00 00|              ..|                region_address1: 0 0x5e.6-0x5f.1 (0.4)
0x050|                                             00|               .|                region_address2: 0 0x5f.2-0x5f.4 (0.3)
0x050|                                             00|               .|                preflag: 0 0x5f.5-0x5f.5 (0.1)
0x050|                                             00|               .|                scalefac_scale: 0 0x5f.6-0x5f.6 (0.1)
0x050|                                             00|               .|                count1table_select: 0 0x5f.7-0x5f.7 (0.1)
     |                                               |                |      xing: mp3_xing 0x60-0xfb.7 (156)
0x060|49 6e 66 6f                                    |Info            |        header: "Info" 0x60-0x63.7 (4)
     |                                               |                |        present_flags: {} 0x64-0x67.7 (4)
0x060|            00 00 00 0f                        |    ....        |          unused: 0 0x64-0x67.3 (3.4)
0x060|                     0f                        |       .        |          quality: true 0x67.4-0x67.4 (0.1)
0x060|                     0f                        |       .        |          toc: true 0x67.5-0x67.5 (0.1)
0x060|                     0f                        |       .        |          bytes: true 0x67.6-0x67.6 (0.1)
0x060|                     0f                        |       .        |          frames: true 0x67.7-0x67.7 (0.1)
0x060|                        00 00 00 02            |        ....    |        frames: 2 0x68-0x6b.7 (4)
0x060|                                    00 00 04 13|            ....|        bytes: 1043 0x6c-0x6f.7 (4)
     |                                               |                |        toc: [100] 0x70-0xd3.7 (100)
0x070|00                                             |.               |          [0]: 0 (entry) 0x70-0x70.7 (1)
0x070|   99                                          | .              |          [1]: 153 (entry) 0x71-0x71.7 (1)
0x070|      99                                       |  .             |          [2]: 153 (entry) 0x72-0x72.7 (1)
0x070|         99                                    |   .            |          [3]: 153 (entry) 0x73-0x73.7 (1)
0x070|            99                                 |    .           |          [4]: 153 (entry) 0x74-0x74.7 (1)
0x070|               99                              |     .          |          [5]: 153 (entry) 0x75-0x75.7 (1)
0x070|                  99                           |      .         |          [6]: 153 (entry) 0x76-0x76.7 (1)
0x070|                     99                        |       .        |          [7]: 153 (entry) 0x77-0x77.7 (1)
0x070|                        99                     |        .       |          [8]: 153 (entry) 0x78-0x78.7 (1)
0x070|                           99                  |         .      |          [9]: 153 (entry) 0x79-0x79.7 (1)
0x070|                              99               |          .     |          [10]: 153 (entry) 0x7a-0x7a.7 (1)
0x070|                                 99            |           .    |          [11]: 153 (entry) 0x7b-0x7b.7 (1)
0x070|                                    99         |            .   |          [12]: 153 (entry) 0x7c-0x7c.7 (1)
0x070|                                       99      |             .  |          [13]: 153 (entry) 0x7d-0x7d.7 (1)
0x070|                                          99   |              . |          [14]: 153 (entry) 0x7e-0x7e.7 (1)
0x070|                                             99|               .|          [15]: 153 (entry) 0x7f-0x7f.7 (1)
0x080|99                                             |.               |          [16]: 153 (entry) 0x80-0x80.7 (1)
0x080|   99                                          | .              |          [17]: 153 (entry) 0x81-0x81.7 (1)
0x080|      99                                       |  .             |          [18]: 153 (entry) 0x82-0x82.7 (1)
0x080|         99                                    |   .            |          [19]: 153 (entry) 0x83-0x83.7 (1)
0x080|            99                                 |    .           |          [20]: 153 (entry) 0x84-0x84.7 (1)
0x080|               99                              |     .          |          [21]: 153 (entry) 0x85-0x85.7 (1)
0x080|                  99                           |      .         |          [22]: 153 (entry) 0x86-0x86.7 (1)
0x080|                     99                        |       .        |          [23]: 153 (entry) 0x87-0x87.7 (1)
0x080|                        99                     |        .       |          [24]: 153 (entry) 0x88-0x88.7 (1)
0x080|                           99                  |         .      |          [25]: 153 (entry) 0x89-0x89.7 (1)
0x080|                              99               |          .     |          [26]: 153 (entry) 0x8a-0x8a.7 (1)
0x080|                                 99            |           .    |          [27]: 153 (entry) 0x8b-0x8b.7 (1)
0x080|                                    99         |            .   |          [28]: 153 (entry) 0x8c-0x8c.7 (1)
0x080|                                       99      |             .  |          [29]: 153 (entry) 0x8d-0x8d.7 (1)
0x080|                                          99   |              . |          [30]: 153 (entry) 0x8e-0x8e.7 (1)
0x080|                                             99|               .|          [31]: 153 (entry) 0x8f-0x8f.7 (1)
0x090|99                                             |.               |          [32]: 153 (entry) 0x90-0x90.7 (1)
0x090|   99                                          | .              |          [33]: 153 (entry) 0x91-0x91.7 (1)
0x090|      99                                       |  .             |          [34]: 153 (entry) 0x92-0x92.7 (1)
0x090|         99                                    |   .            |          [35]: 153 (entry) 0x93-0x93.7 (1)
0x090|            99                                 |    .           |          [36]: 153 (entry) 0x94-0x94.7 (1)
0x090|               99                              |     .          |          [37]: 153 (entry) 0x95-0x95.7 (1)
0x090|                  99                           |      .         |          [38]: 153 (entry) 0x96-0x96.7 (1)
0x090|                     99                        |       .        |          [39]: 153 (entry) 0x97-0x97.7 (1)
0x090|                        99                     |        .       |          [40]: 153 (entry) 0x98-0x98.7 (1)
0x090|                           99                  |         .      |          [41]: 153 (entry) 0x99-0x99.7 (1)
0x090|                              99               |          .     |          [42]: 153 (entry) 0x9a-0x9a.7 (1)
0x090|                                 99            |           .    |          [43]: 153 (entry) 0x9b-0x9b.7 (1)
0x090|                                    99         |            .   |          [44]: 153 (entry) 0x9c-0x9c.7 (1)
0x090|                                       99      |             .  |          [45]: 153 (entry) 0x9d-0x9d.7 (1)
0x090|                                          99   |              . |          [46]: 153 (entry) 0x9e-0x9e.7 (1)
0x090|                                             99|               .|          [47]: 153 (entry) 0x9f-0x9f.7 (1)
0x0a0|99                                             |.               |          [48]: 153 (entry) 0xa0-0xa0.7 (1)
0x0a0|   99                                          | .              |          [49]: 153 (entry) 0xa1-0xa1.7 (1)
0x0a0|      ff                                       |  .             |          [50]: 255 (entry) 0xa2-0xa2.7 (1)
0x0a0|         ff                                    |   .            |          [51]: 255 (entry) 0xa3-0xa3.7 (1)
0x0a0|            ff                                 |    .           |          [52]: 255 (entry) 0xa4-0xa4.7 (1)
0x0a0|               ff                              |     .          |          [53]: 255 (entry) 0xa5-0xa5.7 (1)
0x0a0|                  ff                           |      .         |          [54]: 255 (entry) 0xa6-0xa6.7 (1)
0x0a0|                     ff                        |       .        |          [55]: 255 (entry) 0xa7-0xa7.7 (1)
0x0a0|                        ff                     |        .       |          [56]: 255 (entry) 0xa8-0xa8.7 (1)
0x0a0|                           ff                  |         .      |          [57]: 255 (entry) 0xa9-0xa9.7 (1)
0x0a0|                              ff               |          .     |          [58]: 255 (entry) 0xaa-0xaa.7 (1)
0x0a0|                                 ff            |           .    |          [59]: 255 (entry) 0xab-0xab.7 (1)
0x0a0|                                    ff         |            .   |          [60]: 255 (entry) 0xac-0xac.7 (1)
0x0a0|                                       ff      |             .  |          [61]: 255 (entry) 0xad-0xad.7 (1)
0x0a0|                                          ff   |              . |          [62]: 255 (entry) 0xae-0xae.7 (1)
0x0a0|                                             ff|               .|          [63]: 255 (entry) 0xaf-0xaf.7 (1)
0x0b0|ff                                             |.               |          [64]: 255 (entry) 0xb0-0xb0.7 (1)
0x0b0|   ff                                          | .              |          [65]: 255 (entry) 0xb1-0xb1.7 (1)
0x0b0|      ff                                       |  .             |          [66]: 255 (entry) 0xb2-0xb2.7 (1)
0x0b0|         ff                                    |   .            |          [67]: 255 (entry) 0xb3-0xb3.7 (1)
0x0b0|            ff                                 |    .           |          [68]: 255 (entry) 0xb4-0xb4.7 (1)
0x0b0|               ff                              |     .          |          [69]: 255 (entry) 0xb5-0xb5.7 (1)
0x0b0|                  ff                           |      .         |          [70]: 255 (entry) 0xb6-0xb6.7 (1)
0x0b0|                     ff                        |       .        |          [71]: 255 (entry) 0xb7-0xb7.7 (1)
0x0b0|                        ff                     |        .       |          [72]: 255 (entry) 0xb8-0xb8.7 (1)
0x0b0|                           ff                  |         .      |          [73]: 255 (entry) 0xb9-0xb9.7 (1)
0x0b0|                              ff               |          .     |          [74]: 255 (entry) 0xba-0xba.7 (1)
0x0b0|                                 ff            |           .    |          [75]: 255 (entry) 0xbb-0xbb.7 (1)
0x0b0|                                    ff         |            .   |          [76]: 255 (entry) 0xbc-0xbc.7 (1)
0x0b0|                                       ff      |             .  |          [77]: 255 (entry) 0xbd-0xbd.7 (1)
0x0b0|                                          ff   |              . |          [78]: 255 (entry) 0xbe-0xbe.7 (1)
0x0b0|                                             ff|               .|          [79]: 255 (entry) 0xbf-0xbf.7 (1)
0x0c0|ff                                             |.               |          [80]: 255 (entry) 0xc0-0xc0.7 (1)
0x0c0|   ff                                          | .              |          [81]: 255 (entry) 0xc1-0xc1.7 (1)
0x0c0|      ff                                       |  .             |          [82]: 255 (entry) 0xc2-0xc2.7 (1)
0x0c0|         ff                                    |   .            |          [83]: 255 (entry) 0xc3-0xc3.7 (1)
0x0c0|            ff                                 |    .           |          [84]: 255 (entry) 0xc4-0xc4.7 (1)
0x0c0|               ff                              |     .          |          [85]: 255 (entry) 0xc5-0xc5.7 (1)
0x0c0|                  ff                           |      .         |          [86]: 255 (entry) 0xc6-0xc6.7 (1)
0x0c0|                     ff                        |       .        |          [87]: 255 (entry) 0xc7-0xc7.7 (1)
0x0c0|                        ff                     |        .       |          [88]: 255 (entry) 0xc8-0xc8.7 (1)
0x0c0|                           ff                  |         .      |          [89]: 255 (entry) 0xc9-0xc9.7 (1)
0x0c0|                              ff               |          .     |          [90]: 255 (entry) 0xca-0xca.7 (1)
0x0c0|                                 ff            |           .    |          [91]: 255 (entry) 0xcb-0xcb.7 (1)
0x0c0|                                    ff         |            .   |          [92]: 255 (entry) 0xcc-0xcc.7 (1)
0x0c0|                                       ff      |             .  |          [93]: 255 (entry) 0xcd-0xcd.7 (1)
0x0c0|                                          ff   |              . |          [94]: 255 (entry) 0xce-0xce.7 (1)
0x0c0|                                             ff|               .|          [95]: 255 (entry) 0xcf-0xcf.7 (1)
0x0d0|ff                                             |.               |          [96]: 255 (entry) 0xd0-0xd0.7 (1)
0x0d0|   ff                                          | .              |          [97]: 255 (entry) 0xd1-0xd1.7 (1)
0x0d0|      ff                                       |  .             |          [98]: 255 (entry) 0xd2-0xd2.7 (1)
0x0d0|         ff                                    |   .            |          [99]: 255 (entry) 0xd3-0xd3.7 (1)
0x0d0|            00 00 00 00                        |    ....        |        quality: 0 0xd4-0xd7.7 (4)
     |                                               |                |        lame_extension: {} 0xd8-0xfb.7 (36)
0x0d0|                        4c 61 76 66 00 00 00 00|        Lavf....|          encoder: "Lavf\x00\x00\x00\x00\x00" 0xd8-0xe0.7 (9)
0x0e0|00                                             |.               |
0x0e0|   00                                          | .              |          tag_revision: 0 0xe1-0xe1.3 (0.4)
0x0e0|   00                                          | .              |          vbr_method: 0 0xe1.4-0xe1.7 (0.4)
0x0e0|      00                                       |  .             |          lowpass_filter: 0 0xe2-0xe2.7 (1)
0x0e0|         00 00 00 00                           |   ....         |          replay_gain_peak: 0 0xe3-0xe6.7 (4)
0x0e0|                     00 00                     |       ..       |          radio_replay_gain: 0 0xe7-0xe8.7 (2)
0x0e0|                           00 00               |         ..     |          audiophile_replay_gain: 0 0xe9-0xea.7 (2)
0x0e0|                                 00            |           .    |          lame_flags: 0 0xeb-0xeb.3 (0.4)
0x0e0|                                 00            |           .    |          lame_ath_type: 0 0xeb.4-0xeb.7 (0.4)
0x0e0|                                    00         |            .   |          abr_vbr: 0 0xec-0xec.7 (1)
0x0e0|                                       24 03   |             $. |          encoder_delay: 576 0xed-0xee.3 (1.4)
0x0e0|                                          03 4e|              .N|          encoder_padding: 846 0xee.4-0xef.7 (1.4)
0x0f0|00                                             |.               |          misc: 0 0xf0-0xf0.7 (1)
0x0f0|   00                                          | .              |          mp3_gain: 0 0xf1-0xf1.7 (1)
0x0f0|      00 00                                    |  ..            |          preset: 0 0xf2-0xf3.7 (2)
0x0f0|            00 00 04 13                        |    ....        |          length: 1043 0xf4-0xf7.7 (4)
0x0f0|                        59 c7                  |        Y.      |          music_crc: 22983 0xf8-0xf9.7 (2)
0x0f0|                              78 24            |          x$    |          tag_crc: 30756 0xfa-0xfb.7 (2)
0x0f0|                                    00 00 00 00|            ....|      padding: 00000000000000000000000000000000 0xfc-0x10b.7 (16)
0x100|00 00 00 00 00 00 00 00 00 00 00 00            |............    |
     |                                               |                |      crc_calculated: f7d3 0x10c-NA (0)
     |                                               |                |    [1]: mp3_frame (frame) 0x10c-0x2ac.7 (417)
     |                                               |                |      header: {} 0x10c-0x10f.7 (4)
0x100|                                    ff fb      |            ..  |        sync: Correct (0x7ff) 0x10c-0x10d.2 (1.3)
0x100|                                       fb      |             .  |        mpeg_version: MPEG Version 1 (1) 0x10d.3-0x10d.4 (0.2)
0x100|                                       fb      |             .  |        layer: Layer III (3) 0x10d.5-0x10d.6 (0.2)
     |                                               |                |        samples_per_frame: 1152 0x10d.7-NA (0)
0x100|                                       fb      |             .  |        protection: Not protected (true) 0x10d.7-0x10d.7 (0.1)
0x100|                                          90   |              . |        bitrate: 128000 0x10e-0x10e.3 (0.4)
0x100|                                          90   |              . |        sample_rate: 44100 0x10e.4-0x10e.5 (0.2)
0x100|                                          90   |              . |        padding: Not padded (0b0) 0x10e.6-0x10e.6 (0.1)
0x100|                                          90   |              . |        private: 0 0x10e.7-0x10e.7 (0.1)
0x100|                                             64|               d|        channels: Joint Stereo (0b1) 0x10f-0x10f.1 (0.2)
0x100|                                             64|               d|        channel_mode: MS Stereo (0b10) 0x10f.2-0x10f.3 (0.2)
0x100|                                             64|               d|        copyright: 0 0x10f.4-0x10f.4 (0.1)
0x100|                                             64|               d|        original: 1 0x10f.5-0x10f.5 (0.1)
0x100|                                             64|               d|        emphasis: None (0b0) 0x10f.6-0x10f.7 (0.2)
     |                                               |                |      side_info: {} 0x110-0x12f.7 (32)
0x110|00 00                                          |..              |        main_data_end: 0 0x110-0x111 (1.1)
0x110|   00                                          | .              |        private_bits: 0 0x111.1-0x111.3 (0.3)
0x110|   00                                          | .              |        share0: 0 0x111.4-0x111.7 (0.4)
0x110|      02                                       |  .             |        share1: 0 0x112-0x112.3 (0.4)
     |                                               |                |        granules: [2] 0x112.4-0x12f.7 (29.4)
     |                                               |                |          [0]: {} (granule) 0x112.4-0x121.1 (14.6)
     |                                               |                |            channels: [2] 0x112.4-0x121.1 (14.6)
     |                                               |                |              [0]: {} (channel) 0x112.4-0x119.6 (7.3)
0x110|      02 6b                                    |  .k            |                part2_3_length: 619 0x112.4-0x113.7 (1.4)
0x110|            0b ce                              |    ..          |                big_values: 23 0x114-0x115 (1.1)
0x110|               ce 9d                           |     ..         |                global_gain: 157 0x115.1-0x116 (1)
0x110|                  9d                           |      .         |                scalefac_compress: 3 0x116.1-0x116.4 (0.4)
0x110|                  9d                           |      .         |                blocksplit_flag: 1 0x116.5-0x116.5 (0.1)
0x110|                  9d                           |      .         |                block_type: start block (1) 0x116.6-0x116.7 (0.2)
0x110|                     60                        |       `        |                switch_point: 0 0x117-0x117 (0.1)
0x110|                     60                        |       `        |                table_select0: 24 0x117.1-0x117.5 (0.5)
0x110|                     60 60                     |       ``       |                table_select1: 3 0x117.6-0x118.2 (0.5)
0x110|                        60                     |        `       |                subblock_gain0: 0 0x118.3-0x118.5 (0.3)
0x110|                        60 00                  |        `.      |                subblock_gain1: 0 0x118.6-0x119 (0.3)
0x110|                           00                  |         .      |                subblock_gain2: 0 0x119.1-0x119.3 (0.3)
0x110|                           00                  |         .      |                preflag: 0 0x119.4-0x119.4 (0.1)
0x110|                           00                  |         .      |                scalefac_scale: 0 0x119.5-0x119.5 (0.1)
0x110|                           00                  |         .      |                count1table_select: 0 0x119.6-0x119.6 (0.1)
     |                                               |                |              [1]: {} (channel) 0x119.7-0x121.1 (7.3)
0x110|                           00 00 00            |         ...    |                part2_3_length: 0 0x119.7-0x11b.2 (1.4)
0x110|                                 00 0d         |           ..   |                big_values: 0 0x11b.3-0x11c.3 (1.1)
0x110|                                    0d 20      |            .   |                global_gain: 210 0x11c.4-0x11d.3 (1)
0x110|                                       20      |                |                scalefac_compress: 0 0x11d.4-0x11d.7 (0.4)
0x110|                                          a0   |              . |                blocksplit_flag: 1 0x11e-0x11e (0.1)
0x110|                                          a0   |              . |                block_type: start block (1) 0x11e.1-0x11e.2 (0.2)
0x110|                                          a0   |              . |                switch_point: 0 0x11e.3-0x11e.3 (0.1)
0x110|                                          a0 00|              ..|                table_select0: 0 0x11e.4-0x11f (0.5)
0x110|                                             00|               .|                table_select1: 0 0x11f.1-0x11f.5 (0.5)
0x110|                                             00|               .|                subblock_gain0: 0 0x11f.6-0x120 (0.3)
0x120|01                                             |.               |
0x120|01                                             |.               |                subblock_gain1: 0 0x120.1-0x120.3 (0.3)
0x120|01                                             |.               |                subblock_gain2: 0 0x120.4-0x120.6 (0.3)
0x120|01                                             |.               |                preflag: 1 0x120.7-0x120.7 (0.1)
0x120|   16                                          | .              |                scalefac_scale: 0 0x121-0x121 (0.1)
0x120|   16                                          | .              |                count1table_select: 0 0x121.1-0x121.1 (0.1)
     |                                               |                |          [1]: {} (granule) 0x121.2-0x12f.7 (14.6)
     |                                               |                |            channels: [2] 0x121.2-0x12f.7 (14.6)
     |                                               |                |              [0]: {} (channel) 0x121.2-0x128.4 (7.3)
0x120|   16 65                                       | .e             |                part2_3_length: 1433 0x121.2-0x122.5 (1.4)
0x120|      65 45                                    |  eE            |                big_values: 162 0x122.6-0x123.6 (1.1)
0x120|         45 18                                 |   E.           |                global_gain: 140 0x123.7-0x124.6 (1)
0x120|            18 19                              |    ..          |                scalefac_compress: 0 0x124.7-0x125.2 (0.4)
0x120|               19                              |     .          |                blocksplit_flag: 1 0x125.3-0x125.3 (0.1)
0x120|               19                              |     .          |                block_type: 3 short windows (2) 0x125.4-0x125.5 (0.2)
0x120|               19                              |     .          |                switch_point: 0 0x125.6-0x125.6 (0.1)
0x120|               19 ea                           |     ..         |                table_select0: 30 0x125.7-0x126.3 (0.5)
0x120|                  ea 00                        |      ..        |                table_select1: 20 0x126.4-0x127 (0.5)
0x120|                     00                        |       .        |                subblock_gain0: 0 0x127.1-0x127.3 (0.3)
0x120|                     00                        |       .        |                subblock_gain1: 0 0x127.4-0x127.6 (0.3)
0x120|                     00 00                     |       ..       |                subblock_gain2: 0 0x127.7-0x128.1 (0.3)
0x120|                        00                     |        .       |                preflag: 0 0x128.2-0x128.2 (0.1)
0x120|                        00                     |        .       |                scalefac_scale: 0 0x128.3-0x128.3 (0.1)
0x120|                        00                     |        .       |                count1table_select: 0 0x128.4-0x128.4 (0.1)
     |                                               |                |              [1]: {} (channel) 0x128.5-0x12f.7 (7.3)
0x120|                        00 00 00               |        ...     |                part2_3_length: 0 0x128.5-0x12a (1.4)
0x120|                              00 34            |          .4    |                big_values: 0 0x12a.1-0x12b.1 (1.1)
0x120|                                 34 83         |           4.   |                global_gain: 210 0x12b.2-0x12c.1 (1)
0x120|                                    83         |            .   |                scalefac_compress: 0 0x12c.2-0x12c.5 (0.4)
0x120|                                    83         |            .   |                blocksplit_flag: 1 0x12c.6-0x12c.6 (0.1)
0x120|                                    83 00      |            ..  |                block_type: 3 short windows (2) 0x12c.7-0x12d (0.2)
0x120|                                       00      |             .  |                switch_point: 0 0x12d.1-0x12d.1 (0.1)
0x120|                                       00      |             .  |                table_select0: 0 0x12d.2-0x12d.6 (0.5)
0x120|                                       00 00   |             .. |                table_select1: 0 0x12d.7-0x12e.3 (0.5)
0x120|                                          00   |              . |                subblock_gain0: 0 0x12e.4-0x12e.6 (0.3)
0x120|                                          00 00|              ..|                subblock_gain1: 0 0x12e.7-0x12f.1 (0.3)
0x120|                                             00|               .|                subblock_gain2: 0 0x12f.2-0x12f.4 (0.3)
0x120|                                             00|               .|                preflag: 0 0x12f.5-0x12f.5 (0.1)
0x120|                                             00|               .|                scalefac_scale: 0 0x12f.6-0x12f.6 (0.1)
0x120|                                             00|               .|                count1table_select: 0 0x12f.7-0x12f.7 (0.1)
0x130|0a 6b 6d d8 c2 12 cd a0 0d bf 4d 03 01 8d 4c 35|.km.......M...L5|      data: 0a6b6dd8c212cda00dbf4d03018d4c35... 0x130-0x2ac.7 (381)
*    |381 bytes until 0x2ac.7                        |                |
     |                                               |                |      other_data:  0x2ad-NA (0)
     |                                               |                |      crc_calculated: 8dee 0x2ad-NA (0)
     |                                               |                |    [2]: mp3_frame (frame) 0x2ad-0x44e.7 (418)
     |                                               |                |      header: {} 0x2ad-0x2b0.7 (4)
0x2a0|                                       ff fb   |             .. |        sync: Correct (0x7ff) 0x2ad-0x2ae.2 (1.3)
0x2a0|                                          fb   |              . |        mpeg_version: MPEG Version 1 (1) 0x2ae.3-0x2ae.4 (0.2)
0x2a0|                                          fb   |              . |        layer: Layer III (3) 0x2ae.5-0x2ae.6 (0.2)
     |                                               |                |        samples_per_frame: 1152 0x2ae.7-NA (0)
0x2a0|                                          fb   |              . |        protection: Not protected (true) 0x2ae.7-0x2ae.7 (0.1)
0x2a0|                                             92|               .|        bitrate: 128000 0x2af-0x2af.3 (0.4)
0x2a0|                                             92|               .|        sample_rate: 44100 0x2af.4-0x2af.5 (0.2)
0x2a0|                                             92|               .|        padding: Padded (0b1) 0x2af.6-0x2af.6 (0.1)
0x2a0|                                             92|               .|        private: 0 0x2af.7-0x2af.7 (0.1)
0x2b0|64                                             |d               |        channels: Joint Stereo (0b1) 0x2b0-0x2b0.1 (0.2)
0x2b0|64                                             |d               |        channel_mode: MS Stereo (0b10) 0x2b0.2-0x2b0.3 (0.2)
0x2b0|64                                             |d               |        copyright: 0 0x2b0.4-0x2b0.4 (0.1)
0x2b0|64                                             |d               |        original: 1 0x2b0.5-0x2b0.5 (0.1)
0x2b0|64                                             |d               |        emphasis: None (0b0) 0x2b0.6-0x2b0.7 (0.2)
     |                                               |                |      side_info: {} 0x2b1-0x2d0.7 (32)
0x2b0|   3e 00                                       | >.             |        main_data_end: 124 0x2b1-0x2b2 (1.1)
0x2b0|      00                                       |  .             |        private_bits: 0 0x2b2.1-0x2b2.3 (0.3)
0x2b0|      00                                       |  .             |        share0: 0 0x2b2.4-0x2b2.7 (0.4)
0x2b0|         06                                    |   .            |        share1: 0 0x2b3-0x2b3.3 (0.4)
     |                                               |                |        granules: [2] 0x2b3.4-0x2d0.7 (29.4)
     |                                               |                |          [0]: {} (granule) 0x2b3.4-0x2c2.1 (14.6)
     |                                               |                |            channels: [2] 0x2b3.4-0x2c2.1 (14.6)
     |                                               |                |              [0]: {} (channel) 0x2b3.4-0x2ba.6 (7.3)
0x2b0|         06 5f                                 |   ._           |                part2_3_length: 1631 0x2b3.4-0x2b4.7 (1.4)
0x2b0|               5e da                           |     ^.         |                big_values: 189 0x2b5-0x2b6 (1.1)
0x2b0|                  da fe                        |      ..        |                global_gain: 181 0x2b6.1-0x2b7 (1)
0x2b0|                     fe                        |       .        |                scalefac_compress: 15 0x2b7.1-0x2b7.4 (0.4)
0x2b0|                     fe                        |       .        |                blocksplit_flag: 1 0x2b7.5-0x2b7.5 (0.1)
0x2b0|                     fe                        |       .        |                block_type: 3 short windows (2) 0x2b7.6-0x2b7.7 (0.2)
0x2b0|                        63                     |        c       |                switch_point: 0 0x2b8-0x2b8 (0.1)
0x2b0|                        63                     |        c       |                table_select0: 24 0x2b8.1-0x2b8.5 (0.5)
0x2b0|                        63 00                  |        c.      |                table_select1: 24 0x2b8.6-0x2b9.2 (0.5)
0x2b0|                           00                  |         .      |                subblock_gain0: 0 0x2b9.3-0x2b9.5 (0.3)
0x2b0|                           00 04               |         ..     |                subblock_gain1: 0 0x2b9.6-0x2ba (0.3)
0x2b0|                              04               |          .     |                subblock_gain2: 0 0x2ba.1-0x2ba.3 (0.3)
0x2b0|                              04               |          .     |                preflag: 0 0x2ba.4-0x2ba.4 (0.1)
0x2b0|                              04               |          .     |                scalefac_scale: 1 0x2ba.5-0x2ba.5 (0.1)
0x2b0|                              04               |          .     |                count1table_select: 0 0x2ba.6-0x2ba.6 (0.1)
     |                                               |                |              [1]: {} (channel) 0x2ba.7-0x2c2.1 (7.3)
0x2b0|                              04 00 00         |          ...   |                part2_3_length: 0 0x2ba.7-0x2bc.2 (1.4)
0x2b0|                                    00 0d      |            ..  |                big_values: 0 0x2bc.3-0x2bd.3 (1.1)
0x2b0|                                       0d 20   |             .  |                global_gain: 210 0x2bd.4-0x2be.3 (1)
0x2b0|                                          20   |                |                scalefac_compress: 0 0x2be.4-0x2be.7 (0.4)
0x2b0|                                             c0|               .|                blocksplit_flag: 1 0x2bf-0x2bf (0.1)
0x2b0|                                             c0|               .|                block_type: 3 short windows (2) 0x2bf.1-0x2bf.2 (0.2)
0x2b0|                                             c0|               .|                switch_point: 0 0x2bf.3-0x2bf.3 (0.1)
0x2b0|                                             c0|               .|                table_select0: 0 0x2bf.4-0x2c0 (0.5)
0x2c0|00                                             |.               |
0x2c0|00                                             |.               |                table_select1: 0 0x2c0.1-0x2c0.5 (0.5)
0x2c0|00 00                                          |..              |                subblock_gain0: 0 0x2c0.6-0x2c1 (0.3)
0x2c0|   00                                          | .              |                subblock_gain1: 0 0x2c1.1-0x2c1.3 (0.3)
0x2c0|   00                                          | .              |                subblock_gain2: 0 0x2c1.4-0x2c1.6 (0.3)
0x2c0|   00                                          | .              |                preflag: 0 0x2c1.7-0x2c1.7 (0.1)
0x2c0|      0c                                       |  .             |                scalefac_scale: 0 0x2c2-0x2c2 (0.1)
0x2c0|      0c                                       |  .             |                count1table_select: 0 0x2c2.1-0x2c2.1 (0.1)
     |                                               |                |          [1]: {} (granule) 0x2c2.2-0x2d0.7 (14.6)
     |                                               |                |            channels: [2] 0x2c2.2-0x2d0.7 (14.6)
     |                                               |                |              [0]: {} (channel) 0x2c2.2-0x2c9.4 (7.3)
0x2c0|      0c a8                                    |  ..            |                part2_3_length: 810 0x2c2.2-0x2c3.5 (1.4)
0x2c0|         a8 56                                 |   .V           |                big_values: 43 0x2c3.6-0x2c4.6 (1.1)
0x2c0|            56 f2                              |    V.          |                global_gain: 121 0x2c4.7-0x2c5.6 (1)
0x2c0|               f2 5c                           |     .\         |                scalefac_compress: 2 0x2c5.7-0x2c6.2 (0.4)
0x2c0|                  5c                           |      \         |                blocksplit_flag: 1 0x2c6.3-0x2c6.3 (0.1)
0x2c0|                  5c                           |      \         |                block_type: end (3) 0x2c6.4-0x2c6.5 (0.2)
0x2c0|                  5c                           |      \         |                switch_point: 0 0x2c6.6-0x2c6.6 (0.1)
0x2c0|                  5c c3                        |      \.        |                table_select0: 12 0x2c6.7-0x2c7.3 (0.5)
0x2c0|                     c3 00                     |       ..       |                table_select1: 6 0x2c7.4-0x2c8 (0.5)
0x2c0|                        00                     |        .       |                subblock_gain0: 0 0x2c8.1-0x2c8.3 (0.3)
0x2c0|                        00                     |        .       |                subblock_gain1: 0 0x2c8.4-0x2c8.6 (0.3)
0x2c0|                        00 08                  |        ..      |                subblock_gain2: 0 0x2c8.7-0x2c9.1 (0.3)
0x2c0|                           08                  |         .      |                preflag: 0 0x2c9.2-0x2c9.2 (0.1)
0x2c0|                           08                  |         .      |                scalefac_scale: 0 0x2c9.3-0x2c9.3 (0.1)
0x2c0|                           08                  |         .      |                count1table_select: 1 0x2c9.4-0x2c9.4 (0.1)
     |                                               |                |              [1]: {} (channel) 0x2c9.5-0x2d0.7 (7.3)
0x2c0|                           08 00 00            |         ...    |                part2_3_length: 0 0x2c9.5-0x2cb (1.4)
0x2c0|                                 00 34         |           .4   |                big_values: 0 0x2cb.1-0x2cc.1 (1.1)
0x2c0|                                    34 83      |            4.  |                global_gain: 210 0x2cc.2-0x2cd.1 (1)
0x2c0|                                       83      |             .  |                scalefac_compress: 0 0x2cd.2-0x2cd.5 (0.4)
0x2c0|                                       83      |             .  |                blocksplit_flag: 1 0x2cd.6-0x2cd.6 (0.1)
0x2c0|                                       83 80   |             .. |                block_type: end (3) 0x2cd.7-0x2ce (0.2)
0x2c0|                                          80   |              . |                switch_point: 0 0x2ce.1-0x2ce.1 (0.1)
0x2c0|                                          80   |              . |                table_select0: 0 0x2ce.2-0x2ce.6 (0.5)
0x2c0|                                          80 00|              ..|                table_select1: 0 0x2ce.7-0x2cf.3 (0.5)
0x2c0|                                             00|               .|                subblock_gain0: 0 0x2cf.4-0x2cf.6 (0.3)
0x2c0|                                             00|               .|                subblock_gain1: 0 0x2cf.7-0x2d0.1 (0.3)
0x2d0|04                                             |.               |
0x2d0|04                                             |.               |                subblock_gain2: 0 0x2d0.2-0x2d0.4 (0.3)
0x2d0|04                                             |.               |                preflag: 1 0x2d0.5-0x2d0.5 (0.1)
0x2d0|04                                             |.               |                scalefac_scale: 0 0x2d0.6-0x2d0.6 (0.1)
0x2d0|04                                             |.               |                count1table_select: 0 0x2d0.7-0x2d0.7 (0.1)
0x2d0|   1b ce df 3b ce e0 f6 b8 ee 43 ed 0c c0 f0 3b| ...;.....C....;|      data: 1bcedf3bcee0f6b8ee43ed0cc0f03bb1... 0x2d1-0x3d1.7 (257)
0x2e0|b1 13 ad 9f 35 94 cd 5e 65 cf fe ff 7f ff 9e ee|....5..^e.......|
*    |257 bytes until 0x3d1.7                        |                |
0x3d0|      aa                                       |  .             |      padding_byte: aa 0x3d2-0x3d2.7 (1)
0x3d0|         aa aa aa aa aa aa aa aa aa aa aa aa aa|   .............|      other_data: aaaaaaaaaaaaaaaaaaaaaaaaaaaaaaaa... 0x3d3-0x44e.7 (124)
0x3e0|aa aa aa aa aa aa aa aa aa aa aa aa aa aa aa aa|................|
*    |124 bytes until 0x44e.7                        |                |
     |                                               |                |      crc_calculated: c270 0x44f-NA (0)
     |                                               |                |  footers: [0] 0x44f-NA (0)
0x440|                                             61|               a|  unknown0: 61736461 0x44f-0x452.7 (4)
0x450|73 64 61|                                      |sda|            |
> fq -d mp3 test.mp3 .header.frame[0].text._value
null
