# ffmpeg -f lavfi -i testsrc -c:v h264 -f matroska -t 50ms h264.mkv
/h264.mkv:
> -f mkv h264.mkv verbose
     |                                               |                |.: mkv 0x0-0xd46+7 (3399)
     |                                               |                |  elements[2]: 0x0-0xd46+7 (3399)
     |                                               |                |   -[0]: (element) 0x0-0x27+7 (40)
0x000|1a 45 df a3                                    |.E..            |      id: EBML (1a45dfa3) 0x0-0x3+7 (4)
0x000|            a3                                 |    .           |      size: 35 0x4-0x4+7 (1)
     |                                               |                |      elements[7]: 0x5-0x27+7 (35)
     |                                               |                |       -[0]: (element) 0x5-0x8+7 (4)
0x000|               42 86                           |     B.         |          id: EBMLVersion (4286) 0x5-0x6+7 (2)
0x000|                     81                        |       .        |          size: 1 0x7-0x7+7 (1)
0x000|                        01                     |        .       |          value: 1 0x8-0x8+7 (1)
     |                                               |                |       -[1]: (element) 0x9-0xc+7 (4)
0x000|                           42 f7               |         B.     |          id: EBMLReadVersion (42f7) 0x9-0xa+7 (2)
0x000|                                 81            |           .    |          size: 1 0xb-0xb+7 (1)
0x000|                                    01         |            .   |          value: 1 0xc-0xc+7 (1)
     |                                               |                |       -[2]: (element) 0xd-0x10+7 (4)
0x000|                                       42 f2   |             B. |          id: EBMLMaxIDLength (42f2) 0xd-0xe+7 (2)
0x000|                                             81|               .|          size: 1 0xf-0xf+7 (1)
0x010|04                                             |.               |          value: 4 0x10-0x10+7 (1)
     |                                               |                |       -[3]: (element) 0x11-0x14+7 (4)
0x010|   42 f3                                       | B.             |          id: EBMLMaxSizeLength (42f3) 0x11-0x12+7 (2)
0x010|         81                                    |   .            |          size: 1 0x13-0x13+7 (1)
0x010|            08                                 |    .           |          value: 8 0x14-0x14+7 (1)
     |                                               |                |       -[4]: (element) 0x15-0x1f+7 (11)
0x010|               42 82                           |     B.         |          id: DocType (4282) 0x15-0x16+7 (2)
0x010|                     88                        |       .        |          size: 8 0x17-0x17+7 (1)
0x010|                        6d 61 74 72 6f 73 6b 61|        matroska|          value: "matroska" 0x18-0x1f+7 (8)
     |                                               |                |       -[5]: (element) 0x20-0x23+7 (4)
0x020|42 87                                          |B.              |          id: DocTypeVersion (4287) 0x20-0x21+7 (2)
0x020|      81                                       |  .             |          size: 1 0x22-0x22+7 (1)
0x020|         04                                    |   .            |          value: 4 0x23-0x23+7 (1)
     |                                               |                |       -[6]: (element) 0x24-0x27+7 (4)
0x020|            42 85                              |    B.          |          id: DocTypeReadVersion (4285) 0x24-0x25+7 (2)
0x020|                  81                           |      .         |          size: 1 0x26-0x26+7 (1)
0x020|                     02                        |       .        |          value: 2 0x27-0x27+7 (1)
     |                                               |                |   -[1]: (element) 0x28-0xd46+7 (3359)
0x020|                        18 53 80 67            |        .S.g    |      id: Segment (18538067) 0x28-0x2b+7 (4)
0x020|                                    01 00 00 00|            ....|      size: 3347 0x2c-0x33+7 (8)
0x030|00 00 0d 13                                    |....            |
     |                                               |                |      elements[7]: 0x34-0xd46+7 (3347)
     |                                               |                |       -[0]: (element) 0x34-0x78+7 (69)
0x030|            11 4d 9b 74                        |    .M.t        |          id: SeekHead (114d9b74) 0x34-0x37+7 (4)
0x030|                        c0                     |        .       |          size: 64 0x38-0x38+7 (1)
     |                                               |                |          elements[5]: 0x39-0x78+7 (64)
     |                                               |                |           -[0]: (element) 0x39-0x3e+7 (6)
0x030|                           bf                  |         .      |              id: CRC-32 (bf) 0x39-0x39+7 (1)
0x030|                              84               |          .     |              size: 4 0x3a-0x3a+7 (1)
0x030|                                 7d 9c 3e c5   |           }.>. |              value: 7d9c3ec5 0x3b-0x3e+7 (4)
     |                                               |                |           -[1]: (element) 0x3f-0x4c+7 (14)
0x030|                                             4d|               M|              id: Seek (4dbb) 0x3f-0x40+7 (2)
0x040|bb                                             |.               |
0x040|   8b                                          | .              |              size: 11 0x41-0x41+7 (1)
     |                                               |                |              elements[2]: 0x42-0x4c+7 (11)
     |                                               |                |               -[0]: (element) 0x42-0x48+7 (7)
0x040|      53 ab                                    |  S.            |                  id: SeekID (53ab) 0x42-0x43+7 (2)
0x040|            84                                 |    .           |                  size: 4 0x44-0x44+7 (1)
0x040|               15 49 a9 66                     |     .I.f       |                  value: 1549a966 0x45-0x48+7 (4)
     |                                               |                |               -[1]: (element) 0x49-0x4c+7 (4)
0x040|                           53 ac               |         S.     |                  id: SeekPosition (53ac) 0x49-0x4a+7 (2)
0x040|                                 81            |           .    |                  size: 1 0x4b-0x4b+7 (1)
0x040|                                    a1         |            .   |                  value: 161 0x4c-0x4c+7 (1)
     |                                               |                |           -[2]: (element) 0x4d-0x5a+7 (14)
0x040|                                       4d bb   |             M. |              id: Seek (4dbb) 0x4d-0x4e+7 (2)
0x040|                                             8b|               .|              size: 11 0x4f-0x4f+7 (1)
     |                                               |                |              elements[2]: 0x50-0x5a+7 (11)
     |                                               |                |               -[0]: (element) 0x50-0x56+7 (7)
0x050|53 ab                                          |S.              |                  id: SeekID (53ab) 0x50-0x51+7 (2)
0x050|      84                                       |  .             |                  size: 4 0x52-0x52+7 (1)
0x050|         16 54 ae 6b                           |   .T.k         |                  value: 1654ae6b 0x53-0x56+7 (4)
     |                                               |                |               -[1]: (element) 0x57-0x5a+7 (4)
0x050|                     53 ac                     |       S.       |                  id: SeekPosition (53ac) 0x57-0x58+7 (2)
0x050|                           81                  |         .      |                  size: 1 0x59-0x59+7 (1)
0x050|                              f1               |          .     |                  value: 241 0x5a-0x5a+7 (1)
     |                                               |                |           -[3]: (element) 0x5b-0x69+7 (15)
0x050|                                 4d bb         |           M.   |              id: Seek (4dbb) 0x5b-0x5c+7 (2)
0x050|                                       8c      |             .  |              size: 12 0x5d-0x5d+7 (1)
     |                                               |                |              elements[2]: 0x5e-0x69+7 (12)
     |                                               |                |               -[0]: (element) 0x5e-0x64+7 (7)
0x050|                                          53 ab|              S.|                  id: SeekID (53ab) 0x5e-0x5f+7 (2)
0x060|84                                             |.               |                  size: 4 0x60-0x60+7 (1)
0x060|   12 54 c3 67                                 | .T.g           |                  value: 1254c367 0x61-0x64+7 (4)
     |                                               |                |               -[1]: (element) 0x65-0x69+7 (5)
0x060|               53 ac                           |     S.         |                  id: SeekPosition (53ac) 0x65-0x66+7 (2)
0x060|                     82                        |       .        |                  size: 2 0x67-0x67+7 (1)
0x060|                        01 7b                  |        .{      |                  value: 379 0x68-0x69+7 (2)
     |                                               |                |           -[4]: (element) 0x6a-0x78+7 (15)
0x060|                              4d bb            |          M.    |              id: Seek (4dbb) 0x6a-0x6b+7 (2)
0x060|                                    8c         |            .   |              size: 12 0x6c-0x6c+7 (1)
     |                                               |                |              elements[2]: 0x6d-0x78+7 (12)
     |                                               |                |               -[0]: (element) 0x6d-0x73+7 (7)
0x060|                                       53 ab   |             S. |                  id: SeekID (53ab) 0x6d-0x6e+7 (2)
0x060|                                             84|               .|                  size: 4 0x6f-0x6f+7 (1)
0x070|1c 53 bb 6b                                    |.S.k            |                  value: 1c53bb6b 0x70-0x73+7 (4)
     |                                               |                |               -[1]: (element) 0x74-0x78+7 (5)
0x070|            53 ac                              |    S.          |                  id: SeekPosition (53ac) 0x74-0x75+7 (2)
0x070|                  82                           |      .         |                  size: 2 0x76-0x76+7 (1)
0x070|                     0c f7                     |       ..       |                  value: 3319 0x77-0x78+7 (2)
     |                                               |                |       -[1]: (element) 0x79-0xd4+7 (92)
0x070|                           ec                  |         .      |          id: Void (ec) 0x79-0x79+7 (1)
0x070|                              01 00 00 00 00 00|          ......|          size: 83 0x7a-0x81+7 (8)
0x080|00 53                                          |.S              |
0x080|      00 00 00 00 00 00 00 00 00 00 00 00 00 00|  ..............|          value: 00000000000000000000000000000000... 0x82-0xd4+7 (83)
0x090|00 00 00 00 00 00 00 00 00 00 00 00 00 00 00 00|................|
*    |53 bytes more until 0xd4+7                     |                |
     |                                               |                |       -[2]: (element) 0xd5-0x124+7 (80)
0x0d0|               15 49 a9 66                     |     .I.f       |          id: Info (1549a966) 0xd5-0xd8+7 (4)
0x0d0|                           cb                  |         .      |          size: 75 0xd9-0xd9+7 (1)
     |                                               |                |          elements[6]: 0xda-0x124+7 (75)
     |                                               |                |           -[0]: (element) 0xda-0xdf+7 (6)
0x0d0|                              bf               |          .     |              id: CRC-32 (bf) 0xda-0xda+7 (1)
0x0d0|                                 84            |           .    |              size: 4 0xdb-0xdb+7 (1)
0x0d0|                                    51 bf 34 0a|            Q.4.|              value: 51bf340a 0xdc-0xdf+7 (4)
     |                                               |                |           -[1]: (element) 0xe0-0xe6+7 (7)
0x0e0|2a d7 b1                                       |*..             |              id: TimestampScale (2ad7b1) 0xe0-0xe2+7 (3)
0x0e0|         83                                    |   .            |              size: 3 0xe3-0xe3+7 (1)
0x0e0|            0f 42 40                           |    .B@         |              value: 1000000 0xe4-0xe6+7 (3)
     |                                               |                |           -[2]: (element) 0xe7-0xf6+7 (16)
0x0e0|                     4d 80                     |       M.       |              id: MuxingApp (4d80) 0xe7-0xe8+7 (2)
0x0e0|                           8d                  |         .      |              size: 13 0xe9-0xe9+7 (1)
0x0e0|                              4c 61 76 66 35 38|          Lavf58|              value: "Lavf58.45.100" 0xea-0xf6+7 (13)
0x0f0|2e 34 35 2e 31 30 30                           |.45.100         |
     |                                               |                |           -[3]: (element) 0xf7-0x106+7 (16)
0x0f0|                     57 41                     |       WA       |              id: WritingApp (5741) 0xf7-0xf8+7 (2)
0x0f0|                           8d                  |         .      |              size: 13 0xf9-0xf9+7 (1)
0x0f0|                              4c 61 76 66 35 38|          Lavf58|              value: "Lavf58.45.100" 0xfa-0x106+7 (13)
0x100|2e 34 35 2e 31 30 30                           |.45.100         |
     |                                               |                |           -[4]: (element) 0x107-0x119+7 (19)
0x100|                     73 a4                     |       s.       |              id: SegmentUID (73a4) 0x107-0x108+7 (2)
0x100|                           90                  |         .      |              size: 16 0x109-0x109+7 (1)
0x100|                              7c 01 b0 2d a3 3f|          |..-.?|              value: 7c01b02da33f3ef638473a3db2c9e419 0x10a-0x119+7 (16)
0x110|3e f6 38 47 3a 3d b2 c9 e4 19                  |>.8G:=....      |
     |                                               |                |           -[5]: (element) 0x11a-0x124+7 (11)
0x110|                              44 89            |          D.    |              id: Duration (4489) 0x11a-0x11b+7 (2)
0x110|                                    88         |            .   |              size: 8 0x11c-0x11c+7 (1)
0x110|                                       40 44 00|             @D.|              value: 40 0x11d-0x124+7 (8)
0x120|00 00 00 00 00                                 |.....           |
     |                                               |                |       -[3]: (element) 0x125-0x1ae+7 (138)
0x120|               16 54 ae 6b                     |     .T.k       |          id: Tracks (1654ae6b) 0x125-0x128+7 (4)
0x120|                           40 84               |         @.     |          size: 132 0x129-0x12a+7 (2)
     |                                               |                |          elements[2]: 0x12b-0x1ae+7 (132)
     |                                               |                |           -[0]: (element) 0x12b-0x130+7 (6)
0x120|                                 bf            |           .    |              id: CRC-32 (bf) 0x12b-0x12b+7 (1)
0x120|                                    84         |            .   |              size: 4 0x12c-0x12c+7 (1)
0x120|                                       3e df 62|             >.b|              value: 3edf6285 0x12d-0x130+7 (4)
0x130|85                                             |.               |
     |                                               |                |           -[1]: (element) 0x131-0x1ae+7 (126)
0x130|   ae                                          | .              |              id: TrackEntry (ae) 0x131-0x131+7 (1)
0x130|      01 00 00 00 00 00 00 75                  |  .......u      |              size: 117 0x132-0x139+7 (8)
     |                                               |                |              elements[9]: 0x13a-0x1ae+7 (117)
     |                                               |                |               -[0]: (element) 0x13a-0x13c+7 (3)
0x130|                              d7               |          .     |                  id: TrackNumber (d7) 0x13a-0x13a+7 (1)
0x130|                                 81            |           .    |                  size: 1 0x13b-0x13b+7 (1)
0x130|                                    01         |            .   |                  value: 1 0x13c-0x13c+7 (1)
     |                                               |                |               -[1]: (element) 0x13d-0x147+7 (11)
0x130|                                       73 c5   |             s. |                  id: TrackUID (73c5) 0x13d-0x13e+7 (2)
0x130|                                             88|               .|                  size: 8 0x13f-0x13f+7 (1)
0x140|5c dc 49 64 84 41 76 e3                        |\.Id.Av.        |                  value: 6691303842430154467 0x140-0x147+7 (8)
     |                                               |                |               -[2]: (element) 0x148-0x14a+7 (3)
0x140|                        9c                     |        .       |                  id: FlagLacing (9c) 0x148-0x148+7 (1)
0x140|                           81                  |         .      |                  size: 1 0x149-0x149+7 (1)
0x140|                              00               |          .     |                  value: 0 0x14a-0x14a+7 (1)
     |                                               |                |               -[3]: (element) 0x14b-0x151+7 (7)
0x140|                                 22 b5 9c      |           "..  |                  id: Language (22b59c) 0x14b-0x14d+7 (3)
0x140|                                          83   |              . |                  size: 3 0x14e-0x14e+7 (1)
0x140|                                             75|               u|                  value: "und" 0x14f-0x151+7 (3)
0x150|6e 64                                          |nd              |
     |                                               |                |               -[4]: (element) 0x152-0x162+7 (17)
0x150|      86                                       |  .             |                  id: CodecID (86) 0x152-0x152+7 (1)
0x150|         8f                                    |   .            |                  size: 15 0x153-0x153+7 (1)
0x150|            56 5f 4d 50 45 47 34 2f 49 53 4f 2f|    V_MPEG4/ISO/|                  value: "V_MPEG4/ISO/AVC" 0x154-0x162+7 (15)
0x160|41 56 43                                       |AVC             |
     |                                               |                |               -[5]: (element) 0x163-0x165+7 (3)
0x160|         83                                    |   .            |                  id: TrackType (83) 0x163-0x163+7 (1)
0x160|            81                                 |    .           |                  size: 1 0x164-0x164+7 (1)
0x160|               01                              |     .          |                  value: 1 0x165-0x165+7 (1)
     |                                               |                |               -[6]: (element) 0x166-0x16d+7 (8)
0x160|                  23 e3 83                     |      #..       |                  id: DefaultDuration (23e383) 0x166-0x168+7 (3)
0x160|                           84                  |         .      |                  size: 4 0x169-0x169+7 (1)
0x160|                              02 62 5a 00      |          .bZ.  |                  value: 40000000 0x16a-0x16d+7 (4)
     |                                               |                |               -[7]: (element) 0x16e-0x17d+7 (16)
0x160|                                          e0   |              . |                  id: Video (e0) 0x16e-0x16e+7 (1)
0x160|                                             01|               .|                  size: 7 0x16f-0x176+7 (8)
0x170|00 00 00 00 00 00 07                           |.......         |
     |                                               |                |                  elements[2]: 0x177-0x17d+7 (7)
     |                                               |                |                   -[0]: (element) 0x177-0x17a+7 (4)
0x170|                     b0                        |       .        |                      id: PixelWidth (b0) 0x177-0x177+7 (1)
0x170|                        82                     |        .       |                      size: 2 0x178-0x178+7 (1)
0x170|                           01 40               |         .@     |                      value: 320 0x179-0x17a+7 (2)
     |                                               |                |                   -[1]: (element) 0x17b-0x17d+7 (3)
0x170|                                 ba            |           .    |                      id: PixelHeight (ba) 0x17b-0x17b+7 (1)
0x170|                                    81         |            .   |                      size: 1 0x17c-0x17c+7 (1)
0x170|                                       f0      |             .  |                      value: 240 0x17d-0x17d+7 (1)
     |                                               |                |               -[8]: (element) 0x17e-0x1ae+7 (49)
0x170|                                          63 a2|              c.|                  id: CodecPrivate (63a2) 0x17e-0x17f+7 (2)
0x180|ae                                             |.               |                  size: 46 0x180-0x180+7 (1)
     |                                               |                |                 -value: mpeg_avc_dcr 0x181-0x1ae+7 (46)
0x180|   01                                          | .              |                    configuration_version: 1 0x181-0x181+7 (1)
0x180|      f4                                       |  .             |                    profile_indication: 244 0x182-0x182+7 (1)
0x180|         00                                    |   .            |                    profile_compatibility: 0 0x183-0x183+7 (1)
0x180|            0d                                 |    .           |                    level_indication: 13 0x184-0x184+7 (1)
0x180|               ff                              |     .          |                    reserved0: 63 0x185-0x185+5 (0+6)
0x180|               ff                              |     .          |                    length_size_minus_one: 3 0x185+6-0x185+7 (0+2)
0x180|                  e1                           |      .         |                    reserved1: 7 0x186-0x186+2 (0+3)
0x180|                  e1                           |      .         |                    num_of_sequence_parameter_sets: 1 0x186+3-0x186+7 (0+5)
     |                                               |                |                    sequence_parameter_sets[1]: 0x187-0x1a1+7 (27)
     |                                               |                |                     -[0]: (parameter_set) 0x187-0x1a1+7 (27)
0x180|                     00 19                     |       ..       |                        length: 25 0x187-0x188+7 (2)
     |                                               |                |                       -set: 0x189-0x1a1+7 (25)
0x180|                           67                  |         g      |                          forbidden_zero_bit: false 0x189-0x189 (0+1)
0x180|                           67                  |         g      |                          nal_ref_idc: 3 0x189+1-0x189+2 (0+2)
0x180|                           67                  |         g      |                          nal_unit_type: 7 0x189+3-0x189+7 (0+5)
0x180|                              f4               |          .     |                          profile_idc: 244 0x18a-0x18a+7 (1)
0x180|                                 00            |           .    |                          level_idc: 0 0x18b-0x18b+7 (1)
0x180|                                    0d 91 9b 28|            ...(|                          data: 0d919b28283f60220000030002000003... 0x18c-0x1a1+7 (22)
0x190|28 3f 60 22 00 00 03 00 02 00 00 03 00 64 1e 28|(?`".........d.(|
0x1a0|53 2c                                          |S,              |
0x1a0|      01                                       |  .             |                    num_of_picture_parameter_sets: 1 0x1a2-0x1a2+7 (1)
     |                                               |                |                    picture_parameter_sets[1]: 0x1a3-0x1aa+7 (8)
     |                                               |                |                     -[0]: (parameter_set) 0x1a3-0x1aa+7 (8)
0x1a0|         00 06                                 |   ..           |                        length: 6 0x1a3-0x1a4+7 (2)
0x1a0|               68 eb e3 c4 48 44               |     h...HD     |                        set: 68ebe3c44844 0x1a5-0x1aa+7 (6)
0x1a0|                                 ff f8 f8 00   |           .... |                    data: fff8f800 0x1ab-0x1ae+7 (4)
     |                                               |                |       -[4]: (element) 0x1af-0x254+7 (166)
0x1a0|                                             12|               .|          id: Tags (1254c367) 0x1af-0x1b2+7 (4)
0x1b0|54 c3 67                                       |T.g             |
0x1b0|         40 a0                                 |   @.           |          size: 160 0x1b3-0x1b4+7 (2)
     |                                               |                |          elements[3]: 0x1b5-0x254+7 (160)
     |                                               |                |           -[0]: (element) 0x1b5-0x1ba+7 (6)
0x1b0|               bf                              |     .          |              id: CRC-32 (bf) 0x1b5-0x1b5+7 (1)
0x1b0|                  84                           |      .         |              size: 4 0x1b6-0x1b6+7 (1)
0x1b0|                     00 cb 88 49               |       ...I     |              value: 00cb8849 0x1b7-0x1ba+7 (4)
     |                                               |                |           -[1]: (element) 0x1bb-0x1eb+7 (49)
0x1b0|                                 73 73         |           ss   |              id: Tag (7373) 0x1bb-0x1bc+7 (2)
0x1b0|                                       01 00 00|             ...|              size: 39 0x1bd-0x1c4+7 (8)
0x1c0|00 00 00 00 27                                 |....'           |
     |                                               |                |              elements[2]: 0x1c5-0x1eb+7 (39)
     |                                               |                |               -[0]: (element) 0x1c5-0x1c7+7 (3)
0x1c0|               63 c0                           |     c.         |                  id: Targets (63c0) 0x1c5-0x1c6+7 (2)
0x1c0|                     80                        |       .        |                  size: 0 0x1c7-0x1c7+7 (1)
     |                                               |                |                  elements[0]: 0x1c8-NA (0)
     |                                               |                |               -[1]: (element) 0x1c8-0x1eb+7 (36)
0x1c0|                        67 c8                  |        g.      |                  id: SimpleTag (67c8) 0x1c8-0x1c9+7 (2)
0x1c0|                              01 00 00 00 00 00|          ......|                  size: 26 0x1ca-0x1d1+7 (8)
0x1d0|00 1a                                          |..              |
     |                                               |                |                  elements[2]: 0x1d2-0x1eb+7 (26)
     |                                               |                |                   -[0]: (element) 0x1d2-0x1db+7 (10)
0x1d0|      45 a3                                    |  E.            |                      id: TagName (45a3) 0x1d2-0x1d3+7 (2)
0x1d0|            87                                 |    .           |                      size: 7 0x1d4-0x1d4+7 (1)
0x1d0|               45 4e 43 4f 44 45 52            |     ENCODER    |                      value: "ENCODER" 0x1d5-0x1db+7 (7)
     |                                               |                |                   -[1]: (element) 0x1dc-0x1eb+7 (16)
0x1d0|                                    44 87      |            D.  |                      id: TagString (4487) 0x1dc-0x1dd+7 (2)
0x1d0|                                          8d   |              . |                      size: 13 0x1de-0x1de+7 (1)
0x1d0|                                             4c|               L|                      value: "Lavf58.45.100" 0x1df-0x1eb+7 (13)
0x1e0|61 76 66 35 38 2e 34 35 2e 31 30 30            |avf58.45.100    |
     |                                               |                |           -[2]: (element) 0x1ec-0x254+7 (105)
0x1e0|                                    73 73      |            ss  |              id: Tag (7373) 0x1ec-0x1ed+7 (2)
0x1e0|                                          01 00|              ..|              size: 95 0x1ee-0x1f5+7 (8)
0x1f0|00 00 00 00 00 5f                              |....._          |
     |                                               |                |              elements[3]: 0x1f6-0x254+7 (95)
     |                                               |                |               -[0]: (element) 0x1f6-0x203+7 (14)
0x1f0|                  63 c0                        |      c.        |                  id: Targets (63c0) 0x1f6-0x1f7+7 (2)
0x1f0|                        8b                     |        .       |                  size: 11 0x1f8-0x1f8+7 (1)
     |                                               |                |                  elements[1]: 0x1f9-0x203+7 (11)
     |                                               |                |                   -[0]: (element) 0x1f9-0x203+7 (11)
0x1f0|                           63 c5               |         c.     |                      id: TagTrackUID (63c5) 0x1f9-0x1fa+7 (2)
0x1f0|                                 88            |           .    |                      size: 8 0x1fb-0x1fb+7 (1)
0x1f0|                                    5c dc 49 64|            \.Id|                      value: 6691303842430154467 0x1fc-0x203+7 (8)
0x200|84 41 76 e3                                    |.Av.            |
     |                                               |                |               -[1]: (element) 0x204-0x22f+7 (44)
0x200|            67 c8                              |    g.          |                  id: SimpleTag (67c8) 0x204-0x205+7 (2)
0x200|                  01 00 00 00 00 00 00 22      |      ......."  |                  size: 34 0x206-0x20d+7 (8)
     |                                               |                |                  elements[2]: 0x20e-0x22f+7 (34)
     |                                               |                |                   -[0]: (element) 0x20e-0x217+7 (10)
0x200|                                          45 a3|              E.|                      id: TagName (45a3) 0x20e-0x20f+7 (2)
0x210|87                                             |.               |                      size: 7 0x210-0x210+7 (1)
0x210|   45 4e 43 4f 44 45 52                        | ENCODER        |                      value: "ENCODER" 0x211-0x217+7 (7)
     |                                               |                |                   -[1]: (element) 0x218-0x22f+7 (24)
0x210|                        44 87                  |        D.      |                      id: TagString (4487) 0x218-0x219+7 (2)
0x210|                              95               |          .     |                      size: 21 0x21a-0x21a+7 (1)
0x210|                                 4c 61 76 63 35|           Lavc5|                      value: "Lavc58.91.100 libx264" 0x21b-0x22f+7 (21)
0x220|38 2e 39 31 2e 31 30 30 20 6c 69 62 78 32 36 34|8.91.100 libx264|
     |                                               |                |               -[2]: (element) 0x230-0x254+7 (37)
0x230|67 c8                                          |g.              |                  id: SimpleTag (67c8) 0x230-0x231+7 (2)
0x230|      a2                                       |  .             |                  size: 34 0x232-0x232+7 (1)
     |                                               |                |                  elements[2]: 0x233-0x254+7 (34)
     |                                               |                |                   -[0]: (element) 0x233-0x23d+7 (11)
0x230|         45 a3                                 |   E.           |                      id: TagName (45a3) 0x233-0x234+7 (2)
0x230|               88                              |     .          |                      size: 8 0x235-0x235+7 (1)
0x230|                  44 55 52 41 54 49 4f 4e      |      DURATION  |                      value: "DURATION" 0x236-0x23d+7 (8)
     |                                               |                |                   -[1]: (element) 0x23e-0x254+7 (23)
0x230|                                          44 87|              D.|                      id: TagString (4487) 0x23e-0x23f+7 (2)
0x240|94                                             |.               |                      size: 20 0x240-0x240+7 (1)
0x240|   30 30 3a 30 30 3a 30 30 2e 30 34 30 30 30 30| 00:00:00.040000|                      value: "00:00:00.040000000\x00\x00" 0x241-0x254+7 (20)
0x250|30 30 30 00 00                                 |000..           |
     |                                               |                |       -[5]: (element) 0x255-0xd2a+7 (2774)
0x250|               1f 43 b6 75                     |     .C.u       |          id: Cluster (1f43b675) 0x255-0x258+7 (4)
0x250|                           4a d0               |         J.     |          size: 2768 0x259-0x25a+7 (2)
     |                                               |                |          elements[3]: 0x25b-0xd2a+7 (2768)
     |                                               |                |           -[0]: (element) 0x25b-0x260+7 (6)
0x250|                                 bf            |           .    |              id: CRC-32 (bf) 0x25b-0x25b+7 (1)
0x250|                                    84         |            .   |              size: 4 0x25c-0x25c+7 (1)
0x250|                                       4e 31 f6|             N1.|              value: 4e31f60d 0x25d-0x260+7 (4)
0x260|0d                                             |.               |
     |                                               |                |           -[1]: (element) 0x261-0x263+7 (3)
0x260|   e7                                          | .              |              id: Timestamp (e7) 0x261-0x261+7 (1)
0x260|      81                                       |  .             |              size: 1 0x262-0x262+7 (1)
0x260|         00                                    |   .            |              value: 0 0x263-0x263+7 (1)
     |                                               |                |           -[2]: (element) 0x264-0xd2a+7 (2759)
0x260|            a3                                 |    .           |              id: SimpleBlock (a3) 0x264-0x264+7 (1)
0x260|               4a c4                           |     J.         |              size: 2756 0x265-0x266+7 (2)
0x260|                     81                        |       .        |              track_number: 1 0x267-0x267+7 (1)
0x260|                        00 00                  |        ..      |              timestamp: 0 0x268-0x269+7 (2)
     |                                               |                |             -flags: 0x26a-0x26a+7 (1)
0x260|                              80               |          .     |                key_frame: true 0x26a-0x26a (0+1)
0x260|                              80               |          .     |                reserved: 0 0x26a+1-0x26a+3 (0+3)
0x260|                              80               |          .     |                invisible: false 0x26a+4-0x26a+4 (0+1)
0x260|                              80               |          .     |                lacing: 0 0x26a+5-0x26a+6 (0+2)
0x260|                              80               |          .     |                discardable: false 0x26a+7-0x26a+7 (0+1)
     |                                               |                |             -packet: mpeg_avc 0x26b-0xd2a+7 (2752)
     |                                               |                |                nals[2]: 0x26b-0xd2a+7 (2752)
     |                                               |                |                 -[0]: (nal) 0x26b-0x51b+7 (689)
0x260|                                 00 00 02 ad   |           .... |                    length: 685 0x26b-0x26e+7 (4)
0x260|                                             06|               .|                    data: 0605ffffa9dc45e9bde6d948b7962cd8... 0x26f-0x51b+7 (685)
0x270|05 ff ff a9 dc 45 e9 bd e6 d9 48 b7 96 2c d8 20|.....E....H..,. |
*    |668 bytes more until 0x51b+7                   |                |
     |                                               |                |                 -[1]: (nal) 0x51c-0xd2a+7 (2063)
0x510|                                    00 00 08 0b|            ....|                    length: 2059 0x51c-0x51f+7 (4)
0x520|65 88 84 00 2b ff fe f5 db f3 2c ac 66 67 3d ff|e...+.....,.fg=.|                    data: 658884002bfffef5dbf32cac66673dff... 0x520-0xd2a+7 (2059)
*    |2043 bytes more until 0xd2a+7                  |                |
     |                                               |                |       -[6]: (element) 0xd2b-0xd46+7 (28)
0xd20|                                 1c 53 bb 6b   |           .S.k |          id: Cues (1c53bb6b) 0xd2b-0xd2e+7 (4)
0xd20|                                             97|               .|          size: 23 0xd2f-0xd2f+7 (1)
     |                                               |                |          elements[2]: 0xd30-0xd46+7 (23)
     |                                               |                |           -[0]: (element) 0xd30-0xd35+7 (6)
0xd30|bf                                             |.               |              id: CRC-32 (bf) 0xd30-0xd30+7 (1)
0xd30|   84                                          | .              |              size: 4 0xd31-0xd31+7 (1)
0xd30|      78 19 be 67                              |  x..g          |              value: 7819be67 0xd32-0xd35+7 (4)
     |                                               |                |           -[1]: (element) 0xd36-0xd46+7 (17)
0xd30|                  bb                           |      .         |              id: CuePoint (bb) 0xd36-0xd36+7 (1)
0xd30|                     8f                        |       .        |              size: 15 0xd37-0xd37+7 (1)
     |                                               |                |              elements[2]: 0xd38-0xd46+7 (15)
     |                                               |                |               -[0]: (element) 0xd38-0xd3a+7 (3)
0xd30|                        b3                     |        .       |                  id: CueTime (b3) 0xd38-0xd38+7 (1)
0xd30|                           81                  |         .      |                  size: 1 0xd39-0xd39+7 (1)
0xd30|                              00               |          .     |                  value: 0 0xd3a-0xd3a+7 (1)
     |                                               |                |               -[1]: (element) 0xd3b-0xd46+7 (12)
0xd30|                                 b7            |           .    |                  id: CueTrackPositions (b7) 0xd3b-0xd3b+7 (1)
0xd30|                                    8a         |            .   |                  size: 10 0xd3c-0xd3c+7 (1)
     |                                               |                |                  elements[3]: 0xd3d-0xd46+7 (10)
     |                                               |                |                   -[0]: (element) 0xd3d-0xd3f+7 (3)
0xd30|                                       f7      |             .  |                      id: CueTrack (f7) 0xd3d-0xd3d+7 (1)
0xd30|                                          81   |              . |                      size: 1 0xd3e-0xd3e+7 (1)
0xd30|                                             01|               .|                      value: 1 0xd3f-0xd3f+7 (1)
     |                                               |                |                   -[1]: (element) 0xd40-0xd43+7 (4)
0xd40|f1                                             |.               |                      id: CueClusterPosition (f1) 0xd40-0xd40+7 (1)
0xd40|   82                                          | .              |                      size: 2 0xd41-0xd41+7 (1)
0xd40|      02 21                                    |  .!            |                      value: 545 0xd42-0xd43+7 (2)
     |                                               |                |                   -[2]: (element) 0xd44-0xd46+7 (3)
0xd40|            f0                                 |    .           |                      id: CueRelativePosition (f0) 0xd44-0xd44+7 (1)
0xd40|               81                              |     .          |                      size: 1 0xd45-0xd45+7 (1)
0xd40|                  09|                          |      .|        |                      value: 9 0xd46-0xd46+7 (1)
