# ffmpeg -f lavfi -i sine -f lavfi -i testsrc -t 10ms test.mkv
/test.mkv:
> fq -d mkv test.mkv verbose
      |00 01 02 03 04 05 06 07 08 09 0a 0b 0c 0d 0e 0f|                |.: mkv 0x0-0x1b8b.7 (7052)
      |                                               |                |  elements[2]: 0x0-0x1b8b.7 (7052)
      |                                               |                |    [0]: {} (element) 0x0-0x27.7 (40)
0x0000|1a 45 df a3                                    |.E..            |      id: EBML (1a45dfa3) 0x0-0x3.7 (4)
0x0000|            a3                                 |    .           |      size: 35 0x4-0x4.7 (1)
      |                                               |                |      elements[7]: 0x5-0x27.7 (35)
      |                                               |                |        [0]: {} (element) 0x5-0x8.7 (4)
0x0000|               42 86                           |     B.         |          id: EBMLVersion (4286) 0x5-0x6.7 (2)
0x0000|                     81                        |       .        |          size: 1 0x7-0x7.7 (1)
0x0000|                        01                     |        .       |          value: 1 0x8-0x8.7 (1)
      |                                               |                |        [1]: {} (element) 0x9-0xc.7 (4)
0x0000|                           42 f7               |         B.     |          id: EBMLReadVersion (42f7) 0x9-0xa.7 (2)
0x0000|                                 81            |           .    |          size: 1 0xb-0xb.7 (1)
0x0000|                                    01         |            .   |          value: 1 0xc-0xc.7 (1)
      |                                               |                |        [2]: {} (element) 0xd-0x10.7 (4)
0x0000|                                       42 f2   |             B. |          id: EBMLMaxIDLength (42f2) 0xd-0xe.7 (2)
0x0000|                                             81|               .|          size: 1 0xf-0xf.7 (1)
0x0010|04                                             |.               |          value: 4 0x10-0x10.7 (1)
      |                                               |                |        [3]: {} (element) 0x11-0x14.7 (4)
0x0010|   42 f3                                       | B.             |          id: EBMLMaxSizeLength (42f3) 0x11-0x12.7 (2)
0x0010|         81                                    |   .            |          size: 1 0x13-0x13.7 (1)
0x0010|            08                                 |    .           |          value: 8 0x14-0x14.7 (1)
      |                                               |                |        [4]: {} (element) 0x15-0x1f.7 (11)
0x0010|               42 82                           |     B.         |          id: DocType (4282) 0x15-0x16.7 (2)
0x0010|                     88                        |       .        |          size: 8 0x17-0x17.7 (1)
0x0010|                        6d 61 74 72 6f 73 6b 61|        matroska|          value: "matroska" 0x18-0x1f.7 (8)
      |                                               |                |        [5]: {} (element) 0x20-0x23.7 (4)
0x0020|42 87                                          |B.              |          id: DocTypeVersion (4287) 0x20-0x21.7 (2)
0x0020|      81                                       |  .             |          size: 1 0x22-0x22.7 (1)
0x0020|         04                                    |   .            |          value: 4 0x23-0x23.7 (1)
      |                                               |                |        [6]: {} (element) 0x24-0x27.7 (4)
0x0020|            42 85                              |    B.          |          id: DocTypeReadVersion (4285) 0x24-0x25.7 (2)
0x0020|                  81                           |      .         |          size: 1 0x26-0x26.7 (1)
0x0020|                     02                        |       .        |          value: 2 0x27-0x27.7 (1)
      |                                               |                |    [1]: {} (element) 0x28-0x1b8b.7 (7012)
0x0020|                        18 53 80 67            |        .S.g    |      id: Segment (18538067) 0x28-0x2b.7 (4)
0x0020|                                    01 00 00 00|            ....|      size: 7000 0x2c-0x33.7 (8)
0x0030|00 00 1b 58                                    |...X            |
      |                                               |                |      elements[7]: 0x34-0x1b8b.7 (7000)
      |                                               |                |        [0]: {} (element) 0x34-0x78.7 (69)
0x0030|            11 4d 9b 74                        |    .M.t        |          id: SeekHead (114d9b74) 0x34-0x37.7 (4)
0x0030|                        c0                     |        .       |          size: 64 0x38-0x38.7 (1)
      |                                               |                |          elements[5]: 0x39-0x78.7 (64)
      |                                               |                |            [0]: {} (element) 0x39-0x3e.7 (6)
0x0030|                           bf                  |         .      |              id: CRC-32 (bf) 0x39-0x39.7 (1)
0x0030|                              84               |          .     |              size: 4 0x3a-0x3a.7 (1)
0x0030|                                 51 69 40 71   |           Qi@q |              value: 51694071 0x3b-0x3e.7 (4)
      |                                               |                |            [1]: {} (element) 0x3f-0x4c.7 (14)
0x0030|                                             4d|               M|              id: Seek (4dbb) 0x3f-0x40.7 (2)
0x0040|bb                                             |.               |
0x0040|   8b                                          | .              |              size: 11 0x41-0x41.7 (1)
      |                                               |                |              elements[2]: 0x42-0x4c.7 (11)
      |                                               |                |                [0]: {} (element) 0x42-0x48.7 (7)
0x0040|      53 ab                                    |  S.            |                  id: SeekID (53ab) 0x42-0x43.7 (2)
0x0040|            84                                 |    .           |                  size: 4 0x44-0x44.7 (1)
0x0040|               15 49 a9 66                     |     .I.f       |                  value: 1549a966 0x45-0x48.7 (4)
      |                                               |                |                [1]: {} (element) 0x49-0x4c.7 (4)
0x0040|                           53 ac               |         S.     |                  id: SeekPosition (53ac) 0x49-0x4a.7 (2)
0x0040|                                 81            |           .    |                  size: 1 0x4b-0x4b.7 (1)
0x0040|                                    a1         |            .   |                  value: 161 0x4c-0x4c.7 (1)
      |                                               |                |            [2]: {} (element) 0x4d-0x5a.7 (14)
0x0040|                                       4d bb   |             M. |              id: Seek (4dbb) 0x4d-0x4e.7 (2)
0x0040|                                             8b|               .|              size: 11 0x4f-0x4f.7 (1)
      |                                               |                |              elements[2]: 0x50-0x5a.7 (11)
      |                                               |                |                [0]: {} (element) 0x50-0x56.7 (7)
0x0050|53 ab                                          |S.              |                  id: SeekID (53ab) 0x50-0x51.7 (2)
0x0050|      84                                       |  .             |                  size: 4 0x52-0x52.7 (1)
0x0050|         16 54 ae 6b                           |   .T.k         |                  value: 1654ae6b 0x53-0x56.7 (4)
      |                                               |                |                [1]: {} (element) 0x57-0x5a.7 (4)
0x0050|                     53 ac                     |       S.       |                  id: SeekPosition (53ac) 0x57-0x58.7 (2)
0x0050|                           81                  |         .      |                  size: 1 0x59-0x59.7 (1)
0x0050|                              f1               |          .     |                  value: 241 0x5a-0x5a.7 (1)
      |                                               |                |            [3]: {} (element) 0x5b-0x69.7 (15)
0x0050|                                 4d bb         |           M.   |              id: Seek (4dbb) 0x5b-0x5c.7 (2)
0x0050|                                       8c      |             .  |              size: 12 0x5d-0x5d.7 (1)
      |                                               |                |              elements[2]: 0x5e-0x69.7 (12)
      |                                               |                |                [0]: {} (element) 0x5e-0x64.7 (7)
0x0050|                                          53 ab|              S.|                  id: SeekID (53ab) 0x5e-0x5f.7 (2)
0x0060|84                                             |.               |                  size: 4 0x60-0x60.7 (1)
0x0060|   12 54 c3 67                                 | .T.g           |                  value: 1254c367 0x61-0x64.7 (4)
      |                                               |                |                [1]: {} (element) 0x65-0x69.7 (5)
0x0060|               53 ac                           |     S.         |                  id: SeekPosition (53ac) 0x65-0x66.7 (2)
0x0060|                     82                        |       .        |                  size: 2 0x67-0x67.7 (1)
0x0060|                        0e b6                  |        ..      |                  value: 3766 0x68-0x69.7 (2)
      |                                               |                |            [4]: {} (element) 0x6a-0x78.7 (15)
0x0060|                              4d bb            |          M.    |              id: Seek (4dbb) 0x6a-0x6b.7 (2)
0x0060|                                    8c         |            .   |              size: 12 0x6c-0x6c.7 (1)
      |                                               |                |              elements[2]: 0x6d-0x78.7 (12)
      |                                               |                |                [0]: {} (element) 0x6d-0x73.7 (7)
0x0060|                                       53 ab   |             S. |                  id: SeekID (53ab) 0x6d-0x6e.7 (2)
0x0060|                                             84|               .|                  size: 4 0x6f-0x6f.7 (1)
0x0070|1c 53 bb 6b                                    |.S.k            |                  value: 1c53bb6b 0x70-0x73.7 (4)
      |                                               |                |                [1]: {} (element) 0x74-0x78.7 (5)
0x0070|            53 ac                              |    S.          |                  id: SeekPosition (53ac) 0x74-0x75.7 (2)
0x0070|                  82                           |      .         |                  size: 2 0x76-0x76.7 (1)
0x0070|                     1b 3c                     |       .<       |                  value: 6972 0x77-0x78.7 (2)
      |                                               |                |        [1]: {} (element) 0x79-0xd4.7 (92)
0x0070|                           ec                  |         .      |          id: Void (ec) 0x79-0x79.7 (1)
0x0070|                              01 00 00 00 00 00|          ......|          size: 83 0x7a-0x81.7 (8)
0x0080|00 53                                          |.S              |
0x0080|      00 00 00 00 00 00 00 00 00 00 00 00 00 00|  ..............|          value: 00000000000000000000000000000000... 0x82-0xd4.7 (83)
0x0090|00 00 00 00 00 00 00 00 00 00 00 00 00 00 00 00|................|
*     |53 bytes more until 0xd4.7                     |                |
      |                                               |                |        [2]: {} (element) 0xd5-0x124.7 (80)
0x00d0|               15 49 a9 66                     |     .I.f       |          id: Info (1549a966) 0xd5-0xd8.7 (4)
0x00d0|                           cb                  |         .      |          size: 75 0xd9-0xd9.7 (1)
      |                                               |                |          elements[6]: 0xda-0x124.7 (75)
      |                                               |                |            [0]: {} (element) 0xda-0xdf.7 (6)
0x00d0|                              bf               |          .     |              id: CRC-32 (bf) 0xda-0xda.7 (1)
0x00d0|                                 84            |           .    |              size: 4 0xdb-0xdb.7 (1)
0x00d0|                                    5e 68 02 8e|            ^h..|              value: 5e68028e 0xdc-0xdf.7 (4)
      |                                               |                |            [1]: {} (element) 0xe0-0xe6.7 (7)
0x00e0|2a d7 b1                                       |*..             |              id: TimestampScale (2ad7b1) 0xe0-0xe2.7 (3)
0x00e0|         83                                    |   .            |              size: 3 0xe3-0xe3.7 (1)
0x00e0|            0f 42 40                           |    .B@         |              value: 1000000 0xe4-0xe6.7 (3)
      |                                               |                |            [2]: {} (element) 0xe7-0xf6.7 (16)
0x00e0|                     4d 80                     |       M.       |              id: MuxingApp (4d80) 0xe7-0xe8.7 (2)
0x00e0|                           8d                  |         .      |              size: 13 0xe9-0xe9.7 (1)
0x00e0|                              4c 61 76 66 35 38|          Lavf58|              value: "Lavf58.45.100" 0xea-0xf6.7 (13)
0x00f0|2e 34 35 2e 31 30 30                           |.45.100         |
      |                                               |                |            [3]: {} (element) 0xf7-0x106.7 (16)
0x00f0|                     57 41                     |       WA       |              id: WritingApp (5741) 0xf7-0xf8.7 (2)
0x00f0|                           8d                  |         .      |              size: 13 0xf9-0xf9.7 (1)
0x00f0|                              4c 61 76 66 35 38|          Lavf58|              value: "Lavf58.45.100" 0xfa-0x106.7 (13)
0x0100|2e 34 35 2e 31 30 30                           |.45.100         |
      |                                               |                |            [4]: {} (element) 0x107-0x119.7 (19)
0x0100|                     73 a4                     |       s.       |              id: SegmentUID (73a4) 0x107-0x108.7 (2)
0x0100|                           90                  |         .      |              size: 16 0x109-0x109.7 (1)
0x0100|                              86 09 cf 33 ec b0|          ...3..|              value: 8609cf33ecb0b9aeda8453453d1e1832 0x10a-0x119.7 (16)
0x0110|b9 ae da 84 53 45 3d 1e 18 32                  |....SE=..2      |
      |                                               |                |            [5]: {} (element) 0x11a-0x124.7 (11)
0x0110|                              44 89            |          D.    |              id: Duration (4489) 0x11a-0x11b.7 (2)
0x0110|                                    88         |            .   |              size: 8 0x11c-0x11c.7 (1)
0x0110|                                       40 45 80|             @E.|              value: 43 0x11d-0x124.7 (8)
0x0120|00 00 00 00 00                                 |.....           |
      |                                               |                |        [3]: {} (element) 0x125-0x284.7 (352)
0x0120|               16 54 ae 6b                     |     .T.k       |          id: Tracks (1654ae6b) 0x125-0x128.7 (4)
0x0120|                           4d bf               |         M.     |          size: 3519 0x129-0x12a.7 (2)
      |                                               |                |          elements[3]: 0x12b-0x284.7 (346)
      |                                               |                |            [0]: {} (element) 0x12b-0x130.7 (6)
0x0120|                                 bf            |           .    |              id: CRC-32 (bf) 0x12b-0x12b.7 (1)
0x0120|                                    84         |            .   |              size: 4 0x12c-0x12c.7 (1)
0x0120|                                       3a d3 04|             :..|              value: 3ad304f7 0x12d-0x130.7 (4)
0x0130|f7                                             |.               |
      |                                               |                |            [1]: {} (element) 0x131-0x1b1.7 (129)
0x0130|   ae                                          | .              |              id: TrackEntry (ae) 0x131-0x131.7 (1)
0x0130|      01 00 00 00 00 00 00 78                  |  .......x      |              size: 120 0x132-0x139.7 (8)
      |                                               |                |              elements[9]: 0x13a-0x1b1.7 (120)
      |                                               |                |                [0]: {} (element) 0x13a-0x13c.7 (3)
0x0130|                              d7               |          .     |                  id: TrackNumber (d7) 0x13a-0x13a.7 (1)
0x0130|                                 81            |           .    |                  size: 1 0x13b-0x13b.7 (1)
0x0130|                                    01         |            .   |                  value: 1 0x13c-0x13c.7 (1)
      |                                               |                |                [1]: {} (element) 0x13d-0x147.7 (11)
0x0130|                                       73 c5   |             s. |                  id: TrackUID (73c5) 0x13d-0x13e.7 (2)
0x0130|                                             88|               .|                  size: 8 0x13f-0x13f.7 (1)
0x0140|cc 56 14 e6 54 8d e2 06                        |.V..T...        |                  value: 14723979011228033542 0x140-0x147.7 (8)
      |                                               |                |                [2]: {} (element) 0x148-0x14a.7 (3)
0x0140|                        9c                     |        .       |                  id: FlagLacing (9c) 0x148-0x148.7 (1)
0x0140|                           81                  |         .      |                  size: 1 0x149-0x149.7 (1)
0x0140|                              00               |          .     |                  value: 0 0x14a-0x14a.7 (1)
      |                                               |                |                [3]: {} (element) 0x14b-0x151.7 (7)
0x0140|                                 22 b5 9c      |           "..  |                  id: Language (22b59c) 0x14b-0x14d.7 (3)
0x0140|                                          83   |              . |                  size: 3 0x14e-0x14e.7 (1)
0x0140|                                             75|               u|                  value: "und" 0x14f-0x151.7 (3)
0x0150|6e 64                                          |nd              |
      |                                               |                |                [4]: {} (element) 0x152-0x162.7 (17)
0x0150|      86                                       |  .             |                  id: CodecID (86) 0x152-0x152.7 (1)
0x0150|         8f                                    |   .            |                  size: 15 0x153-0x153.7 (1)
0x0150|            56 5f 4d 50 45 47 34 2f 49 53 4f 2f|    V_MPEG4/ISO/|                  value: "V_MPEG4/ISO/AVC" 0x154-0x162.7 (15)
0x0160|41 56 43                                       |AVC             |
      |                                               |                |                [5]: {} (element) 0x163-0x165.7 (3)
0x0160|         83                                    |   .            |                  id: TrackType (83) 0x163-0x163.7 (1)
0x0160|            81                                 |    .           |                  size: 1 0x164-0x164.7 (1)
0x0160|               01                              |     .          |                  value: 1 0x165-0x165.7 (1)
      |                                               |                |                [6]: {} (element) 0x166-0x16d.7 (8)
0x0160|                  23 e3 83                     |      #..       |                  id: DefaultDuration (23e383) 0x166-0x168.7 (3)
0x0160|                           84                  |         .      |                  size: 4 0x169-0x169.7 (1)
0x0160|                              02 62 5a 00      |          .bZ.  |                  value: 40000000 0x16a-0x16d.7 (4)
      |                                               |                |                [7]: {} (element) 0x16e-0x180.7 (19)
0x0160|                                          e0   |              . |                  id: Video (e0) 0x16e-0x16e.7 (1)
0x0160|                                             01|               .|                  size: 10 0x16f-0x176.7 (8)
0x0170|00 00 00 00 00 00 0a                           |.......         |
      |                                               |                |                  elements[3]: 0x177-0x180.7 (10)
      |                                               |                |                    [0]: {} (element) 0x177-0x17a.7 (4)
0x0170|                     b0                        |       .        |                      id: PixelWidth (b0) 0x177-0x177.7 (1)
0x0170|                        82                     |        .       |                      size: 2 0x178-0x178.7 (1)
0x0170|                           01 40               |         .@     |                      value: 320 0x179-0x17a.7 (2)
      |                                               |                |                    [1]: {} (element) 0x17b-0x17d.7 (3)
0x0170|                                 ba            |           .    |                      id: PixelHeight (ba) 0x17b-0x17b.7 (1)
0x0170|                                    81         |            .   |                      size: 1 0x17c-0x17c.7 (1)
0x0170|                                       f0      |             .  |                      value: 240 0x17d-0x17d.7 (1)
      |                                               |                |                    [2]: {} (element) 0x17e-0x180.7 (3)
0x0170|                                          9a   |              . |                      id: FlagInterlaced (9a) 0x17e-0x17e.7 (1)
0x0170|                                             81|               .|                      size: 1 0x17f-0x17f.7 (1)
0x0180|02                                             |.               |                      value: 2 0x180-0x180.7 (1)
      |                                               |                |                [8]: {} (element) 0x181-0x1b1.7 (49)
0x0180|   63 a2                                       | c.             |                  id: CodecPrivate (63a2) 0x181-0x182.7 (2)
0x0180|         ae                                    |   .            |                  size: 46 0x183-0x183.7 (1)
      |                                               |                |                  value: mpeg_avc_dcr 0x184-0x1b1.7 (46)
0x0180|            01                                 |    .           |                    configuration_version: 1 0x184-0x184.7 (1)
0x0180|               f4                              |     .          |                    profile_indication: 244 0x185-0x185.7 (1)
0x0180|                  00                           |      .         |                    profile_compatibility: 0 0x186-0x186.7 (1)
0x0180|                     0d                        |       .        |                    level_indication: 13 0x187-0x187.7 (1)
0x0180|                        ff                     |        .       |                    reserved0: 63 0x188-0x188.5 (0.6)
0x0180|                        ff                     |        .       |                    length_size_minus_one: 3 0x188.6-0x188.7 (0.2)
0x0180|                           e1                  |         .      |                    reserved1: 7 0x189-0x189.2 (0.3)
0x0180|                           e1                  |         .      |                    num_of_sequence_parameter_sets: 1 0x189.3-0x189.7 (0.5)
      |                                               |                |                    sequence_parameter_sets[1]: 0x18a-0x1a4.7 (27)
      |                                               |                |                      [0]: {} (parameter_set) 0x18a-0x1a4.7 (27)
0x0180|                              00 19            |          ..    |                        length: 25 0x18a-0x18b.7 (2)
      |                                               |                |                        set: {} 0x18c-0x1a4.7 (25)
0x0180|                                    67         |            g   |                          forbidden_zero_bit: false 0x18c-0x18c (0.1)
0x0180|                                    67         |            g   |                          nal_ref_idc: 3 0x18c.1-0x18c.2 (0.2)
0x0180|                                    67         |            g   |                          nal_unit_type: 7 0x18c.3-0x18c.7 (0.5)
0x0180|                                       f4      |             .  |                          profile_idc: 244 0x18d-0x18d.7 (1)
0x0180|                                          00   |              . |                          level_idc: 0 0x18e-0x18e.7 (1)
0x0180|                                             0d|               .|                          data: 0d919b28283f60220000030002000003... 0x18f-0x1a4.7 (22)
0x0190|91 9b 28 28 3f 60 22 00 00 03 00 02 00 00 03 00|..((?`".........|
0x01a0|64 1e 28 53 2c                                 |d.(S,           |
0x01a0|               01                              |     .          |                    num_of_picture_parameter_sets: 1 0x1a5-0x1a5.7 (1)
      |                                               |                |                    picture_parameter_sets[1]: 0x1a6-0x1ad.7 (8)
      |                                               |                |                      [0]: {} (parameter_set) 0x1a6-0x1ad.7 (8)
0x01a0|                  00 06                        |      ..        |                        length: 6 0x1a6-0x1a7.7 (2)
0x01a0|                        68 eb e3 c4 48 44      |        h...HD  |                        set: 68ebe3c44844 0x1a8-0x1ad.7 (6)
0x01a0|                                          ff f8|              ..|                    data: fff8f800 0x1ae-0x1b1.7 (4)
0x01b0|f8 00                                          |..              |
      |                                               |                |            [2]: {} (element) 0x1b2-0x284.7 (211)
0x01b0|      ae                                       |  .             |              id: TrackEntry (ae) 0x1b2-0x1b2.7 (1)
0x01b0|         01 00 00 00 00 00 0d 2f               |   ......./     |              size: 3375 0x1b3-0x1ba.7 (8)
      |                                               |                |              elements[8]: 0x1bb-0x284.7 (202)
      |                                               |                |                [0]: {} (element) 0x1bb-0x1bd.7 (3)
0x01b0|                                 d7            |           .    |                  id: TrackNumber (d7) 0x1bb-0x1bb.7 (1)
0x01b0|                                    81         |            .   |                  size: 1 0x1bc-0x1bc.7 (1)
0x01b0|                                       02      |             .  |                  value: 2 0x1bd-0x1bd.7 (1)
      |                                               |                |                [1]: {} (element) 0x1be-0x1c8.7 (11)
0x01b0|                                          73 c5|              s.|                  id: TrackUID (73c5) 0x1be-0x1bf.7 (2)
0x01c0|88                                             |.               |                  size: 8 0x1c0-0x1c0.7 (1)
0x01c0|   4d ea d6 b5 0c 4f f9 5d                     | M....O.]       |                  value: 5614535958554736989 0x1c1-0x1c8.7 (8)
      |                                               |                |                [2]: {} (element) 0x1c9-0x1cb.7 (3)
0x01c0|                           9c                  |         .      |                  id: FlagLacing (9c) 0x1c9-0x1c9.7 (1)
0x01c0|                              81               |          .     |                  size: 1 0x1ca-0x1ca.7 (1)
0x01c0|                                 00            |           .    |                  value: 0 0x1cb-0x1cb.7 (1)
      |                                               |                |                [3]: {} (element) 0x1cc-0x1d2.7 (7)
0x01c0|                                    22 b5 9c   |            ".. |                  id: Language (22b59c) 0x1cc-0x1ce.7 (3)
0x01c0|                                             83|               .|                  size: 3 0x1cf-0x1cf.7 (1)
0x01d0|75 6e 64                                       |und             |                  value: "und" 0x1d0-0x1d2.7 (3)
      |                                               |                |                [4]: {} (element) 0x1d3-0x1dc.7 (10)
0x01d0|         86                                    |   .            |                  id: CodecID (86) 0x1d3-0x1d3.7 (1)
0x01d0|            88                                 |    .           |                  size: 8 0x1d4-0x1d4.7 (1)
0x01d0|               41 5f 56 4f 52 42 49 53         |     A_VORBIS   |                  value: "A_VORBIS" 0x1d5-0x1dc.7 (8)
      |                                               |                |                [5]: {} (element) 0x1dd-0x1df.7 (3)
0x01d0|                                       83      |             .  |                  id: TrackType (83) 0x1dd-0x1dd.7 (1)
0x01d0|                                          81   |              . |                  size: 1 0x1de-0x1de.7 (1)
0x01d0|                                             02|               .|                  value: 2 0x1df-0x1df.7 (1)
      |                                               |                |                [6]: {} (element) 0x1e0-0x1f2.7 (19)
0x01e0|e1                                             |.               |                  id: Audio (e1) 0x1e0-0x1e0.7 (1)
0x01e0|   91                                          | .              |                  size: 17 0x1e1-0x1e1.7 (1)
      |                                               |                |                  elements[3]: 0x1e2-0x1f2.7 (17)
      |                                               |                |                    [0]: {} (element) 0x1e2-0x1e4.7 (3)
0x01e0|      9f                                       |  .             |                      id: Channels (9f) 0x1e2-0x1e2.7 (1)
0x01e0|         81                                    |   .            |                      size: 1 0x1e3-0x1e3.7 (1)
0x01e0|            01                                 |    .           |                      value: 1 0x1e4-0x1e4.7 (1)
      |                                               |                |                    [1]: {} (element) 0x1e5-0x1ee.7 (10)
0x01e0|               b5                              |     .          |                      id: SamplingFrequency (b5) 0x1e5-0x1e5.7 (1)
0x01e0|                  88                           |      .         |                      size: 8 0x1e6-0x1e6.7 (1)
0x01e0|                     40 e5 88 80 00 00 00 00   |       @....... |                      value: 44100 0x1e7-0x1ee.7 (8)
      |                                               |                |                    [2]: {} (element) 0x1ef-0x1f2.7 (4)
0x01e0|                                             62|               b|                      id: BitDepth (6264) 0x1ef-0x1f0.7 (2)
0x01f0|64                                             |d               |
0x01f0|   81                                          | .              |                      size: 1 0x1f1-0x1f1.7 (1)
0x01f0|      20                                       |                |                      value: 32 0x1f2-0x1f2.7 (1)
      |                                               |                |                [7]: {} (element) 0x1f3-0x284.7 (146)
0x01f0|         63 a2                                 |   c.           |                  id: CodecPrivate (63a2) 0x1f3-0x1f4.7 (2)
0x01f0|               4c f3                           |     L.         |                  size: 3315 0x1f5-0x1f6.7 (2)
0x01f0|                     02                        |       .        |                  num_packets: 2 0x1f7-0x1f7.7 (1)
      |                                               |                |                  laces[2]: 0x1f8-0x1f9.7 (2)
0x01f0|                        1e                     |        .       |                    [0]: 30 (lace) 0x1f8-0x1f8.7 (1)
0x01f0|                           5d                  |         ]      |                    [1]: 93 (lace) 0x1f9-0x1f9.7 (1)
      |                                               |                |                  packets[3]: 0x1fa-0x284.7 (139)
      |                                               |                |                    [0]: vorbis_packet (packet) 0x1fa-0x217.7 (30)
0x01f0|                              01               |          .     |                      packet_type: Identification (1) 0x1fa-0x1fa.7 (1)
0x01f0|                                 76 6f 72 62 69|           vorbi|                      magic: "vorbis" (Correct) 0x1fb-0x200.7 (6)
0x0200|73                                             |s               |
0x0200|   00 00 00 00                                 | ....           |                      vorbis_version: Correct (0) 0x201-0x204.7 (4)
0x0200|               01                              |     .          |                      audio_channels: 1 0x205-0x205.7 (1)
0x0200|                  44 ac 00 00                  |      D...      |                      audio_sample_rate: 44100 0x206-0x209.7 (4)
0x0200|                              00 00 00 00      |          ....  |                      bitrate_maximum: 0 0x20a-0x20d.7 (4)
0x0200|                                          80 38|              .8|                      bitrate_nominal: 80000 0x20e-0x211.7 (4)
0x0210|01 00                                          |..              |
0x0210|      00 00 00 00                              |  ....          |                      bitrate_minimum: 0 0x212-0x215.7 (4)
0x0210|                  b8                           |      .         |                      blocksize_1: 2048 0x216-0x216.3 (0.4)
0x0210|                  b8                           |      .         |                      blocksize_0: 256 0x216.4-0x216.7 (0.4)
0x0210|                     01                        |       .        |                      padding0: Correct (none) (zero padding) 0x217-0x217.6 (0.7)
0x0210|                     01                        |       .        |                      framing_flag: Correct (1) 0x217.7-0x217.7 (0.1)
      |                                               |                |                    [1]: vorbis_packet (packet) 0x218-0x274.7 (93)
0x0210|                        03                     |        .       |                      packet_type: Comment (3) 0x218-0x218.7 (1)
0x0210|                           76 6f 72 62 69 73   |         vorbis |                      magic: "vorbis" (Correct) 0x219-0x21e.7 (6)
      |                                               |                |                      comment: vorbis_comment 0x21f-0x273.7 (85)
0x0210|                                             34|               4|                        vendor_length: 52 0x21f-0x222.7 (4)
0x0220|00 00 00                                       |...             |
0x0220|         58 69 70 68 2e 4f 72 67 20 6c 69 62 56|   Xiph.Org libV|                        vendor: "Xiph.Org libVorbis I 20200704 (Reducing Environmen"... 0x223-0x256.7 (52)
0x0230|6f 72 62 69 73 20 49 20 32 30 32 30 30 37 30 34|orbis I 20200704|
*     |23 bytes more until 0x256.7                    |                |
0x0250|                     01 00 00 00               |       ....     |                        user_comment_list_length: 1 0x257-0x25a.7 (4)
      |                                               |                |                        user_comments[1]: 0x25b-0x273.7 (25)
      |                                               |                |                          [0]: {} (user_comment) 0x25b-0x273.7 (25)
0x0250|                                 15 00 00 00   |           .... |                            length: 21 0x25b-0x25e.7 (4)
0x0250|                                             65|               e|                            vendor: "encoder=Lavc58.91.100" 0x25f-0x273.7 (21)
0x0260|6e 63 6f 64 65 72 3d 4c 61 76 63 35 38 2e 39 31|ncoder=Lavc58.91|
0x0270|2e 31 30 30                                    |.100            |
0x0270|            01                                 |    .           |                      padding0: Correct (none) (zero padding) 0x274-0x274.6 (0.7)
0x0270|            01                                 |    .           |                      frame_bit: Correct (1) 0x274.7-0x274.7 (0.1)
      |                                               |                |                    [2]: vorbis_packet (packet) 0x275-0x284.7 (16)
0x0270|               05                              |     .          |                      packet_type: Setup (5) 0x275-0x275.7 (1)
0x0270|                  76 6f 72 62 69 73            |      vorbis    |                      magic: "vorbis" (Correct) 0x276-0x27b.7 (6)
0x0270|                                    22         |            "   |                      vorbis_codebook_count: 35 0x27c-0x27c.7 (1)
0x0270|                                       42 43 56|             BCV|                      codecooke_sync: Correct (564342) 0x27d-0x27f.7 (3)
0x0280|01 00                                          |..              |                      codebook_dimensions: 1 0x280-0x281.7 (2)
0x0280|      40 00 00                                 |  @..           |                      codebook_entries: 64 0x282-0x284.7 (3)
      |                                               |                |        [4]: {} (element) 0xeea-0xffa.7 (273)
0x0ee0|                              12 54 c3 67      |          .T.g  |          id: Tags (1254c367) 0xeea-0xeed.7 (4)
0x0ee0|                                          41 0b|              A.|          size: 267 0xeee-0xeef.7 (2)
      |                                               |                |          elements[4]: 0xef0-0xffa.7 (267)
      |                                               |                |            [0]: {} (element) 0xef0-0xef5.7 (6)
0x0ef0|bf                                             |.               |              id: CRC-32 (bf) 0xef0-0xef0.7 (1)
0x0ef0|   84                                          | .              |              size: 4 0xef1-0xef1.7 (1)
0x0ef0|      7c cf c1 bb                              |  |...          |              value: 7ccfc1bb 0xef2-0xef5.7 (4)
      |                                               |                |            [1]: {} (element) 0xef6-0xf26.7 (49)
0x0ef0|                  73 73                        |      ss        |              id: Tag (7373) 0xef6-0xef7.7 (2)
0x0ef0|                        01 00 00 00 00 00 00 27|        .......'|              size: 39 0xef8-0xeff.7 (8)
      |                                               |                |              elements[2]: 0xf00-0xf26.7 (39)
      |                                               |                |                [0]: {} (element) 0xf00-0xf02.7 (3)
0x0f00|63 c0                                          |c.              |                  id: Targets (63c0) 0xf00-0xf01.7 (2)
0x0f00|      80                                       |  .             |                  size: 0 0xf02-0xf02.7 (1)
      |                                               |                |                  elements[0]: 0xf03-NA (0)
      |                                               |                |                [1]: {} (element) 0xf03-0xf26.7 (36)
0x0f00|         67 c8                                 |   g.           |                  id: SimpleTag (67c8) 0xf03-0xf04.7 (2)
0x0f00|               01 00 00 00 00 00 00 1a         |     ........   |                  size: 26 0xf05-0xf0c.7 (8)
      |                                               |                |                  elements[2]: 0xf0d-0xf26.7 (26)
      |                                               |                |                    [0]: {} (element) 0xf0d-0xf16.7 (10)
0x0f00|                                       45 a3   |             E. |                      id: TagName (45a3) 0xf0d-0xf0e.7 (2)
0x0f00|                                             87|               .|                      size: 7 0xf0f-0xf0f.7 (1)
0x0f10|45 4e 43 4f 44 45 52                           |ENCODER         |                      value: "ENCODER" 0xf10-0xf16.7 (7)
      |                                               |                |                    [1]: {} (element) 0xf17-0xf26.7 (16)
0x0f10|                     44 87                     |       D.       |                      id: TagString (4487) 0xf17-0xf18.7 (2)
0x0f10|                           8d                  |         .      |                      size: 13 0xf19-0xf19.7 (1)
0x0f10|                              4c 61 76 66 35 38|          Lavf58|                      value: "Lavf58.45.100" 0xf1a-0xf26.7 (13)
0x0f20|2e 34 35 2e 31 30 30                           |.45.100         |
      |                                               |                |            [2]: {} (element) 0xf27-0xf8f.7 (105)
0x0f20|                     73 73                     |       ss       |              id: Tag (7373) 0xf27-0xf28.7 (2)
0x0f20|                           01 00 00 00 00 00 00|         .......|              size: 95 0xf29-0xf30.7 (8)
0x0f30|5f                                             |_               |
      |                                               |                |              elements[3]: 0xf31-0xf8f.7 (95)
      |                                               |                |                [0]: {} (element) 0xf31-0xf3e.7 (14)
0x0f30|   63 c0                                       | c.             |                  id: Targets (63c0) 0xf31-0xf32.7 (2)
0x0f30|         8b                                    |   .            |                  size: 11 0xf33-0xf33.7 (1)
      |                                               |                |                  elements[1]: 0xf34-0xf3e.7 (11)
      |                                               |                |                    [0]: {} (element) 0xf34-0xf3e.7 (11)
0x0f30|            63 c5                              |    c.          |                      id: TagTrackUID (63c5) 0xf34-0xf35.7 (2)
0x0f30|                  88                           |      .         |                      size: 8 0xf36-0xf36.7 (1)
0x0f30|                     cc 56 14 e6 54 8d e2 06   |       .V..T... |                      value: 14723979011228033542 0xf37-0xf3e.7 (8)
      |                                               |                |                [1]: {} (element) 0xf3f-0xf6a.7 (44)
0x0f30|                                             67|               g|                  id: SimpleTag (67c8) 0xf3f-0xf40.7 (2)
0x0f40|c8                                             |.               |
0x0f40|   01 00 00 00 00 00 00 22                     | ......."       |                  size: 34 0xf41-0xf48.7 (8)
      |                                               |                |                  elements[2]: 0xf49-0xf6a.7 (34)
      |                                               |                |                    [0]: {} (element) 0xf49-0xf52.7 (10)
0x0f40|                           45 a3               |         E.     |                      id: TagName (45a3) 0xf49-0xf4a.7 (2)
0x0f40|                                 87            |           .    |                      size: 7 0xf4b-0xf4b.7 (1)
0x0f40|                                    45 4e 43 4f|            ENCO|                      value: "ENCODER" 0xf4c-0xf52.7 (7)
0x0f50|44 45 52                                       |DER             |
      |                                               |                |                    [1]: {} (element) 0xf53-0xf6a.7 (24)
0x0f50|         44 87                                 |   D.           |                      id: TagString (4487) 0xf53-0xf54.7 (2)
0x0f50|               95                              |     .          |                      size: 21 0xf55-0xf55.7 (1)
0x0f50|                  4c 61 76 63 35 38 2e 39 31 2e|      Lavc58.91.|                      value: "Lavc58.91.100 libx264" 0xf56-0xf6a.7 (21)
0x0f60|31 30 30 20 6c 69 62 78 32 36 34               |100 libx264     |
      |                                               |                |                [2]: {} (element) 0xf6b-0xf8f.7 (37)
0x0f60|                                 67 c8         |           g.   |                  id: SimpleTag (67c8) 0xf6b-0xf6c.7 (2)
0x0f60|                                       a2      |             .  |                  size: 34 0xf6d-0xf6d.7 (1)
      |                                               |                |                  elements[2]: 0xf6e-0xf8f.7 (34)
      |                                               |                |                    [0]: {} (element) 0xf6e-0xf78.7 (11)
0x0f60|                                          45 a3|              E.|                      id: TagName (45a3) 0xf6e-0xf6f.7 (2)
0x0f70|88                                             |.               |                      size: 8 0xf70-0xf70.7 (1)
0x0f70|   44 55 52 41 54 49 4f 4e                     | DURATION       |                      value: "DURATION" 0xf71-0xf78.7 (8)
      |                                               |                |                    [1]: {} (element) 0xf79-0xf8f.7 (23)
0x0f70|                           44 87               |         D.     |                      id: TagString (4487) 0xf79-0xf7a.7 (2)
0x0f70|                                 94            |           .    |                      size: 20 0xf7b-0xf7b.7 (1)
0x0f70|                                    30 30 3a 30|            00:0|                      value: "00:00:00.043000000\x00\x00" 0xf7c-0xf8f.7 (20)
0x0f80|30 3a 30 30 2e 30 34 33 30 30 30 30 30 30 00 00|0:00.043000000..|
      |                                               |                |            [3]: {} (element) 0xf90-0xffa.7 (107)
0x0f90|73 73                                          |ss              |              id: Tag (7373) 0xf90-0xf91.7 (2)
0x0f90|      01 00 00 00 00 00 00 61                  |  .......a      |              size: 97 0xf92-0xf99.7 (8)
      |                                               |                |              elements[3]: 0xf9a-0xffa.7 (97)
      |                                               |                |                [0]: {} (element) 0xf9a-0xfa7.7 (14)
0x0f90|                              63 c0            |          c.    |                  id: Targets (63c0) 0xf9a-0xf9b.7 (2)
0x0f90|                                    8b         |            .   |                  size: 11 0xf9c-0xf9c.7 (1)
      |                                               |                |                  elements[1]: 0xf9d-0xfa7.7 (11)
      |                                               |                |                    [0]: {} (element) 0xf9d-0xfa7.7 (11)
0x0f90|                                       63 c5   |             c. |                      id: TagTrackUID (63c5) 0xf9d-0xf9e.7 (2)
0x0f90|                                             88|               .|                      size: 8 0xf9f-0xf9f.7 (1)
0x0fa0|4d ea d6 b5 0c 4f f9 5d                        |M....O.]        |                      value: 5614535958554736989 0xfa0-0xfa7.7 (8)
      |                                               |                |                [1]: {} (element) 0xfa8-0xfd5.7 (46)
0x0fa0|                        67 c8                  |        g.      |                  id: SimpleTag (67c8) 0xfa8-0xfa9.7 (2)
0x0fa0|                              01 00 00 00 00 00|          ......|                  size: 36 0xfaa-0xfb1.7 (8)
0x0fb0|00 24                                          |.$              |
      |                                               |                |                  elements[2]: 0xfb2-0xfd5.7 (36)
      |                                               |                |                    [0]: {} (element) 0xfb2-0xfbb.7 (10)
0x0fb0|      45 a3                                    |  E.            |                      id: TagName (45a3) 0xfb2-0xfb3.7 (2)
0x0fb0|            87                                 |    .           |                      size: 7 0xfb4-0xfb4.7 (1)
0x0fb0|               45 4e 43 4f 44 45 52            |     ENCODER    |                      value: "ENCODER" 0xfb5-0xfbb.7 (7)
      |                                               |                |                    [1]: {} (element) 0xfbc-0xfd5.7 (26)
0x0fb0|                                    44 87      |            D.  |                      id: TagString (4487) 0xfbc-0xfbd.7 (2)
0x0fb0|                                          97   |              . |                      size: 23 0xfbe-0xfbe.7 (1)
0x0fb0|                                             4c|               L|                      value: "Lavc58.91.100 libvorbis" 0xfbf-0xfd5.7 (23)
0x0fc0|61 76 63 35 38 2e 39 31 2e 31 30 30 20 6c 69 62|avc58.91.100 lib|
0x0fd0|76 6f 72 62 69 73                              |vorbis          |
      |                                               |                |                [2]: {} (element) 0xfd6-0xffa.7 (37)
0x0fd0|                  67 c8                        |      g.        |                  id: SimpleTag (67c8) 0xfd6-0xfd7.7 (2)
0x0fd0|                        a2                     |        .       |                  size: 34 0xfd8-0xfd8.7 (1)
      |                                               |                |                  elements[2]: 0xfd9-0xffa.7 (34)
      |                                               |                |                    [0]: {} (element) 0xfd9-0xfe3.7 (11)
0x0fd0|                           45 a3               |         E.     |                      id: TagName (45a3) 0xfd9-0xfda.7 (2)
0x0fd0|                                 88            |           .    |                      size: 8 0xfdb-0xfdb.7 (1)
0x0fd0|                                    44 55 52 41|            DURA|                      value: "DURATION" 0xfdc-0xfe3.7 (8)
0x0fe0|54 49 4f 4e                                    |TION            |
      |                                               |                |                    [1]: {} (element) 0xfe4-0xffa.7 (23)
0x0fe0|            44 87                              |    D.          |                      id: TagString (4487) 0xfe4-0xfe5.7 (2)
0x0fe0|                  94                           |      .         |                      size: 20 0xfe6-0xfe6.7 (1)
0x0fe0|                     30 30 3a 30 30 3a 30 30 2e|       00:00:00.|                      value: "00:00:00.013000000\x00\x00" 0xfe7-0xffa.7 (20)
0x0ff0|30 31 33 30 30 30 30 30 30 00 00               |013000000..     |
      |                                               |                |        [5]: {} (element) 0xffb-0x1afe.7 (2820)
0x0ff0|                                 1f 43 b6 75   |           .C.u |          id: Cluster (1f43b675) 0xffb-0xffe.7 (4)
0x0ff0|                                             4b|               K|          size: 2927 0xfff-0x1000.7 (2)
0x1000|6f                                             |o               |
      |                                               |                |          elements[5]: 0x1001-0x1afe.7 (2814)
      |                                               |                |            [0]: {} (element) 0x1001-0x1006.7 (6)
0x1000|   bf                                          | .              |              id: CRC-32 (bf) 0x1001-0x1001.7 (1)
0x1000|      84                                       |  .             |              size: 4 0x1002-0x1002.7 (1)
0x1000|         52 2c 06 67                           |   R,.g         |              value: 522c0667 0x1003-0x1006.7 (4)
      |                                               |                |            [1]: {} (element) 0x1007-0x1009.7 (3)
0x1000|                     e7                        |       .        |              id: Timestamp (e7) 0x1007-0x1007.7 (1)
0x1000|                        81                     |        .       |              size: 1 0x1008-0x1008.7 (1)
0x1000|                           00                  |         .      |              value: 0 0x1009-0x1009.7 (1)
      |                                               |                |            [2]: {} (element) 0x100a-0x1010.7 (7)
0x1000|                              a3               |          .     |              id: SimpleBlock (a3) 0x100a-0x100a.7 (1)
0x1000|                                 a5            |           .    |              size: 37 0x100b-0x100b.7 (1)
0x1000|                                    82         |            .   |              track_number: 2 0x100c-0x100c.7 (1)
0x1000|                                       00 00   |             .. |              timestamp: 0 0x100d-0x100e.7 (2)
      |                                               |                |              flags: {} 0x100f-0x100f.7 (1)
0x1000|                                             80|               .|                key_frame: true 0x100f-0x100f (0.1)
0x1000|                                             80|               .|                reserved: 0 0x100f.1-0x100f.3 (0.3)
0x1000|                                             80|               .|                invisible: false 0x100f.4-0x100f.4 (0.1)
0x1000|                                             80|               .|                lacing: 0 0x100f.5-0x100f.6 (0.2)
0x1000|                                             80|               .|                discardable: false 0x100f.7-0x100f.7 (0.1)
      |                                               |                |              packet: vorbis_packet 0x1010-0x1010.7 (1)
0x1010|54                                             |T               |                packet_type: Audio (0) 0x1010-0x1010.7 (1)
      |                                               |                |            [3]: {} (element) 0x1031-0x1af7.7 (2759)
0x1030|   a3                                          | .              |              id: SimpleBlock (a3) 0x1031-0x1031.7 (1)
0x1030|      4a c4                                    |  J.            |              size: 2756 0x1032-0x1033.7 (2)
0x1030|            81                                 |    .           |              track_number: 1 0x1034-0x1034.7 (1)
0x1030|               00 03                           |     ..         |              timestamp: 3 0x1035-0x1036.7 (2)
      |                                               |                |              flags: {} 0x1037-0x1037.7 (1)
0x1030|                     80                        |       .        |                key_frame: true 0x1037-0x1037 (0.1)
0x1030|                     80                        |       .        |                reserved: 0 0x1037.1-0x1037.3 (0.3)
0x1030|                     80                        |       .        |                invisible: false 0x1037.4-0x1037.4 (0.1)
0x1030|                     80                        |       .        |                lacing: 0 0x1037.5-0x1037.6 (0.2)
0x1030|                     80                        |       .        |                discardable: false 0x1037.7-0x1037.7 (0.1)
      |                                               |                |              packet: mpeg_avc 0x1038-0x1af7.7 (2752)
      |                                               |                |                nals[2]: 0x1038-0x1af7.7 (2752)
      |                                               |                |                  [0]: {} (nal) 0x1038-0x12e8.7 (689)
0x1030|                        00 00 02 ad            |        ....    |                    length: 685 0x1038-0x103b.7 (4)
0x1030|                                    06 05 ff ff|            ....|                    data: 0605ffffa9dc45e9bde6d948b7962cd8... 0x103c-0x12e8.7 (685)
0x1040|a9 dc 45 e9 bd e6 d9 48 b7 96 2c d8 20 d9 23 ee|..E....H..,. .#.|
*     |665 bytes more until 0x12e8.7                  |                |
      |                                               |                |                  [1]: {} (nal) 0x12e9-0x1af7.7 (2063)
0x12e0|                           00 00 08 0b         |         ....   |                    length: 2059 0x12e9-0x12ec.7 (4)
0x12e0|                                       65 88 84|             e..|                    data: 658884002bfffef5dbf32cac66673dff... 0x12ed-0x1af7.7 (2059)
0x12f0|00 2b ff fe f5 db f3 2c ac 66 67 3d ff ed 3b 60|.+.....,.fg=..;`|
*     |2040 bytes more until 0x1af7.7                 |                |
      |                                               |                |            [4]: {} (element) 0x1af8-0x1afe.7 (7)
0x1af0|                        a3                     |        .       |              id: SimpleBlock (a3) 0x1af8-0x1af8.7 (1)
0x1af0|                           f6                  |         .      |              size: 118 0x1af9-0x1af9.7 (1)
0x1af0|                              82               |          .     |              track_number: 2 0x1afa-0x1afa.7 (1)
0x1af0|                                 00 03         |           ..   |              timestamp: 3 0x1afb-0x1afc.7 (2)
      |                                               |                |              flags: {} 0x1afd-0x1afd.7 (1)
0x1af0|                                       80      |             .  |                key_frame: true 0x1afd-0x1afd (0.1)
0x1af0|                                       80      |             .  |                reserved: 0 0x1afd.1-0x1afd.3 (0.3)
0x1af0|                                       80      |             .  |                invisible: false 0x1afd.4-0x1afd.4 (0.1)
0x1af0|                                       80      |             .  |                lacing: 0 0x1afd.5-0x1afd.6 (0.2)
0x1af0|                                       80      |             .  |                discardable: false 0x1afd.7-0x1afd.7 (0.1)
      |                                               |                |              packet: vorbis_packet 0x1afe-0x1afe.7 (1)
0x1af0|                                          7a   |              z |                packet_type: Audio (0) 0x1afe-0x1afe.7 (1)
      |                                               |                |        [6]: {} (element) 0x1b70-0x1b8b.7 (28)
0x1b70|1c 53 bb 6b                                    |.S.k            |          id: Cues (1c53bb6b) 0x1b70-0x1b73.7 (4)
0x1b70|            97                                 |    .           |          size: 23 0x1b74-0x1b74.7 (1)
      |                                               |                |          elements[2]: 0x1b75-0x1b8b.7 (23)
      |                                               |                |            [0]: {} (element) 0x1b75-0x1b7a.7 (6)
0x1b70|               bf                              |     .          |              id: CRC-32 (bf) 0x1b75-0x1b75.7 (1)
0x1b70|                  84                           |      .         |              size: 4 0x1b76-0x1b76.7 (1)
0x1b70|                     eb 27 f5 8e               |       .'..     |              value: eb27f58e 0x1b77-0x1b7a.7 (4)
      |                                               |                |            [1]: {} (element) 0x1b7b-0x1b8b.7 (17)
0x1b70|                                 bb            |           .    |              id: CuePoint (bb) 0x1b7b-0x1b7b.7 (1)
0x1b70|                                    8f         |            .   |              size: 15 0x1b7c-0x1b7c.7 (1)
      |                                               |                |              elements[2]: 0x1b7d-0x1b8b.7 (15)
      |                                               |                |                [0]: {} (element) 0x1b7d-0x1b7f.7 (3)
0x1b70|                                       b3      |             .  |                  id: CueTime (b3) 0x1b7d-0x1b7d.7 (1)
0x1b70|                                          81   |              . |                  size: 1 0x1b7e-0x1b7e.7 (1)
0x1b70|                                             03|               .|                  value: 3 0x1b7f-0x1b7f.7 (1)
      |                                               |                |                [1]: {} (element) 0x1b80-0x1b8b.7 (12)
0x1b80|b7                                             |.               |                  id: CueTrackPositions (b7) 0x1b80-0x1b80.7 (1)
0x1b80|   8a                                          | .              |                  size: 10 0x1b81-0x1b81.7 (1)
      |                                               |                |                  elements[3]: 0x1b82-0x1b8b.7 (10)
      |                                               |                |                    [0]: {} (element) 0x1b82-0x1b84.7 (3)
0x1b80|      f7                                       |  .             |                      id: CueTrack (f7) 0x1b82-0x1b82.7 (1)
0x1b80|         81                                    |   .            |                      size: 1 0x1b83-0x1b83.7 (1)
0x1b80|            01                                 |    .           |                      value: 1 0x1b84-0x1b84.7 (1)
      |                                               |                |                    [1]: {} (element) 0x1b85-0x1b88.7 (4)
0x1b80|               f1                              |     .          |                      id: CueClusterPosition (f1) 0x1b85-0x1b85.7 (1)
0x1b80|                  82                           |      .         |                      size: 2 0x1b86-0x1b86.7 (1)
0x1b80|                     0f c7                     |       ..       |                      value: 4039 0x1b87-0x1b88.7 (2)
      |                                               |                |                    [2]: {} (element) 0x1b89-0x1b8b.7 (3)
0x1b80|                           f0                  |         .      |                      id: CueRelativePosition (f0) 0x1b89-0x1b89.7 (1)
0x1b80|                              81               |          .     |                      size: 1 0x1b8a-0x1b8a.7 (1)
0x1b80|                                 30|           |           0|   |                      value: 48 0x1b8b-0x1b8b.7 (1)
0x0280|               24 73 18 2a 46 a5 73 16 84 10 1a|     $s.*F.s....|  unknown0: 2473182a46a5731684101a425019e31c... 0x285-0xee9.7 (3173)
0x0290|42 50 19 e3 1c 42 ce 6b ec 19 42 4c 11 82 1c 32|BP...B.k..BL...2|
*     |3146 bytes more until 0xee9.7                  |                |
0x1010|   dd cb ce aa 5e d8 7f 2d 01 42 00 a0 dd 71 77| ....^..-.B...qw|  unknown1: ddcbceaa5ed87f2d014200a0dd71778b... 0x1011-0x1030.7 (32)
0x1020|8b ed cd 37 df 7c 33 3a 0c c3 30 0c c3 30 d4 50|...7.|3:..0..0.P|
0x1030|02                                             |.               |
0x1af0|                                             78|               x|  unknown2: 78bd0dbf7dff5f003b54b0f7fcf4fbfd... 0x1aff-0x1b6f.7 (113)
0x1b00|bd 0d bf 7d ff 5f 00 3b 54 b0 f7 fc f4 fb fd bc|...}._.;T.......|
*     |96 bytes more until 0x1b6f.7                   |                |
