$ fq -d tap dv basic_prog1.tap
    |00 01 02 03 04 05 06 07 08 09 0a 0b 0c 0d 0e 0f|0123456789abcdef|.{}: basic_prog1.tap (tap) 0x0-0x3f (63)
    |                                               |                |  blocks[0:2]: 0x0-0x3f (63)
    |                                               |                |    [0]{}: block 0x0-0x15 (21)
0x00|13 00                                          |..              |      length: 19 0x0-0x2 (2)
    |                                               |                |      header{}: 0x2-0x15 (19)
0x00|      00                                       |  .             |        flag: "standard_speed_data" (0) 0x2-0x3 (1)
0x00|         00                                    |   .            |        data_type: "program" (0) 0x3-0x4 (1)
0x00|            66 71 54 65 73 74 50 72 6f 67      |    fqTestProg  |        program_name: "fqTestProg" 0x4-0xe (10)
0x00|                                          26 00|              &.|        data_length: 38 0xe-0x10 (2)
0x10|0a 00                                          |..              |        auto_start_line: 10 0x10-0x12 (2)
0x10|      26 00                                    |  &.            |        program_length: 38 0x12-0x14 (2)
0x10|            01                                 |    .           |        checksum: 0x1 (valid) 0x14-0x15 (1)
    |                                               |                |    [1]{}: block 0x15-0x3f (42)
0x10|               28 00                           |     (.         |      length: 40 0x15-0x17 (2)
    |                                               |                |      data{}: 0x17-0x3f (40)
0x10|                     ff                        |       .        |        flag: "standard_speed_data" (255) 0x17-0x18 (1)
    |                                               |                |        bytes[0:38]: 0x18-0x3e (38)
0x10|                        00                     |        .       |          [0]: 0 byte 0x18-0x19 (1)
0x10|                           0a                  |         .      |          [1]: 10 byte 0x19-0x1a (1)
0x10|                              14               |          .     |          [2]: 20 byte 0x1a-0x1b (1)
0x10|                                 00            |           .    |          [3]: 0 byte 0x1b-0x1c (1)
0x10|                                    20         |                |          [4]: 32 byte 0x1c-0x1d (1)
0x10|                                       f5      |             .  |          [5]: 245 byte 0x1d-0x1e (1)
0x10|                                          22   |              " |          [6]: 34 byte 0x1e-0x1f (1)
0x10|                                             66|               f|          [7]: 102 byte 0x1f-0x20 (1)
0x20|71                                             |q               |          [8]: 113 byte 0x20-0x21 (1)
0x20|   20                                          |                |          [9]: 32 byte 0x21-0x22 (1)
0x20|      69                                       |  i             |          [10]: 105 byte 0x22-0x23 (1)
0x20|         73                                    |   s            |          [11]: 115 byte 0x23-0x24 (1)
0x20|            20                                 |                |          [12]: 32 byte 0x24-0x25 (1)
0x20|               74                              |     t          |          [13]: 116 byte 0x25-0x26 (1)
0x20|                  68                           |      h         |          [14]: 104 byte 0x26-0x27 (1)
0x20|                     65                        |       e        |          [15]: 101 byte 0x27-0x28 (1)
0x20|                        20                     |                |          [16]: 32 byte 0x28-0x29 (1)
0x20|                           62                  |         b      |          [17]: 98 byte 0x29-0x2a (1)
0x20|                              65               |          e     |          [18]: 101 byte 0x2a-0x2b (1)
0x20|                                 73            |           s    |          [19]: 115 byte 0x2b-0x2c (1)
0x20|                                    74         |            t   |          [20]: 116 byte 0x2c-0x2d (1)
0x20|                                       21      |             !  |          [21]: 33 byte 0x2d-0x2e (1)
0x20|                                          22   |              " |          [22]: 34 byte 0x2e-0x2f (1)
0x20|                                             0d|               .|          [23]: 13 byte 0x2f-0x30 (1)
0x30|00                                             |.               |          [24]: 0 byte 0x30-0x31 (1)
0x30|   14                                          | .              |          [25]: 20 byte 0x31-0x32 (1)
0x30|      0a                                       |  .             |          [26]: 10 byte 0x32-0x33 (1)
0x30|         00                                    |   .            |          [27]: 0 byte 0x33-0x34 (1)
0x30|            ec                                 |    .           |          [28]: 236 byte 0x34-0x35 (1)
0x30|               31                              |     1          |          [29]: 49 byte 0x35-0x36 (1)
0x30|                  30                           |      0         |          [30]: 48 byte 0x36-0x37 (1)
0x30|                     0e                        |       .        |          [31]: 14 byte 0x37-0x38 (1)
0x30|                        00                     |        .       |          [32]: 0 byte 0x38-0x39 (1)
0x30|                           00                  |         .      |          [33]: 0 byte 0x39-0x3a (1)
0x30|                              0a               |          .     |          [34]: 10 byte 0x3a-0x3b (1)
0x30|                                 00            |           .    |          [35]: 0 byte 0x3b-0x3c (1)
0x30|                                    00         |            .   |          [36]: 0 byte 0x3c-0x3d (1)
0x30|                                       0d      |             .  |          [37]: 13 byte 0x3d-0x3e (1)
0x30|                                          b6|  |              .||        checksum: 0xb6 (valid) 0x3e-0x3f (1)
