$ fq -d pg_heap -o flavour=postgres11 ".[0].pd_linp[0,-1] | dv" 16396
    |00 01 02 03 04 05 06 07 08 09 0a 0b 0c 0d 0e 0f|0123456789abcdef|.[0].pd_linp[0]{}: item_id 0x18-0x1c (4)
0x10|                        80 9f f2 00            |        ....    |  item_id_data: 15900544 0x18-0x1c (4)
    |                                               |                |  lp_off: 8064
    |                                               |                |  lp_flags: "LP_NORMAL" (1)
    |                                               |                |  lp_len: 121
     |00 01 02 03 04 05 06 07 08 09 0a 0b 0c 0d 0e 0f|0123456789abcdef|.[0].pd_linp[82]{}: item_id 0x160-0x164 (4)
0x160|00 82 f2 00                                    |....            |  item_id_data: 15892992 0x160-0x164 (4)
     |                                               |                |  lp_off: 512
     |                                               |                |  lp_flags: "LP_NORMAL" (1)
     |                                               |                |  lp_len: 121
