$ fq -d pg_heap -o flavour=postgres11 ".[0].tuples[0,-1] | dv" 16406
      |00 01 02 03 04 05 06 07 08 09 0a 0b 0c 0d 0e 0f|0123456789abcdef|.[0].tuples[0]{}: tuple 0x1fd0-0x1fff.7 (48)
      |                                               |                |  header{}: 0x1fd0-0x1fe7.7 (24)
      |                                               |                |    t_choice{}: 0x1fd0-0x1fdb.7 (12)
      |                                               |                |      t_heap{}: 0x1fd0-0x1fdb.7 (12)
0x1fd0|45 02 00 00                                    |E...            |        t_xmin: 581 0x1fd0-0x1fd3.7 (4)
0x1fd0|            00 00 00 00                        |    ....        |        t_xmax: 0 0x1fd4-0x1fd7.7 (4)
      |                                               |                |        t_field3{}: 0x1fd8-0x1fdb.7 (4)
0x1fd0|                        03 00 00 00            |        ....    |          t_cid: 3 0x1fd8-0x1fdb.7 (4)
0x1fd0|                        03 00 00 00            |        ....    |          t_xvac: 3 0x1fd8-0x1fdb.7 (4)
      |                                               |                |      t_datum{}: 0x1fd0-0x1fdb.7 (12)
0x1fd0|45 02 00 00                                    |E...            |        datum_len_: 581 0x1fd0-0x1fd3.7 (4)
0x1fd0|            00 00 00 00                        |    ....        |        datum_typmod: 0 0x1fd4-0x1fd7.7 (4)
0x1fd0|                        03 00 00 00            |        ....    |        datum_typeid: 3 0x1fd8-0x1fdb.7 (4)
      |                                               |                |    t_ctid{}: 0x1fdc-0x1fe1.7 (6)
0x1fd0|                                    00 00 00 00|            ....|      ip_blkid: 0 0x1fdc-0x1fdf.7 (4)
0x1fe0|01 00                                          |..              |      ip_posid: 1 0x1fe0-0x1fe1.7 (2)
0x1fe0|      06 00                                    |  ..            |    t_infomask2: 6 0x1fe2-0x1fe3.7 (2)
      |                                               |                |    infomask2{}: 0x1fe4-NA (0)
      |                                               |                |      heap_keys_updated: false 0x1fe4-NA (0)
      |                                               |                |      heap_hot_updated: false 0x1fe4-NA (0)
      |                                               |                |      heap_only_tuple: false 0x1fe4-NA (0)
0x1fe0|            01 09                              |    ..          |    t_infomask: 2305 0x1fe4-0x1fe5.7 (2)
      |                                               |                |    infomask{}: 0x1fe6-NA (0)
      |                                               |                |      heap_hasnull: true 0x1fe6-NA (0)
      |                                               |                |      heap_hasvarwidth: false 0x1fe6-NA (0)
      |                                               |                |      heap_hasexternal: false 0x1fe6-NA (0)
      |                                               |                |      heap_hasoid_old: false 0x1fe6-NA (0)
      |                                               |                |      heap_xmax_keyshr_lock: false 0x1fe6-NA (0)
      |                                               |                |      heap_combocid: false 0x1fe6-NA (0)
      |                                               |                |      heap_xmax_excl_lock: false 0x1fe6-NA (0)
      |                                               |                |      heap_xmax_lock_only: false 0x1fe6-NA (0)
      |                                               |                |      heap_xmax_shr_lock: false 0x1fe6-NA (0)
      |                                               |                |      heap_lock_mask: false 0x1fe6-NA (0)
      |                                               |                |      heap_xmin_committed: true 0x1fe6-NA (0)
      |                                               |                |      heap_xmin_invalid: false 0x1fe6-NA (0)
      |                                               |                |      heap_xmin_frozen: true 0x1fe6-NA (0)
      |                                               |                |      heap_xmax_committed: false 0x1fe6-NA (0)
      |                                               |                |      heap_xmax_invalid: true 0x1fe6-NA (0)
      |                                               |                |      heap_xmax_is_multi: false 0x1fe6-NA (0)
      |                                               |                |      heap_updated: false 0x1fe6-NA (0)
      |                                               |                |      heap_moved_off: false 0x1fe6-NA (0)
      |                                               |                |      heap_moved_in: false 0x1fe6-NA (0)
      |                                               |                |      heap_moved: false 0x1fe6-NA (0)
0x1fe0|                  18                           |      .         |    t_hoff: 24 0x1fe6-0x1fe6.7 (1)
0x1fe0|                     1f                        |       .        |    padding0: 31 0x1fe7-0x1fe7.7 (1)
0x1fe0|                        07 00 00 00 01 00 00 00|        ........|  data: "07000000010000007419010097f5ffffb55804f05388020..." (raw bits) 0x1fe8-0x1fff.7 (24)
0x1ff0|74 19 01 00 97 f5 ff ff b5 58 04 f0 53 88 02 00|t........X..S...|
     |00 01 02 03 04 05 06 07 08 09 0a 0b 0c 0d 0e 0f|0123456789abcdef|.[0].tuples[156]{}: tuple 0x290-0x2bf.7 (48)
     |                                               |                |  header{}: 0x290-0x2a7.7 (24)
     |                                               |                |    t_choice{}: 0x290-0x29b.7 (12)
     |                                               |                |      t_heap{}: 0x290-0x29b.7 (12)
0x290|e3 02 00 00                                    |....            |        t_xmin: 739 0x290-0x293.7 (4)
0x290|            00 00 00 00                        |    ....        |        t_xmax: 0 0x294-0x297.7 (4)
     |                                               |                |        t_field3{}: 0x298-0x29b.7 (4)
0x290|                        03 00 00 00            |        ....    |          t_cid: 3 0x298-0x29b.7 (4)
0x290|                        03 00 00 00            |        ....    |          t_xvac: 3 0x298-0x29b.7 (4)
     |                                               |                |      t_datum{}: 0x290-0x29b.7 (12)
0x290|e3 02 00 00                                    |....            |        datum_len_: 739 0x290-0x293.7 (4)
0x290|            00 00 00 00                        |    ....        |        datum_typmod: 0 0x294-0x297.7 (4)
0x290|                        03 00 00 00            |        ....    |        datum_typeid: 3 0x298-0x29b.7 (4)
     |                                               |                |    t_ctid{}: 0x29c-0x2a1.7 (6)
0x290|                                    00 00 00 00|            ....|      ip_blkid: 0 0x29c-0x29f.7 (4)
0x2a0|9d 00                                          |..              |      ip_posid: 157 0x2a0-0x2a1.7 (2)
0x2a0|      06 00                                    |  ..            |    t_infomask2: 6 0x2a2-0x2a3.7 (2)
     |                                               |                |    infomask2{}: 0x2a4-NA (0)
     |                                               |                |      heap_keys_updated: false 0x2a4-NA (0)
     |                                               |                |      heap_hot_updated: false 0x2a4-NA (0)
     |                                               |                |      heap_only_tuple: false 0x2a4-NA (0)
0x2a0|            01 09                              |    ..          |    t_infomask: 2305 0x2a4-0x2a5.7 (2)
     |                                               |                |    infomask{}: 0x2a6-NA (0)
     |                                               |                |      heap_hasnull: true 0x2a6-NA (0)
     |                                               |                |      heap_hasvarwidth: false 0x2a6-NA (0)
     |                                               |                |      heap_hasexternal: false 0x2a6-NA (0)
     |                                               |                |      heap_hasoid_old: false 0x2a6-NA (0)
     |                                               |                |      heap_xmax_keyshr_lock: false 0x2a6-NA (0)
     |                                               |                |      heap_combocid: false 0x2a6-NA (0)
     |                                               |                |      heap_xmax_excl_lock: false 0x2a6-NA (0)
     |                                               |                |      heap_xmax_lock_only: false 0x2a6-NA (0)
     |                                               |                |      heap_xmax_shr_lock: false 0x2a6-NA (0)
     |                                               |                |      heap_lock_mask: false 0x2a6-NA (0)
     |                                               |                |      heap_xmin_committed: true 0x2a6-NA (0)
     |                                               |                |      heap_xmin_invalid: false 0x2a6-NA (0)
     |                                               |                |      heap_xmin_frozen: true 0x2a6-NA (0)
     |                                               |                |      heap_xmax_committed: false 0x2a6-NA (0)
     |                                               |                |      heap_xmax_invalid: true 0x2a6-NA (0)
     |                                               |                |      heap_xmax_is_multi: false 0x2a6-NA (0)
     |                                               |                |      heap_updated: false 0x2a6-NA (0)
     |                                               |                |      heap_moved_off: false 0x2a6-NA (0)
     |                                               |                |      heap_moved_in: false 0x2a6-NA (0)
     |                                               |                |      heap_moved: false 0x2a6-NA (0)
0x2a0|                  18                           |      .         |    t_hoff: 24 0x2a6-0x2a6.7 (1)
0x2a0|                     1f                        |       .        |    padding0: 31 0x2a7-0x2a7.7 (1)
0x2a0|                        09 00 00 00 01 00 00 00|        ........|  data: "0900000001000000feda000081050000e36412f05388020..." (raw bits) 0x2a8-0x2bf.7 (24)
0x2b0|fe da 00 00 81 05 00 00 e3 64 12 f0 53 88 02 00|.........d..S...|
