$ fq -d elf dv a_dynamic
      |00 01 02 03 04 05 06 07 08 09 0a 0b 0c 0d 0e 0f|0123456789abcdef|.{}: a_dynamic (elf) 0x0-0x2593.7 (9620)
      |                                               |                |  header{}: 0x0-0x33.7 (52)
      |                                               |                |    ident{}: 0x0-0xf.7 (16)
0x0000|7f 45 4c 46                                    |.ELF            |      magic: raw bits (valid) 0x0-0x3.7 (4)
0x0000|            01                                 |    .           |      class: 32 (1) 0x4-0x4.7 (1)
0x0000|               01                              |     .          |      data: "little_endian" (1) 0x5-0x5.7 (1)
0x0000|                  01                           |      .         |      version: 1 0x6-0x6.7 (1)
0x0000|                     00                        |       .        |      os_abi: "sysv" (0) 0x7-0x7.7 (1)
0x0000|                        00                     |        .       |      abi_version: 0 0x8-0x8.7 (1)
0x0000|                           00 00 00 00 00 00 00|         .......|      pad: raw bits (all zero) 0x9-0xf.7 (7)
0x0010|03 00                                          |..              |    type: "dyn" (0x3) 0x10-0x11.7 (2)
0x0010|      28 00                                    |  (.            |    machine: "arm" (0x28) (ARM (up to ARMv7/Aarch32)) 0x12-0x13.7 (2)
0x0010|            01 00 00 00                        |    ....        |    version: 1 0x14-0x17.7 (4)
0x0010|                        d4 03 00 00            |        ....    |    entry: 980 0x18-0x1b.7 (4)
0x0010|                                    34 00 00 00|            4...|    phoff: 52 0x1c-0x1f.7 (4)
0x0020|94 20 00 00                                    |. ..            |    shoff: 8340 0x20-0x23.7 (4)
0x0020|            00 04 00 05                        |    ....        |    flags: 83887104 0x24-0x27.7 (4)
0x0020|                        34 00                  |        4.      |    ehsize: 52 0x28-0x29.7 (2)
0x0020|                              20 00            |           .    |    phentsize: 32 0x2a-0x2b.7 (2)
0x0020|                                    07 00      |            ..  |    phnum: 7 0x2c-0x2d.7 (2)
0x0020|                                          28 00|              (.|    shentsize: 40 0x2e-0x2f.7 (2)
0x0030|20 00                                          | .              |    shnum: 32 0x30-0x31.7 (2)
0x0030|      1f 00                                    |  ..            |    shstrndx: 31 0x32-0x33.7 (2)
      |                                               |                |  program_headers[0:7]: 0x0-0x1003.7 (4100)
      |                                               |                |    [0]{}: program_header 0x34-0x113.7 (224)
      |                                               |                |      program_header{}: 0x34-0x113.7 (224)
0x0030|            06 00 00 00                        |    ....        |        type: "phdr" (6) (Program header location and size) 0x34-0x37.7 (4)
0x0030|            06 00 00 00 34 00 00 00 34 00 00 00|    ....4...4...|        data: raw bits 0x34-0x113.7 (224)
0x0040|34 00 00 00 e0 00 00 00 e0 00 00 00 04 00 00 00|4...............|
*     |until 0x113.7 (224)                            |                |
0x0030|                        34 00 00 00            |        4...    |        offset: 0x34 0x38-0x3b.7 (4)
0x0030|                                    34 00 00 00|            4...|        vaddr: 0x34 0x3c-0x3f.7 (4)
0x0040|34 00 00 00                                    |4...            |        paddr: 0x34 0x40-0x43.7 (4)
0x0040|            e0 00 00 00                        |    ....        |        filesz: 224 0x44-0x47.7 (4)
0x0040|                        e0 00 00 00            |        ....    |        memsz: 224 0x48-0x4b.7 (4)
      |                                               |                |        flags{}: 0x4c-0x4f.7 (4)
0x0040|                                    04         |            .   |          unused0: 0 0x4c-0x4c.4 (0.5)
0x0040|                                    04         |            .   |          r: true 0x4c.5-0x4c.5 (0.1)
0x0040|                                    04         |            .   |          w: false 0x4c.6-0x4c.6 (0.1)
0x0040|                                    04         |            .   |          x: false 0x4c.7-0x4c.7 (0.1)
0x0040|                                       00 00 00|             ...|          unused1: 0 0x4d-0x4f.7 (3)
0x0050|04 00 00 00                                    |....            |        align: 4 0x50-0x53.7 (4)
      |                                               |                |    [1]{}: program_header 0x54-0x12b.7 (216)
      |                                               |                |      program_header{}: 0x54-0x12b.7 (216)
0x0050|            03 00 00 00                        |    ....        |        type: "interp" (3) (Interpreter to invoke) 0x54-0x57.7 (4)
0x0050|                        14 01 00 00            |        ....    |        offset: 0x114 0x58-0x5b.7 (4)
0x0050|                                    14 01 00 00|            ....|        vaddr: 0x114 0x5c-0x5f.7 (4)
0x0060|14 01 00 00                                    |....            |        paddr: 0x114 0x60-0x63.7 (4)
0x0060|            18 00 00 00                        |    ....        |        filesz: 24 0x64-0x67.7 (4)
0x0060|                        18 00 00 00            |        ....    |        memsz: 24 0x68-0x6b.7 (4)
      |                                               |                |        flags{}: 0x6c-0x6f.7 (4)
0x0060|                                    04         |            .   |          unused0: 0 0x6c-0x6c.4 (0.5)
0x0060|                                    04         |            .   |          r: true 0x6c.5-0x6c.5 (0.1)
0x0060|                                    04         |            .   |          w: false 0x6c.6-0x6c.6 (0.1)
0x0060|                                    04         |            .   |          x: false 0x6c.7-0x6c.7 (0.1)
0x0060|                                       00 00 00|             ...|          unused1: 0 0x6d-0x6f.7 (3)
0x0070|01 00 00 00                                    |....            |        align: 1 0x70-0x73.7 (4)
0x0110|            2f 6c 69 62 2f 6c 64 2d 6d 75 73 6c|    /lib/ld-musl|        data: raw bits 0x114-0x12b.7 (24)
0x0120|2d 61 72 6d 68 66 2e 73 6f 2e 31 00            |-armhf.so.1.    |
      |                                               |                |    [2]{}: program_header 0x0-0x73b.7 (1852)
      |                                               |                |      program_header{}: 0x0-0x73b.7 (1852)
0x0000|7f 45 4c 46 01 01 01 00 00 00 00 00 00 00 00 00|.ELF............|        data: raw bits 0x0-0x73b.7 (1852)
*     |until 0x73b.7 (1852)                           |                |
0x0070|            01 00 00 00                        |    ....        |        type: "load" (1) (Loadable segment) 0x74-0x77.7 (4)
0x0070|                        00 00 00 00            |        ....    |        offset: 0x0 0x78-0x7b.7 (4)
0x0070|                                    00 00 00 00|            ....|        vaddr: 0x0 0x7c-0x7f.7 (4)
0x0080|00 00 00 00                                    |....            |        paddr: 0x0 0x80-0x83.7 (4)
0x0080|            3c 07 00 00                        |    <...        |        filesz: 1852 0x84-0x87.7 (4)
0x0080|                        3c 07 00 00            |        <...    |        memsz: 1852 0x88-0x8b.7 (4)
      |                                               |                |        flags{}: 0x8c-0x8f.7 (4)
0x0080|                                    05         |            .   |          unused0: 0 0x8c-0x8c.4 (0.5)
0x0080|                                    05         |            .   |          r: true 0x8c.5-0x8c.5 (0.1)
0x0080|                                    05         |            .   |          w: false 0x8c.6-0x8c.6 (0.1)
0x0080|                                    05         |            .   |          x: true 0x8c.7-0x8c.7 (0.1)
0x0080|                                       00 00 00|             ...|          unused1: 0 0x8d-0x8f.7 (3)
0x0090|00 00 01 00                                    |....            |        align: 65536 0x90-0x93.7 (4)
      |                                               |                |    [3]{}: program_header 0x94-0x1003.7 (3952)
      |                                               |                |      program_header{}: 0x94-0x1003.7 (3952)
0x0090|            01 00 00 00                        |    ....        |        type: "load" (1) (Loadable segment) 0x94-0x97.7 (4)
0x0090|                        cc 0e 00 00            |        ....    |        offset: 0xecc 0x98-0x9b.7 (4)
0x0090|                                    cc 0e 01 00|            ....|        vaddr: 0x10ecc 0x9c-0x9f.7 (4)
0x00a0|cc 0e 01 00                                    |....            |        paddr: 0x10ecc 0xa0-0xa3.7 (4)
0x00a0|            38 01 00 00                        |    8...        |        filesz: 312 0xa4-0xa7.7 (4)
0x00a0|                        54 01 00 00            |        T...    |        memsz: 340 0xa8-0xab.7 (4)
      |                                               |                |        flags{}: 0xac-0xaf.7 (4)
0x00a0|                                    06         |            .   |          unused0: 0 0xac-0xac.4 (0.5)
0x00a0|                                    06         |            .   |          r: true 0xac.5-0xac.5 (0.1)
0x00a0|                                    06         |            .   |          w: true 0xac.6-0xac.6 (0.1)
0x00a0|                                    06         |            .   |          x: false 0xac.7-0xac.7 (0.1)
0x00a0|                                       00 00 00|             ...|          unused1: 0 0xad-0xaf.7 (3)
0x00b0|00 00 01 00                                    |....            |        align: 65536 0xb0-0xb3.7 (4)
0x0ec0|                                    7c 05 00 00|            |...|        data: raw bits 0xecc-0x1003.7 (312)
0x0ed0|f0 04 00 00 01 00 00 00 a2 00 00 00 01 00 00 00|................|
*     |until 0x1003.7 (312)                           |                |
      |                                               |                |    [4]{}: program_header 0xb4-0xfbb.7 (3848)
      |                                               |                |      program_header{}: 0xb4-0xfbb.7 (3848)
0x00b0|            02 00 00 00                        |    ....        |        type: "dynamic" (2) (Dynamic linking information) 0xb4-0xb7.7 (4)
0x00b0|                        d4 0e 00 00            |        ....    |        offset: 0xed4 0xb8-0xbb.7 (4)
0x00b0|                                    d4 0e 01 00|            ....|        vaddr: 0x10ed4 0xbc-0xbf.7 (4)
0x00c0|d4 0e 01 00                                    |....            |        paddr: 0x10ed4 0xc0-0xc3.7 (4)
0x00c0|            e8 00 00 00                        |    ....        |        filesz: 232 0xc4-0xc7.7 (4)
0x00c0|                        e8 00 00 00            |        ....    |        memsz: 232 0xc8-0xcb.7 (4)
      |                                               |                |        flags{}: 0xcc-0xcf.7 (4)
0x00c0|                                    06         |            .   |          unused0: 0 0xcc-0xcc.4 (0.5)
0x00c0|                                    06         |            .   |          r: true 0xcc.5-0xcc.5 (0.1)
0x00c0|                                    06         |            .   |          w: true 0xcc.6-0xcc.6 (0.1)
0x00c0|                                    06         |            .   |          x: false 0xcc.7-0xcc.7 (0.1)
0x00c0|                                       00 00 00|             ...|          unused1: 0 0xcd-0xcf.7 (3)
0x00d0|04 00 00 00                                    |....            |        align: 4 0xd0-0xd3.7 (4)
0x0ed0|            01 00 00 00 a2 00 00 00 01 00 00 00|    ............|        data: raw bits 0xed4-0xfbb.7 (232)
0x0ee0|ac 00 00 00 0c 00 00 00 6c 03 00 00 0d 00 00 00|........l.......|
*     |until 0xfbb.7 (232)                            |                |
      |                                               |                |    [5]{}: program_header 0x0-0xf3.7 (244)
      |                                               |                |      program_header{}: 0x0-0xf3.7 (244)
      |                                               |                |        data: raw bits 0x0-NA (0)
0x00d0|            51 e5 74 64                        |    Q.td        |        type: "gnu_stack" (1685382481) (GNU stack permission) 0xd4-0xd7.7 (4)
0x00d0|                        00 00 00 00            |        ....    |        offset: 0x0 0xd8-0xdb.7 (4)
0x00d0|                                    00 00 00 00|            ....|        vaddr: 0x0 0xdc-0xdf.7 (4)
0x00e0|00 00 00 00                                    |....            |        paddr: 0x0 0xe0-0xe3.7 (4)
0x00e0|            00 00 00 00                        |    ....        |        filesz: 0 0xe4-0xe7.7 (4)
0x00e0|                        00 00 00 00            |        ....    |        memsz: 0 0xe8-0xeb.7 (4)
      |                                               |                |        flags{}: 0xec-0xef.7 (4)
0x00e0|                                    06         |            .   |          unused0: 0 0xec-0xec.4 (0.5)
0x00e0|                                    06         |            .   |          r: true 0xec.5-0xec.5 (0.1)
0x00e0|                                    06         |            .   |          w: true 0xec.6-0xec.6 (0.1)
0x00e0|                                    06         |            .   |          x: false 0xec.7-0xec.7 (0.1)
0x00e0|                                       00 00 00|             ...|          unused1: 0 0xed-0xef.7 (3)
0x00f0|10 00 00 00                                    |....            |        align: 16 0xf0-0xf3.7 (4)
      |                                               |                |    [6]{}: program_header 0xf4-0xfff.7 (3852)
      |                                               |                |      program_header{}: 0xf4-0xfff.7 (3852)
0x00f0|            52 e5 74 64                        |    R.td        |        type: "gnu_relro" (1685382482) (GNU read-only after relocation) 0xf4-0xf7.7 (4)
0x00f0|                        cc 0e 00 00            |        ....    |        offset: 0xecc 0xf8-0xfb.7 (4)
0x00f0|                                    cc 0e 01 00|            ....|        vaddr: 0x10ecc 0xfc-0xff.7 (4)
0x0100|cc 0e 01 00                                    |....            |        paddr: 0x10ecc 0x100-0x103.7 (4)
0x0100|            34 01 00 00                        |    4...        |        filesz: 308 0x104-0x107.7 (4)
0x0100|                        34 01 00 00            |        4...    |        memsz: 308 0x108-0x10b.7 (4)
      |                                               |                |        flags{}: 0x10c-0x10f.7 (4)
0x0100|                                    04         |            .   |          unused0: 0 0x10c-0x10c.4 (0.5)
0x0100|                                    04         |            .   |          r: true 0x10c.5-0x10c.5 (0.1)
0x0100|                                    04         |            .   |          w: false 0x10c.6-0x10c.6 (0.1)
0x0100|                                    04         |            .   |          x: false 0x10c.7-0x10c.7 (0.1)
0x0100|                                       00 00 00|             ...|          unused1: 0 0x10d-0x10f.7 (3)
0x0110|01 00 00 00                                    |....            |        align: 1 0x110-0x113.7 (4)
0x0ec0|                                    7c 05 00 00|            |...|        data: raw bits 0xecc-0xfff.7 (308)
0x0ed0|f0 04 00 00 01 00 00 00 a2 00 00 00 01 00 00 00|................|
*     |until 0xfff.7 (308)                            |                |
      |                                               |                |  section_headers[0:32]: 0x0-0x2593.7 (9620)
      |                                               |                |    [0]{}: section_header 0x0-0x20bb.7 (8380)
      |                                               |                |      data: raw bits 0x0-NA (0)
0x2090|            00 00 00 00                        |    ....        |      name: "" (0) 0x2094-0x2097.7 (4)
0x2090|                        00 00 00 00            |        ....    |      type: "null" (0x0) (Header inactive) 0x2098-0x209b.7 (4)
      |                                               |                |      flags{}: 0x209c-0x209f.7 (4)
0x2090|                                    00         |            .   |        link_order: false 0x209c-0x209c (0.1)
0x2090|                                    00         |            .   |        info_link: false 0x209c.1-0x209c.1 (0.1)
0x2090|                                    00         |            .   |        strings: false 0x209c.2-0x209c.2 (0.1)
0x2090|                                    00         |            .   |        merge: false 0x209c.3-0x209c.3 (0.1)
0x2090|                                    00         |            .   |        unused0: 0 0x209c.4-0x209c.4 (0.1)
0x2090|                                    00         |            .   |        execinstr: false 0x209c.5-0x209c.5 (0.1)
0x2090|                                    00         |            .   |        alloc: false 0x209c.6-0x209c.6 (0.1)
0x2090|                                    00         |            .   |        write: false 0x209c.7-0x209c.7 (0.1)
0x2090|                                       00      |             .  |        tls: false 0x209d-0x209d (0.1)
0x2090|                                       00      |             .  |        group: false 0x209d.1-0x209d.1 (0.1)
0x2090|                                       00      |             .  |        os_nonconforming: false 0x209d.2-0x209d.2 (0.1)
0x2090|                                       00 00   |             .. |        unused1: 0 0x209d.3-0x209e.3 (1.1)
0x2090|                                          00 00|              ..|        os_specific: 0 0x209e.4-0x209f.3 (1)
0x2090|                                             00|               .|        processor_specific: 0 0x209f.4-0x209f.7 (0.4)
0x20a0|00 00 00 00                                    |....            |      addr: 0x0 0x20a0-0x20a3.7 (4)
0x20a0|            00 00 00 00                        |    ....        |      offset: 0 0x20a4-0x20a7.7 (4)
0x20a0|                        00 00 00 00            |        ....    |      size: 0x0 0x20a8-0x20ab.7 (4)
0x20a0|                                    00 00 00 00|            ....|      link: 0 0x20ac-0x20af.7 (4)
0x20b0|00 00 00 00                                    |....            |      info: 0 0x20b0-0x20b3.7 (4)
0x20b0|            00 00 00 00                        |    ....        |      addralign: 0 0x20b4-0x20b7.7 (4)
0x20b0|                        00 00 00 00            |        ....    |      entsize: 0 0x20b8-0x20bb.7 (4)
      |                                               |                |    [1]{}: section_header 0x114-0x20e3.7 (8144)
0x0110|            2f 6c 69 62 2f 6c 64 2d 6d 75 73 6c|    /lib/ld-musl|      data: raw bits 0x114-0x12b.7 (24)
0x0120|2d 61 72 6d 68 66 2e 73 6f 2e 31 00            |-armhf.so.1.    |
0x20b0|                                    1b 00 00 00|            ....|      name: ".interp" (27) 0x20bc-0x20bf.7 (4)
0x20c0|01 00 00 00                                    |....            |      type: "progbits" (0x1) (Information defined by the program) 0x20c0-0x20c3.7 (4)
      |                                               |                |      flags{}: 0x20c4-0x20c7.7 (4)
0x20c0|            02                                 |    .           |        link_order: false 0x20c4-0x20c4 (0.1)
0x20c0|            02                                 |    .           |        info_link: false 0x20c4.1-0x20c4.1 (0.1)
0x20c0|            02                                 |    .           |        strings: false 0x20c4.2-0x20c4.2 (0.1)
0x20c0|            02                                 |    .           |        merge: false 0x20c4.3-0x20c4.3 (0.1)
0x20c0|            02                                 |    .           |        unused0: 0 0x20c4.4-0x20c4.4 (0.1)
0x20c0|            02                                 |    .           |        execinstr: false 0x20c4.5-0x20c4.5 (0.1)
0x20c0|            02                                 |    .           |        alloc: true 0x20c4.6-0x20c4.6 (0.1)
0x20c0|            02                                 |    .           |        write: false 0x20c4.7-0x20c4.7 (0.1)
0x20c0|               00                              |     .          |        tls: false 0x20c5-0x20c5 (0.1)
0x20c0|               00                              |     .          |        group: false 0x20c5.1-0x20c5.1 (0.1)
0x20c0|               00                              |     .          |        os_nonconforming: false 0x20c5.2-0x20c5.2 (0.1)
0x20c0|               00 00                           |     ..         |        unused1: 0 0x20c5.3-0x20c6.3 (1.1)
0x20c0|                  00 00                        |      ..        |        os_specific: 0 0x20c6.4-0x20c7.3 (1)
0x20c0|                     00                        |       .        |        processor_specific: 0 0x20c7.4-0x20c7.7 (0.4)
0x20c0|                        14 01 00 00            |        ....    |      addr: 0x114 0x20c8-0x20cb.7 (4)
0x20c0|                                    14 01 00 00|            ....|      offset: 276 0x20cc-0x20cf.7 (4)
0x20d0|18 00 00 00                                    |....            |      size: 0x18 0x20d0-0x20d3.7 (4)
0x20d0|            00 00 00 00                        |    ....        |      link: 0 0x20d4-0x20d7.7 (4)
0x20d0|                        00 00 00 00            |        ....    |      info: 0 0x20d8-0x20db.7 (4)
0x20d0|                                    01 00 00 00|            ....|      addralign: 1 0x20dc-0x20df.7 (4)
0x20e0|00 00 00 00                                    |....            |      entsize: 0 0x20e0-0x20e3.7 (4)
      |                                               |                |    [2]{}: section_header 0x12c-0x210b.7 (8160)
      |                                               |                |      gnu_hash{}: 0x12c-0x14f.7 (36)
0x0120|                                    02 00 00 00|            ....|        nbuckets: 2 0x12c-0x12f.7 (4)
0x0130|0b 00 00 00                                    |....            |        symndx: 11 0x130-0x133.7 (4)
0x0130|            01 00 00 00                        |    ....        |        maskwords: 1 0x134-0x137.7 (4)
0x0130|                        05 00 00 00            |        ....    |        shift2: 5 0x138-0x13b.7 (4)
      |                                               |                |        bloom_filter[0:1]: 0x13c-0x13f.7 (4)
0x0130|                                    00 24 00 81|            .$..|          [0]: 2164270080 maskword 0x13c-0x13f.7 (4)
      |                                               |                |        buckets[0:2]: 0x140-0x147.7 (8)
0x0140|0b 00 00 00                                    |....            |          [0]: 11 bucket 0x140-0x143.7 (4)
0x0140|            00 00 00 00                        |    ....        |          [1]: 0 bucket 0x144-0x147.7 (4)
      |                                               |                |        values[0:2]: 0x148-0x14f.7 (8)
0x0140|                        b8 8d f1 0e            |        ....    |          [0]: 250711480 value 0x148-0x14b.7 (4)
0x0140|                                    eb d3 ef 0e|            ....|          [1]: 250598379 value 0x14c-0x14f.7 (4)
0x20e0|            23 00 00 00                        |    #...        |      name: ".gnu.hash" (35) 0x20e4-0x20e7.7 (4)
0x20e0|                        f6 ff ff 6f            |        ...o    |      type: "gnu_hash" (0x6ffffff6) (GNU symbol hash table) 0x20e8-0x20eb.7 (4)
      |                                               |                |      flags{}: 0x20ec-0x20ef.7 (4)
0x20e0|                                    02         |            .   |        link_order: false 0x20ec-0x20ec (0.1)
0x20e0|                                    02         |            .   |        info_link: false 0x20ec.1-0x20ec.1 (0.1)
0x20e0|                                    02         |            .   |        strings: false 0x20ec.2-0x20ec.2 (0.1)
0x20e0|                                    02         |            .   |        merge: false 0x20ec.3-0x20ec.3 (0.1)
0x20e0|                                    02         |            .   |        unused0: 0 0x20ec.4-0x20ec.4 (0.1)
0x20e0|                                    02         |            .   |        execinstr: false 0x20ec.5-0x20ec.5 (0.1)
0x20e0|                                    02         |            .   |        alloc: true 0x20ec.6-0x20ec.6 (0.1)
0x20e0|                                    02         |            .   |        write: false 0x20ec.7-0x20ec.7 (0.1)
0x20e0|                                       00      |             .  |        tls: false 0x20ed-0x20ed (0.1)
0x20e0|                                       00      |             .  |        group: false 0x20ed.1-0x20ed.1 (0.1)
0x20e0|                                       00      |             .  |        os_nonconforming: false 0x20ed.2-0x20ed.2 (0.1)
0x20e0|                                       00 00   |             .. |        unused1: 0 0x20ed.3-0x20ee.3 (1.1)
0x20e0|                                          00 00|              ..|        os_specific: 0 0x20ee.4-0x20ef.3 (1)
0x20e0|                                             00|               .|        processor_specific: 0 0x20ef.4-0x20ef.7 (0.4)
0x20f0|2c 01 00 00                                    |,...            |      addr: 0x12c 0x20f0-0x20f3.7 (4)
0x20f0|            2c 01 00 00                        |    ,...        |      offset: 300 0x20f4-0x20f7.7 (4)
0x20f0|                        24 00 00 00            |        $...    |      size: 0x24 0x20f8-0x20fb.7 (4)
0x20f0|                                    03 00 00 00|            ....|      link: 3 0x20fc-0x20ff.7 (4)
0x2100|00 00 00 00                                    |....            |      info: 0 0x2100-0x2103.7 (4)
0x2100|            04 00 00 00                        |    ....        |      addralign: 4 0x2104-0x2107.7 (4)
0x2100|                        04 00 00 00            |        ....    |      entsize: 4 0x2108-0x210b.7 (4)
      |                                               |                |    [3]{}: section_header 0x150-0x2133.7 (8164)
      |                                               |                |      symbol_table[0:13]: 0x150-0x21f.7 (208)
      |                                               |                |        [0]{}: symbol 0x150-0x15f.7 (16)
0x0150|00 00 00 00                                    |....            |          name: "" (0) 0x150-0x153.7 (4)
0x0150|            00 00 00 00                        |    ....        |          value: 0 0x154-0x157.7 (4)
0x0150|                        00 00 00 00            |        ....    |          size: 0 0x158-0x15b.7 (4)
0x0150|                                    00         |            .   |          bind: "local" (0) 0x15c-0x15c.3 (0.4)
0x0150|                                    00         |            .   |          type: "notype" (0) 0x15c.4-0x15c.7 (0.4)
0x0150|                                       00      |             .  |          other_unused: 0 0x15d-0x15d.5 (0.6)
0x0150|                                       00      |             .  |          visibility: "default" (0) 0x15d.6-0x15d.7 (0.2)
0x0150|                                          00 00|              ..|          shndx: 0 0x15e-0x15f.7 (2)
      |                                               |                |        [1]{}: symbol 0x160-0x16f.7 (16)
0x0160|00 00 00 00                                    |....            |          name: "" (0) 0x160-0x163.7 (4)
0x0160|            6c 03 00 00                        |    l...        |          value: 876 0x164-0x167.7 (4)
0x0160|                        00 00 00 00            |        ....    |          size: 0 0x168-0x16b.7 (4)
0x0160|                                    03         |            .   |          bind: "local" (0) 0x16c-0x16c.3 (0.4)
0x0160|                                    03         |            .   |          type: "section" (3) 0x16c.4-0x16c.7 (0.4)
0x0160|                                       00      |             .  |          other_unused: 0 0x16d-0x16d.5 (0.6)
0x0160|                                       00      |             .  |          visibility: "default" (0) 0x16d.6-0x16d.7 (0.2)
0x0160|                                          07 00|              ..|          shndx: 7 0x16e-0x16f.7 (2)
      |                                               |                |        [2]{}: symbol 0x170-0x17f.7 (16)
0x0170|00 00 00 00                                    |....            |          name: "" (0) 0x170-0x173.7 (4)
0x0170|            00 10 01 00                        |    ....        |          value: 69632 0x174-0x177.7 (4)
0x0170|                        00 00 00 00            |        ....    |          size: 0 0x178-0x17b.7 (4)
0x0170|                                    03         |            .   |          bind: "local" (0) 0x17c-0x17c.3 (0.4)
0x0170|                                    03         |            .   |          type: "section" (3) 0x17c.4-0x17c.7 (0.4)
0x0170|                                       00      |             .  |          other_unused: 0 0x17d-0x17d.5 (0.6)
0x0170|                                       00      |             .  |          visibility: "default" (0) 0x17d.6-0x17d.7 (0.2)
0x0170|                                          11 00|              ..|          shndx: 17 0x17e-0x17f.7 (2)
      |                                               |                |        [3]{}: symbol 0x180-0x18f.7 (16)
0x0180|01 00 00 00                                    |....            |          name: "puts" (1) 0x180-0x183.7 (4)
0x0180|            00 00 00 00                        |    ....        |          value: 0 0x184-0x187.7 (4)
0x0180|                        00 00 00 00            |        ....    |          size: 0 0x188-0x18b.7 (4)
0x0180|                                    12         |            .   |          bind: "global" (1) 0x18c-0x18c.3 (0.4)
0x0180|                                    12         |            .   |          type: "func" (2) 0x18c.4-0x18c.7 (0.4)
0x0180|                                       00      |             .  |          other_unused: 0 0x18d-0x18d.5 (0.6)
0x0180|                                       00      |             .  |          visibility: "default" (0) 0x18d.6-0x18d.7 (0.2)
0x0180|                                          00 00|              ..|          shndx: 0 0x18e-0x18f.7 (2)
      |                                               |                |        [4]{}: symbol 0x190-0x19f.7 (16)
0x0190|06 00 00 00                                    |....            |          name: "__cxa_finalize" (6) 0x190-0x193.7 (4)
0x0190|            00 00 00 00                        |    ....        |          value: 0 0x194-0x197.7 (4)
0x0190|                        00 00 00 00            |        ....    |          size: 0 0x198-0x19b.7 (4)
0x0190|                                    22         |            "   |          bind: "weak" (2) 0x19c-0x19c.3 (0.4)
0x0190|                                    22         |            "   |          type: "func" (2) 0x19c.4-0x19c.7 (0.4)
0x0190|                                       00      |             .  |          other_unused: 0 0x19d-0x19d.5 (0.6)
0x0190|                                       00      |             .  |          visibility: "default" (0) 0x19d.6-0x19d.7 (0.2)
0x0190|                                          00 00|              ..|          shndx: 0 0x19e-0x19f.7 (2)
      |                                               |                |        [5]{}: symbol 0x1a0-0x1af.7 (16)
0x01a0|15 00 00 00                                    |....            |          name: "__deregister_frame_info" (21) 0x1a0-0x1a3.7 (4)
0x01a0|            00 00 00 00                        |    ....        |          value: 0 0x1a4-0x1a7.7 (4)
0x01a0|                        00 00 00 00            |        ....    |          size: 0 0x1a8-0x1ab.7 (4)
0x01a0|                                    20         |                |          bind: "weak" (2) 0x1ac-0x1ac.3 (0.4)
0x01a0|                                    20         |                |          type: "notype" (0) 0x1ac.4-0x1ac.7 (0.4)
0x01a0|                                       00      |             .  |          other_unused: 0 0x1ad-0x1ad.5 (0.6)
0x01a0|                                       00      |             .  |          visibility: "default" (0) 0x1ad.6-0x1ad.7 (0.2)
0x01a0|                                          00 00|              ..|          shndx: 0 0x1ae-0x1af.7 (2)
      |                                               |                |        [6]{}: symbol 0x1b0-0x1bf.7 (16)
0x01b0|2d 00 00 00                                    |-...            |          name: "_ITM_registerTMCloneTable" (45) 0x1b0-0x1b3.7 (4)
0x01b0|            00 00 00 00                        |    ....        |          value: 0 0x1b4-0x1b7.7 (4)
0x01b0|                        00 00 00 00            |        ....    |          size: 0 0x1b8-0x1bb.7 (4)
0x01b0|                                    20         |                |          bind: "weak" (2) 0x1bc-0x1bc.3 (0.4)
0x01b0|                                    20         |                |          type: "notype" (0) 0x1bc.4-0x1bc.7 (0.4)
0x01b0|                                       00      |             .  |          other_unused: 0 0x1bd-0x1bd.5 (0.6)
0x01b0|                                       00      |             .  |          visibility: "default" (0) 0x1bd.6-0x1bd.7 (0.2)
0x01b0|                                          00 00|              ..|          shndx: 0 0x1be-0x1bf.7 (2)
      |                                               |                |        [7]{}: symbol 0x1c0-0x1cf.7 (16)
0x01c0|47 00 00 00                                    |G...            |          name: "_ITM_deregisterTMCloneTable" (71) 0x1c0-0x1c3.7 (4)
0x01c0|            00 00 00 00                        |    ....        |          value: 0 0x1c4-0x1c7.7 (4)
0x01c0|                        00 00 00 00            |        ....    |          size: 0 0x1c8-0x1cb.7 (4)
0x01c0|                                    20         |                |          bind: "weak" (2) 0x1cc-0x1cc.3 (0.4)
0x01c0|                                    20         |                |          type: "notype" (0) 0x1cc.4-0x1cc.7 (0.4)
0x01c0|                                       00      |             .  |          other_unused: 0 0x1cd-0x1cd.5 (0.6)
0x01c0|                                       00      |             .  |          visibility: "default" (0) 0x1cd.6-0x1cd.7 (0.2)
0x01c0|                                          00 00|              ..|          shndx: 0 0x1ce-0x1cf.7 (2)
      |                                               |                |        [8]{}: symbol 0x1d0-0x1df.7 (16)
0x01d0|85 00 00 00                                    |....            |          name: "libbbb_bbb" (133) 0x1d0-0x1d3.7 (4)
0x01d0|            00 00 00 00                        |    ....        |          value: 0 0x1d4-0x1d7.7 (4)
0x01d0|                        00 00 00 00            |        ....    |          size: 0 0x1d8-0x1db.7 (4)
0x01d0|                                    12         |            .   |          bind: "global" (1) 0x1dc-0x1dc.3 (0.4)
0x01d0|                                    12         |            .   |          type: "func" (2) 0x1dc.4-0x1dc.7 (0.4)
0x01d0|                                       00      |             .  |          other_unused: 0 0x1dd-0x1dd.5 (0.6)
0x01d0|                                       00      |             .  |          visibility: "default" (0) 0x1dd.6-0x1dd.7 (0.2)
0x01d0|                                          00 00|              ..|          shndx: 0 0x1de-0x1df.7 (2)
      |                                               |                |        [9]{}: symbol 0x1e0-0x1ef.7 (16)
0x01e0|90 00 00 00                                    |....            |          name: "__libc_start_main" (144) 0x1e0-0x1e3.7 (4)
0x01e0|            00 00 00 00                        |    ....        |          value: 0 0x1e4-0x1e7.7 (4)
0x01e0|                        00 00 00 00            |        ....    |          size: 0 0x1e8-0x1eb.7 (4)
0x01e0|                                    12         |            .   |          bind: "global" (1) 0x1ec-0x1ec.3 (0.4)
0x01e0|                                    12         |            .   |          type: "func" (2) 0x1ec.4-0x1ec.7 (0.4)
0x01e0|                                       00      |             .  |          other_unused: 0 0x1ed-0x1ed.5 (0.6)
0x01e0|                                       00      |             .  |          visibility: "default" (0) 0x1ed.6-0x1ed.7 (0.2)
0x01e0|                                          00 00|              ..|          shndx: 0 0x1ee-0x1ef.7 (2)
      |                                               |                |        [10]{}: symbol 0x1f0-0x1ff.7 (16)
0x01f0|63 00 00 00                                    |c...            |          name: "__register_frame_info" (99) 0x1f0-0x1f3.7 (4)
0x01f0|            00 00 00 00                        |    ....        |          value: 0 0x1f4-0x1f7.7 (4)
0x01f0|                        00 00 00 00            |        ....    |          size: 0 0x1f8-0x1fb.7 (4)
0x01f0|                                    20         |                |          bind: "weak" (2) 0x1fc-0x1fc.3 (0.4)
0x01f0|                                    20         |                |          type: "notype" (0) 0x1fc.4-0x1fc.7 (0.4)
0x01f0|                                       00      |             .  |          other_unused: 0 0x1fd-0x1fd.5 (0.6)
0x01f0|                                       00      |             .  |          visibility: "default" (0) 0x1fd.6-0x1fd.7 (0.2)
0x01f0|                                          00 00|              ..|          shndx: 0 0x1fe-0x1ff.7 (2)
      |                                               |                |        [11]{}: symbol 0x200-0x20f.7 (16)
0x0200|79 00 00 00                                    |y...            |          name: "_init" (121) 0x200-0x203.7 (4)
0x0200|            6c 03 00 00                        |    l...        |          value: 876 0x204-0x207.7 (4)
0x0200|                        04 00 00 00            |        ....    |          size: 4 0x208-0x20b.7 (4)
0x0200|                                    12         |            .   |          bind: "global" (1) 0x20c-0x20c.3 (0.4)
0x0200|                                    12         |            .   |          type: "func" (2) 0x20c.4-0x20c.7 (0.4)
0x0200|                                       00      |             .  |          other_unused: 0 0x20d-0x20d.5 (0.6)
0x0200|                                       00      |             .  |          visibility: "default" (0) 0x20d.6-0x20d.7 (0.2)
0x0200|                                          07 00|              ..|          shndx: 7 0x20e-0x20f.7 (2)
      |                                               |                |        [12]{}: symbol 0x210-0x21f.7 (16)
0x0210|7f 00 00 00                                    |....            |          name: "_fini" (127) 0x210-0x213.7 (4)
0x0210|            08 06 00 00                        |    ....        |          value: 1544 0x214-0x217.7 (4)
0x0210|                        04 00 00 00            |        ....    |          size: 4 0x218-0x21b.7 (4)
0x0210|                                    12         |            .   |          bind: "global" (1) 0x21c-0x21c.3 (0.4)
0x0210|                                    12         |            .   |          type: "func" (2) 0x21c.4-0x21c.7 (0.4)
0x0210|                                       00      |             .  |          other_unused: 0 0x21d-0x21d.5 (0.6)
0x0210|                                       00      |             .  |          visibility: "default" (0) 0x21d.6-0x21d.7 (0.2)
0x0210|                                          0a 00|              ..|          shndx: 10 0x21e-0x21f.7 (2)
0x2100|                                    2d 00 00 00|            -...|      name: ".dynsym" (45) 0x210c-0x210f.7 (4)
0x2110|0b 00 00 00                                    |....            |      type: "dynsym" (0xb) (Dynamic linking symbol table) 0x2110-0x2113.7 (4)
      |                                               |                |      flags{}: 0x2114-0x2117.7 (4)
0x2110|            02                                 |    .           |        link_order: false 0x2114-0x2114 (0.1)
0x2110|            02                                 |    .           |        info_link: false 0x2114.1-0x2114.1 (0.1)
0x2110|            02                                 |    .           |        strings: false 0x2114.2-0x2114.2 (0.1)
0x2110|            02                                 |    .           |        merge: false 0x2114.3-0x2114.3 (0.1)
0x2110|            02                                 |    .           |        unused0: 0 0x2114.4-0x2114.4 (0.1)
0x2110|            02                                 |    .           |        execinstr: false 0x2114.5-0x2114.5 (0.1)
0x2110|            02                                 |    .           |        alloc: true 0x2114.6-0x2114.6 (0.1)
0x2110|            02                                 |    .           |        write: false 0x2114.7-0x2114.7 (0.1)
0x2110|               00                              |     .          |        tls: false 0x2115-0x2115 (0.1)
0x2110|               00                              |     .          |        group: false 0x2115.1-0x2115.1 (0.1)
0x2110|               00                              |     .          |        os_nonconforming: false 0x2115.2-0x2115.2 (0.1)
0x2110|               00 00                           |     ..         |        unused1: 0 0x2115.3-0x2116.3 (1.1)
0x2110|                  00 00                        |      ..        |        os_specific: 0 0x2116.4-0x2117.3 (1)
0x2110|                     00                        |       .        |        processor_specific: 0 0x2117.4-0x2117.7 (0.4)
0x2110|                        50 01 00 00            |        P...    |      addr: 0x150 0x2118-0x211b.7 (4)
0x2110|                                    50 01 00 00|            P...|      offset: 336 0x211c-0x211f.7 (4)
0x2120|d0 00 00 00                                    |....            |      size: 0xd0 0x2120-0x2123.7 (4)
0x2120|            04 00 00 00                        |    ....        |      link: 4 0x2124-0x2127.7 (4)
0x2120|                        03 00 00 00            |        ....    |      info: 3 0x2128-0x212b.7 (4)
0x2120|                                    04 00 00 00|            ....|      addralign: 4 0x212c-0x212f.7 (4)
0x2130|10 00 00 00                                    |....            |      entsize: 16 0x2130-0x2133.7 (4)
      |                                               |                |    [4]{}: section_header 0x220-0x215b.7 (7996)
0x0220|00 70 75 74 73 00 5f 5f 63 78 61 5f 66 69 6e 61|.puts.__cxa_fina|      string: "\x00puts\x00__cxa_finalize\x00__deregister_frame_info\x00_ITM_"... 0x220-0x2e0.7 (193)
*     |until 0x2e0.7 (193)                            |                |
0x2130|            35 00 00 00                        |    5...        |      name: ".dynstr" (53) 0x2134-0x2137.7 (4)
0x2130|                        03 00 00 00            |        ....    |      type: "strtab" (0x3) (String table) 0x2138-0x213b.7 (4)
      |                                               |                |      flags{}: 0x213c-0x213f.7 (4)
0x2130|                                    02         |            .   |        link_order: false 0x213c-0x213c (0.1)
0x2130|                                    02         |            .   |        info_link: false 0x213c.1-0x213c.1 (0.1)
0x2130|                                    02         |            .   |        strings: false 0x213c.2-0x213c.2 (0.1)
0x2130|                                    02         |            .   |        merge: false 0x213c.3-0x213c.3 (0.1)
0x2130|                                    02         |            .   |        unused0: 0 0x213c.4-0x213c.4 (0.1)
0x2130|                                    02         |            .   |        execinstr: false 0x213c.5-0x213c.5 (0.1)
0x2130|                                    02         |            .   |        alloc: true 0x213c.6-0x213c.6 (0.1)
0x2130|                                    02         |            .   |        write: false 0x213c.7-0x213c.7 (0.1)
0x2130|                                       00      |             .  |        tls: false 0x213d-0x213d (0.1)
0x2130|                                       00      |             .  |        group: false 0x213d.1-0x213d.1 (0.1)
0x2130|                                       00      |             .  |        os_nonconforming: false 0x213d.2-0x213d.2 (0.1)
0x2130|                                       00 00   |             .. |        unused1: 0 0x213d.3-0x213e.3 (1.1)
0x2130|                                          00 00|              ..|        os_specific: 0 0x213e.4-0x213f.3 (1)
0x2130|                                             00|               .|        processor_specific: 0 0x213f.4-0x213f.7 (0.4)
0x2140|20 02 00 00                                    | ...            |      addr: 0x220 0x2140-0x2143.7 (4)
0x2140|            20 02 00 00                        |     ...        |      offset: 544 0x2144-0x2147.7 (4)
0x2140|                        c1 00 00 00            |        ....    |      size: 0xc1 0x2148-0x214b.7 (4)
0x2140|                                    00 00 00 00|            ....|      link: 0 0x214c-0x214f.7 (4)
0x2150|00 00 00 00                                    |....            |      info: 0 0x2150-0x2153.7 (4)
0x2150|            01 00 00 00                        |    ....        |      addralign: 1 0x2154-0x2157.7 (4)
0x2150|                        00 00 00 00            |        ....    |      entsize: 0 0x2158-0x215b.7 (4)
      |                                               |                |    [5]{}: section_header 0x2e4-0x2183.7 (7840)
0x02e0|            cc 0e 01 00 17 00 00 00 d0 0e 01 00|    ............|      data: raw bits 0x2e4-0x33b.7 (88)
0x02f0|17 00 00 00 e4 0f 01 00 17 00 00 00 f4 0f 01 00|................|
*     |until 0x33b.7 (88)                             |                |
0x2150|                                    3d 00 00 00|            =...|      name: ".rel.dyn" (61) 0x215c-0x215f.7 (4)
0x2160|09 00 00 00                                    |....            |      type: "rel" (0x9) (Relocation entries without explicit addends) 0x2160-0x2163.7 (4)
      |                                               |                |      flags{}: 0x2164-0x2167.7 (4)
0x2160|            02                                 |    .           |        link_order: false 0x2164-0x2164 (0.1)
0x2160|            02                                 |    .           |        info_link: false 0x2164.1-0x2164.1 (0.1)
0x2160|            02                                 |    .           |        strings: false 0x2164.2-0x2164.2 (0.1)
0x2160|            02                                 |    .           |        merge: false 0x2164.3-0x2164.3 (0.1)
0x2160|            02                                 |    .           |        unused0: 0 0x2164.4-0x2164.4 (0.1)
0x2160|            02                                 |    .           |        execinstr: false 0x2164.5-0x2164.5 (0.1)
0x2160|            02                                 |    .           |        alloc: true 0x2164.6-0x2164.6 (0.1)
0x2160|            02                                 |    .           |        write: false 0x2164.7-0x2164.7 (0.1)
0x2160|               00                              |     .          |        tls: false 0x2165-0x2165 (0.1)
0x2160|               00                              |     .          |        group: false 0x2165.1-0x2165.1 (0.1)
0x2160|               00                              |     .          |        os_nonconforming: false 0x2165.2-0x2165.2 (0.1)
0x2160|               00 00                           |     ..         |        unused1: 0 0x2165.3-0x2166.3 (1.1)
0x2160|                  00 00                        |      ..        |        os_specific: 0 0x2166.4-0x2167.3 (1)
0x2160|                     00                        |       .        |        processor_specific: 0 0x2167.4-0x2167.7 (0.4)
0x2160|                        e4 02 00 00            |        ....    |      addr: 0x2e4 0x2168-0x216b.7 (4)
0x2160|                                    e4 02 00 00|            ....|      offset: 740 0x216c-0x216f.7 (4)
0x2170|58 00 00 00                                    |X...            |      size: 0x58 0x2170-0x2173.7 (4)
0x2170|            03 00 00 00                        |    ....        |      link: 3 0x2174-0x2177.7 (4)
0x2170|                        00 00 00 00            |        ....    |      info: 0 0x2178-0x217b.7 (4)
0x2170|                                    04 00 00 00|            ....|      addralign: 4 0x217c-0x217f.7 (4)
0x2180|08 00 00 00                                    |....            |      entsize: 8 0x2180-0x2183.7 (4)
      |                                               |                |    [6]{}: section_header 0x33c-0x21ab.7 (7792)
0x0330|                                    c8 0f 01 00|            ....|      data: raw bits 0x33c-0x36b.7 (48)
0x0340|16 03 00 00 cc 0f 01 00 16 04 00 00 d0 0f 01 00|................|
*     |until 0x36b.7 (48)                             |                |
0x2180|            46 00 00 00                        |    F...        |      name: ".rel.plt" (70) 0x2184-0x2187.7 (4)
0x2180|                        09 00 00 00            |        ....    |      type: "rel" (0x9) (Relocation entries without explicit addends) 0x2188-0x218b.7 (4)
      |                                               |                |      flags{}: 0x218c-0x218f.7 (4)
0x2180|                                    42         |            B   |        link_order: false 0x218c-0x218c (0.1)
0x2180|                                    42         |            B   |        info_link: true 0x218c.1-0x218c.1 (0.1)
0x2180|                                    42         |            B   |        strings: false 0x218c.2-0x218c.2 (0.1)
0x2180|                                    42         |            B   |        merge: false 0x218c.3-0x218c.3 (0.1)
0x2180|                                    42         |            B   |        unused0: 0 0x218c.4-0x218c.4 (0.1)
0x2180|                                    42         |            B   |        execinstr: false 0x218c.5-0x218c.5 (0.1)
0x2180|                                    42         |            B   |        alloc: true 0x218c.6-0x218c.6 (0.1)
0x2180|                                    42         |            B   |        write: false 0x218c.7-0x218c.7 (0.1)
0x2180|                                       00      |             .  |        tls: false 0x218d-0x218d (0.1)
0x2180|                                       00      |             .  |        group: false 0x218d.1-0x218d.1 (0.1)
0x2180|                                       00      |             .  |        os_nonconforming: false 0x218d.2-0x218d.2 (0.1)
0x2180|                                       00 00   |             .. |        unused1: 0 0x218d.3-0x218e.3 (1.1)
0x2180|                                          00 00|              ..|        os_specific: 0 0x218e.4-0x218f.3 (1)
0x2180|                                             00|               .|        processor_specific: 0 0x218f.4-0x218f.7 (0.4)
0x2190|3c 03 00 00                                    |<...            |      addr: 0x33c 0x2190-0x2193.7 (4)
0x2190|            3c 03 00 00                        |    <...        |      offset: 828 0x2194-0x2197.7 (4)
0x2190|                        30 00 00 00            |        0...    |      size: 0x30 0x2198-0x219b.7 (4)
0x2190|                                    03 00 00 00|            ....|      link: 3 0x219c-0x219f.7 (4)
0x21a0|10 00 00 00                                    |....            |      info: 16 0x21a0-0x21a3.7 (4)
0x21a0|            04 00 00 00                        |    ....        |      addralign: 4 0x21a4-0x21a7.7 (4)
0x21a0|                        08 00 00 00            |        ....    |      entsize: 8 0x21a8-0x21ab.7 (4)
      |                                               |                |    [7]{}: section_header 0x36c-0x21d3.7 (7784)
0x0360|                                    01 40 2d e9|            .@-.|      data: raw bits 0x36c-0x377.7 (12)
0x0370|01 40 bd e8 1e ff 2f e1                        |.@..../.        |
0x21a0|                                    4f 00 00 00|            O...|      name: ".init" (79) 0x21ac-0x21af.7 (4)
0x21b0|01 00 00 00                                    |....            |      type: "progbits" (0x1) (Information defined by the program) 0x21b0-0x21b3.7 (4)
      |                                               |                |      flags{}: 0x21b4-0x21b7.7 (4)
0x21b0|            06                                 |    .           |        link_order: false 0x21b4-0x21b4 (0.1)
0x21b0|            06                                 |    .           |        info_link: false 0x21b4.1-0x21b4.1 (0.1)
0x21b0|            06                                 |    .           |        strings: false 0x21b4.2-0x21b4.2 (0.1)
0x21b0|            06                                 |    .           |        merge: false 0x21b4.3-0x21b4.3 (0.1)
0x21b0|            06                                 |    .           |        unused0: 0 0x21b4.4-0x21b4.4 (0.1)
0x21b0|            06                                 |    .           |        execinstr: true 0x21b4.5-0x21b4.5 (0.1)
0x21b0|            06                                 |    .           |        alloc: true 0x21b4.6-0x21b4.6 (0.1)
0x21b0|            06                                 |    .           |        write: false 0x21b4.7-0x21b4.7 (0.1)
0x21b0|               00                              |     .          |        tls: false 0x21b5-0x21b5 (0.1)
0x21b0|               00                              |     .          |        group: false 0x21b5.1-0x21b5.1 (0.1)
0x21b0|               00                              |     .          |        os_nonconforming: false 0x21b5.2-0x21b5.2 (0.1)
0x21b0|               00 00                           |     ..         |        unused1: 0 0x21b5.3-0x21b6.3 (1.1)
0x21b0|                  00 00                        |      ..        |        os_specific: 0 0x21b6.4-0x21b7.3 (1)
0x21b0|                     00                        |       .        |        processor_specific: 0 0x21b7.4-0x21b7.7 (0.4)
0x21b0|                        6c 03 00 00            |        l...    |      addr: 0x36c 0x21b8-0x21bb.7 (4)
0x21b0|                                    6c 03 00 00|            l...|      offset: 876 0x21bc-0x21bf.7 (4)
0x21c0|0c 00 00 00                                    |....            |      size: 0xc 0x21c0-0x21c3.7 (4)
0x21c0|            00 00 00 00                        |    ....        |      link: 0 0x21c4-0x21c7.7 (4)
0x21c0|                        00 00 00 00            |        ....    |      info: 0 0x21c8-0x21cb.7 (4)
0x21c0|                                    04 00 00 00|            ....|      addralign: 4 0x21cc-0x21cf.7 (4)
0x21d0|00 00 00 00                                    |....            |      entsize: 0 0x21d0-0x21d3.7 (4)
      |                                               |                |    [8]{}: section_header 0x378-0x21fb.7 (7812)
0x0370|                        04 e0 2d e5 04 e0 9f e5|        ..-.....|      data: raw bits 0x378-0x3d3.7 (92)
0x0380|0e e0 8f e0 08 f0 be e5 34 0c 01 00 00 c6 8f e2|........4.......|
*     |until 0x3d3.7 (92)                             |                |
0x21d0|            4a 00 00 00                        |    J...        |      name: ".plt" (74) 0x21d4-0x21d7.7 (4)
0x21d0|                        01 00 00 00            |        ....    |      type: "progbits" (0x1) (Information defined by the program) 0x21d8-0x21db.7 (4)
      |                                               |                |      flags{}: 0x21dc-0x21df.7 (4)
0x21d0|                                    06         |            .   |        link_order: false 0x21dc-0x21dc (0.1)
0x21d0|                                    06         |            .   |        info_link: false 0x21dc.1-0x21dc.1 (0.1)
0x21d0|                                    06         |            .   |        strings: false 0x21dc.2-0x21dc.2 (0.1)
0x21d0|                                    06         |            .   |        merge: false 0x21dc.3-0x21dc.3 (0.1)
0x21d0|                                    06         |            .   |        unused0: 0 0x21dc.4-0x21dc.4 (0.1)
0x21d0|                                    06         |            .   |        execinstr: true 0x21dc.5-0x21dc.5 (0.1)
0x21d0|                                    06         |            .   |        alloc: true 0x21dc.6-0x21dc.6 (0.1)
0x21d0|                                    06         |            .   |        write: false 0x21dc.7-0x21dc.7 (0.1)
0x21d0|                                       00      |             .  |        tls: false 0x21dd-0x21dd (0.1)
0x21d0|                                       00      |             .  |        group: false 0x21dd.1-0x21dd.1 (0.1)
0x21d0|                                       00      |             .  |        os_nonconforming: false 0x21dd.2-0x21dd.2 (0.1)
0x21d0|                                       00 00   |             .. |        unused1: 0 0x21dd.3-0x21de.3 (1.1)
0x21d0|                                          00 00|              ..|        os_specific: 0 0x21de.4-0x21df.3 (1)
0x21d0|                                             00|               .|        processor_specific: 0 0x21df.4-0x21df.7 (0.4)
0x21e0|78 03 00 00                                    |x...            |      addr: 0x378 0x21e0-0x21e3.7 (4)
0x21e0|            78 03 00 00                        |    x...        |      offset: 888 0x21e4-0x21e7.7 (4)
0x21e0|                        5c 00 00 00            |        \...    |      size: 0x5c 0x21e8-0x21eb.7 (4)
0x21e0|                                    00 00 00 00|            ....|      link: 0 0x21ec-0x21ef.7 (4)
0x21f0|00 00 00 00                                    |....            |      info: 0 0x21f0-0x21f3.7 (4)
0x21f0|            04 00 00 00                        |    ....        |      addralign: 4 0x21f4-0x21f7.7 (4)
0x21f0|                        04 00 00 00            |        ....    |      entsize: 4 0x21f8-0x21fb.7 (4)
      |                                               |                |    [9]{}: section_header 0x3d4-0x2223.7 (7760)
0x03d0|            00 b0 a0 e3 00 e0 a0 e3 10 10 9f e5|    ............|      data: raw bits 0x3d4-0x607.7 (564)
0x03e0|01 10 8f e0 0d 00 a0 e1 0f c0 c0 e3 0c d0 a0 e1|................|
*     |until 0x607.7 (564)                            |                |
0x21f0|                                    55 00 00 00|            U...|      name: ".text" (85) 0x21fc-0x21ff.7 (4)
0x2200|01 00 00 00                                    |....            |      type: "progbits" (0x1) (Information defined by the program) 0x2200-0x2203.7 (4)
      |                                               |                |      flags{}: 0x2204-0x2207.7 (4)
0x2200|            06                                 |    .           |        link_order: false 0x2204-0x2204 (0.1)
0x2200|            06                                 |    .           |        info_link: false 0x2204.1-0x2204.1 (0.1)
0x2200|            06                                 |    .           |        strings: false 0x2204.2-0x2204.2 (0.1)
0x2200|            06                                 |    .           |        merge: false 0x2204.3-0x2204.3 (0.1)
0x2200|            06                                 |    .           |        unused0: 0 0x2204.4-0x2204.4 (0.1)
0x2200|            06                                 |    .           |        execinstr: true 0x2204.5-0x2204.5 (0.1)
0x2200|            06                                 |    .           |        alloc: true 0x2204.6-0x2204.6 (0.1)
0x2200|            06                                 |    .           |        write: false 0x2204.7-0x2204.7 (0.1)
0x2200|               00                              |     .          |        tls: false 0x2205-0x2205 (0.1)
0x2200|               00                              |     .          |        group: false 0x2205.1-0x2205.1 (0.1)
0x2200|               00                              |     .          |        os_nonconforming: false 0x2205.2-0x2205.2 (0.1)
0x2200|               00 00                           |     ..         |        unused1: 0 0x2205.3-0x2206.3 (1.1)
0x2200|                  00 00                        |      ..        |        os_specific: 0 0x2206.4-0x2207.3 (1)
0x2200|                     00                        |       .        |        processor_specific: 0 0x2207.4-0x2207.7 (0.4)
0x2200|                        d4 03 00 00            |        ....    |      addr: 0x3d4 0x2208-0x220b.7 (4)
0x2200|                                    d4 03 00 00|            ....|      offset: 980 0x220c-0x220f.7 (4)
0x2210|34 02 00 00                                    |4...            |      size: 0x234 0x2210-0x2213.7 (4)
0x2210|            00 00 00 00                        |    ....        |      link: 0 0x2214-0x2217.7 (4)
0x2210|                        00 00 00 00            |        ....    |      info: 0 0x2218-0x221b.7 (4)
0x2210|                                    04 00 00 00|            ....|      addralign: 4 0x221c-0x221f.7 (4)
0x2220|00 00 00 00                                    |....            |      entsize: 0 0x2220-0x2223.7 (4)
      |                                               |                |    [10]{}: section_header 0x608-0x224b.7 (7236)
0x0600|                        01 40 2d e9 01 40 bd e8|        .@-..@..|      data: raw bits 0x608-0x613.7 (12)
0x0610|1e ff 2f e1                                    |../.            |
0x2220|            5b 00 00 00                        |    [...        |      name: ".fini" (91) 0x2224-0x2227.7 (4)
0x2220|                        01 00 00 00            |        ....    |      type: "progbits" (0x1) (Information defined by the program) 0x2228-0x222b.7 (4)
      |                                               |                |      flags{}: 0x222c-0x222f.7 (4)
0x2220|                                    06         |            .   |        link_order: false 0x222c-0x222c (0.1)
0x2220|                                    06         |            .   |        info_link: false 0x222c.1-0x222c.1 (0.1)
0x2220|                                    06         |            .   |        strings: false 0x222c.2-0x222c.2 (0.1)
0x2220|                                    06         |            .   |        merge: false 0x222c.3-0x222c.3 (0.1)
0x2220|                                    06         |            .   |        unused0: 0 0x222c.4-0x222c.4 (0.1)
0x2220|                                    06         |            .   |        execinstr: true 0x222c.5-0x222c.5 (0.1)
0x2220|                                    06         |            .   |        alloc: true 0x222c.6-0x222c.6 (0.1)
0x2220|                                    06         |            .   |        write: false 0x222c.7-0x222c.7 (0.1)
0x2220|                                       00      |             .  |        tls: false 0x222d-0x222d (0.1)
0x2220|                                       00      |             .  |        group: false 0x222d.1-0x222d.1 (0.1)
0x2220|                                       00      |             .  |        os_nonconforming: false 0x222d.2-0x222d.2 (0.1)
0x2220|                                       00 00   |             .. |        unused1: 0 0x222d.3-0x222e.3 (1.1)
0x2220|                                          00 00|              ..|        os_specific: 0 0x222e.4-0x222f.3 (1)
0x2220|                                             00|               .|        processor_specific: 0 0x222f.4-0x222f.7 (0.4)
0x2230|08 06 00 00                                    |....            |      addr: 0x608 0x2230-0x2233.7 (4)
0x2230|            08 06 00 00                        |    ....        |      offset: 1544 0x2234-0x2237.7 (4)
0x2230|                        0c 00 00 00            |        ....    |      size: 0xc 0x2238-0x223b.7 (4)
0x2230|                                    00 00 00 00|            ....|      link: 0 0x223c-0x223f.7 (4)
0x2240|00 00 00 00                                    |....            |      info: 0 0x2240-0x2243.7 (4)
0x2240|            04 00 00 00                        |    ....        |      addralign: 4 0x2244-0x2247.7 (4)
0x2240|                        00 00 00 00            |        ....    |      entsize: 0 0x2248-0x224b.7 (4)
      |                                               |                |    [11]{}: section_header 0x614-0x2273.7 (7264)
0x0610|            3b 00 00 00 3e 00 00 00 0b 00 00 00|    ;...>.......|      data: raw bits 0x614-0x737.7 (292)
0x0620|3e 00 00 00 10 00 00 00 3e 00 00 00 25 00 00 00|>.......>...%...|
*     |until 0x737.7 (292)                            |                |
0x2240|                                    61 00 00 00|            a...|      name: ".rodata" (97) 0x224c-0x224f.7 (4)
0x2250|01 00 00 00                                    |....            |      type: "progbits" (0x1) (Information defined by the program) 0x2250-0x2253.7 (4)
      |                                               |                |      flags{}: 0x2254-0x2257.7 (4)
0x2250|            02                                 |    .           |        link_order: false 0x2254-0x2254 (0.1)
0x2250|            02                                 |    .           |        info_link: false 0x2254.1-0x2254.1 (0.1)
0x2250|            02                                 |    .           |        strings: false 0x2254.2-0x2254.2 (0.1)
0x2250|            02                                 |    .           |        merge: false 0x2254.3-0x2254.3 (0.1)
0x2250|            02                                 |    .           |        unused0: 0 0x2254.4-0x2254.4 (0.1)
0x2250|            02                                 |    .           |        execinstr: false 0x2254.5-0x2254.5 (0.1)
0x2250|            02                                 |    .           |        alloc: true 0x2254.6-0x2254.6 (0.1)
0x2250|            02                                 |    .           |        write: false 0x2254.7-0x2254.7 (0.1)
0x2250|               00                              |     .          |        tls: false 0x2255-0x2255 (0.1)
0x2250|               00                              |     .          |        group: false 0x2255.1-0x2255.1 (0.1)
0x2250|               00                              |     .          |        os_nonconforming: false 0x2255.2-0x2255.2 (0.1)
0x2250|               00 00                           |     ..         |        unused1: 0 0x2255.3-0x2256.3 (1.1)
0x2250|                  00 00                        |      ..        |        os_specific: 0 0x2256.4-0x2257.3 (1)
0x2250|                     00                        |       .        |        processor_specific: 0 0x2257.4-0x2257.7 (0.4)
0x2250|                        14 06 00 00            |        ....    |      addr: 0x614 0x2258-0x225b.7 (4)
0x2250|                                    14 06 00 00|            ....|      offset: 1556 0x225c-0x225f.7 (4)
0x2260|24 01 00 00                                    |$...            |      size: 0x124 0x2260-0x2263.7 (4)
0x2260|            00 00 00 00                        |    ....        |      link: 0 0x2264-0x2267.7 (4)
0x2260|                        00 00 00 00            |        ....    |      info: 0 0x2268-0x226b.7 (4)
0x2260|                                    04 00 00 00|            ....|      addralign: 4 0x226c-0x226f.7 (4)
0x2270|00 00 00 00                                    |....            |      entsize: 0 0x2270-0x2273.7 (4)
      |                                               |                |    [12]{}: section_header 0x738-0x229b.7 (7012)
0x0730|                        00 00 00 00            |        ....    |      data: raw bits 0x738-0x73b.7 (4)
0x2270|            69 00 00 00                        |    i...        |      name: ".eh_frame" (105) 0x2274-0x2277.7 (4)
0x2270|                        01 00 00 00            |        ....    |      type: "progbits" (0x1) (Information defined by the program) 0x2278-0x227b.7 (4)
      |                                               |                |      flags{}: 0x227c-0x227f.7 (4)
0x2270|                                    02         |            .   |        link_order: false 0x227c-0x227c (0.1)
0x2270|                                    02         |            .   |        info_link: false 0x227c.1-0x227c.1 (0.1)
0x2270|                                    02         |            .   |        strings: false 0x227c.2-0x227c.2 (0.1)
0x2270|                                    02         |            .   |        merge: false 0x227c.3-0x227c.3 (0.1)
0x2270|                                    02         |            .   |        unused0: 0 0x227c.4-0x227c.4 (0.1)
0x2270|                                    02         |            .   |        execinstr: false 0x227c.5-0x227c.5 (0.1)
0x2270|                                    02         |            .   |        alloc: true 0x227c.6-0x227c.6 (0.1)
0x2270|                                    02         |            .   |        write: false 0x227c.7-0x227c.7 (0.1)
0x2270|                                       00      |             .  |        tls: false 0x227d-0x227d (0.1)
0x2270|                                       00      |             .  |        group: false 0x227d.1-0x227d.1 (0.1)
0x2270|                                       00      |             .  |        os_nonconforming: false 0x227d.2-0x227d.2 (0.1)
0x2270|                                       00 00   |             .. |        unused1: 0 0x227d.3-0x227e.3 (1.1)
0x2270|                                          00 00|              ..|        os_specific: 0 0x227e.4-0x227f.3 (1)
0x2270|                                             00|               .|        processor_specific: 0 0x227f.4-0x227f.7 (0.4)
0x2280|38 07 00 00                                    |8...            |      addr: 0x738 0x2280-0x2283.7 (4)
0x2280|            38 07 00 00                        |    8...        |      offset: 1848 0x2284-0x2287.7 (4)
0x2280|                        04 00 00 00            |        ....    |      size: 0x4 0x2288-0x228b.7 (4)
0x2280|                                    00 00 00 00|            ....|      link: 0 0x228c-0x228f.7 (4)
0x2290|00 00 00 00                                    |....            |      info: 0 0x2290-0x2293.7 (4)
0x2290|            04 00 00 00                        |    ....        |      addralign: 4 0x2294-0x2297.7 (4)
0x2290|                        00 00 00 00            |        ....    |      entsize: 0 0x2298-0x229b.7 (4)
      |                                               |                |    [13]{}: section_header 0xecc-0x22c3.7 (5112)
0x0ec0|                                    7c 05 00 00|            |...|      data: raw bits 0xecc-0xecf.7 (4)
0x2290|                                    73 00 00 00|            s...|      name: ".init_array" (115) 0x229c-0x229f.7 (4)
0x22a0|0e 00 00 00                                    |....            |      type: "init_array" (0xe) (Initialization functions) 0x22a0-0x22a3.7 (4)
      |                                               |                |      flags{}: 0x22a4-0x22a7.7 (4)
0x22a0|            03                                 |    .           |        link_order: false 0x22a4-0x22a4 (0.1)
0x22a0|            03                                 |    .           |        info_link: false 0x22a4.1-0x22a4.1 (0.1)
0x22a0|            03                                 |    .           |        strings: false 0x22a4.2-0x22a4.2 (0.1)
0x22a0|            03                                 |    .           |        merge: false 0x22a4.3-0x22a4.3 (0.1)
0x22a0|            03                                 |    .           |        unused0: 0 0x22a4.4-0x22a4.4 (0.1)
0x22a0|            03                                 |    .           |        execinstr: false 0x22a4.5-0x22a4.5 (0.1)
0x22a0|            03                                 |    .           |        alloc: true 0x22a4.6-0x22a4.6 (0.1)
0x22a0|            03                                 |    .           |        write: true 0x22a4.7-0x22a4.7 (0.1)
0x22a0|               00                              |     .          |        tls: false 0x22a5-0x22a5 (0.1)
0x22a0|               00                              |     .          |        group: false 0x22a5.1-0x22a5.1 (0.1)
0x22a0|               00                              |     .          |        os_nonconforming: false 0x22a5.2-0x22a5.2 (0.1)
0x22a0|               00 00                           |     ..         |        unused1: 0 0x22a5.3-0x22a6.3 (1.1)
0x22a0|                  00 00                        |      ..        |        os_specific: 0 0x22a6.4-0x22a7.3 (1)
0x22a0|                     00                        |       .        |        processor_specific: 0 0x22a7.4-0x22a7.7 (0.4)
0x22a0|                        cc 0e 01 00            |        ....    |      addr: 0x10ecc 0x22a8-0x22ab.7 (4)
0x22a0|                                    cc 0e 00 00|            ....|      offset: 3788 0x22ac-0x22af.7 (4)
0x22b0|04 00 00 00                                    |....            |      size: 0x4 0x22b0-0x22b3.7 (4)
0x22b0|            00 00 00 00                        |    ....        |      link: 0 0x22b4-0x22b7.7 (4)
0x22b0|                        00 00 00 00            |        ....    |      info: 0 0x22b8-0x22bb.7 (4)
0x22b0|                                    04 00 00 00|            ....|      addralign: 4 0x22bc-0x22bf.7 (4)
0x22c0|04 00 00 00                                    |....            |      entsize: 4 0x22c0-0x22c3.7 (4)
      |                                               |                |    [14]{}: section_header 0xed0-0x22eb.7 (5148)
0x0ed0|f0 04 00 00                                    |....            |      data: raw bits 0xed0-0xed3.7 (4)
0x22c0|            7f 00 00 00                        |    ....        |      name: ".fini_array" (127) 0x22c4-0x22c7.7 (4)
0x22c0|                        0f 00 00 00            |        ....    |      type: "fini_array" (0xf) (Termination functions) 0x22c8-0x22cb.7 (4)
      |                                               |                |      flags{}: 0x22cc-0x22cf.7 (4)
0x22c0|                                    03         |            .   |        link_order: false 0x22cc-0x22cc (0.1)
0x22c0|                                    03         |            .   |        info_link: false 0x22cc.1-0x22cc.1 (0.1)
0x22c0|                                    03         |            .   |        strings: false 0x22cc.2-0x22cc.2 (0.1)
0x22c0|                                    03         |            .   |        merge: false 0x22cc.3-0x22cc.3 (0.1)
0x22c0|                                    03         |            .   |        unused0: 0 0x22cc.4-0x22cc.4 (0.1)
0x22c0|                                    03         |            .   |        execinstr: false 0x22cc.5-0x22cc.5 (0.1)
0x22c0|                                    03         |            .   |        alloc: true 0x22cc.6-0x22cc.6 (0.1)
0x22c0|                                    03         |            .   |        write: true 0x22cc.7-0x22cc.7 (0.1)
0x22c0|                                       00      |             .  |        tls: false 0x22cd-0x22cd (0.1)
0x22c0|                                       00      |             .  |        group: false 0x22cd.1-0x22cd.1 (0.1)
0x22c0|                                       00      |             .  |        os_nonconforming: false 0x22cd.2-0x22cd.2 (0.1)
0x22c0|                                       00 00   |             .. |        unused1: 0 0x22cd.3-0x22ce.3 (1.1)
0x22c0|                                          00 00|              ..|        os_specific: 0 0x22ce.4-0x22cf.3 (1)
0x22c0|                                             00|               .|        processor_specific: 0 0x22cf.4-0x22cf.7 (0.4)
0x22d0|d0 0e 01 00                                    |....            |      addr: 0x10ed0 0x22d0-0x22d3.7 (4)
0x22d0|            d0 0e 00 00                        |    ....        |      offset: 3792 0x22d4-0x22d7.7 (4)
0x22d0|                        04 00 00 00            |        ....    |      size: 0x4 0x22d8-0x22db.7 (4)
0x22d0|                                    00 00 00 00|            ....|      link: 0 0x22dc-0x22df.7 (4)
0x22e0|00 00 00 00                                    |....            |      info: 0 0x22e0-0x22e3.7 (4)
0x22e0|            04 00 00 00                        |    ....        |      addralign: 4 0x22e4-0x22e7.7 (4)
0x22e0|                        04 00 00 00            |        ....    |      entsize: 4 0x22e8-0x22eb.7 (4)
      |                                               |                |    [15]{}: section_header 0xed4-0x2313.7 (5184)
      |                                               |                |      dynamic_tags[0:25]: 0xed4-0xf9b.7 (200)
      |                                               |                |        [0]{}: dynamic_tags 0xed4-0xedb.7 (8)
0x0ed0|            01 00 00 00                        |    ....        |          tag: "needed" (1) (String table offset to name of a needed library) 0xed4-0xed7.7 (4)
0x0ed0|                        a2 00 00 00            |        ....    |          val: "libbbb.so" (162) 0xed8-0xedb.7 (4)
      |                                               |                |        [1]{}: dynamic_tags 0xedc-0xee3.7 (8)
0x0ed0|                                    01 00 00 00|            ....|          tag: "needed" (1) (String table offset to name of a needed library) 0xedc-0xedf.7 (4)
0x0ee0|ac 00 00 00                                    |....            |          val: "libc.musl-armhf.so.1" (172) 0xee0-0xee3.7 (4)
      |                                               |                |        [2]{}: dynamic_tags 0xee4-0xeeb.7 (8)
0x0ee0|            0c 00 00 00                        |    ....        |          tag: "init" (12) (Address of the initialization function) 0xee4-0xee7.7 (4)
0x0ee0|                        6c 03 00 00            |        l...    |          ptr: 0x36c 0xee8-0xeeb.7 (4)
      |                                               |                |          section_index: 7 0xeec-NA (0)
      |                                               |                |        [3]{}: dynamic_tags 0xeec-0xef3.7 (8)
0x0ee0|                                    0d 00 00 00|            ....|          tag: "fini" (13) (Address of the termination function) 0xeec-0xeef.7 (4)
0x0ef0|08 06 00 00                                    |....            |          ptr: 0x608 0xef0-0xef3.7 (4)
      |                                               |                |          section_index: 10 0xef4-NA (0)
      |                                               |                |        [4]{}: dynamic_tags 0xef4-0xefb.7 (8)
0x0ef0|            19 00 00 00                        |    ....        |          tag: "init_array" (25) (Address of the array of pointers to initialization functions) 0xef4-0xef7.7 (4)
0x0ef0|                        cc 0e 01 00            |        ....    |          ptr: 0x10ecc 0xef8-0xefb.7 (4)
      |                                               |                |        [5]{}: dynamic_tags 0xefc-0xf03.7 (8)
0x0ef0|                                    1b 00 00 00|            ....|          tag: "init_arraysz" (27) (Size in bytes of the array of initialization functions) 0xefc-0xeff.7 (4)
0x0f00|04 00 00 00                                    |....            |          val: 4 0xf00-0xf03.7 (4)
      |                                               |                |        [6]{}: dynamic_tags 0xf04-0xf0b.7 (8)
0x0f00|            1a 00 00 00                        |    ....        |          tag: "fini_array" (26) (Address of the array of pointers to termination functions) 0xf04-0xf07.7 (4)
0x0f00|                        d0 0e 01 00            |        ....    |          ptr: 0x10ed0 0xf08-0xf0b.7 (4)
      |                                               |                |        [7]{}: dynamic_tags 0xf0c-0xf13.7 (8)
0x0f00|                                    1c 00 00 00|            ....|          tag: "fini_arraysz" (28) (Size in bytes of the array of termination functions ) 0xf0c-0xf0f.7 (4)
0x0f10|04 00 00 00                                    |....            |          val: 4 0xf10-0xf13.7 (4)
      |                                               |                |        [8]{}: dynamic_tags 0xf14-0xf1b.7 (8)
0x0f10|            f5 fe ff 6f                        |    ...o        |          tag: 1879047925 0xf14-0xf17.7 (4)
0x0f10|                        2c 01 00 00            |        ,...    |          unspecified: 0x12c 0xf18-0xf1b.7 (4)
      |                                               |                |        [9]{}: dynamic_tags 0xf1c-0xf23.7 (8)
0x0f10|                                    05 00 00 00|            ....|          tag: "strtab" (5) (Address of string table) 0xf1c-0xf1f.7 (4)
0x0f20|20 02 00 00                                    | ...            |          ptr: 0x220 0xf20-0xf23.7 (4)
      |                                               |                |          section_index: 4 0xf24-NA (0)
      |                                               |                |        [10]{}: dynamic_tags 0xf24-0xf2b.7 (8)
0x0f20|            06 00 00 00                        |    ....        |          tag: "symtab" (6) (Address of symbol table) 0xf24-0xf27.7 (4)
0x0f20|                        50 01 00 00            |        P...    |          ptr: 0x150 0xf28-0xf2b.7 (4)
      |                                               |                |          section_index: 3 0xf2c-NA (0)
      |                                               |                |        [11]{}: dynamic_tags 0xf2c-0xf33.7 (8)
0x0f20|                                    0a 00 00 00|            ....|          tag: "strsz" (10) (Size in bytes of string table) 0xf2c-0xf2f.7 (4)
0x0f30|c1 00 00 00                                    |....            |          val: 193 0xf30-0xf33.7 (4)
      |                                               |                |        [12]{}: dynamic_tags 0xf34-0xf3b.7 (8)
0x0f30|            0b 00 00 00                        |    ....        |          tag: "syment" (11) (Size in bytes of a symbol table entry) 0xf34-0xf37.7 (4)
0x0f30|                        10 00 00 00            |        ....    |          val: 16 0xf38-0xf3b.7 (4)
      |                                               |                |        [13]{}: dynamic_tags 0xf3c-0xf43.7 (8)
0x0f30|                                    15 00 00 00|            ....|          tag: "debug" (21) (Undefined use for debugging) 0xf3c-0xf3f.7 (4)
0x0f40|00 00 00 00                                    |....            |          ptr: 0x0 0xf40-0xf43.7 (4)
      |                                               |                |        [14]{}: dynamic_tags 0xf44-0xf4b.7 (8)
0x0f40|            03 00 00 00                        |    ....        |          tag: "pltgot" (3) (Address of PLT and/or GOT) 0xf44-0xf47.7 (4)
0x0f40|                        bc 0f 01 00            |        ....    |          ptr: 0x10fbc 0xf48-0xf4b.7 (4)
      |                                               |                |          section_index: 16 0xf4c-NA (0)
      |                                               |                |        [15]{}: dynamic_tags 0xf4c-0xf53.7 (8)
0x0f40|                                    02 00 00 00|            ....|          tag: "pltrelsz" (2) (Size in bytes of PLT relocation entries) 0xf4c-0xf4f.7 (4)
0x0f50|30 00 00 00                                    |0...            |          val: 48 0xf50-0xf53.7 (4)
      |                                               |                |        [16]{}: dynamic_tags 0xf54-0xf5b.7 (8)
0x0f50|            14 00 00 00                        |    ....        |          tag: "pltrel" (20) (Type of relocation entry to which the PLT refers (Rela or Rel)) 0xf54-0xf57.7 (4)
0x0f50|                        11 00 00 00            |        ....    |          val: 17 0xf58-0xf5b.7 (4)
      |                                               |                |        [17]{}: dynamic_tags 0xf5c-0xf63.7 (8)
0x0f50|                                    17 00 00 00|            ....|          tag: "jmprel" (23) (Address of relocation entries associated solely with the PLT) 0xf5c-0xf5f.7 (4)
0x0f60|3c 03 00 00                                    |<...            |          ptr: 0x33c 0xf60-0xf63.7 (4)
      |                                               |                |          section_index: 6 0xf64-NA (0)
      |                                               |                |        [18]{}: dynamic_tags 0xf64-0xf6b.7 (8)
0x0f60|            11 00 00 00                        |    ....        |          tag: "rel" (17) 0xf64-0xf67.7 (4)
0x0f60|                        e4 02 00 00            |        ....    |          ptr: 0x2e4 0xf68-0xf6b.7 (4)
      |                                               |                |        [19]{}: dynamic_tags 0xf6c-0xf73.7 (8)
0x0f60|                                    12 00 00 00|            ....|          tag: "relsz" (18) (Size in bytes of Rel relocation table) 0xf6c-0xf6f.7 (4)
0x0f70|58 00 00 00                                    |X...            |          val: 88 0xf70-0xf73.7 (4)
      |                                               |                |        [20]{}: dynamic_tags 0xf74-0xf7b.7 (8)
0x0f70|            13 00 00 00                        |    ....        |          tag: "relent" (19) (Size in bytes of a Rel table entry) 0xf74-0xf77.7 (4)
0x0f70|                        08 00 00 00            |        ....    |          val: 8 0xf78-0xf7b.7 (4)
      |                                               |                |        [21]{}: dynamic_tags 0xf7c-0xf83.7 (8)
0x0f70|                                    18 00 00 00|            ....|          tag: "bind_now" (24) (Instruct dynamic linker to process all relocations before transferring control to the executable) 0xf7c-0xf7f.7 (4)
0x0f80|00 00 00 00                                    |....            |          ignored: 0x0 0xf80-0xf83.7 (4)
      |                                               |                |        [22]{}: dynamic_tags 0xf84-0xf8b.7 (8)
0x0f80|            fb ff ff 6f                        |    ...o        |          tag: 1879048187 0xf84-0xf87.7 (4)
0x0f80|                        01 00 00 08            |        ....    |          unspecified: 0x8000001 0xf88-0xf8b.7 (4)
      |                                               |                |        [23]{}: dynamic_tags 0xf8c-0xf93.7 (8)
0x0f80|                                    fa ff ff 6f|            ...o|          tag: 1879048186 0xf8c-0xf8f.7 (4)
0x0f90|06 00 00 00                                    |....            |          unspecified: 0x6 0xf90-0xf93.7 (4)
      |                                               |                |        [24]{}: dynamic_tags 0xf94-0xf9b.7 (8)
0x0f90|            00 00 00 00                        |    ....        |          tag: "null" (0) (Marks end of dynamic section) 0xf94-0xf97.7 (4)
0x0f90|                        00 00 00 00            |        ....    |          ignored: 0x0 0xf98-0xf9b.7 (4)
0x22e0|                                    8b 00 00 00|            ....|      name: ".dynamic" (139) 0x22ec-0x22ef.7 (4)
0x22f0|06 00 00 00                                    |....            |      type: "dynamic" (0x6) (Information for dynamic linking) 0x22f0-0x22f3.7 (4)
      |                                               |                |      flags{}: 0x22f4-0x22f7.7 (4)
0x22f0|            03                                 |    .           |        link_order: false 0x22f4-0x22f4 (0.1)
0x22f0|            03                                 |    .           |        info_link: false 0x22f4.1-0x22f4.1 (0.1)
0x22f0|            03                                 |    .           |        strings: false 0x22f4.2-0x22f4.2 (0.1)
0x22f0|            03                                 |    .           |        merge: false 0x22f4.3-0x22f4.3 (0.1)
0x22f0|            03                                 |    .           |        unused0: 0 0x22f4.4-0x22f4.4 (0.1)
0x22f0|            03                                 |    .           |        execinstr: false 0x22f4.5-0x22f4.5 (0.1)
0x22f0|            03                                 |    .           |        alloc: true 0x22f4.6-0x22f4.6 (0.1)
0x22f0|            03                                 |    .           |        write: true 0x22f4.7-0x22f4.7 (0.1)
0x22f0|               00                              |     .          |        tls: false 0x22f5-0x22f5 (0.1)
0x22f0|               00                              |     .          |        group: false 0x22f5.1-0x22f5.1 (0.1)
0x22f0|               00                              |     .          |        os_nonconforming: false 0x22f5.2-0x22f5.2 (0.1)
0x22f0|               00 00                           |     ..         |        unused1: 0 0x22f5.3-0x22f6.3 (1.1)
0x22f0|                  00 00                        |      ..        |        os_specific: 0 0x22f6.4-0x22f7.3 (1)
0x22f0|                     00                        |       .        |        processor_specific: 0 0x22f7.4-0x22f7.7 (0.4)
0x22f0|                        d4 0e 01 00            |        ....    |      addr: 0x10ed4 0x22f8-0x22fb.7 (4)
0x22f0|                                    d4 0e 00 00|            ....|      offset: 3796 0x22fc-0x22ff.7 (4)
0x2300|e8 00 00 00                                    |....            |      size: 0xe8 0x2300-0x2303.7 (4)
0x2300|            04 00 00 00                        |    ....        |      link: 4 0x2304-0x2307.7 (4)
0x2300|                        00 00 00 00            |        ....    |      info: 0 0x2308-0x230b.7 (4)
0x2300|                                    04 00 00 00|            ....|      addralign: 4 0x230c-0x230f.7 (4)
0x2310|08 00 00 00                                    |....            |      entsize: 8 0x2310-0x2313.7 (4)
      |                                               |                |    [16]{}: section_header 0xfbc-0x233b.7 (4992)
0x0fb0|                                    d4 0e 01 00|            ....|      data: raw bits 0xfbc-0xfff.7 (68)
0x0fc0|00 00 00 00 00 00 00 00 78 03 00 00 78 03 00 00|........x...x...|
*     |until 0xfff.7 (68)                             |                |
0x2310|            94 00 00 00                        |    ....        |      name: ".got" (148) 0x2314-0x2317.7 (4)
0x2310|                        01 00 00 00            |        ....    |      type: "progbits" (0x1) (Information defined by the program) 0x2318-0x231b.7 (4)
      |                                               |                |      flags{}: 0x231c-0x231f.7 (4)
0x2310|                                    03         |            .   |        link_order: false 0x231c-0x231c (0.1)
0x2310|                                    03         |            .   |        info_link: false 0x231c.1-0x231c.1 (0.1)
0x2310|                                    03         |            .   |        strings: false 0x231c.2-0x231c.2 (0.1)
0x2310|                                    03         |            .   |        merge: false 0x231c.3-0x231c.3 (0.1)
0x2310|                                    03         |            .   |        unused0: 0 0x231c.4-0x231c.4 (0.1)
0x2310|                                    03         |            .   |        execinstr: false 0x231c.5-0x231c.5 (0.1)
0x2310|                                    03         |            .   |        alloc: true 0x231c.6-0x231c.6 (0.1)
0x2310|                                    03         |            .   |        write: true 0x231c.7-0x231c.7 (0.1)
0x2310|                                       00      |             .  |        tls: false 0x231d-0x231d (0.1)
0x2310|                                       00      |             .  |        group: false 0x231d.1-0x231d.1 (0.1)
0x2310|                                       00      |             .  |        os_nonconforming: false 0x231d.2-0x231d.2 (0.1)
0x2310|                                       00 00   |             .. |        unused1: 0 0x231d.3-0x231e.3 (1.1)
0x2310|                                          00 00|              ..|        os_specific: 0 0x231e.4-0x231f.3 (1)
0x2310|                                             00|               .|        processor_specific: 0 0x231f.4-0x231f.7 (0.4)
0x2320|bc 0f 01 00                                    |....            |      addr: 0x10fbc 0x2320-0x2323.7 (4)
0x2320|            bc 0f 00 00                        |    ....        |      offset: 4028 0x2324-0x2327.7 (4)
0x2320|                        44 00 00 00            |        D...    |      size: 0x44 0x2328-0x232b.7 (4)
0x2320|                                    00 00 00 00|            ....|      link: 0 0x232c-0x232f.7 (4)
0x2330|00 00 00 00                                    |....            |      info: 0 0x2330-0x2333.7 (4)
0x2330|            04 00 00 00                        |    ....        |      addralign: 4 0x2334-0x2337.7 (4)
0x2330|                        04 00 00 00            |        ....    |      entsize: 4 0x2338-0x233b.7 (4)
      |                                               |                |    [17]{}: section_header 0x1000-0x2363.7 (4964)
0x1000|00 10 01 00                                    |....            |      data: raw bits 0x1000-0x1003.7 (4)
0x2330|                                    99 00 00 00|            ....|      name: ".data" (153) 0x233c-0x233f.7 (4)
0x2340|01 00 00 00                                    |....            |      type: "progbits" (0x1) (Information defined by the program) 0x2340-0x2343.7 (4)
      |                                               |                |      flags{}: 0x2344-0x2347.7 (4)
0x2340|            03                                 |    .           |        link_order: false 0x2344-0x2344 (0.1)
0x2340|            03                                 |    .           |        info_link: false 0x2344.1-0x2344.1 (0.1)
0x2340|            03                                 |    .           |        strings: false 0x2344.2-0x2344.2 (0.1)
0x2340|            03                                 |    .           |        merge: false 0x2344.3-0x2344.3 (0.1)
0x2340|            03                                 |    .           |        unused0: 0 0x2344.4-0x2344.4 (0.1)
0x2340|            03                                 |    .           |        execinstr: false 0x2344.5-0x2344.5 (0.1)
0x2340|            03                                 |    .           |        alloc: true 0x2344.6-0x2344.6 (0.1)
0x2340|            03                                 |    .           |        write: true 0x2344.7-0x2344.7 (0.1)
0x2340|               00                              |     .          |        tls: false 0x2345-0x2345 (0.1)
0x2340|               00                              |     .          |        group: false 0x2345.1-0x2345.1 (0.1)
0x2340|               00                              |     .          |        os_nonconforming: false 0x2345.2-0x2345.2 (0.1)
0x2340|               00 00                           |     ..         |        unused1: 0 0x2345.3-0x2346.3 (1.1)
0x2340|                  00 00                        |      ..        |        os_specific: 0 0x2346.4-0x2347.3 (1)
0x2340|                     00                        |       .        |        processor_specific: 0 0x2347.4-0x2347.7 (0.4)
0x2340|                        00 10 01 00            |        ....    |      addr: 0x11000 0x2348-0x234b.7 (4)
0x2340|                                    00 10 00 00|            ....|      offset: 4096 0x234c-0x234f.7 (4)
0x2350|04 00 00 00                                    |....            |      size: 0x4 0x2350-0x2353.7 (4)
0x2350|            00 00 00 00                        |    ....        |      link: 0 0x2354-0x2357.7 (4)
0x2350|                        00 00 00 00            |        ....    |      info: 0 0x2358-0x235b.7 (4)
0x2350|                                    04 00 00 00|            ....|      addralign: 4 0x235c-0x235f.7 (4)
0x2360|00 00 00 00                                    |....            |      entsize: 0 0x2360-0x2363.7 (4)
      |                                               |                |    [18]{}: section_header 0x2364-0x238b.7 (40)
0x2360|            9f 00 00 00                        |    ....        |      name: ".bss" (159) 0x2364-0x2367.7 (4)
0x2360|                        08 00 00 00            |        ....    |      type: "nobits" (0x8) (No space in the file) 0x2368-0x236b.7 (4)
      |                                               |                |      flags{}: 0x236c-0x236f.7 (4)
0x2360|                                    03         |            .   |        link_order: false 0x236c-0x236c (0.1)
0x2360|                                    03         |            .   |        info_link: false 0x236c.1-0x236c.1 (0.1)
0x2360|                                    03         |            .   |        strings: false 0x236c.2-0x236c.2 (0.1)
0x2360|                                    03         |            .   |        merge: false 0x236c.3-0x236c.3 (0.1)
0x2360|                                    03         |            .   |        unused0: 0 0x236c.4-0x236c.4 (0.1)
0x2360|                                    03         |            .   |        execinstr: false 0x236c.5-0x236c.5 (0.1)
0x2360|                                    03         |            .   |        alloc: true 0x236c.6-0x236c.6 (0.1)
0x2360|                                    03         |            .   |        write: true 0x236c.7-0x236c.7 (0.1)
0x2360|                                       00      |             .  |        tls: false 0x236d-0x236d (0.1)
0x2360|                                       00      |             .  |        group: false 0x236d.1-0x236d.1 (0.1)
0x2360|                                       00      |             .  |        os_nonconforming: false 0x236d.2-0x236d.2 (0.1)
0x2360|                                       00 00   |             .. |        unused1: 0 0x236d.3-0x236e.3 (1.1)
0x2360|                                          00 00|              ..|        os_specific: 0 0x236e.4-0x236f.3 (1)
0x2360|                                             00|               .|        processor_specific: 0 0x236f.4-0x236f.7 (0.4)
0x2370|04 10 01 00                                    |....            |      addr: 0x11004 0x2370-0x2373.7 (4)
0x2370|            04 10 00 00                        |    ....        |      offset: 4100 0x2374-0x2377.7 (4)
0x2370|                        1c 00 00 00            |        ....    |      size: 0x1c 0x2378-0x237b.7 (4)
0x2370|                                    00 00 00 00|            ....|      link: 0 0x237c-0x237f.7 (4)
0x2380|00 00 00 00                                    |....            |      info: 0 0x2380-0x2383.7 (4)
0x2380|            04 00 00 00                        |    ....        |      addralign: 4 0x2384-0x2387.7 (4)
0x2380|                        00 00 00 00            |        ....    |      entsize: 0 0x2388-0x238b.7 (4)
      |                                               |                |    [19]{}: section_header 0x1004-0x23b3.7 (5040)
0x1000|            47 43 43 3a 20 28 41 6c 70 69 6e 65|    GCC: (Alpine|      data: raw bits 0x1004-0x1065.7 (98)
0x1010|20 31 30 2e 33 2e 31 5f 67 69 74 32 30 32 31 30| 10.3.1_git20210|
*     |until 0x1065.7 (98)                            |                |
0x2380|                                    a4 00 00 00|            ....|      name: ".comment" (164) 0x238c-0x238f.7 (4)
0x2390|01 00 00 00                                    |....            |      type: "progbits" (0x1) (Information defined by the program) 0x2390-0x2393.7 (4)
      |                                               |                |      flags{}: 0x2394-0x2397.7 (4)
0x2390|            30                                 |    0           |        link_order: false 0x2394-0x2394 (0.1)
0x2390|            30                                 |    0           |        info_link: false 0x2394.1-0x2394.1 (0.1)
0x2390|            30                                 |    0           |        strings: true 0x2394.2-0x2394.2 (0.1)
0x2390|            30                                 |    0           |        merge: true 0x2394.3-0x2394.3 (0.1)
0x2390|            30                                 |    0           |        unused0: 0 0x2394.4-0x2394.4 (0.1)
0x2390|            30                                 |    0           |        execinstr: false 0x2394.5-0x2394.5 (0.1)
0x2390|            30                                 |    0           |        alloc: false 0x2394.6-0x2394.6 (0.1)
0x2390|            30                                 |    0           |        write: false 0x2394.7-0x2394.7 (0.1)
0x2390|               00                              |     .          |        tls: false 0x2395-0x2395 (0.1)
0x2390|               00                              |     .          |        group: false 0x2395.1-0x2395.1 (0.1)
0x2390|               00                              |     .          |        os_nonconforming: false 0x2395.2-0x2395.2 (0.1)
0x2390|               00 00                           |     ..         |        unused1: 0 0x2395.3-0x2396.3 (1.1)
0x2390|                  00 00                        |      ..        |        os_specific: 0 0x2396.4-0x2397.3 (1)
0x2390|                     00                        |       .        |        processor_specific: 0 0x2397.4-0x2397.7 (0.4)
0x2390|                        00 00 00 00            |        ....    |      addr: 0x0 0x2398-0x239b.7 (4)
0x2390|                                    04 10 00 00|            ....|      offset: 4100 0x239c-0x239f.7 (4)
0x23a0|62 00 00 00                                    |b...            |      size: 0x62 0x23a0-0x23a3.7 (4)
0x23a0|            00 00 00 00                        |    ....        |      link: 0 0x23a4-0x23a7.7 (4)
0x23a0|                        00 00 00 00            |        ....    |      info: 0 0x23a8-0x23ab.7 (4)
0x23a0|                                    01 00 00 00|            ....|      addralign: 1 0x23ac-0x23af.7 (4)
0x23b0|01 00 00 00                                    |....            |      entsize: 1 0x23b0-0x23b3.7 (4)
      |                                               |                |    [20]{}: section_header 0x1066-0x23db.7 (4982)
0x1060|                  41 32 00 00 00 61 65 61 62 69|      A2...aeabi|      data: raw bits 0x1066-0x1098.7 (51)
0x1070|00 01 28 00 00 00 05 36 5a 4b 00 06 07 08 01 09|..(....6ZK......|
*     |until 0x1098.7 (51)                            |                |
0x23b0|            ad 00 00 00                        |    ....        |      name: ".ARM.attributes" (173) 0x23b4-0x23b7.7 (4)
0x23b0|                        03 00 00 70            |        ...p    |      type: 0x70000003 0x23b8-0x23bb.7 (4)
      |                                               |                |      flags{}: 0x23bc-0x23bf.7 (4)
0x23b0|                                    00         |            .   |        link_order: false 0x23bc-0x23bc (0.1)
0x23b0|                                    00         |            .   |        info_link: false 0x23bc.1-0x23bc.1 (0.1)
0x23b0|                                    00         |            .   |        strings: false 0x23bc.2-0x23bc.2 (0.1)
0x23b0|                                    00         |            .   |        merge: false 0x23bc.3-0x23bc.3 (0.1)
0x23b0|                                    00         |            .   |        unused0: 0 0x23bc.4-0x23bc.4 (0.1)
0x23b0|                                    00         |            .   |        execinstr: false 0x23bc.5-0x23bc.5 (0.1)
0x23b0|                                    00         |            .   |        alloc: false 0x23bc.6-0x23bc.6 (0.1)
0x23b0|                                    00         |            .   |        write: false 0x23bc.7-0x23bc.7 (0.1)
0x23b0|                                       00      |             .  |        tls: false 0x23bd-0x23bd (0.1)
0x23b0|                                       00      |             .  |        group: false 0x23bd.1-0x23bd.1 (0.1)
0x23b0|                                       00      |             .  |        os_nonconforming: false 0x23bd.2-0x23bd.2 (0.1)
0x23b0|                                       00 00   |             .. |        unused1: 0 0x23bd.3-0x23be.3 (1.1)
0x23b0|                                          00 00|              ..|        os_specific: 0 0x23be.4-0x23bf.3 (1)
0x23b0|                                             00|               .|        processor_specific: 0 0x23bf.4-0x23bf.7 (0.4)
0x23c0|00 00 00 00                                    |....            |      addr: 0x0 0x23c0-0x23c3.7 (4)
0x23c0|            66 10 00 00                        |    f...        |      offset: 4198 0x23c4-0x23c7.7 (4)
0x23c0|                        33 00 00 00            |        3...    |      size: 0x33 0x23c8-0x23cb.7 (4)
0x23c0|                                    00 00 00 00|            ....|      link: 0 0x23cc-0x23cf.7 (4)
0x23d0|00 00 00 00                                    |....            |      info: 0 0x23d0-0x23d3.7 (4)
0x23d0|            01 00 00 00                        |    ....        |      addralign: 1 0x23d4-0x23d7.7 (4)
0x23d0|                        00 00 00 00            |        ....    |      entsize: 0 0x23d8-0x23db.7 (4)
      |                                               |                |    [21]{}: section_header 0x10a0-0x2403.7 (4964)
0x10a0|1c 00 00 00 02 00 00 00 00 00 04 00 00 00 00 00|................|      data: raw bits 0x10a0-0x110f.7 (112)
*     |until 0x110f.7 (112)                           |                |
0x23d0|                                    bd 00 00 00|            ....|      name: ".debug_aranges" (189) 0x23dc-0x23df.7 (4)
0x23e0|01 00 00 00                                    |....            |      type: "progbits" (0x1) (Information defined by the program) 0x23e0-0x23e3.7 (4)
      |                                               |                |      flags{}: 0x23e4-0x23e7.7 (4)
0x23e0|            00                                 |    .           |        link_order: false 0x23e4-0x23e4 (0.1)
0x23e0|            00                                 |    .           |        info_link: false 0x23e4.1-0x23e4.1 (0.1)
0x23e0|            00                                 |    .           |        strings: false 0x23e4.2-0x23e4.2 (0.1)
0x23e0|            00                                 |    .           |        merge: false 0x23e4.3-0x23e4.3 (0.1)
0x23e0|            00                                 |    .           |        unused0: 0 0x23e4.4-0x23e4.4 (0.1)
0x23e0|            00                                 |    .           |        execinstr: false 0x23e4.5-0x23e4.5 (0.1)
0x23e0|            00                                 |    .           |        alloc: false 0x23e4.6-0x23e4.6 (0.1)
0x23e0|            00                                 |    .           |        write: false 0x23e4.7-0x23e4.7 (0.1)
0x23e0|               00                              |     .          |        tls: false 0x23e5-0x23e5 (0.1)
0x23e0|               00                              |     .          |        group: false 0x23e5.1-0x23e5.1 (0.1)
0x23e0|               00                              |     .          |        os_nonconforming: false 0x23e5.2-0x23e5.2 (0.1)
0x23e0|               00 00                           |     ..         |        unused1: 0 0x23e5.3-0x23e6.3 (1.1)
0x23e0|                  00 00                        |      ..        |        os_specific: 0 0x23e6.4-0x23e7.3 (1)
0x23e0|                     00                        |       .        |        processor_specific: 0 0x23e7.4-0x23e7.7 (0.4)
0x23e0|                        00 00 00 00            |        ....    |      addr: 0x0 0x23e8-0x23eb.7 (4)
0x23e0|                                    a0 10 00 00|            ....|      offset: 4256 0x23ec-0x23ef.7 (4)
0x23f0|70 00 00 00                                    |p...            |      size: 0x70 0x23f0-0x23f3.7 (4)
0x23f0|            00 00 00 00                        |    ....        |      link: 0 0x23f4-0x23f7.7 (4)
0x23f0|                        00 00 00 00            |        ....    |      info: 0 0x23f8-0x23fb.7 (4)
0x23f0|                                    08 00 00 00|            ....|      addralign: 8 0x23fc-0x23ff.7 (4)
0x2400|00 00 00 00                                    |....            |      entsize: 0 0x2400-0x2403.7 (4)
      |                                               |                |    [22]{}: section_header 0x1110-0x242b.7 (4892)
0x1110|e9 00 00 00 04 00 00 00 00 00 04 01 6b 00 00 00|............k...|      data: raw bits 0x1110-0x1240.7 (305)
*     |until 0x1240.7 (305)                           |                |
0x2400|            cc 00 00 00                        |    ....        |      name: ".debug_info" (204) 0x2404-0x2407.7 (4)
0x2400|                        01 00 00 00            |        ....    |      type: "progbits" (0x1) (Information defined by the program) 0x2408-0x240b.7 (4)
      |                                               |                |      flags{}: 0x240c-0x240f.7 (4)
0x2400|                                    00         |            .   |        link_order: false 0x240c-0x240c (0.1)
0x2400|                                    00         |            .   |        info_link: false 0x240c.1-0x240c.1 (0.1)
0x2400|                                    00         |            .   |        strings: false 0x240c.2-0x240c.2 (0.1)
0x2400|                                    00         |            .   |        merge: false 0x240c.3-0x240c.3 (0.1)
0x2400|                                    00         |            .   |        unused0: 0 0x240c.4-0x240c.4 (0.1)
0x2400|                                    00         |            .   |        execinstr: false 0x240c.5-0x240c.5 (0.1)
0x2400|                                    00         |            .   |        alloc: false 0x240c.6-0x240c.6 (0.1)
0x2400|                                    00         |            .   |        write: false 0x240c.7-0x240c.7 (0.1)
0x2400|                                       00      |             .  |        tls: false 0x240d-0x240d (0.1)
0x2400|                                       00      |             .  |        group: false 0x240d.1-0x240d.1 (0.1)
0x2400|                                       00      |             .  |        os_nonconforming: false 0x240d.2-0x240d.2 (0.1)
0x2400|                                       00 00   |             .. |        unused1: 0 0x240d.3-0x240e.3 (1.1)
0x2400|                                          00 00|              ..|        os_specific: 0 0x240e.4-0x240f.3 (1)
0x2400|                                             00|               .|        processor_specific: 0 0x240f.4-0x240f.7 (0.4)
0x2410|00 00 00 00                                    |....            |      addr: 0x0 0x2410-0x2413.7 (4)
0x2410|            10 11 00 00                        |    ....        |      offset: 4368 0x2414-0x2417.7 (4)
0x2410|                        31 01 00 00            |        1...    |      size: 0x131 0x2418-0x241b.7 (4)
0x2410|                                    00 00 00 00|            ....|      link: 0 0x241c-0x241f.7 (4)
0x2420|00 00 00 00                                    |....            |      info: 0 0x2420-0x2423.7 (4)
0x2420|            01 00 00 00                        |    ....        |      addralign: 1 0x2424-0x2427.7 (4)
0x2420|                        00 00 00 00            |        ....    |      entsize: 0 0x2428-0x242b.7 (4)
      |                                               |                |    [23]{}: section_header 0x1241-0x2453.7 (4627)
0x1240|   01 11 01 25 0e 13 0b 03 0e 1b 0e 55 17 11 01| ...%.......U...|      data: raw bits 0x1241-0x1305.7 (197)
0x1250|10 17 00 00 02 24 00 0b 0b 3e 0b 03 0e 00 00 03|.....$...>......|
*     |until 0x1305.7 (197)                           |                |
0x2420|                                    d8 00 00 00|            ....|      name: ".debug_abbrev" (216) 0x242c-0x242f.7 (4)
0x2430|01 00 00 00                                    |....            |      type: "progbits" (0x1) (Information defined by the program) 0x2430-0x2433.7 (4)
      |                                               |                |      flags{}: 0x2434-0x2437.7 (4)
0x2430|            00                                 |    .           |        link_order: false 0x2434-0x2434 (0.1)
0x2430|            00                                 |    .           |        info_link: false 0x2434.1-0x2434.1 (0.1)
0x2430|            00                                 |    .           |        strings: false 0x2434.2-0x2434.2 (0.1)
0x2430|            00                                 |    .           |        merge: false 0x2434.3-0x2434.3 (0.1)
0x2430|            00                                 |    .           |        unused0: 0 0x2434.4-0x2434.4 (0.1)
0x2430|            00                                 |    .           |        execinstr: false 0x2434.5-0x2434.5 (0.1)
0x2430|            00                                 |    .           |        alloc: false 0x2434.6-0x2434.6 (0.1)
0x2430|            00                                 |    .           |        write: false 0x2434.7-0x2434.7 (0.1)
0x2430|               00                              |     .          |        tls: false 0x2435-0x2435 (0.1)
0x2430|               00                              |     .          |        group: false 0x2435.1-0x2435.1 (0.1)
0x2430|               00                              |     .          |        os_nonconforming: false 0x2435.2-0x2435.2 (0.1)
0x2430|               00 00                           |     ..         |        unused1: 0 0x2435.3-0x2436.3 (1.1)
0x2430|                  00 00                        |      ..        |        os_specific: 0 0x2436.4-0x2437.3 (1)
0x2430|                     00                        |       .        |        processor_specific: 0 0x2437.4-0x2437.7 (0.4)
0x2430|                        00 00 00 00            |        ....    |      addr: 0x0 0x2438-0x243b.7 (4)
0x2430|                                    41 12 00 00|            A...|      offset: 4673 0x243c-0x243f.7 (4)
0x2440|c5 00 00 00                                    |....            |      size: 0xc5 0x2440-0x2443.7 (4)
0x2440|            00 00 00 00                        |    ....        |      link: 0 0x2444-0x2447.7 (4)
0x2440|                        00 00 00 00            |        ....    |      info: 0 0x2448-0x244b.7 (4)
0x2440|                                    01 00 00 00|            ....|      addralign: 1 0x244c-0x244f.7 (4)
0x2450|00 00 00 00                                    |....            |      entsize: 0 0x2450-0x2453.7 (4)
      |                                               |                |    [24]{}: section_header 0x1306-0x247b.7 (4470)
0x1300|                  51 00 00 00 03 00 21 00 00 00|      Q.....!...|      data: raw bits 0x1306-0x13f0.7 (235)
0x1310|02 01 fb 0e 0d 00 01 01 01 01 00 00 00 01 00 00|................|
*     |until 0x13f0.7 (235)                           |                |
0x2450|            e6 00 00 00                        |    ....        |      name: ".debug_line" (230) 0x2454-0x2457.7 (4)
0x2450|                        01 00 00 00            |        ....    |      type: "progbits" (0x1) (Information defined by the program) 0x2458-0x245b.7 (4)
      |                                               |                |      flags{}: 0x245c-0x245f.7 (4)
0x2450|                                    00         |            .   |        link_order: false 0x245c-0x245c (0.1)
0x2450|                                    00         |            .   |        info_link: false 0x245c.1-0x245c.1 (0.1)
0x2450|                                    00         |            .   |        strings: false 0x245c.2-0x245c.2 (0.1)
0x2450|                                    00         |            .   |        merge: false 0x245c.3-0x245c.3 (0.1)
0x2450|                                    00         |            .   |        unused0: 0 0x245c.4-0x245c.4 (0.1)
0x2450|                                    00         |            .   |        execinstr: false 0x245c.5-0x245c.5 (0.1)
0x2450|                                    00         |            .   |        alloc: false 0x245c.6-0x245c.6 (0.1)
0x2450|                                    00         |            .   |        write: false 0x245c.7-0x245c.7 (0.1)
0x2450|                                       00      |             .  |        tls: false 0x245d-0x245d (0.1)
0x2450|                                       00      |             .  |        group: false 0x245d.1-0x245d.1 (0.1)
0x2450|                                       00      |             .  |        os_nonconforming: false 0x245d.2-0x245d.2 (0.1)
0x2450|                                       00 00   |             .. |        unused1: 0 0x245d.3-0x245e.3 (1.1)
0x2450|                                          00 00|              ..|        os_specific: 0 0x245e.4-0x245f.3 (1)
0x2450|                                             00|               .|        processor_specific: 0 0x245f.4-0x245f.7 (0.4)
0x2460|00 00 00 00                                    |....            |      addr: 0x0 0x2460-0x2463.7 (4)
0x2460|            06 13 00 00                        |    ....        |      offset: 4870 0x2464-0x2467.7 (4)
0x2460|                        eb 00 00 00            |        ....    |      size: 0xeb 0x2468-0x246b.7 (4)
0x2460|                                    00 00 00 00|            ....|      link: 0 0x246c-0x246f.7 (4)
0x2470|00 00 00 00                                    |....            |      info: 0 0x2470-0x2473.7 (4)
0x2470|            01 00 00 00                        |    ....        |      addralign: 1 0x2474-0x2477.7 (4)
0x2470|                        00 00 00 00            |        ....    |      entsize: 0 0x2478-0x247b.7 (4)
      |                                               |                |    [25]{}: section_header 0x13f4-0x24a3.7 (4272)
0x13f0|            0c 00 00 00 ff ff ff ff 01 00 02 7c|    ...........||      data: raw bits 0x13f4-0x141b.7 (40)
0x1400|0e 0c 0d 00 14 00 00 00 00 00 00 00 f8 03 00 00|................|
0x1410|64 00 00 00 42 0e 18 8e 01 66 0e 04            |d...B....f..    |
0x2470|                                    f2 00 00 00|            ....|      name: ".debug_frame" (242) 0x247c-0x247f.7 (4)
0x2480|01 00 00 00                                    |....            |      type: "progbits" (0x1) (Information defined by the program) 0x2480-0x2483.7 (4)
      |                                               |                |      flags{}: 0x2484-0x2487.7 (4)
0x2480|            00                                 |    .           |        link_order: false 0x2484-0x2484 (0.1)
0x2480|            00                                 |    .           |        info_link: false 0x2484.1-0x2484.1 (0.1)
0x2480|            00                                 |    .           |        strings: false 0x2484.2-0x2484.2 (0.1)
0x2480|            00                                 |    .           |        merge: false 0x2484.3-0x2484.3 (0.1)
0x2480|            00                                 |    .           |        unused0: 0 0x2484.4-0x2484.4 (0.1)
0x2480|            00                                 |    .           |        execinstr: false 0x2484.5-0x2484.5 (0.1)
0x2480|            00                                 |    .           |        alloc: false 0x2484.6-0x2484.6 (0.1)
0x2480|            00                                 |    .           |        write: false 0x2484.7-0x2484.7 (0.1)
0x2480|               00                              |     .          |        tls: false 0x2485-0x2485 (0.1)
0x2480|               00                              |     .          |        group: false 0x2485.1-0x2485.1 (0.1)
0x2480|               00                              |     .          |        os_nonconforming: false 0x2485.2-0x2485.2 (0.1)
0x2480|               00 00                           |     ..         |        unused1: 0 0x2485.3-0x2486.3 (1.1)
0x2480|                  00 00                        |      ..        |        os_specific: 0 0x2486.4-0x2487.3 (1)
0x2480|                     00                        |       .        |        processor_specific: 0 0x2487.4-0x2487.7 (0.4)
0x2480|                        00 00 00 00            |        ....    |      addr: 0x0 0x2488-0x248b.7 (4)
0x2480|                                    f4 13 00 00|            ....|      offset: 5108 0x248c-0x248f.7 (4)
0x2490|28 00 00 00                                    |(...            |      size: 0x28 0x2490-0x2493.7 (4)
0x2490|            00 00 00 00                        |    ....        |      link: 0 0x2494-0x2497.7 (4)
0x2490|                        00 00 00 00            |        ....    |      info: 0 0x2498-0x249b.7 (4)
0x2490|                                    04 00 00 00|            ....|      addralign: 4 0x249c-0x249f.7 (4)
0x24a0|00 00 00 00                                    |....            |      entsize: 0 0x24a0-0x24a3.7 (4)
      |                                               |                |    [26]{}: section_header 0x141c-0x24cb.7 (4272)
0x1410|                                    75 6e 73 69|            unsi|      data: raw bits 0x141c-0x162c.7 (529)
0x1420|67 6e 65 64 20 69 6e 74 00 63 72 74 2f 53 63 72|gned int.crt/Scr|
*     |until 0x162c.7 (529)                           |                |
0x24a0|            ff 00 00 00                        |    ....        |      name: ".debug_str" (255) 0x24a4-0x24a7.7 (4)
0x24a0|                        01 00 00 00            |        ....    |      type: "progbits" (0x1) (Information defined by the program) 0x24a8-0x24ab.7 (4)
      |                                               |                |      flags{}: 0x24ac-0x24af.7 (4)
0x24a0|                                    30         |            0   |        link_order: false 0x24ac-0x24ac (0.1)
0x24a0|                                    30         |            0   |        info_link: false 0x24ac.1-0x24ac.1 (0.1)
0x24a0|                                    30         |            0   |        strings: true 0x24ac.2-0x24ac.2 (0.1)
0x24a0|                                    30         |            0   |        merge: true 0x24ac.3-0x24ac.3 (0.1)
0x24a0|                                    30         |            0   |        unused0: 0 0x24ac.4-0x24ac.4 (0.1)
0x24a0|                                    30         |            0   |        execinstr: false 0x24ac.5-0x24ac.5 (0.1)
0x24a0|                                    30         |            0   |        alloc: false 0x24ac.6-0x24ac.6 (0.1)
0x24a0|                                    30         |            0   |        write: false 0x24ac.7-0x24ac.7 (0.1)
0x24a0|                                       00      |             .  |        tls: false 0x24ad-0x24ad (0.1)
0x24a0|                                       00      |             .  |        group: false 0x24ad.1-0x24ad.1 (0.1)
0x24a0|                                       00      |             .  |        os_nonconforming: false 0x24ad.2-0x24ad.2 (0.1)
0x24a0|                                       00 00   |             .. |        unused1: 0 0x24ad.3-0x24ae.3 (1.1)
0x24a0|                                          00 00|              ..|        os_specific: 0 0x24ae.4-0x24af.3 (1)
0x24a0|                                             00|               .|        processor_specific: 0 0x24af.4-0x24af.7 (0.4)
0x24b0|00 00 00 00                                    |....            |      addr: 0x0 0x24b0-0x24b3.7 (4)
0x24b0|            1c 14 00 00                        |    ....        |      offset: 5148 0x24b4-0x24b7.7 (4)
0x24b0|                        11 02 00 00            |        ....    |      size: 0x211 0x24b8-0x24bb.7 (4)
0x24b0|                                    00 00 00 00|            ....|      link: 0 0x24bc-0x24bf.7 (4)
0x24c0|00 00 00 00                                    |....            |      info: 0 0x24c0-0x24c3.7 (4)
0x24c0|            01 00 00 00                        |    ....        |      addralign: 1 0x24c4-0x24c7.7 (4)
0x24c0|                        01 00 00 00            |        ....    |      entsize: 1 0x24c8-0x24cb.7 (4)
      |                                               |                |    [27]{}: section_header 0x162d-0x24f3.7 (3783)
0x1620|                                       00 00 00|             ...|      data: raw bits 0x162d-0x16ac.7 (128)
0x1630|00 00 00 f8 03 00 00 40 04 00 00 01 00 50 40 04|.......@.....P@.|
*     |until 0x16ac.7 (128)                           |                |
0x24c0|                                    0a 01 00 00|            ....|      name: ".debug_loc" (266) 0x24cc-0x24cf.7 (4)
0x24d0|01 00 00 00                                    |....            |      type: "progbits" (0x1) (Information defined by the program) 0x24d0-0x24d3.7 (4)
      |                                               |                |      flags{}: 0x24d4-0x24d7.7 (4)
0x24d0|            00                                 |    .           |        link_order: false 0x24d4-0x24d4 (0.1)
0x24d0|            00                                 |    .           |        info_link: false 0x24d4.1-0x24d4.1 (0.1)
0x24d0|            00                                 |    .           |        strings: false 0x24d4.2-0x24d4.2 (0.1)
0x24d0|            00                                 |    .           |        merge: false 0x24d4.3-0x24d4.3 (0.1)
0x24d0|            00                                 |    .           |        unused0: 0 0x24d4.4-0x24d4.4 (0.1)
0x24d0|            00                                 |    .           |        execinstr: false 0x24d4.5-0x24d4.5 (0.1)
0x24d0|            00                                 |    .           |        alloc: false 0x24d4.6-0x24d4.6 (0.1)
0x24d0|            00                                 |    .           |        write: false 0x24d4.7-0x24d4.7 (0.1)
0x24d0|               00                              |     .          |        tls: false 0x24d5-0x24d5 (0.1)
0x24d0|               00                              |     .          |        group: false 0x24d5.1-0x24d5.1 (0.1)
0x24d0|               00                              |     .          |        os_nonconforming: false 0x24d5.2-0x24d5.2 (0.1)
0x24d0|               00 00                           |     ..         |        unused1: 0 0x24d5.3-0x24d6.3 (1.1)
0x24d0|                  00 00                        |      ..        |        os_specific: 0 0x24d6.4-0x24d7.3 (1)
0x24d0|                     00                        |       .        |        processor_specific: 0 0x24d7.4-0x24d7.7 (0.4)
0x24d0|                        00 00 00 00            |        ....    |      addr: 0x0 0x24d8-0x24db.7 (4)
0x24d0|                                    2d 16 00 00|            -...|      offset: 5677 0x24dc-0x24df.7 (4)
0x24e0|80 00 00 00                                    |....            |      size: 0x80 0x24e0-0x24e3.7 (4)
0x24e0|            00 00 00 00                        |    ....        |      link: 0 0x24e4-0x24e7.7 (4)
0x24e0|                        00 00 00 00            |        ....    |      info: 0 0x24e8-0x24eb.7 (4)
0x24e0|                                    01 00 00 00|            ....|      addralign: 1 0x24ec-0x24ef.7 (4)
0x24f0|00 00 00 00                                    |....            |      entsize: 0 0x24f0-0x24f3.7 (4)
      |                                               |                |    [28]{}: section_header 0x16b0-0x251b.7 (3692)
0x16b0|f8 03 00 00 5c 04 00 00 00 00 00 00 00 00 00 00|....\...........|      data: raw bits 0x16b0-0x16ff.7 (80)
*     |until 0x16ff.7 (80)                            |                |
0x24f0|            15 01 00 00                        |    ....        |      name: ".debug_ranges" (277) 0x24f4-0x24f7.7 (4)
0x24f0|                        01 00 00 00            |        ....    |      type: "progbits" (0x1) (Information defined by the program) 0x24f8-0x24fb.7 (4)
      |                                               |                |      flags{}: 0x24fc-0x24ff.7 (4)
0x24f0|                                    00         |            .   |        link_order: false 0x24fc-0x24fc (0.1)
0x24f0|                                    00         |            .   |        info_link: false 0x24fc.1-0x24fc.1 (0.1)
0x24f0|                                    00         |            .   |        strings: false 0x24fc.2-0x24fc.2 (0.1)
0x24f0|                                    00         |            .   |        merge: false 0x24fc.3-0x24fc.3 (0.1)
0x24f0|                                    00         |            .   |        unused0: 0 0x24fc.4-0x24fc.4 (0.1)
0x24f0|                                    00         |            .   |        execinstr: false 0x24fc.5-0x24fc.5 (0.1)
0x24f0|                                    00         |            .   |        alloc: false 0x24fc.6-0x24fc.6 (0.1)
0x24f0|                                    00         |            .   |        write: false 0x24fc.7-0x24fc.7 (0.1)
0x24f0|                                       00      |             .  |        tls: false 0x24fd-0x24fd (0.1)
0x24f0|                                       00      |             .  |        group: false 0x24fd.1-0x24fd.1 (0.1)
0x24f0|                                       00      |             .  |        os_nonconforming: false 0x24fd.2-0x24fd.2 (0.1)
0x24f0|                                       00 00   |             .. |        unused1: 0 0x24fd.3-0x24fe.3 (1.1)
0x24f0|                                          00 00|              ..|        os_specific: 0 0x24fe.4-0x24ff.3 (1)
0x24f0|                                             00|               .|        processor_specific: 0 0x24ff.4-0x24ff.7 (0.4)
0x2500|00 00 00 00                                    |....            |      addr: 0x0 0x2500-0x2503.7 (4)
0x2500|            b0 16 00 00                        |    ....        |      offset: 5808 0x2504-0x2507.7 (4)
0x2500|                        50 00 00 00            |        P...    |      size: 0x50 0x2508-0x250b.7 (4)
0x2500|                                    00 00 00 00|            ....|      link: 0 0x250c-0x250f.7 (4)
0x2510|00 00 00 00                                    |....            |      info: 0 0x2510-0x2513.7 (4)
0x2510|            08 00 00 00                        |    ....        |      addralign: 8 0x2514-0x2517.7 (4)
0x2510|                        00 00 00 00            |        ....    |      entsize: 0 0x2518-0x251b.7 (4)
      |                                               |                |    [29]{}: section_header 0x1700-0x2543.7 (3652)
      |                                               |                |      symbol_table[0:103]: 0x1700-0x1d6f.7 (1648)
      |                                               |                |        [0]{}: symbol 0x1700-0x170f.7 (16)
0x1700|00 00 00 00                                    |....            |          name: "" (0) 0x1700-0x1703.7 (4)
0x1700|            00 00 00 00                        |    ....        |          value: 0 0x1704-0x1707.7 (4)
0x1700|                        00 00 00 00            |        ....    |          size: 0 0x1708-0x170b.7 (4)
0x1700|                                    00         |            .   |          bind: "local" (0) 0x170c-0x170c.3 (0.4)
0x1700|                                    00         |            .   |          type: "notype" (0) 0x170c.4-0x170c.7 (0.4)
0x1700|                                       00      |             .  |          other_unused: 0 0x170d-0x170d.5 (0.6)
0x1700|                                       00      |             .  |          visibility: "default" (0) 0x170d.6-0x170d.7 (0.2)
0x1700|                                          00 00|              ..|          shndx: 0 0x170e-0x170f.7 (2)
      |                                               |                |        [1]{}: symbol 0x1710-0x171f.7 (16)
0x1710|00 00 00 00                                    |....            |          name: "" (0) 0x1710-0x1713.7 (4)
0x1710|            14 01 00 00                        |    ....        |          value: 276 0x1714-0x1717.7 (4)
0x1710|                        00 00 00 00            |        ....    |          size: 0 0x1718-0x171b.7 (4)
0x1710|                                    03         |            .   |          bind: "local" (0) 0x171c-0x171c.3 (0.4)
0x1710|                                    03         |            .   |          type: "section" (3) 0x171c.4-0x171c.7 (0.4)
0x1710|                                       00      |             .  |          other_unused: 0 0x171d-0x171d.5 (0.6)
0x1710|                                       00      |             .  |          visibility: "default" (0) 0x171d.6-0x171d.7 (0.2)
0x1710|                                          01 00|              ..|          shndx: 1 0x171e-0x171f.7 (2)
      |                                               |                |        [2]{}: symbol 0x1720-0x172f.7 (16)
0x1720|00 00 00 00                                    |....            |          name: "" (0) 0x1720-0x1723.7 (4)
0x1720|            2c 01 00 00                        |    ,...        |          value: 300 0x1724-0x1727.7 (4)
0x1720|                        00 00 00 00            |        ....    |          size: 0 0x1728-0x172b.7 (4)
0x1720|                                    03         |            .   |          bind: "local" (0) 0x172c-0x172c.3 (0.4)
0x1720|                                    03         |            .   |          type: "section" (3) 0x172c.4-0x172c.7 (0.4)
0x1720|                                       00      |             .  |          other_unused: 0 0x172d-0x172d.5 (0.6)
0x1720|                                       00      |             .  |          visibility: "default" (0) 0x172d.6-0x172d.7 (0.2)
0x1720|                                          02 00|              ..|          shndx: 2 0x172e-0x172f.7 (2)
      |                                               |                |        [3]{}: symbol 0x1730-0x173f.7 (16)
0x1730|00 00 00 00                                    |....            |          name: "" (0) 0x1730-0x1733.7 (4)
0x1730|            50 01 00 00                        |    P...        |          value: 336 0x1734-0x1737.7 (4)
0x1730|                        00 00 00 00            |        ....    |          size: 0 0x1738-0x173b.7 (4)
0x1730|                                    03         |            .   |          bind: "local" (0) 0x173c-0x173c.3 (0.4)
0x1730|                                    03         |            .   |          type: "section" (3) 0x173c.4-0x173c.7 (0.4)
0x1730|                                       00      |             .  |          other_unused: 0 0x173d-0x173d.5 (0.6)
0x1730|                                       00      |             .  |          visibility: "default" (0) 0x173d.6-0x173d.7 (0.2)
0x1730|                                          03 00|              ..|          shndx: 3 0x173e-0x173f.7 (2)
      |                                               |                |        [4]{}: symbol 0x1740-0x174f.7 (16)
0x1740|00 00 00 00                                    |....            |          name: "" (0) 0x1740-0x1743.7 (4)
0x1740|            20 02 00 00                        |     ...        |          value: 544 0x1744-0x1747.7 (4)
0x1740|                        00 00 00 00            |        ....    |          size: 0 0x1748-0x174b.7 (4)
0x1740|                                    03         |            .   |          bind: "local" (0) 0x174c-0x174c.3 (0.4)
0x1740|                                    03         |            .   |          type: "section" (3) 0x174c.4-0x174c.7 (0.4)
0x1740|                                       00      |             .  |          other_unused: 0 0x174d-0x174d.5 (0.6)
0x1740|                                       00      |             .  |          visibility: "default" (0) 0x174d.6-0x174d.7 (0.2)
0x1740|                                          04 00|              ..|          shndx: 4 0x174e-0x174f.7 (2)
      |                                               |                |        [5]{}: symbol 0x1750-0x175f.7 (16)
0x1750|00 00 00 00                                    |....            |          name: "" (0) 0x1750-0x1753.7 (4)
0x1750|            e4 02 00 00                        |    ....        |          value: 740 0x1754-0x1757.7 (4)
0x1750|                        00 00 00 00            |        ....    |          size: 0 0x1758-0x175b.7 (4)
0x1750|                                    03         |            .   |          bind: "local" (0) 0x175c-0x175c.3 (0.4)
0x1750|                                    03         |            .   |          type: "section" (3) 0x175c.4-0x175c.7 (0.4)
0x1750|                                       00      |             .  |          other_unused: 0 0x175d-0x175d.5 (0.6)
0x1750|                                       00      |             .  |          visibility: "default" (0) 0x175d.6-0x175d.7 (0.2)
0x1750|                                          05 00|              ..|          shndx: 5 0x175e-0x175f.7 (2)
      |                                               |                |        [6]{}: symbol 0x1760-0x176f.7 (16)
0x1760|00 00 00 00                                    |....            |          name: "" (0) 0x1760-0x1763.7 (4)
0x1760|            3c 03 00 00                        |    <...        |          value: 828 0x1764-0x1767.7 (4)
0x1760|                        00 00 00 00            |        ....    |          size: 0 0x1768-0x176b.7 (4)
0x1760|                                    03         |            .   |          bind: "local" (0) 0x176c-0x176c.3 (0.4)
0x1760|                                    03         |            .   |          type: "section" (3) 0x176c.4-0x176c.7 (0.4)
0x1760|                                       00      |             .  |          other_unused: 0 0x176d-0x176d.5 (0.6)
0x1760|                                       00      |             .  |          visibility: "default" (0) 0x176d.6-0x176d.7 (0.2)
0x1760|                                          06 00|              ..|          shndx: 6 0x176e-0x176f.7 (2)
      |                                               |                |        [7]{}: symbol 0x1770-0x177f.7 (16)
0x1770|00 00 00 00                                    |....            |          name: "" (0) 0x1770-0x1773.7 (4)
0x1770|            6c 03 00 00                        |    l...        |          value: 876 0x1774-0x1777.7 (4)
0x1770|                        00 00 00 00            |        ....    |          size: 0 0x1778-0x177b.7 (4)
0x1770|                                    03         |            .   |          bind: "local" (0) 0x177c-0x177c.3 (0.4)
0x1770|                                    03         |            .   |          type: "section" (3) 0x177c.4-0x177c.7 (0.4)
0x1770|                                       00      |             .  |          other_unused: 0 0x177d-0x177d.5 (0.6)
0x1770|                                       00      |             .  |          visibility: "default" (0) 0x177d.6-0x177d.7 (0.2)
0x1770|                                          07 00|              ..|          shndx: 7 0x177e-0x177f.7 (2)
      |                                               |                |        [8]{}: symbol 0x1780-0x178f.7 (16)
0x1780|00 00 00 00                                    |....            |          name: "" (0) 0x1780-0x1783.7 (4)
0x1780|            78 03 00 00                        |    x...        |          value: 888 0x1784-0x1787.7 (4)
0x1780|                        00 00 00 00            |        ....    |          size: 0 0x1788-0x178b.7 (4)
0x1780|                                    03         |            .   |          bind: "local" (0) 0x178c-0x178c.3 (0.4)
0x1780|                                    03         |            .   |          type: "section" (3) 0x178c.4-0x178c.7 (0.4)
0x1780|                                       00      |             .  |          other_unused: 0 0x178d-0x178d.5 (0.6)
0x1780|                                       00      |             .  |          visibility: "default" (0) 0x178d.6-0x178d.7 (0.2)
0x1780|                                          08 00|              ..|          shndx: 8 0x178e-0x178f.7 (2)
      |                                               |                |        [9]{}: symbol 0x1790-0x179f.7 (16)
0x1790|00 00 00 00                                    |....            |          name: "" (0) 0x1790-0x1793.7 (4)
0x1790|            d4 03 00 00                        |    ....        |          value: 980 0x1794-0x1797.7 (4)
0x1790|                        00 00 00 00            |        ....    |          size: 0 0x1798-0x179b.7 (4)
0x1790|                                    03         |            .   |          bind: "local" (0) 0x179c-0x179c.3 (0.4)
0x1790|                                    03         |            .   |          type: "section" (3) 0x179c.4-0x179c.7 (0.4)
0x1790|                                       00      |             .  |          other_unused: 0 0x179d-0x179d.5 (0.6)
0x1790|                                       00      |             .  |          visibility: "default" (0) 0x179d.6-0x179d.7 (0.2)
0x1790|                                          09 00|              ..|          shndx: 9 0x179e-0x179f.7 (2)
      |                                               |                |        [10]{}: symbol 0x17a0-0x17af.7 (16)
0x17a0|00 00 00 00                                    |....            |          name: "" (0) 0x17a0-0x17a3.7 (4)
0x17a0|            08 06 00 00                        |    ....        |          value: 1544 0x17a4-0x17a7.7 (4)
0x17a0|                        00 00 00 00            |        ....    |          size: 0 0x17a8-0x17ab.7 (4)
0x17a0|                                    03         |            .   |          bind: "local" (0) 0x17ac-0x17ac.3 (0.4)
0x17a0|                                    03         |            .   |          type: "section" (3) 0x17ac.4-0x17ac.7 (0.4)
0x17a0|                                       00      |             .  |          other_unused: 0 0x17ad-0x17ad.5 (0.6)
0x17a0|                                       00      |             .  |          visibility: "default" (0) 0x17ad.6-0x17ad.7 (0.2)
0x17a0|                                          0a 00|              ..|          shndx: 10 0x17ae-0x17af.7 (2)
      |                                               |                |        [11]{}: symbol 0x17b0-0x17bf.7 (16)
0x17b0|00 00 00 00                                    |....            |          name: "" (0) 0x17b0-0x17b3.7 (4)
0x17b0|            14 06 00 00                        |    ....        |          value: 1556 0x17b4-0x17b7.7 (4)
0x17b0|                        00 00 00 00            |        ....    |          size: 0 0x17b8-0x17bb.7 (4)
0x17b0|                                    03         |            .   |          bind: "local" (0) 0x17bc-0x17bc.3 (0.4)
0x17b0|                                    03         |            .   |          type: "section" (3) 0x17bc.4-0x17bc.7 (0.4)
0x17b0|                                       00      |             .  |          other_unused: 0 0x17bd-0x17bd.5 (0.6)
0x17b0|                                       00      |             .  |          visibility: "default" (0) 0x17bd.6-0x17bd.7 (0.2)
0x17b0|                                          0b 00|              ..|          shndx: 11 0x17be-0x17bf.7 (2)
      |                                               |                |        [12]{}: symbol 0x17c0-0x17cf.7 (16)
0x17c0|00 00 00 00                                    |....            |          name: "" (0) 0x17c0-0x17c3.7 (4)
0x17c0|            38 07 00 00                        |    8...        |          value: 1848 0x17c4-0x17c7.7 (4)
0x17c0|                        00 00 00 00            |        ....    |          size: 0 0x17c8-0x17cb.7 (4)
0x17c0|                                    03         |            .   |          bind: "local" (0) 0x17cc-0x17cc.3 (0.4)
0x17c0|                                    03         |            .   |          type: "section" (3) 0x17cc.4-0x17cc.7 (0.4)
0x17c0|                                       00      |             .  |          other_unused: 0 0x17cd-0x17cd.5 (0.6)
0x17c0|                                       00      |             .  |          visibility: "default" (0) 0x17cd.6-0x17cd.7 (0.2)
0x17c0|                                          0c 00|              ..|          shndx: 12 0x17ce-0x17cf.7 (2)
      |                                               |                |        [13]{}: symbol 0x17d0-0x17df.7 (16)
0x17d0|00 00 00 00                                    |....            |          name: "" (0) 0x17d0-0x17d3.7 (4)
0x17d0|            cc 0e 01 00                        |    ....        |          value: 69324 0x17d4-0x17d7.7 (4)
0x17d0|                        00 00 00 00            |        ....    |          size: 0 0x17d8-0x17db.7 (4)
0x17d0|                                    03         |            .   |          bind: "local" (0) 0x17dc-0x17dc.3 (0.4)
0x17d0|                                    03         |            .   |          type: "section" (3) 0x17dc.4-0x17dc.7 (0.4)
0x17d0|                                       00      |             .  |          other_unused: 0 0x17dd-0x17dd.5 (0.6)
0x17d0|                                       00      |             .  |          visibility: "default" (0) 0x17dd.6-0x17dd.7 (0.2)
0x17d0|                                          0d 00|              ..|          shndx: 13 0x17de-0x17df.7 (2)
      |                                               |                |        [14]{}: symbol 0x17e0-0x17ef.7 (16)
0x17e0|00 00 00 00                                    |....            |          name: "" (0) 0x17e0-0x17e3.7 (4)
0x17e0|            d0 0e 01 00                        |    ....        |          value: 69328 0x17e4-0x17e7.7 (4)
0x17e0|                        00 00 00 00            |        ....    |          size: 0 0x17e8-0x17eb.7 (4)
0x17e0|                                    03         |            .   |          bind: "local" (0) 0x17ec-0x17ec.3 (0.4)
0x17e0|                                    03         |            .   |          type: "section" (3) 0x17ec.4-0x17ec.7 (0.4)
0x17e0|                                       00      |             .  |          other_unused: 0 0x17ed-0x17ed.5 (0.6)
0x17e0|                                       00      |             .  |          visibility: "default" (0) 0x17ed.6-0x17ed.7 (0.2)
0x17e0|                                          0e 00|              ..|          shndx: 14 0x17ee-0x17ef.7 (2)
      |                                               |                |        [15]{}: symbol 0x17f0-0x17ff.7 (16)
0x17f0|00 00 00 00                                    |....            |          name: "" (0) 0x17f0-0x17f3.7 (4)
0x17f0|            d4 0e 01 00                        |    ....        |          value: 69332 0x17f4-0x17f7.7 (4)
0x17f0|                        00 00 00 00            |        ....    |          size: 0 0x17f8-0x17fb.7 (4)
0x17f0|                                    03         |            .   |          bind: "local" (0) 0x17fc-0x17fc.3 (0.4)
0x17f0|                                    03         |            .   |          type: "section" (3) 0x17fc.4-0x17fc.7 (0.4)
0x17f0|                                       00      |             .  |          other_unused: 0 0x17fd-0x17fd.5 (0.6)
0x17f0|                                       00      |             .  |          visibility: "default" (0) 0x17fd.6-0x17fd.7 (0.2)
0x17f0|                                          0f 00|              ..|          shndx: 15 0x17fe-0x17ff.7 (2)
      |                                               |                |        [16]{}: symbol 0x1800-0x180f.7 (16)
0x1800|00 00 00 00                                    |....            |          name: "" (0) 0x1800-0x1803.7 (4)
0x1800|            bc 0f 01 00                        |    ....        |          value: 69564 0x1804-0x1807.7 (4)
0x1800|                        00 00 00 00            |        ....    |          size: 0 0x1808-0x180b.7 (4)
0x1800|                                    03         |            .   |          bind: "local" (0) 0x180c-0x180c.3 (0.4)
0x1800|                                    03         |            .   |          type: "section" (3) 0x180c.4-0x180c.7 (0.4)
0x1800|                                       00      |             .  |          other_unused: 0 0x180d-0x180d.5 (0.6)
0x1800|                                       00      |             .  |          visibility: "default" (0) 0x180d.6-0x180d.7 (0.2)
0x1800|                                          10 00|              ..|          shndx: 16 0x180e-0x180f.7 (2)
      |                                               |                |        [17]{}: symbol 0x1810-0x181f.7 (16)
0x1810|00 00 00 00                                    |....            |          name: "" (0) 0x1810-0x1813.7 (4)
0x1810|            00 10 01 00                        |    ....        |          value: 69632 0x1814-0x1817.7 (4)
0x1810|                        00 00 00 00            |        ....    |          size: 0 0x1818-0x181b.7 (4)
0x1810|                                    03         |            .   |          bind: "local" (0) 0x181c-0x181c.3 (0.4)
0x1810|                                    03         |            .   |          type: "section" (3) 0x181c.4-0x181c.7 (0.4)
0x1810|                                       00      |             .  |          other_unused: 0 0x181d-0x181d.5 (0.6)
0x1810|                                       00      |             .  |          visibility: "default" (0) 0x181d.6-0x181d.7 (0.2)
0x1810|                                          11 00|              ..|          shndx: 17 0x181e-0x181f.7 (2)
      |                                               |                |        [18]{}: symbol 0x1820-0x182f.7 (16)
0x1820|00 00 00 00                                    |....            |          name: "" (0) 0x1820-0x1823.7 (4)
0x1820|            04 10 01 00                        |    ....        |          value: 69636 0x1824-0x1827.7 (4)
0x1820|                        00 00 00 00            |        ....    |          size: 0 0x1828-0x182b.7 (4)
0x1820|                                    03         |            .   |          bind: "local" (0) 0x182c-0x182c.3 (0.4)
0x1820|                                    03         |            .   |          type: "section" (3) 0x182c.4-0x182c.7 (0.4)
0x1820|                                       00      |             .  |          other_unused: 0 0x182d-0x182d.5 (0.6)
0x1820|                                       00      |             .  |          visibility: "default" (0) 0x182d.6-0x182d.7 (0.2)
0x1820|                                          12 00|              ..|          shndx: 18 0x182e-0x182f.7 (2)
      |                                               |                |        [19]{}: symbol 0x1830-0x183f.7 (16)
0x1830|00 00 00 00                                    |....            |          name: "" (0) 0x1830-0x1833.7 (4)
0x1830|            00 00 00 00                        |    ....        |          value: 0 0x1834-0x1837.7 (4)
0x1830|                        00 00 00 00            |        ....    |          size: 0 0x1838-0x183b.7 (4)
0x1830|                                    03         |            .   |          bind: "local" (0) 0x183c-0x183c.3 (0.4)
0x1830|                                    03         |            .   |          type: "section" (3) 0x183c.4-0x183c.7 (0.4)
0x1830|                                       00      |             .  |          other_unused: 0 0x183d-0x183d.5 (0.6)
0x1830|                                       00      |             .  |          visibility: "default" (0) 0x183d.6-0x183d.7 (0.2)
0x1830|                                          13 00|              ..|          shndx: 19 0x183e-0x183f.7 (2)
      |                                               |                |        [20]{}: symbol 0x1840-0x184f.7 (16)
0x1840|00 00 00 00                                    |....            |          name: "" (0) 0x1840-0x1843.7 (4)
0x1840|            00 00 00 00                        |    ....        |          value: 0 0x1844-0x1847.7 (4)
0x1840|                        00 00 00 00            |        ....    |          size: 0 0x1848-0x184b.7 (4)
0x1840|                                    03         |            .   |          bind: "local" (0) 0x184c-0x184c.3 (0.4)
0x1840|                                    03         |            .   |          type: "section" (3) 0x184c.4-0x184c.7 (0.4)
0x1840|                                       00      |             .  |          other_unused: 0 0x184d-0x184d.5 (0.6)
0x1840|                                       00      |             .  |          visibility: "default" (0) 0x184d.6-0x184d.7 (0.2)
0x1840|                                          14 00|              ..|          shndx: 20 0x184e-0x184f.7 (2)
      |                                               |                |        [21]{}: symbol 0x1850-0x185f.7 (16)
0x1850|00 00 00 00                                    |....            |          name: "" (0) 0x1850-0x1853.7 (4)
0x1850|            00 00 00 00                        |    ....        |          value: 0 0x1854-0x1857.7 (4)
0x1850|                        00 00 00 00            |        ....    |          size: 0 0x1858-0x185b.7 (4)
0x1850|                                    03         |            .   |          bind: "local" (0) 0x185c-0x185c.3 (0.4)
0x1850|                                    03         |            .   |          type: "section" (3) 0x185c.4-0x185c.7 (0.4)
0x1850|                                       00      |             .  |          other_unused: 0 0x185d-0x185d.5 (0.6)
0x1850|                                       00      |             .  |          visibility: "default" (0) 0x185d.6-0x185d.7 (0.2)
0x1850|                                          15 00|              ..|          shndx: 21 0x185e-0x185f.7 (2)
      |                                               |                |        [22]{}: symbol 0x1860-0x186f.7 (16)
0x1860|00 00 00 00                                    |....            |          name: "" (0) 0x1860-0x1863.7 (4)
0x1860|            00 00 00 00                        |    ....        |          value: 0 0x1864-0x1867.7 (4)
0x1860|                        00 00 00 00            |        ....    |          size: 0 0x1868-0x186b.7 (4)
0x1860|                                    03         |            .   |          bind: "local" (0) 0x186c-0x186c.3 (0.4)
0x1860|                                    03         |            .   |          type: "section" (3) 0x186c.4-0x186c.7 (0.4)
0x1860|                                       00      |             .  |          other_unused: 0 0x186d-0x186d.5 (0.6)
0x1860|                                       00      |             .  |          visibility: "default" (0) 0x186d.6-0x186d.7 (0.2)
0x1860|                                          16 00|              ..|          shndx: 22 0x186e-0x186f.7 (2)
      |                                               |                |        [23]{}: symbol 0x1870-0x187f.7 (16)
0x1870|00 00 00 00                                    |....            |          name: "" (0) 0x1870-0x1873.7 (4)
0x1870|            00 00 00 00                        |    ....        |          value: 0 0x1874-0x1877.7 (4)
0x1870|                        00 00 00 00            |        ....    |          size: 0 0x1878-0x187b.7 (4)
0x1870|                                    03         |            .   |          bind: "local" (0) 0x187c-0x187c.3 (0.4)
0x1870|                                    03         |            .   |          type: "section" (3) 0x187c.4-0x187c.7 (0.4)
0x1870|                                       00      |             .  |          other_unused: 0 0x187d-0x187d.5 (0.6)
0x1870|                                       00      |             .  |          visibility: "default" (0) 0x187d.6-0x187d.7 (0.2)
0x1870|                                          17 00|              ..|          shndx: 23 0x187e-0x187f.7 (2)
      |                                               |                |        [24]{}: symbol 0x1880-0x188f.7 (16)
0x1880|00 00 00 00                                    |....            |          name: "" (0) 0x1880-0x1883.7 (4)
0x1880|            00 00 00 00                        |    ....        |          value: 0 0x1884-0x1887.7 (4)
0x1880|                        00 00 00 00            |        ....    |          size: 0 0x1888-0x188b.7 (4)
0x1880|                                    03         |            .   |          bind: "local" (0) 0x188c-0x188c.3 (0.4)
0x1880|                                    03         |            .   |          type: "section" (3) 0x188c.4-0x188c.7 (0.4)
0x1880|                                       00      |             .  |          other_unused: 0 0x188d-0x188d.5 (0.6)
0x1880|                                       00      |             .  |          visibility: "default" (0) 0x188d.6-0x188d.7 (0.2)
0x1880|                                          18 00|              ..|          shndx: 24 0x188e-0x188f.7 (2)
      |                                               |                |        [25]{}: symbol 0x1890-0x189f.7 (16)
0x1890|00 00 00 00                                    |....            |          name: "" (0) 0x1890-0x1893.7 (4)
0x1890|            00 00 00 00                        |    ....        |          value: 0 0x1894-0x1897.7 (4)
0x1890|                        00 00 00 00            |        ....    |          size: 0 0x1898-0x189b.7 (4)
0x1890|                                    03         |            .   |          bind: "local" (0) 0x189c-0x189c.3 (0.4)
0x1890|                                    03         |            .   |          type: "section" (3) 0x189c.4-0x189c.7 (0.4)
0x1890|                                       00      |             .  |          other_unused: 0 0x189d-0x189d.5 (0.6)
0x1890|                                       00      |             .  |          visibility: "default" (0) 0x189d.6-0x189d.7 (0.2)
0x1890|                                          19 00|              ..|          shndx: 25 0x189e-0x189f.7 (2)
      |                                               |                |        [26]{}: symbol 0x18a0-0x18af.7 (16)
0x18a0|00 00 00 00                                    |....            |          name: "" (0) 0x18a0-0x18a3.7 (4)
0x18a0|            00 00 00 00                        |    ....        |          value: 0 0x18a4-0x18a7.7 (4)
0x18a0|                        00 00 00 00            |        ....    |          size: 0 0x18a8-0x18ab.7 (4)
0x18a0|                                    03         |            .   |          bind: "local" (0) 0x18ac-0x18ac.3 (0.4)
0x18a0|                                    03         |            .   |          type: "section" (3) 0x18ac.4-0x18ac.7 (0.4)
0x18a0|                                       00      |             .  |          other_unused: 0 0x18ad-0x18ad.5 (0.6)
0x18a0|                                       00      |             .  |          visibility: "default" (0) 0x18ad.6-0x18ad.7 (0.2)
0x18a0|                                          1a 00|              ..|          shndx: 26 0x18ae-0x18af.7 (2)
      |                                               |                |        [27]{}: symbol 0x18b0-0x18bf.7 (16)
0x18b0|00 00 00 00                                    |....            |          name: "" (0) 0x18b0-0x18b3.7 (4)
0x18b0|            00 00 00 00                        |    ....        |          value: 0 0x18b4-0x18b7.7 (4)
0x18b0|                        00 00 00 00            |        ....    |          size: 0 0x18b8-0x18bb.7 (4)
0x18b0|                                    03         |            .   |          bind: "local" (0) 0x18bc-0x18bc.3 (0.4)
0x18b0|                                    03         |            .   |          type: "section" (3) 0x18bc.4-0x18bc.7 (0.4)
0x18b0|                                       00      |             .  |          other_unused: 0 0x18bd-0x18bd.5 (0.6)
0x18b0|                                       00      |             .  |          visibility: "default" (0) 0x18bd.6-0x18bd.7 (0.2)
0x18b0|                                          1b 00|              ..|          shndx: 27 0x18be-0x18bf.7 (2)
      |                                               |                |        [28]{}: symbol 0x18c0-0x18cf.7 (16)
0x18c0|00 00 00 00                                    |....            |          name: "" (0) 0x18c0-0x18c3.7 (4)
0x18c0|            00 00 00 00                        |    ....        |          value: 0 0x18c4-0x18c7.7 (4)
0x18c0|                        00 00 00 00            |        ....    |          size: 0 0x18c8-0x18cb.7 (4)
0x18c0|                                    03         |            .   |          bind: "local" (0) 0x18cc-0x18cc.3 (0.4)
0x18c0|                                    03         |            .   |          type: "section" (3) 0x18cc.4-0x18cc.7 (0.4)
0x18c0|                                       00      |             .  |          other_unused: 0 0x18cd-0x18cd.5 (0.6)
0x18c0|                                       00      |             .  |          visibility: "default" (0) 0x18cd.6-0x18cd.7 (0.2)
0x18c0|                                          1c 00|              ..|          shndx: 28 0x18ce-0x18cf.7 (2)
      |                                               |                |        [29]{}: symbol 0x18d0-0x18df.7 (16)
0x18d0|01 00 00 00                                    |....            |          name: "Scrt1.c" (1) 0x18d0-0x18d3.7 (4)
0x18d0|            00 00 00 00                        |    ....        |          value: 0 0x18d4-0x18d7.7 (4)
0x18d0|                        00 00 00 00            |        ....    |          size: 0 0x18d8-0x18db.7 (4)
0x18d0|                                    04         |            .   |          bind: "local" (0) 0x18dc-0x18dc.3 (0.4)
0x18d0|                                    04         |            .   |          type: "file" (4) 0x18dc.4-0x18dc.7 (0.4)
0x18d0|                                       00      |             .  |          other_unused: 0 0x18dd-0x18dd.5 (0.6)
0x18d0|                                       00      |             .  |          visibility: "default" (0) 0x18dd.6-0x18dd.7 (0.2)
0x18d0|                                          f1 ff|              ..|          shndx: 65521 0x18de-0x18df.7 (2)
      |                                               |                |        [30]{}: symbol 0x18e0-0x18ef.7 (16)
0x18e0|09 00 00 00                                    |....            |          name: "$a" (9) 0x18e0-0x18e3.7 (4)
0x18e0|            d4 03 00 00                        |    ....        |          value: 980 0x18e4-0x18e7.7 (4)
0x18e0|                        00 00 00 00            |        ....    |          size: 0 0x18e8-0x18eb.7 (4)
0x18e0|                                    00         |            .   |          bind: "local" (0) 0x18ec-0x18ec.3 (0.4)
0x18e0|                                    00         |            .   |          type: "notype" (0) 0x18ec.4-0x18ec.7 (0.4)
0x18e0|                                       00      |             .  |          other_unused: 0 0x18ed-0x18ed.5 (0.6)
0x18e0|                                       00      |             .  |          visibility: "default" (0) 0x18ed.6-0x18ed.7 (0.2)
0x18e0|                                          09 00|              ..|          shndx: 9 0x18ee-0x18ef.7 (2)
      |                                               |                |        [31]{}: symbol 0x18f0-0x18ff.7 (16)
0x18f0|0c 00 00 00                                    |....            |          name: "$d" (12) 0x18f0-0x18f3.7 (4)
0x18f0|            f4 03 00 00                        |    ....        |          value: 1012 0x18f4-0x18f7.7 (4)
0x18f0|                        00 00 00 00            |        ....    |          size: 0 0x18f8-0x18fb.7 (4)
0x18f0|                                    00         |            .   |          bind: "local" (0) 0x18fc-0x18fc.3 (0.4)
0x18f0|                                    00         |            .   |          type: "notype" (0) 0x18fc.4-0x18fc.7 (0.4)
0x18f0|                                       00      |             .  |          other_unused: 0 0x18fd-0x18fd.5 (0.6)
0x18f0|                                       00      |             .  |          visibility: "default" (0) 0x18fd.6-0x18fd.7 (0.2)
0x18f0|                                          09 00|              ..|          shndx: 9 0x18fe-0x18ff.7 (2)
      |                                               |                |        [32]{}: symbol 0x1900-0x190f.7 (16)
0x1900|09 00 00 00                                    |....            |          name: "$a" (9) 0x1900-0x1903.7 (4)
0x1900|            f8 03 00 00                        |    ....        |          value: 1016 0x1904-0x1907.7 (4)
0x1900|                        00 00 00 00            |        ....    |          size: 0 0x1908-0x190b.7 (4)
0x1900|                                    00         |            .   |          bind: "local" (0) 0x190c-0x190c.3 (0.4)
0x1900|                                    00         |            .   |          type: "notype" (0) 0x190c.4-0x190c.7 (0.4)
0x1900|                                       00      |             .  |          other_unused: 0 0x190d-0x190d.5 (0.6)
0x1900|                                       00      |             .  |          visibility: "default" (0) 0x190d.6-0x190d.7 (0.2)
0x1900|                                          09 00|              ..|          shndx: 9 0x190e-0x190f.7 (2)
      |                                               |                |        [33]{}: symbol 0x1910-0x191f.7 (16)
0x1910|0c 00 00 00                                    |....            |          name: "$d" (12) 0x1910-0x1913.7 (4)
0x1910|            4c 04 00 00                        |    L...        |          value: 1100 0x1914-0x1917.7 (4)
0x1910|                        00 00 00 00            |        ....    |          size: 0 0x1918-0x191b.7 (4)
0x1910|                                    00         |            .   |          bind: "local" (0) 0x191c-0x191c.3 (0.4)
0x1910|                                    00         |            .   |          type: "notype" (0) 0x191c.4-0x191c.7 (0.4)
0x1910|                                       00      |             .  |          other_unused: 0 0x191d-0x191d.5 (0.6)
0x1910|                                       00      |             .  |          visibility: "default" (0) 0x191d.6-0x191d.7 (0.2)
0x1910|                                          09 00|              ..|          shndx: 9 0x191e-0x191f.7 (2)
      |                                               |                |        [34]{}: symbol 0x1920-0x192f.7 (16)
0x1920|0f 00 00 00                                    |....            |          name: "crti.o" (15) 0x1920-0x1923.7 (4)
0x1920|            00 00 00 00                        |    ....        |          value: 0 0x1924-0x1927.7 (4)
0x1920|                        00 00 00 00            |        ....    |          size: 0 0x1928-0x192b.7 (4)
0x1920|                                    04         |            .   |          bind: "local" (0) 0x192c-0x192c.3 (0.4)
0x1920|                                    04         |            .   |          type: "file" (4) 0x192c.4-0x192c.7 (0.4)
0x1920|                                       00      |             .  |          other_unused: 0 0x192d-0x192d.5 (0.6)
0x1920|                                       00      |             .  |          visibility: "default" (0) 0x192d.6-0x192d.7 (0.2)
0x1920|                                          f1 ff|              ..|          shndx: 65521 0x192e-0x192f.7 (2)
      |                                               |                |        [35]{}: symbol 0x1930-0x193f.7 (16)
0x1930|09 00 00 00                                    |....            |          name: "$a" (9) 0x1930-0x1933.7 (4)
0x1930|            6c 03 00 00                        |    l...        |          value: 876 0x1934-0x1937.7 (4)
0x1930|                        00 00 00 00            |        ....    |          size: 0 0x1938-0x193b.7 (4)
0x1930|                                    00         |            .   |          bind: "local" (0) 0x193c-0x193c.3 (0.4)
0x1930|                                    00         |            .   |          type: "notype" (0) 0x193c.4-0x193c.7 (0.4)
0x1930|                                       00      |             .  |          other_unused: 0 0x193d-0x193d.5 (0.6)
0x1930|                                       00      |             .  |          visibility: "default" (0) 0x193d.6-0x193d.7 (0.2)
0x1930|                                          07 00|              ..|          shndx: 7 0x193e-0x193f.7 (2)
      |                                               |                |        [36]{}: symbol 0x1940-0x194f.7 (16)
0x1940|09 00 00 00                                    |....            |          name: "$a" (9) 0x1940-0x1943.7 (4)
0x1940|            08 06 00 00                        |    ....        |          value: 1544 0x1944-0x1947.7 (4)
0x1940|                        00 00 00 00            |        ....    |          size: 0 0x1948-0x194b.7 (4)
0x1940|                                    00         |            .   |          bind: "local" (0) 0x194c-0x194c.3 (0.4)
0x1940|                                    00         |            .   |          type: "notype" (0) 0x194c.4-0x194c.7 (0.4)
0x1940|                                       00      |             .  |          other_unused: 0 0x194d-0x194d.5 (0.6)
0x1940|                                       00      |             .  |          visibility: "default" (0) 0x194d.6-0x194d.7 (0.2)
0x1940|                                          0a 00|              ..|          shndx: 10 0x194e-0x194f.7 (2)
      |                                               |                |        [37]{}: symbol 0x1950-0x195f.7 (16)
0x1950|16 00 00 00                                    |....            |          name: "crtn.o" (22) 0x1950-0x1953.7 (4)
0x1950|            00 00 00 00                        |    ....        |          value: 0 0x1954-0x1957.7 (4)
0x1950|                        00 00 00 00            |        ....    |          size: 0 0x1958-0x195b.7 (4)
0x1950|                                    04         |            .   |          bind: "local" (0) 0x195c-0x195c.3 (0.4)
0x1950|                                    04         |            .   |          type: "file" (4) 0x195c.4-0x195c.7 (0.4)
0x1950|                                       00      |             .  |          other_unused: 0 0x195d-0x195d.5 (0.6)
0x1950|                                       00      |             .  |          visibility: "default" (0) 0x195d.6-0x195d.7 (0.2)
0x1950|                                          f1 ff|              ..|          shndx: 65521 0x195e-0x195f.7 (2)
      |                                               |                |        [38]{}: symbol 0x1960-0x196f.7 (16)
0x1960|09 00 00 00                                    |....            |          name: "$a" (9) 0x1960-0x1963.7 (4)
0x1960|            70 03 00 00                        |    p...        |          value: 880 0x1964-0x1967.7 (4)
0x1960|                        00 00 00 00            |        ....    |          size: 0 0x1968-0x196b.7 (4)
0x1960|                                    00         |            .   |          bind: "local" (0) 0x196c-0x196c.3 (0.4)
0x1960|                                    00         |            .   |          type: "notype" (0) 0x196c.4-0x196c.7 (0.4)
0x1960|                                       00      |             .  |          other_unused: 0 0x196d-0x196d.5 (0.6)
0x1960|                                       00      |             .  |          visibility: "default" (0) 0x196d.6-0x196d.7 (0.2)
0x1960|                                          07 00|              ..|          shndx: 7 0x196e-0x196f.7 (2)
      |                                               |                |        [39]{}: symbol 0x1970-0x197f.7 (16)
0x1970|09 00 00 00                                    |....            |          name: "$a" (9) 0x1970-0x1973.7 (4)
0x1970|            0c 06 00 00                        |    ....        |          value: 1548 0x1974-0x1977.7 (4)
0x1970|                        00 00 00 00            |        ....    |          size: 0 0x1978-0x197b.7 (4)
0x1970|                                    00         |            .   |          bind: "local" (0) 0x197c-0x197c.3 (0.4)
0x1970|                                    00         |            .   |          type: "notype" (0) 0x197c.4-0x197c.7 (0.4)
0x1970|                                       00      |             .  |          other_unused: 0 0x197d-0x197d.5 (0.6)
0x1970|                                       00      |             .  |          visibility: "default" (0) 0x197d.6-0x197d.7 (0.2)
0x1970|                                          0a 00|              ..|          shndx: 10 0x197e-0x197f.7 (2)
      |                                               |                |        [40]{}: symbol 0x1980-0x198f.7 (16)
0x1980|1d 00 00 00                                    |....            |          name: "crtstuff.c" (29) 0x1980-0x1983.7 (4)
0x1980|            00 00 00 00                        |    ....        |          value: 0 0x1984-0x1987.7 (4)
0x1980|                        00 00 00 00            |        ....    |          size: 0 0x1988-0x198b.7 (4)
0x1980|                                    04         |            .   |          bind: "local" (0) 0x198c-0x198c.3 (0.4)
0x1980|                                    04         |            .   |          type: "file" (4) 0x198c.4-0x198c.7 (0.4)
0x1980|                                       00      |             .  |          other_unused: 0 0x198d-0x198d.5 (0.6)
0x1980|                                       00      |             .  |          visibility: "default" (0) 0x198d.6-0x198d.7 (0.2)
0x1980|                                          f1 ff|              ..|          shndx: 65521 0x198e-0x198f.7 (2)
      |                                               |                |        [41]{}: symbol 0x1990-0x199f.7 (16)
0x1990|0c 00 00 00                                    |....            |          name: "$d" (12) 0x1990-0x1993.7 (4)
0x1990|            14 06 00 00                        |    ....        |          value: 1556 0x1994-0x1997.7 (4)
0x1990|                        00 00 00 00            |        ....    |          size: 0 0x1998-0x199b.7 (4)
0x1990|                                    00         |            .   |          bind: "local" (0) 0x199c-0x199c.3 (0.4)
0x1990|                                    00         |            .   |          type: "notype" (0) 0x199c.4-0x199c.7 (0.4)
0x1990|                                       00      |             .  |          other_unused: 0 0x199d-0x199d.5 (0.6)
0x1990|                                       00      |             .  |          visibility: "default" (0) 0x199d.6-0x199d.7 (0.2)
0x1990|                                          0b 00|              ..|          shndx: 11 0x199e-0x199f.7 (2)
      |                                               |                |        [42]{}: symbol 0x19a0-0x19af.7 (16)
0x19a0|28 00 00 00                                    |(...            |          name: "all_implied_fbits" (40) 0x19a0-0x19a3.7 (4)
0x19a0|            14 06 00 00                        |    ....        |          value: 1556 0x19a4-0x19a7.7 (4)
0x19a0|                        00 00 00 00            |        ....    |          size: 0 0x19a8-0x19ab.7 (4)
0x19a0|                                    01         |            .   |          bind: "local" (0) 0x19ac-0x19ac.3 (0.4)
0x19a0|                                    01         |            .   |          type: "object" (1) 0x19ac.4-0x19ac.7 (0.4)
0x19a0|                                       00      |             .  |          other_unused: 0 0x19ad-0x19ad.5 (0.6)
0x19a0|                                       00      |             .  |          visibility: "default" (0) 0x19ad.6-0x19ad.7 (0.2)
0x19a0|                                          0b 00|              ..|          shndx: 11 0x19ae-0x19af.7 (2)
      |                                               |                |        [43]{}: symbol 0x19b0-0x19bf.7 (16)
0x19b0|00 00 00 00                                    |....            |          name: "" (0) 0x19b0-0x19b3.7 (4)
0x19b0|            38 07 00 00                        |    8...        |          value: 1848 0x19b4-0x19b7.7 (4)
0x19b0|                        00 00 00 00            |        ....    |          size: 0 0x19b8-0x19bb.7 (4)
0x19b0|                                    01         |            .   |          bind: "local" (0) 0x19bc-0x19bc.3 (0.4)
0x19b0|                                    01         |            .   |          type: "object" (1) 0x19bc.4-0x19bc.7 (0.4)
0x19b0|                                       00      |             .  |          other_unused: 0 0x19bd-0x19bd.5 (0.6)
0x19b0|                                       00      |             .  |          visibility: "default" (0) 0x19bd.6-0x19bd.7 (0.2)
0x19b0|                                          0c 00|              ..|          shndx: 12 0x19be-0x19bf.7 (2)
      |                                               |                |        [44]{}: symbol 0x19c0-0x19cf.7 (16)
0x19c0|09 00 00 00                                    |....            |          name: "$a" (9) 0x19c0-0x19c3.7 (4)
0x19c0|            5c 04 00 00                        |    \...        |          value: 1116 0x19c4-0x19c7.7 (4)
0x19c0|                        00 00 00 00            |        ....    |          size: 0 0x19c8-0x19cb.7 (4)
0x19c0|                                    00         |            .   |          bind: "local" (0) 0x19cc-0x19cc.3 (0.4)
0x19c0|                                    00         |            .   |          type: "notype" (0) 0x19cc.4-0x19cc.7 (0.4)
0x19c0|                                       00      |             .  |          other_unused: 0 0x19cd-0x19cd.5 (0.6)
0x19c0|                                       00      |             .  |          visibility: "default" (0) 0x19cd.6-0x19cd.7 (0.2)
0x19c0|                                          09 00|              ..|          shndx: 9 0x19ce-0x19cf.7 (2)
      |                                               |                |        [45]{}: symbol 0x19d0-0x19df.7 (16)
0x19d0|3a 00 00 00                                    |:...            |          name: "deregister_tm_clones" (58) 0x19d0-0x19d3.7 (4)
0x19d0|            5c 04 00 00                        |    \...        |          value: 1116 0x19d4-0x19d7.7 (4)
0x19d0|                        00 00 00 00            |        ....    |          size: 0 0x19d8-0x19db.7 (4)
0x19d0|                                    02         |            .   |          bind: "local" (0) 0x19dc-0x19dc.3 (0.4)
0x19d0|                                    02         |            .   |          type: "func" (2) 0x19dc.4-0x19dc.7 (0.4)
0x19d0|                                       00      |             .  |          other_unused: 0 0x19dd-0x19dd.5 (0.6)
0x19d0|                                       00      |             .  |          visibility: "default" (0) 0x19dd.6-0x19dd.7 (0.2)
0x19d0|                                          09 00|              ..|          shndx: 9 0x19de-0x19df.7 (2)
      |                                               |                |        [46]{}: symbol 0x19e0-0x19ef.7 (16)
0x19e0|0c 00 00 00                                    |....            |          name: "$d" (12) 0x19e0-0x19e3.7 (4)
0x19e0|            90 04 00 00                        |    ....        |          value: 1168 0x19e4-0x19e7.7 (4)
0x19e0|                        00 00 00 00            |        ....    |          size: 0 0x19e8-0x19eb.7 (4)
0x19e0|                                    00         |            .   |          bind: "local" (0) 0x19ec-0x19ec.3 (0.4)
0x19e0|                                    00         |            .   |          type: "notype" (0) 0x19ec.4-0x19ec.7 (0.4)
0x19e0|                                       00      |             .  |          other_unused: 0 0x19ed-0x19ed.5 (0.6)
0x19e0|                                       00      |             .  |          visibility: "default" (0) 0x19ed.6-0x19ed.7 (0.2)
0x19e0|                                          09 00|              ..|          shndx: 9 0x19ee-0x19ef.7 (2)
      |                                               |                |        [47]{}: symbol 0x19f0-0x19ff.7 (16)
0x19f0|09 00 00 00                                    |....            |          name: "$a" (9) 0x19f0-0x19f3.7 (4)
0x19f0|            a0 04 00 00                        |    ....        |          value: 1184 0x19f4-0x19f7.7 (4)
0x19f0|                        00 00 00 00            |        ....    |          size: 0 0x19f8-0x19fb.7 (4)
0x19f0|                                    00         |            .   |          bind: "local" (0) 0x19fc-0x19fc.3 (0.4)
0x19f0|                                    00         |            .   |          type: "notype" (0) 0x19fc.4-0x19fc.7 (0.4)
0x19f0|                                       00      |             .  |          other_unused: 0 0x19fd-0x19fd.5 (0.6)
0x19f0|                                       00      |             .  |          visibility: "default" (0) 0x19fd.6-0x19fd.7 (0.2)
0x19f0|                                          09 00|              ..|          shndx: 9 0x19fe-0x19ff.7 (2)
      |                                               |                |        [48]{}: symbol 0x1a00-0x1a0f.7 (16)
0x1a00|3c 00 00 00                                    |<...            |          name: "register_tm_clones" (60) 0x1a00-0x1a03.7 (4)
0x1a00|            a0 04 00 00                        |    ....        |          value: 1184 0x1a04-0x1a07.7 (4)
0x1a00|                        00 00 00 00            |        ....    |          size: 0 0x1a08-0x1a0b.7 (4)
0x1a00|                                    02         |            .   |          bind: "local" (0) 0x1a0c-0x1a0c.3 (0.4)
0x1a00|                                    02         |            .   |          type: "func" (2) 0x1a0c.4-0x1a0c.7 (0.4)
0x1a00|                                       00      |             .  |          other_unused: 0 0x1a0d-0x1a0d.5 (0.6)
0x1a00|                                       00      |             .  |          visibility: "default" (0) 0x1a0d.6-0x1a0d.7 (0.2)
0x1a00|                                          09 00|              ..|          shndx: 9 0x1a0e-0x1a0f.7 (2)
      |                                               |                |        [49]{}: symbol 0x1a10-0x1a1f.7 (16)
0x1a10|0c 00 00 00                                    |....            |          name: "$d" (12) 0x1a10-0x1a13.7 (4)
0x1a10|            e0 04 00 00                        |    ....        |          value: 1248 0x1a14-0x1a17.7 (4)
0x1a10|                        00 00 00 00            |        ....    |          size: 0 0x1a18-0x1a1b.7 (4)
0x1a10|                                    00         |            .   |          bind: "local" (0) 0x1a1c-0x1a1c.3 (0.4)
0x1a10|                                    00         |            .   |          type: "notype" (0) 0x1a1c.4-0x1a1c.7 (0.4)
0x1a10|                                       00      |             .  |          other_unused: 0 0x1a1d-0x1a1d.5 (0.6)
0x1a10|                                       00      |             .  |          visibility: "default" (0) 0x1a1d.6-0x1a1d.7 (0.2)
0x1a10|                                          09 00|              ..|          shndx: 9 0x1a1e-0x1a1f.7 (2)
      |                                               |                |        [50]{}: symbol 0x1a20-0x1a2f.7 (16)
0x1a20|0c 00 00 00                                    |....            |          name: "$d" (12) 0x1a20-0x1a23.7 (4)
0x1a20|            00 10 01 00                        |    ....        |          value: 69632 0x1a24-0x1a27.7 (4)
0x1a20|                        00 00 00 00            |        ....    |          size: 0 0x1a28-0x1a2b.7 (4)
0x1a20|                                    00         |            .   |          bind: "local" (0) 0x1a2c-0x1a2c.3 (0.4)
0x1a20|                                    00         |            .   |          type: "notype" (0) 0x1a2c.4-0x1a2c.7 (0.4)
0x1a20|                                       00      |             .  |          other_unused: 0 0x1a2d-0x1a2d.5 (0.6)
0x1a20|                                       00      |             .  |          visibility: "default" (0) 0x1a2d.6-0x1a2d.7 (0.2)
0x1a20|                                          11 00|              ..|          shndx: 17 0x1a2e-0x1a2f.7 (2)
      |                                               |                |        [51]{}: symbol 0x1a30-0x1a3f.7 (16)
0x1a30|09 00 00 00                                    |....            |          name: "$a" (9) 0x1a30-0x1a33.7 (4)
0x1a30|            f0 04 00 00                        |    ....        |          value: 1264 0x1a34-0x1a37.7 (4)
0x1a30|                        00 00 00 00            |        ....    |          size: 0 0x1a38-0x1a3b.7 (4)
0x1a30|                                    00         |            .   |          bind: "local" (0) 0x1a3c-0x1a3c.3 (0.4)
0x1a30|                                    00         |            .   |          type: "notype" (0) 0x1a3c.4-0x1a3c.7 (0.4)
0x1a30|                                       00      |             .  |          other_unused: 0 0x1a3d-0x1a3d.5 (0.6)
0x1a30|                                       00      |             .  |          visibility: "default" (0) 0x1a3d.6-0x1a3d.7 (0.2)
0x1a30|                                          09 00|              ..|          shndx: 9 0x1a3e-0x1a3f.7 (2)
      |                                               |                |        [52]{}: symbol 0x1a40-0x1a4f.7 (16)
0x1a40|4f 00 00 00                                    |O...            |          name: "__do_global_dtors_aux" (79) 0x1a40-0x1a43.7 (4)
0x1a40|            f0 04 00 00                        |    ....        |          value: 1264 0x1a44-0x1a47.7 (4)
0x1a40|                        00 00 00 00            |        ....    |          size: 0 0x1a48-0x1a4b.7 (4)
0x1a40|                                    02         |            .   |          bind: "local" (0) 0x1a4c-0x1a4c.3 (0.4)
0x1a40|                                    02         |            .   |          type: "func" (2) 0x1a4c.4-0x1a4c.7 (0.4)
0x1a40|                                       00      |             .  |          other_unused: 0 0x1a4d-0x1a4d.5 (0.6)
0x1a40|                                       00      |             .  |          visibility: "default" (0) 0x1a4d.6-0x1a4d.7 (0.2)
0x1a40|                                          09 00|              ..|          shndx: 9 0x1a4e-0x1a4f.7 (2)
      |                                               |                |        [53]{}: symbol 0x1a50-0x1a5f.7 (16)
0x1a50|0c 00 00 00                                    |....            |          name: "$d" (12) 0x1a50-0x1a53.7 (4)
0x1a50|            60 05 00 00                        |    `...        |          value: 1376 0x1a54-0x1a57.7 (4)
0x1a50|                        00 00 00 00            |        ....    |          size: 0 0x1a58-0x1a5b.7 (4)
0x1a50|                                    00         |            .   |          bind: "local" (0) 0x1a5c-0x1a5c.3 (0.4)
0x1a50|                                    00         |            .   |          type: "notype" (0) 0x1a5c.4-0x1a5c.7 (0.4)
0x1a50|                                       00      |             .  |          other_unused: 0 0x1a5d-0x1a5d.5 (0.6)
0x1a50|                                       00      |             .  |          visibility: "default" (0) 0x1a5d.6-0x1a5d.7 (0.2)
0x1a50|                                          09 00|              ..|          shndx: 9 0x1a5e-0x1a5f.7 (2)
      |                                               |                |        [54]{}: symbol 0x1a60-0x1a6f.7 (16)
0x1a60|65 00 00 00                                    |e...            |          name: "completed.1" (101) 0x1a60-0x1a63.7 (4)
0x1a60|            04 10 01 00                        |    ....        |          value: 69636 0x1a64-0x1a67.7 (4)
0x1a60|                        01 00 00 00            |        ....    |          size: 1 0x1a68-0x1a6b.7 (4)
0x1a60|                                    01         |            .   |          bind: "local" (0) 0x1a6c-0x1a6c.3 (0.4)
0x1a60|                                    01         |            .   |          type: "object" (1) 0x1a6c.4-0x1a6c.7 (0.4)
0x1a60|                                       00      |             .  |          other_unused: 0 0x1a6d-0x1a6d.5 (0.6)
0x1a60|                                       00      |             .  |          visibility: "default" (0) 0x1a6d.6-0x1a6d.7 (0.2)
0x1a60|                                          12 00|              ..|          shndx: 18 0x1a6e-0x1a6f.7 (2)
      |                                               |                |        [55]{}: symbol 0x1a70-0x1a7f.7 (16)
0x1a70|0c 00 00 00                                    |....            |          name: "$d" (12) 0x1a70-0x1a73.7 (4)
0x1a70|            d0 0e 01 00                        |    ....        |          value: 69328 0x1a74-0x1a77.7 (4)
0x1a70|                        00 00 00 00            |        ....    |          size: 0 0x1a78-0x1a7b.7 (4)
0x1a70|                                    00         |            .   |          bind: "local" (0) 0x1a7c-0x1a7c.3 (0.4)
0x1a70|                                    00         |            .   |          type: "notype" (0) 0x1a7c.4-0x1a7c.7 (0.4)
0x1a70|                                       00      |             .  |          other_unused: 0 0x1a7d-0x1a7d.5 (0.6)
0x1a70|                                       00      |             .  |          visibility: "default" (0) 0x1a7d.6-0x1a7d.7 (0.2)
0x1a70|                                          0e 00|              ..|          shndx: 14 0x1a7e-0x1a7f.7 (2)
      |                                               |                |        [56]{}: symbol 0x1a80-0x1a8f.7 (16)
0x1a80|71 00 00 00                                    |q...            |          name: "__do_global_dtors_aux_fini_array_entry" (113) 0x1a80-0x1a83.7 (4)
0x1a80|            d0 0e 01 00                        |    ....        |          value: 69328 0x1a84-0x1a87.7 (4)
0x1a80|                        00 00 00 00            |        ....    |          size: 0 0x1a88-0x1a8b.7 (4)
0x1a80|                                    01         |            .   |          bind: "local" (0) 0x1a8c-0x1a8c.3 (0.4)
0x1a80|                                    01         |            .   |          type: "object" (1) 0x1a8c.4-0x1a8c.7 (0.4)
0x1a80|                                       00      |             .  |          other_unused: 0 0x1a8d-0x1a8d.5 (0.6)
0x1a80|                                       00      |             .  |          visibility: "default" (0) 0x1a8d.6-0x1a8d.7 (0.2)
0x1a80|                                          0e 00|              ..|          shndx: 14 0x1a8e-0x1a8f.7 (2)
      |                                               |                |        [57]{}: symbol 0x1a90-0x1a9f.7 (16)
0x1a90|09 00 00 00                                    |....            |          name: "$a" (9) 0x1a90-0x1a93.7 (4)
0x1a90|            7c 05 00 00                        |    |...        |          value: 1404 0x1a94-0x1a97.7 (4)
0x1a90|                        00 00 00 00            |        ....    |          size: 0 0x1a98-0x1a9b.7 (4)
0x1a90|                                    00         |            .   |          bind: "local" (0) 0x1a9c-0x1a9c.3 (0.4)
0x1a90|                                    00         |            .   |          type: "notype" (0) 0x1a9c.4-0x1a9c.7 (0.4)
0x1a90|                                       00      |             .  |          other_unused: 0 0x1a9d-0x1a9d.5 (0.6)
0x1a90|                                       00      |             .  |          visibility: "default" (0) 0x1a9d.6-0x1a9d.7 (0.2)
0x1a90|                                          09 00|              ..|          shndx: 9 0x1a9e-0x1a9f.7 (2)
      |                                               |                |        [58]{}: symbol 0x1aa0-0x1aaf.7 (16)
0x1aa0|98 00 00 00                                    |....            |          name: "frame_dummy" (152) 0x1aa0-0x1aa3.7 (4)
0x1aa0|            7c 05 00 00                        |    |...        |          value: 1404 0x1aa4-0x1aa7.7 (4)
0x1aa0|                        00 00 00 00            |        ....    |          size: 0 0x1aa8-0x1aab.7 (4)
0x1aa0|                                    02         |            .   |          bind: "local" (0) 0x1aac-0x1aac.3 (0.4)
0x1aa0|                                    02         |            .   |          type: "func" (2) 0x1aac.4-0x1aac.7 (0.4)
0x1aa0|                                       00      |             .  |          other_unused: 0 0x1aad-0x1aad.5 (0.6)
0x1aa0|                                       00      |             .  |          visibility: "default" (0) 0x1aad.6-0x1aad.7 (0.2)
0x1aa0|                                          09 00|              ..|          shndx: 9 0x1aae-0x1aaf.7 (2)
      |                                               |                |        [59]{}: symbol 0x1ab0-0x1abf.7 (16)
0x1ab0|0c 00 00 00                                    |....            |          name: "$d" (12) 0x1ab0-0x1ab3.7 (4)
0x1ab0|            b8 05 00 00                        |    ....        |          value: 1464 0x1ab4-0x1ab7.7 (4)
0x1ab0|                        00 00 00 00            |        ....    |          size: 0 0x1ab8-0x1abb.7 (4)
0x1ab0|                                    00         |            .   |          bind: "local" (0) 0x1abc-0x1abc.3 (0.4)
0x1ab0|                                    00         |            .   |          type: "notype" (0) 0x1abc.4-0x1abc.7 (0.4)
0x1ab0|                                       00      |             .  |          other_unused: 0 0x1abd-0x1abd.5 (0.6)
0x1ab0|                                       00      |             .  |          visibility: "default" (0) 0x1abd.6-0x1abd.7 (0.2)
0x1ab0|                                          09 00|              ..|          shndx: 9 0x1abe-0x1abf.7 (2)
      |                                               |                |        [60]{}: symbol 0x1ac0-0x1acf.7 (16)
0x1ac0|a4 00 00 00                                    |....            |          name: "object.0" (164) 0x1ac0-0x1ac3.7 (4)
0x1ac0|            08 10 01 00                        |    ....        |          value: 69640 0x1ac4-0x1ac7.7 (4)
0x1ac0|                        18 00 00 00            |        ....    |          size: 24 0x1ac8-0x1acb.7 (4)
0x1ac0|                                    01         |            .   |          bind: "local" (0) 0x1acc-0x1acc.3 (0.4)
0x1ac0|                                    01         |            .   |          type: "object" (1) 0x1acc.4-0x1acc.7 (0.4)
0x1ac0|                                       00      |             .  |          other_unused: 0 0x1acd-0x1acd.5 (0.6)
0x1ac0|                                       00      |             .  |          visibility: "default" (0) 0x1acd.6-0x1acd.7 (0.2)
0x1ac0|                                          12 00|              ..|          shndx: 18 0x1ace-0x1acf.7 (2)
      |                                               |                |        [61]{}: symbol 0x1ad0-0x1adf.7 (16)
0x1ad0|0c 00 00 00                                    |....            |          name: "$d" (12) 0x1ad0-0x1ad3.7 (4)
0x1ad0|            cc 0e 01 00                        |    ....        |          value: 69324 0x1ad4-0x1ad7.7 (4)
0x1ad0|                        00 00 00 00            |        ....    |          size: 0 0x1ad8-0x1adb.7 (4)
0x1ad0|                                    00         |            .   |          bind: "local" (0) 0x1adc-0x1adc.3 (0.4)
0x1ad0|                                    00         |            .   |          type: "notype" (0) 0x1adc.4-0x1adc.7 (0.4)
0x1ad0|                                       00      |             .  |          other_unused: 0 0x1add-0x1add.5 (0.6)
0x1ad0|                                       00      |             .  |          visibility: "default" (0) 0x1add.6-0x1add.7 (0.2)
0x1ad0|                                          0d 00|              ..|          shndx: 13 0x1ade-0x1adf.7 (2)
      |                                               |                |        [62]{}: symbol 0x1ae0-0x1aef.7 (16)
0x1ae0|ad 00 00 00                                    |....            |          name: "__frame_dummy_init_array_entry" (173) 0x1ae0-0x1ae3.7 (4)
0x1ae0|            cc 0e 01 00                        |    ....        |          value: 69324 0x1ae4-0x1ae7.7 (4)
0x1ae0|                        00 00 00 00            |        ....    |          size: 0 0x1ae8-0x1aeb.7 (4)
0x1ae0|                                    01         |            .   |          bind: "local" (0) 0x1aec-0x1aec.3 (0.4)
0x1ae0|                                    01         |            .   |          type: "object" (1) 0x1aec.4-0x1aec.7 (0.4)
0x1ae0|                                       00      |             .  |          other_unused: 0 0x1aed-0x1aed.5 (0.6)
0x1ae0|                                       00      |             .  |          visibility: "default" (0) 0x1aed.6-0x1aed.7 (0.2)
0x1ae0|                                          0d 00|              ..|          shndx: 13 0x1aee-0x1aef.7 (2)
      |                                               |                |        [63]{}: symbol 0x1af0-0x1aff.7 (16)
0x1af0|0c 00 00 00                                    |....            |          name: "$d" (12) 0x1af0-0x1af3.7 (4)
0x1af0|            05 10 01 00                        |    ....        |          value: 69637 0x1af4-0x1af7.7 (4)
0x1af0|                        00 00 00 00            |        ....    |          size: 0 0x1af8-0x1afb.7 (4)
0x1af0|                                    00         |            .   |          bind: "local" (0) 0x1afc-0x1afc.3 (0.4)
0x1af0|                                    00         |            .   |          type: "notype" (0) 0x1afc.4-0x1afc.7 (0.4)
0x1af0|                                       00      |             .  |          other_unused: 0 0x1afd-0x1afd.5 (0.6)
0x1af0|                                       00      |             .  |          visibility: "default" (0) 0x1afd.6-0x1afd.7 (0.2)
0x1af0|                                          12 00|              ..|          shndx: 18 0x1afe-0x1aff.7 (2)
      |                                               |                |        [64]{}: symbol 0x1b00-0x1b0f.7 (16)
0x1b00|cc 00 00 00                                    |....            |          name: "a.c" (204) 0x1b00-0x1b03.7 (4)
0x1b00|            00 00 00 00                        |    ....        |          value: 0 0x1b04-0x1b07.7 (4)
0x1b00|                        00 00 00 00            |        ....    |          size: 0 0x1b08-0x1b0b.7 (4)
0x1b00|                                    04         |            .   |          bind: "local" (0) 0x1b0c-0x1b0c.3 (0.4)
0x1b00|                                    04         |            .   |          type: "file" (4) 0x1b0c.4-0x1b0c.7 (0.4)
0x1b00|                                       00      |             .  |          other_unused: 0 0x1b0d-0x1b0d.5 (0.6)
0x1b00|                                       00      |             .  |          visibility: "default" (0) 0x1b0d.6-0x1b0d.7 (0.2)
0x1b00|                                          f1 ff|              ..|          shndx: 65521 0x1b0e-0x1b0f.7 (2)
      |                                               |                |        [65]{}: symbol 0x1b10-0x1b1f.7 (16)
0x1b10|0c 00 00 00                                    |....            |          name: "$d" (12) 0x1b10-0x1b13.7 (4)
0x1b10|            a4 06 00 00                        |    ....        |          value: 1700 0x1b14-0x1b17.7 (4)
0x1b10|                        00 00 00 00            |        ....    |          size: 0 0x1b18-0x1b1b.7 (4)
0x1b10|                                    00         |            .   |          bind: "local" (0) 0x1b1c-0x1b1c.3 (0.4)
0x1b10|                                    00         |            .   |          type: "notype" (0) 0x1b1c.4-0x1b1c.7 (0.4)
0x1b10|                                       00      |             .  |          other_unused: 0 0x1b1d-0x1b1d.5 (0.6)
0x1b10|                                       00      |             .  |          visibility: "default" (0) 0x1b1d.6-0x1b1d.7 (0.2)
0x1b10|                                          0b 00|              ..|          shndx: 11 0x1b1e-0x1b1f.7 (2)
      |                                               |                |        [66]{}: symbol 0x1b20-0x1b2f.7 (16)
0x1b20|09 00 00 00                                    |....            |          name: "$a" (9) 0x1b20-0x1b23.7 (4)
0x1b20|            c8 05 00 00                        |    ....        |          value: 1480 0x1b24-0x1b27.7 (4)
0x1b20|                        00 00 00 00            |        ....    |          size: 0 0x1b28-0x1b2b.7 (4)
0x1b20|                                    00         |            .   |          bind: "local" (0) 0x1b2c-0x1b2c.3 (0.4)
0x1b20|                                    00         |            .   |          type: "notype" (0) 0x1b2c.4-0x1b2c.7 (0.4)
0x1b20|                                       00      |             .  |          other_unused: 0 0x1b2d-0x1b2d.5 (0.6)
0x1b20|                                       00      |             .  |          visibility: "default" (0) 0x1b2d.6-0x1b2d.7 (0.2)
0x1b20|                                          09 00|              ..|          shndx: 9 0x1b2e-0x1b2f.7 (2)
      |                                               |                |        [67]{}: symbol 0x1b30-0x1b3f.7 (16)
0x1b30|0c 00 00 00                                    |....            |          name: "$d" (12) 0x1b30-0x1b33.7 (4)
0x1b30|            e8 05 00 00                        |    ....        |          value: 1512 0x1b34-0x1b37.7 (4)
0x1b30|                        00 00 00 00            |        ....    |          size: 0 0x1b38-0x1b3b.7 (4)
0x1b30|                                    00         |            .   |          bind: "local" (0) 0x1b3c-0x1b3c.3 (0.4)
0x1b30|                                    00         |            .   |          type: "notype" (0) 0x1b3c.4-0x1b3c.7 (0.4)
0x1b30|                                       00      |             .  |          other_unused: 0 0x1b3d-0x1b3d.5 (0.6)
0x1b30|                                       00      |             .  |          visibility: "default" (0) 0x1b3d.6-0x1b3d.7 (0.2)
0x1b30|                                          09 00|              ..|          shndx: 9 0x1b3e-0x1b3f.7 (2)
      |                                               |                |        [68]{}: symbol 0x1b40-0x1b4f.7 (16)
0x1b40|09 00 00 00                                    |....            |          name: "$a" (9) 0x1b40-0x1b43.7 (4)
0x1b40|            ec 05 00 00                        |    ....        |          value: 1516 0x1b44-0x1b47.7 (4)
0x1b40|                        00 00 00 00            |        ....    |          size: 0 0x1b48-0x1b4b.7 (4)
0x1b40|                                    00         |            .   |          bind: "local" (0) 0x1b4c-0x1b4c.3 (0.4)
0x1b40|                                    00         |            .   |          type: "notype" (0) 0x1b4c.4-0x1b4c.7 (0.4)
0x1b40|                                       00      |             .  |          other_unused: 0 0x1b4d-0x1b4d.5 (0.6)
0x1b40|                                       00      |             .  |          visibility: "default" (0) 0x1b4d.6-0x1b4d.7 (0.2)
0x1b40|                                          09 00|              ..|          shndx: 9 0x1b4e-0x1b4f.7 (2)
      |                                               |                |        [69]{}: symbol 0x1b50-0x1b5f.7 (16)
0x1b50|1d 00 00 00                                    |....            |          name: "crtstuff.c" (29) 0x1b50-0x1b53.7 (4)
0x1b50|            00 00 00 00                        |    ....        |          value: 0 0x1b54-0x1b57.7 (4)
0x1b50|                        00 00 00 00            |        ....    |          size: 0 0x1b58-0x1b5b.7 (4)
0x1b50|                                    04         |            .   |          bind: "local" (0) 0x1b5c-0x1b5c.3 (0.4)
0x1b50|                                    04         |            .   |          type: "file" (4) 0x1b5c.4-0x1b5c.7 (0.4)
0x1b50|                                       00      |             .  |          other_unused: 0 0x1b5d-0x1b5d.5 (0.6)
0x1b50|                                       00      |             .  |          visibility: "default" (0) 0x1b5d.6-0x1b5d.7 (0.2)
0x1b50|                                          f1 ff|              ..|          shndx: 65521 0x1b5e-0x1b5f.7 (2)
      |                                               |                |        [70]{}: symbol 0x1b60-0x1b6f.7 (16)
0x1b60|0c 00 00 00                                    |....            |          name: "$d" (12) 0x1b60-0x1b63.7 (4)
0x1b60|            a8 06 00 00                        |    ....        |          value: 1704 0x1b64-0x1b67.7 (4)
0x1b60|                        00 00 00 00            |        ....    |          size: 0 0x1b68-0x1b6b.7 (4)
0x1b60|                                    00         |            .   |          bind: "local" (0) 0x1b6c-0x1b6c.3 (0.4)
0x1b60|                                    00         |            .   |          type: "notype" (0) 0x1b6c.4-0x1b6c.7 (0.4)
0x1b60|                                       00      |             .  |          other_unused: 0 0x1b6d-0x1b6d.5 (0.6)
0x1b60|                                       00      |             .  |          visibility: "default" (0) 0x1b6d.6-0x1b6d.7 (0.2)
0x1b60|                                          0b 00|              ..|          shndx: 11 0x1b6e-0x1b6f.7 (2)
      |                                               |                |        [71]{}: symbol 0x1b70-0x1b7f.7 (16)
0x1b70|28 00 00 00                                    |(...            |          name: "all_implied_fbits" (40) 0x1b70-0x1b73.7 (4)
0x1b70|            a8 06 00 00                        |    ....        |          value: 1704 0x1b74-0x1b77.7 (4)
0x1b70|                        00 00 00 00            |        ....    |          size: 0 0x1b78-0x1b7b.7 (4)
0x1b70|                                    01         |            .   |          bind: "local" (0) 0x1b7c-0x1b7c.3 (0.4)
0x1b70|                                    01         |            .   |          type: "object" (1) 0x1b7c.4-0x1b7c.7 (0.4)
0x1b70|                                       00      |             .  |          other_unused: 0 0x1b7d-0x1b7d.5 (0.6)
0x1b70|                                       00      |             .  |          visibility: "default" (0) 0x1b7d.6-0x1b7d.7 (0.2)
0x1b70|                                          0b 00|              ..|          shndx: 11 0x1b7e-0x1b7f.7 (2)
      |                                               |                |        [72]{}: symbol 0x1b80-0x1b8f.7 (16)
0x1b80|0c 00 00 00                                    |....            |          name: "$d" (12) 0x1b80-0x1b83.7 (4)
0x1b80|            38 07 00 00                        |    8...        |          value: 1848 0x1b84-0x1b87.7 (4)
0x1b80|                        00 00 00 00            |        ....    |          size: 0 0x1b88-0x1b8b.7 (4)
0x1b80|                                    00         |            .   |          bind: "local" (0) 0x1b8c-0x1b8c.3 (0.4)
0x1b80|                                    00         |            .   |          type: "notype" (0) 0x1b8c.4-0x1b8c.7 (0.4)
0x1b80|                                       00      |             .  |          other_unused: 0 0x1b8d-0x1b8d.5 (0.6)
0x1b80|                                       00      |             .  |          visibility: "default" (0) 0x1b8d.6-0x1b8d.7 (0.2)
0x1b80|                                          0c 00|              ..|          shndx: 12 0x1b8e-0x1b8f.7 (2)
      |                                               |                |        [73]{}: symbol 0x1b90-0x1b9f.7 (16)
0x1b90|d0 00 00 00                                    |....            |          name: "__FRAME_END__" (208) 0x1b90-0x1b93.7 (4)
0x1b90|            38 07 00 00                        |    8...        |          value: 1848 0x1b94-0x1b97.7 (4)
0x1b90|                        00 00 00 00            |        ....    |          size: 0 0x1b98-0x1b9b.7 (4)
0x1b90|                                    01         |            .   |          bind: "local" (0) 0x1b9c-0x1b9c.3 (0.4)
0x1b90|                                    01         |            .   |          type: "object" (1) 0x1b9c.4-0x1b9c.7 (0.4)
0x1b90|                                       00      |             .  |          other_unused: 0 0x1b9d-0x1b9d.5 (0.6)
0x1b90|                                       00      |             .  |          visibility: "default" (0) 0x1b9d.6-0x1b9d.7 (0.2)
0x1b90|                                          0c 00|              ..|          shndx: 12 0x1b9e-0x1b9f.7 (2)
      |                                               |                |        [74]{}: symbol 0x1ba0-0x1baf.7 (16)
0x1ba0|00 00 00 00                                    |....            |          name: "" (0) 0x1ba0-0x1ba3.7 (4)
0x1ba0|            00 00 00 00                        |    ....        |          value: 0 0x1ba4-0x1ba7.7 (4)
0x1ba0|                        00 00 00 00            |        ....    |          size: 0 0x1ba8-0x1bab.7 (4)
0x1ba0|                                    04         |            .   |          bind: "local" (0) 0x1bac-0x1bac.3 (0.4)
0x1ba0|                                    04         |            .   |          type: "file" (4) 0x1bac.4-0x1bac.7 (0.4)
0x1ba0|                                       00      |             .  |          other_unused: 0 0x1bad-0x1bad.5 (0.6)
0x1ba0|                                       00      |             .  |          visibility: "default" (0) 0x1bad.6-0x1bad.7 (0.2)
0x1ba0|                                          f1 ff|              ..|          shndx: 65521 0x1bae-0x1baf.7 (2)
      |                                               |                |        [75]{}: symbol 0x1bb0-0x1bbf.7 (16)
0x1bb0|de 00 00 00                                    |....            |          name: "_DYNAMIC" (222) 0x1bb0-0x1bb3.7 (4)
0x1bb0|            d4 0e 01 00                        |    ....        |          value: 69332 0x1bb4-0x1bb7.7 (4)
0x1bb0|                        00 00 00 00            |        ....    |          size: 0 0x1bb8-0x1bbb.7 (4)
0x1bb0|                                    01         |            .   |          bind: "local" (0) 0x1bbc-0x1bbc.3 (0.4)
0x1bb0|                                    01         |            .   |          type: "object" (1) 0x1bbc.4-0x1bbc.7 (0.4)
0x1bb0|                                       00      |             .  |          other_unused: 0 0x1bbd-0x1bbd.5 (0.6)
0x1bb0|                                       00      |             .  |          visibility: "default" (0) 0x1bbd.6-0x1bbd.7 (0.2)
0x1bb0|                                          f1 ff|              ..|          shndx: 65521 0x1bbe-0x1bbf.7 (2)
      |                                               |                |        [76]{}: symbol 0x1bc0-0x1bcf.7 (16)
0x1bc0|e7 00 00 00                                    |....            |          name: "_GLOBAL_OFFSET_TABLE_" (231) 0x1bc0-0x1bc3.7 (4)
0x1bc0|            bc 0f 01 00                        |    ....        |          value: 69564 0x1bc4-0x1bc7.7 (4)
0x1bc0|                        00 00 00 00            |        ....    |          size: 0 0x1bc8-0x1bcb.7 (4)
0x1bc0|                                    01         |            .   |          bind: "local" (0) 0x1bcc-0x1bcc.3 (0.4)
0x1bc0|                                    01         |            .   |          type: "object" (1) 0x1bcc.4-0x1bcc.7 (0.4)
0x1bc0|                                       00      |             .  |          other_unused: 0 0x1bcd-0x1bcd.5 (0.6)
0x1bc0|                                       00      |             .  |          visibility: "default" (0) 0x1bcd.6-0x1bcd.7 (0.2)
0x1bc0|                                          f1 ff|              ..|          shndx: 65521 0x1bce-0x1bcf.7 (2)
      |                                               |                |        [77]{}: symbol 0x1bd0-0x1bdf.7 (16)
0x1bd0|09 00 00 00                                    |....            |          name: "$a" (9) 0x1bd0-0x1bd3.7 (4)
0x1bd0|            78 03 00 00                        |    x...        |          value: 888 0x1bd4-0x1bd7.7 (4)
0x1bd0|                        00 00 00 00            |        ....    |          size: 0 0x1bd8-0x1bdb.7 (4)
0x1bd0|                                    00         |            .   |          bind: "local" (0) 0x1bdc-0x1bdc.3 (0.4)
0x1bd0|                                    00         |            .   |          type: "notype" (0) 0x1bdc.4-0x1bdc.7 (0.4)
0x1bd0|                                       00      |             .  |          other_unused: 0 0x1bdd-0x1bdd.5 (0.6)
0x1bd0|                                       00      |             .  |          visibility: "default" (0) 0x1bdd.6-0x1bdd.7 (0.2)
0x1bd0|                                          08 00|              ..|          shndx: 8 0x1bde-0x1bdf.7 (2)
      |                                               |                |        [78]{}: symbol 0x1be0-0x1bef.7 (16)
0x1be0|0c 00 00 00                                    |....            |          name: "$d" (12) 0x1be0-0x1be3.7 (4)
0x1be0|            88 03 00 00                        |    ....        |          value: 904 0x1be4-0x1be7.7 (4)
0x1be0|                        00 00 00 00            |        ....    |          size: 0 0x1be8-0x1beb.7 (4)
0x1be0|                                    00         |            .   |          bind: "local" (0) 0x1bec-0x1bec.3 (0.4)
0x1be0|                                    00         |            .   |          type: "notype" (0) 0x1bec.4-0x1bec.7 (0.4)
0x1be0|                                       00      |             .  |          other_unused: 0 0x1bed-0x1bed.5 (0.6)
0x1be0|                                       00      |             .  |          visibility: "default" (0) 0x1bed.6-0x1bed.7 (0.2)
0x1be0|                                          08 00|              ..|          shndx: 8 0x1bee-0x1bef.7 (2)
      |                                               |                |        [79]{}: symbol 0x1bf0-0x1bff.7 (16)
0x1bf0|09 00 00 00                                    |....            |          name: "$a" (9) 0x1bf0-0x1bf3.7 (4)
0x1bf0|            8c 03 00 00                        |    ....        |          value: 908 0x1bf4-0x1bf7.7 (4)
0x1bf0|                        00 00 00 00            |        ....    |          size: 0 0x1bf8-0x1bfb.7 (4)
0x1bf0|                                    00         |            .   |          bind: "local" (0) 0x1bfc-0x1bfc.3 (0.4)
0x1bf0|                                    00         |            .   |          type: "notype" (0) 0x1bfc.4-0x1bfc.7 (0.4)
0x1bf0|                                       00      |             .  |          other_unused: 0 0x1bfd-0x1bfd.5 (0.6)
0x1bf0|                                       00      |             .  |          visibility: "default" (0) 0x1bfd.6-0x1bfd.7 (0.2)
0x1bf0|                                          08 00|              ..|          shndx: 8 0x1bfe-0x1bff.7 (2)
      |                                               |                |        [80]{}: symbol 0x1c00-0x1c0f.7 (16)
0x1c00|75 01 00 00                                    |u...            |          name: "_bss_end__" (373) 0x1c00-0x1c03.7 (4)
0x1c00|            20 10 01 00                        |     ...        |          value: 69664 0x1c04-0x1c07.7 (4)
0x1c00|                        00 00 00 00            |        ....    |          size: 0 0x1c08-0x1c0b.7 (4)
0x1c00|                                    10         |            .   |          bind: "global" (1) 0x1c0c-0x1c0c.3 (0.4)
0x1c00|                                    10         |            .   |          type: "notype" (0) 0x1c0c.4-0x1c0c.7 (0.4)
0x1c00|                                       00      |             .  |          other_unused: 0 0x1c0d-0x1c0d.5 (0.6)
0x1c00|                                       00      |             .  |          visibility: "default" (0) 0x1c0d.6-0x1c0d.7 (0.2)
0x1c00|                                          12 00|              ..|          shndx: 18 0x1c0e-0x1c0f.7 (2)
      |                                               |                |        [81]{}: symbol 0x1c10-0x1c1f.7 (16)
0x1c10|fd 00 00 00                                    |....            |          name: "__TMC_END__" (253) 0x1c10-0x1c13.7 (4)
0x1c10|            04 10 01 00                        |    ....        |          value: 69636 0x1c14-0x1c17.7 (4)
0x1c10|                        00 00 00 00            |        ....    |          size: 0 0x1c18-0x1c1b.7 (4)
0x1c10|                                    11         |            .   |          bind: "global" (1) 0x1c1c-0x1c1c.3 (0.4)
0x1c10|                                    11         |            .   |          type: "object" (1) 0x1c1c.4-0x1c1c.7 (0.4)
0x1c10|                                       02      |             .  |          other_unused: 0 0x1c1d-0x1c1d.5 (0.6)
0x1c10|                                       02      |             .  |          visibility: "hidden" (2) 0x1c1d.6-0x1c1d.7 (0.2)
0x1c10|                                          11 00|              ..|          shndx: 17 0x1c1e-0x1c1f.7 (2)
      |                                               |                |        [82]{}: symbol 0x1c20-0x1c2f.7 (16)
0x1c20|09 01 00 00                                    |....            |          name: "puts" (265) 0x1c20-0x1c23.7 (4)
0x1c20|            00 00 00 00                        |    ....        |          value: 0 0x1c24-0x1c27.7 (4)
0x1c20|                        00 00 00 00            |        ....    |          size: 0 0x1c28-0x1c2b.7 (4)
0x1c20|                                    12         |            .   |          bind: "global" (1) 0x1c2c-0x1c2c.3 (0.4)
0x1c20|                                    12         |            .   |          type: "func" (2) 0x1c2c.4-0x1c2c.7 (0.4)
0x1c20|                                       00      |             .  |          other_unused: 0 0x1c2d-0x1c2d.5 (0.6)
0x1c20|                                       00      |             .  |          visibility: "default" (0) 0x1c2d.6-0x1c2d.7 (0.2)
0x1c20|                                          00 00|              ..|          shndx: 0 0x1c2e-0x1c2f.7 (2)
      |                                               |                |        [83]{}: symbol 0x1c30-0x1c3f.7 (16)
0x1c30|0e 01 00 00                                    |....            |          name: "__cxa_finalize" (270) 0x1c30-0x1c33.7 (4)
0x1c30|            00 00 00 00                        |    ....        |          value: 0 0x1c34-0x1c37.7 (4)
0x1c30|                        00 00 00 00            |        ....    |          size: 0 0x1c38-0x1c3b.7 (4)
0x1c30|                                    22         |            "   |          bind: "weak" (2) 0x1c3c-0x1c3c.3 (0.4)
0x1c30|                                    22         |            "   |          type: "func" (2) 0x1c3c.4-0x1c3c.7 (0.4)
0x1c30|                                       00      |             .  |          other_unused: 0 0x1c3d-0x1c3d.5 (0.6)
0x1c30|                                       00      |             .  |          visibility: "default" (0) 0x1c3d.6-0x1c3d.7 (0.2)
0x1c30|                                          00 00|              ..|          shndx: 0 0x1c3e-0x1c3f.7 (2)
      |                                               |                |        [84]{}: symbol 0x1c40-0x1c4f.7 (16)
0x1c40|1d 01 00 00                                    |....            |          name: "__bss_start__" (285) 0x1c40-0x1c43.7 (4)
0x1c40|            04 10 01 00                        |    ....        |          value: 69636 0x1c44-0x1c47.7 (4)
0x1c40|                        00 00 00 00            |        ....    |          size: 0 0x1c48-0x1c4b.7 (4)
0x1c40|                                    10         |            .   |          bind: "global" (1) 0x1c4c-0x1c4c.3 (0.4)
0x1c40|                                    10         |            .   |          type: "notype" (0) 0x1c4c.4-0x1c4c.7 (0.4)
0x1c40|                                       00      |             .  |          other_unused: 0 0x1c4d-0x1c4d.5 (0.6)
0x1c40|                                       00      |             .  |          visibility: "default" (0) 0x1c4d.6-0x1c4d.7 (0.2)
0x1c40|                                          12 00|              ..|          shndx: 18 0x1c4e-0x1c4f.7 (2)
      |                                               |                |        [85]{}: symbol 0x1c50-0x1c5f.7 (16)
0x1c50|2b 01 00 00                                    |+...            |          name: "__dso_handle" (299) 0x1c50-0x1c53.7 (4)
0x1c50|            00 10 01 00                        |    ....        |          value: 69632 0x1c54-0x1c57.7 (4)
0x1c50|                        00 00 00 00            |        ....    |          size: 0 0x1c58-0x1c5b.7 (4)
0x1c50|                                    11         |            .   |          bind: "global" (1) 0x1c5c-0x1c5c.3 (0.4)
0x1c50|                                    11         |            .   |          type: "object" (1) 0x1c5c.4-0x1c5c.7 (0.4)
0x1c50|                                       02      |             .  |          other_unused: 0 0x1c5d-0x1c5d.5 (0.6)
0x1c50|                                       02      |             .  |          visibility: "hidden" (2) 0x1c5d.6-0x1c5d.7 (0.2)
0x1c50|                                          11 00|              ..|          shndx: 17 0x1c5e-0x1c5f.7 (2)
      |                                               |                |        [86]{}: symbol 0x1c60-0x1c6f.7 (16)
0x1c60|38 01 00 00                                    |8...            |          name: "aaa" (312) 0x1c60-0x1c63.7 (4)
0x1c60|            c8 05 00 00                        |    ....        |          value: 1480 0x1c64-0x1c67.7 (4)
0x1c60|                        24 00 00 00            |        $...    |          size: 36 0x1c68-0x1c6b.7 (4)
0x1c60|                                    12         |            .   |          bind: "global" (1) 0x1c6c-0x1c6c.3 (0.4)
0x1c60|                                    12         |            .   |          type: "func" (2) 0x1c6c.4-0x1c6c.7 (0.4)
0x1c60|                                       00      |             .  |          other_unused: 0 0x1c6d-0x1c6d.5 (0.6)
0x1c60|                                       00      |             .  |          visibility: "default" (0) 0x1c6d.6-0x1c6d.7 (0.2)
0x1c60|                                          09 00|              ..|          shndx: 9 0x1c6e-0x1c6f.7 (2)
      |                                               |                |        [87]{}: symbol 0x1c70-0x1c7f.7 (16)
0x1c70|3c 01 00 00                                    |<...            |          name: "_init" (316) 0x1c70-0x1c73.7 (4)
0x1c70|            6c 03 00 00                        |    l...        |          value: 876 0x1c74-0x1c77.7 (4)
0x1c70|                        04 00 00 00            |        ....    |          size: 4 0x1c78-0x1c7b.7 (4)
0x1c70|                                    12         |            .   |          bind: "global" (1) 0x1c7c-0x1c7c.3 (0.4)
0x1c70|                                    12         |            .   |          type: "func" (2) 0x1c7c.4-0x1c7c.7 (0.4)
0x1c70|                                       00      |             .  |          other_unused: 0 0x1c7d-0x1c7d.5 (0.6)
0x1c70|                                       00      |             .  |          visibility: "default" (0) 0x1c7d.6-0x1c7d.7 (0.2)
0x1c70|                                          07 00|              ..|          shndx: 7 0x1c7e-0x1c7f.7 (2)
      |                                               |                |        [88]{}: symbol 0x1c80-0x1c8f.7 (16)
0x1c80|42 01 00 00                                    |B...            |          name: "__deregister_frame_info" (322) 0x1c80-0x1c83.7 (4)
0x1c80|            00 00 00 00                        |    ....        |          value: 0 0x1c84-0x1c87.7 (4)
0x1c80|                        00 00 00 00            |        ....    |          size: 0 0x1c88-0x1c8b.7 (4)
0x1c80|                                    20         |                |          bind: "weak" (2) 0x1c8c-0x1c8c.3 (0.4)
0x1c80|                                    20         |                |          type: "notype" (0) 0x1c8c.4-0x1c8c.7 (0.4)
0x1c80|                                       00      |             .  |          other_unused: 0 0x1c8d-0x1c8d.5 (0.6)
0x1c80|                                       00      |             .  |          visibility: "default" (0) 0x1c8d.6-0x1c8d.7 (0.2)
0x1c80|                                          00 00|              ..|          shndx: 0 0x1c8e-0x1c8f.7 (2)
      |                                               |                |        [89]{}: symbol 0x1c90-0x1c9f.7 (16)
0x1c90|5a 01 00 00                                    |Z...            |          name: "_ITM_registerTMCloneTable" (346) 0x1c90-0x1c93.7 (4)
0x1c90|            00 00 00 00                        |    ....        |          value: 0 0x1c94-0x1c97.7 (4)
0x1c90|                        00 00 00 00            |        ....    |          size: 0 0x1c98-0x1c9b.7 (4)
0x1c90|                                    20         |                |          bind: "weak" (2) 0x1c9c-0x1c9c.3 (0.4)
0x1c90|                                    20         |                |          type: "notype" (0) 0x1c9c.4-0x1c9c.7 (0.4)
0x1c90|                                       00      |             .  |          other_unused: 0 0x1c9d-0x1c9d.5 (0.6)
0x1c90|                                       00      |             .  |          visibility: "default" (0) 0x1c9d.6-0x1c9d.7 (0.2)
0x1c90|                                          00 00|              ..|          shndx: 0 0x1c9e-0x1c9f.7 (2)
      |                                               |                |        [90]{}: symbol 0x1ca0-0x1caf.7 (16)
0x1ca0|74 01 00 00                                    |t...            |          name: "__bss_end__" (372) 0x1ca0-0x1ca3.7 (4)
0x1ca0|            20 10 01 00                        |     ...        |          value: 69664 0x1ca4-0x1ca7.7 (4)
0x1ca0|                        00 00 00 00            |        ....    |          size: 0 0x1ca8-0x1cab.7 (4)
0x1ca0|                                    10         |            .   |          bind: "global" (1) 0x1cac-0x1cac.3 (0.4)
0x1ca0|                                    10         |            .   |          type: "notype" (0) 0x1cac.4-0x1cac.7 (0.4)
0x1ca0|                                       00      |             .  |          other_unused: 0 0x1cad-0x1cad.5 (0.6)
0x1ca0|                                       00      |             .  |          visibility: "default" (0) 0x1cad.6-0x1cad.7 (0.2)
0x1ca0|                                          12 00|              ..|          shndx: 18 0x1cae-0x1caf.7 (2)
      |                                               |                |        [91]{}: symbol 0x1cb0-0x1cbf.7 (16)
0x1cb0|aa 01 00 00                                    |....            |          name: "_start" (426) 0x1cb0-0x1cb3.7 (4)
0x1cb0|            d4 03 00 00                        |    ....        |          value: 980 0x1cb4-0x1cb7.7 (4)
0x1cb0|                        00 00 00 00            |        ....    |          size: 0 0x1cb8-0x1cbb.7 (4)
0x1cb0|                                    12         |            .   |          bind: "global" (1) 0x1cbc-0x1cbc.3 (0.4)
0x1cb0|                                    12         |            .   |          type: "func" (2) 0x1cbc.4-0x1cbc.7 (0.4)
0x1cb0|                                       00      |             .  |          other_unused: 0 0x1cbd-0x1cbd.5 (0.6)
0x1cb0|                                       00      |             .  |          visibility: "default" (0) 0x1cbd.6-0x1cbd.7 (0.2)
0x1cb0|                                          09 00|              ..|          shndx: 9 0x1cbe-0x1cbf.7 (2)
      |                                               |                |        [92]{}: symbol 0x1cc0-0x1ccf.7 (16)
0x1cc0|80 01 00 00                                    |....            |          name: "_start_c" (384) 0x1cc0-0x1cc3.7 (4)
0x1cc0|            f8 03 00 00                        |    ....        |          value: 1016 0x1cc4-0x1cc7.7 (4)
0x1cc0|                        64 00 00 00            |        d...    |          size: 100 0x1cc8-0x1ccb.7 (4)
0x1cc0|                                    12         |            .   |          bind: "global" (1) 0x1ccc-0x1ccc.3 (0.4)
0x1cc0|                                    12         |            .   |          type: "func" (2) 0x1ccc.4-0x1ccc.7 (0.4)
0x1cc0|                                       00      |             .  |          other_unused: 0 0x1ccd-0x1ccd.5 (0.6)
0x1cc0|                                       00      |             .  |          visibility: "default" (0) 0x1ccd.6-0x1ccd.7 (0.2)
0x1cc0|                                          09 00|              ..|          shndx: 9 0x1cce-0x1ccf.7 (2)
      |                                               |                |        [93]{}: symbol 0x1cd0-0x1cdf.7 (16)
0x1cd0|89 01 00 00                                    |....            |          name: "_ITM_deregisterTMCloneTable" (393) 0x1cd0-0x1cd3.7 (4)
0x1cd0|            00 00 00 00                        |    ....        |          value: 0 0x1cd4-0x1cd7.7 (4)
0x1cd0|                        00 00 00 00            |        ....    |          size: 0 0x1cd8-0x1cdb.7 (4)
0x1cd0|                                    20         |                |          bind: "weak" (2) 0x1cdc-0x1cdc.3 (0.4)
0x1cd0|                                    20         |                |          type: "notype" (0) 0x1cdc.4-0x1cdc.7 (0.4)
0x1cd0|                                       00      |             .  |          other_unused: 0 0x1cdd-0x1cdd.5 (0.6)
0x1cd0|                                       00      |             .  |          visibility: "default" (0) 0x1cdd.6-0x1cdd.7 (0.2)
0x1cd0|                                          00 00|              ..|          shndx: 0 0x1cde-0x1cdf.7 (2)
      |                                               |                |        [94]{}: symbol 0x1ce0-0x1cef.7 (16)
0x1ce0|a5 01 00 00                                    |....            |          name: "__bss_start" (421) 0x1ce0-0x1ce3.7 (4)
0x1ce0|            04 10 01 00                        |    ....        |          value: 69636 0x1ce4-0x1ce7.7 (4)
0x1ce0|                        00 00 00 00            |        ....    |          size: 0 0x1ce8-0x1ceb.7 (4)
0x1ce0|                                    10         |            .   |          bind: "global" (1) 0x1cec-0x1cec.3 (0.4)
0x1ce0|                                    10         |            .   |          type: "notype" (0) 0x1cec.4-0x1cec.7 (0.4)
0x1ce0|                                       00      |             .  |          other_unused: 0 0x1ced-0x1ced.5 (0.6)
0x1ce0|                                       00      |             .  |          visibility: "default" (0) 0x1ced.6-0x1ced.7 (0.2)
0x1ce0|                                          12 00|              ..|          shndx: 18 0x1cee-0x1cef.7 (2)
      |                                               |                |        [95]{}: symbol 0x1cf0-0x1cff.7 (16)
0x1cf0|e3 01 00 00                                    |....            |          name: "main" (483) 0x1cf0-0x1cf3.7 (4)
0x1cf0|            ec 05 00 00                        |    ....        |          value: 1516 0x1cf4-0x1cf7.7 (4)
0x1cf0|                        1c 00 00 00            |        ....    |          size: 28 0x1cf8-0x1cfb.7 (4)
0x1cf0|                                    12         |            .   |          bind: "global" (1) 0x1cfc-0x1cfc.3 (0.4)
0x1cf0|                                    12         |            .   |          type: "func" (2) 0x1cfc.4-0x1cfc.7 (0.4)
0x1cf0|                                       00      |             .  |          other_unused: 0 0x1cfd-0x1cfd.5 (0.6)
0x1cf0|                                       00      |             .  |          visibility: "default" (0) 0x1cfd.6-0x1cfd.7 (0.2)
0x1cf0|                                          09 00|              ..|          shndx: 9 0x1cfe-0x1cff.7 (2)
      |                                               |                |        [96]{}: symbol 0x1d00-0x1d0f.7 (16)
0x1d00|b1 01 00 00                                    |....            |          name: "__end__" (433) 0x1d00-0x1d03.7 (4)
0x1d00|            20 10 01 00                        |     ...        |          value: 69664 0x1d04-0x1d07.7 (4)
0x1d00|                        00 00 00 00            |        ....    |          size: 0 0x1d08-0x1d0b.7 (4)
0x1d00|                                    10         |            .   |          bind: "global" (1) 0x1d0c-0x1d0c.3 (0.4)
0x1d00|                                    10         |            .   |          type: "notype" (0) 0x1d0c.4-0x1d0c.7 (0.4)
0x1d00|                                       00      |             .  |          other_unused: 0 0x1d0d-0x1d0d.5 (0.6)
0x1d00|                                       00      |             .  |          visibility: "default" (0) 0x1d0d.6-0x1d0d.7 (0.2)
0x1d00|                                          12 00|              ..|          shndx: 18 0x1d0e-0x1d0f.7 (2)
      |                                               |                |        [97]{}: symbol 0x1d10-0x1d1f.7 (16)
0x1d10|b9 01 00 00                                    |....            |          name: "_fini" (441) 0x1d10-0x1d13.7 (4)
0x1d10|            08 06 00 00                        |    ....        |          value: 1544 0x1d14-0x1d17.7 (4)
0x1d10|                        04 00 00 00            |        ....    |          size: 4 0x1d18-0x1d1b.7 (4)
0x1d10|                                    12         |            .   |          bind: "global" (1) 0x1d1c-0x1d1c.3 (0.4)
0x1d10|                                    12         |            .   |          type: "func" (2) 0x1d1c.4-0x1d1c.7 (0.4)
0x1d10|                                       00      |             .  |          other_unused: 0 0x1d1d-0x1d1d.5 (0.6)
0x1d10|                                       00      |             .  |          visibility: "default" (0) 0x1d1d.6-0x1d1d.7 (0.2)
0x1d10|                                          0a 00|              ..|          shndx: 10 0x1d1e-0x1d1f.7 (2)
      |                                               |                |        [98]{}: symbol 0x1d20-0x1d2f.7 (16)
0x1d20|bf 01 00 00                                    |....            |          name: "_edata" (447) 0x1d20-0x1d23.7 (4)
0x1d20|            04 10 01 00                        |    ....        |          value: 69636 0x1d24-0x1d27.7 (4)
0x1d20|                        00 00 00 00            |        ....    |          size: 0 0x1d28-0x1d2b.7 (4)
0x1d20|                                    10         |            .   |          bind: "global" (1) 0x1d2c-0x1d2c.3 (0.4)
0x1d20|                                    10         |            .   |          type: "notype" (0) 0x1d2c.4-0x1d2c.7 (0.4)
0x1d20|                                       00      |             .  |          other_unused: 0 0x1d2d-0x1d2d.5 (0.6)
0x1d20|                                       00      |             .  |          visibility: "default" (0) 0x1d2d.6-0x1d2d.7 (0.2)
0x1d20|                                          11 00|              ..|          shndx: 17 0x1d2e-0x1d2f.7 (2)
      |                                               |                |        [99]{}: symbol 0x1d30-0x1d3f.7 (16)
0x1d30|c6 01 00 00                                    |....            |          name: "_end" (454) 0x1d30-0x1d33.7 (4)
0x1d30|            20 10 01 00                        |     ...        |          value: 69664 0x1d34-0x1d37.7 (4)
0x1d30|                        00 00 00 00            |        ....    |          size: 0 0x1d38-0x1d3b.7 (4)
0x1d30|                                    10         |            .   |          bind: "global" (1) 0x1d3c-0x1d3c.3 (0.4)
0x1d30|                                    10         |            .   |          type: "notype" (0) 0x1d3c.4-0x1d3c.7 (0.4)
0x1d30|                                       00      |             .  |          other_unused: 0 0x1d3d-0x1d3d.5 (0.6)
0x1d30|                                       00      |             .  |          visibility: "default" (0) 0x1d3d.6-0x1d3d.7 (0.2)
0x1d30|                                          12 00|              ..|          shndx: 18 0x1d3e-0x1d3f.7 (2)
      |                                               |                |        [100]{}: symbol 0x1d40-0x1d4f.7 (16)
0x1d40|cb 01 00 00                                    |....            |          name: "libbbb_bbb" (459) 0x1d40-0x1d43.7 (4)
0x1d40|            00 00 00 00                        |    ....        |          value: 0 0x1d44-0x1d47.7 (4)
0x1d40|                        00 00 00 00            |        ....    |          size: 0 0x1d48-0x1d4b.7 (4)
0x1d40|                                    12         |            .   |          bind: "global" (1) 0x1d4c-0x1d4c.3 (0.4)
0x1d40|                                    12         |            .   |          type: "func" (2) 0x1d4c.4-0x1d4c.7 (0.4)
0x1d40|                                       00      |             .  |          other_unused: 0 0x1d4d-0x1d4d.5 (0.6)
0x1d40|                                       00      |             .  |          visibility: "default" (0) 0x1d4d.6-0x1d4d.7 (0.2)
0x1d40|                                          00 00|              ..|          shndx: 0 0x1d4e-0x1d4f.7 (2)
      |                                               |                |        [101]{}: symbol 0x1d50-0x1d5f.7 (16)
0x1d50|d6 01 00 00                                    |....            |          name: "__libc_start_main" (470) 0x1d50-0x1d53.7 (4)
0x1d50|            00 00 00 00                        |    ....        |          value: 0 0x1d54-0x1d57.7 (4)
0x1d50|                        00 00 00 00            |        ....    |          size: 0 0x1d58-0x1d5b.7 (4)
0x1d50|                                    12         |            .   |          bind: "global" (1) 0x1d5c-0x1d5c.3 (0.4)
0x1d50|                                    12         |            .   |          type: "func" (2) 0x1d5c.4-0x1d5c.7 (0.4)
0x1d50|                                       00      |             .  |          other_unused: 0 0x1d5d-0x1d5d.5 (0.6)
0x1d50|                                       00      |             .  |          visibility: "default" (0) 0x1d5d.6-0x1d5d.7 (0.2)
0x1d50|                                          00 00|              ..|          shndx: 0 0x1d5e-0x1d5f.7 (2)
      |                                               |                |        [102]{}: symbol 0x1d60-0x1d6f.7 (16)
0x1d60|e8 01 00 00                                    |....            |          name: "__register_frame_info" (488) 0x1d60-0x1d63.7 (4)
0x1d60|            00 00 00 00                        |    ....        |          value: 0 0x1d64-0x1d67.7 (4)
0x1d60|                        00 00 00 00            |        ....    |          size: 0 0x1d68-0x1d6b.7 (4)
0x1d60|                                    20         |                |          bind: "weak" (2) 0x1d6c-0x1d6c.3 (0.4)
0x1d60|                                    20         |                |          type: "notype" (0) 0x1d6c.4-0x1d6c.7 (0.4)
0x1d60|                                       00      |             .  |          other_unused: 0 0x1d6d-0x1d6d.5 (0.6)
0x1d60|                                       00      |             .  |          visibility: "default" (0) 0x1d6d.6-0x1d6d.7 (0.2)
0x1d60|                                          00 00|              ..|          shndx: 0 0x1d6e-0x1d6f.7 (2)
0x2510|                                    01 00 00 00|            ....|      name: ".symtab" (1) 0x251c-0x251f.7 (4)
0x2520|02 00 00 00                                    |....            |      type: "symtab" (0x2) (Symbol table) 0x2520-0x2523.7 (4)
      |                                               |                |      flags{}: 0x2524-0x2527.7 (4)
0x2520|            00                                 |    .           |        link_order: false 0x2524-0x2524 (0.1)
0x2520|            00                                 |    .           |        info_link: false 0x2524.1-0x2524.1 (0.1)
0x2520|            00                                 |    .           |        strings: false 0x2524.2-0x2524.2 (0.1)
0x2520|            00                                 |    .           |        merge: false 0x2524.3-0x2524.3 (0.1)
0x2520|            00                                 |    .           |        unused0: 0 0x2524.4-0x2524.4 (0.1)
0x2520|            00                                 |    .           |        execinstr: false 0x2524.5-0x2524.5 (0.1)
0x2520|            00                                 |    .           |        alloc: false 0x2524.6-0x2524.6 (0.1)
0x2520|            00                                 |    .           |        write: false 0x2524.7-0x2524.7 (0.1)
0x2520|               00                              |     .          |        tls: false 0x2525-0x2525 (0.1)
0x2520|               00                              |     .          |        group: false 0x2525.1-0x2525.1 (0.1)
0x2520|               00                              |     .          |        os_nonconforming: false 0x2525.2-0x2525.2 (0.1)
0x2520|               00 00                           |     ..         |        unused1: 0 0x2525.3-0x2526.3 (1.1)
0x2520|                  00 00                        |      ..        |        os_specific: 0 0x2526.4-0x2527.3 (1)
0x2520|                     00                        |       .        |        processor_specific: 0 0x2527.4-0x2527.7 (0.4)
0x2520|                        00 00 00 00            |        ....    |      addr: 0x0 0x2528-0x252b.7 (4)
0x2520|                                    00 17 00 00|            ....|      offset: 5888 0x252c-0x252f.7 (4)
0x2530|70 06 00 00                                    |p...            |      size: 0x670 0x2530-0x2533.7 (4)
0x2530|            1e 00 00 00                        |    ....        |      link: 30 0x2534-0x2537.7 (4)
0x2530|                        50 00 00 00            |        P...    |      info: 80 0x2538-0x253b.7 (4)
0x2530|                                    04 00 00 00|            ....|      addralign: 4 0x253c-0x253f.7 (4)
0x2540|10 00 00 00                                    |....            |      entsize: 16 0x2540-0x2543.7 (4)
      |                                               |                |    [30]{}: section_header 0x1d70-0x256b.7 (2044)
0x1d70|00 53 63 72 74 31 2e 63 00 24 61 00 24 64 00 63|.Scrt1.c.$a.$d.c|      string: "\x00Scrt1.c\x00$a\x00$d\x00crti.o\x00crtn.o\x00crtstuff.c\x00all_implie"... 0x1d70-0x1f6d.7 (510)
*     |until 0x1f6d.7 (510)                           |                |
0x2540|            09 00 00 00                        |    ....        |      name: ".strtab" (9) 0x2544-0x2547.7 (4)
0x2540|                        03 00 00 00            |        ....    |      type: "strtab" (0x3) (String table) 0x2548-0x254b.7 (4)
      |                                               |                |      flags{}: 0x254c-0x254f.7 (4)
0x2540|                                    00         |            .   |        link_order: false 0x254c-0x254c (0.1)
0x2540|                                    00         |            .   |        info_link: false 0x254c.1-0x254c.1 (0.1)
0x2540|                                    00         |            .   |        strings: false 0x254c.2-0x254c.2 (0.1)
0x2540|                                    00         |            .   |        merge: false 0x254c.3-0x254c.3 (0.1)
0x2540|                                    00         |            .   |        unused0: 0 0x254c.4-0x254c.4 (0.1)
0x2540|                                    00         |            .   |        execinstr: false 0x254c.5-0x254c.5 (0.1)
0x2540|                                    00         |            .   |        alloc: false 0x254c.6-0x254c.6 (0.1)
0x2540|                                    00         |            .   |        write: false 0x254c.7-0x254c.7 (0.1)
0x2540|                                       00      |             .  |        tls: false 0x254d-0x254d (0.1)
0x2540|                                       00      |             .  |        group: false 0x254d.1-0x254d.1 (0.1)
0x2540|                                       00      |             .  |        os_nonconforming: false 0x254d.2-0x254d.2 (0.1)
0x2540|                                       00 00   |             .. |        unused1: 0 0x254d.3-0x254e.3 (1.1)
0x2540|                                          00 00|              ..|        os_specific: 0 0x254e.4-0x254f.3 (1)
0x2540|                                             00|               .|        processor_specific: 0 0x254f.4-0x254f.7 (0.4)
0x2550|00 00 00 00                                    |....            |      addr: 0x0 0x2550-0x2553.7 (4)
0x2550|            70 1d 00 00                        |    p...        |      offset: 7536 0x2554-0x2557.7 (4)
0x2550|                        fe 01 00 00            |        ....    |      size: 0x1fe 0x2558-0x255b.7 (4)
0x2550|                                    00 00 00 00|            ....|      link: 0 0x255c-0x255f.7 (4)
0x2560|00 00 00 00                                    |....            |      info: 0 0x2560-0x2563.7 (4)
0x2560|            01 00 00 00                        |    ....        |      addralign: 1 0x2564-0x2567.7 (4)
0x2560|                        00 00 00 00            |        ....    |      entsize: 0 0x2568-0x256b.7 (4)
      |                                               |                |    [31]{}: section_header 0x1f6e-0x2593.7 (1574)
0x1f60|                                          00 2e|              ..|      string: "\x00.symtab\x00.strtab\x00.shstrtab\x00.interp\x00.gnu.hash\x00.dyns"... 0x1f6e-0x2090.7 (291)
0x1f70|73 79 6d 74 61 62 00 2e 73 74 72 74 61 62 00 2e|symtab..strtab..|
*     |until 0x2090.7 (291)                           |                |
0x2560|                                    11 00 00 00|            ....|      name: ".shstrtab" (17) 0x256c-0x256f.7 (4)
0x2570|03 00 00 00                                    |....            |      type: "strtab" (0x3) (String table) 0x2570-0x2573.7 (4)
      |                                               |                |      flags{}: 0x2574-0x2577.7 (4)
0x2570|            00                                 |    .           |        link_order: false 0x2574-0x2574 (0.1)
0x2570|            00                                 |    .           |        info_link: false 0x2574.1-0x2574.1 (0.1)
0x2570|            00                                 |    .           |        strings: false 0x2574.2-0x2574.2 (0.1)
0x2570|            00                                 |    .           |        merge: false 0x2574.3-0x2574.3 (0.1)
0x2570|            00                                 |    .           |        unused0: 0 0x2574.4-0x2574.4 (0.1)
0x2570|            00                                 |    .           |        execinstr: false 0x2574.5-0x2574.5 (0.1)
0x2570|            00                                 |    .           |        alloc: false 0x2574.6-0x2574.6 (0.1)
0x2570|            00                                 |    .           |        write: false 0x2574.7-0x2574.7 (0.1)
0x2570|               00                              |     .          |        tls: false 0x2575-0x2575 (0.1)
0x2570|               00                              |     .          |        group: false 0x2575.1-0x2575.1 (0.1)
0x2570|               00                              |     .          |        os_nonconforming: false 0x2575.2-0x2575.2 (0.1)
0x2570|               00 00                           |     ..         |        unused1: 0 0x2575.3-0x2576.3 (1.1)
0x2570|                  00 00                        |      ..        |        os_specific: 0 0x2576.4-0x2577.3 (1)
0x2570|                     00                        |       .        |        processor_specific: 0 0x2577.4-0x2577.7 (0.4)
0x2570|                        00 00 00 00            |        ....    |      addr: 0x0 0x2578-0x257b.7 (4)
0x2570|                                    6e 1f 00 00|            n...|      offset: 8046 0x257c-0x257f.7 (4)
0x2580|23 01 00 00                                    |#...            |      size: 0x123 0x2580-0x2583.7 (4)
0x2580|            00 00 00 00                        |    ....        |      link: 0 0x2584-0x2587.7 (4)
0x2580|                        00 00 00 00            |        ....    |      info: 0 0x2588-0x258b.7 (4)
0x2580|                                    01 00 00 00|            ....|      addralign: 1 0x258c-0x258f.7 (4)
0x2590|00 00 00 00|                                   |....|           |      entsize: 0 0x2590-0x2593.7 (4)
0x0730|                                    00 00 00 00|            ....|  unknown0: raw bits 0x73c-0xecb.7 (1936)
0x0740|00 00 00 00 00 00 00 00 00 00 00 00 00 00 00 00|................|
*     |until 0xecb.7 (1936)                           |                |
0x1090|                           00 00 00 00 00 00 00|         .......|  unknown1: raw bits 0x1099-0x109f.7 (7)
0x13f0|   00 00 00                                    | ...            |  unknown2: raw bits 0x13f1-0x13f3.7 (3)
0x16a0|                                       00 00 00|             ...|  unknown3: raw bits 0x16ad-0x16af.7 (3)
0x2090|   00 00 00                                    | ...            |  unknown4: raw bits 0x2091-0x2093.7 (3)
