# luajit -b -s negative.lua negative.luac
$ fq dv negative.luac
    |00 01 02 03 04 05 06 07 08 09 0a 0b 0c 0d 0e 0f|0123456789abcdef|.{}: negative.luac (luajit) 0x0-0x59 (89)
    |                                               |                |  header{}: 0x0-0x5 (5)
0x00|1b 4c 4a                                       |.LJ             |    magic: raw bits (valid) 0x0-0x3 (3)
0x00|         02                                    |   .            |    version: 2 0x3-0x4 (1)
    |                                               |                |    flags{}: 0x4-0x5 (1)
0x00|            0a                                 |    .           |      raw: 10 0x4-0x5 (1)
    |                                               |                |      be: false
    |                                               |                |      strip: true
    |                                               |                |      ffi: false
    |                                               |                |      fr2: true
    |                                               |                |  proto[0:3]: 0x5-0x58 (83)
    |                                               |                |    [0]{}: proto 0x5-0x1a (21)
0x00|               14                              |     .          |      length: 20 0x5-0x6 (1)
    |                                               |                |      pdata{}: 0x6-0x1a (20)
    |                                               |                |        phead{}: 0x6-0xd (7)
0x00|                  00                           |      .         |          flags: 0 0x6-0x7 (1)
0x00|                     01                        |       .        |          numparams: 1 0x7-0x8 (1)
0x00|                        02                     |        .       |          framesize: 2 0x8-0x9 (1)
0x00|                           00                  |         .      |          numuv: 0 0x9-0xa (1)
0x00|                              00               |          .     |          numkgc: 0 0xa-0xb (1)
0x00|                                 01            |           .    |          numkn: 1 0xb-0xc (1)
0x00|                                    02         |            .   |          numbc: 2 0xc-0xd (1)
    |                                               |                |        bcins[0:2]: 0xd-0x15 (8)
    |                                               |                |          [0]{}: ins 0xd-0x11 (4)
0x00|                                       18      |             .  |            op: "MULVN" (24) 0xd-0xe (1)
0x00|                                          01   |              . |            a: 1 0xe-0xf (1)
0x00|                                             00|               .|            c: 0 0xf-0x10 (1)
0x10|00                                             |.               |            b: 0 0x10-0x11 (1)
    |                                               |                |          [1]{}: ins 0x11-0x15 (4)
0x10|   4c                                          | L              |            op: "RET1" (76) 0x11-0x12 (1)
0x10|      01                                       |  .             |            a: 1 0x12-0x13 (1)
0x10|         02 00                                 |   ..           |            d: 2 0x13-0x15 (2)
    |                                               |                |        uvdata[0:0]: 0x15-0x15 (0)
    |                                               |                |        kgc[0:0]: 0x15-0x15 (0)
    |                                               |                |        knum[0:1]: 0x15-0x1a (5)
0x10|               ae 86 95 fd 1f                  |     .....      |          [0]: -2973289 knum 0x15-0x1a (5)
    |                                               |                |    [1]{}: proto 0x1a-0x34 (26)
0x10|                              19               |          .     |      length: 25 0x1a-0x1b (1)
    |                                               |                |      pdata{}: 0x1b-0x34 (25)
    |                                               |                |        phead{}: 0x1b-0x22 (7)
0x10|                                 00            |           .    |          flags: 0 0x1b-0x1c (1)
0x10|                                    01         |            .   |          numparams: 1 0x1c-0x1d (1)
0x10|                                       02      |             .  |          framesize: 2 0x1d-0x1e (1)
0x10|                                          00   |              . |          numuv: 0 0x1e-0x1f (1)
0x10|                                             00|               .|          numkgc: 0 0x1f-0x20 (1)
0x20|01                                             |.               |          numkn: 1 0x20-0x21 (1)
0x20|   02                                          | .              |          numbc: 2 0x21-0x22 (1)
    |                                               |                |        bcins[0:2]: 0x22-0x2a (8)
    |                                               |                |          [0]{}: ins 0x22-0x26 (4)
0x20|      18                                       |  .             |            op: "MULVN" (24) 0x22-0x23 (1)
0x20|         01                                    |   .            |            a: 1 0x23-0x24 (1)
0x20|            00                                 |    .           |            c: 0 0x24-0x25 (1)
0x20|               00                              |     .          |            b: 0 0x25-0x26 (1)
    |                                               |                |          [1]{}: ins 0x26-0x2a (4)
0x20|                  4c                           |      L         |            op: "RET1" (76) 0x26-0x27 (1)
0x20|                     01                        |       .        |            a: 1 0x27-0x28 (1)
0x20|                        02 00                  |        ..      |            d: 2 0x28-0x2a (2)
    |                                               |                |        uvdata[0:0]: 0x2a-0x2a (0)
    |                                               |                |        kgc[0:0]: 0x2a-0x2a (0)
    |                                               |                |        knum[0:1]: 0x2a-0x34 (10)
0x20|                              81 80 90 9d 0c 8a|          ......|          [0]: -3.8793457897e+10 knum 0x2a-0x34 (10)
0x30|a1 88 91 0c                                    |....            |
    |                                               |                |    [2]{}: proto 0x34-0x58 (36)
0x30|            23                                 |    #           |      length: 35 0x34-0x35 (1)
    |                                               |                |      pdata{}: 0x35-0x58 (35)
    |                                               |                |        phead{}: 0x35-0x3c (7)
0x30|               03                              |     .          |          flags: 3 0x35-0x36 (1)
0x30|                  00                           |      .         |          numparams: 0 0x36-0x37 (1)
0x30|                     01                        |       .        |          framesize: 1 0x37-0x38 (1)
0x30|                        00                     |        .       |          numuv: 0 0x38-0x39 (1)
0x30|                           04                  |         .      |          numkgc: 4 0x39-0x3a (1)
0x30|                              00               |          .     |          numkn: 0 0x3a-0x3b (1)
0x30|                                 05            |           .    |          numbc: 5 0x3b-0x3c (1)
    |                                               |                |        bcins[0:5]: 0x3c-0x50 (20)
    |                                               |                |          [0]{}: ins 0x3c-0x40 (4)
0x30|                                    33         |            3   |            op: "FNEW" (51) 0x3c-0x3d (1)
0x30|                                       00      |             .  |            a: 0 0x3d-0x3e (1)
0x30|                                          00 00|              ..|            d: 0 0x3e-0x40 (2)
    |                                               |                |          [1]{}: ins 0x40-0x44 (4)
0x40|37                                             |7               |            op: "GSET" (55) 0x40-0x41 (1)
0x40|   00                                          | .              |            a: 0 0x41-0x42 (1)
0x40|      01 00                                    |  ..            |            d: 1 0x42-0x44 (2)
    |                                               |                |          [2]{}: ins 0x44-0x48 (4)
0x40|            33                                 |    3           |            op: "FNEW" (51) 0x44-0x45 (1)
0x40|               00                              |     .          |            a: 0 0x45-0x46 (1)
0x40|                  02 00                        |      ..        |            d: 2 0x46-0x48 (2)
    |                                               |                |          [3]{}: ins 0x48-0x4c (4)
0x40|                        37                     |        7       |            op: "GSET" (55) 0x48-0x49 (1)
0x40|                           00                  |         .      |            a: 0 0x49-0x4a (1)
0x40|                              03 00            |          ..    |            d: 3 0x4a-0x4c (2)
    |                                               |                |          [4]{}: ins 0x4c-0x50 (4)
0x40|                                    4b         |            K   |            op: "RET0" (75) 0x4c-0x4d (1)
0x40|                                       00      |             .  |            a: 0 0x4d-0x4e (1)
0x40|                                          01 00|              ..|            d: 1 0x4e-0x50 (2)
    |                                               |                |        uvdata[0:0]: 0x50-0x50 (0)
    |                                               |                |        kgc[0:4]: 0x50-0x58 (8)
    |                                               |                |          [0]{}: kgc 0x50-0x53 (3)
0x50|07                                             |.               |            type: "str" (7) 0x50-0x51 (1)
0x50|   66 32                                       | f2             |            value: "f2" 0x51-0x53 (2)
    |                                               |                |          [1]{}: kgc 0x53-0x54 (1)
0x50|         00                                    |   .            |            type: "child" (0) 0x53-0x54 (1)
    |                                               |                |          [2]{}: kgc 0x54-0x57 (3)
0x50|            07                                 |    .           |            type: "str" (7) 0x54-0x55 (1)
0x50|               66 31                           |     f1         |            value: "f1" 0x55-0x57 (2)
    |                                               |                |          [3]{}: kgc 0x57-0x58 (1)
0x50|                     00                        |       .        |            type: "child" (0) 0x57-0x58 (1)
    |                                               |                |        knum[0:0]: 0x58-0x58 (0)
0x50|                        00|                    |        .|      |  end: raw bits (valid) 0x58-0x59 (1)
