# luajit -b -s simple.lua simple_stripped.luac
$ fq dv simple_stripped.luac
     |00 01 02 03 04 05 06 07 08 09 0a 0b 0c 0d 0e 0f|0123456789abcdef|.{}: simple_stripped.luac (luajit) 0x0-0x134 (308)
     |                                               |                |  header{}: 0x0-0x5 (5)
0x000|1b 4c 4a                                       |.LJ             |    magic: raw bits (valid) 0x0-0x3 (3)
0x000|         02                                    |   .            |    version: 2 0x3-0x4 (1)
     |                                               |                |    flags{}: 0x4-0x5 (1)
0x000|            0e                                 |    .           |      raw: 14 0x4-0x5 (1)
     |                                               |                |      be: false
     |                                               |                |      strip: true
     |                                               |                |      ffi: true
     |                                               |                |      fr2: true
     |                                               |                |  proto[0:2]: 0x5-0x133 (302)
     |                                               |                |    [0]{}: proto 0x5-0x3b (54)
0x000|               35                              |     5          |      length: 53 0x5-0x6 (1)
     |                                               |                |      pdata{}: 0x6-0x3b (53)
     |                                               |                |        phead{}: 0x6-0xd (7)
0x000|                  00                           |      .         |          flags: 0 0x6-0x7 (1)
0x000|                     01                        |       .        |          numparams: 1 0x7-0x8 (1)
0x000|                        03                     |        .       |          framesize: 3 0x8-0x9 (1)
0x000|                           02                  |         .      |          numuv: 2 0x9-0xa (1)
0x000|                              00               |          .     |          numkgc: 0 0xa-0xb (1)
0x000|                                 02            |           .    |          numkn: 2 0xb-0xc (1)
0x000|                                    07         |            .   |          numbc: 7 0xc-0xd (1)
     |                                               |                |        bcins[0:7]: 0xd-0x29 (28)
     |                                               |                |          [0]{}: ins 0xd-0x11 (4)
0x000|                                       2d      |             -  |            op: "UGET" (45) 0xd-0xe (1)
0x000|                                          01   |              . |            a: 1 0xe-0xf (1)
0x000|                                             00|               .|            d: 0 0xf-0x11 (2)
0x010|00                                             |.               |
     |                                               |                |          [1]{}: ins 0x11-0x15 (4)
0x010|   2d                                          | -              |            op: "UGET" (45) 0x11-0x12 (1)
0x010|      02                                       |  .             |            a: 2 0x12-0x13 (1)
0x010|         01 00                                 |   ..           |            d: 1 0x13-0x15 (2)
     |                                               |                |          [2]{}: ins 0x15-0x19 (4)
0x010|               20                              |                |            op: "ADDVV" (32) 0x15-0x16 (1)
0x010|                  01                           |      .         |            a: 1 0x16-0x17 (1)
0x010|                     02                        |       .        |            c: 2 0x17-0x18 (1)
0x010|                        01                     |        .       |            b: 1 0x18-0x19 (1)
     |                                               |                |          [3]{}: ins 0x19-0x1d (4)
0x010|                           22                  |         "      |            op: "MULVV" (34) 0x19-0x1a (1)
0x010|                              02               |          .     |            a: 2 0x1a-0x1b (1)
0x010|                                 01            |           .    |            c: 1 0x1b-0x1c (1)
0x010|                                    00         |            .   |            b: 0 0x1c-0x1d (1)
     |                                               |                |          [4]{}: ins 0x1d-0x21 (4)
0x010|                                       18      |             .  |            op: "MULVN" (24) 0x1d-0x1e (1)
0x010|                                          02   |              . |            a: 2 0x1e-0x1f (1)
0x010|                                             00|               .|            c: 0 0x1f-0x20 (1)
0x020|02                                             |.               |            b: 2 0x20-0x21 (1)
     |                                               |                |          [5]{}: ins 0x21-0x25 (4)
0x020|   16                                          | .              |            op: "ADDVN" (22) 0x21-0x22 (1)
0x020|      02                                       |  .             |            a: 2 0x22-0x23 (1)
0x020|         01                                    |   .            |            c: 1 0x23-0x24 (1)
0x020|            02                                 |    .           |            b: 2 0x24-0x25 (1)
     |                                               |                |          [6]{}: ins 0x25-0x29 (4)
0x020|               4c                              |     L          |            op: "RET1" (76) 0x25-0x26 (1)
0x020|                  02                           |      .         |            a: 2 0x26-0x27 (1)
0x020|                     02 00                     |       ..       |            d: 2 0x27-0x29 (2)
     |                                               |                |        uvdata[0:2]: 0x29-0x2d (4)
0x020|                           01 c0               |         ..     |          [0]: 49153 uv 0x29-0x2b (2)
0x020|                                 02 c0         |           ..   |          [1]: 49154 uv 0x2b-0x2d (2)
     |                                               |                |        kgc[0:0]: 0x2d-0x2d (0)
     |                                               |                |        knum[0:2]: 0x2d-0x3b (14)
0x020|                                       d2 f9 ea|             ...|          [0]: 2973289 knum 0x2d-0x31 (4)
0x030|02                                             |.               |
0x030|   81 80 90 9d 0c 8a a1 88 91 04               | ..........     |          [1]: 3.8793457897e+10 knum 0x31-0x3b (10)
     |                                               |                |    [1]{}: proto 0x3b-0x133 (248)
0x030|                                 f6 01         |           ..   |      length: 246 0x3b-0x3d (2)
     |                                               |                |      pdata{}: 0x3d-0x133 (246)
     |                                               |                |        phead{}: 0x3d-0x44 (7)
0x030|                                       07      |             .  |          flags: 7 0x3d-0x3e (1)
0x030|                                          00   |              . |          numparams: 0 0x3e-0x3f (1)
0x030|                                             07|               .|          framesize: 7 0x3f-0x40 (1)
0x040|00                                             |.               |          numuv: 0 0x40-0x41 (1)
0x040|   07                                          | .              |          numkgc: 7 0x41-0x42 (1)
0x040|      00                                       |  .             |          numkn: 0 0x42-0x43 (1)
0x040|         0e                                    |   .            |          numbc: 14 0x43-0x44 (1)
     |                                               |                |        bcins[0:14]: 0x44-0x7c (56)
     |                                               |                |          [0]{}: ins 0x44-0x48 (4)
0x040|            35                                 |    5           |            op: "TDUP" (53) 0x44-0x45 (1)
0x040|               00                              |     .          |            a: 0 0x45-0x46 (1)
0x040|                  00 00                        |      ..        |            d: 0 0x46-0x48 (2)
     |                                               |                |          [1]{}: ins 0x48-0x4c (4)
0x040|                        28                     |        (       |            op: "KCDATA" (40) 0x48-0x49 (1)
0x040|                           01                  |         .      |            a: 1 0x49-0x4a (1)
0x040|                              01 00            |          ..    |            d: 1 0x4a-0x4c (2)
     |                                               |                |          [2]{}: ins 0x4c-0x50 (4)
0x040|                                    37         |            7   |            op: "GSET" (55) 0x4c-0x4d (1)
0x040|                                       01      |             .  |            a: 1 0x4d-0x4e (1)
0x040|                                          02 00|              ..|            d: 2 0x4e-0x50 (2)
     |                                               |                |          [3]{}: ins 0x50-0x54 (4)
0x050|37                                             |7               |            op: "GSET" (55) 0x50-0x51 (1)
0x050|   00                                          | .              |            a: 0 0x51-0x52 (1)
0x050|      03 00                                    |  ..            |            d: 3 0x52-0x54 (2)
     |                                               |                |          [4]{}: ins 0x54-0x58 (4)
0x050|            29                                 |    )           |            op: "KSHORT" (41) 0x54-0x55 (1)
0x050|               01                              |     .          |            a: 1 0x55-0x56 (1)
0x050|                  7b 00                        |      {.        |            d: 123 0x56-0x58 (2)
     |                                               |                |          [5]{}: ins 0x58-0x5c (4)
0x050|                        29                     |        )       |            op: "KSHORT" (41) 0x58-0x59 (1)
0x050|                           02                  |         .      |            a: 2 0x59-0x5a (1)
0x050|                              9a 02            |          ..    |            d: 666 0x5a-0x5c (2)
     |                                               |                |          [6]{}: ins 0x5c-0x60 (4)
0x050|                                    33         |            3   |            op: "FNEW" (51) 0x5c-0x5d (1)
0x050|                                       03      |             .  |            a: 3 0x5d-0x5e (1)
0x050|                                          04 00|              ..|            d: 4 0x5e-0x60 (2)
     |                                               |                |          [7]{}: ins 0x60-0x64 (4)
0x060|37                                             |7               |            op: "GSET" (55) 0x60-0x61 (1)
0x060|   03                                          | .              |            a: 3 0x61-0x62 (1)
0x060|      05 00                                    |  ..            |            d: 5 0x62-0x64 (2)
     |                                               |                |          [8]{}: ins 0x64-0x68 (4)
0x060|            12                                 |    .           |            op: "MOV" (18) 0x64-0x65 (1)
0x060|               04                              |     .          |            a: 4 0x65-0x66 (1)
0x060|                  03 00                        |      ..        |            d: 3 0x66-0x68 (2)
     |                                               |                |          [9]{}: ins 0x68-0x6c (4)
0x060|                        29                     |        )       |            op: "KSHORT" (41) 0x68-0x69 (1)
0x060|                           06                  |         .      |            a: 6 0x69-0x6a (1)
0x060|                              2a 00            |          *.    |            d: 42 0x6a-0x6c (2)
     |                                               |                |          [10]{}: ins 0x6c-0x70 (4)
0x060|                                    42         |            B   |            op: "CALL" (66) 0x6c-0x6d (1)
0x060|                                       04      |             .  |            a: 4 0x6d-0x6e (1)
0x060|                                          02   |              . |            c: 2 0x6e-0x6f (1)
0x060|                                             02|               .|            b: 2 0x6f-0x70 (1)
     |                                               |                |          [11]{}: ins 0x70-0x74 (4)
0x070|37                                             |7               |            op: "GSET" (55) 0x70-0x71 (1)
0x070|   04                                          | .              |            a: 4 0x71-0x72 (1)
0x070|      06 00                                    |  ..            |            d: 6 0x72-0x74 (2)
     |                                               |                |          [12]{}: ins 0x74-0x78 (4)
0x070|            32                                 |    2           |            op: "UCLO" (50) 0x74-0x75 (1)
0x070|               00                              |     .          |            a: 0 0x75-0x76 (1)
0x070|                  00 80                        |      ..        |            j: 0 0x76-0x78 (2)
     |                                               |                |          [13]{}: ins 0x78-0x7c (4)
0x070|                        4b                     |        K       |            op: "RET0" (75) 0x78-0x79 (1)
0x070|                           00                  |         .      |            a: 0 0x79-0x7a (1)
0x070|                              01 00            |          ..    |            d: 1 0x7a-0x7c (2)
     |                                               |                |        uvdata[0:0]: 0x7c-0x7c (0)
     |                                               |                |        kgc[0:7]: 0x7c-0x133 (183)
     |                                               |                |          [0]{}: kgc 0x7c-0x8a (14)
0x070|                                    12         |            .   |            type: "str" (18) 0x7c-0x7d (1)
0x070|                                       6d 79 66|             myf|            value: "myfunc_result" 0x7d-0x8a (13)
0x080|75 6e 63 5f 72 65 73 75 6c 74                  |unc_result      |
     |                                               |                |          [1]{}: kgc 0x8a-0x91 (7)
0x080|                              0b               |          .     |            type: "str" (11) 0x8a-0x8b (1)
0x080|                                 6d 79 66 75 6e|           myfun|            value: "myfunc" 0x8b-0x91 (6)
0x090|63                                             |c               |
     |                                               |                |          [2]{}: kgc 0x91-0x92 (1)
0x090|   00                                          | .              |            type: "child" (0) 0x91-0x92 (1)
     |                                               |                |          [3]{}: kgc 0x92-0x98 (6)
0x090|      0a                                       |  .             |            type: "str" (10) 0x92-0x93 (1)
0x090|         6d 79 74 62 6c                        |   mytbl        |            value: "mytbl" 0x93-0x98 (5)
     |                                               |                |          [4]{}: kgc 0x98-0x9f (7)
0x090|                        0b                     |        .       |            type: "str" (11) 0x98-0x99 (1)
0x090|                           6d 79 63 70 6c 78   |         mycplx |            value: "mycplx" 0x99-0x9f (6)
     |                                               |                |          [5]{}: kgc 0x9f-0xac (13)
0x090|                                             04|               .|            type: "complex" (4) 0x9f-0xa0 (1)
     |                                               |                |            value{}: 0xa0-0xac (12)
0x0a0|00 00                                          |..              |              real: 0 0xa0-0xa2 (2)
0x0a0|      9a b3 e6 cc 09 99 b3 a6 80 04            |  ..........    |              imag: 3.2 0xa2-0xac (10)
     |                                               |                |          [6]{}: kgc 0xac-0x133 (135)
0x0a0|                                    01         |            .   |            type: "tab" (1) 0xac-0xad (1)
0x0a0|                                       06      |             .  |            narray: 6 0xad-0xae (1)
0x0a0|                                          07   |              . |            nhash: 7 0xae-0xaf (1)
     |                                               |                |            array[0:6]: 0xaf-0xc4 (21)
     |                                               |                |              [0]{}: element 0xaf-0xb0 (1)
0x0a0|                                             00|               .|                type: "nil" (0) 0xaf-0xb0 (1)
     |                                               |                |                value: null
     |                                               |                |              [1]{}: element 0xb0-0xb1 (1)
0x0b0|02                                             |.               |                type: "true" (2) 0xb0-0xb1 (1)
     |                                               |                |                value: true
     |                                               |                |              [2]{}: element 0xb1-0xb2 (1)
0x0b0|   01                                          | .              |                type: "false" (1) 0xb1-0xb2 (1)
     |                                               |                |                value: false
     |                                               |                |              [3]{}: element 0xb2-0xb3 (1)
0x0b0|      00                                       |  .             |                type: "nil" (0) 0xb2-0xb3 (1)
     |                                               |                |                value: null
     |                                               |                |              [4]{}: element 0xb3-0xb9 (6)
0x0b0|         03                                    |   .            |                type: "int" (3) 0xb3-0xb4 (1)
0x0b0|            e4 a2 e0 d0 01                     |    .....       |                value: 437784932 0xb4-0xb9 (5)
     |                                               |                |              [5]{}: element 0xb9-0xc4 (11)
0x0b0|                           04                  |         .      |                type: "num" (4) 0xb9-0xba (1)
0x0b0|                              d6 c5 c9 e0 0a f6|          ......|                value: 4.23748378e-06 0xba-0xc4 (10)
0x0c0|8b c7 f6 03                                    |....            |
     |                                               |                |            hash[0:7]: 0xc4-0x133 (111)
     |                                               |                |              [0]{}: pair 0xc4-0xd9 (21)
     |                                               |                |                key{}: 0xc4-0xcb (7)
0x0c0|            04                                 |    .           |                  type: "num" (4) 0xc4-0xc5 (1)
0x0c0|               00 80 c8 d3 84 0c               |     ......     |                  value: -1337 0xc5-0xcb (6)
     |                                               |                |                value{}: 0xcb-0xd9 (14)
0x0c0|                                 12            |           .    |                  type: "str" (18) 0xcb-0xcc (1)
0x0c0|                                    6b 65 79 20|            key |                  value: "key is an int" 0xcc-0xd9 (13)
0x0d0|69 73 20 61 6e 20 69 6e 74                     |is an int       |
     |                                               |                |              [1]{}: pair 0xd9-0xf1 (24)
     |                                               |                |                key{}: 0xd9-0xe4 (11)
0x0d0|                           04                  |         .      |                  type: "num" (4) 0xd9-0xda (1)
0x0d0|                              cf a4 ba cd 09 fc|          ......|                  value: 2.74389 0xda-0xe4 (10)
0x0e0|e6 97 80 04                                    |....            |
     |                                               |                |                value{}: 0xe4-0xf1 (13)
0x0e0|            11                                 |    .           |                  type: "str" (17) 0xe4-0xe5 (1)
0x0e0|               6b 65 79 20 69 73 20 61 20 6e 75|     key is a nu|                  value: "key is a num" 0xe5-0xf1 (12)
0x0f0|6d                                             |m               |
     |                                               |                |              [2]{}: pair 0xf1-0xfd (12)
     |                                               |                |                key{}: 0xf1-0xf9 (8)
0x0f0|   0c                                          | .              |                  type: "str" (12) 0xf1-0xf2 (1)
0x0f0|      73 6f 6d 65 73 74 72                     |  somestr       |                  value: "somestr" 0xf2-0xf9 (7)
     |                                               |                |                value{}: 0xf9-0xfd (4)
0x0f0|                           08                  |         .      |                  type: "str" (8) 0xf9-0xfa (1)
0x0f0|                              75 77 75         |          uwu   |                  value: "uwu" 0xfa-0xfd (3)
     |                                               |                |              [3]{}: pair 0xfd-0x110 (19)
     |                                               |                |                key{}: 0xfd-0x105 (8)
0x0f0|                                       0c      |             .  |                  type: "str" (12) 0xfd-0xfe (1)
0x0f0|                                          73 6f|              so|                  value: "somenum" 0xfe-0x105 (7)
0x100|6d 65 6e 75 6d                                 |menum           |
     |                                               |                |                value{}: 0x105-0x110 (11)
0x100|               04                              |     .          |                  type: "num" (4) 0x105-0x106 (1)
0x100|                  80 80 a8 b5 02 c4 f3 9b 93 04|      ..........|                  value: 7.89437298e+11 0x106-0x110 (10)
     |                                               |                |              [4]{}: pair 0x110-0x11e (14)
     |                                               |                |                key{}: 0x110-0x118 (8)
0x110|0c                                             |.               |                  type: "str" (12) 0x110-0x111 (1)
0x110|   73 6f 6d 65 69 6e 74                        | someint        |                  value: "someint" 0x111-0x118 (7)
     |                                               |                |                value{}: 0x118-0x11e (6)
0x110|                        03                     |        .       |                  type: "int" (3) 0x118-0x119 (1)
0x110|                           fd ff ff ff 0f      |         .....  |                  value: 4294967293 0x119-0x11e (5)
     |                                               |                |              [5]{}: pair 0x11e-0x129 (11)
     |                                               |                |                key{}: 0x11e-0x128 (10)
0x110|                                          0e   |              . |                  type: "str" (14) 0x11e-0x11f (1)
0x110|                                             73|               s|                  value: "somefalse" 0x11f-0x128 (9)
0x120|6f 6d 65 66 61 6c 73 65                        |omefalse        |
     |                                               |                |                value{}: 0x128-0x129 (1)
0x120|                        01                     |        .       |                  type: "false" (1) 0x128-0x129 (1)
     |                                               |                |                  value: false
     |                                               |                |              [6]{}: pair 0x129-0x133 (10)
     |                                               |                |                key{}: 0x129-0x132 (9)
0x120|                           0d                  |         .      |                  type: "str" (13) 0x129-0x12a (1)
0x120|                              73 6f 6d 65 74 72|          sometr|                  value: "sometrue" 0x12a-0x132 (8)
0x130|75 65                                          |ue              |
     |                                               |                |                value{}: 0x132-0x133 (1)
0x130|      02                                       |  .             |                  type: "true" (2) 0x132-0x133 (1)
     |                                               |                |                  value: true
     |                                               |                |        knum[0:0]: 0x133-0x133 (0)
0x130|         00|                                   |   .|           |  end: raw bits (valid) 0x133-0x134 (1)
