$ fq dv -d luajit simple_stripped.luac
    |00 01 02 03 04 05 06 07 08 09 0a 0b 0c 0d 0e 0f|0123456789abcdef|.{}: simple_stripped.luac (luajit) 0x0-0xf9.7 (250)
    |                                               |                |  header{}: 0x0-0x4.7 (5)
0x00|1b 4c 4a                                       |.LJ             |    magic: raw bits (valid) 0x0-0x2.7 (3)
0x00|         02                                    |   .            |    version: 2 0x3-0x3.7 (1)
    |                                               |                |    flags{}: 0x4-0x4.7 (1)
0x00|            0e                                 |    .           |      raw: 14 0x4-0x4.7 (1)
    |                                               |                |      be: false 0x5-NA (0)
    |                                               |                |      strip: true 0x5-NA (0)
    |                                               |                |      ffi: true 0x5-NA (0)
    |                                               |                |      fr2: true 0x5-NA (0)
    |                                               |                |  proto[0:2]: 0x5-0xf8.7 (244)
    |                                               |                |    [0]{}: proto 0x5-0x3a.7 (54)
0x00|               35                              |     5          |      length: 53 0x5-0x5.7 (1)
    |                                               |                |      pdata{}: 0x6-0x3a.7 (53)
    |                                               |                |        phead{}: 0x6-0xc.7 (7)
0x00|                  00                           |      .         |          flags: 0 0x6-0x6.7 (1)
0x00|                     01                        |       .        |          numparams: 1 0x7-0x7.7 (1)
0x00|                        03                     |        .       |          framesize: 3 0x8-0x8.7 (1)
0x00|                           02                  |         .      |          numuv: 2 0x9-0x9.7 (1)
0x00|                              00               |          .     |          numkgc: 0 0xa-0xa.7 (1)
0x00|                                 02            |           .    |          numkn: 2 0xb-0xb.7 (1)
0x00|                                    07         |            .   |          numbc: 7 0xc-0xc.7 (1)
    |                                               |                |        bcins[0:7]: 0xd-0x28.7 (28)
    |                                               |                |          [0]{}: ins 0xd-0x10.7 (4)
0x00|                                       2d      |             -  |            op: "UGET" (45) 0xd-0xd.7 (1)
0x00|                                          01   |              . |            a: 1 0xe-0xe.7 (1)
0x00|                                             00|               .|            d: 0 0xf-0x10.7 (2)
0x10|00                                             |.               |
    |                                               |                |          [1]{}: ins 0x11-0x14.7 (4)
0x10|   2d                                          | -              |            op: "UGET" (45) 0x11-0x11.7 (1)
0x10|      02                                       |  .             |            a: 2 0x12-0x12.7 (1)
0x10|         01 00                                 |   ..           |            d: 1 0x13-0x14.7 (2)
    |                                               |                |          [2]{}: ins 0x15-0x18.7 (4)
0x10|               20                              |                |            op: "ADDVV" (32) 0x15-0x15.7 (1)
0x10|                  01                           |      .         |            a: 1 0x16-0x16.7 (1)
0x10|                     02                        |       .        |            c: 2 0x17-0x17.7 (1)
0x10|                        01                     |        .       |            b: 1 0x18-0x18.7 (1)
    |                                               |                |          [3]{}: ins 0x19-0x1c.7 (4)
0x10|                           22                  |         "      |            op: "MULVV" (34) 0x19-0x19.7 (1)
0x10|                              02               |          .     |            a: 2 0x1a-0x1a.7 (1)
0x10|                                 01            |           .    |            c: 1 0x1b-0x1b.7 (1)
0x10|                                    00         |            .   |            b: 0 0x1c-0x1c.7 (1)
    |                                               |                |          [4]{}: ins 0x1d-0x20.7 (4)
0x10|                                       18      |             .  |            op: "MULVN" (24) 0x1d-0x1d.7 (1)
0x10|                                          02   |              . |            a: 2 0x1e-0x1e.7 (1)
0x10|                                             00|               .|            c: 0 0x1f-0x1f.7 (1)
0x20|02                                             |.               |            b: 2 0x20-0x20.7 (1)
    |                                               |                |          [5]{}: ins 0x21-0x24.7 (4)
0x20|   16                                          | .              |            op: "ADDVN" (22) 0x21-0x21.7 (1)
0x20|      02                                       |  .             |            a: 2 0x22-0x22.7 (1)
0x20|         01                                    |   .            |            c: 1 0x23-0x23.7 (1)
0x20|            02                                 |    .           |            b: 2 0x24-0x24.7 (1)
    |                                               |                |          [6]{}: ins 0x25-0x28.7 (4)
0x20|               4c                              |     L          |            op: "RET1" (76) 0x25-0x25.7 (1)
0x20|                  02                           |      .         |            a: 2 0x26-0x26.7 (1)
0x20|                     02 00                     |       ..       |            d: 2 0x27-0x28.7 (2)
    |                                               |                |        uvdata[0:2]: 0x29-0x2c.7 (4)
0x20|                           01 c0               |         ..     |          [0]: 49153 uv 0x29-0x2a.7 (2)
0x20|                                 02 c0         |           ..   |          [1]: 49154 uv 0x2b-0x2c.7 (2)
    |                                               |                |        kgc[0:0]: 0x2d-NA (0)
    |                                               |                |        knum[0:2]: 0x2d-0x3a.7 (14)
0x20|                                       d2 f9 ea|             ...|          [0]: 2973289 knum 0x2d-0x30.7 (4)
0x30|02                                             |.               |
0x30|   81 80 90 9d 0c 8a a1 88 91 04               | ..........     |          [1]: 3.8793457897e+10 knum 0x31-0x3a.7 (10)
    |                                               |                |    [1]{}: proto 0x3b-0xf8.7 (190)
0x30|                                 bc 01         |           ..   |      length: 188 0x3b-0x3c.7 (2)
    |                                               |                |      pdata{}: 0x3d-0xf8.7 (188)
    |                                               |                |        phead{}: 0x3d-0x43.7 (7)
0x30|                                       07      |             .  |          flags: 7 0x3d-0x3d.7 (1)
0x30|                                          00   |              . |          numparams: 0 0x3e-0x3e.7 (1)
0x30|                                             07|               .|          framesize: 7 0x3f-0x3f.7 (1)
0x40|00                                             |.               |          numuv: 0 0x40-0x40.7 (1)
0x40|   07                                          | .              |          numkgc: 7 0x41-0x41.7 (1)
0x40|      00                                       |  .             |          numkn: 0 0x42-0x42.7 (1)
0x40|         0e                                    |   .            |          numbc: 14 0x43-0x43.7 (1)
    |                                               |                |        bcins[0:14]: 0x44-0x7b.7 (56)
    |                                               |                |          [0]{}: ins 0x44-0x47.7 (4)
0x40|            35                                 |    5           |            op: "TDUP" (53) 0x44-0x44.7 (1)
0x40|               00                              |     .          |            a: 0 0x45-0x45.7 (1)
0x40|                  00 00                        |      ..        |            d: 0 0x46-0x47.7 (2)
    |                                               |                |          [1]{}: ins 0x48-0x4b.7 (4)
0x40|                        28                     |        (       |            op: "KCDATA" (40) 0x48-0x48.7 (1)
0x40|                           01                  |         .      |            a: 1 0x49-0x49.7 (1)
0x40|                              01 00            |          ..    |            d: 1 0x4a-0x4b.7 (2)
    |                                               |                |          [2]{}: ins 0x4c-0x4f.7 (4)
0x40|                                    37         |            7   |            op: "GSET" (55) 0x4c-0x4c.7 (1)
0x40|                                       01      |             .  |            a: 1 0x4d-0x4d.7 (1)
0x40|                                          02 00|              ..|            d: 2 0x4e-0x4f.7 (2)
    |                                               |                |          [3]{}: ins 0x50-0x53.7 (4)
0x50|37                                             |7               |            op: "GSET" (55) 0x50-0x50.7 (1)
0x50|   00                                          | .              |            a: 0 0x51-0x51.7 (1)
0x50|      03 00                                    |  ..            |            d: 3 0x52-0x53.7 (2)
    |                                               |                |          [4]{}: ins 0x54-0x57.7 (4)
0x50|            29                                 |    )           |            op: "KSHORT" (41) 0x54-0x54.7 (1)
0x50|               01                              |     .          |            a: 1 0x55-0x55.7 (1)
0x50|                  7b 00                        |      {.        |            d: 123 0x56-0x57.7 (2)
    |                                               |                |          [5]{}: ins 0x58-0x5b.7 (4)
0x50|                        29                     |        )       |            op: "KSHORT" (41) 0x58-0x58.7 (1)
0x50|                           02                  |         .      |            a: 2 0x59-0x59.7 (1)
0x50|                              9a 02            |          ..    |            d: 666 0x5a-0x5b.7 (2)
    |                                               |                |          [6]{}: ins 0x5c-0x5f.7 (4)
0x50|                                    33         |            3   |            op: "FNEW" (51) 0x5c-0x5c.7 (1)
0x50|                                       03      |             .  |            a: 3 0x5d-0x5d.7 (1)
0x50|                                          04 00|              ..|            d: 4 0x5e-0x5f.7 (2)
    |                                               |                |          [7]{}: ins 0x60-0x63.7 (4)
0x60|37                                             |7               |            op: "GSET" (55) 0x60-0x60.7 (1)
0x60|   03                                          | .              |            a: 3 0x61-0x61.7 (1)
0x60|      05 00                                    |  ..            |            d: 5 0x62-0x63.7 (2)
    |                                               |                |          [8]{}: ins 0x64-0x67.7 (4)
0x60|            12                                 |    .           |            op: "MOV" (18) 0x64-0x64.7 (1)
0x60|               04                              |     .          |            a: 4 0x65-0x65.7 (1)
0x60|                  03 00                        |      ..        |            d: 3 0x66-0x67.7 (2)
    |                                               |                |          [9]{}: ins 0x68-0x6b.7 (4)
0x60|                        29                     |        )       |            op: "KSHORT" (41) 0x68-0x68.7 (1)
0x60|                           06                  |         .      |            a: 6 0x69-0x69.7 (1)
0x60|                              2a 00            |          *.    |            d: 42 0x6a-0x6b.7 (2)
    |                                               |                |          [10]{}: ins 0x6c-0x6f.7 (4)
0x60|                                    42         |            B   |            op: "CALL" (66) 0x6c-0x6c.7 (1)
0x60|                                       04      |             .  |            a: 4 0x6d-0x6d.7 (1)
0x60|                                          02   |              . |            c: 2 0x6e-0x6e.7 (1)
0x60|                                             02|               .|            b: 2 0x6f-0x6f.7 (1)
    |                                               |                |          [11]{}: ins 0x70-0x73.7 (4)
0x70|37                                             |7               |            op: "GSET" (55) 0x70-0x70.7 (1)
0x70|   04                                          | .              |            a: 4 0x71-0x71.7 (1)
0x70|      06 00                                    |  ..            |            d: 6 0x72-0x73.7 (2)
    |                                               |                |          [12]{}: ins 0x74-0x77.7 (4)
0x70|            32                                 |    2           |            op: "UCLO" (50) 0x74-0x74.7 (1)
0x70|               00                              |     .          |            a: 0 0x75-0x75.7 (1)
0x70|                  00 80                        |      ..        |            j: 0 0x76-0x77.7 (2)
    |                                               |                |          [13]{}: ins 0x78-0x7b.7 (4)
0x70|                        4b                     |        K       |            op: "RET0" (75) 0x78-0x78.7 (1)
0x70|                           00                  |         .      |            a: 0 0x79-0x79.7 (1)
0x70|                              01 00            |          ..    |            d: 1 0x7a-0x7b.7 (2)
    |                                               |                |        uvdata[0:0]: 0x7c-NA (0)
    |                                               |                |        kgc[0:7]: 0x7c-0xf8.7 (125)
    |                                               |                |          [0]{}: kgc 0x7c-0x89.7 (14)
0x70|                                    12         |            .   |            type: "str" (18) 0x7c-0x7c.7 (1)
0x70|                                       6d 79 66|             myf|            str: "myfunc_result" 0x7d-0x89.7 (13)
0x80|75 6e 63 5f 72 65 73 75 6c 74                  |unc_result      |
    |                                               |                |          [1]{}: kgc 0x8a-0x90.7 (7)
0x80|                              0b               |          .     |            type: "str" (11) 0x8a-0x8a.7 (1)
0x80|                                 6d 79 66 75 6e|           myfun|            str: "myfunc" 0x8b-0x90.7 (6)
0x90|63                                             |c               |
    |                                               |                |          [2]{}: kgc 0x91-0x91.7 (1)
0x90|   00                                          | .              |            type: "child" (0) 0x91-0x91.7 (1)
    |                                               |                |          [3]{}: kgc 0x92-0x97.7 (6)
0x90|      0a                                       |  .             |            type: "str" (10) 0x92-0x92.7 (1)
0x90|         6d 79 74 62 6c                        |   mytbl        |            str: "mytbl" 0x93-0x97.7 (5)
    |                                               |                |          [4]{}: kgc 0x98-0x9e.7 (7)
0x90|                        0b                     |        .       |            type: "str" (11) 0x98-0x98.7 (1)
0x90|                           6d 79 63 70 6c 78   |         mycplx |            str: "mycplx" 0x99-0x9e.7 (6)
    |                                               |                |          [5]{}: kgc 0x9f-0xab.7 (13)
0x90|                                             04|               .|            type: "complex" (4) 0x9f-0x9f.7 (1)
0xa0|00 00                                          |..              |            real: 0 0xa0-0xa1.7 (2)
0xa0|      9a b3 e6 cc 09 99 b3 a6 80 04            |  ..........    |            imag: 3.2 0xa2-0xab.7 (10)
    |                                               |                |          [6]{}: kgc 0xac-0xf8.7 (77)
0xa0|                                    01         |            .   |            type: "tab" (1) 0xac-0xac.7 (1)
0xa0|                                       00      |             .  |            narray: 0 0xad-0xad.7 (1)
0xa0|                                          05   |              . |            nhash: 5 0xae-0xae.7 (1)
    |                                               |                |            karray[0:0]: 0xaf-NA (0)
    |                                               |                |            khash[0:5]: 0xaf-0xf8.7 (74)
    |                                               |                |              [0]{}: khash 0xaf-0xc2.7 (20)
    |                                               |                |                k{}: 0xaf-0xb6.7 (8)
0xa0|                                             0c|               .|                  ktabtype: "str" (12) 0xaf-0xaf.7 (1)
0xb0|73 6f 6d 65 73 74 72                           |somestr         |                  str: "somestr" 0xb0-0xb6.7 (7)
    |                                               |                |                v{}: 0xb7-0xc2.7 (12)
0xb0|                     10                        |       .        |                  ktabtype: "str" (16) 0xb7-0xb7.7 (1)
0xb0|                        69 74 27 73 20 61 20 74|        it's a t|                  str: "it's a trap" 0xb8-0xc2.7 (11)
0xc0|72 61 70                                       |rap             |
    |                                               |                |              [1]{}: khash 0xc3-0xd5.7 (19)
    |                                               |                |                k{}: 0xc3-0xca.7 (8)
0xc0|         0c                                    |   .            |                  ktabtype: "str" (12) 0xc3-0xc3.7 (1)
0xc0|            73 6f 6d 65 6e 75 6d               |    somenum     |                  str: "somenum" 0xc4-0xca.7 (7)
    |                                               |                |                v{}: 0xcb-0xd5.7 (11)
0xc0|                                 04            |           .    |                  ktabtype: "num" (4) 0xcb-0xcb.7 (1)
0xc0|                                    80 80 a8 b5|            ....|                  num: 7.89437298e+11 0xcc-0xd5.7 (10)
0xd0|02 c4 f3 9b 93 04                              |......          |
    |                                               |                |              [2]{}: khash 0xd6-0xe3.7 (14)
    |                                               |                |                k{}: 0xd6-0xdd.7 (8)
0xd0|                  0c                           |      .         |                  ktabtype: "str" (12) 0xd6-0xd6.7 (1)
0xd0|                     73 6f 6d 65 69 6e 74      |       someint  |                  str: "someint" 0xd7-0xdd.7 (7)
    |                                               |                |                v{}: 0xde-0xe3.7 (6)
0xd0|                                          03   |              . |                  ktabtype: "int" (3) 0xde-0xde.7 (1)
0xd0|                                             fd|               .|                  int: 4294967293 0xdf-0xe3.7 (5)
0xe0|ff ff ff 0f                                    |....            |
    |                                               |                |              [3]{}: khash 0xe4-0xee.7 (11)
    |                                               |                |                k{}: 0xe4-0xed.7 (10)
0xe0|            0e                                 |    .           |                  ktabtype: "str" (14) 0xe4-0xe4.7 (1)
0xe0|               73 6f 6d 65 66 61 6c 73 65      |     somefalse  |                  str: "somefalse" 0xe5-0xed.7 (9)
    |                                               |                |                v{}: 0xee-0xee.7 (1)
0xe0|                                          01   |              . |                  ktabtype: "false" (1) 0xee-0xee.7 (1)
    |                                               |                |              [4]{}: khash 0xef-0xf8.7 (10)
    |                                               |                |                k{}: 0xef-0xf7.7 (9)
0xe0|                                             0d|               .|                  ktabtype: "str" (13) 0xef-0xef.7 (1)
0xf0|73 6f 6d 65 74 72 75 65                        |sometrue        |                  str: "sometrue" 0xf0-0xf7.7 (8)
    |                                               |                |                v{}: 0xf8-0xf8.7 (1)
0xf0|                        02                     |        .       |                  ktabtype: "true" (2) 0xf8-0xf8.7 (1)
    |                                               |                |        knum[0:0]: 0xf9-NA (0)
0xf0|                           00|                 |         .|     |  end: 0 0xf9-0xf9.7 (1)
