# luajit -b -s simple.lua simple_stripped.luac
$ fq dv simple_stripped.luac
     |00 01 02 03 04 05 06 07 08 09 0a 0b 0c 0d 0e 0f|0123456789abcdef|.{}: simple_stripped.luac (luajit) 0x0-0x133.7 (308)
     |                                               |                |  header{}: 0x0-0x4.7 (5)
0x000|1b 4c 4a                                       |.LJ             |    magic: raw bits (valid) 0x0-0x2.7 (3)
0x000|         02                                    |   .            |    version: 2 0x3-0x3.7 (1)
     |                                               |                |    flags{}: 0x4-0x4.7 (1)
0x000|            0e                                 |    .           |      raw: 14 0x4-0x4.7 (1)
     |                                               |                |      be: false
     |                                               |                |      strip: true
     |                                               |                |      ffi: true
     |                                               |                |      fr2: true
     |                                               |                |  proto[0:2]: 0x5-0x132.7 (302)
     |                                               |                |    [0]{}: proto 0x5-0x3a.7 (54)
0x000|               35                              |     5          |      length: 53 0x5-0x5.7 (1)
     |                                               |                |      pdata{}: 0x6-0x3a.7 (53)
     |                                               |                |        phead{}: 0x6-0xc.7 (7)
0x000|                  00                           |      .         |          flags: 0 0x6-0x6.7 (1)
0x000|                     01                        |       .        |          numparams: 1 0x7-0x7.7 (1)
0x000|                        03                     |        .       |          framesize: 3 0x8-0x8.7 (1)
0x000|                           02                  |         .      |          numuv: 2 0x9-0x9.7 (1)
0x000|                              00               |          .     |          numkgc: 0 0xa-0xa.7 (1)
0x000|                                 02            |           .    |          numkn: 2 0xb-0xb.7 (1)
0x000|                                    07         |            .   |          numbc: 7 0xc-0xc.7 (1)
     |                                               |                |        bcins[0:7]: 0xd-0x28.7 (28)
     |                                               |                |          [0]{}: ins 0xd-0x10.7 (4)
0x000|                                       2d      |             -  |            op: "UGET" (45) 0xd-0xd.7 (1)
0x000|                                          01   |              . |            a: 1 0xe-0xe.7 (1)
0x000|                                             00|               .|            d: 0 0xf-0x10.7 (2)
0x010|00                                             |.               |
     |                                               |                |          [1]{}: ins 0x11-0x14.7 (4)
0x010|   2d                                          | -              |            op: "UGET" (45) 0x11-0x11.7 (1)
0x010|      02                                       |  .             |            a: 2 0x12-0x12.7 (1)
0x010|         01 00                                 |   ..           |            d: 1 0x13-0x14.7 (2)
     |                                               |                |          [2]{}: ins 0x15-0x18.7 (4)
0x010|               20                              |                |            op: "ADDVV" (32) 0x15-0x15.7 (1)
0x010|                  01                           |      .         |            a: 1 0x16-0x16.7 (1)
0x010|                     02                        |       .        |            c: 2 0x17-0x17.7 (1)
0x010|                        01                     |        .       |            b: 1 0x18-0x18.7 (1)
     |                                               |                |          [3]{}: ins 0x19-0x1c.7 (4)
0x010|                           22                  |         "      |            op: "MULVV" (34) 0x19-0x19.7 (1)
0x010|                              02               |          .     |            a: 2 0x1a-0x1a.7 (1)
0x010|                                 01            |           .    |            c: 1 0x1b-0x1b.7 (1)
0x010|                                    00         |            .   |            b: 0 0x1c-0x1c.7 (1)
     |                                               |                |          [4]{}: ins 0x1d-0x20.7 (4)
0x010|                                       18      |             .  |            op: "MULVN" (24) 0x1d-0x1d.7 (1)
0x010|                                          02   |              . |            a: 2 0x1e-0x1e.7 (1)
0x010|                                             00|               .|            c: 0 0x1f-0x1f.7 (1)
0x020|02                                             |.               |            b: 2 0x20-0x20.7 (1)
     |                                               |                |          [5]{}: ins 0x21-0x24.7 (4)
0x020|   16                                          | .              |            op: "ADDVN" (22) 0x21-0x21.7 (1)
0x020|      02                                       |  .             |            a: 2 0x22-0x22.7 (1)
0x020|         01                                    |   .            |            c: 1 0x23-0x23.7 (1)
0x020|            02                                 |    .           |            b: 2 0x24-0x24.7 (1)
     |                                               |                |          [6]{}: ins 0x25-0x28.7 (4)
0x020|               4c                              |     L          |            op: "RET1" (76) 0x25-0x25.7 (1)
0x020|                  02                           |      .         |            a: 2 0x26-0x26.7 (1)
0x020|                     02 00                     |       ..       |            d: 2 0x27-0x28.7 (2)
     |                                               |                |        uvdata[0:2]: 0x29-0x2c.7 (4)
0x020|                           01 c0               |         ..     |          [0]: 49153 uv 0x29-0x2a.7 (2)
0x020|                                 02 c0         |           ..   |          [1]: 49154 uv 0x2b-0x2c.7 (2)
     |                                               |                |        kgc[0:0]: 0x2d-NA (0)
     |                                               |                |        knum[0:2]: 0x2d-0x3a.7 (14)
0x020|                                       d2 f9 ea|             ...|          [0]: 2973289 knum 0x2d-0x30.7 (4)
0x030|02                                             |.               |
0x030|   81 80 90 9d 0c 8a a1 88 91 04               | ..........     |          [1]: 3.8793457897e+10 knum 0x31-0x3a.7 (10)
     |                                               |                |    [1]{}: proto 0x3b-0x132.7 (248)
0x030|                                 f6 01         |           ..   |      length: 246 0x3b-0x3c.7 (2)
     |                                               |                |      pdata{}: 0x3d-0x132.7 (246)
     |                                               |                |        phead{}: 0x3d-0x43.7 (7)
0x030|                                       07      |             .  |          flags: 7 0x3d-0x3d.7 (1)
0x030|                                          00   |              . |          numparams: 0 0x3e-0x3e.7 (1)
0x030|                                             07|               .|          framesize: 7 0x3f-0x3f.7 (1)
0x040|00                                             |.               |          numuv: 0 0x40-0x40.7 (1)
0x040|   07                                          | .              |          numkgc: 7 0x41-0x41.7 (1)
0x040|      00                                       |  .             |          numkn: 0 0x42-0x42.7 (1)
0x040|         0e                                    |   .            |          numbc: 14 0x43-0x43.7 (1)
     |                                               |                |        bcins[0:14]: 0x44-0x7b.7 (56)
     |                                               |                |          [0]{}: ins 0x44-0x47.7 (4)
0x040|            35                                 |    5           |            op: "TDUP" (53) 0x44-0x44.7 (1)
0x040|               00                              |     .          |            a: 0 0x45-0x45.7 (1)
0x040|                  00 00                        |      ..        |            d: 0 0x46-0x47.7 (2)
     |                                               |                |          [1]{}: ins 0x48-0x4b.7 (4)
0x040|                        28                     |        (       |            op: "KCDATA" (40) 0x48-0x48.7 (1)
0x040|                           01                  |         .      |            a: 1 0x49-0x49.7 (1)
0x040|                              01 00            |          ..    |            d: 1 0x4a-0x4b.7 (2)
     |                                               |                |          [2]{}: ins 0x4c-0x4f.7 (4)
0x040|                                    37         |            7   |            op: "GSET" (55) 0x4c-0x4c.7 (1)
0x040|                                       01      |             .  |            a: 1 0x4d-0x4d.7 (1)
0x040|                                          02 00|              ..|            d: 2 0x4e-0x4f.7 (2)
     |                                               |                |          [3]{}: ins 0x50-0x53.7 (4)
0x050|37                                             |7               |            op: "GSET" (55) 0x50-0x50.7 (1)
0x050|   00                                          | .              |            a: 0 0x51-0x51.7 (1)
0x050|      03 00                                    |  ..            |            d: 3 0x52-0x53.7 (2)
     |                                               |                |          [4]{}: ins 0x54-0x57.7 (4)
0x050|            29                                 |    )           |            op: "KSHORT" (41) 0x54-0x54.7 (1)
0x050|               01                              |     .          |            a: 1 0x55-0x55.7 (1)
0x050|                  7b 00                        |      {.        |            d: 123 0x56-0x57.7 (2)
     |                                               |                |          [5]{}: ins 0x58-0x5b.7 (4)
0x050|                        29                     |        )       |            op: "KSHORT" (41) 0x58-0x58.7 (1)
0x050|                           02                  |         .      |            a: 2 0x59-0x59.7 (1)
0x050|                              9a 02            |          ..    |            d: 666 0x5a-0x5b.7 (2)
     |                                               |                |          [6]{}: ins 0x5c-0x5f.7 (4)
0x050|                                    33         |            3   |            op: "FNEW" (51) 0x5c-0x5c.7 (1)
0x050|                                       03      |             .  |            a: 3 0x5d-0x5d.7 (1)
0x050|                                          04 00|              ..|            d: 4 0x5e-0x5f.7 (2)
     |                                               |                |          [7]{}: ins 0x60-0x63.7 (4)
0x060|37                                             |7               |            op: "GSET" (55) 0x60-0x60.7 (1)
0x060|   03                                          | .              |            a: 3 0x61-0x61.7 (1)
0x060|      05 00                                    |  ..            |            d: 5 0x62-0x63.7 (2)
     |                                               |                |          [8]{}: ins 0x64-0x67.7 (4)
0x060|            12                                 |    .           |            op: "MOV" (18) 0x64-0x64.7 (1)
0x060|               04                              |     .          |            a: 4 0x65-0x65.7 (1)
0x060|                  03 00                        |      ..        |            d: 3 0x66-0x67.7 (2)
     |                                               |                |          [9]{}: ins 0x68-0x6b.7 (4)
0x060|                        29                     |        )       |            op: "KSHORT" (41) 0x68-0x68.7 (1)
0x060|                           06                  |         .      |            a: 6 0x69-0x69.7 (1)
0x060|                              2a 00            |          *.    |            d: 42 0x6a-0x6b.7 (2)
     |                                               |                |          [10]{}: ins 0x6c-0x6f.7 (4)
0x060|                                    42         |            B   |            op: "CALL" (66) 0x6c-0x6c.7 (1)
0x060|                                       04      |             .  |            a: 4 0x6d-0x6d.7 (1)
0x060|                                          02   |              . |            c: 2 0x6e-0x6e.7 (1)
0x060|                                             02|               .|            b: 2 0x6f-0x6f.7 (1)
     |                                               |                |          [11]{}: ins 0x70-0x73.7 (4)
0x070|37                                             |7               |            op: "GSET" (55) 0x70-0x70.7 (1)
0x070|   04                                          | .              |            a: 4 0x71-0x71.7 (1)
0x070|      06 00                                    |  ..            |            d: 6 0x72-0x73.7 (2)
     |                                               |                |          [12]{}: ins 0x74-0x77.7 (4)
0x070|            32                                 |    2           |            op: "UCLO" (50) 0x74-0x74.7 (1)
0x070|               00                              |     .          |            a: 0 0x75-0x75.7 (1)
0x070|                  00 80                        |      ..        |            j: 0 0x76-0x77.7 (2)
     |                                               |                |          [13]{}: ins 0x78-0x7b.7 (4)
0x070|                        4b                     |        K       |            op: "RET0" (75) 0x78-0x78.7 (1)
0x070|                           00                  |         .      |            a: 0 0x79-0x79.7 (1)
0x070|                              01 00            |          ..    |            d: 1 0x7a-0x7b.7 (2)
     |                                               |                |        uvdata[0:0]: 0x7c-NA (0)
     |                                               |                |        kgc[0:7]: 0x7c-0x132.7 (183)
     |                                               |                |          [0]{}: kgc 0x7c-0x89.7 (14)
0x070|                                    12         |            .   |            type: "str" (18) 0x7c-0x7c.7 (1)
0x070|                                       6d 79 66|             myf|            value: "myfunc_result" 0x7d-0x89.7 (13)
0x080|75 6e 63 5f 72 65 73 75 6c 74                  |unc_result      |
     |                                               |                |          [1]{}: kgc 0x8a-0x90.7 (7)
0x080|                              0b               |          .     |            type: "str" (11) 0x8a-0x8a.7 (1)
0x080|                                 6d 79 66 75 6e|           myfun|            value: "myfunc" 0x8b-0x90.7 (6)
0x090|63                                             |c               |
     |                                               |                |          [2]{}: kgc 0x91-0x91.7 (1)
0x090|   00                                          | .              |            type: "child" (0) 0x91-0x91.7 (1)
     |                                               |                |          [3]{}: kgc 0x92-0x97.7 (6)
0x090|      0a                                       |  .             |            type: "str" (10) 0x92-0x92.7 (1)
0x090|         6d 79 74 62 6c                        |   mytbl        |            value: "mytbl" 0x93-0x97.7 (5)
     |                                               |                |          [4]{}: kgc 0x98-0x9e.7 (7)
0x090|                        0b                     |        .       |            type: "str" (11) 0x98-0x98.7 (1)
0x090|                           6d 79 63 70 6c 78   |         mycplx |            value: "mycplx" 0x99-0x9e.7 (6)
     |                                               |                |          [5]{}: kgc 0x9f-0xab.7 (13)
0x090|                                             04|               .|            type: "complex" (4) 0x9f-0x9f.7 (1)
     |                                               |                |            value{}: 0xa0-0xab.7 (12)
0x0a0|00 00                                          |..              |              real: 0 0xa0-0xa1.7 (2)
0x0a0|      9a b3 e6 cc 09 99 b3 a6 80 04            |  ..........    |              imag: 3.2 0xa2-0xab.7 (10)
     |                                               |                |          [6]{}: kgc 0xac-0x132.7 (135)
0x0a0|                                    01         |            .   |            type: "tab" (1) 0xac-0xac.7 (1)
0x0a0|                                       06      |             .  |            narray: 6 0xad-0xad.7 (1)
0x0a0|                                          07   |              . |            nhash: 7 0xae-0xae.7 (1)
     |                                               |                |            array[0:6]: 0xaf-0xc3.7 (21)
     |                                               |                |              [0]{}: element 0xaf-0xaf.7 (1)
0x0a0|                                             00|               .|                type: "nil" (0) 0xaf-0xaf.7 (1)
     |                                               |                |                value: null
     |                                               |                |              [1]{}: element 0xb0-0xb0.7 (1)
0x0b0|02                                             |.               |                type: "true" (2) 0xb0-0xb0.7 (1)
     |                                               |                |                value: true
     |                                               |                |              [2]{}: element 0xb1-0xb1.7 (1)
0x0b0|   01                                          | .              |                type: "false" (1) 0xb1-0xb1.7 (1)
     |                                               |                |                value: false
     |                                               |                |              [3]{}: element 0xb2-0xb2.7 (1)
0x0b0|      00                                       |  .             |                type: "nil" (0) 0xb2-0xb2.7 (1)
     |                                               |                |                value: null
     |                                               |                |              [4]{}: element 0xb3-0xb8.7 (6)
0x0b0|         03                                    |   .            |                type: "int" (3) 0xb3-0xb3.7 (1)
0x0b0|            e4 a2 e0 d0 01                     |    .....       |                value: 437784932 0xb4-0xb8.7 (5)
     |                                               |                |              [5]{}: element 0xb9-0xc3.7 (11)
0x0b0|                           04                  |         .      |                type: "num" (4) 0xb9-0xb9.7 (1)
0x0b0|                              d6 c5 c9 e0 0a f6|          ......|                value: 4.23748378e-06 0xba-0xc3.7 (10)
0x0c0|8b c7 f6 03                                    |....            |
     |                                               |                |            hash[0:7]: 0xc4-0x132.7 (111)
     |                                               |                |              [0]{}: pair 0xc4-0xd8.7 (21)
     |                                               |                |                key{}: 0xc4-0xca.7 (7)
0x0c0|            04                                 |    .           |                  type: "num" (4) 0xc4-0xc4.7 (1)
0x0c0|               00 80 c8 d3 84 0c               |     ......     |                  value: -1337 0xc5-0xca.7 (6)
     |                                               |                |                value{}: 0xcb-0xd8.7 (14)
0x0c0|                                 12            |           .    |                  type: "str" (18) 0xcb-0xcb.7 (1)
0x0c0|                                    6b 65 79 20|            key |                  value: "key is an int" 0xcc-0xd8.7 (13)
0x0d0|69 73 20 61 6e 20 69 6e 74                     |is an int       |
     |                                               |                |              [1]{}: pair 0xd9-0xf0.7 (24)
     |                                               |                |                key{}: 0xd9-0xe3.7 (11)
0x0d0|                           04                  |         .      |                  type: "num" (4) 0xd9-0xd9.7 (1)
0x0d0|                              cf a4 ba cd 09 fc|          ......|                  value: 2.74389 0xda-0xe3.7 (10)
0x0e0|e6 97 80 04                                    |....            |
     |                                               |                |                value{}: 0xe4-0xf0.7 (13)
0x0e0|            11                                 |    .           |                  type: "str" (17) 0xe4-0xe4.7 (1)
0x0e0|               6b 65 79 20 69 73 20 61 20 6e 75|     key is a nu|                  value: "key is a num" 0xe5-0xf0.7 (12)
0x0f0|6d                                             |m               |
     |                                               |                |              [2]{}: pair 0xf1-0xfc.7 (12)
     |                                               |                |                key{}: 0xf1-0xf8.7 (8)
0x0f0|   0c                                          | .              |                  type: "str" (12) 0xf1-0xf1.7 (1)
0x0f0|      73 6f 6d 65 73 74 72                     |  somestr       |                  value: "somestr" 0xf2-0xf8.7 (7)
     |                                               |                |                value{}: 0xf9-0xfc.7 (4)
0x0f0|                           08                  |         .      |                  type: "str" (8) 0xf9-0xf9.7 (1)
0x0f0|                              75 77 75         |          uwu   |                  value: "uwu" 0xfa-0xfc.7 (3)
     |                                               |                |              [3]{}: pair 0xfd-0x10f.7 (19)
     |                                               |                |                key{}: 0xfd-0x104.7 (8)
0x0f0|                                       0c      |             .  |                  type: "str" (12) 0xfd-0xfd.7 (1)
0x0f0|                                          73 6f|              so|                  value: "somenum" 0xfe-0x104.7 (7)
0x100|6d 65 6e 75 6d                                 |menum           |
     |                                               |                |                value{}: 0x105-0x10f.7 (11)
0x100|               04                              |     .          |                  type: "num" (4) 0x105-0x105.7 (1)
0x100|                  80 80 a8 b5 02 c4 f3 9b 93 04|      ..........|                  value: 7.89437298e+11 0x106-0x10f.7 (10)
     |                                               |                |              [4]{}: pair 0x110-0x11d.7 (14)
     |                                               |                |                key{}: 0x110-0x117.7 (8)
0x110|0c                                             |.               |                  type: "str" (12) 0x110-0x110.7 (1)
0x110|   73 6f 6d 65 69 6e 74                        | someint        |                  value: "someint" 0x111-0x117.7 (7)
     |                                               |                |                value{}: 0x118-0x11d.7 (6)
0x110|                        03                     |        .       |                  type: "int" (3) 0x118-0x118.7 (1)
0x110|                           fd ff ff ff 0f      |         .....  |                  value: 4294967293 0x119-0x11d.7 (5)
     |                                               |                |              [5]{}: pair 0x11e-0x128.7 (11)
     |                                               |                |                key{}: 0x11e-0x127.7 (10)
0x110|                                          0e   |              . |                  type: "str" (14) 0x11e-0x11e.7 (1)
0x110|                                             73|               s|                  value: "somefalse" 0x11f-0x127.7 (9)
0x120|6f 6d 65 66 61 6c 73 65                        |omefalse        |
     |                                               |                |                value{}: 0x128-0x128.7 (1)
0x120|                        01                     |        .       |                  type: "false" (1) 0x128-0x128.7 (1)
     |                                               |                |                  value: false
     |                                               |                |              [6]{}: pair 0x129-0x132.7 (10)
     |                                               |                |                key{}: 0x129-0x131.7 (9)
0x120|                           0d                  |         .      |                  type: "str" (13) 0x129-0x129.7 (1)
0x120|                              73 6f 6d 65 74 72|          sometr|                  value: "sometrue" 0x12a-0x131.7 (8)
0x130|75 65                                          |ue              |
     |                                               |                |                value{}: 0x132-0x132.7 (1)
0x130|      02                                       |  .             |                  type: "true" (2) 0x132-0x132.7 (1)
     |                                               |                |                  value: true
     |                                               |                |        knum[0:0]: 0x133-NA (0)
0x130|         00|                                   |   .|           |  end: raw bits (valid) 0x133-0x133.7 (1)
