# luajit -b -g simple.lua simple.luac
$ fq dv simple.luac
     |00 01 02 03 04 05 06 07 08 09 0a 0b 0c 0d 0e 0f|0123456789abcdef|.{}: simple.luac (luajit) 0x0-0x183 (387)
     |                                               |                |  header{}: 0x0-0x12 (18)
0x000|1b 4c 4a                                       |.LJ             |    magic: raw bits (valid) 0x0-0x3 (3)
0x000|         02                                    |   .            |    version: 2 0x3-0x4 (1)
     |                                               |                |    flags{}: 0x4-0x5 (1)
0x000|            0c                                 |    .           |      raw: 12 0x4-0x5 (1)
     |                                               |                |      be: false
     |                                               |                |      strip: false
     |                                               |                |      ffi: true
     |                                               |                |      fr2: true
0x000|               0c                              |     .          |    namelen: 12 0x5-0x6 (1)
0x000|                  40 65 78 61 6d 70 6c 65 2e 6c|      @example.l|    name: "@example.lua" 0x6-0x12 (12)
0x010|75 61                                          |ua              |
     |                                               |                |  proto[0:2]: 0x12-0x182 (368)
     |                                               |                |    [0]{}: proto 0x12-0x5f (77)
0x010|      4c                                       |  L             |      length: 76 0x12-0x13 (1)
     |                                               |                |      pdata{}: 0x13-0x5f (76)
     |                                               |                |        phead{}: 0x13-0x1d (10)
0x010|         00                                    |   .            |          flags: 0 0x13-0x14 (1)
0x010|            01                                 |    .           |          numparams: 1 0x14-0x15 (1)
0x010|               03                              |     .          |          framesize: 3 0x15-0x16 (1)
0x010|                  02                           |      .         |          numuv: 2 0x16-0x17 (1)
0x010|                     00                        |       .        |          numkgc: 0 0x17-0x18 (1)
0x010|                        02                     |        .       |          numkn: 2 0x18-0x19 (1)
0x010|                           07                  |         .      |          numbc: 7 0x19-0x1a (1)
0x010|                              14               |          .     |          debuglen: 20 0x1a-0x1b (1)
0x010|                                 1b            |           .    |          firstline: 27 0x1b-0x1c (1)
0x010|                                    03         |            .   |          numline: 3 0x1c-0x1d (1)
     |                                               |                |        bcins[0:7]: 0x1d-0x39 (28)
     |                                               |                |          [0]{}: ins 0x1d-0x21 (4)
0x010|                                       2d      |             -  |            op: "UGET" (45) 0x1d-0x1e (1)
0x010|                                          01   |              . |            a: 1 0x1e-0x1f (1)
0x010|                                             00|               .|            d: 0 0x1f-0x21 (2)
0x020|00                                             |.               |
     |                                               |                |          [1]{}: ins 0x21-0x25 (4)
0x020|   2d                                          | -              |            op: "UGET" (45) 0x21-0x22 (1)
0x020|      02                                       |  .             |            a: 2 0x22-0x23 (1)
0x020|         01 00                                 |   ..           |            d: 1 0x23-0x25 (2)
     |                                               |                |          [2]{}: ins 0x25-0x29 (4)
0x020|               20                              |                |            op: "ADDVV" (32) 0x25-0x26 (1)
0x020|                  01                           |      .         |            a: 1 0x26-0x27 (1)
0x020|                     02                        |       .        |            c: 2 0x27-0x28 (1)
0x020|                        01                     |        .       |            b: 1 0x28-0x29 (1)
     |                                               |                |          [3]{}: ins 0x29-0x2d (4)
0x020|                           22                  |         "      |            op: "MULVV" (34) 0x29-0x2a (1)
0x020|                              02               |          .     |            a: 2 0x2a-0x2b (1)
0x020|                                 01            |           .    |            c: 1 0x2b-0x2c (1)
0x020|                                    00         |            .   |            b: 0 0x2c-0x2d (1)
     |                                               |                |          [4]{}: ins 0x2d-0x31 (4)
0x020|                                       18      |             .  |            op: "MULVN" (24) 0x2d-0x2e (1)
0x020|                                          02   |              . |            a: 2 0x2e-0x2f (1)
0x020|                                             00|               .|            c: 0 0x2f-0x30 (1)
0x030|02                                             |.               |            b: 2 0x30-0x31 (1)
     |                                               |                |          [5]{}: ins 0x31-0x35 (4)
0x030|   16                                          | .              |            op: "ADDVN" (22) 0x31-0x32 (1)
0x030|      02                                       |  .             |            a: 2 0x32-0x33 (1)
0x030|         01                                    |   .            |            c: 1 0x33-0x34 (1)
0x030|            02                                 |    .           |            b: 2 0x34-0x35 (1)
     |                                               |                |          [6]{}: ins 0x35-0x39 (4)
0x030|               4c                              |     L          |            op: "RET1" (76) 0x35-0x36 (1)
0x030|                  02                           |      .         |            a: 2 0x36-0x37 (1)
0x030|                     02 00                     |       ..       |            d: 2 0x37-0x39 (2)
     |                                               |                |        uvdata[0:2]: 0x39-0x3d (4)
0x030|                           01 c0               |         ..     |          [0]: 49153 uv 0x39-0x3b (2)
0x030|                                 02 c0         |           ..   |          [1]: 49154 uv 0x3b-0x3d (2)
     |                                               |                |        kgc[0:0]: 0x3d-0x3d (0)
     |                                               |                |        knum[0:2]: 0x3d-0x4b (14)
0x030|                                       d2 f9 ea|             ...|          [0]: 2973289 knum 0x3d-0x41 (4)
0x040|02                                             |.               |
0x040|   81 80 90 9d 0c 8a a1 88 91 04               | ..........     |          [1]: 3.8793457897e+10 knum 0x41-0x4b (10)
     |                                               |                |        debug{}: 0x4b-0x5f (20)
     |                                               |                |          lines[0:7]: 0x4b-0x52 (7)
0x040|                                 01            |           .    |            [0]: 1 value 0x4b-0x4c (1)
0x040|                                    01         |            .   |            [1]: 1 value 0x4c-0x4d (1)
0x040|                                       01      |             .  |            [2]: 1 value 0x4d-0x4e (1)
0x040|                                          02   |              . |            [3]: 2 value 0x4e-0x4f (1)
0x040|                                             02|               .|            [4]: 2 value 0x4f-0x50 (1)
0x050|02                                             |.               |            [5]: 2 value 0x50-0x51 (1)
0x050|   02                                          | .              |            [6]: 2 value 0x51-0x52 (1)
     |                                               |                |          annotations[0:6]: 0x52-0x5f (13)
0x050|      61 00                                    |  a.            |            [0]: "a" value 0x52-0x54 (2)
0x050|            62 00                              |    b.          |            [1]: "b" value 0x54-0x56 (2)
0x050|                  78 00                        |      x.        |            [2]: "x" value 0x56-0x58 (2)
0x050|                        00                     |        .       |            [3]: "" value 0x58-0x59 (1)
0x050|                           08 63 00            |         .c.    |            [4]: "\bc" value 0x59-0x5c (3)
0x050|                                    04 04 00   |            ... |            [5]: "\x04\x04" value 0x5c-0x5f (3)
     |                                               |                |    [1]{}: proto 0x5f-0x182 (291)
0x050|                                             a1|               .|      length: 289 0x5f-0x61 (2)
0x060|02                                             |.               |
     |                                               |                |      pdata{}: 0x61-0x182 (289)
     |                                               |                |        phead{}: 0x61-0x6b (10)
0x060|   07                                          | .              |          flags: 7 0x61-0x62 (1)
0x060|      00                                       |  .             |          numparams: 0 0x62-0x63 (1)
0x060|         07                                    |   .            |          framesize: 7 0x63-0x64 (1)
0x060|            00                                 |    .           |          numuv: 0 0x64-0x65 (1)
0x060|               07                              |     .          |          numkgc: 7 0x65-0x66 (1)
0x060|                  00                           |      .         |          numkn: 0 0x66-0x67 (1)
0x060|                     0e                        |       .        |          numbc: 14 0x67-0x68 (1)
0x060|                        28                     |        (       |          debuglen: 40 0x68-0x69 (1)
0x060|                           00                  |         .      |          firstline: 0 0x69-0x6a (1)
0x060|                              22               |          "     |          numline: 34 0x6a-0x6b (1)
     |                                               |                |        bcins[0:14]: 0x6b-0xa3 (56)
     |                                               |                |          [0]{}: ins 0x6b-0x6f (4)
0x060|                                 35            |           5    |            op: "TDUP" (53) 0x6b-0x6c (1)
0x060|                                    00         |            .   |            a: 0 0x6c-0x6d (1)
0x060|                                       00 00   |             .. |            d: 0 0x6d-0x6f (2)
     |                                               |                |          [1]{}: ins 0x6f-0x73 (4)
0x060|                                             28|               (|            op: "KCDATA" (40) 0x6f-0x70 (1)
0x070|01                                             |.               |            a: 1 0x70-0x71 (1)
0x070|   01 00                                       | ..             |            d: 1 0x71-0x73 (2)
     |                                               |                |          [2]{}: ins 0x73-0x77 (4)
0x070|         37                                    |   7            |            op: "GSET" (55) 0x73-0x74 (1)
0x070|            01                                 |    .           |            a: 1 0x74-0x75 (1)
0x070|               02 00                           |     ..         |            d: 2 0x75-0x77 (2)
     |                                               |                |          [3]{}: ins 0x77-0x7b (4)
0x070|                     37                        |       7        |            op: "GSET" (55) 0x77-0x78 (1)
0x070|                        00                     |        .       |            a: 0 0x78-0x79 (1)
0x070|                           03 00               |         ..     |            d: 3 0x79-0x7b (2)
     |                                               |                |          [4]{}: ins 0x7b-0x7f (4)
0x070|                                 29            |           )    |            op: "KSHORT" (41) 0x7b-0x7c (1)
0x070|                                    01         |            .   |            a: 1 0x7c-0x7d (1)
0x070|                                       7b 00   |             {. |            d: 123 0x7d-0x7f (2)
     |                                               |                |          [5]{}: ins 0x7f-0x83 (4)
0x070|                                             29|               )|            op: "KSHORT" (41) 0x7f-0x80 (1)
0x080|02                                             |.               |            a: 2 0x80-0x81 (1)
0x080|   9a 02                                       | ..             |            d: 666 0x81-0x83 (2)
     |                                               |                |          [6]{}: ins 0x83-0x87 (4)
0x080|         33                                    |   3            |            op: "FNEW" (51) 0x83-0x84 (1)
0x080|            03                                 |    .           |            a: 3 0x84-0x85 (1)
0x080|               04 00                           |     ..         |            d: 4 0x85-0x87 (2)
     |                                               |                |          [7]{}: ins 0x87-0x8b (4)
0x080|                     37                        |       7        |            op: "GSET" (55) 0x87-0x88 (1)
0x080|                        03                     |        .       |            a: 3 0x88-0x89 (1)
0x080|                           05 00               |         ..     |            d: 5 0x89-0x8b (2)
     |                                               |                |          [8]{}: ins 0x8b-0x8f (4)
0x080|                                 12            |           .    |            op: "MOV" (18) 0x8b-0x8c (1)
0x080|                                    04         |            .   |            a: 4 0x8c-0x8d (1)
0x080|                                       03 00   |             .. |            d: 3 0x8d-0x8f (2)
     |                                               |                |          [9]{}: ins 0x8f-0x93 (4)
0x080|                                             29|               )|            op: "KSHORT" (41) 0x8f-0x90 (1)
0x090|06                                             |.               |            a: 6 0x90-0x91 (1)
0x090|   2a 00                                       | *.             |            d: 42 0x91-0x93 (2)
     |                                               |                |          [10]{}: ins 0x93-0x97 (4)
0x090|         42                                    |   B            |            op: "CALL" (66) 0x93-0x94 (1)
0x090|            04                                 |    .           |            a: 4 0x94-0x95 (1)
0x090|               02                              |     .          |            c: 2 0x95-0x96 (1)
0x090|                  02                           |      .         |            b: 2 0x96-0x97 (1)
     |                                               |                |          [11]{}: ins 0x97-0x9b (4)
0x090|                     37                        |       7        |            op: "GSET" (55) 0x97-0x98 (1)
0x090|                        04                     |        .       |            a: 4 0x98-0x99 (1)
0x090|                           06 00               |         ..     |            d: 6 0x99-0x9b (2)
     |                                               |                |          [12]{}: ins 0x9b-0x9f (4)
0x090|                                 32            |           2    |            op: "UCLO" (50) 0x9b-0x9c (1)
0x090|                                    00         |            .   |            a: 0 0x9c-0x9d (1)
0x090|                                       00 80   |             .. |            j: 0 0x9d-0x9f (2)
     |                                               |                |          [13]{}: ins 0x9f-0xa3 (4)
0x090|                                             4b|               K|            op: "RET0" (75) 0x9f-0xa0 (1)
0x0a0|00                                             |.               |            a: 0 0xa0-0xa1 (1)
0x0a0|   01 00                                       | ..             |            d: 1 0xa1-0xa3 (2)
     |                                               |                |        uvdata[0:0]: 0xa3-0xa3 (0)
     |                                               |                |        kgc[0:7]: 0xa3-0x15a (183)
     |                                               |                |          [0]{}: kgc 0xa3-0xb1 (14)
0x0a0|         12                                    |   .            |            type: "str" (18) 0xa3-0xa4 (1)
0x0a0|            6d 79 66 75 6e 63 5f 72 65 73 75 6c|    myfunc_resul|            value: "myfunc_result" 0xa4-0xb1 (13)
0x0b0|74                                             |t               |
     |                                               |                |          [1]{}: kgc 0xb1-0xb8 (7)
0x0b0|   0b                                          | .              |            type: "str" (11) 0xb1-0xb2 (1)
0x0b0|      6d 79 66 75 6e 63                        |  myfunc        |            value: "myfunc" 0xb2-0xb8 (6)
     |                                               |                |          [2]{}: kgc 0xb8-0xb9 (1)
0x0b0|                        00                     |        .       |            type: "child" (0) 0xb8-0xb9 (1)
     |                                               |                |          [3]{}: kgc 0xb9-0xbf (6)
0x0b0|                           0a                  |         .      |            type: "str" (10) 0xb9-0xba (1)
0x0b0|                              6d 79 74 62 6c   |          mytbl |            value: "mytbl" 0xba-0xbf (5)
     |                                               |                |          [4]{}: kgc 0xbf-0xc6 (7)
0x0b0|                                             0b|               .|            type: "str" (11) 0xbf-0xc0 (1)
0x0c0|6d 79 63 70 6c 78                              |mycplx          |            value: "mycplx" 0xc0-0xc6 (6)
     |                                               |                |          [5]{}: kgc 0xc6-0xd3 (13)
0x0c0|                  04                           |      .         |            type: "complex" (4) 0xc6-0xc7 (1)
     |                                               |                |            value{}: 0xc7-0xd3 (12)
0x0c0|                     00 00                     |       ..       |              real: 0 0xc7-0xc9 (2)
0x0c0|                           9a b3 e6 cc 09 99 b3|         .......|              imag: 3.2 0xc9-0xd3 (10)
0x0d0|a6 80 04                                       |...             |
     |                                               |                |          [6]{}: kgc 0xd3-0x15a (135)
0x0d0|         01                                    |   .            |            type: "tab" (1) 0xd3-0xd4 (1)
0x0d0|            06                                 |    .           |            narray: 6 0xd4-0xd5 (1)
0x0d0|               07                              |     .          |            nhash: 7 0xd5-0xd6 (1)
     |                                               |                |            array[0:6]: 0xd6-0xeb (21)
     |                                               |                |              [0]{}: element 0xd6-0xd7 (1)
0x0d0|                  00                           |      .         |                type: "nil" (0) 0xd6-0xd7 (1)
     |                                               |                |                value: null
     |                                               |                |              [1]{}: element 0xd7-0xd8 (1)
0x0d0|                     02                        |       .        |                type: "true" (2) 0xd7-0xd8 (1)
     |                                               |                |                value: true
     |                                               |                |              [2]{}: element 0xd8-0xd9 (1)
0x0d0|                        01                     |        .       |                type: "false" (1) 0xd8-0xd9 (1)
     |                                               |                |                value: false
     |                                               |                |              [3]{}: element 0xd9-0xda (1)
0x0d0|                           00                  |         .      |                type: "nil" (0) 0xd9-0xda (1)
     |                                               |                |                value: null
     |                                               |                |              [4]{}: element 0xda-0xe0 (6)
0x0d0|                              03               |          .     |                type: "int" (3) 0xda-0xdb (1)
0x0d0|                                 e4 a2 e0 d0 01|           .....|                value: 437784932 0xdb-0xe0 (5)
     |                                               |                |              [5]{}: element 0xe0-0xeb (11)
0x0e0|04                                             |.               |                type: "num" (4) 0xe0-0xe1 (1)
0x0e0|   d6 c5 c9 e0 0a f6 8b c7 f6 03               | ..........     |                value: 4.23748378e-06 0xe1-0xeb (10)
     |                                               |                |            hash[0:7]: 0xeb-0x15a (111)
     |                                               |                |              [0]{}: pair 0xeb-0xf6 (11)
     |                                               |                |                key{}: 0xeb-0xf5 (10)
0x0e0|                                 0e            |           .    |                  type: "str" (14) 0xeb-0xec (1)
0x0e0|                                    73 6f 6d 65|            some|                  value: "somefalse" 0xec-0xf5 (9)
0x0f0|66 61 6c 73 65                                 |false           |
     |                                               |                |                value{}: 0xf5-0xf6 (1)
0x0f0|               01                              |     .          |                  type: "false" (1) 0xf5-0xf6 (1)
     |                                               |                |                  value: false
     |                                               |                |              [1]{}: pair 0xf6-0x100 (10)
     |                                               |                |                key{}: 0xf6-0xff (9)
0x0f0|                  0d                           |      .         |                  type: "str" (13) 0xf6-0xf7 (1)
0x0f0|                     73 6f 6d 65 74 72 75 65   |       sometrue |                  value: "sometrue" 0xf7-0xff (8)
     |                                               |                |                value{}: 0xff-0x100 (1)
0x0f0|                                             02|               .|                  type: "true" (2) 0xff-0x100 (1)
     |                                               |                |                  value: true
     |                                               |                |              [2]{}: pair 0x100-0x118 (24)
     |                                               |                |                key{}: 0x100-0x10b (11)
0x100|04                                             |.               |                  type: "num" (4) 0x100-0x101 (1)
0x100|   cf a4 ba cd 09 fc e6 97 80 04               | ..........     |                  value: 2.74389 0x101-0x10b (10)
     |                                               |                |                value{}: 0x10b-0x118 (13)
0x100|                                 11            |           .    |                  type: "str" (17) 0x10b-0x10c (1)
0x100|                                    6b 65 79 20|            key |                  value: "key is a num" 0x10c-0x118 (12)
0x110|69 73 20 61 20 6e 75 6d                        |is a num        |
     |                                               |                |              [3]{}: pair 0x118-0x12d (21)
     |                                               |                |                key{}: 0x118-0x11f (7)
0x110|                        04                     |        .       |                  type: "num" (4) 0x118-0x119 (1)
0x110|                           00 80 c8 d3 84 0c   |         ...... |                  value: -1337 0x119-0x11f (6)
     |                                               |                |                value{}: 0x11f-0x12d (14)
0x110|                                             12|               .|                  type: "str" (18) 0x11f-0x120 (1)
0x120|6b 65 79 20 69 73 20 61 6e 20 69 6e 74         |key is an int   |                  value: "key is an int" 0x120-0x12d (13)
     |                                               |                |              [4]{}: pair 0x12d-0x139 (12)
     |                                               |                |                key{}: 0x12d-0x135 (8)
0x120|                                       0c      |             .  |                  type: "str" (12) 0x12d-0x12e (1)
0x120|                                          73 6f|              so|                  value: "somestr" 0x12e-0x135 (7)
0x130|6d 65 73 74 72                                 |mestr           |
     |                                               |                |                value{}: 0x135-0x139 (4)
0x130|               08                              |     .          |                  type: "str" (8) 0x135-0x136 (1)
0x130|                  75 77 75                     |      uwu       |                  value: "uwu" 0x136-0x139 (3)
     |                                               |                |              [5]{}: pair 0x139-0x14c (19)
     |                                               |                |                key{}: 0x139-0x141 (8)
0x130|                           0c                  |         .      |                  type: "str" (12) 0x139-0x13a (1)
0x130|                              73 6f 6d 65 6e 75|          somenu|                  value: "somenum" 0x13a-0x141 (7)
0x140|6d                                             |m               |
     |                                               |                |                value{}: 0x141-0x14c (11)
0x140|   04                                          | .              |                  type: "num" (4) 0x141-0x142 (1)
0x140|      80 80 a8 b5 02 c4 f3 9b 93 04            |  ..........    |                  value: 7.89437298e+11 0x142-0x14c (10)
     |                                               |                |              [6]{}: pair 0x14c-0x15a (14)
     |                                               |                |                key{}: 0x14c-0x154 (8)
0x140|                                    0c         |            .   |                  type: "str" (12) 0x14c-0x14d (1)
0x140|                                       73 6f 6d|             som|                  value: "someint" 0x14d-0x154 (7)
0x150|65 69 6e 74                                    |eint            |
     |                                               |                |                value{}: 0x154-0x15a (6)
0x150|            03                                 |    .           |                  type: "int" (3) 0x154-0x155 (1)
0x150|               fd ff ff ff 0f                  |     .....      |                  value: 4294967293 0x155-0x15a (5)
     |                                               |                |        knum[0:0]: 0x15a-0x15a (0)
     |                                               |                |        debug{}: 0x15a-0x182 (40)
     |                                               |                |          lines[0:14]: 0x15a-0x168 (14)
0x150|                              01               |          .     |            [0]: 1 value 0x15a-0x15b (1)
0x150|                                 13            |           .    |            [1]: 19 value 0x15b-0x15c (1)
0x150|                                    13         |            .   |            [2]: 19 value 0x15c-0x15d (1)
0x150|                                       15      |             .  |            [3]: 21 value 0x15d-0x15e (1)
0x150|                                          18   |              . |            [4]: 24 value 0x15e-0x15f (1)
0x150|                                             19|               .|            [5]: 25 value 0x15f-0x160 (1)
0x160|1e                                             |.               |            [6]: 30 value 0x160-0x161 (1)
0x160|   20                                          |                |            [7]: 32 value 0x161-0x162 (1)
0x160|      21                                       |  !             |            [8]: 33 value 0x162-0x163 (1)
0x160|         21                                    |   !            |            [9]: 33 value 0x163-0x164 (1)
0x160|            21                                 |    !           |            [10]: 33 value 0x164-0x165 (1)
0x160|               21                              |     !          |            [11]: 33 value 0x165-0x166 (1)
0x160|                  21                           |      !         |            [12]: 33 value 0x166-0x167 (1)
0x160|                     21                        |       !        |            [13]: 33 value 0x167-0x168 (1)
     |                                               |                |          annotations[0:5]: 0x168-0x182 (26)
0x160|                        73 6f 6d 65 74 61 62 6c|        sometabl|            [0]: "sometable" value 0x168-0x172 (10)
0x170|65 00                                          |e.              |
0x170|      02 0d 61 00                              |  ..a.          |            [1]: "\x02\ra" value 0x172-0x176 (4)
0x170|                  04 09 62 00                  |      ..b.      |            [2]: "\x04\tb" value 0x176-0x17a (4)
0x170|                              01 08 66 31 00   |          ..f1. |            [3]: "\x01\bf1" value 0x17a-0x17f (5)
0x170|                                             01|               .|            [4]: "\x01\a" value 0x17f-0x182 (3)
0x180|07 00                                          |..              |
0x180|      00|                                      |  .|            |  end: raw bits (valid) 0x182-0x183 (1)
