# ffmpeg -f lavfi -i sine -t 10ms test.mp3
/test.mp3:
> -f mp3 test.mp3 'dump({maxdepth: 1})'
     |                                               |                |.: mp3
0x000|49 44 33 04 00 00 00 00 00 23 54 53 53 45 00 00|ID3......#TSSE..|  headers[1]:
*    |29 bytes more until 0x2c+7                     |                |
0x020|                                       ff fb 40|             ..@|  frames[3]:
0x030|c0 00 00 00 00 00 00 00 00 00 00 00 00 00 00 00|................|
*    |580 bytes more until 0x283+7 (end)             |                |
     |                                               |                |  footers[0]:
> -f mp3 test.mp3 'dump({maxdepth: 2})'
     |                                               |                |.: mp3
     |                                               |                |  headers[1]:
0x000|49 44 33 04 00 00 00 00 00 23 54 53 53 45 00 00|ID3......#TSSE..|   -[0]: id3_v2
*    |29 bytes more until 0x2c+7                     |                |
     |                                               |                |  frames[3]:
0x020|                                       ff fb 40|             ..@|   -[0]: mp3_frame
0x030|c0 00 00 00 00 00 00 00 00 00 00 00 00 00 00 00|................|
*    |163 bytes more until 0xe2+7                    |                |
0x0e0|         ff fb 50 c4 00 00 0a 2c 43 2e 55 94 80|   ..P....,C.U..|   -[1]: mp3_frame
0x0f0|01 80 93 6b 27 30 80 00 07 aa c3 8e 33 85 d3 64|...k'0......3..d|
*    |179 bytes more until 0x1b2+7                   |                |
0x1b0|         ff fb 52 c4 04 83 c9 14 39 29 3c c3 00|   ..R.....9)<..|   -[2]: mp3_frame
0x1c0|00 00 00 34 80 00 00 04 11 4b 36 4a 08 83 58 c9|...4.....K6J..X.|
*    |180 bytes more until 0x283+7 (end)             |                |
     |                                               |                |  footers[0]:
> -f mp3 test.mp3 'dump({maxdepth: 1, maxdisplaybytes: 8})'
     |                                               |                |.: mp3
0x000|49 44 33 04 00 00 00 00 00 23 54 53 53 45 00 00|ID3......#TSSE..|  headers[1]:
*    |29 bytes more until 0x2c+7                     |                |
0x020|                                       ff fb 40|             ..@|  frames[3]:
0x030|c0 00 00 00 00 00 00 00 00 00 00 00 00 00 00 00|................|
*    |580 bytes more until 0x283+7 (end)             |                |
     |                                               |                |  footers[0]:
> -f mp3 test.mp3 'dump({maxdepth: 1, linebytes: 8})'
     |                       |        |.: mp3
0x000|49 44 33 04 00 00 00 00|ID3.....|  headers[1]:
0x008|00 23 54 53 53 45 00 00|.#TSSE..|
*    |29 bytes more until 0x2c+7|        |
0x028|               ff fb 40|     ..@|  frames[3]:
0x030|c0 00 00 00 00 00 00 00|........|
0x038|00 00 00 00 00 00 00 00|........|
*    |580 bytes more until 0x283+7 (end)|        |
     |                       |        |  footers[0]:
> -f mp3 test.mp3 '.frames[0] | verbose({maxdepth: 1, addrbase: 10})'
   |                                               |                |.frames[0]: mp3_frame (frame) 45-226+7 (182)
032|                                       ff fb   |             .. |  sync: Correct (7ff) 45-46+2 (1+3)
032|                                          fb   |              . |  mpeg_version: MPEG Version 1 (1) 46+3-46+4 (0+2)
032|                                          fb   |              . |  layer: Layer III (3) 46+5-46+6 (0+2)
   |                                               |                |  samples_per_frame: 1152 46+7-NA (0)
032|                                          fb   |              . |  protection: Not protected (1) 46+7-46+7 (0+1)
032|                                             40|               @|  bitrate: 56000 47-47+3 (0+4)
032|                                             40|               @|  sample_rate: 44100 47+4-47+5 (0+2)
032|                                             40|               @|  padding: Not padded (0) 47+6-47+6 (0+1)
032|                                             40|               @|  private: 0 47+7-47+7 (0+1)
048|c0                                             |.               |  channels: Mono (3) 48-48+1 (0+2)
048|c0                                             |.               |  channel_mode: 0 48+2-48+3 (0+2)
048|c0                                             |.               |  copyright: 0 48+4-48+4 (0+1)
048|c0                                             |.               |  original: 0 48+5-48+5 (0+1)
048|c0                                             |.               |  emphasis: None (0) 48+6-48+7 (0+2)
048|   00 00 00 00 00 00 00 00 00 00 00 00 00 00 00| ...............| -side_info: 49-65+7 (17)
064|00 00                                          |..              |
064|      49 6e 66 6f 00 00 00 0f 00 00 00 02 00 00|  Info..........| -xing: mp3_xing 66-221+7 (156)
080|02 57 00 a6 a6 a6 a6 a6 a6 a6 a6 a6 a6 a6 a6 a6|.W..............|
*  |126 bytes more until 221+7                     |                |
208|                                          00 00|              ..|  samples: 0000000000 222-226+7 (5)
224|00 00 00                                       |...             |
   |                                               |                |  crc_calculated: 827a 227-NA (0)
> -f mp3 test.mp3 '.frames[0] | verbose({maxdepth: 1, sizebase: 16})'
    |                                               |                |.frames[0]: mp3_frame (frame) 0x2d-0xe2+7 (0xb6)
0x20|                                       ff fb   |             .. |  sync: Correct (7ff) 0x2d-0x2e+2 (0x1+3)
0x20|                                          fb   |              . |  mpeg_version: MPEG Version 1 (1) 0x2e+3-0x2e+4 (0x0+2)
0x20|                                          fb   |              . |  layer: Layer III (3) 0x2e+5-0x2e+6 (0x0+2)
    |                                               |                |  samples_per_frame: 1152 0x2e+7-NA (0x0)
0x20|                                          fb   |              . |  protection: Not protected (1) 0x2e+7-0x2e+7 (0x0+1)
0x20|                                             40|               @|  bitrate: 56000 0x2f-0x2f+3 (0x0+4)
0x20|                                             40|               @|  sample_rate: 44100 0x2f+4-0x2f+5 (0x0+2)
0x20|                                             40|               @|  padding: Not padded (0) 0x2f+6-0x2f+6 (0x0+1)
0x20|                                             40|               @|  private: 0 0x2f+7-0x2f+7 (0x0+1)
0x30|c0                                             |.               |  channels: Mono (3) 0x30-0x30+1 (0x0+2)
0x30|c0                                             |.               |  channel_mode: 0 0x30+2-0x30+3 (0x0+2)
0x30|c0                                             |.               |  copyright: 0 0x30+4-0x30+4 (0x0+1)
0x30|c0                                             |.               |  original: 0 0x30+5-0x30+5 (0x0+1)
0x30|c0                                             |.               |  emphasis: None (0) 0x30+6-0x30+7 (0x0+2)
0x30|   00 00 00 00 00 00 00 00 00 00 00 00 00 00 00| ...............| -side_info: 0x31-0x41+7 (0x11)
0x40|00 00                                          |..              |
0x40|      49 6e 66 6f 00 00 00 0f 00 00 00 02 00 00|  Info..........| -xing: mp3_xing 0x42-0xdd+7 (0x9c)
0x50|02 57 00 a6 a6 a6 a6 a6 a6 a6 a6 a6 a6 a6 a6 a6|.W..............|
*   |0x7e bytes more until 0xdd+7                   |                |
0xd0|                                          00 00|              ..|  samples: 0000000000 0xde-0xe2+7 (0x5)
0xe0|00 00 00                                       |...             |
    |                                               |                |  crc_calculated: 827a 0xe3-NA (0x0)
