# ffmpeg -f lavfi -i testsrc -g 1 -c:v librav1e -t 50ms av1.mkv
$ fq -d matroska dv av1.mkv
      |00 01 02 03 04 05 06 07 08 09 0a 0b 0c 0d 0e 0f|0123456789abcdef|.{}: av1.mkv (matroska) 0x0-0x13e7 (5095)
      |                                               |                |  elements[0:2]: 0x0-0x13e7 (5095)
      |                                               |                |    [0]{}: element 0x0-0x28 (40)
0x0000|1a 45 df a3                                    |.E..            |      id: "ebml" (0x1a45dfa3) 0x0-0x4 (4)
      |                                               |                |      type: "master"
0x0000|            a3                                 |    .           |      size: 35 0x4-0x5 (1)
      |                                               |                |      elements[0:7]: 0x5-0x28 (35)
      |                                               |                |        [0]{}: element 0x5-0x9 (4)
0x0000|               42 86                           |     B.         |          id: "ebml_version" (0x4286) (EBML Version) 0x5-0x7 (2)
      |                                               |                |          type: "uinteger"
0x0000|                     81                        |       .        |          size: 1 0x7-0x8 (1)
0x0000|                        01                     |        .       |          value: 1 0x8-0x9 (1)
      |                                               |                |        [1]{}: element 0x9-0xd (4)
0x0000|                           42 f7               |         B.     |          id: "ebml_read_version" (0x42f7) (Minimum EBML reader version) 0x9-0xb (2)
      |                                               |                |          type: "uinteger"
0x0000|                                 81            |           .    |          size: 1 0xb-0xc (1)
0x0000|                                    01         |            .   |          value: 1 0xc-0xd (1)
      |                                               |                |        [2]{}: element 0xd-0x11 (4)
0x0000|                                       42 f2   |             B. |          id: "ebml_max_id_length" (0x42f2) (Maximum id length) 0xd-0xf (2)
      |                                               |                |          type: "uinteger"
0x0000|                                             81|               .|          size: 1 0xf-0x10 (1)
0x0010|04                                             |.               |          value: 4 0x10-0x11 (1)
      |                                               |                |        [3]{}: element 0x11-0x15 (4)
0x0010|   42 f3                                       | B.             |          id: "ebml_max_size_length" (0x42f3) (Maximum body length) 0x11-0x13 (2)
      |                                               |                |          type: "uinteger"
0x0010|         81                                    |   .            |          size: 1 0x13-0x14 (1)
0x0010|            08                                 |    .           |          value: 8 0x14-0x15 (1)
      |                                               |                |        [4]{}: element 0x15-0x20 (11)
0x0010|               42 82                           |     B.         |          id: "doc_type" (0x4282) (Document content type) 0x15-0x17 (2)
      |                                               |                |          type: "string"
0x0010|                     88                        |       .        |          size: 8 0x17-0x18 (1)
0x0010|                        6d 61 74 72 6f 73 6b 61|        matroska|          value: "matroska" 0x18-0x20 (8)
      |                                               |                |        [5]{}: element 0x20-0x24 (4)
0x0020|42 87                                          |B.              |          id: "doc_type_version" (0x4287) (Document type version) 0x20-0x22 (2)
      |                                               |                |          type: "uinteger"
0x0020|      81                                       |  .             |          size: 1 0x22-0x23 (1)
0x0020|         04                                    |   .            |          value: 4 0x23-0x24 (1)
      |                                               |                |        [6]{}: element 0x24-0x28 (4)
0x0020|            42 85                              |    B.          |          id: "doc_type_read_version" (0x4285) (Minimum document reader version) 0x24-0x26 (2)
      |                                               |                |          type: "uinteger"
0x0020|                  81                           |      .         |          size: 1 0x26-0x27 (1)
0x0020|                     02                        |       .        |          value: 2 0x27-0x28 (1)
      |                                               |                |    [1]{}: element 0x28-0x13e7 (5055)
0x0020|                        18 53 80 67            |        .S.g    |      id: "segment" (0x18538067) (The Root Element that contains all other Top-Level Elements) 0x28-0x2c (4)
      |                                               |                |      type: "master"
0x0020|                                    01 00 00 00|            ....|      size: 5043 0x2c-0x34 (8)
0x0030|00 00 13 b3                                    |....            |
      |                                               |                |      elements[0:7]: 0x34-0x13e7 (5043)
      |                                               |                |        [0]{}: element 0x34-0x79 (69)
0x0030|            11 4d 9b 74                        |    .M.t        |          id: "seek_head" (0x114d9b74) (Contains seeking information of Top-Level Elements) 0x34-0x38 (4)
      |                                               |                |          type: "master"
0x0030|                        c0                     |        .       |          size: 64 0x38-0x39 (1)
      |                                               |                |          elements[0:5]: 0x39-0x79 (64)
      |                                               |                |            [0]{}: element 0x39-0x3f (6)
0x0030|                           bf                  |         .      |              id: "crc32" (0xbf) 0x39-0x3a (1)
      |                                               |                |              type: "binary"
0x0030|                              84               |          .     |              size: 4 0x3a-0x3b (1)
0x0030|                                 01 f4 84 bd   |           .... |              value: raw bits 0x3b-0x3f (4)
      |                                               |                |            [1]{}: element 0x3f-0x4d (14)
0x0030|                                             4d|               M|              id: "seek" (0x4dbb) (Contains a single seek entry to an EBML Element) 0x3f-0x41 (2)
0x0040|bb                                             |.               |
      |                                               |                |              type: "master"
0x0040|   8b                                          | .              |              size: 11 0x41-0x42 (1)
      |                                               |                |              elements[0:2]: 0x42-0x4d (11)
      |                                               |                |                [0]{}: element 0x42-0x49 (7)
0x0040|      53 ab                                    |  S.            |                  id: "seek_id" (0x53ab) (The binary EBML ID of a Top-Level Element) 0x42-0x44 (2)
      |                                               |                |                  type: "binary"
0x0040|            84                                 |    .           |                  size: 4 0x44-0x45 (1)
0x0040|               15 49 a9 66                     |     .I.f       |                  value: raw bits 0x45-0x49 (4)
      |                                               |                |                [1]{}: element 0x49-0x4d (4)
0x0040|                           53 ac               |         S.     |                  id: "seek_position" (0x53ac) (The Segment Position of a Top-Level Element) 0x49-0x4b (2)
      |                                               |                |                  type: "uinteger"
0x0040|                                 81            |           .    |                  size: 1 0x4b-0x4c (1)
0x0040|                                    a1         |            .   |                  value: 161 0x4c-0x4d (1)
      |                                               |                |            [2]{}: element 0x4d-0x5b (14)
0x0040|                                       4d bb   |             M. |              id: "seek" (0x4dbb) (Contains a single seek entry to an EBML Element) 0x4d-0x4f (2)
      |                                               |                |              type: "master"
0x0040|                                             8b|               .|              size: 11 0x4f-0x50 (1)
      |                                               |                |              elements[0:2]: 0x50-0x5b (11)
      |                                               |                |                [0]{}: element 0x50-0x57 (7)
0x0050|53 ab                                          |S.              |                  id: "seek_id" (0x53ab) (The binary EBML ID of a Top-Level Element) 0x50-0x52 (2)
      |                                               |                |                  type: "binary"
0x0050|      84                                       |  .             |                  size: 4 0x52-0x53 (1)
0x0050|         16 54 ae 6b                           |   .T.k         |                  value: raw bits 0x53-0x57 (4)
      |                                               |                |                [1]{}: element 0x57-0x5b (4)
0x0050|                     53 ac                     |       S.       |                  id: "seek_position" (0x53ac) (The Segment Position of a Top-Level Element) 0x57-0x59 (2)
      |                                               |                |                  type: "uinteger"
0x0050|                           81                  |         .      |                  size: 1 0x59-0x5a (1)
0x0050|                              f1               |          .     |                  value: 241 0x5a-0x5b (1)
      |                                               |                |            [3]{}: element 0x5b-0x6a (15)
0x0050|                                 4d bb         |           M.   |              id: "seek" (0x4dbb) (Contains a single seek entry to an EBML Element) 0x5b-0x5d (2)
      |                                               |                |              type: "master"
0x0050|                                       8c      |             .  |              size: 12 0x5d-0x5e (1)
      |                                               |                |              elements[0:2]: 0x5e-0x6a (12)
      |                                               |                |                [0]{}: element 0x5e-0x65 (7)
0x0050|                                          53 ab|              S.|                  id: "seek_id" (0x53ab) (The binary EBML ID of a Top-Level Element) 0x5e-0x60 (2)
      |                                               |                |                  type: "binary"
0x0060|84                                             |.               |                  size: 4 0x60-0x61 (1)
0x0060|   12 54 c3 67                                 | .T.g           |                  value: raw bits 0x61-0x65 (4)
      |                                               |                |                [1]{}: element 0x65-0x6a (5)
0x0060|               53 ac                           |     S.         |                  id: "seek_position" (0x53ac) (The Segment Position of a Top-Level Element) 0x65-0x67 (2)
      |                                               |                |                  type: "uinteger"
0x0060|                     82                        |       .        |                  size: 2 0x67-0x68 (1)
0x0060|                        01 46                  |        .F      |                  value: 326 0x68-0x6a (2)
      |                                               |                |            [4]{}: element 0x6a-0x79 (15)
0x0060|                              4d bb            |          M.    |              id: "seek" (0x4dbb) (Contains a single seek entry to an EBML Element) 0x6a-0x6c (2)
      |                                               |                |              type: "master"
0x0060|                                    8c         |            .   |              size: 12 0x6c-0x6d (1)
      |                                               |                |              elements[0:2]: 0x6d-0x79 (12)
      |                                               |                |                [0]{}: element 0x6d-0x74 (7)
0x0060|                                       53 ab   |             S. |                  id: "seek_id" (0x53ab) (The binary EBML ID of a Top-Level Element) 0x6d-0x6f (2)
      |                                               |                |                  type: "binary"
0x0060|                                             84|               .|                  size: 4 0x6f-0x70 (1)
0x0070|1c 53 bb 6b                                    |.S.k            |                  value: raw bits 0x70-0x74 (4)
      |                                               |                |                [1]{}: element 0x74-0x79 (5)
0x0070|            53 ac                              |    S.          |                  id: "seek_position" (0x53ac) (The Segment Position of a Top-Level Element) 0x74-0x76 (2)
      |                                               |                |                  type: "uinteger"
0x0070|                  82                           |      .         |                  size: 2 0x76-0x77 (1)
0x0070|                     13 97                     |       ..       |                  value: 5015 0x77-0x79 (2)
      |                                               |                |        [1]{}: element 0x79-0xd5 (92)
0x0070|                           ec                  |         .      |          id: "void" (0xec) 0x79-0x7a (1)
      |                                               |                |          type: "binary"
0x0070|                              01 00 00 00 00 00|          ......|          size: 83 0x7a-0x82 (8)
0x0080|00 53                                          |.S              |
0x0080|      00 00 00 00 00 00 00 00 00 00 00 00 00 00|  ..............|          value: raw bits 0x82-0xd5 (83)
0x0090|00 00 00 00 00 00 00 00 00 00 00 00 00 00 00 00|................|
*     |until 0xd4.7 (83)                              |                |
      |                                               |                |        [2]{}: element 0xd5-0x125 (80)
0x00d0|               15 49 a9 66                     |     .I.f       |          id: "info" (0x1549a966) (Contains general information about the Segment) 0xd5-0xd9 (4)
      |                                               |                |          type: "master"
0x00d0|                           cb                  |         .      |          size: 75 0xd9-0xda (1)
      |                                               |                |          elements[0:6]: 0xda-0x125 (75)
      |                                               |                |            [0]{}: element 0xda-0xe0 (6)
0x00d0|                              bf               |          .     |              id: "crc32" (0xbf) 0xda-0xdb (1)
      |                                               |                |              type: "binary"
0x00d0|                                 84            |           .    |              size: 4 0xdb-0xdc (1)
0x00d0|                                    ef 98 66 d3|            ..f.|              value: raw bits 0xdc-0xe0 (4)
      |                                               |                |            [1]{}: element 0xe0-0xe7 (7)
0x00e0|2a d7 b1                                       |*..             |              id: "timestamp_scale" (0x2ad7b1) (Base unit for Segment Ticks and Track Ticks) 0xe0-0xe3 (3)
      |                                               |                |              type: "uinteger"
0x00e0|         83                                    |   .            |              size: 3 0xe3-0xe4 (1)
0x00e0|            0f 42 40                           |    .B@         |              value: 1000000 0xe4-0xe7 (3)
      |                                               |                |            [2]{}: element 0xe7-0xf7 (16)
0x00e0|                     4d 80                     |       M.       |              id: "muxing_app" (0x4d80) (Muxing application or library) 0xe7-0xe9 (2)
      |                                               |                |              type: "utf8"
0x00e0|                           8d                  |         .      |              size: 13 0xe9-0xea (1)
0x00e0|                              4c 61 76 66 35 38|          Lavf58|              value: "Lavf58.45.100" 0xea-0xf7 (13)
0x00f0|2e 34 35 2e 31 30 30                           |.45.100         |
      |                                               |                |            [3]{}: element 0xf7-0x107 (16)
0x00f0|                     57 41                     |       WA       |              id: "writing_app" (0x5741) (Writing application) 0xf7-0xf9 (2)
      |                                               |                |              type: "utf8"
0x00f0|                           8d                  |         .      |              size: 13 0xf9-0xfa (1)
0x00f0|                              4c 61 76 66 35 38|          Lavf58|              value: "Lavf58.45.100" 0xfa-0x107 (13)
0x0100|2e 34 35 2e 31 30 30                           |.45.100         |
      |                                               |                |            [4]{}: element 0x107-0x11a (19)
0x0100|                     73 a4                     |       s.       |              id: "segment_uuid" (0x73a4) (A randomly generated UID that identifies the Segment amongst many others v4 RFC9562 with all bits randomly (or pseudorandomly) chosen) 0x107-0x109 (2)
      |                                               |                |              type: "binary"
0x0100|                           90                  |         .      |              size: 16 0x109-0x10a (1)
0x0100|                              46 bd 6f 31 1c 40|          F.o1.@|              value: raw bits 0x10a-0x11a (16)
0x0110|fe 0b 1e 0c 0e 33 67 1d 7d b3                  |.....3g.}.      |
      |                                               |                |            [5]{}: element 0x11a-0x125 (11)
0x0110|                              44 89            |          D.    |              id: "duration" (0x4489) (Duration of the Segment) 0x11a-0x11c (2)
      |                                               |                |              type: "float"
0x0110|                                    88         |            .   |              size: 8 0x11c-0x11d (1)
0x0110|                                       40 44 00|             @D.|              value: 40 0x11d-0x125 (8)
0x0120|00 00 00 00 00                                 |.....           |
      |                                               |                |        [3]{}: element 0x125-0x17a (85)
0x0120|               16 54 ae 6b                     |     .T.k       |          id: "tracks" (0x1654ae6b) (A Top-Level Element of information with many tracks described) 0x125-0x129 (4)
      |                                               |                |          type: "master"
0x0120|                           d0                  |         .      |          size: 80 0x129-0x12a (1)
      |                                               |                |          elements[0:2]: 0x12a-0x17a (80)
      |                                               |                |            [0]{}: element 0x12a-0x130 (6)
0x0120|                              bf               |          .     |              id: "crc32" (0xbf) 0x12a-0x12b (1)
      |                                               |                |              type: "binary"
0x0120|                                 84            |           .    |              size: 4 0x12b-0x12c (1)
0x0120|                                    83 29 74 24|            .)t$|              value: raw bits 0x12c-0x130 (4)
      |                                               |                |            [1]{}: element 0x130-0x17a (74)
0x0130|ae                                             |.               |              id: "track_entry" (0xae) (Describes a track with all elements) 0x130-0x131 (1)
      |                                               |                |              type: "master"
0x0130|   01 00 00 00 00 00 00 41                     | .......A       |              size: 65 0x131-0x139 (8)
      |                                               |                |              elements[0:9]: 0x139-0x17a (65)
      |                                               |                |                [0]{}: element 0x139-0x13c (3)
0x0130|                           d7                  |         .      |                  id: "track_number" (0xd7) (The track number as used in the Block Header) 0x139-0x13a (1)
      |                                               |                |                  type: "uinteger"
0x0130|                              81               |          .     |                  size: 1 0x13a-0x13b (1)
0x0130|                                 01            |           .    |                  value: 1 0x13b-0x13c (1)
      |                                               |                |                [1]{}: element 0x13c-0x147 (11)
0x0130|                                    73 c5      |            s.  |                  id: "track_uid" (0x73c5) (A UID that identifies the Track) 0x13c-0x13e (2)
      |                                               |                |                  type: "uinteger"
0x0130|                                          88   |              . |                  size: 8 0x13e-0x13f (1)
0x0130|                                             bd|               .|                  value: 13662969948711256639 0x13f-0x147 (8)
0x0140|9c 9e c7 61 c5 82 3f                           |...a..?         |
      |                                               |                |                [2]{}: element 0x147-0x14a (3)
0x0140|                     9c                        |       .        |                  id: "flag_lacing" (0x9c) (Set to 1 if the track **MAY** contain blocks that use lacing) 0x147-0x148 (1)
      |                                               |                |                  type: "uinteger"
0x0140|                        81                     |        .       |                  size: 1 0x148-0x149 (1)
0x0140|                           00                  |         .      |                  value: 0 0x149-0x14a (1)
      |                                               |                |                [3]{}: element 0x14a-0x151 (7)
0x0140|                              22 b5 9c         |          "..   |                  id: "language" (0x22b59c) (The language of the track) 0x14a-0x14d (3)
      |                                               |                |                  type: "string"
0x0140|                                       83      |             .  |                  size: 3 0x14d-0x14e (1)
0x0140|                                          75 6e|              un|                  value: "und" 0x14e-0x151 (3)
0x0150|64                                             |d               |
      |                                               |                |                [4]{}: element 0x151-0x158 (7)
0x0150|   86                                          | .              |                  id: "codec_id" (0x86) (An ID corresponding to the codec) 0x151-0x152 (1)
      |                                               |                |                  type: "string"
0x0150|      85                                       |  .             |                  size: 5 0x152-0x153 (1)
0x0150|         56 5f 41 56 31                        |   V_AV1        |                  value: "V_AV1" 0x153-0x158 (5)
      |                                               |                |                [5]{}: element 0x158-0x15b (3)
0x0150|                        83                     |        .       |                  id: "track_type" (0x83) (The TrackType defines the type of each frame found in the Track) 0x158-0x159 (1)
      |                                               |                |                  type: "uinteger"
0x0150|                           81                  |         .      |                  size: 1 0x159-0x15a (1)
0x0150|                              01               |          .     |                  value: "video" (1) (An image) 0x15a-0x15b (1)
      |                                               |                |                [6]{}: element 0x15b-0x163 (8)
0x0150|                                 23 e3 83      |           #..  |                  id: "default_duration" (0x23e383) (Number of nanoseconds per frame) 0x15b-0x15e (3)
      |                                               |                |                  type: "uinteger"
0x0150|                                          84   |              . |                  size: 4 0x15e-0x15f (1)
0x0150|                                             02|               .|                  value: 40000000 0x15f-0x163 (4)
0x0160|62 5a 00                                       |bZ.             |
      |                                               |                |                [7]{}: element 0x163-0x173 (16)
0x0160|         e0                                    |   .            |                  id: "video" (0xe0) (Video settings) 0x163-0x164 (1)
      |                                               |                |                  type: "master"
0x0160|            01 00 00 00 00 00 00 07            |    ........    |                  size: 7 0x164-0x16c (8)
      |                                               |                |                  elements[0:2]: 0x16c-0x173 (7)
      |                                               |                |                    [0]{}: element 0x16c-0x170 (4)
0x0160|                                    b0         |            .   |                      id: "pixel_width" (0xb0) (Width of the encoded video frames in pixels) 0x16c-0x16d (1)
      |                                               |                |                      type: "uinteger"
0x0160|                                       82      |             .  |                      size: 2 0x16d-0x16e (1)
0x0160|                                          01 40|              .@|                      value: 320 0x16e-0x170 (2)
      |                                               |                |                    [1]{}: element 0x170-0x173 (3)
0x0170|ba                                             |.               |                      id: "pixel_height" (0xba) (Height of the encoded video frames in pixels) 0x170-0x171 (1)
      |                                               |                |                      type: "uinteger"
0x0170|   81                                          | .              |                      size: 1 0x171-0x172 (1)
0x0170|      f0                                       |  .             |                      value: 240 0x172-0x173 (1)
      |                                               |                |                [8]{}: element 0x173-0x17a (7)
0x0170|         63 a2                                 |   c.           |                  id: "codec_private" (0x63a2) (Private data only known to the codec) 0x173-0x175 (2)
      |                                               |                |                  type: "binary"
0x0170|               84                              |     .          |                  size: 4 0x175-0x176 (1)
      |00 01 02 03 04 05 06 07 08 09 0a 0b 0c 0d 0e 0f|0123456789abcdef|                  value{}: (av1_ccr) 0x176-0x17a (4)
0x0170|                  81                           |      .         |                    marker: 1 0x176-0x176.1 (0.1)
0x0170|                  81                           |      .         |                    version: 1 0x176.1-0x177 (0.7)
0x0170|                     3f                        |       ?        |                    seq_profile: 1 0x177-0x177.3 (0.3)
0x0170|                     3f                        |       ?        |                    seq_level_idx_0: 31 0x177.3-0x178 (0.5)
0x0170|                        00                     |        .       |                    seq_tier_0: 0 0x178-0x178.1 (0.1)
0x0170|                        00                     |        .       |                    high_bitdepth: 0 0x178.1-0x178.2 (0.1)
0x0170|                        00                     |        .       |                    twelve_bit: 0 0x178.2-0x178.3 (0.1)
0x0170|                        00                     |        .       |                    monochrome: 0 0x178.3-0x178.4 (0.1)
0x0170|                        00                     |        .       |                    chroma_subsampling_x: 0 0x178.4-0x178.5 (0.1)
0x0170|                        00                     |        .       |                    chroma_subsampling_y: 0 0x178.5-0x178.6 (0.1)
0x0170|                        00                     |        .       |                    chroma_sample_position: 0 0x178.6-0x179 (0.2)
0x0170|                           00                  |         .      |                    reserved = 0: 0 0x179-0x179.3 (0.3)
0x0170|                           00                  |         .      |                    initial_presentation_delay_present: false 0x179.3-0x179.4 (0.1)
0x0170|                           00                  |         .      |                    reserved: 0 0x179.4-0x17a (0.4)
      |                                               |                |                    config_obus[0:0]: 0x17a-0x17a (0)
      |                                               |                |        [4]{}: element 0x17a-0x221 (167)
0x0170|                              12 54 c3 67      |          .T.g  |          id: "tags" (0x1254c367) (Element containing metadata describing Tracks) 0x17a-0x17e (4)
      |                                               |                |          type: "master"
0x0170|                                          40 a1|              @.|          size: 161 0x17e-0x180 (2)
      |                                               |                |          elements[0:3]: 0x180-0x221 (161)
      |                                               |                |            [0]{}: element 0x180-0x186 (6)
0x0180|bf                                             |.               |              id: "crc32" (0xbf) 0x180-0x181 (1)
      |                                               |                |              type: "binary"
0x0180|   84                                          | .              |              size: 4 0x181-0x182 (1)
0x0180|      42 56 d5 19                              |  BV..          |              value: raw bits 0x182-0x186 (4)
      |                                               |                |            [1]{}: element 0x186-0x1b7 (49)
0x0180|                  73 73                        |      ss        |              id: "tag" (0x7373) (A single metadata descriptor) 0x186-0x188 (2)
      |                                               |                |              type: "master"
0x0180|                        01 00 00 00 00 00 00 27|        .......'|              size: 39 0x188-0x190 (8)
      |                                               |                |              elements[0:2]: 0x190-0x1b7 (39)
      |                                               |                |                [0]{}: element 0x190-0x193 (3)
0x0190|63 c0                                          |c.              |                  id: "targets" (0x63c0) (Specifies which other elements the metadata represented by the tag value applies to) 0x190-0x192 (2)
      |                                               |                |                  type: "master"
0x0190|      80                                       |  .             |                  size: 0 0x192-0x193 (1)
      |                                               |                |                  elements[0:0]: 0x193-0x193 (0)
      |                                               |                |                [1]{}: element 0x193-0x1b7 (36)
0x0190|         67 c8                                 |   g.           |                  id: "simple_tag" (0x67c8) (Contains general information about the target) 0x193-0x195 (2)
      |                                               |                |                  type: "master"
0x0190|               01 00 00 00 00 00 00 1a         |     ........   |                  size: 26 0x195-0x19d (8)
      |                                               |                |                  elements[0:2]: 0x19d-0x1b7 (26)
      |                                               |                |                    [0]{}: element 0x19d-0x1a7 (10)
0x0190|                                       45 a3   |             E. |                      id: "tag_name" (0x45a3) (The name of the tag value that is going to be stored) 0x19d-0x19f (2)
      |                                               |                |                      type: "utf8"
0x0190|                                             87|               .|                      size: 7 0x19f-0x1a0 (1)
0x01a0|45 4e 43 4f 44 45 52                           |ENCODER         |                      value: "ENCODER" 0x1a0-0x1a7 (7)
      |                                               |                |                    [1]{}: element 0x1a7-0x1b7 (16)
0x01a0|                     44 87                     |       D.       |                      id: "tag_string" (0x4487) (The tag value) 0x1a7-0x1a9 (2)
      |                                               |                |                      type: "utf8"
0x01a0|                           8d                  |         .      |                      size: 13 0x1a9-0x1aa (1)
0x01a0|                              4c 61 76 66 35 38|          Lavf58|                      value: "Lavf58.45.100" 0x1aa-0x1b7 (13)
0x01b0|2e 34 35 2e 31 30 30                           |.45.100         |
      |                                               |                |            [2]{}: element 0x1b7-0x221 (106)
0x01b0|                     73 73                     |       ss       |              id: "tag" (0x7373) (A single metadata descriptor) 0x1b7-0x1b9 (2)
      |                                               |                |              type: "master"
0x01b0|                           01 00 00 00 00 00 00|         .......|              size: 96 0x1b9-0x1c1 (8)
0x01c0|60                                             |`               |
      |                                               |                |              elements[0:3]: 0x1c1-0x221 (96)
      |                                               |                |                [0]{}: element 0x1c1-0x1cf (14)
0x01c0|   63 c0                                       | c.             |                  id: "targets" (0x63c0) (Specifies which other elements the metadata represented by the tag value applies to) 0x1c1-0x1c3 (2)
      |                                               |                |                  type: "master"
0x01c0|         8b                                    |   .            |                  size: 11 0x1c3-0x1c4 (1)
      |                                               |                |                  elements[0:1]: 0x1c4-0x1cf (11)
      |                                               |                |                    [0]{}: element 0x1c4-0x1cf (11)
0x01c0|            63 c5                              |    c.          |                      id: "tag_track_uid" (0x63c5) (A UID that identifies the Track(s) that the tags belong to) 0x1c4-0x1c6 (2)
      |                                               |                |                      type: "uinteger"
0x01c0|                  88                           |      .         |                      size: 8 0x1c6-0x1c7 (1)
0x01c0|                     bd 9c 9e c7 61 c5 82 3f   |       ....a..? |                      value: 13662969948711256639 0x1c7-0x1cf (8)
      |                                               |                |                [1]{}: element 0x1cf-0x1fc (45)
0x01c0|                                             67|               g|                  id: "simple_tag" (0x67c8) (Contains general information about the target) 0x1cf-0x1d1 (2)
0x01d0|c8                                             |.               |
      |                                               |                |                  type: "master"
0x01d0|   01 00 00 00 00 00 00 23                     | .......#       |                  size: 35 0x1d1-0x1d9 (8)
      |                                               |                |                  elements[0:2]: 0x1d9-0x1fc (35)
      |                                               |                |                    [0]{}: element 0x1d9-0x1e3 (10)
0x01d0|                           45 a3               |         E.     |                      id: "tag_name" (0x45a3) (The name of the tag value that is going to be stored) 0x1d9-0x1db (2)
      |                                               |                |                      type: "utf8"
0x01d0|                                 87            |           .    |                      size: 7 0x1db-0x1dc (1)
0x01d0|                                    45 4e 43 4f|            ENCO|                      value: "ENCODER" 0x1dc-0x1e3 (7)
0x01e0|44 45 52                                       |DER             |
      |                                               |                |                    [1]{}: element 0x1e3-0x1fc (25)
0x01e0|         44 87                                 |   D.           |                      id: "tag_string" (0x4487) (The tag value) 0x1e3-0x1e5 (2)
      |                                               |                |                      type: "utf8"
0x01e0|               96                              |     .          |                      size: 22 0x1e5-0x1e6 (1)
0x01e0|                  4c 61 76 63 35 38 2e 39 31 2e|      Lavc58.91.|                      value: "Lavc58.91.100 librav1e" 0x1e6-0x1fc (22)
0x01f0|31 30 30 20 6c 69 62 72 61 76 31 65            |100 librav1e    |
      |                                               |                |                [2]{}: element 0x1fc-0x221 (37)
0x01f0|                                    67 c8      |            g.  |                  id: "simple_tag" (0x67c8) (Contains general information about the target) 0x1fc-0x1fe (2)
      |                                               |                |                  type: "master"
0x01f0|                                          a2   |              . |                  size: 34 0x1fe-0x1ff (1)
      |                                               |                |                  elements[0:2]: 0x1ff-0x221 (34)
      |                                               |                |                    [0]{}: element 0x1ff-0x20a (11)
0x01f0|                                             45|               E|                      id: "tag_name" (0x45a3) (The name of the tag value that is going to be stored) 0x1ff-0x201 (2)
0x0200|a3                                             |.               |
      |                                               |                |                      type: "utf8"
0x0200|   88                                          | .              |                      size: 8 0x201-0x202 (1)
0x0200|      44 55 52 41 54 49 4f 4e                  |  DURATION      |                      value: "DURATION" 0x202-0x20a (8)
      |                                               |                |                    [1]{}: element 0x20a-0x221 (23)
0x0200|                              44 87            |          D.    |                      id: "tag_string" (0x4487) (The tag value) 0x20a-0x20c (2)
      |                                               |                |                      type: "utf8"
0x0200|                                    94         |            .   |                      size: 20 0x20c-0x20d (1)
0x0200|                                       30 30 3a|             00:|                      value: "00:00:00.040000000" 0x20d-0x221 (20)
0x0210|30 30 3a 30 30 2e 30 34 30 30 30 30 30 30 30 00|00:00.040000000.|
0x0220|00                                             |.               |
      |                                               |                |        [5]{}: element 0x221-0x13cb (4522)
0x0220|   1f 43 b6 75                                 | .C.u           |          id: "cluster" (0x1f43b675) (The Top-Level Element containing the (monolithic) Block structure) 0x221-0x225 (4)
      |                                               |                |          type: "master"
0x0220|               51 a4                           |     Q.         |          size: 4516 0x225-0x227 (2)
      |                                               |                |          elements[0:3]: 0x227-0x13cb (4516)
      |                                               |                |            [0]{}: element 0x227-0x22d (6)
0x0220|                     bf                        |       .        |              id: "crc32" (0xbf) 0x227-0x228 (1)
      |                                               |                |              type: "binary"
0x0220|                        84                     |        .       |              size: 4 0x228-0x229 (1)
0x0220|                           4e c3 15 c5         |         N...   |              value: raw bits 0x229-0x22d (4)
      |                                               |                |            [1]{}: element 0x22d-0x230 (3)
0x0220|                                       e7      |             .  |              id: "timestamp" (0xe7) (Absolute timestamp of the cluster) 0x22d-0x22e (1)
      |                                               |                |              type: "uinteger"
0x0220|                                          81   |              . |              size: 1 0x22e-0x22f (1)
0x0220|                                             00|               .|              value: 0 0x22f-0x230 (1)
      |                                               |                |            [2]{}: element 0x230-0x13cb (4507)
0x0230|a3                                             |.               |              id: "simple_block" (0xa3) (Similar to Block ) but without all the extra information) 0x230-0x231 (1)
      |                                               |                |              type: "binary"
0x0230|   51 98                                       | Q.             |              size: 4504 0x231-0x233 (2)
0x0230|         81                                    |   .            |              track_number: 1 0x233-0x234 (1)
0x0230|            00 00                              |    ..          |              timestamp: 0 0x234-0x236 (2)
      |                                               |                |              flags{}: 0x236-0x237 (1)
0x0230|                  80                           |      .         |                key_frame: true 0x236-0x236.1 (0.1)
0x0230|                  80                           |      .         |                reserved: 0 0x236.1-0x236.4 (0.3)
0x0230|                  80                           |      .         |                invisible: false 0x236.4-0x236.5 (0.1)
0x0230|                  80                           |      .         |                lacing: "none" (0) 0x236.5-0x236.7 (0.2)
0x0230|                  80                           |      .         |                discardable: false 0x236.7-0x237 (0.1)
      |00 01 02 03 04 05 06 07 08 09 0a 0b 0c 0d 0e 0f|0123456789abcdef|              packet[0:3]: (av1_frame) 0x237-0x13cb (4500)
      |00 01 02 03 04 05 06 07 08 09 0a 0b 0c 0d 0e 0f|0123456789abcdef|                [0]{}: obu (av1_obu) 0x237-0x246 (15)
      |                                               |                |                  header{}: 0x237-0x238 (1)
0x0230|                     0a                        |       .        |                    forbidden_bit: 0 0x237-0x237.1 (0.1)
0x0230|                     0a                        |       .        |                    type: "sequence_header" (1) 0x237.1-0x237.5 (0.4)
0x0230|                     0a                        |       .        |                    extension_flag: false 0x237.5-0x237.6 (0.1)
0x0230|                     0a                        |       .        |                    has_size_field: true 0x237.6-0x237.7 (0.1)
0x0230|                     0a                        |       .        |                    reserved_1bit: 0 0x237.7-0x238 (0.1)
0x0230|                        0d                     |        .       |                  size: 13 0x238-0x239 (1)
0x0230|                           20                  |                |                  seq_profile: "high" (1) 0x239-0x239.3 (0.3)
0x0230|                           20                  |                |                  still_picture: 0 0x239.3-0x239.4 (0.1)
0x0230|                           20                  |                |                  reduced_still_picture_header: 0 0x239.4-0x239.5 (0.1)
0x0230|                           20                  |                |                  timing_info_present_flag: 0 0x239.5-0x239.6 (0.1)
0x0230|                           20                  |                |                  initial_display_delay_present_flag: 0 0x239.6-0x239.7 (0.1)
0x0230|                           20 00               |          .     |                  operating_points_cnt_minus_1: 0 0x239.7-0x23a.4 (0.5)
      |                                               |                |                  operating_points[0:1]: 0x23a.4-0x23c.6 (2.2)
      |                                               |                |                    [0]{}: operating_point 0x23a.4-0x23c.6 (2.2)
0x0230|                              00 00            |          ..    |                      operating_point_idc: 0 0x23a.4-0x23c (1.4)
0x0230|                                    fa         |            .   |                      seq_level_idx: 31 0x23c-0x23c.5 (0.5)
0x0230|                                    fa         |            .   |                      seq_tier: 0 0x23c.5-0x23c.6 (0.1)
0x0230|                                    fa 1e      |            ..  |                  frame_width_bits_minus_1: 8 0x23c.6-0x23d.2 (0.4)
0x0230|                                       1e      |             .  |                  frame_height_bits_minus_1: 7 0x23d.2-0x23d.6 (0.4)
0x0230|                                       1e 7f   |             .. |                  max_frame_width_minus_1: 319 0x23d.6-0x23e.7 (1.1)
0x0230|                                          7f de|              ..|                  max_frame_height_minus_1: 239 0x23e.7-0x23f.7 (1)
      |                                               |                |                  frame_width: 320
      |                                               |                |                  frame_height: 240
0x0230|                                             de|               .|                  frame_id_numbers_present_flag: 0 0x23f.7-0x240 (0.1)
0x0240|21                                             |!               |                  use_128x128_superblock: 0 0x240-0x240.1 (0.1)
0x0240|21                                             |!               |                  enable_filter_intra: 0 0x240.1-0x240.2 (0.1)
0x0240|21                                             |!               |                  enable_intra_edge_filter: 1 0x240.2-0x240.3 (0.1)
0x0240|21                                             |!               |                  enable_interintra_compound: 0 0x240.3-0x240.4 (0.1)
0x0240|21                                             |!               |                  enable_masked_compound: 0 0x240.4-0x240.5 (0.1)
0x0240|21                                             |!               |                  enable_warped_motion: 0 0x240.5-0x240.6 (0.1)
0x0240|21                                             |!               |                  enable_dual_filter: 0 0x240.6-0x240.7 (0.1)
0x0240|21                                             |!               |                  enable_order_hint: 1 0x240.7-0x241 (0.1)
0x0240|   0a                                          | .              |                  enable_jnt_comp: 0 0x241-0x241.1 (0.1)
0x0240|   0a                                          | .              |                  enable_ref_frame_mvs: 0 0x241.1-0x241.2 (0.1)
0x0240|   0a                                          | .              |                  seq_choose_screen_content_tools: 0 0x241.2-0x241.3 (0.1)
0x0240|   0a                                          | .              |                  seq_force_screen_content_tools: 0 0x241.3-0x241.4 (0.1)
0x0240|   0a                                          | .              |                  order_hint_bits_minus_1: 5 0x241.4-0x241.7 (0.3)
0x0240|   0a                                          | .              |                  enable_superres: 0 0x241.7-0x242 (0.1)
0x0240|      d0                                       |  .             |                  enable_cdef: 1 0x242-0x242.1 (0.1)
0x0240|      d0                                       |  .             |                  enable_restoration: 1 0x242.1-0x242.2 (0.1)
      |                                               |                |                  color_config{}: 0x242.2-0x245.6 (3.4)
0x0240|      d0                                       |  .             |                    high_bitdepth: 0 0x242.2-0x242.3 (0.1)
      |                                               |                |                    bit_depth: 8
      |                                               |                |                    mono_chrome: 0
0x0240|      d0                                       |  .             |                    color_description_present_flag: 1 0x242.3-0x242.4 (0.1)
0x0240|      d0 20                                    |  .             |                    color_primaries: "unspecified" (2) 0x242.4-0x243.4 (1)
0x0240|         20 20                                 |                |                    transfer_characteristics: "unspecified" (2) 0x243.4-0x244.4 (1)
0x0240|            20 25                              |     %          |                    matrix_coefficients: "unspecified" (2) 0x244.4-0x245.4 (1)
0x0240|               25                              |     %          |                    color_range: 0 0x245.4-0x245.5 (0.1)
      |                                               |                |                    subsampling_x: 0
      |                                               |                |                    subsampling_y: 0
0x0240|               25                              |     %          |                    separate_uv_delta_q: 1 0x245.5-0x245.6 (0.1)
0x0240|               25                              |     %          |                  film_grain_params_present: 0 0x245.6-0x245.7 (0.1)
0x0240|               25                              |     %          |                  data: raw bits 0x245.7-0x246 (0.1)
      |00 01 02 03 04 05 06 07 08 09 0a 0b 0c 0d 0e 0f|0123456789abcdef|                [1]{}: obu (av1_obu) 0x246-0x258 (18)
      |                                               |                |                  header{}: 0x246-0x247 (1)
0x0240|                  1a                           |      .         |                    forbidden_bit: 0 0x246-0x246.1 (0.1)
0x0240|                  1a                           |      .         |                    type: "frame_header" (3) 0x246.1-0x246.5 (0.4)
0x0240|                  1a                           |      .         |                    extension_flag: false 0x246.5-0x246.6 (0.1)
0x0240|                  1a                           |      .         |                    has_size_field: true 0x246.6-0x246.7 (0.1)
0x0240|                  1a                           |      .         |                    reserved_1bit: 0 0x246.7-0x247 (0.1)
0x0240|                     10                        |       .        |                  size: 16 0x247-0x248 (1)
0x0240|                        10 02 27 c8 e9 e6 64 3f|        ..'...d?|                  data: raw bits 0x248-0x258 (16)
0x0250|c1 f8 a4 98 20 82 2a 60                        |.... .*`        |
      |00 01 02 03 04 05 06 07 08 09 0a 0b 0c 0d 0e 0f|0123456789abcdef|                [2]{}: obu (av1_obu) 0x258-0x13cb (4467)
      |                                               |                |                  header{}: 0x258-0x259 (1)
0x0250|                        22                     |        "       |                    forbidden_bit: 0 0x258-0x258.1 (0.1)
0x0250|                        22                     |        "       |                    type: "tile_group" (4) 0x258.1-0x258.5 (0.4)
0x0250|                        22                     |        "       |                    extension_flag: false 0x258.5-0x258.6 (0.1)
0x0250|                        22                     |        "       |                    has_size_field: true 0x258.6-0x258.7 (0.1)
0x0250|                        22                     |        "       |                    reserved_1bit: 0 0x258.7-0x259 (0.1)
0x0250|                           f0 22               |         ."     |                  size: 4464 0x259-0x25b (2)
0x0250|                                 f6 0a 4f ae f3|           ..O..|                  data: raw bits 0x25b-0x13cb (4464)
0x0260|fe ec e7 30 4f 3f 13 9c 75 c9 6a 37 c2 a8 8f 54|...0O?..u.j7...T|
*     |until 0x13ca.7 (4464)                          |                |
      |                                               |                |        [6]{}: element 0x13cb-0x13e7 (28)
0x13c0|                                 1c 53 bb 6b   |           .S.k |          id: "cues" (0x1c53bb6b) (A Top-Level Element to speed seeking access) 0x13cb-0x13cf (4)
      |                                               |                |          type: "master"
0x13c0|                                             97|               .|          size: 23 0x13cf-0x13d0 (1)
      |                                               |                |          elements[0:2]: 0x13d0-0x13e7 (23)
      |                                               |                |            [0]{}: element 0x13d0-0x13d6 (6)
0x13d0|bf                                             |.               |              id: "crc32" (0xbf) 0x13d0-0x13d1 (1)
      |                                               |                |              type: "binary"
0x13d0|   84                                          | .              |              size: 4 0x13d1-0x13d2 (1)
0x13d0|      16 32 85 1c                              |  .2..          |              value: raw bits 0x13d2-0x13d6 (4)
      |                                               |                |            [1]{}: element 0x13d6-0x13e7 (17)
0x13d0|                  bb                           |      .         |              id: "cue_point" (0xbb) (Contains all information relative to a seek point in the Segment) 0x13d6-0x13d7 (1)
      |                                               |                |              type: "master"
0x13d0|                     8f                        |       .        |              size: 15 0x13d7-0x13d8 (1)
      |                                               |                |              elements[0:2]: 0x13d8-0x13e7 (15)
      |                                               |                |                [0]{}: element 0x13d8-0x13db (3)
0x13d0|                        b3                     |        .       |                  id: "cue_time" (0xb3) (Absolute timestamp of the seek point) 0x13d8-0x13d9 (1)
      |                                               |                |                  type: "uinteger"
0x13d0|                           81                  |         .      |                  size: 1 0x13d9-0x13da (1)
0x13d0|                              00               |          .     |                  value: 0 0x13da-0x13db (1)
      |                                               |                |                [1]{}: element 0x13db-0x13e7 (12)
0x13d0|                                 b7            |           .    |                  id: "cue_track_positions" (0xb7) (Contains positions for different tracks corresponding to the timestamp) 0x13db-0x13dc (1)
      |                                               |                |                  type: "master"
0x13d0|                                    8a         |            .   |                  size: 10 0x13dc-0x13dd (1)
      |                                               |                |                  elements[0:3]: 0x13dd-0x13e7 (10)
      |                                               |                |                    [0]{}: element 0x13dd-0x13e0 (3)
0x13d0|                                       f7      |             .  |                      id: "cue_track" (0xf7) (The track for which a position is given) 0x13dd-0x13de (1)
      |                                               |                |                      type: "uinteger"
0x13d0|                                          81   |              . |                      size: 1 0x13de-0x13df (1)
0x13d0|                                             01|               .|                      value: 1 0x13df-0x13e0 (1)
      |                                               |                |                    [1]{}: element 0x13e0-0x13e4 (4)
0x13e0|f1                                             |.               |                      id: "cue_cluster_position" (0xf1) (The Segment Position of the Cluster containing the associated Block) 0x13e0-0x13e1 (1)
      |                                               |                |                      type: "uinteger"
0x13e0|   82                                          | .              |                      size: 2 0x13e1-0x13e2 (1)
0x13e0|      01 ed                                    |  ..            |                      value: 493 0x13e2-0x13e4 (2)
      |                                               |                |                    [2]{}: element 0x13e4-0x13e7 (3)
0x13e0|            f0                                 |    .           |                      id: "cue_relative_position" (0xf0) (The relative position inside the Cluster of the referenced SimpleBlock or BlockGroup with 0 being the first possible position for an element inside that Cluster) 0x13e4-0x13e5 (1)
      |                                               |                |                      type: "uinteger"
0x13e0|               81                              |     .          |                      size: 1 0x13e5-0x13e6 (1)
0x13e0|                  09|                          |      .|        |                      value: 9 0x13e6-0x13e7 (1)
