# ffmpeg -f lavfi -i testsrc -c:v h264 -f matroska -t 50ms avc.mkv
$ fq -d matroska dv avc.mkv
       |00 01 02 03 04 05 06 07 08 09 0a 0b 0c 0d 0e 0f|0123456789abcdef|.{}: avc.mkv (matroska) 0x0-0xd47 (3399)
       |                                               |                |  elements[0:2]: 0x0-0xd47 (3399)
       |                                               |                |    [0]{}: element 0x0-0x28 (40)
0x00000|1a 45 df a3                                    |.E..            |      id: "ebml" (0x1a45dfa3) 0x0-0x4 (4)
       |                                               |                |      type: "master"
0x00000|            a3                                 |    .           |      size: 35 0x4-0x5 (1)
       |                                               |                |      elements[0:7]: 0x5-0x28 (35)
       |                                               |                |        [0]{}: element 0x5-0x9 (4)
0x00000|               42 86                           |     B.         |          id: "ebml_version" (0x4286) (EBML Version) 0x5-0x7 (2)
       |                                               |                |          type: "uinteger"
0x00000|                     81                        |       .        |          size: 1 0x7-0x8 (1)
0x00000|                        01                     |        .       |          value: 1 0x8-0x9 (1)
       |                                               |                |        [1]{}: element 0x9-0xd (4)
0x00000|                           42 f7               |         B.     |          id: "ebml_read_version" (0x42f7) (Minimum EBML reader version) 0x9-0xb (2)
       |                                               |                |          type: "uinteger"
0x00000|                                 81            |           .    |          size: 1 0xb-0xc (1)
0x00000|                                    01         |            .   |          value: 1 0xc-0xd (1)
       |                                               |                |        [2]{}: element 0xd-0x11 (4)
0x00000|                                       42 f2   |             B. |          id: "ebml_max_id_length" (0x42f2) (Maximum id length) 0xd-0xf (2)
       |                                               |                |          type: "uinteger"
0x00000|                                             81|               .|          size: 1 0xf-0x10 (1)
0x00010|04                                             |.               |          value: 4 0x10-0x11 (1)
       |                                               |                |        [3]{}: element 0x11-0x15 (4)
0x00010|   42 f3                                       | B.             |          id: "ebml_max_size_length" (0x42f3) (Maximum body length) 0x11-0x13 (2)
       |                                               |                |          type: "uinteger"
0x00010|         81                                    |   .            |          size: 1 0x13-0x14 (1)
0x00010|            08                                 |    .           |          value: 8 0x14-0x15 (1)
       |                                               |                |        [4]{}: element 0x15-0x20 (11)
0x00010|               42 82                           |     B.         |          id: "doc_type" (0x4282) (Document content type) 0x15-0x17 (2)
       |                                               |                |          type: "string"
0x00010|                     88                        |       .        |          size: 8 0x17-0x18 (1)
0x00010|                        6d 61 74 72 6f 73 6b 61|        matroska|          value: "matroska" 0x18-0x20 (8)
       |                                               |                |        [5]{}: element 0x20-0x24 (4)
0x00020|42 87                                          |B.              |          id: "doc_type_version" (0x4287) (Document type version) 0x20-0x22 (2)
       |                                               |                |          type: "uinteger"
0x00020|      81                                       |  .             |          size: 1 0x22-0x23 (1)
0x00020|         04                                    |   .            |          value: 4 0x23-0x24 (1)
       |                                               |                |        [6]{}: element 0x24-0x28 (4)
0x00020|            42 85                              |    B.          |          id: "doc_type_read_version" (0x4285) (Minimum document reader version) 0x24-0x26 (2)
       |                                               |                |          type: "uinteger"
0x00020|                  81                           |      .         |          size: 1 0x26-0x27 (1)
0x00020|                     02                        |       .        |          value: 2 0x27-0x28 (1)
       |                                               |                |    [1]{}: element 0x28-0xd47 (3359)
0x00020|                        18 53 80 67            |        .S.g    |      id: "segment" (0x18538067) (The Root Element that contains all other Top-Level Elements) 0x28-0x2c (4)
       |                                               |                |      type: "master"
0x00020|                                    01 00 00 00|            ....|      size: 3347 0x2c-0x34 (8)
0x00030|00 00 0d 13                                    |....            |
       |                                               |                |      elements[0:7]: 0x34-0xd47 (3347)
       |                                               |                |        [0]{}: element 0x34-0x79 (69)
0x00030|            11 4d 9b 74                        |    .M.t        |          id: "seek_head" (0x114d9b74) (Contains seeking information of Top-Level Elements) 0x34-0x38 (4)
       |                                               |                |          type: "master"
0x00030|                        c0                     |        .       |          size: 64 0x38-0x39 (1)
       |                                               |                |          elements[0:5]: 0x39-0x79 (64)
       |                                               |                |            [0]{}: element 0x39-0x3f (6)
0x00030|                           bf                  |         .      |              id: "crc32" (0xbf) 0x39-0x3a (1)
       |                                               |                |              type: "binary"
0x00030|                              84               |          .     |              size: 4 0x3a-0x3b (1)
0x00030|                                 7d 9c 3e c5   |           }.>. |              value: raw bits 0x3b-0x3f (4)
       |                                               |                |            [1]{}: element 0x3f-0x4d (14)
0x00030|                                             4d|               M|              id: "seek" (0x4dbb) (Contains a single seek entry to an EBML Element) 0x3f-0x41 (2)
0x00040|bb                                             |.               |
       |                                               |                |              type: "master"
0x00040|   8b                                          | .              |              size: 11 0x41-0x42 (1)
       |                                               |                |              elements[0:2]: 0x42-0x4d (11)
       |                                               |                |                [0]{}: element 0x42-0x49 (7)
0x00040|      53 ab                                    |  S.            |                  id: "seek_id" (0x53ab) (The binary EBML ID of a Top-Level Element) 0x42-0x44 (2)
       |                                               |                |                  type: "binary"
0x00040|            84                                 |    .           |                  size: 4 0x44-0x45 (1)
0x00040|               15 49 a9 66                     |     .I.f       |                  value: raw bits 0x45-0x49 (4)
       |                                               |                |                [1]{}: element 0x49-0x4d (4)
0x00040|                           53 ac               |         S.     |                  id: "seek_position" (0x53ac) (The Segment Position of a Top-Level Element) 0x49-0x4b (2)
       |                                               |                |                  type: "uinteger"
0x00040|                                 81            |           .    |                  size: 1 0x4b-0x4c (1)
0x00040|                                    a1         |            .   |                  value: 161 0x4c-0x4d (1)
       |                                               |                |            [2]{}: element 0x4d-0x5b (14)
0x00040|                                       4d bb   |             M. |              id: "seek" (0x4dbb) (Contains a single seek entry to an EBML Element) 0x4d-0x4f (2)
       |                                               |                |              type: "master"
0x00040|                                             8b|               .|              size: 11 0x4f-0x50 (1)
       |                                               |                |              elements[0:2]: 0x50-0x5b (11)
       |                                               |                |                [0]{}: element 0x50-0x57 (7)
0x00050|53 ab                                          |S.              |                  id: "seek_id" (0x53ab) (The binary EBML ID of a Top-Level Element) 0x50-0x52 (2)
       |                                               |                |                  type: "binary"
0x00050|      84                                       |  .             |                  size: 4 0x52-0x53 (1)
0x00050|         16 54 ae 6b                           |   .T.k         |                  value: raw bits 0x53-0x57 (4)
       |                                               |                |                [1]{}: element 0x57-0x5b (4)
0x00050|                     53 ac                     |       S.       |                  id: "seek_position" (0x53ac) (The Segment Position of a Top-Level Element) 0x57-0x59 (2)
       |                                               |                |                  type: "uinteger"
0x00050|                           81                  |         .      |                  size: 1 0x59-0x5a (1)
0x00050|                              f1               |          .     |                  value: 241 0x5a-0x5b (1)
       |                                               |                |            [3]{}: element 0x5b-0x6a (15)
0x00050|                                 4d bb         |           M.   |              id: "seek" (0x4dbb) (Contains a single seek entry to an EBML Element) 0x5b-0x5d (2)
       |                                               |                |              type: "master"
0x00050|                                       8c      |             .  |              size: 12 0x5d-0x5e (1)
       |                                               |                |              elements[0:2]: 0x5e-0x6a (12)
       |                                               |                |                [0]{}: element 0x5e-0x65 (7)
0x00050|                                          53 ab|              S.|                  id: "seek_id" (0x53ab) (The binary EBML ID of a Top-Level Element) 0x5e-0x60 (2)
       |                                               |                |                  type: "binary"
0x00060|84                                             |.               |                  size: 4 0x60-0x61 (1)
0x00060|   12 54 c3 67                                 | .T.g           |                  value: raw bits 0x61-0x65 (4)
       |                                               |                |                [1]{}: element 0x65-0x6a (5)
0x00060|               53 ac                           |     S.         |                  id: "seek_position" (0x53ac) (The Segment Position of a Top-Level Element) 0x65-0x67 (2)
       |                                               |                |                  type: "uinteger"
0x00060|                     82                        |       .        |                  size: 2 0x67-0x68 (1)
0x00060|                        01 7b                  |        .{      |                  value: 379 0x68-0x6a (2)
       |                                               |                |            [4]{}: element 0x6a-0x79 (15)
0x00060|                              4d bb            |          M.    |              id: "seek" (0x4dbb) (Contains a single seek entry to an EBML Element) 0x6a-0x6c (2)
       |                                               |                |              type: "master"
0x00060|                                    8c         |            .   |              size: 12 0x6c-0x6d (1)
       |                                               |                |              elements[0:2]: 0x6d-0x79 (12)
       |                                               |                |                [0]{}: element 0x6d-0x74 (7)
0x00060|                                       53 ab   |             S. |                  id: "seek_id" (0x53ab) (The binary EBML ID of a Top-Level Element) 0x6d-0x6f (2)
       |                                               |                |                  type: "binary"
0x00060|                                             84|               .|                  size: 4 0x6f-0x70 (1)
0x00070|1c 53 bb 6b                                    |.S.k            |                  value: raw bits 0x70-0x74 (4)
       |                                               |                |                [1]{}: element 0x74-0x79 (5)
0x00070|            53 ac                              |    S.          |                  id: "seek_position" (0x53ac) (The Segment Position of a Top-Level Element) 0x74-0x76 (2)
       |                                               |                |                  type: "uinteger"
0x00070|                  82                           |      .         |                  size: 2 0x76-0x77 (1)
0x00070|                     0c f7                     |       ..       |                  value: 3319 0x77-0x79 (2)
       |                                               |                |        [1]{}: element 0x79-0xd5 (92)
0x00070|                           ec                  |         .      |          id: "void" (0xec) 0x79-0x7a (1)
       |                                               |                |          type: "binary"
0x00070|                              01 00 00 00 00 00|          ......|          size: 83 0x7a-0x82 (8)
0x00080|00 53                                          |.S              |
0x00080|      00 00 00 00 00 00 00 00 00 00 00 00 00 00|  ..............|          value: raw bits 0x82-0xd5 (83)
0x00090|00 00 00 00 00 00 00 00 00 00 00 00 00 00 00 00|................|
*      |until 0xd4.7 (83)                              |                |
       |                                               |                |        [2]{}: element 0xd5-0x125 (80)
0x000d0|               15 49 a9 66                     |     .I.f       |          id: "info" (0x1549a966) (Contains general information about the Segment) 0xd5-0xd9 (4)
       |                                               |                |          type: "master"
0x000d0|                           cb                  |         .      |          size: 75 0xd9-0xda (1)
       |                                               |                |          elements[0:6]: 0xda-0x125 (75)
       |                                               |                |            [0]{}: element 0xda-0xe0 (6)
0x000d0|                              bf               |          .     |              id: "crc32" (0xbf) 0xda-0xdb (1)
       |                                               |                |              type: "binary"
0x000d0|                                 84            |           .    |              size: 4 0xdb-0xdc (1)
0x000d0|                                    51 bf 34 0a|            Q.4.|              value: raw bits 0xdc-0xe0 (4)
       |                                               |                |            [1]{}: element 0xe0-0xe7 (7)
0x000e0|2a d7 b1                                       |*..             |              id: "timestamp_scale" (0x2ad7b1) (Base unit for Segment Ticks and Track Ticks) 0xe0-0xe3 (3)
       |                                               |                |              type: "uinteger"
0x000e0|         83                                    |   .            |              size: 3 0xe3-0xe4 (1)
0x000e0|            0f 42 40                           |    .B@         |              value: 1000000 0xe4-0xe7 (3)
       |                                               |                |            [2]{}: element 0xe7-0xf7 (16)
0x000e0|                     4d 80                     |       M.       |              id: "muxing_app" (0x4d80) (Muxing application or library) 0xe7-0xe9 (2)
       |                                               |                |              type: "utf8"
0x000e0|                           8d                  |         .      |              size: 13 0xe9-0xea (1)
0x000e0|                              4c 61 76 66 35 38|          Lavf58|              value: "Lavf58.45.100" 0xea-0xf7 (13)
0x000f0|2e 34 35 2e 31 30 30                           |.45.100         |
       |                                               |                |            [3]{}: element 0xf7-0x107 (16)
0x000f0|                     57 41                     |       WA       |              id: "writing_app" (0x5741) (Writing application) 0xf7-0xf9 (2)
       |                                               |                |              type: "utf8"
0x000f0|                           8d                  |         .      |              size: 13 0xf9-0xfa (1)
0x000f0|                              4c 61 76 66 35 38|          Lavf58|              value: "Lavf58.45.100" 0xfa-0x107 (13)
0x00100|2e 34 35 2e 31 30 30                           |.45.100         |
       |                                               |                |            [4]{}: element 0x107-0x11a (19)
0x00100|                     73 a4                     |       s.       |              id: "segment_uuid" (0x73a4) (A randomly generated UID that identifies the Segment amongst many others v4 RFC9562 with all bits randomly (or pseudorandomly) chosen) 0x107-0x109 (2)
       |                                               |                |              type: "binary"
0x00100|                           90                  |         .      |              size: 16 0x109-0x10a (1)
0x00100|                              7c 01 b0 2d a3 3f|          |..-.?|              value: raw bits 0x10a-0x11a (16)
0x00110|3e f6 38 47 3a 3d b2 c9 e4 19                  |>.8G:=....      |
       |                                               |                |            [5]{}: element 0x11a-0x125 (11)
0x00110|                              44 89            |          D.    |              id: "duration" (0x4489) (Duration of the Segment) 0x11a-0x11c (2)
       |                                               |                |              type: "float"
0x00110|                                    88         |            .   |              size: 8 0x11c-0x11d (1)
0x00110|                                       40 44 00|             @D.|              value: 40 0x11d-0x125 (8)
0x00120|00 00 00 00 00                                 |.....           |
       |                                               |                |        [3]{}: element 0x125-0x1af (138)
0x00120|               16 54 ae 6b                     |     .T.k       |          id: "tracks" (0x1654ae6b) (A Top-Level Element of information with many tracks described) 0x125-0x129 (4)
       |                                               |                |          type: "master"
0x00120|                           40 84               |         @.     |          size: 132 0x129-0x12b (2)
       |                                               |                |          elements[0:2]: 0x12b-0x1af (132)
       |                                               |                |            [0]{}: element 0x12b-0x131 (6)
0x00120|                                 bf            |           .    |              id: "crc32" (0xbf) 0x12b-0x12c (1)
       |                                               |                |              type: "binary"
0x00120|                                    84         |            .   |              size: 4 0x12c-0x12d (1)
0x00120|                                       3e df 62|             >.b|              value: raw bits 0x12d-0x131 (4)
0x00130|85                                             |.               |
       |                                               |                |            [1]{}: element 0x131-0x1af (126)
0x00130|   ae                                          | .              |              id: "track_entry" (0xae) (Describes a track with all elements) 0x131-0x132 (1)
       |                                               |                |              type: "master"
0x00130|      01 00 00 00 00 00 00 75                  |  .......u      |              size: 117 0x132-0x13a (8)
       |                                               |                |              elements[0:9]: 0x13a-0x1af (117)
       |                                               |                |                [0]{}: element 0x13a-0x13d (3)
0x00130|                              d7               |          .     |                  id: "track_number" (0xd7) (The track number as used in the Block Header) 0x13a-0x13b (1)
       |                                               |                |                  type: "uinteger"
0x00130|                                 81            |           .    |                  size: 1 0x13b-0x13c (1)
0x00130|                                    01         |            .   |                  value: 1 0x13c-0x13d (1)
       |                                               |                |                [1]{}: element 0x13d-0x148 (11)
0x00130|                                       73 c5   |             s. |                  id: "track_uid" (0x73c5) (A UID that identifies the Track) 0x13d-0x13f (2)
       |                                               |                |                  type: "uinteger"
0x00130|                                             88|               .|                  size: 8 0x13f-0x140 (1)
0x00140|5c dc 49 64 84 41 76 e3                        |\.Id.Av.        |                  value: 6691303842430154467 0x140-0x148 (8)
       |                                               |                |                [2]{}: element 0x148-0x14b (3)
0x00140|                        9c                     |        .       |                  id: "flag_lacing" (0x9c) (Set to 1 if the track **MAY** contain blocks that use lacing) 0x148-0x149 (1)
       |                                               |                |                  type: "uinteger"
0x00140|                           81                  |         .      |                  size: 1 0x149-0x14a (1)
0x00140|                              00               |          .     |                  value: 0 0x14a-0x14b (1)
       |                                               |                |                [3]{}: element 0x14b-0x152 (7)
0x00140|                                 22 b5 9c      |           "..  |                  id: "language" (0x22b59c) (The language of the track) 0x14b-0x14e (3)
       |                                               |                |                  type: "string"
0x00140|                                          83   |              . |                  size: 3 0x14e-0x14f (1)
0x00140|                                             75|               u|                  value: "und" 0x14f-0x152 (3)
0x00150|6e 64                                          |nd              |
       |                                               |                |                [4]{}: element 0x152-0x163 (17)
0x00150|      86                                       |  .             |                  id: "codec_id" (0x86) (An ID corresponding to the codec) 0x152-0x153 (1)
       |                                               |                |                  type: "string"
0x00150|         8f                                    |   .            |                  size: 15 0x153-0x154 (1)
0x00150|            56 5f 4d 50 45 47 34 2f 49 53 4f 2f|    V_MPEG4/ISO/|                  value: "V_MPEG4/ISO/AVC" 0x154-0x163 (15)
0x00160|41 56 43                                       |AVC             |
       |                                               |                |                [5]{}: element 0x163-0x166 (3)
0x00160|         83                                    |   .            |                  id: "track_type" (0x83) (The TrackType defines the type of each frame found in the Track) 0x163-0x164 (1)
       |                                               |                |                  type: "uinteger"
0x00160|            81                                 |    .           |                  size: 1 0x164-0x165 (1)
0x00160|               01                              |     .          |                  value: "video" (1) (An image) 0x165-0x166 (1)
       |                                               |                |                [6]{}: element 0x166-0x16e (8)
0x00160|                  23 e3 83                     |      #..       |                  id: "default_duration" (0x23e383) (Number of nanoseconds per frame) 0x166-0x169 (3)
       |                                               |                |                  type: "uinteger"
0x00160|                           84                  |         .      |                  size: 4 0x169-0x16a (1)
0x00160|                              02 62 5a 00      |          .bZ.  |                  value: 40000000 0x16a-0x16e (4)
       |                                               |                |                [7]{}: element 0x16e-0x17e (16)
0x00160|                                          e0   |              . |                  id: "video" (0xe0) (Video settings) 0x16e-0x16f (1)
       |                                               |                |                  type: "master"
0x00160|                                             01|               .|                  size: 7 0x16f-0x177 (8)
0x00170|00 00 00 00 00 00 07                           |.......         |
       |                                               |                |                  elements[0:2]: 0x177-0x17e (7)
       |                                               |                |                    [0]{}: element 0x177-0x17b (4)
0x00170|                     b0                        |       .        |                      id: "pixel_width" (0xb0) (Width of the encoded video frames in pixels) 0x177-0x178 (1)
       |                                               |                |                      type: "uinteger"
0x00170|                        82                     |        .       |                      size: 2 0x178-0x179 (1)
0x00170|                           01 40               |         .@     |                      value: 320 0x179-0x17b (2)
       |                                               |                |                    [1]{}: element 0x17b-0x17e (3)
0x00170|                                 ba            |           .    |                      id: "pixel_height" (0xba) (Height of the encoded video frames in pixels) 0x17b-0x17c (1)
       |                                               |                |                      type: "uinteger"
0x00170|                                    81         |            .   |                      size: 1 0x17c-0x17d (1)
0x00170|                                       f0      |             .  |                      value: 240 0x17d-0x17e (1)
       |                                               |                |                [8]{}: element 0x17e-0x1af (49)
0x00170|                                          63 a2|              c.|                  id: "codec_private" (0x63a2) (Private data only known to the codec) 0x17e-0x180 (2)
       |                                               |                |                  type: "binary"
0x00180|ae                                             |.               |                  size: 46 0x180-0x181 (1)
       |00 01 02 03 04 05 06 07 08 09 0a 0b 0c 0d 0e 0f|0123456789abcdef|                  value{}: (avc_dcr) 0x181-0x1af (46)
0x00180|   01                                          | .              |                    configuration_version: 1 0x181-0x182 (1)
0x00180|      f4                                       |  .             |                    profile_indication: "high_444_predictive_profile" (244) 0x182-0x183 (1)
0x00180|         00                                    |   .            |                    profile_compatibility: 0 0x183-0x184 (1)
0x00180|            0d                                 |    .           |                    level_indication: "1.3" (13) 0x184-0x185 (1)
0x00180|               ff                              |     .          |                    reserved0: 63 0x185-0x185.6 (0.6)
0x00180|               ff                              |     .          |                    length_size: 4 0x185.6-0x186 (0.2)
0x00180|                  e1                           |      .         |                    reserved1: 7 0x186-0x186.3 (0.3)
0x00180|                  e1                           |      .         |                    num_of_sequence_parameter_sets: 1 0x186.3-0x187 (0.5)
       |                                               |                |                    sequence_parameter_sets[0:1]: 0x187-0x1a2 (27)
       |                                               |                |                      [0]{}: set 0x187-0x1a2 (27)
0x00180|                     00 19                     |       ..       |                        length: 25 0x187-0x189 (2)
       |00 01 02 03 04 05 06 07 08 09 0a 0b 0c 0d 0e 0f|0123456789abcdef|                        nal{}: (avc_nalu) 0x189-0x1a2 (25)
       |00 01 02 03 04 05 06 07 08 09 0a 0b 0c 0d 0e 0f|0123456789abcdef|                          sps{}: (avc_sps) 0x0-0x16 (22)
  0x000|f4                                             |.               |                            profile_idc: "high_444_predictive_profile" (244) 0x0-0x1 (1)
  0x000|   00                                          | .              |                            constraint_set0_flag: false 0x1-0x1.1 (0.1)
  0x000|   00                                          | .              |                            constraint_set1_flag: false 0x1.1-0x1.2 (0.1)
  0x000|   00                                          | .              |                            constraint_set2_flag: false 0x1.2-0x1.3 (0.1)
  0x000|   00                                          | .              |                            constraint_set3_flag: false 0x1.3-0x1.4 (0.1)
  0x000|   00                                          | .              |                            constraint_set4_flag: false 0x1.4-0x1.5 (0.1)
  0x000|   00                                          | .              |                            constraint_set5_flag: false 0x1.5-0x1.6 (0.1)
  0x000|   00                                          | .              |                            reserved_zero_2bits: 0 0x1.6-0x2 (0.2)
  0x000|      0d                                       |  .             |                            level_idc: "1.3" (13) 0x2-0x3 (1)
  0x000|         91                                    |   .            |                            seq_parameter_set_id: 0 0x3-0x3.1 (0.1)
  0x000|         91                                    |   .            |                            chroma_format_idc: "4:4:4" (3) 0x3.1-0x3.6 (0.5)
  0x000|         91                                    |   .            |                            separate_colour_plane_flag: false 0x3.6-0x3.7 (0.1)
  0x000|         91                                    |   .            |                            bit_depth_luma: 8 0x3.7-0x4 (0.1)
  0x000|            9b                                 |    .           |                            bit_depth_chroma: 8 0x4-0x4.1 (0.1)
  0x000|            9b                                 |    .           |                            qpprime_y_zero_transform_bypass_flag: false 0x4.1-0x4.2 (0.1)
  0x000|            9b                                 |    .           |                            seq_scaling_matrix_present_flag: false 0x4.2-0x4.3 (0.1)
  0x000|            9b                                 |    .           |                            log2_max_frame_num: 4 0x4.3-0x4.4 (0.1)
  0x000|            9b                                 |    .           |                            pic_order_cnt_type: 0 0x4.4-0x4.5 (0.1)
  0x000|            9b                                 |    .           |                            log2_max_pic_order_cnt_lsb: 6 0x4.5-0x5 (0.3)
  0x000|               28                              |     (          |                            max_num_ref_frames: 4 0x5-0x5.5 (0.5)
  0x000|               28                              |     (          |                            gaps_in_frame_num_value_allowed_flag: false 0x5.5-0x5.6 (0.1)
  0x000|               28 28                           |     ((         |                            pic_width_in_mbs: 20 0x5.6-0x6.7 (1.1)
  0x000|                  28 3f                        |      (?        |                            pic_height_in_map_units: 15 0x6.7-0x7.6 (0.7)
  0x000|                     3f                        |       ?        |                            frame_mbs_only_flag: true 0x7.6-0x7.7 (0.1)
  0x000|                     3f                        |       ?        |                            direct_8x8_inference_flag: true 0x7.7-0x8 (0.1)
  0x000|                        60                     |        `       |                            frame_cropping_flag: false 0x8-0x8.1 (0.1)
  0x000|                        60                     |        `       |                            vui_parameters_present_flag: true 0x8.1-0x8.2 (0.1)
       |                                               |                |                            vui_parameters{}: 0x8.2-0x15.5 (13.3)
  0x000|                        60                     |        `       |                              aspect_ratio_info_present_flag: true 0x8.2-0x8.3 (0.1)
  0x000|                        60 22                  |        `"      |                              aspect_ratio_idc: "1:1" (1) 0x8.3-0x9.3 (1)
  0x000|                           22                  |         "      |                              overscan_info_present_flag: false 0x9.3-0x9.4 (0.1)
  0x000|                           22                  |         "      |                              video_signal_type_present_flag: false 0x9.4-0x9.5 (0.1)
  0x000|                           22                  |         "      |                              chroma_loc_info_present_flag: false 0x9.5-0x9.6 (0.1)
  0x000|                           22                  |         "      |                              timing_info_present_flag: true 0x9.6-0x9.7 (0.1)
  0x000|                           22 00 00 00 02      |         "....  |                              num_units_in_tick: 1 0x9.7-0xd.7 (4)
  0x000|                                       02 00 00|             ...|                              time_scale: 50 0xd.7-0x11.7 (4)
  0x001|00 64                                          |.d              |
  0x001|   64                                          | d              |                              fixed_frame_rate_flag: false 0x11.7-0x12 (0.1)
  0x001|      1e                                       |  .             |                              nal_hrd_parameters_present_flag: false 0x12-0x12.1 (0.1)
  0x001|      1e                                       |  .             |                              vcl_hrd_parameters_present_flag: false 0x12.1-0x12.2 (0.1)
  0x001|      1e                                       |  .             |                              pic_struct_present_flag: false 0x12.2-0x12.3 (0.1)
  0x001|      1e                                       |  .             |                              bitstream_restriction_flag: true 0x12.3-0x12.4 (0.1)
  0x001|      1e                                       |  .             |                              motion_vectors_over_pic_boundaries_flag: true 0x12.4-0x12.5 (0.1)
  0x001|      1e                                       |  .             |                              max_bytes_per_pic_denom: 0 0x12.5-0x12.6 (0.1)
  0x001|      1e                                       |  .             |                              max_bits_per_mb_denom: 0 0x12.6-0x12.7 (0.1)
  0x001|      1e 28                                    |  .(            |                              log2_max_mv_length_horizontal: 9 0x12.7-0x13.6 (0.7)
  0x001|         28 53                                 |   (S           |                              log2_max_mv_length_vertical: 9 0x13.6-0x14.5 (0.7)
  0x001|            53                                 |    S           |                              max_num_reorder_frames: 2 0x14.5-0x15 (0.3)
  0x001|               2c|                             |     ,|         |                              max_dec_frame_buffering: 4 0x15-0x15.5 (0.5)
  0x001|               2c|                             |     ,|         |                            rbsp_trailing_bits: raw bits 0x15.5-0x16 (0.3)
0x00180|                           67                  |         g      |                          forbidden_zero_bit: false 0x189-0x189.1 (0.1)
0x00180|                           67                  |         g      |                          nal_ref_idc: 3 0x189.1-0x189.3 (0.2)
0x00180|                           67                  |         g      |                          nal_unit_type: "sps" (7) (Sequence parameter set) 0x189.3-0x18a (0.5)
0x00180|                              f4 00 0d 91 9b 28|          .....(|                          data: raw bits 0x18a-0x1a2 (24)
0x00190|28 3f 60 22 00 00 03 00 02 00 00 03 00 64 1e 28|(?`".........d.(|
0x001a0|53 2c                                          |S,              |
0x001a0|      01                                       |  .             |                    num_of_picture_parameter_sets: 1 0x1a2-0x1a3 (1)
       |                                               |                |                    picture_parameter_sets[0:1]: 0x1a3-0x1ab (8)
       |                                               |                |                      [0]{}: set 0x1a3-0x1ab (8)
0x001a0|         00 06                                 |   ..           |                        length: 6 0x1a3-0x1a5 (2)
       |00 01 02 03 04 05 06 07 08 09 0a 0b 0c 0d 0e 0f|0123456789abcdef|                        nal{}: (avc_nalu) 0x1a5-0x1ab (6)
       |00 01 02 03 04 05 06 07 08 09 0a 0b 0c 0d 0e 0f|0123456789abcdef|                          pps{}: (avc_pps) 0x0-0x5 (5)
  0x000|eb                                             |.               |                            pic_parameter_set_id: 0 0x0-0x0.1 (0.1)
  0x000|eb                                             |.               |                            seq_parameter_set_id: 0 0x0.1-0x0.2 (0.1)
  0x000|eb                                             |.               |                            entropy_coding_mode_flag: true 0x0.2-0x0.3 (0.1)
  0x000|eb                                             |.               |                            bottom_field_pic_order_in_frame_present_flag: false 0x0.3-0x0.4 (0.1)
  0x000|eb                                             |.               |                            num_slice_groups: 1 0x0.4-0x0.5 (0.1)
  0x000|eb                                             |.               |                            num_ref_idx_l0_default_active: 3 0x0.5-0x1 (0.3)
  0x000|   e3                                          | .              |                            num_ref_idx_l1_default_active: 1 0x1-0x1.1 (0.1)
  0x000|   e3                                          | .              |                            weighted_pred_flag: true 0x1.1-0x1.2 (0.1)
  0x000|   e3                                          | .              |                            weighted_bipred_idc: 2 0x1.2-0x1.4 (0.2)
  0x000|   e3 c4                                       | ..             |                            pic_init_qp: 23 0x1.4-0x2.1 (0.5)
  0x000|      c4                                       |  .             |                            pic_init_qs: 26 0x2.1-0x2.2 (0.1)
  0x000|      c4 48                                    |  .H            |                            chroma_qp_index_offset: 4 0x2.2-0x3.1 (0.7)
  0x000|         48                                    |   H            |                            deblocking_filter_control_present_flag: true 0x3.1-0x3.2 (0.1)
  0x000|         48                                    |   H            |                            constrained_intra_pred_flag: false 0x3.2-0x3.3 (0.1)
  0x000|         48                                    |   H            |                            redundant_pic_cnt_present_flag: false 0x3.3-0x3.4 (0.1)
  0x000|         48                                    |   H            |                            transform_8x8_mode_flag: true 0x3.4-0x3.5 (0.1)
  0x000|         48                                    |   H            |                            pic_scaling_matrix_present_flag: false 0x3.5-0x3.6 (0.1)
  0x000|         48 44|                                |   HD|          |                            second_chroma_qp_index_offset: 4 0x3.6-0x4.5 (0.7)
  0x000|            44|                                |    D|          |                            rbsp_trailing_bits: raw bits 0x4.5-0x5 (0.3)
0x001a0|               68                              |     h          |                          forbidden_zero_bit: false 0x1a5-0x1a5.1 (0.1)
0x001a0|               68                              |     h          |                          nal_ref_idc: 3 0x1a5.1-0x1a5.3 (0.2)
0x001a0|               68                              |     h          |                          nal_unit_type: "pps" (8) (Picture parameter set) 0x1a5.3-0x1a6 (0.5)
0x001a0|                  eb e3 c4 48 44               |      ...HD     |                          data: raw bits 0x1a6-0x1ab (5)
0x001a0|                                 ff f8 f8 00   |           .... |                    data: raw bits 0x1ab-0x1af (4)
       |                                               |                |        [4]{}: element 0x1af-0x255 (166)
0x001a0|                                             12|               .|          id: "tags" (0x1254c367) (Element containing metadata describing Tracks) 0x1af-0x1b3 (4)
0x001b0|54 c3 67                                       |T.g             |
       |                                               |                |          type: "master"
0x001b0|         40 a0                                 |   @.           |          size: 160 0x1b3-0x1b5 (2)
       |                                               |                |          elements[0:3]: 0x1b5-0x255 (160)
       |                                               |                |            [0]{}: element 0x1b5-0x1bb (6)
0x001b0|               bf                              |     .          |              id: "crc32" (0xbf) 0x1b5-0x1b6 (1)
       |                                               |                |              type: "binary"
0x001b0|                  84                           |      .         |              size: 4 0x1b6-0x1b7 (1)
0x001b0|                     00 cb 88 49               |       ...I     |              value: raw bits 0x1b7-0x1bb (4)
       |                                               |                |            [1]{}: element 0x1bb-0x1ec (49)
0x001b0|                                 73 73         |           ss   |              id: "tag" (0x7373) (A single metadata descriptor) 0x1bb-0x1bd (2)
       |                                               |                |              type: "master"
0x001b0|                                       01 00 00|             ...|              size: 39 0x1bd-0x1c5 (8)
0x001c0|00 00 00 00 27                                 |....'           |
       |                                               |                |              elements[0:2]: 0x1c5-0x1ec (39)
       |                                               |                |                [0]{}: element 0x1c5-0x1c8 (3)
0x001c0|               63 c0                           |     c.         |                  id: "targets" (0x63c0) (Specifies which other elements the metadata represented by the tag value applies to) 0x1c5-0x1c7 (2)
       |                                               |                |                  type: "master"
0x001c0|                     80                        |       .        |                  size: 0 0x1c7-0x1c8 (1)
       |                                               |                |                  elements[0:0]: 0x1c8-0x1c8 (0)
       |                                               |                |                [1]{}: element 0x1c8-0x1ec (36)
0x001c0|                        67 c8                  |        g.      |                  id: "simple_tag" (0x67c8) (Contains general information about the target) 0x1c8-0x1ca (2)
       |                                               |                |                  type: "master"
0x001c0|                              01 00 00 00 00 00|          ......|                  size: 26 0x1ca-0x1d2 (8)
0x001d0|00 1a                                          |..              |
       |                                               |                |                  elements[0:2]: 0x1d2-0x1ec (26)
       |                                               |                |                    [0]{}: element 0x1d2-0x1dc (10)
0x001d0|      45 a3                                    |  E.            |                      id: "tag_name" (0x45a3) (The name of the tag value that is going to be stored) 0x1d2-0x1d4 (2)
       |                                               |                |                      type: "utf8"
0x001d0|            87                                 |    .           |                      size: 7 0x1d4-0x1d5 (1)
0x001d0|               45 4e 43 4f 44 45 52            |     ENCODER    |                      value: "ENCODER" 0x1d5-0x1dc (7)
       |                                               |                |                    [1]{}: element 0x1dc-0x1ec (16)
0x001d0|                                    44 87      |            D.  |                      id: "tag_string" (0x4487) (The tag value) 0x1dc-0x1de (2)
       |                                               |                |                      type: "utf8"
0x001d0|                                          8d   |              . |                      size: 13 0x1de-0x1df (1)
0x001d0|                                             4c|               L|                      value: "Lavf58.45.100" 0x1df-0x1ec (13)
0x001e0|61 76 66 35 38 2e 34 35 2e 31 30 30            |avf58.45.100    |
       |                                               |                |            [2]{}: element 0x1ec-0x255 (105)
0x001e0|                                    73 73      |            ss  |              id: "tag" (0x7373) (A single metadata descriptor) 0x1ec-0x1ee (2)
       |                                               |                |              type: "master"
0x001e0|                                          01 00|              ..|              size: 95 0x1ee-0x1f6 (8)
0x001f0|00 00 00 00 00 5f                              |....._          |
       |                                               |                |              elements[0:3]: 0x1f6-0x255 (95)
       |                                               |                |                [0]{}: element 0x1f6-0x204 (14)
0x001f0|                  63 c0                        |      c.        |                  id: "targets" (0x63c0) (Specifies which other elements the metadata represented by the tag value applies to) 0x1f6-0x1f8 (2)
       |                                               |                |                  type: "master"
0x001f0|                        8b                     |        .       |                  size: 11 0x1f8-0x1f9 (1)
       |                                               |                |                  elements[0:1]: 0x1f9-0x204 (11)
       |                                               |                |                    [0]{}: element 0x1f9-0x204 (11)
0x001f0|                           63 c5               |         c.     |                      id: "tag_track_uid" (0x63c5) (A UID that identifies the Track(s) that the tags belong to) 0x1f9-0x1fb (2)
       |                                               |                |                      type: "uinteger"
0x001f0|                                 88            |           .    |                      size: 8 0x1fb-0x1fc (1)
0x001f0|                                    5c dc 49 64|            \.Id|                      value: 6691303842430154467 0x1fc-0x204 (8)
0x00200|84 41 76 e3                                    |.Av.            |
       |                                               |                |                [1]{}: element 0x204-0x230 (44)
0x00200|            67 c8                              |    g.          |                  id: "simple_tag" (0x67c8) (Contains general information about the target) 0x204-0x206 (2)
       |                                               |                |                  type: "master"
0x00200|                  01 00 00 00 00 00 00 22      |      ......."  |                  size: 34 0x206-0x20e (8)
       |                                               |                |                  elements[0:2]: 0x20e-0x230 (34)
       |                                               |                |                    [0]{}: element 0x20e-0x218 (10)
0x00200|                                          45 a3|              E.|                      id: "tag_name" (0x45a3) (The name of the tag value that is going to be stored) 0x20e-0x210 (2)
       |                                               |                |                      type: "utf8"
0x00210|87                                             |.               |                      size: 7 0x210-0x211 (1)
0x00210|   45 4e 43 4f 44 45 52                        | ENCODER        |                      value: "ENCODER" 0x211-0x218 (7)
       |                                               |                |                    [1]{}: element 0x218-0x230 (24)
0x00210|                        44 87                  |        D.      |                      id: "tag_string" (0x4487) (The tag value) 0x218-0x21a (2)
       |                                               |                |                      type: "utf8"
0x00210|                              95               |          .     |                      size: 21 0x21a-0x21b (1)
0x00210|                                 4c 61 76 63 35|           Lavc5|                      value: "Lavc58.91.100 libx264" 0x21b-0x230 (21)
0x00220|38 2e 39 31 2e 31 30 30 20 6c 69 62 78 32 36 34|8.91.100 libx264|
       |                                               |                |                [2]{}: element 0x230-0x255 (37)
0x00230|67 c8                                          |g.              |                  id: "simple_tag" (0x67c8) (Contains general information about the target) 0x230-0x232 (2)
       |                                               |                |                  type: "master"
0x00230|      a2                                       |  .             |                  size: 34 0x232-0x233 (1)
       |                                               |                |                  elements[0:2]: 0x233-0x255 (34)
       |                                               |                |                    [0]{}: element 0x233-0x23e (11)
0x00230|         45 a3                                 |   E.           |                      id: "tag_name" (0x45a3) (The name of the tag value that is going to be stored) 0x233-0x235 (2)
       |                                               |                |                      type: "utf8"
0x00230|               88                              |     .          |                      size: 8 0x235-0x236 (1)
0x00230|                  44 55 52 41 54 49 4f 4e      |      DURATION  |                      value: "DURATION" 0x236-0x23e (8)
       |                                               |                |                    [1]{}: element 0x23e-0x255 (23)
0x00230|                                          44 87|              D.|                      id: "tag_string" (0x4487) (The tag value) 0x23e-0x240 (2)
       |                                               |                |                      type: "utf8"
0x00240|94                                             |.               |                      size: 20 0x240-0x241 (1)
0x00240|   30 30 3a 30 30 3a 30 30 2e 30 34 30 30 30 30| 00:00:00.040000|                      value: "00:00:00.040000000" 0x241-0x255 (20)
0x00250|30 30 30 00 00                                 |000..           |
       |                                               |                |        [5]{}: element 0x255-0xd2b (2774)
0x00250|               1f 43 b6 75                     |     .C.u       |          id: "cluster" (0x1f43b675) (The Top-Level Element containing the (monolithic) Block structure) 0x255-0x259 (4)
       |                                               |                |          type: "master"
0x00250|                           4a d0               |         J.     |          size: 2768 0x259-0x25b (2)
       |                                               |                |          elements[0:3]: 0x25b-0xd2b (2768)
       |                                               |                |            [0]{}: element 0x25b-0x261 (6)
0x00250|                                 bf            |           .    |              id: "crc32" (0xbf) 0x25b-0x25c (1)
       |                                               |                |              type: "binary"
0x00250|                                    84         |            .   |              size: 4 0x25c-0x25d (1)
0x00250|                                       4e 31 f6|             N1.|              value: raw bits 0x25d-0x261 (4)
0x00260|0d                                             |.               |
       |                                               |                |            [1]{}: element 0x261-0x264 (3)
0x00260|   e7                                          | .              |              id: "timestamp" (0xe7) (Absolute timestamp of the cluster) 0x261-0x262 (1)
       |                                               |                |              type: "uinteger"
0x00260|      81                                       |  .             |              size: 1 0x262-0x263 (1)
0x00260|         00                                    |   .            |              value: 0 0x263-0x264 (1)
       |                                               |                |            [2]{}: element 0x264-0xd2b (2759)
0x00260|            a3                                 |    .           |              id: "simple_block" (0xa3) (Similar to Block ) but without all the extra information) 0x264-0x265 (1)
       |                                               |                |              type: "binary"
0x00260|               4a c4                           |     J.         |              size: 2756 0x265-0x267 (2)
0x00260|                     81                        |       .        |              track_number: 1 0x267-0x268 (1)
0x00260|                        00 00                  |        ..      |              timestamp: 0 0x268-0x26a (2)
       |                                               |                |              flags{}: 0x26a-0x26b (1)
0x00260|                              80               |          .     |                key_frame: true 0x26a-0x26a.1 (0.1)
0x00260|                              80               |          .     |                reserved: 0 0x26a.1-0x26a.4 (0.3)
0x00260|                              80               |          .     |                invisible: false 0x26a.4-0x26a.5 (0.1)
0x00260|                              80               |          .     |                lacing: "none" (0) 0x26a.5-0x26a.7 (0.2)
0x00260|                              80               |          .     |                discardable: false 0x26a.7-0x26b (0.1)
       |00 01 02 03 04 05 06 07 08 09 0a 0b 0c 0d 0e 0f|0123456789abcdef|              packet[0:2]: (avc_au) 0x26b-0xd2b (2752)
       |                                               |                |                [0]{}: nalu 0x26b-0x51c (689)
0x00260|                                 00 00 02 ad   |           .... |                  length: 685 0x26b-0x26f (4)
       |00 01 02 03 04 05 06 07 08 09 0a 0b 0c 0d 0e 0f|0123456789abcdef|                  nalu{}: (avc_nalu) 0x26f-0x51c (685)
       |00 01 02 03 04 05 06 07 08 09 0a 0b 0c 0d 0e 0f|0123456789abcdef|                    sei{}: (avc_sei) 0x0-0x2ac (684)
  0x000|05                                             |.               |                      payload_type: "user_data_unregistered" (5) 0x0-0x1 (1)
  0x000|   ff ff a9                                    | ...            |                      payload_size: 679 0x1-0x4 (3)
  0x000|            dc 45 e9 bd e6 d9 48 b7 96 2c d8 20|    .E....H..,. |                      uuid: "x264" (raw bits) 0x4-0x14 (16)
  0x001|d9 23 ee ef                                    |.#..            |
  0x001|            78 32 36 34 20 2d 20 63 6f 72 65 20|    x264 - core |                      data: raw bits 0x14-0x2ab (663)
  0x002|31 36 31 20 72 33 30 32 30 20 64 31 39 38 39 33|161 r3020 d19893|
  *    |until 0x2aa.7 (663)                            |                |
  0x02a|                                 80|           |           .|   |                      rbsp_trailing_bits: raw bits 0x2ab-0x2ac (1)
0x00260|                                             06|               .|                    forbidden_zero_bit: false 0x26f-0x26f.1 (0.1)
0x00260|                                             06|               .|                    nal_ref_idc: 0 0x26f.1-0x26f.3 (0.2)
0x00260|                                             06|               .|                    nal_unit_type: "sei" (6) (Supplemental enhancement information) 0x26f.3-0x270 (0.5)
0x00270|05 ff ff a9 dc 45 e9 bd e6 d9 48 b7 96 2c d8 20|.....E....H..,. |                    data: raw bits 0x270-0x51c (684)
*      |until 0x51b.7 (684)                            |                |
       |                                               |                |                [1]{}: nalu 0x51c-0xd2b (2063)
0x00510|                                    00 00 08 0b|            ....|                  length: 2059 0x51c-0x520 (4)
       |00 01 02 03 04 05 06 07 08 09 0a 0b 0c 0d 0e 0f|0123456789abcdef|                  nalu{}: (avc_nalu) 0x520-0xd2b (2059)
0x00520|65                                             |e               |                    forbidden_zero_bit: false 0x520-0x520.1 (0.1)
0x00520|65                                             |e               |                    nal_ref_idc: 3 0x520.1-0x520.3 (0.2)
0x00520|65                                             |e               |                    nal_unit_type: "idr_slice" (5) (Coded slice of an IDR picture) 0x520.3-0x521 (0.5)
       |                                               |                |                    slice_header{}: 0x521-0x522.1 (1.1)
0x00520|   88                                          | .              |                      first_mb_in_slice: 0 0x521-0x521.1 (0.1)
0x00520|   88                                          | .              |                      slice_type: "i" (7) 0x521.1-0x522 (0.7)
0x00520|      84                                       |  .             |                      pic_parameter_set_id: 0 0x522-0x522.1 (0.1)
0x00520|      84 00 2b ff fe f5 db f3 2c ac 66 67 3d ff|  ..+.....,.fg=.|                    data: raw bits 0x522.1-0xd2b (2056.7)
0x00530|ed 3b 60 00 21 74 ff c0 cf 1f fc 67 ff cd 99 a7|.;`.!t.....g....|
*      |until 0xd2a.7 (2057)                           |                |
       |                                               |                |        [6]{}: element 0xd2b-0xd47 (28)
0x00d20|                                 1c 53 bb 6b   |           .S.k |          id: "cues" (0x1c53bb6b) (A Top-Level Element to speed seeking access) 0xd2b-0xd2f (4)
       |                                               |                |          type: "master"
0x00d20|                                             97|               .|          size: 23 0xd2f-0xd30 (1)
       |                                               |                |          elements[0:2]: 0xd30-0xd47 (23)
       |                                               |                |            [0]{}: element 0xd30-0xd36 (6)
0x00d30|bf                                             |.               |              id: "crc32" (0xbf) 0xd30-0xd31 (1)
       |                                               |                |              type: "binary"
0x00d30|   84                                          | .              |              size: 4 0xd31-0xd32 (1)
0x00d30|      78 19 be 67                              |  x..g          |              value: raw bits 0xd32-0xd36 (4)
       |                                               |                |            [1]{}: element 0xd36-0xd47 (17)
0x00d30|                  bb                           |      .         |              id: "cue_point" (0xbb) (Contains all information relative to a seek point in the Segment) 0xd36-0xd37 (1)
       |                                               |                |              type: "master"
0x00d30|                     8f                        |       .        |              size: 15 0xd37-0xd38 (1)
       |                                               |                |              elements[0:2]: 0xd38-0xd47 (15)
       |                                               |                |                [0]{}: element 0xd38-0xd3b (3)
0x00d30|                        b3                     |        .       |                  id: "cue_time" (0xb3) (Absolute timestamp of the seek point) 0xd38-0xd39 (1)
       |                                               |                |                  type: "uinteger"
0x00d30|                           81                  |         .      |                  size: 1 0xd39-0xd3a (1)
0x00d30|                              00               |          .     |                  value: 0 0xd3a-0xd3b (1)
       |                                               |                |                [1]{}: element 0xd3b-0xd47 (12)
0x00d30|                                 b7            |           .    |                  id: "cue_track_positions" (0xb7) (Contains positions for different tracks corresponding to the timestamp) 0xd3b-0xd3c (1)
       |                                               |                |                  type: "master"
0x00d30|                                    8a         |            .   |                  size: 10 0xd3c-0xd3d (1)
       |                                               |                |                  elements[0:3]: 0xd3d-0xd47 (10)
       |                                               |                |                    [0]{}: element 0xd3d-0xd40 (3)
0x00d30|                                       f7      |             .  |                      id: "cue_track" (0xf7) (The track for which a position is given) 0xd3d-0xd3e (1)
       |                                               |                |                      type: "uinteger"
0x00d30|                                          81   |              . |                      size: 1 0xd3e-0xd3f (1)
0x00d30|                                             01|               .|                      value: 1 0xd3f-0xd40 (1)
       |                                               |                |                    [1]{}: element 0xd40-0xd44 (4)
0x00d40|f1                                             |.               |                      id: "cue_cluster_position" (0xf1) (The Segment Position of the Cluster containing the associated Block) 0xd40-0xd41 (1)
       |                                               |                |                      type: "uinteger"
0x00d40|   82                                          | .              |                      size: 2 0xd41-0xd42 (1)
0x00d40|      02 21                                    |  .!            |                      value: 545 0xd42-0xd44 (2)
       |                                               |                |                    [2]{}: element 0xd44-0xd47 (3)
0x00d40|            f0                                 |    .           |                      id: "cue_relative_position" (0xf0) (The relative position inside the Cluster of the referenced SimpleBlock or BlockGroup with 0 being the first possible position for an element inside that Cluster) 0xd44-0xd45 (1)
       |                                               |                |                      type: "uinteger"
0x00d40|               81                              |     .          |                      size: 1 0xd45-0xd46 (1)
0x00d40|                  09|                          |      .|        |                      value: 9 0xd46-0xd47 (1)
