# pipe to produce segment master with unknown size
# ffmpeg -f lavfi -i sine -t 10ms -f matroska pipe:1 > unknown_size.mkv
$ fq -o decode_samples=false dv unknown_size.mkv
     |00 01 02 03 04 05 06 07 08 09 0a 0b 0c 0d 0e 0f|0123456789abcdef|.{}: unknown_size.mkv (matroska) 0x0-0xf7f.7 (3968)
     |                                               |                |  elements[0:2]: 0x0-0xf7f.7 (3968)
     |                                               |                |    [0]{}: element 0x0-0x27.7 (40)
0x000|1a 45 df a3                                    |.E..            |      id: "ebml" (0x1a45dfa3) 0x0-0x3.7 (4)
     |                                               |                |      type: "master" 0x4-NA (0)
0x000|            a3                                 |    .           |      size: 35 0x4-0x4.7 (1)
     |                                               |                |      elements[0:7]: 0x5-0x27.7 (35)
     |                                               |                |        [0]{}: element 0x5-0x8.7 (4)
0x000|               42 86                           |     B.         |          id: "ebml_version" (0x4286) (EBML Version) 0x5-0x6.7 (2)
     |                                               |                |          type: "uinteger" 0x7-NA (0)
0x000|                     81                        |       .        |          size: 1 0x7-0x7.7 (1)
0x000|                        01                     |        .       |          value: 1 0x8-0x8.7 (1)
     |                                               |                |        [1]{}: element 0x9-0xc.7 (4)
0x000|                           42 f7               |         B.     |          id: "ebml_read_version" (0x42f7) (Minimum EBML reader version) 0x9-0xa.7 (2)
     |                                               |                |          type: "uinteger" 0xb-NA (0)
0x000|                                 81            |           .    |          size: 1 0xb-0xb.7 (1)
0x000|                                    01         |            .   |          value: 1 0xc-0xc.7 (1)
     |                                               |                |        [2]{}: element 0xd-0x10.7 (4)
0x000|                                       42 f2   |             B. |          id: "ebml_max_id_length" (0x42f2) (Maximum id length) 0xd-0xe.7 (2)
     |                                               |                |          type: "uinteger" 0xf-NA (0)
0x000|                                             81|               .|          size: 1 0xf-0xf.7 (1)
0x010|04                                             |.               |          value: 4 0x10-0x10.7 (1)
     |                                               |                |        [3]{}: element 0x11-0x14.7 (4)
0x010|   42 f3                                       | B.             |          id: "ebml_max_size_length" (0x42f3) (Maximum body length) 0x11-0x12.7 (2)
     |                                               |                |          type: "uinteger" 0x13-NA (0)
0x010|         81                                    |   .            |          size: 1 0x13-0x13.7 (1)
0x010|            08                                 |    .           |          value: 8 0x14-0x14.7 (1)
     |                                               |                |        [4]{}: element 0x15-0x1f.7 (11)
0x010|               42 82                           |     B.         |          id: "doc_type" (0x4282) (Document content type) 0x15-0x16.7 (2)
     |                                               |                |          type: "string" 0x17-NA (0)
0x010|                     88                        |       .        |          size: 8 0x17-0x17.7 (1)
0x010|                        6d 61 74 72 6f 73 6b 61|        matroska|          value: "matroska" 0x18-0x1f.7 (8)
     |                                               |                |        [5]{}: element 0x20-0x23.7 (4)
0x020|42 87                                          |B.              |          id: "doc_type_version" (0x4287) (Document type version) 0x20-0x21.7 (2)
     |                                               |                |          type: "uinteger" 0x22-NA (0)
0x020|      81                                       |  .             |          size: 1 0x22-0x22.7 (1)
0x020|         04                                    |   .            |          value: 4 0x23-0x23.7 (1)
     |                                               |                |        [6]{}: element 0x24-0x27.7 (4)
0x020|            42 85                              |    B.          |          id: "doc_type_read_version" (0x4285) (Minimum document reader version) 0x24-0x25.7 (2)
     |                                               |                |          type: "uinteger" 0x26-NA (0)
0x020|                  81                           |      .         |          size: 1 0x26-0x26.7 (1)
0x020|                     02                        |       .        |          value: 2 0x27-0x27.7 (1)
     |                                               |                |    [1]{}: element 0x28-0xf7f.7 (3928)
0x020|                        18 53 80 67            |        .S.g    |      id: "segment" (0x18538067) (The Root Element that contains all other Top-Level Elements) 0x28-0x2b.7 (4)
     |                                               |                |      type: "master" 0x2c-NA (0)
0x020|                                    01 ff ff ff|            ....|      size: 72057594037927935 (Unknown size) 0x2c-0x33.7 (8)
0x030|ff ff ff ff                                    |....            |
     |                                               |                |      elements[0:6]: 0x34-0xf7f.7 (3916)
     |                                               |                |        [0]{}: element 0x34-0x69.7 (54)
0x030|            11 4d 9b 74                        |    .M.t        |          id: "seek_head" (0x114d9b74) (Contains seeking information of Top-Level Elements) 0x34-0x37.7 (4)
     |                                               |                |          type: "master" 0x38-NA (0)
0x030|                        b1                     |        .       |          size: 49 0x38-0x38.7 (1)
     |                                               |                |          elements[0:4]: 0x39-0x69.7 (49)
     |                                               |                |            [0]{}: element 0x39-0x3e.7 (6)
0x030|                           bf                  |         .      |              id: "crc32" (0xbf) 0x39-0x39.7 (1)
     |                                               |                |              type: "binary" 0x3a-NA (0)
0x030|                              84               |          .     |              size: 4 0x3a-0x3a.7 (1)
0x030|                                 12 50 d3 e9   |           .P.. |              value: raw bits 0x3b-0x3e.7 (4)
     |                                               |                |            [1]{}: element 0x3f-0x4c.7 (14)
0x030|                                             4d|               M|              id: "seek" (0x4dbb) (Contains a single seek entry to an EBML Element) 0x3f-0x40.7 (2)
0x040|bb                                             |.               |
     |                                               |                |              type: "master" 0x41-NA (0)
0x040|   8b                                          | .              |              size: 11 0x41-0x41.7 (1)
     |                                               |                |              elements[0:2]: 0x42-0x4c.7 (11)
     |                                               |                |                [0]{}: element 0x42-0x48.7 (7)
0x040|      53 ab                                    |  S.            |                  id: "seek_id" (0x53ab) (The binary EBML ID of a Top-Level Element) 0x42-0x43.7 (2)
     |                                               |                |                  type: "binary" 0x44-NA (0)
0x040|            84                                 |    .           |                  size: 4 0x44-0x44.7 (1)
0x040|               15 49 a9 66                     |     .I.f       |                  value: raw bits 0x45-0x48.7 (4)
     |                                               |                |                [1]{}: element 0x49-0x4c.7 (4)
0x040|                           53 ac               |         S.     |                  id: "seek_position" (0x53ac) (The Segment Position of a Top-Level Element) 0x49-0x4a.7 (2)
     |                                               |                |                  type: "uinteger" 0x4b-NA (0)
0x040|                                 81            |           .    |                  size: 1 0x4b-0x4b.7 (1)
0x040|                                    a1         |            .   |                  value: 161 0x4c-0x4c.7 (1)
     |                                               |                |            [2]{}: element 0x4d-0x5a.7 (14)
0x040|                                       4d bb   |             M. |              id: "seek" (0x4dbb) (Contains a single seek entry to an EBML Element) 0x4d-0x4e.7 (2)
     |                                               |                |              type: "master" 0x4f-NA (0)
0x040|                                             8b|               .|              size: 11 0x4f-0x4f.7 (1)
     |                                               |                |              elements[0:2]: 0x50-0x5a.7 (11)
     |                                               |                |                [0]{}: element 0x50-0x56.7 (7)
0x050|53 ab                                          |S.              |                  id: "seek_id" (0x53ab) (The binary EBML ID of a Top-Level Element) 0x50-0x51.7 (2)
     |                                               |                |                  type: "binary" 0x52-NA (0)
0x050|      84                                       |  .             |                  size: 4 0x52-0x52.7 (1)
0x050|         16 54 ae 6b                           |   .T.k         |                  value: raw bits 0x53-0x56.7 (4)
     |                                               |                |                [1]{}: element 0x57-0x5a.7 (4)
0x050|                     53 ac                     |       S.       |                  id: "seek_position" (0x53ac) (The Segment Position of a Top-Level Element) 0x57-0x58.7 (2)
     |                                               |                |                  type: "uinteger" 0x59-NA (0)
0x050|                           81                  |         .      |                  size: 1 0x59-0x59.7 (1)
0x050|                              f1               |          .     |                  value: 241 0x5a-0x5a.7 (1)
     |                                               |                |            [3]{}: element 0x5b-0x69.7 (15)
0x050|                                 4d bb         |           M.   |              id: "seek" (0x4dbb) (Contains a single seek entry to an EBML Element) 0x5b-0x5c.7 (2)
     |                                               |                |              type: "master" 0x5d-NA (0)
0x050|                                       8c      |             .  |              size: 12 0x5d-0x5d.7 (1)
     |                                               |                |              elements[0:2]: 0x5e-0x69.7 (12)
     |                                               |                |                [0]{}: element 0x5e-0x64.7 (7)
0x050|                                          53 ab|              S.|                  id: "seek_id" (0x53ab) (The binary EBML ID of a Top-Level Element) 0x5e-0x5f.7 (2)
     |                                               |                |                  type: "binary" 0x60-NA (0)
0x060|84                                             |.               |                  size: 4 0x60-0x60.7 (1)
0x060|   12 54 c3 67                                 | .T.g           |                  value: raw bits 0x61-0x64.7 (4)
     |                                               |                |                [1]{}: element 0x65-0x69.7 (5)
0x060|               53 ac                           |     S.         |                  id: "seek_position" (0x53ac) (The Segment Position of a Top-Level Element) 0x65-0x66.7 (2)
     |                                               |                |                  type: "uinteger" 0x67-NA (0)
0x060|                     82                        |       .        |                  size: 2 0x67-0x67.7 (1)
0x060|                        0e 38                  |        .8      |                  value: 3640 0x68-0x69.7 (2)
     |                                               |                |        [1]{}: element 0x6a-0xd4.7 (107)
0x060|                              ec               |          .     |          id: "void" (0xec) 0x6a-0x6a.7 (1)
     |                                               |                |          type: "binary" 0x6b-NA (0)
0x060|                                 01 00 00 00 00|           .....|          size: 98 0x6b-0x72.7 (8)
0x070|00 00 62                                       |..b             |
0x070|         00 00 00 00 00 00 00 00 00 00 00 00 00|   .............|          value: raw bits 0x73-0xd4.7 (98)
0x080|00 00 00 00 00 00 00 00 00 00 00 00 00 00 00 00|................|
*    |until 0xd4.7 (98)                              |                |
     |                                               |                |        [2]{}: element 0xd5-0x124.7 (80)
0x0d0|               15 49 a9 66                     |     .I.f       |          id: "info" (0x1549a966) (Contains general information about the Segment) 0xd5-0xd8.7 (4)
     |                                               |                |          type: "master" 0xd9-NA (0)
0x0d0|                           cb                  |         .      |          size: 75 0xd9-0xd9.7 (1)
     |                                               |                |          elements[0:6]: 0xda-0x124.7 (75)
     |                                               |                |            [0]{}: element 0xda-0xdf.7 (6)
0x0d0|                              bf               |          .     |              id: "crc32" (0xbf) 0xda-0xda.7 (1)
     |                                               |                |              type: "binary" 0xdb-NA (0)
0x0d0|                                 84            |           .    |              size: 4 0xdb-0xdb.7 (1)
0x0d0|                                    79 a8 4a 72|            y.Jr|              value: raw bits 0xdc-0xdf.7 (4)
     |                                               |                |            [1]{}: element 0xe0-0xe6.7 (7)
0x0e0|2a d7 b1                                       |*..             |              id: "timestamp_scale" (0x2ad7b1) (Base unit for Segment Ticks and Track Ticks) 0xe0-0xe2.7 (3)
     |                                               |                |              type: "uinteger" 0xe3-NA (0)
0x0e0|         83                                    |   .            |              size: 3 0xe3-0xe3.7 (1)
0x0e0|            0f 42 40                           |    .B@         |              value: 1000000 0xe4-0xe6.7 (3)
     |                                               |                |            [2]{}: element 0xe7-0xf6.7 (16)
0x0e0|                     4d 80                     |       M.       |              id: "muxing_app" (0x4d80) (Muxing application or library) 0xe7-0xe8.7 (2)
     |                                               |                |              type: "utf8" 0xe9-NA (0)
0x0e0|                           8d                  |         .      |              size: 13 0xe9-0xe9.7 (1)
0x0e0|                              4c 61 76 66 35 39|          Lavf59|              value: "Lavf59.27.100" 0xea-0xf6.7 (13)
0x0f0|2e 32 37 2e 31 30 30                           |.27.100         |
     |                                               |                |            [3]{}: element 0xf7-0x106.7 (16)
0x0f0|                     57 41                     |       WA       |              id: "writing_app" (0x5741) (Writing application) 0xf7-0xf8.7 (2)
     |                                               |                |              type: "utf8" 0xf9-NA (0)
0x0f0|                           8d                  |         .      |              size: 13 0xf9-0xf9.7 (1)
0x0f0|                              4c 61 76 66 35 39|          Lavf59|              value: "Lavf59.27.100" 0xfa-0x106.7 (13)
0x100|2e 32 37 2e 31 30 30                           |.27.100         |
     |                                               |                |            [4]{}: element 0x107-0x119.7 (19)
0x100|                     73 a4                     |       s.       |              id: "segment_uuid" (0x73a4) (A randomly generated unique ID to identify the Segment amongst many others chosen) 0x107-0x108.7 (2)
     |                                               |                |              type: "binary" 0x109-NA (0)
0x100|                           90                  |         .      |              size: 16 0x109-0x109.7 (1)
0x100|                              9c a2 35 00 05 c2|          ..5...|              value: raw bits 0x10a-0x119.7 (16)
0x110|9b b7 3d e5 6a 0f 41 2c 4f 04                  |..=.j.A,O.      |
     |                                               |                |            [5]{}: element 0x11a-0x124.7 (11)
0x110|                              44 89            |          D.    |              id: "duration" (0x4489) (Duration of the Segment) 0x11a-0x11b.7 (2)
     |                                               |                |              type: "float" 0x11c-NA (0)
0x110|                                    88         |            .   |              size: 8 0x11c-0x11c.7 (1)
0x110|                                       40 24 00|             @$.|              value: 10 0x11d-0x124.7 (8)
0x120|00 00 00 00 00                                 |.....           |
     |                                               |                |        [3]{}: element 0x125-0xe6b.7 (3399)
0x120|               16 54 ae 6b                     |     .T.k       |          id: "tracks" (0x1654ae6b) (A Top-Level Element of information with many tracks described) 0x125-0x128.7 (4)
     |                                               |                |          type: "master" 0x129-NA (0)
0x120|                           4d 41               |         MA     |          size: 3393 0x129-0x12a.7 (2)
     |                                               |                |          elements[0:2]: 0x12b-0xe6b.7 (3393)
     |                                               |                |            [0]{}: element 0x12b-0x130.7 (6)
0x120|                                 bf            |           .    |              id: "crc32" (0xbf) 0x12b-0x12b.7 (1)
     |                                               |                |              type: "binary" 0x12c-NA (0)
0x120|                                    84         |            .   |              size: 4 0x12c-0x12c.7 (1)
0x120|                                       01 46 1f|             .F.|              value: raw bits 0x12d-0x130.7 (4)
0x130|75                                             |u               |
     |                                               |                |            [1]{}: element 0x131-0xe6b.7 (3387)
0x130|   ae                                          | .              |              id: "track_entry" (0xae) (Describes a track with all Elements) 0x131-0x131.7 (1)
     |                                               |                |              type: "master" 0x132-NA (0)
0x130|      01 00 00 00 00 00 0d 32                  |  .......2      |              size: 3378 0x132-0x139.7 (8)
     |                                               |                |              elements[0:9]: 0x13a-0xe6b.7 (3378)
     |                                               |                |                [0]{}: element 0x13a-0x13c.7 (3)
0x130|                              d7               |          .     |                  id: "track_number" (0xd7) (The track number as used in the Block Header) 0x13a-0x13a.7 (1)
     |                                               |                |                  type: "uinteger" 0x13b-NA (0)
0x130|                                 81            |           .    |                  size: 1 0x13b-0x13b.7 (1)
0x130|                                    01         |            .   |                  value: 1 0x13c-0x13c.7 (1)
     |                                               |                |                [1]{}: element 0x13d-0x147.7 (11)
0x130|                                       73 c5   |             s. |                  id: "track_uid" (0x73c5) (A unique ID to identify the Track) 0x13d-0x13e.7 (2)
     |                                               |                |                  type: "uinteger" 0x13f-NA (0)
0x130|                                             88|               .|                  size: 8 0x13f-0x13f.7 (1)
0x140|83 ed 1e ef a4 bf 74 c6                        |......t.        |                  value: 9506288403059012806 0x140-0x147.7 (8)
     |                                               |                |                [2]{}: element 0x148-0x14a.7 (3)
0x140|                        9c                     |        .       |                  id: "flag_lacing" (0x9c) (Set to 1 if the track **MAY** contain blocks using lacing) 0x148-0x148.7 (1)
     |                                               |                |                  type: "uinteger" 0x149-NA (0)
0x140|                           81                  |         .      |                  size: 1 0x149-0x149.7 (1)
0x140|                              00               |          .     |                  value: 0 0x14a-0x14a.7 (1)
     |                                               |                |                [3]{}: element 0x14b-0x151.7 (7)
0x140|                                 22 b5 9c      |           "..  |                  id: "language" (0x22b59c) (The language of the track) 0x14b-0x14d.7 (3)
     |                                               |                |                  type: "string" 0x14e-NA (0)
0x140|                                          83   |              . |                  size: 3 0x14e-0x14e.7 (1)
0x140|                                             75|               u|                  value: "und" 0x14f-0x151.7 (3)
0x150|6e 64                                          |nd              |
     |                                               |                |                [4]{}: element 0x152-0x154.7 (3)
0x150|      88                                       |  .             |                  id: "flag_default" (0x88) (Set if that track is eligible for automatic selection by the player) 0x152-0x152.7 (1)
     |                                               |                |                  type: "uinteger" 0x153-NA (0)
0x150|         81                                    |   .            |                  size: 1 0x153-0x153.7 (1)
0x150|            00                                 |    .           |                  value: 0 0x154-0x154.7 (1)
     |                                               |                |                [5]{}: element 0x155-0x15e.7 (10)
0x150|               86                              |     .          |                  id: "codec_id" (0x86) (An ID corresponding to the codec) 0x155-0x155.7 (1)
     |                                               |                |                  type: "string" 0x156-NA (0)
0x150|                  88                           |      .         |                  size: 8 0x156-0x156.7 (1)
0x150|                     41 5f 56 4f 52 42 49 53   |       A_VORBIS |                  value: "A_VORBIS" 0x157-0x15e.7 (8)
     |                                               |                |                [6]{}: element 0x15f-0x161.7 (3)
0x150|                                             83|               .|                  id: "track_type" (0x83) (The TrackType defines the type of each frame found in the Track) 0x15f-0x15f.7 (1)
     |                                               |                |                  type: "uinteger" 0x160-NA (0)
0x160|81                                             |.               |                  size: 1 0x160-0x160.7 (1)
0x160|   02                                          | .              |                  value: "audio" (2) (Audio samples) 0x161-0x161.7 (1)
     |                                               |                |                [7]{}: element 0x162-0x174.7 (19)
0x160|      e1                                       |  .             |                  id: "audio" (0xe1) (Audio settings) 0x162-0x162.7 (1)
     |                                               |                |                  type: "master" 0x163-NA (0)
0x160|         91                                    |   .            |                  size: 17 0x163-0x163.7 (1)
     |                                               |                |                  elements[0:3]: 0x164-0x174.7 (17)
     |                                               |                |                    [0]{}: element 0x164-0x166.7 (3)
0x160|            9f                                 |    .           |                      id: "channels" (0x9f) (Numbers of channels in the track) 0x164-0x164.7 (1)
     |                                               |                |                      type: "uinteger" 0x165-NA (0)
0x160|               81                              |     .          |                      size: 1 0x165-0x165.7 (1)
0x160|                  01                           |      .         |                      value: 1 0x166-0x166.7 (1)
     |                                               |                |                    [1]{}: element 0x167-0x170.7 (10)
0x160|                     b5                        |       .        |                      id: "sampling_frequency" (0xb5) (Sampling frequency in Hz) 0x167-0x167.7 (1)
     |                                               |                |                      type: "float" 0x168-NA (0)
0x160|                        88                     |        .       |                      size: 8 0x168-0x168.7 (1)
0x160|                           40 e5 88 80 00 00 00|         @......|                      value: 44100 0x169-0x170.7 (8)
0x170|00                                             |.               |
     |                                               |                |                    [2]{}: element 0x171-0x174.7 (4)
0x170|   62 64                                       | bd             |                      id: "bit_depth" (0x6264) (Bits per sample) 0x171-0x172.7 (2)
     |                                               |                |                      type: "uinteger" 0x173-NA (0)
0x170|         81                                    |   .            |                      size: 1 0x173-0x173.7 (1)
0x170|            20                                 |                |                      value: 32 0x174-0x174.7 (1)
     |                                               |                |                [8]{}: element 0x175-0xe6b.7 (3319)
0x170|               63 a2                           |     c.         |                  id: "codec_private" (0x63a2) (Private data only known to the codec) 0x175-0x176.7 (2)
     |                                               |                |                  type: "binary" 0x177-NA (0)
0x170|                     4c f3                     |       L.       |                  size: 3315 0x177-0x178.7 (2)
0x170|                           02                  |         .      |                  num_laces: 2 0x179-0x179.7 (1)
     |                                               |                |                  lace_sizes[0:2]: 0x17a-0x17b.7 (2)
0x170|                              1e               |          .     |                    [0]: 30 lace_size 0x17a-0x17a.7 (1)
0x170|                                 5d            |           ]    |                    [1]: 93 lace_size 0x17b-0x17b.7 (1)
     |                                               |                |                  laces[0:3]: 0x17c-0xe6b.7 (3312)
0x170|                                    01 76 6f 72|            .vor|                    [0]: raw bits packet 0x17c-0x199.7 (30)
0x180|62 69 73 00 00 00 00 01 44 ac 00 00 00 00 00 00|bis.....D.......|
0x190|80 38 01 00 00 00 00 00 b8 01                  |.8........      |
0x190|                              03 76 6f 72 62 69|          .vorbi|                    [1]: raw bits packet 0x19a-0x1f6.7 (93)
0x1a0|73 34 00 00 00 58 69 70 68 2e 4f 72 67 20 6c 69|s4...Xiph.Org li|
*    |until 0x1f6.7 (93)                             |                |
0x1f0|                     05 76 6f 72 62 69 73 22 42|       .vorbis"B|                    [2]: raw bits packet 0x1f7-0xe6b.7 (3189)
0x200|43 56 01 00 40 00 00 24 73 18 2a 46 a5 73 16 84|CV..@..$s.*F.s..|
*    |until 0xe6b.7 (3189)                           |                |
     |                                               |                |        [4]{}: element 0xe6c-0xed1.7 (102)
0xe60|                                    12 54 c3 67|            .T.g|          id: "tags" (0x1254c367) (Element containing metadata describing Tracks) 0xe6c-0xe6f.7 (4)
     |                                               |                |          type: "master" 0xe70-NA (0)
0xe70|e1                                             |.               |          size: 97 0xe70-0xe70.7 (1)
     |                                               |                |          elements[0:3]: 0xe71-0xed1.7 (97)
     |                                               |                |            [0]{}: element 0xe71-0xe76.7 (6)
0xe70|   bf                                          | .              |              id: "crc32" (0xbf) 0xe71-0xe71.7 (1)
     |                                               |                |              type: "binary" 0xe72-NA (0)
0xe70|      84                                       |  .             |              size: 4 0xe72-0xe72.7 (1)
0xe70|         c4 60 4b b8                           |   .`K.         |              value: raw bits 0xe73-0xe76.7 (4)
     |                                               |                |            [1]{}: element 0xe77-0xe99.7 (35)
0xe70|                     73 73                     |       ss       |              id: "tag" (0x7373) (A single metadata descriptor) 0xe77-0xe78.7 (2)
     |                                               |                |              type: "master" 0xe79-NA (0)
0xe70|                           a0                  |         .      |              size: 32 0xe79-0xe79.7 (1)
     |                                               |                |              elements[0:2]: 0xe7a-0xe99.7 (32)
     |                                               |                |                [0]{}: element 0xe7a-0xe7c.7 (3)
0xe70|                              63 c0            |          c.    |                  id: "targets" (0x63c0) (Specifies which other elements the metadata represented by the Tag applies to) 0xe7a-0xe7b.7 (2)
     |                                               |                |                  type: "master" 0xe7c-NA (0)
0xe70|                                    80         |            .   |                  size: 0 0xe7c-0xe7c.7 (1)
     |                                               |                |                  elements[0:0]: 0xe7d-NA (0)
     |                                               |                |                [1]{}: element 0xe7d-0xe99.7 (29)
0xe70|                                       67 c8   |             g. |                  id: "simple_tag" (0x67c8) (Contains general information about the target) 0xe7d-0xe7e.7 (2)
     |                                               |                |                  type: "master" 0xe7f-NA (0)
0xe70|                                             9a|               .|                  size: 26 0xe7f-0xe7f.7 (1)
     |                                               |                |                  elements[0:2]: 0xe80-0xe99.7 (26)
     |                                               |                |                    [0]{}: element 0xe80-0xe89.7 (10)
0xe80|45 a3                                          |E.              |                      id: "tag_name" (0x45a3) (The name of the Tag that is going to be stored) 0xe80-0xe81.7 (2)
     |                                               |                |                      type: "utf8" 0xe82-NA (0)
0xe80|      87                                       |  .             |                      size: 7 0xe82-0xe82.7 (1)
0xe80|         45 4e 43 4f 44 45 52                  |   ENCODER      |                      value: "ENCODER" 0xe83-0xe89.7 (7)
     |                                               |                |                    [1]{}: element 0xe8a-0xe99.7 (16)
0xe80|                              44 87            |          D.    |                      id: "tag_string" (0x4487) (The value of the Tag) 0xe8a-0xe8b.7 (2)
     |                                               |                |                      type: "utf8" 0xe8c-NA (0)
0xe80|                                    8d         |            .   |                      size: 13 0xe8c-0xe8c.7 (1)
0xe80|                                       4c 61 76|             Lav|                      value: "Lavf59.27.100" 0xe8d-0xe99.7 (13)
0xe90|66 35 39 2e 32 37 2e 31 30 30                  |f59.27.100      |
     |                                               |                |            [2]{}: element 0xe9a-0xed1.7 (56)
0xe90|                              73 73            |          ss    |              id: "tag" (0x7373) (A single metadata descriptor) 0xe9a-0xe9b.7 (2)
     |                                               |                |              type: "master" 0xe9c-NA (0)
0xe90|                                    b5         |            .   |              size: 53 0xe9c-0xe9c.7 (1)
     |                                               |                |              elements[0:2]: 0xe9d-0xed1.7 (53)
     |                                               |                |                [0]{}: element 0xe9d-0xeaa.7 (14)
0xe90|                                       63 c0   |             c. |                  id: "targets" (0x63c0) (Specifies which other elements the metadata represented by the Tag applies to) 0xe9d-0xe9e.7 (2)
     |                                               |                |                  type: "master" 0xe9f-NA (0)
0xe90|                                             8b|               .|                  size: 11 0xe9f-0xe9f.7 (1)
     |                                               |                |                  elements[0:1]: 0xea0-0xeaa.7 (11)
     |                                               |                |                    [0]{}: element 0xea0-0xeaa.7 (11)
0xea0|63 c5                                          |c.              |                      id: "tag_track_uid" (0x63c5) (A unique ID to identify the Track(s) the tags belong to) 0xea0-0xea1.7 (2)
     |                                               |                |                      type: "uinteger" 0xea2-NA (0)
0xea0|      88                                       |  .             |                      size: 8 0xea2-0xea2.7 (1)
0xea0|         83 ed 1e ef a4 bf 74 c6               |   ......t.     |                      value: 9506288403059012806 0xea3-0xeaa.7 (8)
     |                                               |                |                [1]{}: element 0xeab-0xed1.7 (39)
0xea0|                                 67 c8         |           g.   |                  id: "simple_tag" (0x67c8) (Contains general information about the target) 0xeab-0xeac.7 (2)
     |                                               |                |                  type: "master" 0xead-NA (0)
0xea0|                                       a4      |             .  |                  size: 36 0xead-0xead.7 (1)
     |                                               |                |                  elements[0:2]: 0xeae-0xed1.7 (36)
     |                                               |                |                    [0]{}: element 0xeae-0xeb7.7 (10)
0xea0|                                          45 a3|              E.|                      id: "tag_name" (0x45a3) (The name of the Tag that is going to be stored) 0xeae-0xeaf.7 (2)
     |                                               |                |                      type: "utf8" 0xeb0-NA (0)
0xeb0|87                                             |.               |                      size: 7 0xeb0-0xeb0.7 (1)
0xeb0|   45 4e 43 4f 44 45 52                        | ENCODER        |                      value: "ENCODER" 0xeb1-0xeb7.7 (7)
     |                                               |                |                    [1]{}: element 0xeb8-0xed1.7 (26)
0xeb0|                        44 87                  |        D.      |                      id: "tag_string" (0x4487) (The value of the Tag) 0xeb8-0xeb9.7 (2)
     |                                               |                |                      type: "utf8" 0xeba-NA (0)
0xeb0|                              97               |          .     |                      size: 23 0xeba-0xeba.7 (1)
0xeb0|                                 4c 61 76 63 35|           Lavc5|                      value: "Lavc59.37.100 libvorbis" 0xebb-0xed1.7 (23)
0xec0|39 2e 33 37 2e 31 30 30 20 6c 69 62 76 6f 72 62|9.37.100 libvorb|
0xed0|69 73                                          |is              |
     |                                               |                |        [5]{}: element 0xed2-0xf7f.7 (174)
0xed0|      1f 43 b6 75                              |  .C.u          |          id: "cluster" (0x1f43b675) (The Top-Level Element containing the (monolithic) Block structure) 0xed2-0xed5.7 (4)
     |                                               |                |          type: "master" 0xed6-NA (0)
0xed0|                  40 a8                        |      @.        |          size: 168 0xed6-0xed7.7 (2)
     |                                               |                |          elements[0:4]: 0xed8-0xf7f.7 (168)
     |                                               |                |            [0]{}: element 0xed8-0xedd.7 (6)
0xed0|                        bf                     |        .       |              id: "crc32" (0xbf) 0xed8-0xed8.7 (1)
     |                                               |                |              type: "binary" 0xed9-NA (0)
0xed0|                           84                  |         .      |              size: 4 0xed9-0xed9.7 (1)
0xed0|                              90 53 55 02      |          .SU.  |              value: raw bits 0xeda-0xedd.7 (4)
     |                                               |                |            [1]{}: element 0xede-0xee0.7 (3)
0xed0|                                          e7   |              . |              id: "timestamp" (0xe7) (Absolute timestamp of the cluster) 0xede-0xede.7 (1)
     |                                               |                |              type: "uinteger" 0xedf-NA (0)
0xed0|                                             81|               .|              size: 1 0xedf-0xedf.7 (1)
0xee0|00                                             |.               |              value: 0 0xee0-0xee0.7 (1)
     |                                               |                |            [2]{}: element 0xee1-0xf07.7 (39)
0xee0|   a3                                          | .              |              id: "simple_block" (0xa3) (Similar to Block) 0xee1-0xee1.7 (1)
     |                                               |                |              type: "binary" 0xee2-NA (0)
0xee0|      a5                                       |  .             |              size: 37 0xee2-0xee2.7 (1)
0xee0|         81                                    |   .            |              track_number: 1 0xee3-0xee3.7 (1)
0xee0|            00 00                              |    ..          |              timestamp: 0 0xee4-0xee5.7 (2)
     |                                               |                |              flags{}: 0xee6-0xee6.7 (1)
0xee0|                  80                           |      .         |                key_frame: true 0xee6-0xee6 (0.1)
0xee0|                  80                           |      .         |                reserved: 0 0xee6.1-0xee6.3 (0.3)
0xee0|                  80                           |      .         |                invisible: false 0xee6.4-0xee6.4 (0.1)
0xee0|                  80                           |      .         |                lacing: "none" (0) 0xee6.5-0xee6.6 (0.2)
0xee0|                  80                           |      .         |                discardable: false 0xee6.7-0xee6.7 (0.1)
0xee0|                     54 dd cb ce aa 5e d8 7f 2d|       T....^..-|              packet: raw bits 0xee7-0xf07.7 (33)
0xef0|01 42 00 a0 dd 71 77 8b ed cd 37 df 7c 33 3a 0c|.B...qw...7.|3:.|
0xf00|c3 30 0c c3 30 d4 50 02                        |.0..0.P.        |
     |                                               |                |            [3]{}: element 0xf08-0xf7f.7 (120)
0xf00|                        a3                     |        .       |              id: "simple_block" (0xa3) (Similar to Block) 0xf08-0xf08.7 (1)
     |                                               |                |              type: "binary" 0xf09-NA (0)
0xf00|                           f6                  |         .      |              size: 118 0xf09-0xf09.7 (1)
0xf00|                              81               |          .     |              track_number: 1 0xf0a-0xf0a.7 (1)
0xf00|                                 00 03         |           ..   |              timestamp: 3 0xf0b-0xf0c.7 (2)
     |                                               |                |              flags{}: 0xf0d-0xf0d.7 (1)
0xf00|                                       80      |             .  |                key_frame: true 0xf0d-0xf0d (0.1)
0xf00|                                       80      |             .  |                reserved: 0 0xf0d.1-0xf0d.3 (0.3)
0xf00|                                       80      |             .  |                invisible: false 0xf0d.4-0xf0d.4 (0.1)
0xf00|                                       80      |             .  |                lacing: "none" (0) 0xf0d.5-0xf0d.6 (0.2)
0xf00|                                       80      |             .  |                discardable: false 0xf0d.7-0xf0d.7 (0.1)
0xf00|                                          7a 78|              zx|              packet: raw bits 0xf0e-0xf7f.7 (114)
0xf10|bd 0d bf 7d ff 5f 00 3b 54 b0 f7 fc f4 fb fd bc|...}._.;T.......|
*    |until 0xf7f.7 (end) (114)                      |                |
