# ffmpeg -f lavfi -i sine -ac 2 -strict experimental -c:a vorbis -f matroska -t 50ms vorbis.mkv
$ fq -d matroska dv vorbis.mkv
      |00 01 02 03 04 05 06 07 08 09 0a 0b 0c 0d 0e 0f|0123456789abcdef|.{}: vorbis.mkv (matroska) 0x0-0x10fb (4347)
      |                                               |                |  elements[0:2]: 0x0-0x10fb (4347)
      |                                               |                |    [0]{}: element 0x0-0x28 (40)
0x0000|1a 45 df a3                                    |.E..            |      id: "ebml" (0x1a45dfa3) 0x0-0x4 (4)
      |                                               |                |      type: "master"
0x0000|            a3                                 |    .           |      size: 35 0x4-0x5 (1)
      |                                               |                |      elements[0:7]: 0x5-0x28 (35)
      |                                               |                |        [0]{}: element 0x5-0x9 (4)
0x0000|               42 86                           |     B.         |          id: "ebml_version" (0x4286) (EBML Version) 0x5-0x7 (2)
      |                                               |                |          type: "uinteger"
0x0000|                     81                        |       .        |          size: 1 0x7-0x8 (1)
0x0000|                        01                     |        .       |          value: 1 0x8-0x9 (1)
      |                                               |                |        [1]{}: element 0x9-0xd (4)
0x0000|                           42 f7               |         B.     |          id: "ebml_read_version" (0x42f7) (Minimum EBML reader version) 0x9-0xb (2)
      |                                               |                |          type: "uinteger"
0x0000|                                 81            |           .    |          size: 1 0xb-0xc (1)
0x0000|                                    01         |            .   |          value: 1 0xc-0xd (1)
      |                                               |                |        [2]{}: element 0xd-0x11 (4)
0x0000|                                       42 f2   |             B. |          id: "ebml_max_id_length" (0x42f2) (Maximum id length) 0xd-0xf (2)
      |                                               |                |          type: "uinteger"
0x0000|                                             81|               .|          size: 1 0xf-0x10 (1)
0x0010|04                                             |.               |          value: 4 0x10-0x11 (1)
      |                                               |                |        [3]{}: element 0x11-0x15 (4)
0x0010|   42 f3                                       | B.             |          id: "ebml_max_size_length" (0x42f3) (Maximum body length) 0x11-0x13 (2)
      |                                               |                |          type: "uinteger"
0x0010|         81                                    |   .            |          size: 1 0x13-0x14 (1)
0x0010|            08                                 |    .           |          value: 8 0x14-0x15 (1)
      |                                               |                |        [4]{}: element 0x15-0x20 (11)
0x0010|               42 82                           |     B.         |          id: "doc_type" (0x4282) (Document content type) 0x15-0x17 (2)
      |                                               |                |          type: "string"
0x0010|                     88                        |       .        |          size: 8 0x17-0x18 (1)
0x0010|                        6d 61 74 72 6f 73 6b 61|        matroska|          value: "matroska" 0x18-0x20 (8)
      |                                               |                |        [5]{}: element 0x20-0x24 (4)
0x0020|42 87                                          |B.              |          id: "doc_type_version" (0x4287) (Document type version) 0x20-0x22 (2)
      |                                               |                |          type: "uinteger"
0x0020|      81                                       |  .             |          size: 1 0x22-0x23 (1)
0x0020|         04                                    |   .            |          value: 4 0x23-0x24 (1)
      |                                               |                |        [6]{}: element 0x24-0x28 (4)
0x0020|            42 85                              |    B.          |          id: "doc_type_read_version" (0x4285) (Minimum document reader version) 0x24-0x26 (2)
      |                                               |                |          type: "uinteger"
0x0020|                  81                           |      .         |          size: 1 0x26-0x27 (1)
0x0020|                     02                        |       .        |          value: 2 0x27-0x28 (1)
      |                                               |                |    [1]{}: element 0x28-0x10fb (4307)
0x0020|                        18 53 80 67            |        .S.g    |      id: "segment" (0x18538067) (The Root Element that contains all other Top-Level Elements) 0x28-0x2c (4)
      |                                               |                |      type: "master"
0x0020|                                    01 00 00 00|            ....|      size: 4295 0x2c-0x34 (8)
0x0030|00 00 10 c7                                    |....            |
      |                                               |                |      elements[0:7]: 0x34-0x10fb (4295)
      |                                               |                |        [0]{}: element 0x34-0x79 (69)
0x0030|            11 4d 9b 74                        |    .M.t        |          id: "seek_head" (0x114d9b74) (Contains seeking information of Top-Level Elements) 0x34-0x38 (4)
      |                                               |                |          type: "master"
0x0030|                        c0                     |        .       |          size: 64 0x38-0x39 (1)
      |                                               |                |          elements[0:5]: 0x39-0x79 (64)
      |                                               |                |            [0]{}: element 0x39-0x3f (6)
0x0030|                           bf                  |         .      |              id: "crc32" (0xbf) 0x39-0x3a (1)
      |                                               |                |              type: "binary"
0x0030|                              84               |          .     |              size: 4 0x3a-0x3b (1)
0x0030|                                 90 29 34 92   |           .)4. |              value: raw bits 0x3b-0x3f (4)
      |                                               |                |            [1]{}: element 0x3f-0x4d (14)
0x0030|                                             4d|               M|              id: "seek" (0x4dbb) (Contains a single seek entry to an EBML Element) 0x3f-0x41 (2)
0x0040|bb                                             |.               |
      |                                               |                |              type: "master"
0x0040|   8b                                          | .              |              size: 11 0x41-0x42 (1)
      |                                               |                |              elements[0:2]: 0x42-0x4d (11)
      |                                               |                |                [0]{}: element 0x42-0x49 (7)
0x0040|      53 ab                                    |  S.            |                  id: "seek_id" (0x53ab) (The binary EBML ID of a Top-Level Element) 0x42-0x44 (2)
      |                                               |                |                  type: "binary"
0x0040|            84                                 |    .           |                  size: 4 0x44-0x45 (1)
0x0040|               15 49 a9 66                     |     .I.f       |                  value: raw bits 0x45-0x49 (4)
      |                                               |                |                [1]{}: element 0x49-0x4d (4)
0x0040|                           53 ac               |         S.     |                  id: "seek_position" (0x53ac) (The Segment Position of a Top-Level Element) 0x49-0x4b (2)
      |                                               |                |                  type: "uinteger"
0x0040|                                 81            |           .    |                  size: 1 0x4b-0x4c (1)
0x0040|                                    a1         |            .   |                  value: 161 0x4c-0x4d (1)
      |                                               |                |            [2]{}: element 0x4d-0x5b (14)
0x0040|                                       4d bb   |             M. |              id: "seek" (0x4dbb) (Contains a single seek entry to an EBML Element) 0x4d-0x4f (2)
      |                                               |                |              type: "master"
0x0040|                                             8b|               .|              size: 11 0x4f-0x50 (1)
      |                                               |                |              elements[0:2]: 0x50-0x5b (11)
      |                                               |                |                [0]{}: element 0x50-0x57 (7)
0x0050|53 ab                                          |S.              |                  id: "seek_id" (0x53ab) (The binary EBML ID of a Top-Level Element) 0x50-0x52 (2)
      |                                               |                |                  type: "binary"
0x0050|      84                                       |  .             |                  size: 4 0x52-0x53 (1)
0x0050|         16 54 ae 6b                           |   .T.k         |                  value: raw bits 0x53-0x57 (4)
      |                                               |                |                [1]{}: element 0x57-0x5b (4)
0x0050|                     53 ac                     |       S.       |                  id: "seek_position" (0x53ac) (The Segment Position of a Top-Level Element) 0x57-0x59 (2)
      |                                               |                |                  type: "uinteger"
0x0050|                           81                  |         .      |                  size: 1 0x59-0x5a (1)
0x0050|                              f1               |          .     |                  value: 241 0x5a-0x5b (1)
      |                                               |                |            [3]{}: element 0x5b-0x6a (15)
0x0050|                                 4d bb         |           M.   |              id: "seek" (0x4dbb) (Contains a single seek entry to an EBML Element) 0x5b-0x5d (2)
      |                                               |                |              type: "master"
0x0050|                                       8c      |             .  |              size: 12 0x5d-0x5e (1)
      |                                               |                |              elements[0:2]: 0x5e-0x6a (12)
      |                                               |                |                [0]{}: element 0x5e-0x65 (7)
0x0050|                                          53 ab|              S.|                  id: "seek_id" (0x53ab) (The binary EBML ID of a Top-Level Element) 0x5e-0x60 (2)
      |                                               |                |                  type: "binary"
0x0060|84                                             |.               |                  size: 4 0x60-0x61 (1)
0x0060|   12 54 c3 67                                 | .T.g           |                  value: raw bits 0x61-0x65 (4)
      |                                               |                |                [1]{}: element 0x65-0x6a (5)
0x0060|               53 ac                           |     S.         |                  id: "seek_position" (0x53ac) (The Segment Position of a Top-Level Element) 0x65-0x67 (2)
      |                                               |                |                  type: "uinteger"
0x0060|                     82                        |       .        |                  size: 2 0x67-0x68 (1)
0x0060|                        0e 22                  |        ."      |                  value: 3618 0x68-0x6a (2)
      |                                               |                |            [4]{}: element 0x6a-0x79 (15)
0x0060|                              4d bb            |          M.    |              id: "seek" (0x4dbb) (Contains a single seek entry to an EBML Element) 0x6a-0x6c (2)
      |                                               |                |              type: "master"
0x0060|                                    8c         |            .   |              size: 12 0x6c-0x6d (1)
      |                                               |                |              elements[0:2]: 0x6d-0x79 (12)
      |                                               |                |                [0]{}: element 0x6d-0x74 (7)
0x0060|                                       53 ab   |             S. |                  id: "seek_id" (0x53ab) (The binary EBML ID of a Top-Level Element) 0x6d-0x6f (2)
      |                                               |                |                  type: "binary"
0x0060|                                             84|               .|                  size: 4 0x6f-0x70 (1)
0x0070|1c 53 bb 6b                                    |.S.k            |                  value: raw bits 0x70-0x74 (4)
      |                                               |                |                [1]{}: element 0x74-0x79 (5)
0x0070|            53 ac                              |    S.          |                  id: "seek_position" (0x53ac) (The Segment Position of a Top-Level Element) 0x74-0x76 (2)
      |                                               |                |                  type: "uinteger"
0x0070|                  82                           |      .         |                  size: 2 0x76-0x77 (1)
0x0070|                     10 ab                     |       ..       |                  value: 4267 0x77-0x79 (2)
      |                                               |                |        [1]{}: element 0x79-0xd5 (92)
0x0070|                           ec                  |         .      |          id: "void" (0xec) 0x79-0x7a (1)
      |                                               |                |          type: "binary"
0x0070|                              01 00 00 00 00 00|          ......|          size: 83 0x7a-0x82 (8)
0x0080|00 53                                          |.S              |
0x0080|      00 00 00 00 00 00 00 00 00 00 00 00 00 00|  ..............|          value: raw bits 0x82-0xd5 (83)
0x0090|00 00 00 00 00 00 00 00 00 00 00 00 00 00 00 00|................|
*     |until 0xd4.7 (83)                              |                |
      |                                               |                |        [2]{}: element 0xd5-0x125 (80)
0x00d0|               15 49 a9 66                     |     .I.f       |          id: "info" (0x1549a966) (Contains general information about the Segment) 0xd5-0xd9 (4)
      |                                               |                |          type: "master"
0x00d0|                           cb                  |         .      |          size: 75 0xd9-0xda (1)
      |                                               |                |          elements[0:6]: 0xda-0x125 (75)
      |                                               |                |            [0]{}: element 0xda-0xe0 (6)
0x00d0|                              bf               |          .     |              id: "crc32" (0xbf) 0xda-0xdb (1)
      |                                               |                |              type: "binary"
0x00d0|                                 84            |           .    |              size: 4 0xdb-0xdc (1)
0x00d0|                                    c8 e4 2e a2|            ....|              value: raw bits 0xdc-0xe0 (4)
      |                                               |                |            [1]{}: element 0xe0-0xe7 (7)
0x00e0|2a d7 b1                                       |*..             |              id: "timestamp_scale" (0x2ad7b1) (Base unit for Segment Ticks and Track Ticks) 0xe0-0xe3 (3)
      |                                               |                |              type: "uinteger"
0x00e0|         83                                    |   .            |              size: 3 0xe3-0xe4 (1)
0x00e0|            0f 42 40                           |    .B@         |              value: 1000000 0xe4-0xe7 (3)
      |                                               |                |            [2]{}: element 0xe7-0xf7 (16)
0x00e0|                     4d 80                     |       M.       |              id: "muxing_app" (0x4d80) (Muxing application or library) 0xe7-0xe9 (2)
      |                                               |                |              type: "utf8"
0x00e0|                           8d                  |         .      |              size: 13 0xe9-0xea (1)
0x00e0|                              4c 61 76 66 35 38|          Lavf58|              value: "Lavf58.45.100" 0xea-0xf7 (13)
0x00f0|2e 34 35 2e 31 30 30                           |.45.100         |
      |                                               |                |            [3]{}: element 0xf7-0x107 (16)
0x00f0|                     57 41                     |       WA       |              id: "writing_app" (0x5741) (Writing application) 0xf7-0xf9 (2)
      |                                               |                |              type: "utf8"
0x00f0|                           8d                  |         .      |              size: 13 0xf9-0xfa (1)
0x00f0|                              4c 61 76 66 35 38|          Lavf58|              value: "Lavf58.45.100" 0xfa-0x107 (13)
0x0100|2e 34 35 2e 31 30 30                           |.45.100         |
      |                                               |                |            [4]{}: element 0x107-0x11a (19)
0x0100|                     73 a4                     |       s.       |              id: "segment_uuid" (0x73a4) (A randomly generated UID that identifies the Segment amongst many others v4 RFC9562 with all bits randomly (or pseudorandomly) chosen) 0x107-0x109 (2)
      |                                               |                |              type: "binary"
0x0100|                           90                  |         .      |              size: 16 0x109-0x10a (1)
0x0100|                              55 86 bb 9d 18 21|          U....!|              value: raw bits 0x10a-0x11a (16)
0x0110|a2 81 c3 5e 58 4d 99 67 81 5b                  |...^XM.g.[      |
      |                                               |                |            [5]{}: element 0x11a-0x125 (11)
0x0110|                              44 89            |          D.    |              id: "duration" (0x4489) (Duration of the Segment) 0x11a-0x11c (2)
      |                                               |                |              type: "float"
0x0110|                                    88         |            .   |              size: 8 0x11c-0x11d (1)
0x0110|                                       40 49 00|             @I.|              value: 50 0x11d-0x125 (8)
0x0120|00 00 00 00 00                                 |.....           |
      |                                               |                |        [3]{}: element 0x125-0xe56 (3377)
0x0120|               16 54 ae 6b                     |     .T.k       |          id: "tracks" (0x1654ae6b) (A Top-Level Element of information with many tracks described) 0x125-0x129 (4)
      |                                               |                |          type: "master"
0x0120|                           4d 2b               |         M+     |          size: 3371 0x129-0x12b (2)
      |                                               |                |          elements[0:2]: 0x12b-0xe56 (3371)
      |                                               |                |            [0]{}: element 0x12b-0x131 (6)
0x0120|                                 bf            |           .    |              id: "crc32" (0xbf) 0x12b-0x12c (1)
      |                                               |                |              type: "binary"
0x0120|                                    84         |            .   |              size: 4 0x12c-0x12d (1)
0x0120|                                       09 8a 9a|             ...|              value: raw bits 0x12d-0x131 (4)
0x0130|0d                                             |.               |
      |                                               |                |            [1]{}: element 0x131-0xe56 (3365)
0x0130|   ae                                          | .              |              id: "track_entry" (0xae) (Describes a track with all elements) 0x131-0x132 (1)
      |                                               |                |              type: "master"
0x0130|      01 00 00 00 00 00 0d 1c                  |  ........      |              size: 3356 0x132-0x13a (8)
      |                                               |                |              elements[0:8]: 0x13a-0xe56 (3356)
      |                                               |                |                [0]{}: element 0x13a-0x13d (3)
0x0130|                              d7               |          .     |                  id: "track_number" (0xd7) (The track number as used in the Block Header) 0x13a-0x13b (1)
      |                                               |                |                  type: "uinteger"
0x0130|                                 81            |           .    |                  size: 1 0x13b-0x13c (1)
0x0130|                                    01         |            .   |                  value: 1 0x13c-0x13d (1)
      |                                               |                |                [1]{}: element 0x13d-0x148 (11)
0x0130|                                       73 c5   |             s. |                  id: "track_uid" (0x73c5) (A UID that identifies the Track) 0x13d-0x13f (2)
      |                                               |                |                  type: "uinteger"
0x0130|                                             88|               .|                  size: 8 0x13f-0x140 (1)
0x0140|2e 55 8d bf 90 c9 26 0f                        |.U....&.        |                  value: 3338730552672462351 0x140-0x148 (8)
      |                                               |                |                [2]{}: element 0x148-0x14b (3)
0x0140|                        9c                     |        .       |                  id: "flag_lacing" (0x9c) (Set to 1 if the track **MAY** contain blocks that use lacing) 0x148-0x149 (1)
      |                                               |                |                  type: "uinteger"
0x0140|                           81                  |         .      |                  size: 1 0x149-0x14a (1)
0x0140|                              00               |          .     |                  value: 0 0x14a-0x14b (1)
      |                                               |                |                [3]{}: element 0x14b-0x152 (7)
0x0140|                                 22 b5 9c      |           "..  |                  id: "language" (0x22b59c) (The language of the track) 0x14b-0x14e (3)
      |                                               |                |                  type: "string"
0x0140|                                          83   |              . |                  size: 3 0x14e-0x14f (1)
0x0140|                                             75|               u|                  value: "und" 0x14f-0x152 (3)
0x0150|6e 64                                          |nd              |
      |                                               |                |                [4]{}: element 0x152-0x15c (10)
0x0150|      86                                       |  .             |                  id: "codec_id" (0x86) (An ID corresponding to the codec) 0x152-0x153 (1)
      |                                               |                |                  type: "string"
0x0150|         88                                    |   .            |                  size: 8 0x153-0x154 (1)
0x0150|            41 5f 56 4f 52 42 49 53            |    A_VORBIS    |                  value: "A_VORBIS" 0x154-0x15c (8)
      |                                               |                |                [5]{}: element 0x15c-0x15f (3)
0x0150|                                    83         |            .   |                  id: "track_type" (0x83) (The TrackType defines the type of each frame found in the Track) 0x15c-0x15d (1)
      |                                               |                |                  type: "uinteger"
0x0150|                                       81      |             .  |                  size: 1 0x15d-0x15e (1)
0x0150|                                          02   |              . |                  value: "audio" (2) (Audio samples) 0x15e-0x15f (1)
      |                                               |                |                [6]{}: element 0x15f-0x172 (19)
0x0150|                                             e1|               .|                  id: "audio" (0xe1) (Audio settings) 0x15f-0x160 (1)
      |                                               |                |                  type: "master"
0x0160|91                                             |.               |                  size: 17 0x160-0x161 (1)
      |                                               |                |                  elements[0:3]: 0x161-0x172 (17)
      |                                               |                |                    [0]{}: element 0x161-0x164 (3)
0x0160|   9f                                          | .              |                      id: "channels" (0x9f) (Numbers of channels in the track) 0x161-0x162 (1)
      |                                               |                |                      type: "uinteger"
0x0160|      81                                       |  .             |                      size: 1 0x162-0x163 (1)
0x0160|         02                                    |   .            |                      value: 2 0x163-0x164 (1)
      |                                               |                |                    [1]{}: element 0x164-0x16e (10)
0x0160|            b5                                 |    .           |                      id: "sampling_frequency" (0xb5) (Sampling frequency in Hz) 0x164-0x165 (1)
      |                                               |                |                      type: "float"
0x0160|               88                              |     .          |                      size: 8 0x165-0x166 (1)
0x0160|                  40 e5 88 80 00 00 00 00      |      @.......  |                      value: 44100 0x166-0x16e (8)
      |                                               |                |                    [2]{}: element 0x16e-0x172 (4)
0x0160|                                          62 64|              bd|                      id: "bit_depth" (0x6264) (Bits per sample) 0x16e-0x170 (2)
      |                                               |                |                      type: "uinteger"
0x0170|81                                             |.               |                      size: 1 0x170-0x171 (1)
0x0170|   20                                          |                |                      value: 32 0x171-0x172 (1)
      |                                               |                |                [7]{}: element 0x172-0xe56 (3300)
0x0170|      63 a2                                    |  c.            |                  id: "codec_private" (0x63a2) (Private data only known to the codec) 0x172-0x174 (2)
      |                                               |                |                  type: "binary"
0x0170|            4c e0                              |    L.          |                  size: 3296 0x174-0x176 (2)
0x0170|                  02                           |      .         |                  num_laces: 2 0x176-0x177 (1)
      |                                               |                |                  lace_sizes[0:2]: 0x177-0x179 (2)
0x0170|                     1e                        |       .        |                    [0]: 30 lace_size 0x177-0x178 (1)
0x0170|                        10                     |        .       |                    [1]: 16 lace_size 0x178-0x179 (1)
      |                                               |                |                  laces[0:3]: 0x179-0xe56 (3293)
      |00 01 02 03 04 05 06 07 08 09 0a 0b 0c 0d 0e 0f|0123456789abcdef|                    [0]{}: packet (vorbis_packet) 0x179-0x197 (30)
0x0170|                           01                  |         .      |                      packet_type: "identification" (1) 0x179-0x17a (1)
0x0170|                              76 6f 72 62 69 73|          vorbis|                      magic: "vorbis" (valid) 0x17a-0x180 (6)
0x0180|00 00 00 00                                    |....            |                      vorbis_version: 0 (valid) 0x180-0x184 (4)
0x0180|            02                                 |    .           |                      audio_channels: 2 0x184-0x185 (1)
0x0180|               44 ac 00 00                     |     D...       |                      audio_sample_rate: 44100 0x185-0x189 (4)
0x0180|                           00 00 00 00         |         ....   |                      bitrate_maximum: 0 0x189-0x18d (4)
0x0180|                                       00 00 00|             ...|                      bitrate_nominal: 0 0x18d-0x191 (4)
0x0190|00                                             |.               |
0x0190|   00 00 00 00                                 | ....           |                      bitrate_minimum: 0 0x191-0x195 (4)
0x0190|               bb                              |     .          |                      blocksize_1: 2048 0x195-0x195.4 (0.4)
0x0190|               bb                              |     .          |                      blocksize_0: 2048 0x195.4-0x196 (0.4)
0x0190|                  01                           |      .         |                      padding0: raw bits (all zero) 0x196-0x196.7 (0.7)
0x0190|                  01                           |      .         |                      framing_flag: 1 (valid) 0x196.7-0x197 (0.1)
      |00 01 02 03 04 05 06 07 08 09 0a 0b 0c 0d 0e 0f|0123456789abcdef|                    [1]{}: packet (vorbis_packet) 0x197-0x1a7 (16)
0x0190|                     03                        |       .        |                      packet_type: "comment" (3) 0x197-0x198 (1)
0x0190|                        76 6f 72 62 69 73      |        vorbis  |                      magic: "vorbis" (valid) 0x198-0x19e (6)
      |00 01 02 03 04 05 06 07 08 09 0a 0b 0c 0d 0e 0f|0123456789abcdef|                      comment{}: (vorbis_comment) 0x19e-0x1a6 (8)
0x0190|                                          00 00|              ..|                        vendor_length: 0 0x19e-0x1a2 (4)
0x01a0|00 00                                          |..              |
      |                                               |                |                        vendor: "" 0x1a2-0x1a2 (0)
0x01a0|      00 00 00 00                              |  ....          |                        user_comment_list_length: 0 0x1a2-0x1a6 (4)
      |                                               |                |                        user_comments[0:0]: 0x1a6-0x1a6 (0)
0x01a0|                  01                           |      .         |                      padding0: raw bits (all zero) 0x1a6-0x1a6.7 (0.7)
0x01a0|                  01                           |      .         |                      frame_bit: 1 (valid) 0x1a6.7-0x1a7 (0.1)
      |00 01 02 03 04 05 06 07 08 09 0a 0b 0c 0d 0e 0f|0123456789abcdef|                    [2]{}: packet (vorbis_packet) 0x1a7-0xe56 (3247)
0x01a0|                     05                        |       .        |                      packet_type: "setup" (5) 0x1a7-0x1a8 (1)
0x01a0|                        76 6f 72 62 69 73      |        vorbis  |                      magic: "vorbis" (valid) 0x1a8-0x1ae (6)
0x01a0|                                          1c   |              . |                      vorbis_codebook_count: 29 0x1ae-0x1af (1)
0x01a0|                                             42|               B|                      codecooke_sync: 0x564342 (valid) 0x1af-0x1b2 (3)
0x01b0|43 56                                          |CV              |
0x01b0|      02 00                                    |  ..            |                      codebook_dimensions: 2 0x1b2-0x1b4 (2)
0x01b0|            10 00 00                           |    ...         |                      codebook_entries: 16 0x1b4-0x1b7 (3)
0x01b0|                     84 74 9a 59 aa 01 22 cc 40|       .t.Y..".@|                      data: raw bits 0x1b7-0xe56 (3231)
0x01c0|86 81 d0 90 95 00 00 02 00 00 60 84 22 0c 31 20|..........`.".1 |
*     |until 0xe55.7 (3231)                           |                |
      |                                               |                |        [4]{}: element 0xe56-0xefb (165)
0x0e50|                  12 54 c3 67                  |      .T.g      |          id: "tags" (0x1254c367) (Element containing metadata describing Tracks) 0xe56-0xe5a (4)
      |                                               |                |          type: "master"
0x0e50|                              40 9f            |          @.    |          size: 159 0xe5a-0xe5c (2)
      |                                               |                |          elements[0:3]: 0xe5c-0xefb (159)
      |                                               |                |            [0]{}: element 0xe5c-0xe62 (6)
0x0e50|                                    bf         |            .   |              id: "crc32" (0xbf) 0xe5c-0xe5d (1)
      |                                               |                |              type: "binary"
0x0e50|                                       84      |             .  |              size: 4 0xe5d-0xe5e (1)
0x0e50|                                          9f 31|              .1|              value: raw bits 0xe5e-0xe62 (4)
0x0e60|b2 9c                                          |..              |
      |                                               |                |            [1]{}: element 0xe62-0xe93 (49)
0x0e60|      73 73                                    |  ss            |              id: "tag" (0x7373) (A single metadata descriptor) 0xe62-0xe64 (2)
      |                                               |                |              type: "master"
0x0e60|            01 00 00 00 00 00 00 27            |    .......'    |              size: 39 0xe64-0xe6c (8)
      |                                               |                |              elements[0:2]: 0xe6c-0xe93 (39)
      |                                               |                |                [0]{}: element 0xe6c-0xe6f (3)
0x0e60|                                    63 c0      |            c.  |                  id: "targets" (0x63c0) (Specifies which other elements the metadata represented by the tag value applies to) 0xe6c-0xe6e (2)
      |                                               |                |                  type: "master"
0x0e60|                                          80   |              . |                  size: 0 0xe6e-0xe6f (1)
      |                                               |                |                  elements[0:0]: 0xe6f-0xe6f (0)
      |                                               |                |                [1]{}: element 0xe6f-0xe93 (36)
0x0e60|                                             67|               g|                  id: "simple_tag" (0x67c8) (Contains general information about the target) 0xe6f-0xe71 (2)
0x0e70|c8                                             |.               |
      |                                               |                |                  type: "master"
0x0e70|   01 00 00 00 00 00 00 1a                     | ........       |                  size: 26 0xe71-0xe79 (8)
      |                                               |                |                  elements[0:2]: 0xe79-0xe93 (26)
      |                                               |                |                    [0]{}: element 0xe79-0xe83 (10)
0x0e70|                           45 a3               |         E.     |                      id: "tag_name" (0x45a3) (The name of the tag value that is going to be stored) 0xe79-0xe7b (2)
      |                                               |                |                      type: "utf8"
0x0e70|                                 87            |           .    |                      size: 7 0xe7b-0xe7c (1)
0x0e70|                                    45 4e 43 4f|            ENCO|                      value: "ENCODER" 0xe7c-0xe83 (7)
0x0e80|44 45 52                                       |DER             |
      |                                               |                |                    [1]{}: element 0xe83-0xe93 (16)
0x0e80|         44 87                                 |   D.           |                      id: "tag_string" (0x4487) (The tag value) 0xe83-0xe85 (2)
      |                                               |                |                      type: "utf8"
0x0e80|               8d                              |     .          |                      size: 13 0xe85-0xe86 (1)
0x0e80|                  4c 61 76 66 35 38 2e 34 35 2e|      Lavf58.45.|                      value: "Lavf58.45.100" 0xe86-0xe93 (13)
0x0e90|31 30 30                                       |100             |
      |                                               |                |            [2]{}: element 0xe93-0xefb (104)
0x0e90|         73 73                                 |   ss           |              id: "tag" (0x7373) (A single metadata descriptor) 0xe93-0xe95 (2)
      |                                               |                |              type: "master"
0x0e90|               01 00 00 00 00 00 00 5e         |     .......^   |              size: 94 0xe95-0xe9d (8)
      |                                               |                |              elements[0:3]: 0xe9d-0xefb (94)
      |                                               |                |                [0]{}: element 0xe9d-0xeab (14)
0x0e90|                                       63 c0   |             c. |                  id: "targets" (0x63c0) (Specifies which other elements the metadata represented by the tag value applies to) 0xe9d-0xe9f (2)
      |                                               |                |                  type: "master"
0x0e90|                                             8b|               .|                  size: 11 0xe9f-0xea0 (1)
      |                                               |                |                  elements[0:1]: 0xea0-0xeab (11)
      |                                               |                |                    [0]{}: element 0xea0-0xeab (11)
0x0ea0|63 c5                                          |c.              |                      id: "tag_track_uid" (0x63c5) (A UID that identifies the Track(s) that the tags belong to) 0xea0-0xea2 (2)
      |                                               |                |                      type: "uinteger"
0x0ea0|      88                                       |  .             |                      size: 8 0xea2-0xea3 (1)
0x0ea0|         2e 55 8d bf 90 c9 26 0f               |   .U....&.     |                      value: 3338730552672462351 0xea3-0xeab (8)
      |                                               |                |                [1]{}: element 0xeab-0xed6 (43)
0x0ea0|                                 67 c8         |           g.   |                  id: "simple_tag" (0x67c8) (Contains general information about the target) 0xeab-0xead (2)
      |                                               |                |                  type: "master"
0x0ea0|                                       01 00 00|             ...|                  size: 33 0xead-0xeb5 (8)
0x0eb0|00 00 00 00 21                                 |....!           |
      |                                               |                |                  elements[0:2]: 0xeb5-0xed6 (33)
      |                                               |                |                    [0]{}: element 0xeb5-0xebf (10)
0x0eb0|               45 a3                           |     E.         |                      id: "tag_name" (0x45a3) (The name of the tag value that is going to be stored) 0xeb5-0xeb7 (2)
      |                                               |                |                      type: "utf8"
0x0eb0|                     87                        |       .        |                      size: 7 0xeb7-0xeb8 (1)
0x0eb0|                        45 4e 43 4f 44 45 52   |        ENCODER |                      value: "ENCODER" 0xeb8-0xebf (7)
      |                                               |                |                    [1]{}: element 0xebf-0xed6 (23)
0x0eb0|                                             44|               D|                      id: "tag_string" (0x4487) (The tag value) 0xebf-0xec1 (2)
0x0ec0|87                                             |.               |
      |                                               |                |                      type: "utf8"
0x0ec0|   94                                          | .              |                      size: 20 0xec1-0xec2 (1)
0x0ec0|      4c 61 76 63 35 38 2e 39 31 2e 31 30 30 20|  Lavc58.91.100 |                      value: "Lavc58.91.100 vorbis" 0xec2-0xed6 (20)
0x0ed0|76 6f 72 62 69 73                              |vorbis          |
      |                                               |                |                [2]{}: element 0xed6-0xefb (37)
0x0ed0|                  67 c8                        |      g.        |                  id: "simple_tag" (0x67c8) (Contains general information about the target) 0xed6-0xed8 (2)
      |                                               |                |                  type: "master"
0x0ed0|                        a2                     |        .       |                  size: 34 0xed8-0xed9 (1)
      |                                               |                |                  elements[0:2]: 0xed9-0xefb (34)
      |                                               |                |                    [0]{}: element 0xed9-0xee4 (11)
0x0ed0|                           45 a3               |         E.     |                      id: "tag_name" (0x45a3) (The name of the tag value that is going to be stored) 0xed9-0xedb (2)
      |                                               |                |                      type: "utf8"
0x0ed0|                                 88            |           .    |                      size: 8 0xedb-0xedc (1)
0x0ed0|                                    44 55 52 41|            DURA|                      value: "DURATION" 0xedc-0xee4 (8)
0x0ee0|54 49 4f 4e                                    |TION            |
      |                                               |                |                    [1]{}: element 0xee4-0xefb (23)
0x0ee0|            44 87                              |    D.          |                      id: "tag_string" (0x4487) (The tag value) 0xee4-0xee6 (2)
      |                                               |                |                      type: "utf8"
0x0ee0|                  94                           |      .         |                      size: 20 0xee6-0xee7 (1)
0x0ee0|                     30 30 3a 30 30 3a 30 30 2e|       00:00:00.|                      value: "00:00:00.050000000" 0xee7-0xefb (20)
0x0ef0|30 35 30 30 30 30 30 30 30 00 00               |050000000..     |
      |                                               |                |        [5]{}: element 0xefb-0x10df (484)
0x0ef0|                                 1f 43 b6 75   |           .C.u |          id: "cluster" (0x1f43b675) (The Top-Level Element containing the (monolithic) Block structure) 0xefb-0xeff (4)
      |                                               |                |          type: "master"
0x0ef0|                                             41|               A|          size: 478 0xeff-0xf01 (2)
0x0f00|de                                             |.               |
      |                                               |                |          elements[0:5]: 0xf01-0x10df (478)
      |                                               |                |            [0]{}: element 0xf01-0xf07 (6)
0x0f00|   bf                                          | .              |              id: "crc32" (0xbf) 0xf01-0xf02 (1)
      |                                               |                |              type: "binary"
0x0f00|      84                                       |  .             |              size: 4 0xf02-0xf03 (1)
0x0f00|         c7 72 04 8d                           |   .r..         |              value: raw bits 0xf03-0xf07 (4)
      |                                               |                |            [1]{}: element 0xf07-0xf0a (3)
0x0f00|                     e7                        |       .        |              id: "timestamp" (0xe7) (Absolute timestamp of the cluster) 0xf07-0xf08 (1)
      |                                               |                |              type: "uinteger"
0x0f00|                        81                     |        .       |              size: 1 0xf08-0xf09 (1)
0x0f00|                           00                  |         .      |              value: 0 0xf09-0xf0a (1)
      |                                               |                |            [2]{}: element 0xf0a-0xfc7 (189)
0x0f00|                              a3               |          .     |              id: "simple_block" (0xa3) (Similar to Block ) but without all the extra information) 0xf0a-0xf0b (1)
      |                                               |                |              type: "binary"
0x0f00|                                 40 ba         |           @.   |              size: 186 0xf0b-0xf0d (2)
0x0f00|                                       81      |             .  |              track_number: 1 0xf0d-0xf0e (1)
0x0f00|                                          00 00|              ..|              timestamp: 0 0xf0e-0xf10 (2)
      |                                               |                |              flags{}: 0xf10-0xf11 (1)
0x0f10|80                                             |.               |                key_frame: true 0xf10-0xf10.1 (0.1)
0x0f10|80                                             |.               |                reserved: 0 0xf10.1-0xf10.4 (0.3)
0x0f10|80                                             |.               |                invisible: false 0xf10.4-0xf10.5 (0.1)
0x0f10|80                                             |.               |                lacing: "none" (0) 0xf10.5-0xf10.7 (0.2)
0x0f10|80                                             |.               |                discardable: false 0xf10.7-0xf11 (0.1)
      |00 01 02 03 04 05 06 07 08 09 0a 0b 0c 0d 0e 0f|0123456789abcdef|              packet{}: (vorbis_packet) 0xf11-0xfc7 (182)
0x0f10|   be                                          | .              |                packet_type: "audio" (0) 0xf11-0xf12 (1)
0x0f10|      b7 f2 81 46 74 15 42 0b 52 08 17 32 8e 43|  ...Ft.B.R..2.C|                data: raw bits 0xf12-0xfc7 (181)
0x0f20|08 65 84 84 f6 56 3e d0 88 ae 42 68 41 0a e1 42|.e...V>...BhA..B|
*     |until 0xfc6.7 (181)                            |                |
      |                                               |                |            [3]{}: element 0xfc7-0x1019 (82)
0x0fc0|                     a3                        |       .        |              id: "simple_block" (0xa3) (Similar to Block ) but without all the extra information) 0xfc7-0xfc8 (1)
      |                                               |                |              type: "binary"
0x0fc0|                        d0                     |        .       |              size: 80 0xfc8-0xfc9 (1)
0x0fc0|                           81                  |         .      |              track_number: 1 0xfc9-0xfca (1)
0x0fc0|                              00 17            |          ..    |              timestamp: 23 0xfca-0xfcc (2)
      |                                               |                |              flags{}: 0xfcc-0xfcd (1)
0x0fc0|                                    80         |            .   |                key_frame: true 0xfcc-0xfcc.1 (0.1)
0x0fc0|                                    80         |            .   |                reserved: 0 0xfcc.1-0xfcc.4 (0.3)
0x0fc0|                                    80         |            .   |                invisible: false 0xfcc.4-0xfcc.5 (0.1)
0x0fc0|                                    80         |            .   |                lacing: "none" (0) 0xfcc.5-0xfcc.7 (0.2)
0x0fc0|                                    80         |            .   |                discardable: false 0xfcc.7-0xfcd (0.1)
      |00 01 02 03 04 05 06 07 08 09 0a 0b 0c 0d 0e 0f|0123456789abcdef|              packet{}: (vorbis_packet) 0xfcd-0x1019 (76)
0x0fc0|                                       be      |             .  |                packet_type: "audio" (0) 0xfcd-0xfce (1)
0x0fc0|                                          13 a2|              ..|                data: raw bits 0xfce-0x1019 (75)
0x0fd0|9b 06 0a b6 ff 13 10 ff 25 62 ec 8f d9 f7 a2 11|........%b......|
*     |until 0x1018.7 (75)                            |                |
      |                                               |                |            [4]{}: element 0x1019-0x10df (198)
0x1010|                           a0                  |         .      |              id: "block_group" (0xa0) (Basic container of information containing a single Block and information specific to that Block) 0x1019-0x101a (1)
      |                                               |                |              type: "master"
0x1010|                              01 00 00 00 00 00|          ......|              size: 189 0x101a-0x1022 (8)
0x1020|00 bd                                          |..              |
      |                                               |                |              elements[0:2]: 0x1022-0x10df (189)
      |                                               |                |                [0]{}: element 0x1022-0x10d8 (182)
0x1020|      a1                                       |  .             |                  id: "block" (0xa1) (Block containing the actual data to be rendered and a timestamp relative to the Cluster Timestamp) 0x1022-0x1023 (1)
      |                                               |                |                  type: "binary"
0x1020|         40 b3                                 |   @.           |                  size: 179 0x1023-0x1025 (2)
0x1020|               81                              |     .          |                  track_number: 1 0x1025-0x1026 (1)
0x1020|                  00 2e                        |      ..        |                  timestamp: 46 0x1026-0x1028 (2)
      |                                               |                |                  flags{}: 0x1028-0x1029 (1)
0x1020|                        00                     |        .       |                    reserved: 0 0x1028-0x1028.4 (0.4)
0x1020|                        00                     |        .       |                    invisible: false 0x1028.4-0x1028.5 (0.1)
0x1020|                        00                     |        .       |                    lacing: "none" (0) 0x1028.5-0x1028.7 (0.2)
0x1020|                        00                     |        .       |                    not_used: false 0x1028.7-0x1029 (0.1)
      |00 01 02 03 04 05 06 07 08 09 0a 0b 0c 0d 0e 0f|0123456789abcdef|                  packet{}: (vorbis_packet) 0x1029-0x10d8 (175)
0x1020|                           be                  |         .      |                    packet_type: "audio" (0) 0x1029-0x102a (1)
0x1020|                              a7 f2 81 46 bb c2|          ...F..|                    data: raw bits 0x102a-0x10d8 (174)
0x1030|48 52 08 27 b8 83 10 ca 08 b1 a7 f2 81 46 bb c2|HR.'.........F..|
*     |until 0x10d7.7 (174)                           |                |
      |                                               |                |                [1]{}: element 0x10d8-0x10df (7)
0x10d0|                        75 a2                  |        u.      |                  id: "discard_padding" (0x75a2) (Duration of the silent data added to the Block) 0x10d8-0x10da (2)
      |                                               |                |                  type: "integer"
0x10d0|                              84               |          .     |                  size: 4 0x10da-0x10db (1)
0x10d0|                                 01 1f e0 25   |           ...% |                  value: 18866213 0x10db-0x10df (4)
      |                                               |                |        [6]{}: element 0x10df-0x10fb (28)
0x10d0|                                             1c|               .|          id: "cues" (0x1c53bb6b) (A Top-Level Element to speed seeking access) 0x10df-0x10e3 (4)
0x10e0|53 bb 6b                                       |S.k             |
      |                                               |                |          type: "master"
0x10e0|         97                                    |   .            |          size: 23 0x10e3-0x10e4 (1)
      |                                               |                |          elements[0:2]: 0x10e4-0x10fb (23)
      |                                               |                |            [0]{}: element 0x10e4-0x10ea (6)
0x10e0|            bf                                 |    .           |              id: "crc32" (0xbf) 0x10e4-0x10e5 (1)
      |                                               |                |              type: "binary"
0x10e0|               84                              |     .          |              size: 4 0x10e5-0x10e6 (1)
0x10e0|                  9d ea 5a 51                  |      ..ZQ      |              value: raw bits 0x10e6-0x10ea (4)
      |                                               |                |            [1]{}: element 0x10ea-0x10fb (17)
0x10e0|                              bb               |          .     |              id: "cue_point" (0xbb) (Contains all information relative to a seek point in the Segment) 0x10ea-0x10eb (1)
      |                                               |                |              type: "master"
0x10e0|                                 8f            |           .    |              size: 15 0x10eb-0x10ec (1)
      |                                               |                |              elements[0:2]: 0x10ec-0x10fb (15)
      |                                               |                |                [0]{}: element 0x10ec-0x10ef (3)
0x10e0|                                    b3         |            .   |                  id: "cue_time" (0xb3) (Absolute timestamp of the seek point) 0x10ec-0x10ed (1)
      |                                               |                |                  type: "uinteger"
0x10e0|                                       81      |             .  |                  size: 1 0x10ed-0x10ee (1)
0x10e0|                                          00   |              . |                  value: 0 0x10ee-0x10ef (1)
      |                                               |                |                [1]{}: element 0x10ef-0x10fb (12)
0x10e0|                                             b7|               .|                  id: "cue_track_positions" (0xb7) (Contains positions for different tracks corresponding to the timestamp) 0x10ef-0x10f0 (1)
      |                                               |                |                  type: "master"
0x10f0|8a                                             |.               |                  size: 10 0x10f0-0x10f1 (1)
      |                                               |                |                  elements[0:3]: 0x10f1-0x10fb (10)
      |                                               |                |                    [0]{}: element 0x10f1-0x10f4 (3)
0x10f0|   f7                                          | .              |                      id: "cue_track" (0xf7) (The track for which a position is given) 0x10f1-0x10f2 (1)
      |                                               |                |                      type: "uinteger"
0x10f0|      81                                       |  .             |                      size: 1 0x10f2-0x10f3 (1)
0x10f0|         01                                    |   .            |                      value: 1 0x10f3-0x10f4 (1)
      |                                               |                |                    [1]{}: element 0x10f4-0x10f8 (4)
0x10f0|            f1                                 |    .           |                      id: "cue_cluster_position" (0xf1) (The Segment Position of the Cluster containing the associated Block) 0x10f4-0x10f5 (1)
      |                                               |                |                      type: "uinteger"
0x10f0|               82                              |     .          |                      size: 2 0x10f5-0x10f6 (1)
0x10f0|                  0e c7                        |      ..        |                      value: 3783 0x10f6-0x10f8 (2)
      |                                               |                |                    [2]{}: element 0x10f8-0x10fb (3)
0x10f0|                        f0                     |        .       |                      id: "cue_relative_position" (0xf0) (The relative position inside the Cluster of the referenced SimpleBlock or BlockGroup with 0 being the first possible position for an element inside that Cluster) 0x10f8-0x10f9 (1)
      |                                               |                |                      type: "uinteger"
0x10f0|                           81                  |         .      |                      size: 1 0x10f9-0x10fa (1)
0x10f0|                              09|              |          .|    |                      value: 9 0x10fa-0x10fb (1)
