# ffmpeg -f lavfi -i testsrc -c:v vp9 -f matroska -t 50ms vp9.mkv
$ fq -d matroska verbose /vp9.mkv
      |00 01 02 03 04 05 06 07 08 09 0a 0b 0c 0d 0e 0f|0123456789abcdef|.: {} /vp9.mkv (matroska) 0x0-0x1785.7 (6022)
      |                                               |                |  elements: [2] 0x0-0x1785.7 (6022)
      |                                               |                |    [0]: element {} 0x0-0x27.7 (40)
      |                                               |                |      type: "master" (7) 0x0-NA (0)
0x0000|1a 45 df a3                                    |.E..            |      id: "EBML" (0x1a45dfa3) 0x0-0x3.7 (4)
0x0000|            a3                                 |    .           |      size: 35 0x4-0x4.7 (1)
      |                                               |                |      elements: [7] 0x5-0x27.7 (35)
      |                                               |                |        [0]: element {} 0x5-0x8.7 (4)
      |                                               |                |          type: "uinteger" (1) 0x5-NA (0)
0x0000|               42 86                           |     B.         |          id: "EBMLVersion" (0x4286) 0x5-0x6.7 (2)
0x0000|                     81                        |       .        |          size: 1 0x7-0x7.7 (1)
0x0000|                        01                     |        .       |          value: 1 0x8-0x8.7 (1)
      |                                               |                |        [1]: element {} 0x9-0xc.7 (4)
      |                                               |                |          type: "uinteger" (1) 0x9-NA (0)
0x0000|                           42 f7               |         B.     |          id: "EBMLReadVersion" (0x42f7) 0x9-0xa.7 (2)
0x0000|                                 81            |           .    |          size: 1 0xb-0xb.7 (1)
0x0000|                                    01         |            .   |          value: 1 0xc-0xc.7 (1)
      |                                               |                |        [2]: element {} 0xd-0x10.7 (4)
      |                                               |                |          type: "uinteger" (1) 0xd-NA (0)
0x0000|                                       42 f2   |             B. |          id: "EBMLMaxIDLength" (0x42f2) 0xd-0xe.7 (2)
0x0000|                                             81|               .|          size: 1 0xf-0xf.7 (1)
0x0010|04                                             |.               |          value: 4 0x10-0x10.7 (1)
      |                                               |                |        [3]: element {} 0x11-0x14.7 (4)
      |                                               |                |          type: "uinteger" (1) 0x11-NA (0)
0x0010|   42 f3                                       | B.             |          id: "EBMLMaxSizeLength" (0x42f3) 0x11-0x12.7 (2)
0x0010|         81                                    |   .            |          size: 1 0x13-0x13.7 (1)
0x0010|            08                                 |    .           |          value: 8 0x14-0x14.7 (1)
      |                                               |                |        [4]: element {} 0x15-0x1f.7 (11)
      |                                               |                |          type: "string" (3) 0x15-NA (0)
0x0010|               42 82                           |     B.         |          id: "DocType" (0x4282) 0x15-0x16.7 (2)
0x0010|                     88                        |       .        |          size: 8 0x17-0x17.7 (1)
0x0010|                        6d 61 74 72 6f 73 6b 61|        matroska|          value: "matroska" 0x18-0x1f.7 (8)
      |                                               |                |        [5]: element {} 0x20-0x23.7 (4)
      |                                               |                |          type: "uinteger" (1) 0x20-NA (0)
0x0020|42 87                                          |B.              |          id: "DocTypeVersion" (0x4287) 0x20-0x21.7 (2)
0x0020|      81                                       |  .             |          size: 1 0x22-0x22.7 (1)
0x0020|         04                                    |   .            |          value: 4 0x23-0x23.7 (1)
      |                                               |                |        [6]: element {} 0x24-0x27.7 (4)
      |                                               |                |          type: "uinteger" (1) 0x24-NA (0)
0x0020|            42 85                              |    B.          |          id: "DocTypeReadVersion" (0x4285) 0x24-0x25.7 (2)
0x0020|                  81                           |      .         |          size: 1 0x26-0x26.7 (1)
0x0020|                     02                        |       .        |          value: 2 0x27-0x27.7 (1)
      |                                               |                |    [1]: element {} 0x28-0x1785.7 (5982)
      |                                               |                |      type: "master" (7) 0x28-NA (0)
0x0020|                        18 53 80 67            |        .S.g    |      id: "Segment" (0x18538067) 0x28-0x2b.7 (4)
0x0020|                                    01 00 00 00|            ....|      size: 5970 0x2c-0x33.7 (8)
0x0030|00 00 17 52                                    |...R            |
      |                                               |                |      elements: [7] 0x34-0x1785.7 (5970)
      |                                               |                |        [0]: element {} 0x34-0x78.7 (69)
      |                                               |                |          type: "master" (7) 0x34-NA (0)
0x0030|            11 4d 9b 74                        |    .M.t        |          id: "SeekHead" (0x114d9b74) 0x34-0x37.7 (4)
0x0030|                        c0                     |        .       |          size: 64 0x38-0x38.7 (1)
      |                                               |                |          elements: [5] 0x39-0x78.7 (64)
      |                                               |                |            [0]: element {} 0x39-0x3e.7 (6)
      |                                               |                |              type: "binary" (6) 0x39-NA (0)
0x0030|                           bf                  |         .      |              id: "CRC-32" (0xbf) 0x39-0x39.7 (1)
0x0030|                              84               |          .     |              size: 4 0x3a-0x3a.7 (1)
0x0030|                                 bc 1f 24 7a   |           ..$z |              value: bc1f247a 0x3b-0x3e.7 (4)
      |                                               |                |            [1]: element {} 0x3f-0x4c.7 (14)
      |                                               |                |              type: "master" (7) 0x3f-NA (0)
0x0030|                                             4d|               M|              id: "Seek" (0x4dbb) 0x3f-0x40.7 (2)
0x0040|bb                                             |.               |
0x0040|   8b                                          | .              |              size: 11 0x41-0x41.7 (1)
      |                                               |                |              elements: [2] 0x42-0x4c.7 (11)
      |                                               |                |                [0]: element {} 0x42-0x48.7 (7)
      |                                               |                |                  type: "binary" (6) 0x42-NA (0)
0x0040|      53 ab                                    |  S.            |                  id: "SeekID" (0x53ab) 0x42-0x43.7 (2)
0x0040|            84                                 |    .           |                  size: 4 0x44-0x44.7 (1)
0x0040|               15 49 a9 66                     |     .I.f       |                  value: 1549a966 0x45-0x48.7 (4)
      |                                               |                |                [1]: element {} 0x49-0x4c.7 (4)
      |                                               |                |                  type: "uinteger" (1) 0x49-NA (0)
0x0040|                           53 ac               |         S.     |                  id: "SeekPosition" (0x53ac) 0x49-0x4a.7 (2)
0x0040|                                 81            |           .    |                  size: 1 0x4b-0x4b.7 (1)
0x0040|                                    a1         |            .   |                  value: 161 0x4c-0x4c.7 (1)
      |                                               |                |            [2]: element {} 0x4d-0x5a.7 (14)
      |                                               |                |              type: "master" (7) 0x4d-NA (0)
0x0040|                                       4d bb   |             M. |              id: "Seek" (0x4dbb) 0x4d-0x4e.7 (2)
0x0040|                                             8b|               .|              size: 11 0x4f-0x4f.7 (1)
      |                                               |                |              elements: [2] 0x50-0x5a.7 (11)
      |                                               |                |                [0]: element {} 0x50-0x56.7 (7)
      |                                               |                |                  type: "binary" (6) 0x50-NA (0)
0x0050|53 ab                                          |S.              |                  id: "SeekID" (0x53ab) 0x50-0x51.7 (2)
0x0050|      84                                       |  .             |                  size: 4 0x52-0x52.7 (1)
0x0050|         16 54 ae 6b                           |   .T.k         |                  value: 1654ae6b 0x53-0x56.7 (4)
      |                                               |                |                [1]: element {} 0x57-0x5a.7 (4)
      |                                               |                |                  type: "uinteger" (1) 0x57-NA (0)
0x0050|                     53 ac                     |       S.       |                  id: "SeekPosition" (0x53ac) 0x57-0x58.7 (2)
0x0050|                           81                  |         .      |                  size: 1 0x59-0x59.7 (1)
0x0050|                              f1               |          .     |                  value: 241 0x5a-0x5a.7 (1)
      |                                               |                |            [3]: element {} 0x5b-0x69.7 (15)
      |                                               |                |              type: "master" (7) 0x5b-NA (0)
0x0050|                                 4d bb         |           M.   |              id: "Seek" (0x4dbb) 0x5b-0x5c.7 (2)
0x0050|                                       8c      |             .  |              size: 12 0x5d-0x5d.7 (1)
      |                                               |                |              elements: [2] 0x5e-0x69.7 (12)
      |                                               |                |                [0]: element {} 0x5e-0x64.7 (7)
      |                                               |                |                  type: "binary" (6) 0x5e-NA (0)
0x0050|                                          53 ab|              S.|                  id: "SeekID" (0x53ab) 0x5e-0x5f.7 (2)
0x0060|84                                             |.               |                  size: 4 0x60-0x60.7 (1)
0x0060|   12 54 c3 67                                 | .T.g           |                  value: 1254c367 0x61-0x64.7 (4)
      |                                               |                |                [1]: element {} 0x65-0x69.7 (5)
      |                                               |                |                  type: "uinteger" (1) 0x65-NA (0)
0x0060|               53 ac                           |     S.         |                  id: "SeekPosition" (0x53ac) 0x65-0x66.7 (2)
0x0060|                     82                        |       .        |                  size: 2 0x67-0x67.7 (1)
0x0060|                        01 3f                  |        .?      |                  value: 319 0x68-0x69.7 (2)
      |                                               |                |            [4]: element {} 0x6a-0x78.7 (15)
      |                                               |                |              type: "master" (7) 0x6a-NA (0)
0x0060|                              4d bb            |          M.    |              id: "Seek" (0x4dbb) 0x6a-0x6b.7 (2)
0x0060|                                    8c         |            .   |              size: 12 0x6c-0x6c.7 (1)
      |                                               |                |              elements: [2] 0x6d-0x78.7 (12)
      |                                               |                |                [0]: element {} 0x6d-0x73.7 (7)
      |                                               |                |                  type: "binary" (6) 0x6d-NA (0)
0x0060|                                       53 ab   |             S. |                  id: "SeekID" (0x53ab) 0x6d-0x6e.7 (2)
0x0060|                                             84|               .|                  size: 4 0x6f-0x6f.7 (1)
0x0070|1c 53 bb 6b                                    |.S.k            |                  value: 1c53bb6b 0x70-0x73.7 (4)
      |                                               |                |                [1]: element {} 0x74-0x78.7 (5)
      |                                               |                |                  type: "uinteger" (1) 0x74-NA (0)
0x0070|            53 ac                              |    S.          |                  id: "SeekPosition" (0x53ac) 0x74-0x75.7 (2)
0x0070|                  82                           |      .         |                  size: 2 0x76-0x76.7 (1)
0x0070|                     17 36                     |       .6       |                  value: 5942 0x77-0x78.7 (2)
      |                                               |                |        [1]: element {} 0x79-0xd4.7 (92)
      |                                               |                |          type: "binary" (6) 0x79-NA (0)
0x0070|                           ec                  |         .      |          id: "Void" (0xec) 0x79-0x79.7 (1)
0x0070|                              01 00 00 00 00 00|          ......|          size: 83 0x7a-0x81.7 (8)
0x0080|00 53                                          |.S              |
0x0080|      00 00 00 00 00 00 00 00 00 00 00 00 00 00|  ..............|          value: 00000000000000000000000000000000... 0x82-0xd4.7 (83)
0x0090|00 00 00 00 00 00 00 00 00 00 00 00 00 00 00 00|................|
*     |until 0xd4.7 (83)                              |                |
      |                                               |                |        [2]: element {} 0xd5-0x124.7 (80)
      |                                               |                |          type: "master" (7) 0xd5-NA (0)
0x00d0|               15 49 a9 66                     |     .I.f       |          id: "Info" (0x1549a966) 0xd5-0xd8.7 (4)
0x00d0|                           cb                  |         .      |          size: 75 0xd9-0xd9.7 (1)
      |                                               |                |          elements: [6] 0xda-0x124.7 (75)
      |                                               |                |            [0]: element {} 0xda-0xdf.7 (6)
      |                                               |                |              type: "binary" (6) 0xda-NA (0)
0x00d0|                              bf               |          .     |              id: "CRC-32" (0xbf) 0xda-0xda.7 (1)
0x00d0|                                 84            |           .    |              size: 4 0xdb-0xdb.7 (1)
0x00d0|                                    0e 34 97 a1|            .4..|              value: 0e3497a1 0xdc-0xdf.7 (4)
      |                                               |                |            [1]: element {} 0xe0-0xe6.7 (7)
      |                                               |                |              type: "uinteger" (1) 0xe0-NA (0)
0x00e0|2a d7 b1                                       |*..             |              id: "TimestampScale" (0x2ad7b1) 0xe0-0xe2.7 (3)
0x00e0|         83                                    |   .            |              size: 3 0xe3-0xe3.7 (1)
0x00e0|            0f 42 40                           |    .B@         |              value: 1000000 0xe4-0xe6.7 (3)
      |                                               |                |            [2]: element {} 0xe7-0xf6.7 (16)
      |                                               |                |              type: "UTF8" (4) 0xe7-NA (0)
0x00e0|                     4d 80                     |       M.       |              id: "MuxingApp" (0x4d80) 0xe7-0xe8.7 (2)
0x00e0|                           8d                  |         .      |              size: 13 0xe9-0xe9.7 (1)
0x00e0|                              4c 61 76 66 35 38|          Lavf58|              value: "Lavf58.45.100" 0xea-0xf6.7 (13)
0x00f0|2e 34 35 2e 31 30 30                           |.45.100         |
      |                                               |                |            [3]: element {} 0xf7-0x106.7 (16)
      |                                               |                |              type: "UTF8" (4) 0xf7-NA (0)
0x00f0|                     57 41                     |       WA       |              id: "WritingApp" (0x5741) 0xf7-0xf8.7 (2)
0x00f0|                           8d                  |         .      |              size: 13 0xf9-0xf9.7 (1)
0x00f0|                              4c 61 76 66 35 38|          Lavf58|              value: "Lavf58.45.100" 0xfa-0x106.7 (13)
0x0100|2e 34 35 2e 31 30 30                           |.45.100         |
      |                                               |                |            [4]: element {} 0x107-0x119.7 (19)
      |                                               |                |              type: "binary" (6) 0x107-NA (0)
0x0100|                     73 a4                     |       s.       |              id: "SegmentUID" (0x73a4) 0x107-0x108.7 (2)
0x0100|                           90                  |         .      |              size: 16 0x109-0x109.7 (1)
0x0100|                              79 44 d8 c6 65 1a|          yD..e.|              value: 7944d8c6651a1e7ddf9a1f2dd521ec93 0x10a-0x119.7 (16)
0x0110|1e 7d df 9a 1f 2d d5 21 ec 93                  |.}...-.!..      |
      |                                               |                |            [5]: element {} 0x11a-0x124.7 (11)
      |                                               |                |              type: "float" (2) 0x11a-NA (0)
0x0110|                              44 89            |          D.    |              id: "Duration" (0x4489) 0x11a-0x11b.7 (2)
0x0110|                                    88         |            .   |              size: 8 0x11c-0x11c.7 (1)
0x0110|                                       40 44 00|             @D.|              value: 40 0x11d-0x124.7 (8)
0x0120|00 00 00 00 00                                 |.....           |
      |                                               |                |        [3]: element {} 0x125-0x172.7 (78)
      |                                               |                |          type: "master" (7) 0x125-NA (0)
0x0120|               16 54 ae 6b                     |     .T.k       |          id: "Tracks" (0x1654ae6b) 0x125-0x128.7 (4)
0x0120|                           c9                  |         .      |          size: 73 0x129-0x129.7 (1)
      |                                               |                |          elements: [2] 0x12a-0x172.7 (73)
      |                                               |                |            [0]: element {} 0x12a-0x12f.7 (6)
      |                                               |                |              type: "binary" (6) 0x12a-NA (0)
0x0120|                              bf               |          .     |              id: "CRC-32" (0xbf) 0x12a-0x12a.7 (1)
0x0120|                                 84            |           .    |              size: 4 0x12b-0x12b.7 (1)
0x0120|                                    11 c5 1b 5b|            ...[|              value: 11c51b5b 0x12c-0x12f.7 (4)
      |                                               |                |            [1]: element {} 0x130-0x172.7 (67)
      |                                               |                |              type: "master" (7) 0x130-NA (0)
0x0130|ae                                             |.               |              id: "TrackEntry" (0xae) 0x130-0x130.7 (1)
0x0130|   01 00 00 00 00 00 00 3a                     | .......:       |              size: 58 0x131-0x138.7 (8)
      |                                               |                |              elements: [8] 0x139-0x172.7 (58)
      |                                               |                |                [0]: element {} 0x139-0x13b.7 (3)
      |                                               |                |                  type: "uinteger" (1) 0x139-NA (0)
0x0130|                           d7                  |         .      |                  id: "TrackNumber" (0xd7) 0x139-0x139.7 (1)
0x0130|                              81               |          .     |                  size: 1 0x13a-0x13a.7 (1)
0x0130|                                 01            |           .    |                  value: 1 0x13b-0x13b.7 (1)
      |                                               |                |                [1]: element {} 0x13c-0x146.7 (11)
      |                                               |                |                  type: "uinteger" (1) 0x13c-NA (0)
0x0130|                                    73 c5      |            s.  |                  id: "TrackUID" (0x73c5) 0x13c-0x13d.7 (2)
0x0130|                                          88   |              . |                  size: 8 0x13e-0x13e.7 (1)
0x0130|                                             3e|               >|                  value: 4477069849203489639 0x13f-0x146.7 (8)
0x0140|21 bf 4e ac 62 bb 67                           |!.N.b.g         |
      |                                               |                |                [2]: element {} 0x147-0x149.7 (3)
      |                                               |                |                  type: "uinteger" (1) 0x147-NA (0)
0x0140|                     9c                        |       .        |                  id: "FlagLacing" (0x9c) 0x147-0x147.7 (1)
0x0140|                        81                     |        .       |                  size: 1 0x148-0x148.7 (1)
0x0140|                           00                  |         .      |                  value: 0 0x149-0x149.7 (1)
      |                                               |                |                [3]: element {} 0x14a-0x150.7 (7)
      |                                               |                |                  type: "string" (3) 0x14a-NA (0)
0x0140|                              22 b5 9c         |          "..   |                  id: "Language" (0x22b59c) 0x14a-0x14c.7 (3)
0x0140|                                       83      |             .  |                  size: 3 0x14d-0x14d.7 (1)
0x0140|                                          75 6e|              un|                  value: "und" 0x14e-0x150.7 (3)
0x0150|64                                             |d               |
      |                                               |                |                [4]: element {} 0x151-0x157.7 (7)
      |                                               |                |                  type: "string" (3) 0x151-NA (0)
0x0150|   86                                          | .              |                  id: "CodecID" (0x86) 0x151-0x151.7 (1)
0x0150|      85                                       |  .             |                  size: 5 0x152-0x152.7 (1)
0x0150|         56 5f 56 50 39                        |   V_VP9        |                  value: "V_VP9" 0x153-0x157.7 (5)
      |                                               |                |                [5]: element {} 0x158-0x15a.7 (3)
      |                                               |                |                  type: "uinteger" (1) 0x158-NA (0)
0x0150|                        83                     |        .       |                  id: "TrackType" (0x83) 0x158-0x158.7 (1)
0x0150|                           81                  |         .      |                  size: 1 0x159-0x159.7 (1)
0x0150|                              01               |          .     |                  value: "video" (1) 0x15a-0x15a.7 (1)
      |                                               |                |                [6]: element {} 0x15b-0x162.7 (8)
      |                                               |                |                  type: "uinteger" (1) 0x15b-NA (0)
0x0150|                                 23 e3 83      |           #..  |                  id: "DefaultDuration" (0x23e383) 0x15b-0x15d.7 (3)
0x0150|                                          84   |              . |                  size: 4 0x15e-0x15e.7 (1)
0x0150|                                             02|               .|                  value: 40000000 0x15f-0x162.7 (4)
0x0160|62 5a 00                                       |bZ.             |
      |                                               |                |                [7]: element {} 0x163-0x172.7 (16)
      |                                               |                |                  type: "master" (7) 0x163-NA (0)
0x0160|         e0                                    |   .            |                  id: "Video" (0xe0) 0x163-0x163.7 (1)
0x0160|            01 00 00 00 00 00 00 07            |    ........    |                  size: 7 0x164-0x16b.7 (8)
      |                                               |                |                  elements: [2] 0x16c-0x172.7 (7)
      |                                               |                |                    [0]: element {} 0x16c-0x16f.7 (4)
      |                                               |                |                      type: "uinteger" (1) 0x16c-NA (0)
0x0160|                                    b0         |            .   |                      id: "PixelWidth" (0xb0) 0x16c-0x16c.7 (1)
0x0160|                                       82      |             .  |                      size: 2 0x16d-0x16d.7 (1)
0x0160|                                          01 40|              .@|                      value: 320 0x16e-0x16f.7 (2)
      |                                               |                |                    [1]: element {} 0x170-0x172.7 (3)
      |                                               |                |                      type: "uinteger" (1) 0x170-NA (0)
0x0170|ba                                             |.               |                      id: "PixelHeight" (0xba) 0x170-0x170.7 (1)
0x0170|   81                                          | .              |                      size: 1 0x171-0x171.7 (1)
0x0170|      f0                                       |  .             |                      value: 240 0x172-0x172.7 (1)
      |                                               |                |        [4]: element {} 0x173-0x21b.7 (169)
      |                                               |                |          type: "master" (7) 0x173-NA (0)
0x0170|         12 54 c3 67                           |   .T.g         |          id: "Tags" (0x1254c367) 0x173-0x176.7 (4)
0x0170|                     40 a3                     |       @.       |          size: 163 0x177-0x178.7 (2)
      |                                               |                |          elements: [3] 0x179-0x21b.7 (163)
      |                                               |                |            [0]: element {} 0x179-0x17e.7 (6)
      |                                               |                |              type: "binary" (6) 0x179-NA (0)
0x0170|                           bf                  |         .      |              id: "CRC-32" (0xbf) 0x179-0x179.7 (1)
0x0170|                              84               |          .     |              size: 4 0x17a-0x17a.7 (1)
0x0170|                                 0f 63 70 88   |           .cp. |              value: 0f637088 0x17b-0x17e.7 (4)
      |                                               |                |            [1]: element {} 0x17f-0x1af.7 (49)
      |                                               |                |              type: "master" (7) 0x17f-NA (0)
0x0170|                                             73|               s|              id: "Tag" (0x7373) 0x17f-0x180.7 (2)
0x0180|73                                             |s               |
0x0180|   01 00 00 00 00 00 00 27                     | .......'       |              size: 39 0x181-0x188.7 (8)
      |                                               |                |              elements: [2] 0x189-0x1af.7 (39)
      |                                               |                |                [0]: element {} 0x189-0x18b.7 (3)
      |                                               |                |                  type: "master" (7) 0x189-NA (0)
0x0180|                           63 c0               |         c.     |                  id: "Targets" (0x63c0) 0x189-0x18a.7 (2)
0x0180|                                 80            |           .    |                  size: 0 0x18b-0x18b.7 (1)
      |                                               |                |                  elements: [0] 0x18c-NA (0)
      |                                               |                |                [1]: element {} 0x18c-0x1af.7 (36)
      |                                               |                |                  type: "master" (7) 0x18c-NA (0)
0x0180|                                    67 c8      |            g.  |                  id: "SimpleTag" (0x67c8) 0x18c-0x18d.7 (2)
0x0180|                                          01 00|              ..|                  size: 26 0x18e-0x195.7 (8)
0x0190|00 00 00 00 00 1a                              |......          |
      |                                               |                |                  elements: [2] 0x196-0x1af.7 (26)
      |                                               |                |                    [0]: element {} 0x196-0x19f.7 (10)
      |                                               |                |                      type: "UTF8" (4) 0x196-NA (0)
0x0190|                  45 a3                        |      E.        |                      id: "TagName" (0x45a3) 0x196-0x197.7 (2)
0x0190|                        87                     |        .       |                      size: 7 0x198-0x198.7 (1)
0x0190|                           45 4e 43 4f 44 45 52|         ENCODER|                      value: "ENCODER" 0x199-0x19f.7 (7)
      |                                               |                |                    [1]: element {} 0x1a0-0x1af.7 (16)
      |                                               |                |                      type: "UTF8" (4) 0x1a0-NA (0)
0x01a0|44 87                                          |D.              |                      id: "TagString" (0x4487) 0x1a0-0x1a1.7 (2)
0x01a0|      8d                                       |  .             |                      size: 13 0x1a2-0x1a2.7 (1)
0x01a0|         4c 61 76 66 35 38 2e 34 35 2e 31 30 30|   Lavf58.45.100|                      value: "Lavf58.45.100" 0x1a3-0x1af.7 (13)
      |                                               |                |            [2]: element {} 0x1b0-0x21b.7 (108)
      |                                               |                |              type: "master" (7) 0x1b0-NA (0)
0x01b0|73 73                                          |ss              |              id: "Tag" (0x7373) 0x1b0-0x1b1.7 (2)
0x01b0|      01 00 00 00 00 00 00 62                  |  .......b      |              size: 98 0x1b2-0x1b9.7 (8)
      |                                               |                |              elements: [3] 0x1ba-0x21b.7 (98)
      |                                               |                |                [0]: element {} 0x1ba-0x1c7.7 (14)
      |                                               |                |                  type: "master" (7) 0x1ba-NA (0)
0x01b0|                              63 c0            |          c.    |                  id: "Targets" (0x63c0) 0x1ba-0x1bb.7 (2)
0x01b0|                                    8b         |            .   |                  size: 11 0x1bc-0x1bc.7 (1)
      |                                               |                |                  elements: [1] 0x1bd-0x1c7.7 (11)
      |                                               |                |                    [0]: element {} 0x1bd-0x1c7.7 (11)
      |                                               |                |                      type: "uinteger" (1) 0x1bd-NA (0)
0x01b0|                                       63 c5   |             c. |                      id: "TagTrackUID" (0x63c5) 0x1bd-0x1be.7 (2)
0x01b0|                                             88|               .|                      size: 8 0x1bf-0x1bf.7 (1)
0x01c0|3e 21 bf 4e ac 62 bb 67                        |>!.N.b.g        |                      value: 4477069849203489639 0x1c0-0x1c7.7 (8)
      |                                               |                |                [1]: element {} 0x1c8-0x1f6.7 (47)
      |                                               |                |                  type: "master" (7) 0x1c8-NA (0)
0x01c0|                        67 c8                  |        g.      |                  id: "SimpleTag" (0x67c8) 0x1c8-0x1c9.7 (2)
0x01c0|                              01 00 00 00 00 00|          ......|                  size: 37 0x1ca-0x1d1.7 (8)
0x01d0|00 25                                          |.%              |
      |                                               |                |                  elements: [2] 0x1d2-0x1f6.7 (37)
      |                                               |                |                    [0]: element {} 0x1d2-0x1db.7 (10)
      |                                               |                |                      type: "UTF8" (4) 0x1d2-NA (0)
0x01d0|      45 a3                                    |  E.            |                      id: "TagName" (0x45a3) 0x1d2-0x1d3.7 (2)
0x01d0|            87                                 |    .           |                      size: 7 0x1d4-0x1d4.7 (1)
0x01d0|               45 4e 43 4f 44 45 52            |     ENCODER    |                      value: "ENCODER" 0x1d5-0x1db.7 (7)
      |                                               |                |                    [1]: element {} 0x1dc-0x1f6.7 (27)
      |                                               |                |                      type: "UTF8" (4) 0x1dc-NA (0)
0x01d0|                                    44 87      |            D.  |                      id: "TagString" (0x4487) 0x1dc-0x1dd.7 (2)
0x01d0|                                          98   |              . |                      size: 24 0x1de-0x1de.7 (1)
0x01d0|                                             4c|               L|                      value: "Lavc58.91.100 libvpx-vp9" 0x1df-0x1f6.7 (24)
0x01e0|61 76 63 35 38 2e 39 31 2e 31 30 30 20 6c 69 62|avc58.91.100 lib|
0x01f0|76 70 78 2d 76 70 39                           |vpx-vp9         |
      |                                               |                |                [2]: element {} 0x1f7-0x21b.7 (37)
      |                                               |                |                  type: "master" (7) 0x1f7-NA (0)
0x01f0|                     67 c8                     |       g.       |                  id: "SimpleTag" (0x67c8) 0x1f7-0x1f8.7 (2)
0x01f0|                           a2                  |         .      |                  size: 34 0x1f9-0x1f9.7 (1)
      |                                               |                |                  elements: [2] 0x1fa-0x21b.7 (34)
      |                                               |                |                    [0]: element {} 0x1fa-0x204.7 (11)
      |                                               |                |                      type: "UTF8" (4) 0x1fa-NA (0)
0x01f0|                              45 a3            |          E.    |                      id: "TagName" (0x45a3) 0x1fa-0x1fb.7 (2)
0x01f0|                                    88         |            .   |                      size: 8 0x1fc-0x1fc.7 (1)
0x01f0|                                       44 55 52|             DUR|                      value: "DURATION" 0x1fd-0x204.7 (8)
0x0200|41 54 49 4f 4e                                 |ATION           |
      |                                               |                |                    [1]: element {} 0x205-0x21b.7 (23)
      |                                               |                |                      type: "UTF8" (4) 0x205-NA (0)
0x0200|               44 87                           |     D.         |                      id: "TagString" (0x4487) 0x205-0x206.7 (2)
0x0200|                     94                        |       .        |                      size: 20 0x207-0x207.7 (1)
0x0200|                        30 30 3a 30 30 3a 30 30|        00:00:00|                      value: "00:00:00.040000000" 0x208-0x21b.7 (20)
0x0210|2e 30 34 30 30 30 30 30 30 30 00 00            |.040000000..    |
      |                                               |                |        [5]: element {} 0x21c-0x1769.7 (5454)
      |                                               |                |          type: "master" (7) 0x21c-NA (0)
0x0210|                                    1f 43 b6 75|            .C.u|          id: "Cluster" (0x1f43b675) 0x21c-0x21f.7 (4)
0x0220|55 48                                          |UH              |          size: 5448 0x220-0x221.7 (2)
      |                                               |                |          elements: [3] 0x222-0x1769.7 (5448)
      |                                               |                |            [0]: element {} 0x222-0x227.7 (6)
      |                                               |                |              type: "binary" (6) 0x222-NA (0)
0x0220|      bf                                       |  .             |              id: "CRC-32" (0xbf) 0x222-0x222.7 (1)
0x0220|         84                                    |   .            |              size: 4 0x223-0x223.7 (1)
0x0220|            d6 e8 e7 68                        |    ...h        |              value: d6e8e768 0x224-0x227.7 (4)
      |                                               |                |            [1]: element {} 0x228-0x22a.7 (3)
      |                                               |                |              type: "uinteger" (1) 0x228-NA (0)
0x0220|                        e7                     |        .       |              id: "Timestamp" (0xe7) 0x228-0x228.7 (1)
0x0220|                           81                  |         .      |              size: 1 0x229-0x229.7 (1)
0x0220|                              00               |          .     |              value: 0 0x22a-0x22a.7 (1)
      |                                               |                |            [2]: element {} 0x22b-0x1769.7 (5439)
      |                                               |                |              type: "binary" (6) 0x22b-NA (0)
0x0220|                                 a3            |           .    |              id: "SimpleBlock" (0xa3) 0x22b-0x22b.7 (1)
0x0220|                                    55 3c      |            U<  |              size: 5436 0x22c-0x22d.7 (2)
0x0220|                                          81   |              . |              track_number: 1 0x22e-0x22e.7 (1)
0x0220|                                             00|               .|              timestamp: 0 0x22f-0x230.7 (2)
0x0230|00                                             |.               |
      |                                               |                |              flags: {} 0x231-0x231.7 (1)
0x0230|   80                                          | .              |                key_frame: true 0x231-0x231 (0.1)
0x0230|   80                                          | .              |                reserved: 0 0x231.1-0x231.3 (0.3)
0x0230|   80                                          | .              |                invisible: false 0x231.4-0x231.4 (0.1)
0x0230|   80                                          | .              |                lacing: 0 0x231.5-0x231.6 (0.2)
0x0230|   80                                          | .              |                discardable: false 0x231.7-0x231.7 (0.1)
      |                                               |                |              packet: {} (vp9_frame) 0x232-0x1769.7 (5432)
0x0230|      a2                                       |  .             |                frame_marker: 2 0x232-0x232.1 (0.2)
0x0230|      a2                                       |  .             |                profile_low_bit: 1 0x232.2-0x232.2 (0.1)
0x0230|      a2                                       |  .             |                profile_high_bit: 0 0x232.3-0x232.3 (0.1)
      |                                               |                |                profile: 1 0x232.4-NA (0)
0x0230|      a2                                       |  .             |                show_existing_frame: false 0x232.4-0x232.4 (0.1)
0x0230|      a2                                       |  .             |                frame_type: "key_frame" (false) 0x232.5-0x232.5 (0.1)
0x0230|      a2                                       |  .             |                show_frame: 1 0x232.6-0x232.6 (0.1)
0x0230|      a2                                       |  .             |                error_resilient_mode: 0 0x232.7-0x232.7 (0.1)
0x0230|         49                                    |   I            |                frame_sync_byte_0: 73 0x233-0x233.7 (1)
0x0230|            83                                 |    .           |                frame_sync_byte_1: 131 0x234-0x234.7 (1)
0x0230|               42                              |     B          |                frame_sync_byte_2: 66 0x235-0x235.7 (1)
      |                                               |                |                bit_depth: 8 0x236-NA (0)
0x0230|                  e0                           |      .         |                color_space: "CS_RGB" (7) 0x236-0x236.2 (0.3)
      |                                               |                |                color_range: 1 0x236.3-NA (0)
      |                                               |                |                subsampling_x: 0 0x236.3-NA (0)
      |                                               |                |                subsampling_y: 0 0x236.3-NA (0)
0x0230|                  e0                           |      .         |                reserved_zero: 0 0x236.3-0x236.3 (0.1)
0x0230|                  e0 13 f0                     |      ...       |                frame_width: 320 0x236.4-0x238.3 (2)
0x0230|                        f0 0e f6               |        ...     |                frame_height: 240 0x238.4-0x23a.3 (2)
0x0230|                              f6 0a 38 24 1c 18|          ..8$..|                data: 60a38241c184a000b707fd9f9be8fe77... 0x23a.4-0x1769.7 (5423.4)
0x0240|4a 00 0b 70 7f d9 f9 be 8f e7 71 ff 5f 97 ef c3|J..p......q._...|
*     |until 0x1769.7 (5424)                          |                |
      |                                               |                |        [6]: element {} 0x176a-0x1785.7 (28)
      |                                               |                |          type: "master" (7) 0x176a-NA (0)
0x1760|                              1c 53 bb 6b      |          .S.k  |          id: "Cues" (0x1c53bb6b) 0x176a-0x176d.7 (4)
0x1760|                                          97   |              . |          size: 23 0x176e-0x176e.7 (1)
      |                                               |                |          elements: [2] 0x176f-0x1785.7 (23)
      |                                               |                |            [0]: element {} 0x176f-0x1774.7 (6)
      |                                               |                |              type: "binary" (6) 0x176f-NA (0)
0x1760|                                             bf|               .|              id: "CRC-32" (0xbf) 0x176f-0x176f.7 (1)
0x1770|84                                             |.               |              size: 4 0x1770-0x1770.7 (1)
0x1770|   24 c2 5b 2b                                 | $.[+           |              value: 24c25b2b 0x1771-0x1774.7 (4)
      |                                               |                |            [1]: element {} 0x1775-0x1785.7 (17)
      |                                               |                |              type: "master" (7) 0x1775-NA (0)
0x1770|               bb                              |     .          |              id: "CuePoint" (0xbb) 0x1775-0x1775.7 (1)
0x1770|                  8f                           |      .         |              size: 15 0x1776-0x1776.7 (1)
      |                                               |                |              elements: [2] 0x1777-0x1785.7 (15)
      |                                               |                |                [0]: element {} 0x1777-0x1779.7 (3)
      |                                               |                |                  type: "uinteger" (1) 0x1777-NA (0)
0x1770|                     b3                        |       .        |                  id: "CueTime" (0xb3) 0x1777-0x1777.7 (1)
0x1770|                        81                     |        .       |                  size: 1 0x1778-0x1778.7 (1)
0x1770|                           00                  |         .      |                  value: 0 0x1779-0x1779.7 (1)
      |                                               |                |                [1]: element {} 0x177a-0x1785.7 (12)
      |                                               |                |                  type: "master" (7) 0x177a-NA (0)
0x1770|                              b7               |          .     |                  id: "CueTrackPositions" (0xb7) 0x177a-0x177a.7 (1)
0x1770|                                 8a            |           .    |                  size: 10 0x177b-0x177b.7 (1)
      |                                               |                |                  elements: [3] 0x177c-0x1785.7 (10)
      |                                               |                |                    [0]: element {} 0x177c-0x177e.7 (3)
      |                                               |                |                      type: "uinteger" (1) 0x177c-NA (0)
0x1770|                                    f7         |            .   |                      id: "CueTrack" (0xf7) 0x177c-0x177c.7 (1)
0x1770|                                       81      |             .  |                      size: 1 0x177d-0x177d.7 (1)
0x1770|                                          01   |              . |                      value: 1 0x177e-0x177e.7 (1)
      |                                               |                |                    [1]: element {} 0x177f-0x1782.7 (4)
      |                                               |                |                      type: "uinteger" (1) 0x177f-NA (0)
0x1770|                                             f1|               .|                      id: "CueClusterPosition" (0xf1) 0x177f-0x177f.7 (1)
0x1780|82                                             |.               |                      size: 2 0x1780-0x1780.7 (1)
0x1780|   01 e8                                       | ..             |                      value: 488 0x1781-0x1782.7 (2)
      |                                               |                |                    [2]: element {} 0x1783-0x1785.7 (3)
      |                                               |                |                      type: "uinteger" (1) 0x1783-NA (0)
0x1780|         f0                                    |   .            |                      id: "CueRelativePosition" (0xf0) 0x1783-0x1783.7 (1)
0x1780|            81                                 |    .           |                      size: 1 0x1784-0x1784.7 (1)
0x1780|               09|                             |     .|         |                      value: 9 0x1785-0x1785.7 (1)
