# ffmpeg -f lavfi -i testsrc -c:v vp9 -f matroska -t 50ms vp9.mkv
$ fq -d matroska dv vp9.mkv
      |00 01 02 03 04 05 06 07 08 09 0a 0b 0c 0d 0e 0f|0123456789abcdef|.{}: vp9.mkv (matroska) 0x0-0x1785.7 (6022)
      |                                               |                |  elements[0:2]: 0x0-0x1785.7 (6022)
      |                                               |                |    [0]{}: element 0x0-0x27.7 (40)
0x0000|1a 45 df a3                                    |.E..            |      id: "ebml" (0x1a45dfa3) 0x0-0x3.7 (4)
      |                                               |                |      type: "master" 0x4-NA (0)
0x0000|            a3                                 |    .           |      size: 35 0x4-0x4.7 (1)
      |                                               |                |      elements[0:7]: 0x5-0x27.7 (35)
      |                                               |                |        [0]{}: element 0x5-0x8.7 (4)
0x0000|               42 86                           |     B.         |          id: "ebml_version" (0x4286) 0x5-0x6.7 (2)
      |                                               |                |          type: "uinteger" 0x7-NA (0)
0x0000|                     81                        |       .        |          size: 1 0x7-0x7.7 (1)
0x0000|                        01                     |        .       |          value: 1 0x8-0x8.7 (1)
      |                                               |                |        [1]{}: element 0x9-0xc.7 (4)
0x0000|                           42 f7               |         B.     |          id: "ebml_read_version" (0x42f7) 0x9-0xa.7 (2)
      |                                               |                |          type: "uinteger" 0xb-NA (0)
0x0000|                                 81            |           .    |          size: 1 0xb-0xb.7 (1)
0x0000|                                    01         |            .   |          value: 1 0xc-0xc.7 (1)
      |                                               |                |        [2]{}: element 0xd-0x10.7 (4)
0x0000|                                       42 f2   |             B. |          id: "ebml_max_id_length" (0x42f2) 0xd-0xe.7 (2)
      |                                               |                |          type: "uinteger" 0xf-NA (0)
0x0000|                                             81|               .|          size: 1 0xf-0xf.7 (1)
0x0010|04                                             |.               |          value: 4 0x10-0x10.7 (1)
      |                                               |                |        [3]{}: element 0x11-0x14.7 (4)
0x0010|   42 f3                                       | B.             |          id: "ebml_max_size_length" (0x42f3) 0x11-0x12.7 (2)
      |                                               |                |          type: "uinteger" 0x13-NA (0)
0x0010|         81                                    |   .            |          size: 1 0x13-0x13.7 (1)
0x0010|            08                                 |    .           |          value: 8 0x14-0x14.7 (1)
      |                                               |                |        [4]{}: element 0x15-0x1f.7 (11)
0x0010|               42 82                           |     B.         |          id: "doc_type" (0x4282) 0x15-0x16.7 (2)
      |                                               |                |          type: "string" 0x17-NA (0)
0x0010|                     88                        |       .        |          size: 8 0x17-0x17.7 (1)
0x0010|                        6d 61 74 72 6f 73 6b 61|        matroska|          value: "matroska" 0x18-0x1f.7 (8)
      |                                               |                |        [5]{}: element 0x20-0x23.7 (4)
0x0020|42 87                                          |B.              |          id: "doc_type_version" (0x4287) 0x20-0x21.7 (2)
      |                                               |                |          type: "uinteger" 0x22-NA (0)
0x0020|      81                                       |  .             |          size: 1 0x22-0x22.7 (1)
0x0020|         04                                    |   .            |          value: 4 0x23-0x23.7 (1)
      |                                               |                |        [6]{}: element 0x24-0x27.7 (4)
0x0020|            42 85                              |    B.          |          id: "doc_type_read_version" (0x4285) 0x24-0x25.7 (2)
      |                                               |                |          type: "uinteger" 0x26-NA (0)
0x0020|                  81                           |      .         |          size: 1 0x26-0x26.7 (1)
0x0020|                     02                        |       .        |          value: 2 0x27-0x27.7 (1)
      |                                               |                |    [1]{}: element 0x28-0x1785.7 (5982)
0x0020|                        18 53 80 67            |        .S.g    |      id: "segment" (0x18538067) 0x28-0x2b.7 (4)
      |                                               |                |      type: "master" 0x2c-NA (0)
0x0020|                                    01 00 00 00|            ....|      size: 5970 0x2c-0x33.7 (8)
0x0030|00 00 17 52                                    |...R            |
      |                                               |                |      elements[0:7]: 0x34-0x1785.7 (5970)
      |                                               |                |        [0]{}: element 0x34-0x78.7 (69)
0x0030|            11 4d 9b 74                        |    .M.t        |          id: "seek_head" (0x114d9b74) (Contains the Segment Position of other Top-Level Elements.) 0x34-0x37.7 (4)
      |                                               |                |          type: "master" 0x38-NA (0)
0x0030|                        c0                     |        .       |          size: 64 0x38-0x38.7 (1)
      |                                               |                |          elements[0:5]: 0x39-0x78.7 (64)
      |                                               |                |            [0]{}: element 0x39-0x3e.7 (6)
0x0030|                           bf                  |         .      |              id: "crc32" (0xbf) 0x39-0x39.7 (1)
      |                                               |                |              type: "binary" 0x3a-NA (0)
0x0030|                              84               |          .     |              size: 4 0x3a-0x3a.7 (1)
0x0030|                                 bc 1f 24 7a   |           ..$z |              value: raw bits 0x3b-0x3e.7 (4)
      |                                               |                |            [1]{}: element 0x3f-0x4c.7 (14)
0x0030|                                             4d|               M|              id: "seek" (0x4dbb) (Contains a single seek entry to an EBML Element.) 0x3f-0x40.7 (2)
0x0040|bb                                             |.               |
      |                                               |                |              type: "master" 0x41-NA (0)
0x0040|   8b                                          | .              |              size: 11 0x41-0x41.7 (1)
      |                                               |                |              elements[0:2]: 0x42-0x4c.7 (11)
      |                                               |                |                [0]{}: element 0x42-0x48.7 (7)
0x0040|      53 ab                                    |  S.            |                  id: "seek_id" (0x53ab) (The binary ID corresponding to the Element name.) 0x42-0x43.7 (2)
      |                                               |                |                  type: "binary" 0x44-NA (0)
0x0040|            84                                 |    .           |                  size: 4 0x44-0x44.7 (1)
0x0040|               15 49 a9 66                     |     .I.f       |                  value: raw bits 0x45-0x48.7 (4)
      |                                               |                |                [1]{}: element 0x49-0x4c.7 (4)
0x0040|                           53 ac               |         S.     |                  id: "seek_position" (0x53ac) (The Segment Position of the Element.) 0x49-0x4a.7 (2)
      |                                               |                |                  type: "uinteger" 0x4b-NA (0)
0x0040|                                 81            |           .    |                  size: 1 0x4b-0x4b.7 (1)
0x0040|                                    a1         |            .   |                  value: 161 0x4c-0x4c.7 (1)
      |                                               |                |            [2]{}: element 0x4d-0x5a.7 (14)
0x0040|                                       4d bb   |             M. |              id: "seek" (0x4dbb) (Contains a single seek entry to an EBML Element.) 0x4d-0x4e.7 (2)
      |                                               |                |              type: "master" 0x4f-NA (0)
0x0040|                                             8b|               .|              size: 11 0x4f-0x4f.7 (1)
      |                                               |                |              elements[0:2]: 0x50-0x5a.7 (11)
      |                                               |                |                [0]{}: element 0x50-0x56.7 (7)
0x0050|53 ab                                          |S.              |                  id: "seek_id" (0x53ab) (The binary ID corresponding to the Element name.) 0x50-0x51.7 (2)
      |                                               |                |                  type: "binary" 0x52-NA (0)
0x0050|      84                                       |  .             |                  size: 4 0x52-0x52.7 (1)
0x0050|         16 54 ae 6b                           |   .T.k         |                  value: raw bits 0x53-0x56.7 (4)
      |                                               |                |                [1]{}: element 0x57-0x5a.7 (4)
0x0050|                     53 ac                     |       S.       |                  id: "seek_position" (0x53ac) (The Segment Position of the Element.) 0x57-0x58.7 (2)
      |                                               |                |                  type: "uinteger" 0x59-NA (0)
0x0050|                           81                  |         .      |                  size: 1 0x59-0x59.7 (1)
0x0050|                              f1               |          .     |                  value: 241 0x5a-0x5a.7 (1)
      |                                               |                |            [3]{}: element 0x5b-0x69.7 (15)
0x0050|                                 4d bb         |           M.   |              id: "seek" (0x4dbb) (Contains a single seek entry to an EBML Element.) 0x5b-0x5c.7 (2)
      |                                               |                |              type: "master" 0x5d-NA (0)
0x0050|                                       8c      |             .  |              size: 12 0x5d-0x5d.7 (1)
      |                                               |                |              elements[0:2]: 0x5e-0x69.7 (12)
      |                                               |                |                [0]{}: element 0x5e-0x64.7 (7)
0x0050|                                          53 ab|              S.|                  id: "seek_id" (0x53ab) (The binary ID corresponding to the Element name.) 0x5e-0x5f.7 (2)
      |                                               |                |                  type: "binary" 0x60-NA (0)
0x0060|84                                             |.               |                  size: 4 0x60-0x60.7 (1)
0x0060|   12 54 c3 67                                 | .T.g           |                  value: raw bits 0x61-0x64.7 (4)
      |                                               |                |                [1]{}: element 0x65-0x69.7 (5)
0x0060|               53 ac                           |     S.         |                  id: "seek_position" (0x53ac) (The Segment Position of the Element.) 0x65-0x66.7 (2)
      |                                               |                |                  type: "uinteger" 0x67-NA (0)
0x0060|                     82                        |       .        |                  size: 2 0x67-0x67.7 (1)
0x0060|                        01 3f                  |        .?      |                  value: 319 0x68-0x69.7 (2)
      |                                               |                |            [4]{}: element 0x6a-0x78.7 (15)
0x0060|                              4d bb            |          M.    |              id: "seek" (0x4dbb) (Contains a single seek entry to an EBML Element.) 0x6a-0x6b.7 (2)
      |                                               |                |              type: "master" 0x6c-NA (0)
0x0060|                                    8c         |            .   |              size: 12 0x6c-0x6c.7 (1)
      |                                               |                |              elements[0:2]: 0x6d-0x78.7 (12)
      |                                               |                |                [0]{}: element 0x6d-0x73.7 (7)
0x0060|                                       53 ab   |             S. |                  id: "seek_id" (0x53ab) (The binary ID corresponding to the Element name.) 0x6d-0x6e.7 (2)
      |                                               |                |                  type: "binary" 0x6f-NA (0)
0x0060|                                             84|               .|                  size: 4 0x6f-0x6f.7 (1)
0x0070|1c 53 bb 6b                                    |.S.k            |                  value: raw bits 0x70-0x73.7 (4)
      |                                               |                |                [1]{}: element 0x74-0x78.7 (5)
0x0070|            53 ac                              |    S.          |                  id: "seek_position" (0x53ac) (The Segment Position of the Element.) 0x74-0x75.7 (2)
      |                                               |                |                  type: "uinteger" 0x76-NA (0)
0x0070|                  82                           |      .         |                  size: 2 0x76-0x76.7 (1)
0x0070|                     17 36                     |       .6       |                  value: 5942 0x77-0x78.7 (2)
      |                                               |                |        [1]{}: element 0x79-0xd4.7 (92)
0x0070|                           ec                  |         .      |          id: "void" (0xec) 0x79-0x79.7 (1)
      |                                               |                |          type: "binary" 0x7a-NA (0)
0x0070|                              01 00 00 00 00 00|          ......|          size: 83 0x7a-0x81.7 (8)
0x0080|00 53                                          |.S              |
0x0080|      00 00 00 00 00 00 00 00 00 00 00 00 00 00|  ..............|          value: raw bits 0x82-0xd4.7 (83)
0x0090|00 00 00 00 00 00 00 00 00 00 00 00 00 00 00 00|................|
*     |until 0xd4.7 (83)                              |                |
      |                                               |                |        [2]{}: element 0xd5-0x124.7 (80)
0x00d0|               15 49 a9 66                     |     .I.f       |          id: "info" (0x1549a966) (Contains general information about the Segment.) 0xd5-0xd8.7 (4)
      |                                               |                |          type: "master" 0xd9-NA (0)
0x00d0|                           cb                  |         .      |          size: 75 0xd9-0xd9.7 (1)
      |                                               |                |          elements[0:6]: 0xda-0x124.7 (75)
      |                                               |                |            [0]{}: element 0xda-0xdf.7 (6)
0x00d0|                              bf               |          .     |              id: "crc32" (0xbf) 0xda-0xda.7 (1)
      |                                               |                |              type: "binary" 0xdb-NA (0)
0x00d0|                                 84            |           .    |              size: 4 0xdb-0xdb.7 (1)
0x00d0|                                    0e 34 97 a1|            .4..|              value: raw bits 0xdc-0xdf.7 (4)
      |                                               |                |            [1]{}: element 0xe0-0xe6.7 (7)
0x00e0|2a d7 b1                                       |*..             |              id: "timestamp_scale" (0x2ad7b1) (Base unit for Segment Ticks and Track Ticks, in nanoseconds. A TimestampScale value of 1.000.000 means scaled timestamps in the Segment are expressed in milliseconds; see (#timestamps) on how to interpret timestamps.) 0xe0-0xe2.7 (3)
      |                                               |                |              type: "uinteger" 0xe3-NA (0)
0x00e0|         83                                    |   .            |              size: 3 0xe3-0xe3.7 (1)
0x00e0|            0f 42 40                           |    .B@         |              value: 1000000 0xe4-0xe6.7 (3)
      |                                               |                |            [2]{}: element 0xe7-0xf6.7 (16)
0x00e0|                     4d 80                     |       M.       |              id: "muxing_app" (0x4d80) (Muxing application or library (example: "libmatroska-0.4.3").) 0xe7-0xe8.7 (2)
      |                                               |                |              type: "utf8" 0xe9-NA (0)
0x00e0|                           8d                  |         .      |              size: 13 0xe9-0xe9.7 (1)
0x00e0|                              4c 61 76 66 35 38|          Lavf58|              value: "Lavf58.45.100" 0xea-0xf6.7 (13)
0x00f0|2e 34 35 2e 31 30 30                           |.45.100         |
      |                                               |                |            [3]{}: element 0xf7-0x106.7 (16)
0x00f0|                     57 41                     |       WA       |              id: "writing_app" (0x5741) (Writing application (example: "mkvmerge-0.3.3").) 0xf7-0xf8.7 (2)
      |                                               |                |              type: "utf8" 0xf9-NA (0)
0x00f0|                           8d                  |         .      |              size: 13 0xf9-0xf9.7 (1)
0x00f0|                              4c 61 76 66 35 38|          Lavf58|              value: "Lavf58.45.100" 0xfa-0x106.7 (13)
0x0100|2e 34 35 2e 31 30 30                           |.45.100         |
      |                                               |                |            [4]{}: element 0x107-0x119.7 (19)
0x0100|                     73 a4                     |       s.       |              id: "segment_uid" (0x73a4) (A randomly generated unique ID to identify the Segment amongst many others (128 bits).) 0x107-0x108.7 (2)
      |                                               |                |              type: "binary" 0x109-NA (0)
0x0100|                           90                  |         .      |              size: 16 0x109-0x109.7 (1)
0x0100|                              79 44 d8 c6 65 1a|          yD..e.|              value: raw bits 0x10a-0x119.7 (16)
0x0110|1e 7d df 9a 1f 2d d5 21 ec 93                  |.}...-.!..      |
      |                                               |                |            [5]{}: element 0x11a-0x124.7 (11)
0x0110|                              44 89            |          D.    |              id: "duration" (0x4489) (Duration of the Segment, expressed in Segment Ticks which is based on TimestampScale; see (#timestamp-ticks).) 0x11a-0x11b.7 (2)
      |                                               |                |              type: "float" 0x11c-NA (0)
0x0110|                                    88         |            .   |              size: 8 0x11c-0x11c.7 (1)
0x0110|                                       40 44 00|             @D.|              value: 40 0x11d-0x124.7 (8)
0x0120|00 00 00 00 00                                 |.....           |
      |                                               |                |        [3]{}: element 0x125-0x172.7 (78)
0x0120|               16 54 ae 6b                     |     .T.k       |          id: "tracks" (0x1654ae6b) (A Top-Level Element of information with many tracks described.) 0x125-0x128.7 (4)
      |                                               |                |          type: "master" 0x129-NA (0)
0x0120|                           c9                  |         .      |          size: 73 0x129-0x129.7 (1)
      |                                               |                |          elements[0:2]: 0x12a-0x172.7 (73)
      |                                               |                |            [0]{}: element 0x12a-0x12f.7 (6)
0x0120|                              bf               |          .     |              id: "crc32" (0xbf) 0x12a-0x12a.7 (1)
      |                                               |                |              type: "binary" 0x12b-NA (0)
0x0120|                                 84            |           .    |              size: 4 0x12b-0x12b.7 (1)
0x0120|                                    11 c5 1b 5b|            ...[|              value: raw bits 0x12c-0x12f.7 (4)
      |                                               |                |            [1]{}: element 0x130-0x172.7 (67)
0x0130|ae                                             |.               |              id: "track_entry" (0xae) (Describes a track with all Elements.) 0x130-0x130.7 (1)
      |                                               |                |              type: "master" 0x131-NA (0)
0x0130|   01 00 00 00 00 00 00 3a                     | .......:       |              size: 58 0x131-0x138.7 (8)
      |                                               |                |              elements[0:8]: 0x139-0x172.7 (58)
      |                                               |                |                [0]{}: element 0x139-0x13b.7 (3)
0x0130|                           d7                  |         .      |                  id: "track_number" (0xd7) (The track number as used in the Block Header (using more than 127 tracks is not encouraged, though the design allows an unlimited number).) 0x139-0x139.7 (1)
      |                                               |                |                  type: "uinteger" 0x13a-NA (0)
0x0130|                              81               |          .     |                  size: 1 0x13a-0x13a.7 (1)
0x0130|                                 01            |           .    |                  value: 1 0x13b-0x13b.7 (1)
      |                                               |                |                [1]{}: element 0x13c-0x146.7 (11)
0x0130|                                    73 c5      |            s.  |                  id: "track_uid" (0x73c5) (A unique ID to identify the Track.) 0x13c-0x13d.7 (2)
      |                                               |                |                  type: "uinteger" 0x13e-NA (0)
0x0130|                                          88   |              . |                  size: 8 0x13e-0x13e.7 (1)
0x0130|                                             3e|               >|                  value: 4477069849203489639 0x13f-0x146.7 (8)
0x0140|21 bf 4e ac 62 bb 67                           |!.N.b.g         |
      |                                               |                |                [2]{}: element 0x147-0x149.7 (3)
0x0140|                     9c                        |       .        |                  id: "flag_lacing" (0x9c) (Set to 1 if the track **MAY** contain blocks using lacing. When set to 0 all blocks **MUST** have their lacing flags set to No lacing; see (#block-lacing) on Block Lacing.) 0x147-0x147.7 (1)
      |                                               |                |                  type: "uinteger" 0x148-NA (0)
0x0140|                        81                     |        .       |                  size: 1 0x148-0x148.7 (1)
0x0140|                           00                  |         .      |                  value: 0 0x149-0x149.7 (1)
      |                                               |                |                [3]{}: element 0x14a-0x150.7 (7)
0x0140|                              22 b5 9c         |          "..   |                  id: "language" (0x22b59c) (Specifies the language of the track in the Matroska languages form; see (#language-codes) on language codes. This Element **MUST** be ignored if the LanguageIETF Element is used in the same TrackEntry.) 0x14a-0x14c.7 (3)
      |                                               |                |                  type: "string" 0x14d-NA (0)
0x0140|                                       83      |             .  |                  size: 3 0x14d-0x14d.7 (1)
0x0140|                                          75 6e|              un|                  value: "und" 0x14e-0x150.7 (3)
0x0150|64                                             |d               |
      |                                               |                |                [4]{}: element 0x151-0x157.7 (7)
0x0150|   86                                          | .              |                  id: "codec_id" (0x86) (An ID corresponding to the codec, see [@!MatroskaCodec] for more info.) 0x151-0x151.7 (1)
      |                                               |                |                  type: "string" 0x152-NA (0)
0x0150|      85                                       |  .             |                  size: 5 0x152-0x152.7 (1)
0x0150|         56 5f 56 50 39                        |   V_VP9        |                  value: "V_VP9" 0x153-0x157.7 (5)
      |                                               |                |                [5]{}: element 0x158-0x15a.7 (3)
0x0150|                        83                     |        .       |                  id: "track_type" (0x83) (The `TrackType` defines the type of each frame found in the Track. The value **SHOULD** be stored on 1 octet.) 0x158-0x158.7 (1)
      |                                               |                |                  type: "uinteger" 0x159-NA (0)
0x0150|                           81                  |         .      |                  size: 1 0x159-0x159.7 (1)
0x0150|                              01               |          .     |                  value: "video" (1) (An image.) 0x15a-0x15a.7 (1)
      |                                               |                |                [6]{}: element 0x15b-0x162.7 (8)
0x0150|                                 23 e3 83      |           #..  |                  id: "default_duration" (0x23e383) (Number of nanoseconds per frame, expressed in Matroska Ticks -- ie in nanoseconds; see (#timestamp-ticks) (frame in the Matroska sense -- one Element put into a (Simple)Block).) 0x15b-0x15d.7 (3)
      |                                               |                |                  type: "uinteger" 0x15e-NA (0)
0x0150|                                          84   |              . |                  size: 4 0x15e-0x15e.7 (1)
0x0150|                                             02|               .|                  value: 40000000 0x15f-0x162.7 (4)
0x0160|62 5a 00                                       |bZ.             |
      |                                               |                |                [7]{}: element 0x163-0x172.7 (16)
0x0160|         e0                                    |   .            |                  id: "video" (0xe0) (Video settings.) 0x163-0x163.7 (1)
      |                                               |                |                  type: "master" 0x164-NA (0)
0x0160|            01 00 00 00 00 00 00 07            |    ........    |                  size: 7 0x164-0x16b.7 (8)
      |                                               |                |                  elements[0:2]: 0x16c-0x172.7 (7)
      |                                               |                |                    [0]{}: element 0x16c-0x16f.7 (4)
0x0160|                                    b0         |            .   |                      id: "pixel_width" (0xb0) (Width of the encoded video frames in pixels.) 0x16c-0x16c.7 (1)
      |                                               |                |                      type: "uinteger" 0x16d-NA (0)
0x0160|                                       82      |             .  |                      size: 2 0x16d-0x16d.7 (1)
0x0160|                                          01 40|              .@|                      value: 320 0x16e-0x16f.7 (2)
      |                                               |                |                    [1]{}: element 0x170-0x172.7 (3)
0x0170|ba                                             |.               |                      id: "pixel_height" (0xba) (Height of the encoded video frames in pixels.) 0x170-0x170.7 (1)
      |                                               |                |                      type: "uinteger" 0x171-NA (0)
0x0170|   81                                          | .              |                      size: 1 0x171-0x171.7 (1)
0x0170|      f0                                       |  .             |                      value: 240 0x172-0x172.7 (1)
      |                                               |                |        [4]{}: element 0x173-0x21b.7 (169)
0x0170|         12 54 c3 67                           |   .T.g         |          id: "tags" (0x1254c367) (Element containing metadata describing Tracks, Editions, Chapters, Attachments, or the Segment as a whole. A list of valid tags can be found in [@!MatroskaTags].) 0x173-0x176.7 (4)
      |                                               |                |          type: "master" 0x177-NA (0)
0x0170|                     40 a3                     |       @.       |          size: 163 0x177-0x178.7 (2)
      |                                               |                |          elements[0:3]: 0x179-0x21b.7 (163)
      |                                               |                |            [0]{}: element 0x179-0x17e.7 (6)
0x0170|                           bf                  |         .      |              id: "crc32" (0xbf) 0x179-0x179.7 (1)
      |                                               |                |              type: "binary" 0x17a-NA (0)
0x0170|                              84               |          .     |              size: 4 0x17a-0x17a.7 (1)
0x0170|                                 0f 63 70 88   |           .cp. |              value: raw bits 0x17b-0x17e.7 (4)
      |                                               |                |            [1]{}: element 0x17f-0x1af.7 (49)
0x0170|                                             73|               s|              id: "tag" (0x7373) (A single metadata descriptor.) 0x17f-0x180.7 (2)
0x0180|73                                             |s               |
      |                                               |                |              type: "master" 0x181-NA (0)
0x0180|   01 00 00 00 00 00 00 27                     | .......'       |              size: 39 0x181-0x188.7 (8)
      |                                               |                |              elements[0:2]: 0x189-0x1af.7 (39)
      |                                               |                |                [0]{}: element 0x189-0x18b.7 (3)
0x0180|                           63 c0               |         c.     |                  id: "targets" (0x63c0) (Specifies which other elements the metadata represented by the Tag applies to. If empty or not present, then the Tag describes everything in the Segment.) 0x189-0x18a.7 (2)
      |                                               |                |                  type: "master" 0x18b-NA (0)
0x0180|                                 80            |           .    |                  size: 0 0x18b-0x18b.7 (1)
      |                                               |                |                  elements[0:0]: 0x18c-NA (0)
      |                                               |                |                [1]{}: element 0x18c-0x1af.7 (36)
0x0180|                                    67 c8      |            g.  |                  id: "simple_tag" (0x67c8) (Contains general information about the target.) 0x18c-0x18d.7 (2)
      |                                               |                |                  type: "master" 0x18e-NA (0)
0x0180|                                          01 00|              ..|                  size: 26 0x18e-0x195.7 (8)
0x0190|00 00 00 00 00 1a                              |......          |
      |                                               |                |                  elements[0:2]: 0x196-0x1af.7 (26)
      |                                               |                |                    [0]{}: element 0x196-0x19f.7 (10)
0x0190|                  45 a3                        |      E.        |                      id: "tag_name" (0x45a3) (The name of the Tag that is going to be stored.) 0x196-0x197.7 (2)
      |                                               |                |                      type: "utf8" 0x198-NA (0)
0x0190|                        87                     |        .       |                      size: 7 0x198-0x198.7 (1)
0x0190|                           45 4e 43 4f 44 45 52|         ENCODER|                      value: "ENCODER" 0x199-0x19f.7 (7)
      |                                               |                |                    [1]{}: element 0x1a0-0x1af.7 (16)
0x01a0|44 87                                          |D.              |                      id: "tag_string" (0x4487) (The value of the Tag.) 0x1a0-0x1a1.7 (2)
      |                                               |                |                      type: "utf8" 0x1a2-NA (0)
0x01a0|      8d                                       |  .             |                      size: 13 0x1a2-0x1a2.7 (1)
0x01a0|         4c 61 76 66 35 38 2e 34 35 2e 31 30 30|   Lavf58.45.100|                      value: "Lavf58.45.100" 0x1a3-0x1af.7 (13)
      |                                               |                |            [2]{}: element 0x1b0-0x21b.7 (108)
0x01b0|73 73                                          |ss              |              id: "tag" (0x7373) (A single metadata descriptor.) 0x1b0-0x1b1.7 (2)
      |                                               |                |              type: "master" 0x1b2-NA (0)
0x01b0|      01 00 00 00 00 00 00 62                  |  .......b      |              size: 98 0x1b2-0x1b9.7 (8)
      |                                               |                |              elements[0:3]: 0x1ba-0x21b.7 (98)
      |                                               |                |                [0]{}: element 0x1ba-0x1c7.7 (14)
0x01b0|                              63 c0            |          c.    |                  id: "targets" (0x63c0) (Specifies which other elements the metadata represented by the Tag applies to. If empty or not present, then the Tag describes everything in the Segment.) 0x1ba-0x1bb.7 (2)
      |                                               |                |                  type: "master" 0x1bc-NA (0)
0x01b0|                                    8b         |            .   |                  size: 11 0x1bc-0x1bc.7 (1)
      |                                               |                |                  elements[0:1]: 0x1bd-0x1c7.7 (11)
      |                                               |                |                    [0]{}: element 0x1bd-0x1c7.7 (11)
0x01b0|                                       63 c5   |             c. |                      id: "tag_track_uid" (0x63c5) (A unique ID to identify the Track(s) the tags belong to.) 0x1bd-0x1be.7 (2)
      |                                               |                |                      type: "uinteger" 0x1bf-NA (0)
0x01b0|                                             88|               .|                      size: 8 0x1bf-0x1bf.7 (1)
0x01c0|3e 21 bf 4e ac 62 bb 67                        |>!.N.b.g        |                      value: 4477069849203489639 0x1c0-0x1c7.7 (8)
      |                                               |                |                [1]{}: element 0x1c8-0x1f6.7 (47)
0x01c0|                        67 c8                  |        g.      |                  id: "simple_tag" (0x67c8) (Contains general information about the target.) 0x1c8-0x1c9.7 (2)
      |                                               |                |                  type: "master" 0x1ca-NA (0)
0x01c0|                              01 00 00 00 00 00|          ......|                  size: 37 0x1ca-0x1d1.7 (8)
0x01d0|00 25                                          |.%              |
      |                                               |                |                  elements[0:2]: 0x1d2-0x1f6.7 (37)
      |                                               |                |                    [0]{}: element 0x1d2-0x1db.7 (10)
0x01d0|      45 a3                                    |  E.            |                      id: "tag_name" (0x45a3) (The name of the Tag that is going to be stored.) 0x1d2-0x1d3.7 (2)
      |                                               |                |                      type: "utf8" 0x1d4-NA (0)
0x01d0|            87                                 |    .           |                      size: 7 0x1d4-0x1d4.7 (1)
0x01d0|               45 4e 43 4f 44 45 52            |     ENCODER    |                      value: "ENCODER" 0x1d5-0x1db.7 (7)
      |                                               |                |                    [1]{}: element 0x1dc-0x1f6.7 (27)
0x01d0|                                    44 87      |            D.  |                      id: "tag_string" (0x4487) (The value of the Tag.) 0x1dc-0x1dd.7 (2)
      |                                               |                |                      type: "utf8" 0x1de-NA (0)
0x01d0|                                          98   |              . |                      size: 24 0x1de-0x1de.7 (1)
0x01d0|                                             4c|               L|                      value: "Lavc58.91.100 libvpx-vp9" 0x1df-0x1f6.7 (24)
0x01e0|61 76 63 35 38 2e 39 31 2e 31 30 30 20 6c 69 62|avc58.91.100 lib|
0x01f0|76 70 78 2d 76 70 39                           |vpx-vp9         |
      |                                               |                |                [2]{}: element 0x1f7-0x21b.7 (37)
0x01f0|                     67 c8                     |       g.       |                  id: "simple_tag" (0x67c8) (Contains general information about the target.) 0x1f7-0x1f8.7 (2)
      |                                               |                |                  type: "master" 0x1f9-NA (0)
0x01f0|                           a2                  |         .      |                  size: 34 0x1f9-0x1f9.7 (1)
      |                                               |                |                  elements[0:2]: 0x1fa-0x21b.7 (34)
      |                                               |                |                    [0]{}: element 0x1fa-0x204.7 (11)
0x01f0|                              45 a3            |          E.    |                      id: "tag_name" (0x45a3) (The name of the Tag that is going to be stored.) 0x1fa-0x1fb.7 (2)
      |                                               |                |                      type: "utf8" 0x1fc-NA (0)
0x01f0|                                    88         |            .   |                      size: 8 0x1fc-0x1fc.7 (1)
0x01f0|                                       44 55 52|             DUR|                      value: "DURATION" 0x1fd-0x204.7 (8)
0x0200|41 54 49 4f 4e                                 |ATION           |
      |                                               |                |                    [1]{}: element 0x205-0x21b.7 (23)
0x0200|               44 87                           |     D.         |                      id: "tag_string" (0x4487) (The value of the Tag.) 0x205-0x206.7 (2)
      |                                               |                |                      type: "utf8" 0x207-NA (0)
0x0200|                     94                        |       .        |                      size: 20 0x207-0x207.7 (1)
0x0200|                        30 30 3a 30 30 3a 30 30|        00:00:00|                      value: "00:00:00.040000000" 0x208-0x21b.7 (20)
0x0210|2e 30 34 30 30 30 30 30 30 30 00 00            |.040000000..    |
      |                                               |                |        [5]{}: element 0x21c-0x1769.7 (5454)
0x0210|                                    1f 43 b6 75|            .C.u|          id: "cluster" (0x1f43b675) (The Top-Level Element containing the (monolithic) Block structure.) 0x21c-0x21f.7 (4)
      |                                               |                |          type: "master" 0x220-NA (0)
0x0220|55 48                                          |UH              |          size: 5448 0x220-0x221.7 (2)
      |                                               |                |          elements[0:3]: 0x222-0x1769.7 (5448)
      |                                               |                |            [0]{}: element 0x222-0x227.7 (6)
0x0220|      bf                                       |  .             |              id: "crc32" (0xbf) 0x222-0x222.7 (1)
      |                                               |                |              type: "binary" 0x223-NA (0)
0x0220|         84                                    |   .            |              size: 4 0x223-0x223.7 (1)
0x0220|            d6 e8 e7 68                        |    ...h        |              value: raw bits 0x224-0x227.7 (4)
      |                                               |                |            [1]{}: element 0x228-0x22a.7 (3)
0x0220|                        e7                     |        .       |              id: "timestamp" (0xe7) (Absolute timestamp of the cluster, expressed in Segment Ticks which is based on TimestampScale; see (#timestamp-ticks).) 0x228-0x228.7 (1)
      |                                               |                |              type: "uinteger" 0x229-NA (0)
0x0220|                           81                  |         .      |              size: 1 0x229-0x229.7 (1)
0x0220|                              00               |          .     |              value: 0 0x22a-0x22a.7 (1)
      |                                               |                |            [2]{}: element 0x22b-0x1769.7 (5439)
0x0220|                                 a3            |           .    |              id: "simple_block" (0xa3) (Similar to Block, see (#block-structure), but without all the extra information, mostly used to reduced overhead when no extra feature is needed; see (#simpleblock-structure) on SimpleBlock Structure.) 0x22b-0x22b.7 (1)
      |                                               |                |              type: "binary" 0x22c-NA (0)
0x0220|                                    55 3c      |            U<  |              size: 5436 0x22c-0x22d.7 (2)
0x0220|                                          81   |              . |              track_number: 1 0x22e-0x22e.7 (1)
0x0220|                                             00|               .|              timestamp: 0 0x22f-0x230.7 (2)
0x0230|00                                             |.               |
      |                                               |                |              flags{}: 0x231-0x231.7 (1)
0x0230|   80                                          | .              |                key_frame: true 0x231-0x231 (0.1)
0x0230|   80                                          | .              |                reserved: 0 0x231.1-0x231.3 (0.3)
0x0230|   80                                          | .              |                invisible: false 0x231.4-0x231.4 (0.1)
0x0230|   80                                          | .              |                lacing: 0 0x231.5-0x231.6 (0.2)
0x0230|   80                                          | .              |                discardable: false 0x231.7-0x231.7 (0.1)
      |00 01 02 03 04 05 06 07 08 09 0a 0b 0c 0d 0e 0f|0123456789abcdef|              packet{}: (vp9_frame) 0x232-0x1769.7 (5432)
0x0230|      a2                                       |  .             |                frame_marker: 2 0x232-0x232.1 (0.2)
0x0230|      a2                                       |  .             |                profile_low_bit: 1 0x232.2-0x232.2 (0.1)
0x0230|      a2                                       |  .             |                profile_high_bit: 0 0x232.3-0x232.3 (0.1)
      |                                               |                |                profile: 1 (8 bit, chroma subsampling: 4:2:2, 4:4:0, 4:4:4) 0x232.4-NA (0)
0x0230|      a2                                       |  .             |                show_existing_frame: false 0x232.4-0x232.4 (0.1)
0x0230|      a2                                       |  .             |                frame_type: "key_frame" (false) 0x232.5-0x232.5 (0.1)
0x0230|      a2                                       |  .             |                show_frame: 1 0x232.6-0x232.6 (0.1)
0x0230|      a2                                       |  .             |                error_resilient_mode: 0 0x232.7-0x232.7 (0.1)
0x0230|         49                                    |   I            |                frame_sync_byte_0: 73 0x233-0x233.7 (1)
0x0230|            83                                 |    .           |                frame_sync_byte_1: 131 0x234-0x234.7 (1)
0x0230|               42                              |     B          |                frame_sync_byte_2: 66 0x235-0x235.7 (1)
      |                                               |                |                bit_depth: 8 0x236-NA (0)
0x0230|                  e0                           |      .         |                color_space: "rgb" (7) 0x236-0x236.2 (0.3)
      |                                               |                |                color_range: 1 0x236.3-NA (0)
      |                                               |                |                subsampling_x: 0 0x236.3-NA (0)
      |                                               |                |                subsampling_y: 0 0x236.3-NA (0)
0x0230|                  e0                           |      .         |                reserved_zero2: 0 0x236.3-0x236.3 (0.1)
0x0230|                  e0 13 f0                     |      ...       |                frame_width: 320 0x236.4-0x238.3 (2)
0x0230|                        f0 0e f6               |        ...     |                frame_height: 240 0x238.4-0x23a.3 (2)
0x0230|                              f6 0a 38 24 1c 18|          ..8$..|                data: raw bits 0x23a.4-0x1769.7 (5423.4)
0x0240|4a 00 0b 70 7f d9 f9 be 8f e7 71 ff 5f 97 ef c3|J..p......q._...|
*     |until 0x1769.7 (5424)                          |                |
      |                                               |                |        [6]{}: element 0x176a-0x1785.7 (28)
0x1760|                              1c 53 bb 6b      |          .S.k  |          id: "cues" (0x1c53bb6b) (A Top-Level Element to speed seeking access. All entries are local to the Segment.) 0x176a-0x176d.7 (4)
      |                                               |                |          type: "master" 0x176e-NA (0)
0x1760|                                          97   |              . |          size: 23 0x176e-0x176e.7 (1)
      |                                               |                |          elements[0:2]: 0x176f-0x1785.7 (23)
      |                                               |                |            [0]{}: element 0x176f-0x1774.7 (6)
0x1760|                                             bf|               .|              id: "crc32" (0xbf) 0x176f-0x176f.7 (1)
      |                                               |                |              type: "binary" 0x1770-NA (0)
0x1770|84                                             |.               |              size: 4 0x1770-0x1770.7 (1)
0x1770|   24 c2 5b 2b                                 | $.[+           |              value: raw bits 0x1771-0x1774.7 (4)
      |                                               |                |            [1]{}: element 0x1775-0x1785.7 (17)
0x1770|               bb                              |     .          |              id: "cue_point" (0xbb) (Contains all information relative to a seek point in the Segment.) 0x1775-0x1775.7 (1)
      |                                               |                |              type: "master" 0x1776-NA (0)
0x1770|                  8f                           |      .         |              size: 15 0x1776-0x1776.7 (1)
      |                                               |                |              elements[0:2]: 0x1777-0x1785.7 (15)
      |                                               |                |                [0]{}: element 0x1777-0x1779.7 (3)
0x1770|                     b3                        |       .        |                  id: "cue_time" (0xb3) (Absolute timestamp of the seek point, expressed in Matroska Ticks -- ie in nanoseconds; see (#timestamp-ticks).) 0x1777-0x1777.7 (1)
      |                                               |                |                  type: "uinteger" 0x1778-NA (0)
0x1770|                        81                     |        .       |                  size: 1 0x1778-0x1778.7 (1)
0x1770|                           00                  |         .      |                  value: 0 0x1779-0x1779.7 (1)
      |                                               |                |                [1]{}: element 0x177a-0x1785.7 (12)
0x1770|                              b7               |          .     |                  id: "cue_track_positions" (0xb7) (Contain positions for different tracks corresponding to the timestamp.) 0x177a-0x177a.7 (1)
      |                                               |                |                  type: "master" 0x177b-NA (0)
0x1770|                                 8a            |           .    |                  size: 10 0x177b-0x177b.7 (1)
      |                                               |                |                  elements[0:3]: 0x177c-0x1785.7 (10)
      |                                               |                |                    [0]{}: element 0x177c-0x177e.7 (3)
0x1770|                                    f7         |            .   |                      id: "cue_track" (0xf7) (The track for which a position is given.) 0x177c-0x177c.7 (1)
      |                                               |                |                      type: "uinteger" 0x177d-NA (0)
0x1770|                                       81      |             .  |                      size: 1 0x177d-0x177d.7 (1)
0x1770|                                          01   |              . |                      value: 1 0x177e-0x177e.7 (1)
      |                                               |                |                    [1]{}: element 0x177f-0x1782.7 (4)
0x1770|                                             f1|               .|                      id: "cue_cluster_position" (0xf1) (The Segment Position of the Cluster containing the associated Block.) 0x177f-0x177f.7 (1)
      |                                               |                |                      type: "uinteger" 0x1780-NA (0)
0x1780|82                                             |.               |                      size: 2 0x1780-0x1780.7 (1)
0x1780|   01 e8                                       | ..             |                      value: 488 0x1781-0x1782.7 (2)
      |                                               |                |                    [2]{}: element 0x1783-0x1785.7 (3)
0x1780|         f0                                    |   .            |                      id: "cue_relative_position" (0xf0) (The relative position inside the Cluster of the referenced SimpleBlock or BlockGroup with 0 being the first possible position for an Element inside that Cluster.) 0x1783-0x1783.7 (1)
      |                                               |                |                      type: "uinteger" 0x1784-NA (0)
0x1780|            81                                 |    .           |                      size: 1 0x1784-0x1784.7 (1)
0x1780|               09|                             |     .|         |                      value: 9 0x1785-0x1785.7 (1)
