$ fq dv helloworld.efi
     |00 01 02 03 04 05 06 07 08 09 0a 0b 0c 0d 0e 0f|0123456789abcdef|.{}: helloworld.efi (pe) 0x0-0x800 (2048)
     |00 01 02 03 04 05 06 07 08 09 0a 0b 0c 0d 0e 0f|0123456789abcdef|  ms_dos_stub{}: (msdos_stub) 0x0-0x78 (120)
0x000|4d 5a                                          |MZ              |    e_magic: 0x5a4d (valid) 0x0-0x2 (2)
0x000|      78 00                                    |  x.            |    e_cblp: 120 (Bytes on last page of file) 0x2-0x4 (2)
0x000|            01 00                              |    ..          |    e_cp: 1 (Pages in file) 0x4-0x6 (2)
0x000|                  00 00                        |      ..        |    e_crlc: 0 (Relocations) 0x6-0x8 (2)
0x000|                        04 00                  |        ..      |    e_cparhdr: 4 (Size of header in paragraphs) 0x8-0xa (2)
0x000|                              00 00            |          ..    |    e_minalloc: 0 (Minimum extra paragraphs needed) 0xa-0xc (2)
0x000|                                    00 00      |            ..  |    e_maxalloc: 0 (Maximum extra paragraphs needed) 0xc-0xe (2)
0x000|                                          00 00|              ..|    e_ss: 0 (Initial (relative) SS value) 0xe-0x10 (2)
0x010|00 00                                          |..              |    e_sp: 0 (Initial SP value) 0x10-0x12 (2)
0x010|      00 00                                    |  ..            |    e_csum: 0 (Checksum) 0x12-0x14 (2)
0x010|            00 00                              |    ..          |    e_ip: 0 (Initial IP value) 0x14-0x16 (2)
0x010|                  00 00                        |      ..        |    e_cs: 0 (Initial (relative) CS value) 0x16-0x18 (2)
0x010|                        40 00                  |        @.      |    e_lfarlc: 64 (File address of relocation table) 0x18-0x1a (2)
0x010|                              00 00            |          ..    |    e_ovno: 0 (Overlay number) 0x1a-0x1c (2)
0x010|                                    00 00 00 00|            ....|    e_res: raw bits (Reserved words) 0x1c-0x24 (8)
0x020|00 00 00 00                                    |....            |
0x020|            00 00                              |    ..          |    e_oemid: 0 (OEM identifier (for e_oeminfo)) 0x24-0x26 (2)
0x020|                  00 00                        |      ..        |    e_oeminfo: 0 (OEM information; e_oemid specific) 0x26-0x28 (2)
0x020|                        00 00 00 00 00 00 00 00|        ........|    e_res2: raw bits (Reserved words) 0x28-0x3c (20)
0x030|00 00 00 00 00 00 00 00 00 00 00 00            |............    |
0x030|                                    78 00 00 00|            x...|    e_lfanew: 120 (File address of new exe header) 0x3c-0x40 (4)
0x040|0e 1f ba 0e 00 b4 09 cd 21 b8 01 4c cd 21 54 68|........!..L.!Th|    stub: raw bits (Sub program) 0x40-0x78 (56)
*    |until 0x77.7 (56)                              |                |
     |00 01 02 03 04 05 06 07 08 09 0a 0b 0c 0d 0e 0f|0123456789abcdef|  coff{}: (coff) 0x78-0x1f8 (384)
0x070|                        50 45 00 00            |        PE..    |    signature: raw bits (valid) 0x78-0x7c (4)
0x070|                                    64 86      |            d.  |    machine: "amd64" (0x8664) 0x7c-0x7e (2)
0x070|                                          03 00|              ..|    number_of_sections: 3 0x7e-0x80 (2)
0x080|96 bf 5b 5e                                    |..[^            |    time_date_stamp: 1583071126 (2020-03-01T13:58:46Z) 0x80-0x84 (4)
0x080|            00 00 00 00                        |    ....        |    pointer_to_symbol_table: 0x0 0x84-0x88 (4)
0x080|                        00 00 00 00            |        ....    |    number_of_symbols: 0 0x88-0x8c (4)
0x080|                                    f0 00      |            ..  |    size_of_optional_header: 240 0x8c-0x8e (2)
     |                                               |                |    characteristics{}: 0x8e-0x90 (2)
0x080|                                          22   |              " |      bytes_reversed_lo: false 0x8e-0x8e.1 (0.1)
0x080|                                          22   |              " |      reserved: false 0x8e.1-0x8e.2 (0.1)
0x080|                                          22   |              " |      large_address_aware: true 0x8e.2-0x8e.3 (0.1)
0x080|                                          22   |              " |      aggressive_ws_trim: false 0x8e.3-0x8e.4 (0.1)
0x080|                                          22   |              " |      local_syms_stripped: false 0x8e.4-0x8e.5 (0.1)
0x080|                                          22   |              " |      line_nums_stripped: false 0x8e.5-0x8e.6 (0.1)
0x080|                                          22   |              " |      executable_image: true 0x8e.6-0x8e.7 (0.1)
0x080|                                          22   |              " |      relocs_stripped: false 0x8e.7-0x8f (0.1)
0x080|                                             00|               .|      bytes_reversed_hi: false 0x8f-0x8f.1 (0.1)
0x080|                                             00|               .|      up_system_only: false 0x8f.1-0x8f.2 (0.1)
0x080|                                             00|               .|      dll: false 0x8f.2-0x8f.3 (0.1)
0x080|                                             00|               .|      system: false 0x8f.3-0x8f.4 (0.1)
0x080|                                             00|               .|      net_run_from_swap: false 0x8f.4-0x8f.5 (0.1)
0x080|                                             00|               .|      removable_run_from_swap: false 0x8f.5-0x8f.6 (0.1)
0x080|                                             00|               .|      debug_stripped: false 0x8f.6-0x8f.7 (0.1)
0x080|                                             00|               .|      32bit_machine: false 0x8f.7-0x90 (0.1)
     |                                               |                |    optional_header{}: 0x90-0x180 (240)
0x090|0b 02                                          |..              |      format: "pe32+" (0x20b) 0x90-0x92 (2)
0x090|      0e                                       |  .             |      major_linker_version: 14 0x92-0x93 (1)
0x090|         00                                    |   .            |      minor_linker_version: 0 0x93-0x94 (1)
0x090|            00 02 00 00                        |    ....        |      size_of_code: 512 0x94-0x98 (4)
0x090|                        00 04 00 00            |        ....    |      size_of_initialized_data: 1024 0x98-0x9c (4)
0x090|                                    00 00 00 00|            ....|      size_of_uninitialized_data: 0 0x9c-0xa0 (4)
0x0a0|10 10 00 00                                    |....            |      address_of_entry_point: 0x1010 0xa0-0xa4 (4)
0x0a0|            00 10 00 00                        |    ....        |      base_of_code: 0x1000 0xa4-0xa8 (4)
0x0a0|                        00 00 00 40 01 00 00 00|        ...@....|      image_base: 0x140000000 0xa8-0xb0 (8)
0x0b0|00 10 00 00                                    |....            |      section_alignment: 4096 0xb0-0xb4 (4)
0x0b0|            00 02 00 00                        |    ....        |      file_alignment: 512 0xb4-0xb8 (4)
0x0b0|                        06 00                  |        ..      |      major_os_version: 6 0xb8-0xba (2)
0x0b0|                              00 00            |          ..    |      minor_os_version: 0 0xba-0xbc (2)
0x0b0|                                    00 00      |            ..  |      major_image_version: 0 0xbc-0xbe (2)
0x0b0|                                          00 00|              ..|      minor_image_version: 0 0xbe-0xc0 (2)
0x0c0|06 00                                          |..              |      major_subsystem_version: 6 0xc0-0xc2 (2)
0x0c0|      00 00                                    |  ..            |      minor_subsystem_version: 0 0xc2-0xc4 (2)
0x0c0|            00 00 00 00                        |    ....        |      win32_version: 0 0xc4-0xc8 (4)
0x0c0|                        00 40 00 00            |        .@..    |      size_of_image: 16384 0xc8-0xcc (4)
0x0c0|                                    00 02 00 00|            ....|      size_of_headers: 512 0xcc-0xd0 (4)
0x0d0|00 00 00 00                                    |....            |      chunk_sum: 0x0 0xd0-0xd4 (4)
0x0d0|            0a 00                              |    ..          |      subsystem: "efi_application" (10) 0xd4-0xd6 (2)
     |                                               |                |      dll_characteristics{}: 0xd6-0xd8 (2)
0x0d0|                  60                           |      `         |        force_integrity: false 0xd6-0xd6.1 (0.1)
0x0d0|                  60                           |      `         |        dynamic_base: true 0xd6.1-0xd6.2 (0.1)
0x0d0|                  60                           |      `         |        high_entropy_va: true 0xd6.2-0xd6.3 (0.1)
0x0d0|                  60                           |      `         |        reserved0: false 0xd6.3-0xd6.4 (0.1)
0x0d0|                  60                           |      `         |        reserved1: false 0xd6.4-0xd6.5 (0.1)
0x0d0|                  60                           |      `         |        reserved2: false 0xd6.5-0xd6.6 (0.1)
0x0d0|                  60                           |      `         |        reserved3: false 0xd6.6-0xd6.7 (0.1)
0x0d0|                  60                           |      `         |        reserved4: false 0xd6.7-0xd7 (0.1)
0x0d0|                     81                        |       .        |        terminal_server_aware: true 0xd7-0xd7.1 (0.1)
0x0d0|                     81                        |       .        |        guard_cf: false 0xd7.1-0xd7.2 (0.1)
0x0d0|                     81                        |       .        |        wdm_driver: false 0xd7.2-0xd7.3 (0.1)
0x0d0|                     81                        |       .        |        appcontainer: false 0xd7.3-0xd7.4 (0.1)
0x0d0|                     81                        |       .        |        no_bind: false 0xd7.4-0xd7.5 (0.1)
0x0d0|                     81                        |       .        |        no_seh: false 0xd7.5-0xd7.6 (0.1)
0x0d0|                     81                        |       .        |        no_isolation: false 0xd7.6-0xd7.7 (0.1)
0x0d0|                     81                        |       .        |        nx_compat: true 0xd7.7-0xd8 (0.1)
0x0d0|                        00 00 10 00 00 00 00 00|        ........|      size_of_track_reserve: 1048576 0xd8-0xe0 (8)
0x0e0|00 10 00 00 00 00 00 00                        |........        |      size_of_stack_commit: 4096 0xe0-0xe8 (8)
0x0e0|                        00 00 10 00 00 00 00 00|        ........|      size_of_heap_reserve: 1048576 0xe8-0xf0 (8)
0x0f0|00 10 00 00 00 00 00 00                        |........        |      size_of_heap_commit: 4096 0xf0-0xf8 (8)
0x0f0|                        00 00 00 00            |        ....    |      loader_flags: 0 0xf8-0xfc (4)
0x0f0|                                    10 00 00 00|            ....|      number_of_rva_and_sizes: 16 0xfc-0x100 (4)
0x100|00 00 00 00                                    |....            |      export_table_address: 0x0 0x100-0x104 (4)
0x100|            00 00 00 00                        |    ....        |      export_table_size: 0 0x104-0x108 (4)
0x100|                        00 00 00 00            |        ....    |      import_table_address: 0x0 0x108-0x10c (4)
0x100|                                    00 00 00 00|            ....|      import_table_size: 0 0x10c-0x110 (4)
0x110|00 00 00 00                                    |....            |      resource_table_address: 0x0 0x110-0x114 (4)
0x110|            00 00 00 00                        |    ....        |      resource_table_size: 0 0x114-0x118 (4)
0x110|                        00 00 00 00            |        ....    |      exception_table_address: 0x0 0x118-0x11c (4)
0x110|                                    00 00 00 00|            ....|      exception_table_size: 0 0x11c-0x120 (4)
0x120|00 00 00 00                                    |....            |      certificate_table_address: 0x0 0x120-0x124 (4)
0x120|            00 00 00 00                        |    ....        |      certificate_table_size: 0 0x124-0x128 (4)
0x120|                        00 30 00 00            |        .0..    |      base_relocation_table_address: 0x3000 0x128-0x12c (4)
0x120|                                    0c 00 00 00|            ....|      base_relocation_table_size: 12 0x12c-0x130 (4)
0x130|00 00 00 00                                    |....            |      debug_address: 0x0 0x130-0x134 (4)
0x130|            00 00 00 00                        |    ....        |      debug_size: 0 0x134-0x138 (4)
0x130|                        00 00 00 00 00 00 00 00|        ........|      architecture: 0 0x138-0x140 (8)
0x140|00 00 00 00 00 00 00 00                        |........        |      global_ptr: 0x0 0x140-0x148 (8)
0x140|                        00 00 00 00            |        ....    |      tls_table_address: 0x0 0x148-0x14c (4)
0x140|                                    00 00 00 00|            ....|      tls_table_size: 0 0x14c-0x150 (4)
0x150|00 00 00 00                                    |....            |      load_config_table_address: 0x0 0x150-0x154 (4)
0x150|            00 00 00 00                        |    ....        |      load_config_table_size: 0 0x154-0x158 (4)
0x150|                        00 00 00 00            |        ....    |      bound_import_address: 0x0 0x158-0x15c (4)
0x150|                                    00 00 00 00|            ....|      bound_import_size: 0 0x15c-0x160 (4)
0x160|00 00 00 00                                    |....            |      iat_address: 0x0 0x160-0x164 (4)
0x160|            00 00 00 00                        |    ....        |      iat_size: 0 0x164-0x168 (4)
0x160|                        00 00 00 00            |        ....    |      delay_import_descriptor_address: 0x0 0x168-0x16c (4)
0x160|                                    00 00 00 00|            ....|      delay_import_descriptor_size: 0 0x16c-0x170 (4)
0x170|00 00 00 00                                    |....            |      clr_runtime_header_address: 0x0 0x170-0x174 (4)
0x170|            00 00 00 00                        |    ....        |      clr_runtime_header_size: 0 0x174-0x178 (4)
0x170|                        00 00 00 00 00 00 00 00|        ........|      reserved: 0 0x178-0x180 (8)
     |                                               |                |      unknown: raw bits 0x180-0x180 (0)
     |                                               |                |    sections[0:3]: 0x180-0x1f8 (120)
     |                                               |                |      [0]{}: section 0x180-0x1a8 (40)
0x180|2e 74 65 78 74 00 00 00                        |.text...        |        name: ".text" 0x180-0x188 (8)
0x180|                        23 00 00 00            |        #...    |        virtual_size: 35 0x188-0x18c (4)
0x180|                                    00 10 00 00|            ....|        virtual_address: 0x1000 0x18c-0x190 (4)
0x190|00 02 00 00                                    |....            |        size_of_raw_data: 512 0x190-0x194 (4)
0x190|            00 02 00 00                        |    ....        |        pointer_to_raw_data: 0x200 0x194-0x198 (4)
0x190|                        00 00 00 00            |        ....    |        pointer_to_relocations: 0x0 0x198-0x19c (4)
0x190|                                    00 00 00 00|            ....|        pointer_to_line_numbers: 0x0 0x19c-0x1a0 (4)
0x1a0|00 00                                          |..              |        number_of_relocations: 0 0x1a0-0x1a2 (2)
0x1a0|      00 00                                    |  ..            |        number_of_line_numbers: 0 0x1a2-0x1a4 (2)
     |                                               |                |        characteristics{}: 0x1a4-0x1a8 (4)
0x1a0|            20                                 |                |          cnt_uninitialized_data: false 0x1a4-0x1a4.1 (0.1)
0x1a0|            20                                 |                |          cnt_initialized_data: false 0x1a4.1-0x1a4.2 (0.1)
0x1a0|            20                                 |                |          cnt_code: true 0x1a4.2-0x1a4.3 (0.1)
0x1a0|            20                                 |                |          reserved: false 0x1a4.3-0x1a4.4 (0.1)
0x1a0|            20                                 |                |          type_no_pad: false 0x1a4.4-0x1a4.5 (0.1)
0x1a0|            20                                 |                |          reserved0: false 0x1a4.5-0x1a4.6 (0.1)
0x1a0|            20                                 |                |          reserved1: false 0x1a4.6-0x1a4.7 (0.1)
0x1a0|            20                                 |                |          reserved2: false 0x1a4.7-0x1a5 (0.1)
0x1a0|               00                              |     .          |          gprel: false 0x1a5-0x1a5.1 (0.1)
0x1a0|               00                              |     .          |          unknown0: false 0x1a5.1-0x1a5.2 (0.1)
0x1a0|               00                              |     .          |          unknown1: false 0x1a5.2-0x1a5.3 (0.1)
0x1a0|               00                              |     .          |          lnk_comdat: false 0x1a5.3-0x1a5.4 (0.1)
0x1a0|               00                              |     .          |          lnk_remove: false 0x1a5.4-0x1a5.5 (0.1)
0x1a0|               00                              |     .          |          reserved3: false 0x1a5.5-0x1a5.6 (0.1)
0x1a0|               00                              |     .          |          lnk_info: false 0x1a5.6-0x1a5.7 (0.1)
0x1a0|               00                              |     .          |          lnk_other: false 0x1a5.7-0x1a6 (0.1)
0x1a0|                  00                           |      .         |          align_128bytes: false 0x1a6-0x1a6.1 (0.1)
0x1a0|                  00                           |      .         |          align_8bytes: false 0x1a6.1-0x1a6.2 (0.1)
0x1a0|                  00                           |      .         |          align_2bytes: false 0x1a6.2-0x1a6.3 (0.1)
0x1a0|                  00                           |      .         |          align_1bytes: false 0x1a6.3-0x1a6.4 (0.1)
0x1a0|                  00                           |      .         |          mem_preload: false 0x1a6.4-0x1a6.5 (0.1)
0x1a0|                  00                           |      .         |          mem_locked: false 0x1a6.5-0x1a6.6 (0.1)
0x1a0|                  00                           |      .         |          mem_16bit: false 0x1a6.6-0x1a6.7 (0.1)
0x1a0|                  00                           |      .         |          mem_purgeable: false 0x1a6.7-0x1a7 (0.1)
0x1a0|                     60                        |       `        |          mem_write: false 0x1a7-0x1a7.1 (0.1)
0x1a0|                     60                        |       `        |          mem_read: true 0x1a7.1-0x1a7.2 (0.1)
0x1a0|                     60                        |       `        |          mem_execute: true 0x1a7.2-0x1a7.3 (0.1)
0x1a0|                     60                        |       `        |          mem_shared: false 0x1a7.3-0x1a7.4 (0.1)
0x1a0|                     60                        |       `        |          mem_not_paged: false 0x1a7.4-0x1a7.5 (0.1)
0x1a0|                     60                        |       `        |          mem_not_cached: false 0x1a7.5-0x1a7.6 (0.1)
0x1a0|                     60                        |       `        |          mem_discardable: false 0x1a7.6-0x1a7.7 (0.1)
0x1a0|                     60                        |       `        |          lnk_nreloc_ovfl: false 0x1a7.7-0x1a8 (0.1)
     |                                               |                |      [1]{}: section 0x1a8-0x1d0 (40)
0x1a0|                        2e 64 61 74 61 00 00 00|        .data...|        name: ".data" 0x1a8-0x1b0 (8)
0x1b0|18 00 00 00                                    |....            |        virtual_size: 24 0x1b0-0x1b4 (4)
0x1b0|            00 20 00 00                        |    . ..        |        virtual_address: 0x2000 0x1b4-0x1b8 (4)
0x1b0|                        00 02 00 00            |        ....    |        size_of_raw_data: 512 0x1b8-0x1bc (4)
0x1b0|                                    00 04 00 00|            ....|        pointer_to_raw_data: 0x400 0x1bc-0x1c0 (4)
0x1c0|00 00 00 00                                    |....            |        pointer_to_relocations: 0x0 0x1c0-0x1c4 (4)
0x1c0|            00 00 00 00                        |    ....        |        pointer_to_line_numbers: 0x0 0x1c4-0x1c8 (4)
0x1c0|                        00 00                  |        ..      |        number_of_relocations: 0 0x1c8-0x1ca (2)
0x1c0|                              00 00            |          ..    |        number_of_line_numbers: 0 0x1ca-0x1cc (2)
     |                                               |                |        characteristics{}: 0x1cc-0x1d0 (4)
0x1c0|                                    40         |            @   |          cnt_uninitialized_data: false 0x1cc-0x1cc.1 (0.1)
0x1c0|                                    40         |            @   |          cnt_initialized_data: true 0x1cc.1-0x1cc.2 (0.1)
0x1c0|                                    40         |            @   |          cnt_code: false 0x1cc.2-0x1cc.3 (0.1)
0x1c0|                                    40         |            @   |          reserved: false 0x1cc.3-0x1cc.4 (0.1)
0x1c0|                                    40         |            @   |          type_no_pad: false 0x1cc.4-0x1cc.5 (0.1)
0x1c0|                                    40         |            @   |          reserved0: false 0x1cc.5-0x1cc.6 (0.1)
0x1c0|                                    40         |            @   |          reserved1: false 0x1cc.6-0x1cc.7 (0.1)
0x1c0|                                    40         |            @   |          reserved2: false 0x1cc.7-0x1cd (0.1)
0x1c0|                                       00      |             .  |          gprel: false 0x1cd-0x1cd.1 (0.1)
0x1c0|                                       00      |             .  |          unknown0: false 0x1cd.1-0x1cd.2 (0.1)
0x1c0|                                       00      |             .  |          unknown1: false 0x1cd.2-0x1cd.3 (0.1)
0x1c0|                                       00      |             .  |          lnk_comdat: false 0x1cd.3-0x1cd.4 (0.1)
0x1c0|                                       00      |             .  |          lnk_remove: false 0x1cd.4-0x1cd.5 (0.1)
0x1c0|                                       00      |             .  |          reserved3: false 0x1cd.5-0x1cd.6 (0.1)
0x1c0|                                       00      |             .  |          lnk_info: false 0x1cd.6-0x1cd.7 (0.1)
0x1c0|                                       00      |             .  |          lnk_other: false 0x1cd.7-0x1ce (0.1)
0x1c0|                                          00   |              . |          align_128bytes: false 0x1ce-0x1ce.1 (0.1)
0x1c0|                                          00   |              . |          align_8bytes: false 0x1ce.1-0x1ce.2 (0.1)
0x1c0|                                          00   |              . |          align_2bytes: false 0x1ce.2-0x1ce.3 (0.1)
0x1c0|                                          00   |              . |          align_1bytes: false 0x1ce.3-0x1ce.4 (0.1)
0x1c0|                                          00   |              . |          mem_preload: false 0x1ce.4-0x1ce.5 (0.1)
0x1c0|                                          00   |              . |          mem_locked: false 0x1ce.5-0x1ce.6 (0.1)
0x1c0|                                          00   |              . |          mem_16bit: false 0x1ce.6-0x1ce.7 (0.1)
0x1c0|                                          00   |              . |          mem_purgeable: false 0x1ce.7-0x1cf (0.1)
0x1c0|                                             c0|               .|          mem_write: true 0x1cf-0x1cf.1 (0.1)
0x1c0|                                             c0|               .|          mem_read: true 0x1cf.1-0x1cf.2 (0.1)
0x1c0|                                             c0|               .|          mem_execute: false 0x1cf.2-0x1cf.3 (0.1)
0x1c0|                                             c0|               .|          mem_shared: false 0x1cf.3-0x1cf.4 (0.1)
0x1c0|                                             c0|               .|          mem_not_paged: false 0x1cf.4-0x1cf.5 (0.1)
0x1c0|                                             c0|               .|          mem_not_cached: false 0x1cf.5-0x1cf.6 (0.1)
0x1c0|                                             c0|               .|          mem_discardable: false 0x1cf.6-0x1cf.7 (0.1)
0x1c0|                                             c0|               .|          lnk_nreloc_ovfl: false 0x1cf.7-0x1d0 (0.1)
     |                                               |                |      [2]{}: section 0x1d0-0x1f8 (40)
0x1d0|2e 72 65 6c 6f 63 00 00                        |.reloc..        |        name: ".reloc" 0x1d0-0x1d8 (8)
0x1d0|                        0c 00 00 00            |        ....    |        virtual_size: 12 0x1d8-0x1dc (4)
0x1d0|                                    00 30 00 00|            .0..|        virtual_address: 0x3000 0x1dc-0x1e0 (4)
0x1e0|00 02 00 00                                    |....            |        size_of_raw_data: 512 0x1e0-0x1e4 (4)
0x1e0|            00 06 00 00                        |    ....        |        pointer_to_raw_data: 0x600 0x1e4-0x1e8 (4)
0x1e0|                        00 00 00 00            |        ....    |        pointer_to_relocations: 0x0 0x1e8-0x1ec (4)
0x1e0|                                    00 00 00 00|            ....|        pointer_to_line_numbers: 0x0 0x1ec-0x1f0 (4)
0x1f0|00 00                                          |..              |        number_of_relocations: 0 0x1f0-0x1f2 (2)
0x1f0|      00 00                                    |  ..            |        number_of_line_numbers: 0 0x1f2-0x1f4 (2)
     |                                               |                |        characteristics{}: 0x1f4-0x1f8 (4)
0x1f0|            40                                 |    @           |          cnt_uninitialized_data: false 0x1f4-0x1f4.1 (0.1)
0x1f0|            40                                 |    @           |          cnt_initialized_data: true 0x1f4.1-0x1f4.2 (0.1)
0x1f0|            40                                 |    @           |          cnt_code: false 0x1f4.2-0x1f4.3 (0.1)
0x1f0|            40                                 |    @           |          reserved: false 0x1f4.3-0x1f4.4 (0.1)
0x1f0|            40                                 |    @           |          type_no_pad: false 0x1f4.4-0x1f4.5 (0.1)
0x1f0|            40                                 |    @           |          reserved0: false 0x1f4.5-0x1f4.6 (0.1)
0x1f0|            40                                 |    @           |          reserved1: false 0x1f4.6-0x1f4.7 (0.1)
0x1f0|            40                                 |    @           |          reserved2: false 0x1f4.7-0x1f5 (0.1)
0x1f0|               00                              |     .          |          gprel: false 0x1f5-0x1f5.1 (0.1)
0x1f0|               00                              |     .          |          unknown0: false 0x1f5.1-0x1f5.2 (0.1)
0x1f0|               00                              |     .          |          unknown1: false 0x1f5.2-0x1f5.3 (0.1)
0x1f0|               00                              |     .          |          lnk_comdat: false 0x1f5.3-0x1f5.4 (0.1)
0x1f0|               00                              |     .          |          lnk_remove: false 0x1f5.4-0x1f5.5 (0.1)
0x1f0|               00                              |     .          |          reserved3: false 0x1f5.5-0x1f5.6 (0.1)
0x1f0|               00                              |     .          |          lnk_info: false 0x1f5.6-0x1f5.7 (0.1)
0x1f0|               00                              |     .          |          lnk_other: false 0x1f5.7-0x1f6 (0.1)
0x1f0|                  00                           |      .         |          align_128bytes: false 0x1f6-0x1f6.1 (0.1)
0x1f0|                  00                           |      .         |          align_8bytes: false 0x1f6.1-0x1f6.2 (0.1)
0x1f0|                  00                           |      .         |          align_2bytes: false 0x1f6.2-0x1f6.3 (0.1)
0x1f0|                  00                           |      .         |          align_1bytes: false 0x1f6.3-0x1f6.4 (0.1)
0x1f0|                  00                           |      .         |          mem_preload: false 0x1f6.4-0x1f6.5 (0.1)
0x1f0|                  00                           |      .         |          mem_locked: false 0x1f6.5-0x1f6.6 (0.1)
0x1f0|                  00                           |      .         |          mem_16bit: false 0x1f6.6-0x1f6.7 (0.1)
0x1f0|                  00                           |      .         |          mem_purgeable: false 0x1f6.7-0x1f7 (0.1)
0x1f0|                     42                        |       B        |          mem_write: false 0x1f7-0x1f7.1 (0.1)
0x1f0|                     42                        |       B        |          mem_read: true 0x1f7.1-0x1f7.2 (0.1)
0x1f0|                     42                        |       B        |          mem_execute: false 0x1f7.2-0x1f7.3 (0.1)
0x1f0|                     42                        |       B        |          mem_shared: false 0x1f7.3-0x1f7.4 (0.1)
0x1f0|                     42                        |       B        |          mem_not_paged: false 0x1f7.4-0x1f7.5 (0.1)
0x1f0|                     42                        |       B        |          mem_not_cached: false 0x1f7.5-0x1f7.6 (0.1)
0x1f0|                     42                        |       B        |          mem_discardable: true 0x1f7.6-0x1f7.7 (0.1)
0x1f0|                     42                        |       B        |          lnk_nreloc_ovfl: false 0x1f7.7-0x1f8 (0.1)
0x1f0|                        00 00 00 00 00 00 00 00|        ........|  gap0: raw bits 0x1f8-0x800 (1544)
0x200|de a9 42 90 dc 23 38 4a 96 fb 7a de d0 80 51 6a|..B..#8J..z...Qj|
*    |until 0x7ff.7 (end) (1544)                     |                |
