$ fq dv helloworld.efi
     |00 01 02 03 04 05 06 07 08 09 0a 0b 0c 0d 0e 0f|0123456789abcdef|.{}: helloworld.efi (pe) 0x0-0x7ff.7 (2048)
     |00 01 02 03 04 05 06 07 08 09 0a 0b 0c 0d 0e 0f|0123456789abcdef|  ms_dos_stub{}: (msdos_stub) 0x0-0x77.7 (120)
0x000|4d 5a                                          |MZ              |    e_magic: 0x5a4d (valid) 0x0-0x1.7 (2)
0x000|      78 00                                    |  x.            |    e_cblp: 120 (Bytes on last page of file) 0x2-0x3.7 (2)
0x000|            01 00                              |    ..          |    e_cp: 1 (Pages in file) 0x4-0x5.7 (2)
0x000|                  00 00                        |      ..        |    e_crlc: 0 (Relocations) 0x6-0x7.7 (2)
0x000|                        04 00                  |        ..      |    e_cparhdr: 4 (Size of header in paragraphs) 0x8-0x9.7 (2)
0x000|                              00 00            |          ..    |    e_minalloc: 0 (Minimum extra paragraphs needed) 0xa-0xb.7 (2)
0x000|                                    00 00      |            ..  |    e_maxalloc: 0 (Maximum extra paragraphs needed) 0xc-0xd.7 (2)
0x000|                                          00 00|              ..|    e_ss: 0 (Initial (relative) SS value) 0xe-0xf.7 (2)
0x010|00 00                                          |..              |    e_sp: 0 (Initial SP value) 0x10-0x11.7 (2)
0x010|      00 00                                    |  ..            |    e_csum: 0 (Checksum) 0x12-0x13.7 (2)
0x010|            00 00                              |    ..          |    e_ip: 0 (Initial IP value) 0x14-0x15.7 (2)
0x010|                  00 00                        |      ..        |    e_cs: 0 (Initial (relative) CS value) 0x16-0x17.7 (2)
0x010|                        40 00                  |        @.      |    e_lfarlc: 64 (File address of relocation table) 0x18-0x19.7 (2)
0x010|                              00 00            |          ..    |    e_ovno: 0 (Overlay number) 0x1a-0x1b.7 (2)
0x010|                                    00 00 00 00|            ....|    e_res: raw bits (Reserved words) 0x1c-0x23.7 (8)
0x020|00 00 00 00                                    |....            |
0x020|            00 00                              |    ..          |    e_oemid: 0 (OEM identifier (for e_oeminfo)) 0x24-0x25.7 (2)
0x020|                  00 00                        |      ..        |    e_oeminfo: 0 (OEM information; e_oemid specific) 0x26-0x27.7 (2)
0x020|                        00 00 00 00 00 00 00 00|        ........|    e_res2: raw bits (Reserved words) 0x28-0x3b.7 (20)
0x030|00 00 00 00 00 00 00 00 00 00 00 00            |............    |
0x030|                                    78 00 00 00|            x...|    e_lfanew: 120 (File address of new exe header) 0x3c-0x3f.7 (4)
0x040|0e 1f ba 0e 00 b4 09 cd 21 b8 01 4c cd 21 54 68|........!..L.!Th|    stub: raw bits (Sub program) 0x40-0x77.7 (56)
*    |until 0x77.7 (56)                              |                |
     |00 01 02 03 04 05 06 07 08 09 0a 0b 0c 0d 0e 0f|0123456789abcdef|  coff{}: (coff) 0x78-0x7ff.7 (1928)
0x070|                        50 45 00 00            |        PE..    |    signature: raw bits (valid) 0x78-0x7b.7 (4)
0x070|                                    64 86      |            d.  |    machine: "amd64" (0x8664) (x64) 0x7c-0x7d.7 (2)
0x070|                                          03 00|              ..|    number_of_sections: 3 0x7e-0x7f.7 (2)
0x080|96 bf 5b 5e                                    |..[^            |    time_date_stamp: 1583071126 (2020-03-01T13:58:46Z) 0x80-0x83.7 (4)
0x080|            00 00 00 00                        |    ....        |    pointer_to_symbol_table: 0x0 0x84-0x87.7 (4)
0x080|                        00 00 00 00            |        ....    |    number_of_symbols: 0 0x88-0x8b.7 (4)
0x080|                                    f0 00      |            ..  |    size_of_optional_header: 240 0x8c-0x8d.7 (2)
     |                                               |                |    characteristics{}: 0x8e-0x8f.7 (2)
0x080|                                          22   |              " |      bytes_reversed_hi: false 0x8e-0x8e (0.1)
0x080|                                          22   |              " |      up_system_only: false 0x8e.1-0x8e.1 (0.1)
0x080|                                          22   |              " |      dll: true 0x8e.2-0x8e.2 (0.1)
0x080|                                          22   |              " |      system: false 0x8e.3-0x8e.3 (0.1)
0x080|                                          22   |              " |      net_run_from_swap: false 0x8e.4-0x8e.4 (0.1)
0x080|                                          22   |              " |      removable_run_from_swap: false 0x8e.5-0x8e.5 (0.1)
0x080|                                          22   |              " |      debug_stripped: true 0x8e.6-0x8e.6 (0.1)
0x080|                                          22   |              " |      32bit_machine: false 0x8e.7-0x8e.7 (0.1)
0x080|                                             00|               .|      bytes_reversed_lo: false 0x8f-0x8f (0.1)
0x080|                                             00|               .|      reserved: false 0x8f.1-0x8f.1 (0.1)
0x080|                                             00|               .|      large_address_aware: false 0x8f.2-0x8f.2 (0.1)
0x080|                                             00|               .|      aggressive_ws_trim: false 0x8f.3-0x8f.3 (0.1)
0x080|                                             00|               .|      local_syms_stripped: false 0x8f.4-0x8f.4 (0.1)
0x080|                                             00|               .|      line_nums_stripped: false 0x8f.5-0x8f.5 (0.1)
0x080|                                             00|               .|      executable_image: false 0x8f.6-0x8f.6 (0.1)
0x080|                                             00|               .|      relocs_stripped: false 0x8f.7-0x8f.7 (0.1)
     |                                               |                |    optional_header{}: 0x90-0x17f.7 (240)
0x090|0b 02                                          |..              |      format: "pe32+" (0x20b) 0x90-0x91.7 (2)
0x090|      0e                                       |  .             |      major_linker_version: 14 0x92-0x92.7 (1)
0x090|         00                                    |   .            |      minor_linker_version: 0 0x93-0x93.7 (1)
0x090|            00 02 00 00                        |    ....        |      size_of_code: 512 0x94-0x97.7 (4)
0x090|                        00 04 00 00            |        ....    |      size_of_initialized_data: 1024 0x98-0x9b.7 (4)
0x090|                                    00 00 00 00|            ....|      size_of_uninitialized_data: 0 0x9c-0x9f.7 (4)
0x0a0|10 10 00 00                                    |....            |      address_of_entry_point: 0x1010 0xa0-0xa3.7 (4)
0x0a0|            00 10 00 00                        |    ....        |      base_of_code: 0x1000 0xa4-0xa7.7 (4)
0x0a0|                        00 00 00 40 01 00 00 00|        ...@....|      image_base: 0x140000000 0xa8-0xaf.7 (8)
0x0b0|00 10 00 00                                    |....            |      section_alignment: 4096 0xb0-0xb3.7 (4)
0x0b0|            00 02 00 00                        |    ....        |      file_alignment: 512 0xb4-0xb7.7 (4)
0x0b0|                        06 00                  |        ..      |      major_os_version: 6 0xb8-0xb9.7 (2)
0x0b0|                              00 00            |          ..    |      minor_os_version: 0 0xba-0xbb.7 (2)
0x0b0|                                    00 00      |            ..  |      major_image_version: 0 0xbc-0xbd.7 (2)
0x0b0|                                          00 00|              ..|      minor_image_version: 0 0xbe-0xbf.7 (2)
0x0c0|06 00                                          |..              |      major_subsystem_version: 6 0xc0-0xc1.7 (2)
0x0c0|      00 00                                    |  ..            |      minor_subsystem_version: 0 0xc2-0xc3.7 (2)
0x0c0|            00 00 00 00                        |    ....        |      win32_version: 0 0xc4-0xc7.7 (4)
0x0c0|                        00 40 00 00            |        .@..    |      size_of_image: 16384 0xc8-0xcb.7 (4)
0x0c0|                                    00 02 00 00|            ....|      size_of_headers: 512 0xcc-0xcf.7 (4)
0x0d0|00 00 00 00                                    |....            |      chunk_sum: 0x0 0xd0-0xd3.7 (4)
0x0d0|            0a 00                              |    ..          |      subsystem: "efi_application" (10) (An Extensible Firmware Interface (EFI) application) 0xd4-0xd5.7 (2)
     |                                               |                |      dll_characteristics{}: 0xd6-0xd7.7 (2)
0x0d0|                  60                           |      `         |        force_integrity: false 0xd6-0xd6 (0.1)
0x0d0|                  60                           |      `         |        dynamic_base: true 0xd6.1-0xd6.1 (0.1)
0x0d0|                  60                           |      `         |        high_entropy_va: true 0xd6.2-0xd6.2 (0.1)
0x0d0|                  60                           |      `         |        reserved0: false 0xd6.3-0xd6.3 (0.1)
0x0d0|                  60                           |      `         |        reserved1: false 0xd6.4-0xd6.4 (0.1)
0x0d0|                  60                           |      `         |        reserved2: false 0xd6.5-0xd6.5 (0.1)
0x0d0|                  60                           |      `         |        reserved3: false 0xd6.6-0xd6.6 (0.1)
0x0d0|                  60                           |      `         |        reserved4: false 0xd6.7-0xd6.7 (0.1)
0x0d0|                     81                        |       .        |        terminal_server_aware: true 0xd7-0xd7 (0.1)
0x0d0|                     81                        |       .        |        guard_cf: false 0xd7.1-0xd7.1 (0.1)
0x0d0|                     81                        |       .        |        wdm_driver: false 0xd7.2-0xd7.2 (0.1)
0x0d0|                     81                        |       .        |        appcontainer: false 0xd7.3-0xd7.3 (0.1)
0x0d0|                     81                        |       .        |        no_bind: false 0xd7.4-0xd7.4 (0.1)
0x0d0|                     81                        |       .        |        no_seh: false 0xd7.5-0xd7.5 (0.1)
0x0d0|                     81                        |       .        |        no_isolation: false 0xd7.6-0xd7.6 (0.1)
0x0d0|                     81                        |       .        |        nx_compat: true 0xd7.7-0xd7.7 (0.1)
0x0d0|                        00 00 10 00 00 00 00 00|        ........|      size_of_track_reserve: 1048576 0xd8-0xdf.7 (8)
0x0e0|00 10 00 00 00 00 00 00                        |........        |      size_of_stack_commit: 4096 0xe0-0xe7.7 (8)
0x0e0|                        00 00 10 00 00 00 00 00|        ........|      size_of_heap_reserve: 1048576 0xe8-0xef.7 (8)
0x0f0|00 10 00 00 00 00 00 00                        |........        |      size_of_heap_commit: 4096 0xf0-0xf7.7 (8)
0x0f0|                        00 00 00 00            |        ....    |      loader_flags: 0 0xf8-0xfb.7 (4)
0x0f0|                                    10 00 00 00|            ....|      number_of_rva_and_sizes: 16 0xfc-0xff.7 (4)
0x100|00 00 00 00                                    |....            |      export_table_address: 0x0 0x100-0x103.7 (4)
0x100|            00 00 00 00                        |    ....        |      export_table_size: 0 0x104-0x107.7 (4)
0x100|                        00 00 00 00            |        ....    |      import_table_address: 0x0 0x108-0x10b.7 (4)
0x100|                                    00 00 00 00|            ....|      import_table_size: 0 0x10c-0x10f.7 (4)
0x110|00 00 00 00                                    |....            |      resource_table_address: 0x0 0x110-0x113.7 (4)
0x110|            00 00 00 00                        |    ....        |      resource_table_size: 0 0x114-0x117.7 (4)
0x110|                        00 00 00 00            |        ....    |      exception_table_address: 0x0 0x118-0x11b.7 (4)
0x110|                                    00 00 00 00|            ....|      exception_table_size: 0 0x11c-0x11f.7 (4)
0x120|00 00 00 00                                    |....            |      certificate_table_address: 0x0 0x120-0x123.7 (4)
0x120|            00 00 00 00                        |    ....        |      certificate_table_size: 0 0x124-0x127.7 (4)
0x120|                        00 30 00 00            |        .0..    |      base_relocation_table_address: 0x3000 0x128-0x12b.7 (4)
0x120|                                    0c 00 00 00|            ....|      base_relocation_table_size: 12 0x12c-0x12f.7 (4)
0x130|00 00 00 00                                    |....            |      debug_address: 0x0 0x130-0x133.7 (4)
0x130|            00 00 00 00                        |    ....        |      debug_size: 0 0x134-0x137.7 (4)
0x130|                        00 00 00 00 00 00 00 00|        ........|      architecture: 0 0x138-0x13f.7 (8)
0x140|00 00 00 00 00 00 00 00                        |........        |      global_ptr: 0x0 0x140-0x147.7 (8)
0x140|                        00 00 00 00            |        ....    |      tls_table_address: 0x0 0x148-0x14b.7 (4)
0x140|                                    00 00 00 00|            ....|      tls_table_size: 0 0x14c-0x14f.7 (4)
0x150|00 00 00 00                                    |....            |      load_config_table_address: 0x0 0x150-0x153.7 (4)
0x150|            00 00 00 00                        |    ....        |      load_config_table_size: 0 0x154-0x157.7 (4)
0x150|                        00 00 00 00            |        ....    |      bound_import_address: 0x0 0x158-0x15b.7 (4)
0x150|                                    00 00 00 00|            ....|      bound_import_size: 0 0x15c-0x15f.7 (4)
0x160|00 00 00 00                                    |....            |      iat_address: 0x0 0x160-0x163.7 (4)
0x160|            00 00 00 00                        |    ....        |      iat_size: 0 0x164-0x167.7 (4)
0x160|                        00 00 00 00            |        ....    |      delay_import_descriptor_address: 0x0 0x168-0x16b.7 (4)
0x160|                                    00 00 00 00|            ....|      delay_import_descriptor_size: 0 0x16c-0x16f.7 (4)
0x170|00 00 00 00                                    |....            |      clr_runtime_header_address: 0x0 0x170-0x173.7 (4)
0x170|            00 00 00 00                        |    ....        |      clr_runtime_header_size: 0 0x174-0x177.7 (4)
0x170|                        00 00 00 00 00 00 00 00|        ........|      reserved: 0 0x178-0x17f.7 (8)
     |                                               |                |      unknown: raw bits 0x180-NA (0)
     |                                               |                |    sections[0:3]: 0x180-0x7ff.7 (1664)
     |                                               |                |      [0]{}: section 0x180-0x3ff.7 (640)
0x180|2e 74 65 78 74 00 00 00                        |.text...        |        name: ".text" 0x180-0x187.7 (8)
0x180|                        23 00 00 00            |        #...    |        virtual_size: 35 0x188-0x18b.7 (4)
0x180|                                    00 10 00 00|            ....|        virtual_address: 0x1000 0x18c-0x18f.7 (4)
0x190|00 02 00 00                                    |....            |        size_of_raw_data: 512 0x190-0x193.7 (4)
0x190|            00 02 00 00                        |    ....        |        pointer_to_raw_data: 0x200 0x194-0x197.7 (4)
0x190|                        00 00 00 00            |        ....    |        pointer_to_relocations: 0x0 0x198-0x19b.7 (4)
0x190|                                    00 00 00 00|            ....|        pointer_to_line_numbers: 0x0 0x19c-0x19f.7 (4)
0x1a0|00 00                                          |..              |        number_of_relocations: 0 0x1a0-0x1a1.7 (2)
0x1a0|      00 00                                    |  ..            |        number_of_line_numbers: 0 0x1a2-0x1a3.7 (2)
     |                                               |                |        characteristics{}: 0x1a4-0x1a7.7 (4)
0x1a0|            20                                 |                |          cnt_uninitialized_data: false 0x1a4-0x1a4 (0.1)
0x1a0|            20                                 |                |          cnt_initialized_data: false 0x1a4.1-0x1a4.1 (0.1)
0x1a0|            20                                 |                |          cnt_code: true 0x1a4.2-0x1a4.2 (0.1)
0x1a0|            20                                 |                |          reserved: false 0x1a4.3-0x1a4.3 (0.1)
0x1a0|            20                                 |                |          type_no_pad: false 0x1a4.4-0x1a4.4 (0.1)
0x1a0|            20                                 |                |          reserved0: false 0x1a4.5-0x1a4.5 (0.1)
0x1a0|            20                                 |                |          reserved1: false 0x1a4.6-0x1a4.6 (0.1)
0x1a0|            20                                 |                |          reserved2: false 0x1a4.7-0x1a4.7 (0.1)
0x1a0|               00                              |     .          |          gprel: false 0x1a5-0x1a5 (0.1)
0x1a0|               00                              |     .          |          unknown0: false 0x1a5.1-0x1a5.1 (0.1)
0x1a0|               00                              |     .          |          unknown1: false 0x1a5.2-0x1a5.2 (0.1)
0x1a0|               00                              |     .          |          lnk_comdat: false 0x1a5.3-0x1a5.3 (0.1)
0x1a0|               00                              |     .          |          lnk_remove: false 0x1a5.4-0x1a5.4 (0.1)
0x1a0|               00                              |     .          |          reserved3: false 0x1a5.5-0x1a5.5 (0.1)
0x1a0|               00                              |     .          |          lnk_info: false 0x1a5.6-0x1a5.6 (0.1)
0x1a0|               00                              |     .          |          lnk_other: false 0x1a5.7-0x1a5.7 (0.1)
0x1a0|                  00                           |      .         |          align_128bytes: false 0x1a6-0x1a6 (0.1)
0x1a0|                  00                           |      .         |          align_8bytes: false 0x1a6.1-0x1a6.1 (0.1)
0x1a0|                  00                           |      .         |          align_2bytes: false 0x1a6.2-0x1a6.2 (0.1)
0x1a0|                  00                           |      .         |          align_1bytes: false 0x1a6.3-0x1a6.3 (0.1)
0x1a0|                  00                           |      .         |          mem_preload: false 0x1a6.4-0x1a6.4 (0.1)
0x1a0|                  00                           |      .         |          mem_locked: false 0x1a6.5-0x1a6.5 (0.1)
0x1a0|                  00                           |      .         |          mem_16bit: false 0x1a6.6-0x1a6.6 (0.1)
0x1a0|                  00                           |      .         |          mem_purgeable: false 0x1a6.7-0x1a6.7 (0.1)
0x1a0|                     60                        |       `        |          mem_write: false 0x1a7-0x1a7 (0.1)
0x1a0|                     60                        |       `        |          mem_read: true 0x1a7.1-0x1a7.1 (0.1)
0x1a0|                     60                        |       `        |          mem_execute: true 0x1a7.2-0x1a7.2 (0.1)
0x1a0|                     60                        |       `        |          mem_shared: false 0x1a7.3-0x1a7.3 (0.1)
0x1a0|                     60                        |       `        |          mem_not_paged: false 0x1a7.4-0x1a7.4 (0.1)
0x1a0|                     60                        |       `        |          mem_not_cached: false 0x1a7.5-0x1a7.5 (0.1)
0x1a0|                     60                        |       `        |          mem_discardable: false 0x1a7.6-0x1a7.6 (0.1)
0x1a0|                     60                        |       `        |          lnk_nreloc_ovfl: false 0x1a7.7-0x1a7.7 (0.1)
0x200|de a9 42 90 dc 23 38 4a 96 fb 7a de d0 80 51 6a|..B..#8J..z...Qj|        data: raw bits 0x200-0x3ff.7 (512)
*    |until 0x3ff.7 (512)                            |                |
     |                                               |                |      [1]{}: section 0x1a8-0x5ff.7 (1112)
0x1a0|                        2e 64 61 74 61 00 00 00|        .data...|        name: ".data" 0x1a8-0x1af.7 (8)
0x1b0|18 00 00 00                                    |....            |        virtual_size: 24 0x1b0-0x1b3.7 (4)
0x1b0|            00 20 00 00                        |    . ..        |        virtual_address: 0x2000 0x1b4-0x1b7.7 (4)
0x1b0|                        00 02 00 00            |        ....    |        size_of_raw_data: 512 0x1b8-0x1bb.7 (4)
0x1b0|                                    00 04 00 00|            ....|        pointer_to_raw_data: 0x400 0x1bc-0x1bf.7 (4)
0x1c0|00 00 00 00                                    |....            |        pointer_to_relocations: 0x0 0x1c0-0x1c3.7 (4)
0x1c0|            00 00 00 00                        |    ....        |        pointer_to_line_numbers: 0x0 0x1c4-0x1c7.7 (4)
0x1c0|                        00 00                  |        ..      |        number_of_relocations: 0 0x1c8-0x1c9.7 (2)
0x1c0|                              00 00            |          ..    |        number_of_line_numbers: 0 0x1ca-0x1cb.7 (2)
     |                                               |                |        characteristics{}: 0x1cc-0x1cf.7 (4)
0x1c0|                                    40         |            @   |          cnt_uninitialized_data: false 0x1cc-0x1cc (0.1)
0x1c0|                                    40         |            @   |          cnt_initialized_data: true 0x1cc.1-0x1cc.1 (0.1)
0x1c0|                                    40         |            @   |          cnt_code: false 0x1cc.2-0x1cc.2 (0.1)
0x1c0|                                    40         |            @   |          reserved: false 0x1cc.3-0x1cc.3 (0.1)
0x1c0|                                    40         |            @   |          type_no_pad: false 0x1cc.4-0x1cc.4 (0.1)
0x1c0|                                    40         |            @   |          reserved0: false 0x1cc.5-0x1cc.5 (0.1)
0x1c0|                                    40         |            @   |          reserved1: false 0x1cc.6-0x1cc.6 (0.1)
0x1c0|                                    40         |            @   |          reserved2: false 0x1cc.7-0x1cc.7 (0.1)
0x1c0|                                       00      |             .  |          gprel: false 0x1cd-0x1cd (0.1)
0x1c0|                                       00      |             .  |          unknown0: false 0x1cd.1-0x1cd.1 (0.1)
0x1c0|                                       00      |             .  |          unknown1: false 0x1cd.2-0x1cd.2 (0.1)
0x1c0|                                       00      |             .  |          lnk_comdat: false 0x1cd.3-0x1cd.3 (0.1)
0x1c0|                                       00      |             .  |          lnk_remove: false 0x1cd.4-0x1cd.4 (0.1)
0x1c0|                                       00      |             .  |          reserved3: false 0x1cd.5-0x1cd.5 (0.1)
0x1c0|                                       00      |             .  |          lnk_info: false 0x1cd.6-0x1cd.6 (0.1)
0x1c0|                                       00      |             .  |          lnk_other: false 0x1cd.7-0x1cd.7 (0.1)
0x1c0|                                          00   |              . |          align_128bytes: false 0x1ce-0x1ce (0.1)
0x1c0|                                          00   |              . |          align_8bytes: false 0x1ce.1-0x1ce.1 (0.1)
0x1c0|                                          00   |              . |          align_2bytes: false 0x1ce.2-0x1ce.2 (0.1)
0x1c0|                                          00   |              . |          align_1bytes: false 0x1ce.3-0x1ce.3 (0.1)
0x1c0|                                          00   |              . |          mem_preload: false 0x1ce.4-0x1ce.4 (0.1)
0x1c0|                                          00   |              . |          mem_locked: false 0x1ce.5-0x1ce.5 (0.1)
0x1c0|                                          00   |              . |          mem_16bit: false 0x1ce.6-0x1ce.6 (0.1)
0x1c0|                                          00   |              . |          mem_purgeable: false 0x1ce.7-0x1ce.7 (0.1)
0x1c0|                                             c0|               .|          mem_write: true 0x1cf-0x1cf (0.1)
0x1c0|                                             c0|               .|          mem_read: true 0x1cf.1-0x1cf.1 (0.1)
0x1c0|                                             c0|               .|          mem_execute: false 0x1cf.2-0x1cf.2 (0.1)
0x1c0|                                             c0|               .|          mem_shared: false 0x1cf.3-0x1cf.3 (0.1)
0x1c0|                                             c0|               .|          mem_not_paged: false 0x1cf.4-0x1cf.4 (0.1)
0x1c0|                                             c0|               .|          mem_not_cached: false 0x1cf.5-0x1cf.5 (0.1)
0x1c0|                                             c0|               .|          mem_discardable: false 0x1cf.6-0x1cf.6 (0.1)
0x1c0|                                             c0|               .|          lnk_nreloc_ovfl: false 0x1cf.7-0x1cf.7 (0.1)
0x400|48 00 65 00 6c 00 6c 00 6f 00 20 00 57 00 6f 00|H.e.l.l.o. .W.o.|        data: raw bits 0x400-0x5ff.7 (512)
*    |until 0x5ff.7 (512)                            |                |
     |                                               |                |      [2]{}: section 0x1d0-0x7ff.7 (1584)
0x1d0|2e 72 65 6c 6f 63 00 00                        |.reloc..        |        name: ".reloc" 0x1d0-0x1d7.7 (8)
0x1d0|                        0c 00 00 00            |        ....    |        virtual_size: 12 0x1d8-0x1db.7 (4)
0x1d0|                                    00 30 00 00|            .0..|        virtual_address: 0x3000 0x1dc-0x1df.7 (4)
0x1e0|00 02 00 00                                    |....            |        size_of_raw_data: 512 0x1e0-0x1e3.7 (4)
0x1e0|            00 06 00 00                        |    ....        |        pointer_to_raw_data: 0x600 0x1e4-0x1e7.7 (4)
0x1e0|                        00 00 00 00            |        ....    |        pointer_to_relocations: 0x0 0x1e8-0x1eb.7 (4)
0x1e0|                                    00 00 00 00|            ....|        pointer_to_line_numbers: 0x0 0x1ec-0x1ef.7 (4)
0x1f0|00 00                                          |..              |        number_of_relocations: 0 0x1f0-0x1f1.7 (2)
0x1f0|      00 00                                    |  ..            |        number_of_line_numbers: 0 0x1f2-0x1f3.7 (2)
     |                                               |                |        characteristics{}: 0x1f4-0x1f7.7 (4)
0x1f0|            40                                 |    @           |          cnt_uninitialized_data: false 0x1f4-0x1f4 (0.1)
0x1f0|            40                                 |    @           |          cnt_initialized_data: true 0x1f4.1-0x1f4.1 (0.1)
0x1f0|            40                                 |    @           |          cnt_code: false 0x1f4.2-0x1f4.2 (0.1)
0x1f0|            40                                 |    @           |          reserved: false 0x1f4.3-0x1f4.3 (0.1)
0x1f0|            40                                 |    @           |          type_no_pad: false 0x1f4.4-0x1f4.4 (0.1)
0x1f0|            40                                 |    @           |          reserved0: false 0x1f4.5-0x1f4.5 (0.1)
0x1f0|            40                                 |    @           |          reserved1: false 0x1f4.6-0x1f4.6 (0.1)
0x1f0|            40                                 |    @           |          reserved2: false 0x1f4.7-0x1f4.7 (0.1)
0x1f0|               00                              |     .          |          gprel: false 0x1f5-0x1f5 (0.1)
0x1f0|               00                              |     .          |          unknown0: false 0x1f5.1-0x1f5.1 (0.1)
0x1f0|               00                              |     .          |          unknown1: false 0x1f5.2-0x1f5.2 (0.1)
0x1f0|               00                              |     .          |          lnk_comdat: false 0x1f5.3-0x1f5.3 (0.1)
0x1f0|               00                              |     .          |          lnk_remove: false 0x1f5.4-0x1f5.4 (0.1)
0x1f0|               00                              |     .          |          reserved3: false 0x1f5.5-0x1f5.5 (0.1)
0x1f0|               00                              |     .          |          lnk_info: false 0x1f5.6-0x1f5.6 (0.1)
0x1f0|               00                              |     .          |          lnk_other: false 0x1f5.7-0x1f5.7 (0.1)
0x1f0|                  00                           |      .         |          align_128bytes: false 0x1f6-0x1f6 (0.1)
0x1f0|                  00                           |      .         |          align_8bytes: false 0x1f6.1-0x1f6.1 (0.1)
0x1f0|                  00                           |      .         |          align_2bytes: false 0x1f6.2-0x1f6.2 (0.1)
0x1f0|                  00                           |      .         |          align_1bytes: false 0x1f6.3-0x1f6.3 (0.1)
0x1f0|                  00                           |      .         |          mem_preload: false 0x1f6.4-0x1f6.4 (0.1)
0x1f0|                  00                           |      .         |          mem_locked: false 0x1f6.5-0x1f6.5 (0.1)
0x1f0|                  00                           |      .         |          mem_16bit: false 0x1f6.6-0x1f6.6 (0.1)
0x1f0|                  00                           |      .         |          mem_purgeable: false 0x1f6.7-0x1f6.7 (0.1)
0x1f0|                     42                        |       B        |          mem_write: false 0x1f7-0x1f7 (0.1)
0x1f0|                     42                        |       B        |          mem_read: true 0x1f7.1-0x1f7.1 (0.1)
0x1f0|                     42                        |       B        |          mem_execute: false 0x1f7.2-0x1f7.2 (0.1)
0x1f0|                     42                        |       B        |          mem_shared: false 0x1f7.3-0x1f7.3 (0.1)
0x1f0|                     42                        |       B        |          mem_not_paged: false 0x1f7.4-0x1f7.4 (0.1)
0x1f0|                     42                        |       B        |          mem_not_cached: false 0x1f7.5-0x1f7.5 (0.1)
0x1f0|                     42                        |       B        |          mem_discardable: true 0x1f7.6-0x1f7.6 (0.1)
0x1f0|                     42                        |       B        |          lnk_nreloc_ovfl: false 0x1f7.7-0x1f7.7 (0.1)
0x600|00 10 00 00 0c 00 00 00 16 a0 00 00 00 00 00 00|................|        data: raw bits 0x600-0x7ff.7 (512)
*    |until 0x7ff.7 (end) (512)                      |                |
0x1f0|                        00 00 00 00 00 00 00 00|        ........|  gap0: raw bits 0x1f8-0x1ff.7 (8)
