$ fq dv pe-cygwin-ls.exe
       |00 01 02 03 04 05 06 07 08 09 0a 0b 0c 0d 0e 0f|0123456789abcdef|.{}: pe-cygwin-ls.exe (pe) 0x0-0x2101c.7 (135197)
       |00 01 02 03 04 05 06 07 08 09 0a 0b 0c 0d 0e 0f|0123456789abcdef|  ms_dos_stub{}: (msdos_stub) 0x0-0x7f.7 (128)
0x00000|4d 5a                                          |MZ              |    e_magic: 0x5a4d (valid) 0x0-0x1.7 (2)
0x00000|      90 00                                    |  ..            |    e_cblp: 144 (Bytes on last page of file) 0x2-0x3.7 (2)
0x00000|            03 00                              |    ..          |    e_cp: 3 (Pages in file) 0x4-0x5.7 (2)
0x00000|                  00 00                        |      ..        |    e_crlc: 0 (Relocations) 0x6-0x7.7 (2)
0x00000|                        04 00                  |        ..      |    e_cparhdr: 4 (Size of header in paragraphs) 0x8-0x9.7 (2)
0x00000|                              00 00            |          ..    |    e_minalloc: 0 (Minimum extra paragraphs needed) 0xa-0xb.7 (2)
0x00000|                                    ff ff      |            ..  |    e_maxalloc: 65535 (Maximum extra paragraphs needed) 0xc-0xd.7 (2)
0x00000|                                          00 00|              ..|    e_ss: 0 (Initial (relative) SS value) 0xe-0xf.7 (2)
0x00010|b8 00                                          |..              |    e_sp: 184 (Initial SP value) 0x10-0x11.7 (2)
0x00010|      00 00                                    |  ..            |    e_csum: 0 (Checksum) 0x12-0x13.7 (2)
0x00010|            00 00                              |    ..          |    e_ip: 0 (Initial IP value) 0x14-0x15.7 (2)
0x00010|                  00 00                        |      ..        |    e_cs: 0 (Initial (relative) CS value) 0x16-0x17.7 (2)
0x00010|                        40 00                  |        @.      |    e_lfarlc: 64 (File address of relocation table) 0x18-0x19.7 (2)
0x00010|                              00 00            |          ..    |    e_ovno: 0 (Overlay number) 0x1a-0x1b.7 (2)
0x00010|                                    00 00 00 00|            ....|    e_res: raw bits (Reserved words) 0x1c-0x23.7 (8)
0x00020|00 00 00 00                                    |....            |
0x00020|            00 00                              |    ..          |    e_oemid: 0 (OEM identifier (for e_oeminfo)) 0x24-0x25.7 (2)
0x00020|                  00 00                        |      ..        |    e_oeminfo: 0 (OEM information; e_oemid specific) 0x26-0x27.7 (2)
0x00020|                        00 00 00 00 00 00 00 00|        ........|    e_res2: raw bits (Reserved words) 0x28-0x3b.7 (20)
0x00030|00 00 00 00 00 00 00 00 00 00 00 00            |............    |
0x00030|                                    80 00 00 00|            ....|    e_lfanew: 128 (File address of new exe header) 0x3c-0x3f.7 (4)
0x00040|0e 1f ba 0e 00 b4 09 cd 21 b8 01 4c cd 21 54 68|........!..L.!Th|    stub: raw bits (Sub program) 0x40-0x7f.7 (64)
*      |until 0x7f.7 (64)                              |                |
       |00 01 02 03 04 05 06 07 08 09 0a 0b 0c 0d 0e 0f|0123456789abcdef|  coff{}: (coff) 0x80-0x2101c.7 (135069)
0x00080|50 45 00 00                                    |PE..            |    signature: raw bits (valid) 0x80-0x83.7 (4)
0x00080|            4c 01                              |    L.          |    machine: "i386" (0x14c) (Intel 386 or later processors and compatible processors) 0x84-0x85.7 (2)
0x00080|                  09 00                        |      ..        |    number_of_sections: 9 0x86-0x87.7 (2)
0x00080|                        00 00 11 00            |        ....    |    time_date_stamp: 1114112 (1970-01-13T21:28:32Z) 0x88-0x8b.7 (4)
0x00080|                                    00 10 02 00|            ....|    pointer_to_symbol_table: 0x21000 0x8c-0x8f.7 (4)
0x00090|00 00 00 00                                    |....            |    number_of_symbols: 0 0x90-0x93.7 (4)
0x00090|            e0 00                              |    ..          |    size_of_optional_header: 224 0x94-0x95.7 (2)
       |                                               |                |    characteristics{}: 0x96-0x97.7 (2)
0x00090|                  2f                           |      /         |      bytes_reversed_hi: false 0x96-0x96 (0.1)
0x00090|                  2f                           |      /         |      up_system_only: false 0x96.1-0x96.1 (0.1)
0x00090|                  2f                           |      /         |      dll: true 0x96.2-0x96.2 (0.1)
0x00090|                  2f                           |      /         |      system: false 0x96.3-0x96.3 (0.1)
0x00090|                  2f                           |      /         |      net_run_from_swap: true 0x96.4-0x96.4 (0.1)
0x00090|                  2f                           |      /         |      removable_run_from_swap: true 0x96.5-0x96.5 (0.1)
0x00090|                  2f                           |      /         |      debug_stripped: true 0x96.6-0x96.6 (0.1)
0x00090|                  2f                           |      /         |      32bit_machine: true 0x96.7-0x96.7 (0.1)
0x00090|                     01                        |       .        |      bytes_reversed_lo: false 0x97-0x97 (0.1)
0x00090|                     01                        |       .        |      reserved: false 0x97.1-0x97.1 (0.1)
0x00090|                     01                        |       .        |      large_address_aware: false 0x97.2-0x97.2 (0.1)
0x00090|                     01                        |       .        |      aggressive_ws_trim: false 0x97.3-0x97.3 (0.1)
0x00090|                     01                        |       .        |      local_syms_stripped: false 0x97.4-0x97.4 (0.1)
0x00090|                     01                        |       .        |      line_nums_stripped: false 0x97.5-0x97.5 (0.1)
0x00090|                     01                        |       .        |      executable_image: false 0x97.6-0x97.6 (0.1)
0x00090|                     01                        |       .        |      relocs_stripped: true 0x97.7-0x97.7 (0.1)
       |                                               |                |    optional_header{}: 0x98-0x177.7 (224)
0x00090|                        0b 01                  |        ..      |      format: "pe32" (0x10b) 0x98-0x99.7 (2)
0x00090|                              02               |          .     |      major_linker_version: 2 0x9a-0x9a.7 (1)
0x00090|                                 19            |           .    |      minor_linker_version: 25 0x9b-0x9b.7 (1)
0x00090|                                    00 4e 01 00|            .N..|      size_of_code: 85504 0x9c-0x9f.7 (4)
0x000a0|00 0a 02 00                                    |....            |      size_of_initialized_data: 133632 0xa0-0xa3.7 (4)
0x000a0|            00 16 00 00                        |    ....        |      size_of_uninitialized_data: 5632 0xa4-0xa7.7 (4)
0x000a0|                        00 10 00 00            |        ....    |      address_of_entry_point: 0x1000 0xa8-0xab.7 (4)
0x000a0|                                    00 10 00 00|            ....|      base_of_code: 0x1000 0xac-0xaf.7 (4)
0x000b0|00 60 01 00                                    |.`..            |      base_of_data: 0x16000 0xb0-0xb3.7 (4)
0x000b0|            00 00 40 00                        |    ..@.        |      image_base: 0x400000 0xb4-0xb7.7 (4)
0x000b0|                        00 10 00 00            |        ....    |      section_alignment: 4096 0xb8-0xbb.7 (4)
0x000b0|                                    00 02 00 00|            ....|      file_alignment: 512 0xbc-0xbf.7 (4)
0x000c0|04 00                                          |..              |      major_os_version: 4 0xc0-0xc1.7 (2)
0x000c0|      00 00                                    |  ..            |      minor_os_version: 0 0xc2-0xc3.7 (2)
0x000c0|            01 00                              |    ..          |      major_image_version: 1 0xc4-0xc5.7 (2)
0x000c0|                  00 00                        |      ..        |      minor_image_version: 0 0xc6-0xc7.7 (2)
0x000c0|                        04 00                  |        ..      |      major_subsystem_version: 4 0xc8-0xc9.7 (2)
0x000c0|                              00 00            |          ..    |      minor_subsystem_version: 0 0xca-0xcb.7 (2)
0x000c0|                                    00 00 00 00|            ....|      win32_version: 0 0xcc-0xcf.7 (4)
0x000d0|00 80 02 00                                    |....            |      size_of_image: 163840 0xd0-0xd3.7 (4)
0x000d0|            00 04 00 00                        |    ....        |      size_of_headers: 1024 0xd4-0xd7.7 (4)
0x000d0|                        4c 89 02 00            |        L...    |      chunk_sum: 0x2894c 0xd8-0xdb.7 (4)
0x000d0|                                    03 00      |            ..  |      subsystem: "windows_cui" (3) (The Windows character subsystem) 0xdc-0xdd.7 (2)
       |                                               |                |      dll_characteristics{}: 0xde-0xdf.7 (2)
0x000d0|                                          00   |              . |        force_integrity: false 0xde-0xde (0.1)
0x000d0|                                          00   |              . |        dynamic_base: false 0xde.1-0xde.1 (0.1)
0x000d0|                                          00   |              . |        high_entropy_va: false 0xde.2-0xde.2 (0.1)
0x000d0|                                          00   |              . |        reserved0: false 0xde.3-0xde.3 (0.1)
0x000d0|                                          00   |              . |        reserved1: false 0xde.4-0xde.4 (0.1)
0x000d0|                                          00   |              . |        reserved2: false 0xde.5-0xde.5 (0.1)
0x000d0|                                          00   |              . |        reserved3: false 0xde.6-0xde.6 (0.1)
0x000d0|                                          00   |              . |        reserved4: false 0xde.7-0xde.7 (0.1)
0x000d0|                                             80|               .|        terminal_server_aware: true 0xdf-0xdf (0.1)
0x000d0|                                             80|               .|        guard_cf: false 0xdf.1-0xdf.1 (0.1)
0x000d0|                                             80|               .|        wdm_driver: false 0xdf.2-0xdf.2 (0.1)
0x000d0|                                             80|               .|        appcontainer: false 0xdf.3-0xdf.3 (0.1)
0x000d0|                                             80|               .|        no_bind: false 0xdf.4-0xdf.4 (0.1)
0x000d0|                                             80|               .|        no_seh: false 0xdf.5-0xdf.5 (0.1)
0x000d0|                                             80|               .|        no_isolation: false 0xdf.6-0xdf.6 (0.1)
0x000d0|                                             80|               .|        nx_compat: false 0xdf.7-0xdf.7 (0.1)
0x000e0|00 00 20 00                                    |.. .            |      size_of_track_reserve: 2097152 0xe0-0xe3.7 (4)
0x000e0|            00 10 00 00                        |    ....        |      size_of_stack_commit: 4096 0xe4-0xe7.7 (4)
0x000e0|                        00 00 10 00            |        ....    |      size_of_heap_reserve: 1048576 0xe8-0xeb.7 (4)
0x000e0|                                    00 10 00 00|            ....|      size_of_heap_commit: 4096 0xec-0xef.7 (4)
0x000f0|00 00 00 00                                    |....            |      loader_flags: 0 0xf0-0xf3.7 (4)
0x000f0|            10 00 00 00                        |    ....        |      number_of_rva_and_sizes: 16 0xf4-0xf7.7 (4)
0x000f0|                        00 00 00 00            |        ....    |      export_table_address: 0x0 0xf8-0xfb.7 (4)
0x000f0|                                    00 00 00 00|            ....|      export_table_size: 0 0xfc-0xff.7 (4)
0x00100|00 50 02 00                                    |.P..            |      import_table_address: 0x25000 0x100-0x103.7 (4)
0x00100|            30 0e 00 00                        |    0...        |      import_table_size: 3632 0x104-0x107.7 (4)
0x00100|                        00 60 02 00            |        .`..    |      resource_table_address: 0x26000 0x108-0x10b.7 (4)
0x00100|                                    e8 04 00 00|            ....|      resource_table_size: 1256 0x10c-0x10f.7 (4)
0x00110|00 00 00 00                                    |....            |      exception_table_address: 0x0 0x110-0x113.7 (4)
0x00110|            00 00 00 00                        |    ....        |      exception_table_size: 0 0x114-0x117.7 (4)
0x00110|                        00 00 00 00            |        ....    |      certificate_table_address: 0x0 0x118-0x11b.7 (4)
0x00110|                                    00 00 00 00|            ....|      certificate_table_size: 0 0x11c-0x11f.7 (4)
0x00120|00 00 00 00                                    |....            |      base_relocation_table_address: 0x0 0x120-0x123.7 (4)
0x00120|            00 00 00 00                        |    ....        |      base_relocation_table_size: 0 0x124-0x127.7 (4)
0x00120|                        00 e0 01 00            |        ....    |      debug_address: 0x1e000 0x128-0x12b.7 (4)
0x00120|                                    1c 00 00 00|            ....|      debug_size: 28 0x12c-0x12f.7 (4)
0x00130|00 00 00 00 00 00 00 00                        |........        |      architecture: 0 0x130-0x137.7 (8)
0x00130|                        00 00 00 00 00 00 00 00|        ........|      global_ptr: 0x0 0x138-0x13f.7 (8)
0x00140|00 00 00 00                                    |....            |      tls_table_address: 0x0 0x140-0x143.7 (4)
0x00140|            00 00 00 00                        |    ....        |      tls_table_size: 0 0x144-0x147.7 (4)
0x00140|                        00 00 00 00            |        ....    |      load_config_table_address: 0x0 0x148-0x14b.7 (4)
0x00140|                                    00 00 00 00|            ....|      load_config_table_size: 0 0x14c-0x14f.7 (4)
0x00150|00 00 00 00                                    |....            |      bound_import_address: 0x0 0x150-0x153.7 (4)
0x00150|            00 00 00 00                        |    ....        |      bound_import_size: 0 0x154-0x157.7 (4)
0x00150|                        8c 52 02 00            |        .R..    |      iat_address: 0x2528c 0x158-0x15b.7 (4)
0x00150|                                    28 02 00 00|            (...|      iat_size: 552 0x15c-0x15f.7 (4)
0x00160|00 00 00 00                                    |....            |      delay_import_descriptor_address: 0x0 0x160-0x163.7 (4)
0x00160|            00 00 00 00                        |    ....        |      delay_import_descriptor_size: 0 0x164-0x167.7 (4)
0x00160|                        00 00 00 00            |        ....    |      clr_runtime_header_address: 0x0 0x168-0x16b.7 (4)
0x00160|                                    00 00 00 00|            ....|      clr_runtime_header_size: 0 0x16c-0x16f.7 (4)
0x00170|00 00 00 00 00 00 00 00                        |........        |      reserved: 0 0x170-0x177.7 (8)
       |                                               |                |      unknown: raw bits 0x178-NA (0)
       |                                               |                |    sections[0:9]: 0x178-0x20fff.7 (134792)
       |                                               |                |      [0]{}: section 0x178-0x151ff.7 (86152)
0x00170|                        2e 74 65 78 74 00 00 00|        .text...|        name: ".text" 0x178-0x17f.7 (8)
0x00180|04 4c 01 00                                    |.L..            |        virtual_size: 84996 0x180-0x183.7 (4)
0x00180|            00 10 00 00                        |    ....        |        virtual_address: 0x1000 0x184-0x187.7 (4)
0x00180|                        00 4e 01 00            |        .N..    |        size_of_raw_data: 85504 0x188-0x18b.7 (4)
0x00180|                                    00 04 00 00|            ....|        pointer_to_raw_data: 0x400 0x18c-0x18f.7 (4)
0x00190|00 00 00 00                                    |....            |        pointer_to_relocations: 0x0 0x190-0x193.7 (4)
0x00190|            00 00 00 00                        |    ....        |        pointer_to_line_numbers: 0x0 0x194-0x197.7 (4)
0x00190|                        00 00                  |        ..      |        number_of_relocations: 0 0x198-0x199.7 (2)
0x00190|                              00 00            |          ..    |        number_of_line_numbers: 0 0x19a-0x19b.7 (2)
       |                                               |                |        characteristics{}: 0x19c-0x19f.7 (4)
0x00190|                                    60         |            `   |          cnt_uninitialized_data: false 0x19c-0x19c (0.1)
0x00190|                                    60         |            `   |          cnt_initialized_data: true 0x19c.1-0x19c.1 (0.1)
0x00190|                                    60         |            `   |          cnt_code: true 0x19c.2-0x19c.2 (0.1)
0x00190|                                    60         |            `   |          reserved: false 0x19c.3-0x19c.3 (0.1)
0x00190|                                    60         |            `   |          type_no_pad: false 0x19c.4-0x19c.4 (0.1)
0x00190|                                    60         |            `   |          reserved0: false 0x19c.5-0x19c.5 (0.1)
0x00190|                                    60         |            `   |          reserved1: false 0x19c.6-0x19c.6 (0.1)
0x00190|                                    60         |            `   |          reserved2: false 0x19c.7-0x19c.7 (0.1)
0x00190|                                       00      |             .  |          gprel: false 0x19d-0x19d (0.1)
0x00190|                                       00      |             .  |          unknown0: false 0x19d.1-0x19d.1 (0.1)
0x00190|                                       00      |             .  |          unknown1: false 0x19d.2-0x19d.2 (0.1)
0x00190|                                       00      |             .  |          lnk_comdat: false 0x19d.3-0x19d.3 (0.1)
0x00190|                                       00      |             .  |          lnk_remove: false 0x19d.4-0x19d.4 (0.1)
0x00190|                                       00      |             .  |          reserved3: false 0x19d.5-0x19d.5 (0.1)
0x00190|                                       00      |             .  |          lnk_info: false 0x19d.6-0x19d.6 (0.1)
0x00190|                                       00      |             .  |          lnk_other: false 0x19d.7-0x19d.7 (0.1)
0x00190|                                          50   |              P |          align_128bytes: false 0x19e-0x19e (0.1)
0x00190|                                          50   |              P |          align_8bytes: true 0x19e.1-0x19e.1 (0.1)
0x00190|                                          50   |              P |          align_2bytes: false 0x19e.2-0x19e.2 (0.1)
0x00190|                                          50   |              P |          align_1bytes: true 0x19e.3-0x19e.3 (0.1)
0x00190|                                          50   |              P |          mem_preload: false 0x19e.4-0x19e.4 (0.1)
0x00190|                                          50   |              P |          mem_locked: false 0x19e.5-0x19e.5 (0.1)
0x00190|                                          50   |              P |          mem_16bit: false 0x19e.6-0x19e.6 (0.1)
0x00190|                                          50   |              P |          mem_purgeable: false 0x19e.7-0x19e.7 (0.1)
0x00190|                                             60|               `|          mem_write: false 0x19f-0x19f (0.1)
0x00190|                                             60|               `|          mem_read: true 0x19f.1-0x19f.1 (0.1)
0x00190|                                             60|               `|          mem_execute: true 0x19f.2-0x19f.2 (0.1)
0x00190|                                             60|               `|          mem_shared: false 0x19f.3-0x19f.3 (0.1)
0x00190|                                             60|               `|          mem_not_paged: false 0x19f.4-0x19f.4 (0.1)
0x00190|                                             60|               `|          mem_not_cached: false 0x19f.5-0x19f.5 (0.1)
0x00190|                                             60|               `|          mem_discardable: false 0x19f.6-0x19f.6 (0.1)
0x00190|                                             60|               `|          lnk_nreloc_ovfl: false 0x19f.7-0x19f.7 (0.1)
0x00400|55 89 e5 83 ec 18 83 e4 f0 c7 04 24 b0 42 41 00|U..........$.BA.|        data: raw bits 0x400-0x151ff.7 (85504)
*      |until 0x151ff.7 (85504)                        |                |
       |                                               |                |      [1]{}: section 0x1a0-0x153ff.7 (86624)
0x001a0|2e 64 61 74 61 00 00 00                        |.data...        |        name: ".data" 0x1a0-0x1a7.7 (8)
0x001a0|                        c4 01 00 00            |        ....    |        virtual_size: 452 0x1a8-0x1ab.7 (4)
0x001a0|                                    00 60 01 00|            .`..|        virtual_address: 0x16000 0x1ac-0x1af.7 (4)
0x001b0|00 02 00 00                                    |....            |        size_of_raw_data: 512 0x1b0-0x1b3.7 (4)
0x001b0|            00 52 01 00                        |    .R..        |        pointer_to_raw_data: 0x15200 0x1b4-0x1b7.7 (4)
0x001b0|                        00 00 00 00            |        ....    |        pointer_to_relocations: 0x0 0x1b8-0x1bb.7 (4)
0x001b0|                                    00 00 00 00|            ....|        pointer_to_line_numbers: 0x0 0x1bc-0x1bf.7 (4)
0x001c0|00 00                                          |..              |        number_of_relocations: 0 0x1c0-0x1c1.7 (2)
0x001c0|      00 00                                    |  ..            |        number_of_line_numbers: 0 0x1c2-0x1c3.7 (2)
       |                                               |                |        characteristics{}: 0x1c4-0x1c7.7 (4)
0x001c0|            40                                 |    @           |          cnt_uninitialized_data: false 0x1c4-0x1c4 (0.1)
0x001c0|            40                                 |    @           |          cnt_initialized_data: true 0x1c4.1-0x1c4.1 (0.1)
0x001c0|            40                                 |    @           |          cnt_code: false 0x1c4.2-0x1c4.2 (0.1)
0x001c0|            40                                 |    @           |          reserved: false 0x1c4.3-0x1c4.3 (0.1)
0x001c0|            40                                 |    @           |          type_no_pad: false 0x1c4.4-0x1c4.4 (0.1)
0x001c0|            40                                 |    @           |          reserved0: false 0x1c4.5-0x1c4.5 (0.1)
0x001c0|            40                                 |    @           |          reserved1: false 0x1c4.6-0x1c4.6 (0.1)
0x001c0|            40                                 |    @           |          reserved2: false 0x1c4.7-0x1c4.7 (0.1)
0x001c0|               00                              |     .          |          gprel: false 0x1c5-0x1c5 (0.1)
0x001c0|               00                              |     .          |          unknown0: false 0x1c5.1-0x1c5.1 (0.1)
0x001c0|               00                              |     .          |          unknown1: false 0x1c5.2-0x1c5.2 (0.1)
0x001c0|               00                              |     .          |          lnk_comdat: false 0x1c5.3-0x1c5.3 (0.1)
0x001c0|               00                              |     .          |          lnk_remove: false 0x1c5.4-0x1c5.4 (0.1)
0x001c0|               00                              |     .          |          reserved3: false 0x1c5.5-0x1c5.5 (0.1)
0x001c0|               00                              |     .          |          lnk_info: false 0x1c5.6-0x1c5.6 (0.1)
0x001c0|               00                              |     .          |          lnk_other: false 0x1c5.7-0x1c5.7 (0.1)
0x001c0|                  60                           |      `         |          align_128bytes: false 0x1c6-0x1c6 (0.1)
0x001c0|                  60                           |      `         |          align_8bytes: true 0x1c6.1-0x1c6.1 (0.1)
0x001c0|                  60                           |      `         |          align_2bytes: true 0x1c6.2-0x1c6.2 (0.1)
0x001c0|                  60                           |      `         |          align_1bytes: false 0x1c6.3-0x1c6.3 (0.1)
0x001c0|                  60                           |      `         |          mem_preload: false 0x1c6.4-0x1c6.4 (0.1)
0x001c0|                  60                           |      `         |          mem_locked: false 0x1c6.5-0x1c6.5 (0.1)
0x001c0|                  60                           |      `         |          mem_16bit: false 0x1c6.6-0x1c6.6 (0.1)
0x001c0|                  60                           |      `         |          mem_purgeable: false 0x1c6.7-0x1c6.7 (0.1)
0x001c0|                     c0                        |       .        |          mem_write: true 0x1c7-0x1c7 (0.1)
0x001c0|                     c0                        |       .        |          mem_read: true 0x1c7.1-0x1c7.1 (0.1)
0x001c0|                     c0                        |       .        |          mem_execute: false 0x1c7.2-0x1c7.2 (0.1)
0x001c0|                     c0                        |       .        |          mem_shared: false 0x1c7.3-0x1c7.3 (0.1)
0x001c0|                     c0                        |       .        |          mem_not_paged: false 0x1c7.4-0x1c7.4 (0.1)
0x001c0|                     c0                        |       .        |          mem_not_cached: false 0x1c7.5-0x1c7.5 (0.1)
0x001c0|                     c0                        |       .        |          mem_discardable: false 0x1c7.6-0x1c7.6 (0.1)
0x001c0|                     c0                        |       .        |          lnk_nreloc_ovfl: false 0x1c7.7-0x1c7.7 (0.1)
0x15200|00 00 00 00 00 00 00 00 00 00 00 00 00 00 00 00|................|        data: raw bits 0x15200-0x153ff.7 (512)
*      |until 0x153ff.7 (512)                          |                |
       |                                               |                |      [2]{}: section 0x1c8-0x1b9ff.7 (112696)
0x001c0|                        2e 72 64 61 74 61 00 00|        .rdata..|        name: ".rdata" 0x1c8-0x1cf.7 (8)
0x001d0|70 65 00 00                                    |pe..            |        virtual_size: 25968 0x1d0-0x1d3.7 (4)
0x001d0|            00 70 01 00                        |    .p..        |        virtual_address: 0x17000 0x1d4-0x1d7.7 (4)
0x001d0|                        00 66 00 00            |        .f..    |        size_of_raw_data: 26112 0x1d8-0x1db.7 (4)
0x001d0|                                    00 54 01 00|            .T..|        pointer_to_raw_data: 0x15400 0x1dc-0x1df.7 (4)
0x001e0|00 00 00 00                                    |....            |        pointer_to_relocations: 0x0 0x1e0-0x1e3.7 (4)
0x001e0|            00 00 00 00                        |    ....        |        pointer_to_line_numbers: 0x0 0x1e4-0x1e7.7 (4)
0x001e0|                        00 00                  |        ..      |        number_of_relocations: 0 0x1e8-0x1e9.7 (2)
0x001e0|                              00 00            |          ..    |        number_of_line_numbers: 0 0x1ea-0x1eb.7 (2)
       |                                               |                |        characteristics{}: 0x1ec-0x1ef.7 (4)
0x001e0|                                    40         |            @   |          cnt_uninitialized_data: false 0x1ec-0x1ec (0.1)
0x001e0|                                    40         |            @   |          cnt_initialized_data: true 0x1ec.1-0x1ec.1 (0.1)
0x001e0|                                    40         |            @   |          cnt_code: false 0x1ec.2-0x1ec.2 (0.1)
0x001e0|                                    40         |            @   |          reserved: false 0x1ec.3-0x1ec.3 (0.1)
0x001e0|                                    40         |            @   |          type_no_pad: false 0x1ec.4-0x1ec.4 (0.1)
0x001e0|                                    40         |            @   |          reserved0: false 0x1ec.5-0x1ec.5 (0.1)
0x001e0|                                    40         |            @   |          reserved1: false 0x1ec.6-0x1ec.6 (0.1)
0x001e0|                                    40         |            @   |          reserved2: false 0x1ec.7-0x1ec.7 (0.1)
0x001e0|                                       00      |             .  |          gprel: false 0x1ed-0x1ed (0.1)
0x001e0|                                       00      |             .  |          unknown0: false 0x1ed.1-0x1ed.1 (0.1)
0x001e0|                                       00      |             .  |          unknown1: false 0x1ed.2-0x1ed.2 (0.1)
0x001e0|                                       00      |             .  |          lnk_comdat: false 0x1ed.3-0x1ed.3 (0.1)
0x001e0|                                       00      |             .  |          lnk_remove: false 0x1ed.4-0x1ed.4 (0.1)
0x001e0|                                       00      |             .  |          reserved3: false 0x1ed.5-0x1ed.5 (0.1)
0x001e0|                                       00      |             .  |          lnk_info: false 0x1ed.6-0x1ed.6 (0.1)
0x001e0|                                       00      |             .  |          lnk_other: false 0x1ed.7-0x1ed.7 (0.1)
0x001e0|                                          60   |              ` |          align_128bytes: false 0x1ee-0x1ee (0.1)
0x001e0|                                          60   |              ` |          align_8bytes: true 0x1ee.1-0x1ee.1 (0.1)
0x001e0|                                          60   |              ` |          align_2bytes: true 0x1ee.2-0x1ee.2 (0.1)
0x001e0|                                          60   |              ` |          align_1bytes: false 0x1ee.3-0x1ee.3 (0.1)
0x001e0|                                          60   |              ` |          mem_preload: false 0x1ee.4-0x1ee.4 (0.1)
0x001e0|                                          60   |              ` |          mem_locked: false 0x1ee.5-0x1ee.5 (0.1)
0x001e0|                                          60   |              ` |          mem_16bit: false 0x1ee.6-0x1ee.6 (0.1)
0x001e0|                                          60   |              ` |          mem_purgeable: false 0x1ee.7-0x1ee.7 (0.1)
0x001e0|                                             40|               @|          mem_write: false 0x1ef-0x1ef (0.1)
0x001e0|                                             40|               @|          mem_read: true 0x1ef.1-0x1ef.1 (0.1)
0x001e0|                                             40|               @|          mem_execute: false 0x1ef.2-0x1ef.2 (0.1)
0x001e0|                                             40|               @|          mem_shared: false 0x1ef.3-0x1ef.3 (0.1)
0x001e0|                                             40|               @|          mem_not_paged: false 0x1ef.4-0x1ef.4 (0.1)
0x001e0|                                             40|               @|          mem_not_cached: false 0x1ef.5-0x1ef.5 (0.1)
0x001e0|                                             40|               @|          mem_discardable: false 0x1ef.6-0x1ef.6 (0.1)
0x001e0|                                             40|               @|          lnk_nreloc_ovfl: false 0x1ef.7-0x1ef.7 (0.1)
0x15400|63 79 67 67 63 63 5f 73 2d 31 2e 64 6c 6c 00 5f|cyggcc_s-1.dll._|        data: raw bits 0x15400-0x1b9ff.7 (26112)
*      |until 0x1b9ff.7 (26112)                        |                |
       |                                               |                |      [3]{}: section 0x1f0-0x1bbff.7 (113168)
0x001f0|2e 62 75 69 6c 64 69 64                        |.buildid        |        name: ".buildid" 0x1f0-0x1f7.7 (8)
0x001f0|                        35 00 00 00            |        5...    |        virtual_size: 53 0x1f8-0x1fb.7 (4)
0x001f0|                                    00 e0 01 00|            ....|        virtual_address: 0x1e000 0x1fc-0x1ff.7 (4)
0x00200|00 02 00 00                                    |....            |        size_of_raw_data: 512 0x200-0x203.7 (4)
0x00200|            00 ba 01 00                        |    ....        |        pointer_to_raw_data: 0x1ba00 0x204-0x207.7 (4)
0x00200|                        00 00 00 00            |        ....    |        pointer_to_relocations: 0x0 0x208-0x20b.7 (4)
0x00200|                                    00 00 00 00|            ....|        pointer_to_line_numbers: 0x0 0x20c-0x20f.7 (4)
0x00210|00 00                                          |..              |        number_of_relocations: 0 0x210-0x211.7 (2)
0x00210|      00 00                                    |  ..            |        number_of_line_numbers: 0 0x212-0x213.7 (2)
       |                                               |                |        characteristics{}: 0x214-0x217.7 (4)
0x00210|            40                                 |    @           |          cnt_uninitialized_data: false 0x214-0x214 (0.1)
0x00210|            40                                 |    @           |          cnt_initialized_data: true 0x214.1-0x214.1 (0.1)
0x00210|            40                                 |    @           |          cnt_code: false 0x214.2-0x214.2 (0.1)
0x00210|            40                                 |    @           |          reserved: false 0x214.3-0x214.3 (0.1)
0x00210|            40                                 |    @           |          type_no_pad: false 0x214.4-0x214.4 (0.1)
0x00210|            40                                 |    @           |          reserved0: false 0x214.5-0x214.5 (0.1)
0x00210|            40                                 |    @           |          reserved1: false 0x214.6-0x214.6 (0.1)
0x00210|            40                                 |    @           |          reserved2: false 0x214.7-0x214.7 (0.1)
0x00210|               00                              |     .          |          gprel: false 0x215-0x215 (0.1)
0x00210|               00                              |     .          |          unknown0: false 0x215.1-0x215.1 (0.1)
0x00210|               00                              |     .          |          unknown1: false 0x215.2-0x215.2 (0.1)
0x00210|               00                              |     .          |          lnk_comdat: false 0x215.3-0x215.3 (0.1)
0x00210|               00                              |     .          |          lnk_remove: false 0x215.4-0x215.4 (0.1)
0x00210|               00                              |     .          |          reserved3: false 0x215.5-0x215.5 (0.1)
0x00210|               00                              |     .          |          lnk_info: false 0x215.6-0x215.6 (0.1)
0x00210|               00                              |     .          |          lnk_other: false 0x215.7-0x215.7 (0.1)
0x00210|                  30                           |      0         |          align_128bytes: false 0x216-0x216 (0.1)
0x00210|                  30                           |      0         |          align_8bytes: false 0x216.1-0x216.1 (0.1)
0x00210|                  30                           |      0         |          align_2bytes: true 0x216.2-0x216.2 (0.1)
0x00210|                  30                           |      0         |          align_1bytes: true 0x216.3-0x216.3 (0.1)
0x00210|                  30                           |      0         |          mem_preload: false 0x216.4-0x216.4 (0.1)
0x00210|                  30                           |      0         |          mem_locked: false 0x216.5-0x216.5 (0.1)
0x00210|                  30                           |      0         |          mem_16bit: false 0x216.6-0x216.6 (0.1)
0x00210|                  30                           |      0         |          mem_purgeable: false 0x216.7-0x216.7 (0.1)
0x00210|                     40                        |       @        |          mem_write: false 0x217-0x217 (0.1)
0x00210|                     40                        |       @        |          mem_read: true 0x217.1-0x217.1 (0.1)
0x00210|                     40                        |       @        |          mem_execute: false 0x217.2-0x217.2 (0.1)
0x00210|                     40                        |       @        |          mem_shared: false 0x217.3-0x217.3 (0.1)
0x00210|                     40                        |       @        |          mem_not_paged: false 0x217.4-0x217.4 (0.1)
0x00210|                     40                        |       @        |          mem_not_cached: false 0x217.5-0x217.5 (0.1)
0x00210|                     40                        |       @        |          mem_discardable: false 0x217.6-0x217.6 (0.1)
0x00210|                     40                        |       @        |          lnk_nreloc_ovfl: false 0x217.7-0x217.7 (0.1)
0x1ba00|00 00 00 00 00 00 00 00 00 00 00 00 02 00 00 00|................|        data: raw bits 0x1ba00-0x1bbff.7 (512)
*      |until 0x1bbff.7 (512)                          |                |
       |                                               |                |      [4]{}: section 0x218-0x1f7ff.7 (128488)
0x00210|                        2f 34 00 00 00 00 00 00|        /4......|        name: ".eh_frame" ("/4") 0x218-0x21f.7 (8)
0x00220|0c 3a 00 00                                    |.:..            |        virtual_size: 14860 0x220-0x223.7 (4)
0x00220|            00 f0 01 00                        |    ....        |        virtual_address: 0x1f000 0x224-0x227.7 (4)
0x00220|                        00 3c 00 00            |        .<..    |        size_of_raw_data: 15360 0x228-0x22b.7 (4)
0x00220|                                    00 bc 01 00|            ....|        pointer_to_raw_data: 0x1bc00 0x22c-0x22f.7 (4)
0x00230|00 00 00 00                                    |....            |        pointer_to_relocations: 0x0 0x230-0x233.7 (4)
0x00230|            00 00 00 00                        |    ....        |        pointer_to_line_numbers: 0x0 0x234-0x237.7 (4)
0x00230|                        00 00                  |        ..      |        number_of_relocations: 0 0x238-0x239.7 (2)
0x00230|                              00 00            |          ..    |        number_of_line_numbers: 0 0x23a-0x23b.7 (2)
       |                                               |                |        characteristics{}: 0x23c-0x23f.7 (4)
0x00230|                                    40         |            @   |          cnt_uninitialized_data: false 0x23c-0x23c (0.1)
0x00230|                                    40         |            @   |          cnt_initialized_data: true 0x23c.1-0x23c.1 (0.1)
0x00230|                                    40         |            @   |          cnt_code: false 0x23c.2-0x23c.2 (0.1)
0x00230|                                    40         |            @   |          reserved: false 0x23c.3-0x23c.3 (0.1)
0x00230|                                    40         |            @   |          type_no_pad: false 0x23c.4-0x23c.4 (0.1)
0x00230|                                    40         |            @   |          reserved0: false 0x23c.5-0x23c.5 (0.1)
0x00230|                                    40         |            @   |          reserved1: false 0x23c.6-0x23c.6 (0.1)
0x00230|                                    40         |            @   |          reserved2: false 0x23c.7-0x23c.7 (0.1)
0x00230|                                       00      |             .  |          gprel: false 0x23d-0x23d (0.1)
0x00230|                                       00      |             .  |          unknown0: false 0x23d.1-0x23d.1 (0.1)
0x00230|                                       00      |             .  |          unknown1: false 0x23d.2-0x23d.2 (0.1)
0x00230|                                       00      |             .  |          lnk_comdat: false 0x23d.3-0x23d.3 (0.1)
0x00230|                                       00      |             .  |          lnk_remove: false 0x23d.4-0x23d.4 (0.1)
0x00230|                                       00      |             .  |          reserved3: false 0x23d.5-0x23d.5 (0.1)
0x00230|                                       00      |             .  |          lnk_info: false 0x23d.6-0x23d.6 (0.1)
0x00230|                                       00      |             .  |          lnk_other: false 0x23d.7-0x23d.7 (0.1)
0x00230|                                          30   |              0 |          align_128bytes: false 0x23e-0x23e (0.1)
0x00230|                                          30   |              0 |          align_8bytes: false 0x23e.1-0x23e.1 (0.1)
0x00230|                                          30   |              0 |          align_2bytes: true 0x23e.2-0x23e.2 (0.1)
0x00230|                                          30   |              0 |          align_1bytes: true 0x23e.3-0x23e.3 (0.1)
0x00230|                                          30   |              0 |          mem_preload: false 0x23e.4-0x23e.4 (0.1)
0x00230|                                          30   |              0 |          mem_locked: false 0x23e.5-0x23e.5 (0.1)
0x00230|                                          30   |              0 |          mem_16bit: false 0x23e.6-0x23e.6 (0.1)
0x00230|                                          30   |              0 |          mem_purgeable: false 0x23e.7-0x23e.7 (0.1)
0x00230|                                             40|               @|          mem_write: false 0x23f-0x23f (0.1)
0x00230|                                             40|               @|          mem_read: true 0x23f.1-0x23f.1 (0.1)
0x00230|                                             40|               @|          mem_execute: false 0x23f.2-0x23f.2 (0.1)
0x00230|                                             40|               @|          mem_shared: false 0x23f.3-0x23f.3 (0.1)
0x00230|                                             40|               @|          mem_not_paged: false 0x23f.4-0x23f.4 (0.1)
0x00230|                                             40|               @|          mem_not_cached: false 0x23f.5-0x23f.5 (0.1)
0x00230|                                             40|               @|          mem_discardable: false 0x23f.6-0x23f.6 (0.1)
0x00230|                                             40|               @|          lnk_nreloc_ovfl: false 0x23f.7-0x23f.7 (0.1)
0x1bc00|14 00 00 00 00 00 00 00 01 7a 52 00 01 7c 08 01|.........zR..|..|        data: raw bits 0x1bc00-0x1f7ff.7 (15360)
*      |until 0x1f7ff.7 (15360)                        |                |
       |                                               |                |      [5]{}: section 0x240-0x267.7 (40)
0x00240|2e 62 73 73 00 00 00 00                        |.bss....        |        name: ".bss" 0x240-0x247.7 (8)
0x00240|                        74 15 00 00            |        t...    |        virtual_size: 5492 0x248-0x24b.7 (4)
0x00240|                                    00 30 02 00|            .0..|        virtual_address: 0x23000 0x24c-0x24f.7 (4)
0x00250|00 00 00 00                                    |....            |        size_of_raw_data: 0 0x250-0x253.7 (4)
0x00250|            00 00 00 00                        |    ....        |        pointer_to_raw_data: 0x0 0x254-0x257.7 (4)
0x00250|                        00 00 00 00            |        ....    |        pointer_to_relocations: 0x0 0x258-0x25b.7 (4)
0x00250|                                    00 00 00 00|            ....|        pointer_to_line_numbers: 0x0 0x25c-0x25f.7 (4)
0x00260|00 00                                          |..              |        number_of_relocations: 0 0x260-0x261.7 (2)
0x00260|      00 00                                    |  ..            |        number_of_line_numbers: 0 0x262-0x263.7 (2)
       |                                               |                |        characteristics{}: 0x264-0x267.7 (4)
0x00260|            80                                 |    .           |          cnt_uninitialized_data: true 0x264-0x264 (0.1)
0x00260|            80                                 |    .           |          cnt_initialized_data: false 0x264.1-0x264.1 (0.1)
0x00260|            80                                 |    .           |          cnt_code: false 0x264.2-0x264.2 (0.1)
0x00260|            80                                 |    .           |          reserved: false 0x264.3-0x264.3 (0.1)
0x00260|            80                                 |    .           |          type_no_pad: false 0x264.4-0x264.4 (0.1)
0x00260|            80                                 |    .           |          reserved0: false 0x264.5-0x264.5 (0.1)
0x00260|            80                                 |    .           |          reserved1: false 0x264.6-0x264.6 (0.1)
0x00260|            80                                 |    .           |          reserved2: false 0x264.7-0x264.7 (0.1)
0x00260|               00                              |     .          |          gprel: false 0x265-0x265 (0.1)
0x00260|               00                              |     .          |          unknown0: false 0x265.1-0x265.1 (0.1)
0x00260|               00                              |     .          |          unknown1: false 0x265.2-0x265.2 (0.1)
0x00260|               00                              |     .          |          lnk_comdat: false 0x265.3-0x265.3 (0.1)
0x00260|               00                              |     .          |          lnk_remove: false 0x265.4-0x265.4 (0.1)
0x00260|               00                              |     .          |          reserved3: false 0x265.5-0x265.5 (0.1)
0x00260|               00                              |     .          |          lnk_info: false 0x265.6-0x265.6 (0.1)
0x00260|               00                              |     .          |          lnk_other: false 0x265.7-0x265.7 (0.1)
0x00260|                  60                           |      `         |          align_128bytes: false 0x266-0x266 (0.1)
0x00260|                  60                           |      `         |          align_8bytes: true 0x266.1-0x266.1 (0.1)
0x00260|                  60                           |      `         |          align_2bytes: true 0x266.2-0x266.2 (0.1)
0x00260|                  60                           |      `         |          align_1bytes: false 0x266.3-0x266.3 (0.1)
0x00260|                  60                           |      `         |          mem_preload: false 0x266.4-0x266.4 (0.1)
0x00260|                  60                           |      `         |          mem_locked: false 0x266.5-0x266.5 (0.1)
0x00260|                  60                           |      `         |          mem_16bit: false 0x266.6-0x266.6 (0.1)
0x00260|                  60                           |      `         |          mem_purgeable: false 0x266.7-0x266.7 (0.1)
0x00260|                     c0                        |       .        |          mem_write: true 0x267-0x267 (0.1)
0x00260|                     c0                        |       .        |          mem_read: true 0x267.1-0x267.1 (0.1)
0x00260|                     c0                        |       .        |          mem_execute: false 0x267.2-0x267.2 (0.1)
0x00260|                     c0                        |       .        |          mem_shared: false 0x267.3-0x267.3 (0.1)
0x00260|                     c0                        |       .        |          mem_not_paged: false 0x267.4-0x267.4 (0.1)
0x00260|                     c0                        |       .        |          mem_not_cached: false 0x267.5-0x267.5 (0.1)
0x00260|                     c0                        |       .        |          mem_discardable: false 0x267.6-0x267.6 (0.1)
0x00260|                     c0                        |       .        |          lnk_nreloc_ovfl: false 0x267.7-0x267.7 (0.1)
       |                                               |                |      [6]{}: section 0x268-0x207ff.7 (132504)
0x00260|                        2e 69 64 61 74 61 00 00|        .idata..|        name: ".idata" 0x268-0x26f.7 (8)
0x00270|30 0e 00 00                                    |0...            |        virtual_size: 3632 0x270-0x273.7 (4)
0x00270|            00 50 02 00                        |    .P..        |        virtual_address: 0x25000 0x274-0x277.7 (4)
0x00270|                        00 10 00 00            |        ....    |        size_of_raw_data: 4096 0x278-0x27b.7 (4)
0x00270|                                    00 f8 01 00|            ....|        pointer_to_raw_data: 0x1f800 0x27c-0x27f.7 (4)
0x00280|00 00 00 00                                    |....            |        pointer_to_relocations: 0x0 0x280-0x283.7 (4)
0x00280|            00 00 00 00                        |    ....        |        pointer_to_line_numbers: 0x0 0x284-0x287.7 (4)
0x00280|                        00 00                  |        ..      |        number_of_relocations: 0 0x288-0x289.7 (2)
0x00280|                              00 00            |          ..    |        number_of_line_numbers: 0 0x28a-0x28b.7 (2)
       |                                               |                |        characteristics{}: 0x28c-0x28f.7 (4)
0x00280|                                    40         |            @   |          cnt_uninitialized_data: false 0x28c-0x28c (0.1)
0x00280|                                    40         |            @   |          cnt_initialized_data: true 0x28c.1-0x28c.1 (0.1)
0x00280|                                    40         |            @   |          cnt_code: false 0x28c.2-0x28c.2 (0.1)
0x00280|                                    40         |            @   |          reserved: false 0x28c.3-0x28c.3 (0.1)
0x00280|                                    40         |            @   |          type_no_pad: false 0x28c.4-0x28c.4 (0.1)
0x00280|                                    40         |            @   |          reserved0: false 0x28c.5-0x28c.5 (0.1)
0x00280|                                    40         |            @   |          reserved1: false 0x28c.6-0x28c.6 (0.1)
0x00280|                                    40         |            @   |          reserved2: false 0x28c.7-0x28c.7 (0.1)
0x00280|                                       00      |             .  |          gprel: false 0x28d-0x28d (0.1)
0x00280|                                       00      |             .  |          unknown0: false 0x28d.1-0x28d.1 (0.1)
0x00280|                                       00      |             .  |          unknown1: false 0x28d.2-0x28d.2 (0.1)
0x00280|                                       00      |             .  |          lnk_comdat: false 0x28d.3-0x28d.3 (0.1)
0x00280|                                       00      |             .  |          lnk_remove: false 0x28d.4-0x28d.4 (0.1)
0x00280|                                       00      |             .  |          reserved3: false 0x28d.5-0x28d.5 (0.1)
0x00280|                                       00      |             .  |          lnk_info: false 0x28d.6-0x28d.6 (0.1)
0x00280|                                       00      |             .  |          lnk_other: false 0x28d.7-0x28d.7 (0.1)
0x00280|                                          30   |              0 |          align_128bytes: false 0x28e-0x28e (0.1)
0x00280|                                          30   |              0 |          align_8bytes: false 0x28e.1-0x28e.1 (0.1)
0x00280|                                          30   |              0 |          align_2bytes: true 0x28e.2-0x28e.2 (0.1)
0x00280|                                          30   |              0 |          align_1bytes: true 0x28e.3-0x28e.3 (0.1)
0x00280|                                          30   |              0 |          mem_preload: false 0x28e.4-0x28e.4 (0.1)
0x00280|                                          30   |              0 |          mem_locked: false 0x28e.5-0x28e.5 (0.1)
0x00280|                                          30   |              0 |          mem_16bit: false 0x28e.6-0x28e.6 (0.1)
0x00280|                                          30   |              0 |          mem_purgeable: false 0x28e.7-0x28e.7 (0.1)
0x00280|                                             c0|               .|          mem_write: true 0x28f-0x28f (0.1)
0x00280|                                             c0|               .|          mem_read: true 0x28f.1-0x28f.1 (0.1)
0x00280|                                             c0|               .|          mem_execute: false 0x28f.2-0x28f.2 (0.1)
0x00280|                                             c0|               .|          mem_shared: false 0x28f.3-0x28f.3 (0.1)
0x00280|                                             c0|               .|          mem_not_paged: false 0x28f.4-0x28f.4 (0.1)
0x00280|                                             c0|               .|          mem_not_cached: false 0x28f.5-0x28f.5 (0.1)
0x00280|                                             c0|               .|          mem_discardable: false 0x28f.6-0x28f.6 (0.1)
0x00280|                                             c0|               .|          lnk_nreloc_ovfl: false 0x28f.7-0x28f.7 (0.1)
0x1f800|64 50 02 00 00 00 00 00 00 00 00 00 b8 5d 02 00|dP...........]..|        data: raw bits 0x1f800-0x207ff.7 (4096)
*      |until 0x207ff.7 (4096)                         |                |
       |                                               |                |      [7]{}: section 0x290-0x20dff.7 (134000)
0x00290|2e 72 73 72 63 00 00 00                        |.rsrc...        |        name: ".rsrc" 0x290-0x297.7 (8)
0x00290|                        e8 04 00 00            |        ....    |        virtual_size: 1256 0x298-0x29b.7 (4)
0x00290|                                    00 60 02 00|            .`..|        virtual_address: 0x26000 0x29c-0x29f.7 (4)
0x002a0|00 06 00 00                                    |....            |        size_of_raw_data: 1536 0x2a0-0x2a3.7 (4)
0x002a0|            00 08 02 00                        |    ....        |        pointer_to_raw_data: 0x20800 0x2a4-0x2a7.7 (4)
0x002a0|                        00 00 00 00            |        ....    |        pointer_to_relocations: 0x0 0x2a8-0x2ab.7 (4)
0x002a0|                                    00 00 00 00|            ....|        pointer_to_line_numbers: 0x0 0x2ac-0x2af.7 (4)
0x002b0|00 00                                          |..              |        number_of_relocations: 0 0x2b0-0x2b1.7 (2)
0x002b0|      00 00                                    |  ..            |        number_of_line_numbers: 0 0x2b2-0x2b3.7 (2)
       |                                               |                |        characteristics{}: 0x2b4-0x2b7.7 (4)
0x002b0|            40                                 |    @           |          cnt_uninitialized_data: false 0x2b4-0x2b4 (0.1)
0x002b0|            40                                 |    @           |          cnt_initialized_data: true 0x2b4.1-0x2b4.1 (0.1)
0x002b0|            40                                 |    @           |          cnt_code: false 0x2b4.2-0x2b4.2 (0.1)
0x002b0|            40                                 |    @           |          reserved: false 0x2b4.3-0x2b4.3 (0.1)
0x002b0|            40                                 |    @           |          type_no_pad: false 0x2b4.4-0x2b4.4 (0.1)
0x002b0|            40                                 |    @           |          reserved0: false 0x2b4.5-0x2b4.5 (0.1)
0x002b0|            40                                 |    @           |          reserved1: false 0x2b4.6-0x2b4.6 (0.1)
0x002b0|            40                                 |    @           |          reserved2: false 0x2b4.7-0x2b4.7 (0.1)
0x002b0|               00                              |     .          |          gprel: false 0x2b5-0x2b5 (0.1)
0x002b0|               00                              |     .          |          unknown0: false 0x2b5.1-0x2b5.1 (0.1)
0x002b0|               00                              |     .          |          unknown1: false 0x2b5.2-0x2b5.2 (0.1)
0x002b0|               00                              |     .          |          lnk_comdat: false 0x2b5.3-0x2b5.3 (0.1)
0x002b0|               00                              |     .          |          lnk_remove: false 0x2b5.4-0x2b5.4 (0.1)
0x002b0|               00                              |     .          |          reserved3: false 0x2b5.5-0x2b5.5 (0.1)
0x002b0|               00                              |     .          |          lnk_info: false 0x2b5.6-0x2b5.6 (0.1)
0x002b0|               00                              |     .          |          lnk_other: false 0x2b5.7-0x2b5.7 (0.1)
0x002b0|                  30                           |      0         |          align_128bytes: false 0x2b6-0x2b6 (0.1)
0x002b0|                  30                           |      0         |          align_8bytes: false 0x2b6.1-0x2b6.1 (0.1)
0x002b0|                  30                           |      0         |          align_2bytes: true 0x2b6.2-0x2b6.2 (0.1)
0x002b0|                  30                           |      0         |          align_1bytes: true 0x2b6.3-0x2b6.3 (0.1)
0x002b0|                  30                           |      0         |          mem_preload: false 0x2b6.4-0x2b6.4 (0.1)
0x002b0|                  30                           |      0         |          mem_locked: false 0x2b6.5-0x2b6.5 (0.1)
0x002b0|                  30                           |      0         |          mem_16bit: false 0x2b6.6-0x2b6.6 (0.1)
0x002b0|                  30                           |      0         |          mem_purgeable: false 0x2b6.7-0x2b6.7 (0.1)
0x002b0|                     c0                        |       .        |          mem_write: true 0x2b7-0x2b7 (0.1)
0x002b0|                     c0                        |       .        |          mem_read: true 0x2b7.1-0x2b7.1 (0.1)
0x002b0|                     c0                        |       .        |          mem_execute: false 0x2b7.2-0x2b7.2 (0.1)
0x002b0|                     c0                        |       .        |          mem_shared: false 0x2b7.3-0x2b7.3 (0.1)
0x002b0|                     c0                        |       .        |          mem_not_paged: false 0x2b7.4-0x2b7.4 (0.1)
0x002b0|                     c0                        |       .        |          mem_not_cached: false 0x2b7.5-0x2b7.5 (0.1)
0x002b0|                     c0                        |       .        |          mem_discardable: false 0x2b7.6-0x2b7.6 (0.1)
0x002b0|                     c0                        |       .        |          lnk_nreloc_ovfl: false 0x2b7.7-0x2b7.7 (0.1)
0x20800|00 00 00 00 00 00 00 00 00 00 00 00 00 00 01 00|................|        data: raw bits 0x20800-0x20dff.7 (1536)
*      |until 0x20dff.7 (1536)                         |                |
       |                                               |                |      [8]{}: section 0x2b8-0x20fff.7 (134472)
0x002b0|                        2f 31 34 00 00 00 00 00|        /14.....|        name: ".gnu_debuglink" ("/14") 0x2b8-0x2bf.7 (8)
0x002c0|10 00 00 00                                    |....            |        virtual_size: 16 0x2c0-0x2c3.7 (4)
0x002c0|            00 70 02 00                        |    .p..        |        virtual_address: 0x27000 0x2c4-0x2c7.7 (4)
0x002c0|                        00 02 00 00            |        ....    |        size_of_raw_data: 512 0x2c8-0x2cb.7 (4)
0x002c0|                                    00 0e 02 00|            ....|        pointer_to_raw_data: 0x20e00 0x2cc-0x2cf.7 (4)
0x002d0|00 00 00 00                                    |....            |        pointer_to_relocations: 0x0 0x2d0-0x2d3.7 (4)
0x002d0|            00 00 00 00                        |    ....        |        pointer_to_line_numbers: 0x0 0x2d4-0x2d7.7 (4)
0x002d0|                        00 00                  |        ..      |        number_of_relocations: 0 0x2d8-0x2d9.7 (2)
0x002d0|                              00 00            |          ..    |        number_of_line_numbers: 0 0x2da-0x2db.7 (2)
       |                                               |                |        characteristics{}: 0x2dc-0x2df.7 (4)
0x002d0|                                    40         |            @   |          cnt_uninitialized_data: false 0x2dc-0x2dc (0.1)
0x002d0|                                    40         |            @   |          cnt_initialized_data: true 0x2dc.1-0x2dc.1 (0.1)
0x002d0|                                    40         |            @   |          cnt_code: false 0x2dc.2-0x2dc.2 (0.1)
0x002d0|                                    40         |            @   |          reserved: false 0x2dc.3-0x2dc.3 (0.1)
0x002d0|                                    40         |            @   |          type_no_pad: false 0x2dc.4-0x2dc.4 (0.1)
0x002d0|                                    40         |            @   |          reserved0: false 0x2dc.5-0x2dc.5 (0.1)
0x002d0|                                    40         |            @   |          reserved1: false 0x2dc.6-0x2dc.6 (0.1)
0x002d0|                                    40         |            @   |          reserved2: false 0x2dc.7-0x2dc.7 (0.1)
0x002d0|                                       00      |             .  |          gprel: false 0x2dd-0x2dd (0.1)
0x002d0|                                       00      |             .  |          unknown0: false 0x2dd.1-0x2dd.1 (0.1)
0x002d0|                                       00      |             .  |          unknown1: false 0x2dd.2-0x2dd.2 (0.1)
0x002d0|                                       00      |             .  |          lnk_comdat: false 0x2dd.3-0x2dd.3 (0.1)
0x002d0|                                       00      |             .  |          lnk_remove: false 0x2dd.4-0x2dd.4 (0.1)
0x002d0|                                       00      |             .  |          reserved3: false 0x2dd.5-0x2dd.5 (0.1)
0x002d0|                                       00      |             .  |          lnk_info: false 0x2dd.6-0x2dd.6 (0.1)
0x002d0|                                       00      |             .  |          lnk_other: false 0x2dd.7-0x2dd.7 (0.1)
0x002d0|                                          30   |              0 |          align_128bytes: false 0x2de-0x2de (0.1)
0x002d0|                                          30   |              0 |          align_8bytes: false 0x2de.1-0x2de.1 (0.1)
0x002d0|                                          30   |              0 |          align_2bytes: true 0x2de.2-0x2de.2 (0.1)
0x002d0|                                          30   |              0 |          align_1bytes: true 0x2de.3-0x2de.3 (0.1)
0x002d0|                                          30   |              0 |          mem_preload: false 0x2de.4-0x2de.4 (0.1)
0x002d0|                                          30   |              0 |          mem_locked: false 0x2de.5-0x2de.5 (0.1)
0x002d0|                                          30   |              0 |          mem_16bit: false 0x2de.6-0x2de.6 (0.1)
0x002d0|                                          30   |              0 |          mem_purgeable: false 0x2de.7-0x2de.7 (0.1)
0x002d0|                                             42|               B|          mem_write: false 0x2df-0x2df (0.1)
0x002d0|                                             42|               B|          mem_read: true 0x2df.1-0x2df.1 (0.1)
0x002d0|                                             42|               B|          mem_execute: false 0x2df.2-0x2df.2 (0.1)
0x002d0|                                             42|               B|          mem_shared: false 0x2df.3-0x2df.3 (0.1)
0x002d0|                                             42|               B|          mem_not_paged: false 0x2df.4-0x2df.4 (0.1)
0x002d0|                                             42|               B|          mem_not_cached: false 0x2df.5-0x2df.5 (0.1)
0x002d0|                                             42|               B|          mem_discardable: true 0x2df.6-0x2df.6 (0.1)
0x002d0|                                             42|               B|          lnk_nreloc_ovfl: false 0x2df.7-0x2df.7 (0.1)
0x20e00|6c 73 2e 65 78 65 2e 64 62 67 00 00 68 e8 a5 16|ls.exe.dbg..h...|        data: raw bits 0x20e00-0x20fff.7 (512)
*      |until 0x20fff.7 (512)                          |                |
       |                                               |                |    symbol_table[0:0]: 0x2e0-NA (0)
       |                                               |                |    string_table{}: 0x21000-0x2101c.7 (29)
0x21000|1d 00 00 00                                    |....            |      size: 29 0x21000-0x21003.7 (4)
       |                                               |                |      entries[0:2]: 0x21004-0x2101c.7 (25)
0x21000|            2e 65 68 5f 66 72 61 6d 65 00      |    .eh_frame.  |        [0]: ".eh_frame" entry 0x21004-0x2100d.7 (10)
0x21000|                                          2e 67|              .g|        [1]: ".gnu_debuglink" entry 0x2100e-0x2101c.7 (15)
0x21010|6e 75 5f 64 65 62 75 67 6c 69 6e 6b 00|        |nu_debuglink.|  |
0x002e0|00 00 00 00 00 00 00 00 00 00 00 00 00 00 00 00|................|  gap0: raw bits 0x2e0-0x3ff.7 (288)
*      |until 0x3ff.7 (288)                            |                |
