$ fq dv pe-mingw32-strip.exe
        |00 01 02 03 04 05 06 07 08 09 0a 0b 0c 0d 0e 0f|0123456789abcdef|.{}: pe-mingw32-strip.exe (pe) 0x0-0x11b60d.7 (1160718)
        |00 01 02 03 04 05 06 07 08 09 0a 0b 0c 0d 0e 0f|0123456789abcdef|  ms_dos_stub{}: (msdos_stub) 0x0-0x7f.7 (128)
0x000000|4d 5a                                          |MZ              |    e_magic: 0x5a4d (valid) 0x0-0x1.7 (2)
0x000000|      90 00                                    |  ..            |    e_cblp: 144 (Bytes on last page of file) 0x2-0x3.7 (2)
0x000000|            03 00                              |    ..          |    e_cp: 3 (Pages in file) 0x4-0x5.7 (2)
0x000000|                  00 00                        |      ..        |    e_crlc: 0 (Relocations) 0x6-0x7.7 (2)
0x000000|                        04 00                  |        ..      |    e_cparhdr: 4 (Size of header in paragraphs) 0x8-0x9.7 (2)
0x000000|                              00 00            |          ..    |    e_minalloc: 0 (Minimum extra paragraphs needed) 0xa-0xb.7 (2)
0x000000|                                    ff ff      |            ..  |    e_maxalloc: 65535 (Maximum extra paragraphs needed) 0xc-0xd.7 (2)
0x000000|                                          00 00|              ..|    e_ss: 0 (Initial (relative) SS value) 0xe-0xf.7 (2)
0x000010|b8 00                                          |..              |    e_sp: 184 (Initial SP value) 0x10-0x11.7 (2)
0x000010|      00 00                                    |  ..            |    e_csum: 0 (Checksum) 0x12-0x13.7 (2)
0x000010|            00 00                              |    ..          |    e_ip: 0 (Initial IP value) 0x14-0x15.7 (2)
0x000010|                  00 00                        |      ..        |    e_cs: 0 (Initial (relative) CS value) 0x16-0x17.7 (2)
0x000010|                        40 00                  |        @.      |    e_lfarlc: 64 (File address of relocation table) 0x18-0x19.7 (2)
0x000010|                              00 00            |          ..    |    e_ovno: 0 (Overlay number) 0x1a-0x1b.7 (2)
0x000010|                                    00 00 00 00|            ....|    e_res: raw bits (Reserved words) 0x1c-0x23.7 (8)
0x000020|00 00 00 00                                    |....            |
0x000020|            00 00                              |    ..          |    e_oemid: 0 (OEM identifier (for e_oeminfo)) 0x24-0x25.7 (2)
0x000020|                  00 00                        |      ..        |    e_oeminfo: 0 (OEM information; e_oemid specific) 0x26-0x27.7 (2)
0x000020|                        00 00 00 00 00 00 00 00|        ........|    e_res2: raw bits (Reserved words) 0x28-0x3b.7 (20)
0x000030|00 00 00 00 00 00 00 00 00 00 00 00            |............    |
0x000030|                                    80 00 00 00|            ....|    e_lfanew: 128 (File address of new exe header) 0x3c-0x3f.7 (4)
0x000040|0e 1f ba 0e 00 b4 09 cd 21 b8 01 4c cd 21 54 68|........!..L.!Th|    stub: raw bits (Sub program) 0x40-0x7f.7 (64)
*       |until 0x7f.7 (64)                              |                |
        |00 01 02 03 04 05 06 07 08 09 0a 0b 0c 0d 0e 0f|0123456789abcdef|  coff{}: (coff) 0x80-0x11b60d.7 (1160590)
0x000080|50 45 00 00                                    |PE..            |    signature: raw bits (valid) 0x80-0x83.7 (4)
0x000080|            4c 01                              |    L.          |    machine: "i386" (0x14c) (Intel 386 or later processors and compatible processors) 0x84-0x85.7 (2)
0x000080|                  08 00                        |      ..        |    number_of_sections: 8 0x86-0x87.7 (2)
0x000080|                        00 00 00 00            |        ....    |    time_date_stamp: 0 (1970-01-01T00:00:00Z) 0x88-0x8b.7 (4)
0x000080|                                    00 b6 11 00|            ....|    pointer_to_symbol_table: 0x11b600 0x8c-0x8f.7 (4)
0x000090|00 00 00 00                                    |....            |    number_of_symbols: 0 0x90-0x93.7 (4)
0x000090|            e0 00                              |    ..          |    size_of_optional_header: 224 0x94-0x95.7 (2)
        |                                               |                |    characteristics{}: 0x96-0x97.7 (2)
0x000090|                  0f                           |      .         |      bytes_reversed_hi: false 0x96-0x96 (0.1)
0x000090|                  0f                           |      .         |      up_system_only: false 0x96.1-0x96.1 (0.1)
0x000090|                  0f                           |      .         |      dll: false 0x96.2-0x96.2 (0.1)
0x000090|                  0f                           |      .         |      system: false 0x96.3-0x96.3 (0.1)
0x000090|                  0f                           |      .         |      net_run_from_swap: true 0x96.4-0x96.4 (0.1)
0x000090|                  0f                           |      .         |      removable_run_from_swap: true 0x96.5-0x96.5 (0.1)
0x000090|                  0f                           |      .         |      debug_stripped: true 0x96.6-0x96.6 (0.1)
0x000090|                  0f                           |      .         |      32bit_machine: true 0x96.7-0x96.7 (0.1)
0x000090|                     03                        |       .        |      bytes_reversed_lo: false 0x97-0x97 (0.1)
0x000090|                     03                        |       .        |      reserved: false 0x97.1-0x97.1 (0.1)
0x000090|                     03                        |       .        |      large_address_aware: false 0x97.2-0x97.2 (0.1)
0x000090|                     03                        |       .        |      aggressive_ws_trim: false 0x97.3-0x97.3 (0.1)
0x000090|                     03                        |       .        |      local_syms_stripped: false 0x97.4-0x97.4 (0.1)
0x000090|                     03                        |       .        |      line_nums_stripped: false 0x97.5-0x97.5 (0.1)
0x000090|                     03                        |       .        |      executable_image: true 0x97.6-0x97.6 (0.1)
0x000090|                     03                        |       .        |      relocs_stripped: true 0x97.7-0x97.7 (0.1)
        |                                               |                |    optional_header{}: 0x98-0x177.7 (224)
0x000090|                        0b 01                  |        ..      |      format: "pe32" (0x10b) 0x98-0x99.7 (2)
0x000090|                              02               |          .     |      major_linker_version: 2 0x9a-0x9a.7 (1)
0x000090|                                 1c            |           .    |      minor_linker_version: 28 0x9b-0x9b.7 (1)
0x000090|                                    00 b6 0c 00|            ....|      size_of_code: 833024 0x9c-0x9f.7 (4)
0x0000a0|00 b2 11 00                                    |....            |      size_of_initialized_data: 1159680 0xa0-0xa3.7 (4)
0x0000a0|            00 58 00 00                        |    .X..        |      size_of_uninitialized_data: 22528 0xa4-0xa7.7 (4)
0x0000a0|                        e0 12 00 00            |        ....    |      address_of_entry_point: 0x12e0 0xa8-0xab.7 (4)
0x0000a0|                                    00 10 00 00|            ....|      base_of_code: 0x1000 0xac-0xaf.7 (4)
0x0000b0|00 d0 0c 00                                    |....            |      base_of_data: 0xcd000 0xb0-0xb3.7 (4)
0x0000b0|            00 00 40 00                        |    ..@.        |      image_base: 0x400000 0xb4-0xb7.7 (4)
0x0000b0|                        00 10 00 00            |        ....    |      section_alignment: 4096 0xb8-0xbb.7 (4)
0x0000b0|                                    00 02 00 00|            ....|      file_alignment: 512 0xbc-0xbf.7 (4)
0x0000c0|04 00                                          |..              |      major_os_version: 4 0xc0-0xc1.7 (2)
0x0000c0|      00 00                                    |  ..            |      minor_os_version: 0 0xc2-0xc3.7 (2)
0x0000c0|            01 00                              |    ..          |      major_image_version: 1 0xc4-0xc5.7 (2)
0x0000c0|                  00 00                        |      ..        |      minor_image_version: 0 0xc6-0xc7.7 (2)
0x0000c0|                        04 00                  |        ..      |      major_subsystem_version: 4 0xc8-0xc9.7 (2)
0x0000c0|                              00 00            |          ..    |      minor_subsystem_version: 0 0xca-0xcb.7 (2)
0x0000c0|                                    00 00 00 00|            ....|      win32_version: 0 0xcc-0xcf.7 (4)
0x0000d0|00 70 12 00                                    |.p..            |      size_of_image: 1208320 0xd0-0xd3.7 (4)
0x0000d0|            00 04 00 00                        |    ....        |      size_of_headers: 1024 0xd4-0xd7.7 (4)
0x0000d0|                        95 80 12 00            |        ....    |      chunk_sum: 0x128095 0xd8-0xdb.7 (4)
0x0000d0|                                    03 00      |            ..  |      subsystem: "windows_cui" (3) (The Windows character subsystem) 0xdc-0xdd.7 (2)
        |                                               |                |      dll_characteristics{}: 0xde-0xdf.7 (2)
0x0000d0|                                          00   |              . |        force_integrity: false 0xde-0xde (0.1)
0x0000d0|                                          00   |              . |        dynamic_base: false 0xde.1-0xde.1 (0.1)
0x0000d0|                                          00   |              . |        high_entropy_va: false 0xde.2-0xde.2 (0.1)
0x0000d0|                                          00   |              . |        reserved0: false 0xde.3-0xde.3 (0.1)
0x0000d0|                                          00   |              . |        reserved1: false 0xde.4-0xde.4 (0.1)
0x0000d0|                                          00   |              . |        reserved2: false 0xde.5-0xde.5 (0.1)
0x0000d0|                                          00   |              . |        reserved3: false 0xde.6-0xde.6 (0.1)
0x0000d0|                                          00   |              . |        reserved4: false 0xde.7-0xde.7 (0.1)
0x0000d0|                                             00|               .|        terminal_server_aware: false 0xdf-0xdf (0.1)
0x0000d0|                                             00|               .|        guard_cf: false 0xdf.1-0xdf.1 (0.1)
0x0000d0|                                             00|               .|        wdm_driver: false 0xdf.2-0xdf.2 (0.1)
0x0000d0|                                             00|               .|        appcontainer: false 0xdf.3-0xdf.3 (0.1)
0x0000d0|                                             00|               .|        no_bind: false 0xdf.4-0xdf.4 (0.1)
0x0000d0|                                             00|               .|        no_seh: false 0xdf.5-0xdf.5 (0.1)
0x0000d0|                                             00|               .|        no_isolation: false 0xdf.6-0xdf.6 (0.1)
0x0000d0|                                             00|               .|        nx_compat: false 0xdf.7-0xdf.7 (0.1)
0x0000e0|00 00 c0 00                                    |....            |      size_of_track_reserve: 12582912 0xe0-0xe3.7 (4)
0x0000e0|            00 10 00 00                        |    ....        |      size_of_stack_commit: 4096 0xe4-0xe7.7 (4)
0x0000e0|                        00 00 10 00            |        ....    |      size_of_heap_reserve: 1048576 0xe8-0xeb.7 (4)
0x0000e0|                                    00 10 00 00|            ....|      size_of_heap_commit: 4096 0xec-0xef.7 (4)
0x0000f0|00 00 00 00                                    |....            |      loader_flags: 0 0xf0-0xf3.7 (4)
0x0000f0|            10 00 00 00                        |    ....        |      number_of_rva_and_sizes: 16 0xf4-0xf7.7 (4)
0x0000f0|                        00 00 00 00            |        ....    |      export_table_address: 0x0 0xf8-0xfb.7 (4)
0x0000f0|                                    00 00 00 00|            ....|      export_table_size: 0 0xfc-0xff.7 (4)
0x000100|00 30 12 00                                    |.0..            |      import_table_address: 0x123000 0x100-0x103.7 (4)
0x000100|            d4 10 00 00                        |    ....        |      import_table_size: 4308 0x104-0x107.7 (4)
0x000100|                        00 00 00 00            |        ....    |      resource_table_address: 0x0 0x108-0x10b.7 (4)
0x000100|                                    00 00 00 00|            ....|      resource_table_size: 0 0x10c-0x10f.7 (4)
0x000110|00 00 00 00                                    |....            |      exception_table_address: 0x0 0x110-0x113.7 (4)
0x000110|            00 00 00 00                        |    ....        |      exception_table_size: 0 0x114-0x117.7 (4)
0x000110|                        00 00 00 00            |        ....    |      certificate_table_address: 0x0 0x118-0x11b.7 (4)
0x000110|                                    00 00 00 00|            ....|      certificate_table_size: 0 0x11c-0x11f.7 (4)
0x000120|00 00 00 00                                    |....            |      base_relocation_table_address: 0x0 0x120-0x123.7 (4)
0x000120|            00 00 00 00                        |    ....        |      base_relocation_table_size: 0 0x124-0x127.7 (4)
0x000120|                        00 00 00 00            |        ....    |      debug_address: 0x0 0x128-0x12b.7 (4)
0x000120|                                    00 00 00 00|            ....|      debug_size: 0 0x12c-0x12f.7 (4)
0x000130|00 00 00 00 00 00 00 00                        |........        |      architecture: 0 0x130-0x137.7 (8)
0x000130|                        00 00 00 00 00 00 00 00|        ........|      global_ptr: 0x0 0x138-0x13f.7 (8)
0x000140|04 60 12 00                                    |.`..            |      tls_table_address: 0x126004 0x140-0x143.7 (4)
0x000140|            18 00 00 00                        |    ....        |      tls_table_size: 24 0x144-0x147.7 (4)
0x000140|                        00 00 00 00            |        ....    |      load_config_table_address: 0x0 0x148-0x14b.7 (4)
0x000140|                                    00 00 00 00|            ....|      load_config_table_size: 0 0x14c-0x14f.7 (4)
0x000150|00 00 00 00                                    |....            |      bound_import_address: 0x0 0x150-0x153.7 (4)
0x000150|            00 00 00 00                        |    ....        |      bound_import_size: 0 0x154-0x157.7 (4)
0x000150|                        24 33 12 00            |        $3..    |      iat_address: 0x123324 0x158-0x15b.7 (4)
0x000150|                                    98 02 00 00|            ....|      iat_size: 664 0x15c-0x15f.7 (4)
0x000160|00 00 00 00                                    |....            |      delay_import_descriptor_address: 0x0 0x160-0x163.7 (4)
0x000160|            00 00 00 00                        |    ....        |      delay_import_descriptor_size: 0 0x164-0x167.7 (4)
0x000160|                        00 00 00 00            |        ....    |      clr_runtime_header_address: 0x0 0x168-0x16b.7 (4)
0x000160|                                    00 00 00 00|            ....|      clr_runtime_header_size: 0 0x16c-0x16f.7 (4)
0x000170|00 00 00 00 00 00 00 00                        |........        |      reserved: 0 0x170-0x177.7 (8)
        |                                               |                |      unknown: raw bits 0x178-NA (0)
        |                                               |                |    sections[0:8]: 0x178-0x11b5ff.7 (1160328)
        |                                               |                |      [0]{}: section 0x178-0xcb9ff.7 (833672)
0x000170|                        2e 74 65 78 74 00 00 00|        .text...|        name: ".text" 0x178-0x17f.7 (8)
0x000180|d4 b5 0c 00                                    |....            |        virtual_size: 832980 0x180-0x183.7 (4)
0x000180|            00 10 00 00                        |    ....        |        virtual_address: 0x1000 0x184-0x187.7 (4)
0x000180|                        00 b6 0c 00            |        ....    |        size_of_raw_data: 833024 0x188-0x18b.7 (4)
0x000180|                                    00 04 00 00|            ....|        pointer_to_raw_data: 0x400 0x18c-0x18f.7 (4)
0x000190|00 00 00 00                                    |....            |        pointer_to_relocations: 0x0 0x190-0x193.7 (4)
0x000190|            00 00 00 00                        |    ....        |        pointer_to_line_numbers: 0x0 0x194-0x197.7 (4)
0x000190|                        00 00                  |        ..      |        number_of_relocations: 0 0x198-0x199.7 (2)
0x000190|                              00 00            |          ..    |        number_of_line_numbers: 0 0x19a-0x19b.7 (2)
        |                                               |                |        characteristics{}: 0x19c-0x19f.7 (4)
0x000190|                                    60         |            `   |          cnt_uninitialized_data: false 0x19c-0x19c (0.1)
0x000190|                                    60         |            `   |          cnt_initialized_data: true 0x19c.1-0x19c.1 (0.1)
0x000190|                                    60         |            `   |          cnt_code: true 0x19c.2-0x19c.2 (0.1)
0x000190|                                    60         |            `   |          reserved: false 0x19c.3-0x19c.3 (0.1)
0x000190|                                    60         |            `   |          type_no_pad: false 0x19c.4-0x19c.4 (0.1)
0x000190|                                    60         |            `   |          reserved0: false 0x19c.5-0x19c.5 (0.1)
0x000190|                                    60         |            `   |          reserved1: false 0x19c.6-0x19c.6 (0.1)
0x000190|                                    60         |            `   |          reserved2: false 0x19c.7-0x19c.7 (0.1)
0x000190|                                       00      |             .  |          gprel: false 0x19d-0x19d (0.1)
0x000190|                                       00      |             .  |          unknown0: false 0x19d.1-0x19d.1 (0.1)
0x000190|                                       00      |             .  |          unknown1: false 0x19d.2-0x19d.2 (0.1)
0x000190|                                       00      |             .  |          lnk_comdat: false 0x19d.3-0x19d.3 (0.1)
0x000190|                                       00      |             .  |          lnk_remove: false 0x19d.4-0x19d.4 (0.1)
0x000190|                                       00      |             .  |          reserved3: false 0x19d.5-0x19d.5 (0.1)
0x000190|                                       00      |             .  |          lnk_info: false 0x19d.6-0x19d.6 (0.1)
0x000190|                                       00      |             .  |          lnk_other: false 0x19d.7-0x19d.7 (0.1)
0x000190|                                          50   |              P |          align_128bytes: false 0x19e-0x19e (0.1)
0x000190|                                          50   |              P |          align_8bytes: true 0x19e.1-0x19e.1 (0.1)
0x000190|                                          50   |              P |          align_2bytes: false 0x19e.2-0x19e.2 (0.1)
0x000190|                                          50   |              P |          align_1bytes: true 0x19e.3-0x19e.3 (0.1)
0x000190|                                          50   |              P |          mem_preload: false 0x19e.4-0x19e.4 (0.1)
0x000190|                                          50   |              P |          mem_locked: false 0x19e.5-0x19e.5 (0.1)
0x000190|                                          50   |              P |          mem_16bit: false 0x19e.6-0x19e.6 (0.1)
0x000190|                                          50   |              P |          mem_purgeable: false 0x19e.7-0x19e.7 (0.1)
0x000190|                                             60|               `|          mem_write: false 0x19f-0x19f (0.1)
0x000190|                                             60|               `|          mem_read: true 0x19f.1-0x19f.1 (0.1)
0x000190|                                             60|               `|          mem_execute: true 0x19f.2-0x19f.2 (0.1)
0x000190|                                             60|               `|          mem_shared: false 0x19f.3-0x19f.3 (0.1)
0x000190|                                             60|               `|          mem_not_paged: false 0x19f.4-0x19f.4 (0.1)
0x000190|                                             60|               `|          mem_not_cached: false 0x19f.5-0x19f.5 (0.1)
0x000190|                                             60|               `|          mem_discardable: false 0x19f.6-0x19f.6 (0.1)
0x000190|                                             60|               `|          lnk_nreloc_ovfl: false 0x19f.7-0x19f.7 (0.1)
0x000400|83 ec 1c 8b 44 24 20 8b 00 8b 00 3d 91 00 00 c0|....D$ ....=....|        data: raw bits 0x400-0xcb9ff.7 (833024)
*       |until 0xcb9ff.7 (833024)                       |                |
        |                                               |                |      [1]{}: section 0x1a0-0xcd9ff.7 (841824)
0x0001a0|2e 64 61 74 61 00 00 00                        |.data...        |        name: ".data" 0x1a0-0x1a7.7 (8)
0x0001a0|                        e8 1e 00 00            |        ....    |        virtual_size: 7912 0x1a8-0x1ab.7 (4)
0x0001a0|                                    00 d0 0c 00|            ....|        virtual_address: 0xcd000 0x1ac-0x1af.7 (4)
0x0001b0|00 20 00 00                                    |. ..            |        size_of_raw_data: 8192 0x1b0-0x1b3.7 (4)
0x0001b0|            00 ba 0c 00                        |    ....        |        pointer_to_raw_data: 0xcba00 0x1b4-0x1b7.7 (4)
0x0001b0|                        00 00 00 00            |        ....    |        pointer_to_relocations: 0x0 0x1b8-0x1bb.7 (4)
0x0001b0|                                    00 00 00 00|            ....|        pointer_to_line_numbers: 0x0 0x1bc-0x1bf.7 (4)
0x0001c0|00 00                                          |..              |        number_of_relocations: 0 0x1c0-0x1c1.7 (2)
0x0001c0|      00 00                                    |  ..            |        number_of_line_numbers: 0 0x1c2-0x1c3.7 (2)
        |                                               |                |        characteristics{}: 0x1c4-0x1c7.7 (4)
0x0001c0|            40                                 |    @           |          cnt_uninitialized_data: false 0x1c4-0x1c4 (0.1)
0x0001c0|            40                                 |    @           |          cnt_initialized_data: true 0x1c4.1-0x1c4.1 (0.1)
0x0001c0|            40                                 |    @           |          cnt_code: false 0x1c4.2-0x1c4.2 (0.1)
0x0001c0|            40                                 |    @           |          reserved: false 0x1c4.3-0x1c4.3 (0.1)
0x0001c0|            40                                 |    @           |          type_no_pad: false 0x1c4.4-0x1c4.4 (0.1)
0x0001c0|            40                                 |    @           |          reserved0: false 0x1c4.5-0x1c4.5 (0.1)
0x0001c0|            40                                 |    @           |          reserved1: false 0x1c4.6-0x1c4.6 (0.1)
0x0001c0|            40                                 |    @           |          reserved2: false 0x1c4.7-0x1c4.7 (0.1)
0x0001c0|               00                              |     .          |          gprel: false 0x1c5-0x1c5 (0.1)
0x0001c0|               00                              |     .          |          unknown0: false 0x1c5.1-0x1c5.1 (0.1)
0x0001c0|               00                              |     .          |          unknown1: false 0x1c5.2-0x1c5.2 (0.1)
0x0001c0|               00                              |     .          |          lnk_comdat: false 0x1c5.3-0x1c5.3 (0.1)
0x0001c0|               00                              |     .          |          lnk_remove: false 0x1c5.4-0x1c5.4 (0.1)
0x0001c0|               00                              |     .          |          reserved3: false 0x1c5.5-0x1c5.5 (0.1)
0x0001c0|               00                              |     .          |          lnk_info: false 0x1c5.6-0x1c5.6 (0.1)
0x0001c0|               00                              |     .          |          lnk_other: false 0x1c5.7-0x1c5.7 (0.1)
0x0001c0|                  60                           |      `         |          align_128bytes: false 0x1c6-0x1c6 (0.1)
0x0001c0|                  60                           |      `         |          align_8bytes: true 0x1c6.1-0x1c6.1 (0.1)
0x0001c0|                  60                           |      `         |          align_2bytes: true 0x1c6.2-0x1c6.2 (0.1)
0x0001c0|                  60                           |      `         |          align_1bytes: false 0x1c6.3-0x1c6.3 (0.1)
0x0001c0|                  60                           |      `         |          mem_preload: false 0x1c6.4-0x1c6.4 (0.1)
0x0001c0|                  60                           |      `         |          mem_locked: false 0x1c6.5-0x1c6.5 (0.1)
0x0001c0|                  60                           |      `         |          mem_16bit: false 0x1c6.6-0x1c6.6 (0.1)
0x0001c0|                  60                           |      `         |          mem_purgeable: false 0x1c6.7-0x1c6.7 (0.1)
0x0001c0|                     c0                        |       .        |          mem_write: true 0x1c7-0x1c7 (0.1)
0x0001c0|                     c0                        |       .        |          mem_read: true 0x1c7.1-0x1c7.1 (0.1)
0x0001c0|                     c0                        |       .        |          mem_execute: false 0x1c7.2-0x1c7.2 (0.1)
0x0001c0|                     c0                        |       .        |          mem_shared: false 0x1c7.3-0x1c7.3 (0.1)
0x0001c0|                     c0                        |       .        |          mem_not_paged: false 0x1c7.4-0x1c7.4 (0.1)
0x0001c0|                     c0                        |       .        |          mem_not_cached: false 0x1c7.5-0x1c7.5 (0.1)
0x0001c0|                     c0                        |       .        |          mem_discardable: false 0x1c7.6-0x1c7.6 (0.1)
0x0001c0|                     c0                        |       .        |          lnk_nreloc_ovfl: false 0x1c7.7-0x1c7.7 (0.1)
0x0cba00|00 00 00 00 00 00 00 00 00 00 00 00 00 00 00 00|................|        data: raw bits 0xcba00-0xcd9ff.7 (8192)
*       |until 0xcd9ff.7 (8192)                         |                |
        |                                               |                |      [2]{}: section 0x1c8-0xffbff.7 (1047096)
0x0001c0|                        2e 72 64 61 74 61 00 00|        .rdata..|        name: ".rdata" 0x1c8-0x1cf.7 (8)
0x0001d0|a8 21 03 00                                    |.!..            |        virtual_size: 205224 0x1d0-0x1d3.7 (4)
0x0001d0|            00 f0 0c 00                        |    ....        |        virtual_address: 0xcf000 0x1d4-0x1d7.7 (4)
0x0001d0|                        00 22 03 00            |        ."..    |        size_of_raw_data: 205312 0x1d8-0x1db.7 (4)
0x0001d0|                                    00 da 0c 00|            ....|        pointer_to_raw_data: 0xcda00 0x1dc-0x1df.7 (4)
0x0001e0|00 00 00 00                                    |....            |        pointer_to_relocations: 0x0 0x1e0-0x1e3.7 (4)
0x0001e0|            00 00 00 00                        |    ....        |        pointer_to_line_numbers: 0x0 0x1e4-0x1e7.7 (4)
0x0001e0|                        00 00                  |        ..      |        number_of_relocations: 0 0x1e8-0x1e9.7 (2)
0x0001e0|                              00 00            |          ..    |        number_of_line_numbers: 0 0x1ea-0x1eb.7 (2)
        |                                               |                |        characteristics{}: 0x1ec-0x1ef.7 (4)
0x0001e0|                                    40         |            @   |          cnt_uninitialized_data: false 0x1ec-0x1ec (0.1)
0x0001e0|                                    40         |            @   |          cnt_initialized_data: true 0x1ec.1-0x1ec.1 (0.1)
0x0001e0|                                    40         |            @   |          cnt_code: false 0x1ec.2-0x1ec.2 (0.1)
0x0001e0|                                    40         |            @   |          reserved: false 0x1ec.3-0x1ec.3 (0.1)
0x0001e0|                                    40         |            @   |          type_no_pad: false 0x1ec.4-0x1ec.4 (0.1)
0x0001e0|                                    40         |            @   |          reserved0: false 0x1ec.5-0x1ec.5 (0.1)
0x0001e0|                                    40         |            @   |          reserved1: false 0x1ec.6-0x1ec.6 (0.1)
0x0001e0|                                    40         |            @   |          reserved2: false 0x1ec.7-0x1ec.7 (0.1)
0x0001e0|                                       00      |             .  |          gprel: false 0x1ed-0x1ed (0.1)
0x0001e0|                                       00      |             .  |          unknown0: false 0x1ed.1-0x1ed.1 (0.1)
0x0001e0|                                       00      |             .  |          unknown1: false 0x1ed.2-0x1ed.2 (0.1)
0x0001e0|                                       00      |             .  |          lnk_comdat: false 0x1ed.3-0x1ed.3 (0.1)
0x0001e0|                                       00      |             .  |          lnk_remove: false 0x1ed.4-0x1ed.4 (0.1)
0x0001e0|                                       00      |             .  |          reserved3: false 0x1ed.5-0x1ed.5 (0.1)
0x0001e0|                                       00      |             .  |          lnk_info: false 0x1ed.6-0x1ed.6 (0.1)
0x0001e0|                                       00      |             .  |          lnk_other: false 0x1ed.7-0x1ed.7 (0.1)
0x0001e0|                                          60   |              ` |          align_128bytes: false 0x1ee-0x1ee (0.1)
0x0001e0|                                          60   |              ` |          align_8bytes: true 0x1ee.1-0x1ee.1 (0.1)
0x0001e0|                                          60   |              ` |          align_2bytes: true 0x1ee.2-0x1ee.2 (0.1)
0x0001e0|                                          60   |              ` |          align_1bytes: false 0x1ee.3-0x1ee.3 (0.1)
0x0001e0|                                          60   |              ` |          mem_preload: false 0x1ee.4-0x1ee.4 (0.1)
0x0001e0|                                          60   |              ` |          mem_locked: false 0x1ee.5-0x1ee.5 (0.1)
0x0001e0|                                          60   |              ` |          mem_16bit: false 0x1ee.6-0x1ee.6 (0.1)
0x0001e0|                                          60   |              ` |          mem_purgeable: false 0x1ee.7-0x1ee.7 (0.1)
0x0001e0|                                             40|               @|          mem_write: false 0x1ef-0x1ef (0.1)
0x0001e0|                                             40|               @|          mem_read: true 0x1ef.1-0x1ef.1 (0.1)
0x0001e0|                                             40|               @|          mem_execute: false 0x1ef.2-0x1ef.2 (0.1)
0x0001e0|                                             40|               @|          mem_shared: false 0x1ef.3-0x1ef.3 (0.1)
0x0001e0|                                             40|               @|          mem_not_paged: false 0x1ef.4-0x1ef.4 (0.1)
0x0001e0|                                             40|               @|          mem_not_cached: false 0x1ef.5-0x1ef.5 (0.1)
0x0001e0|                                             40|               @|          mem_discardable: false 0x1ef.6-0x1ef.6 (0.1)
0x0001e0|                                             40|               @|          lnk_nreloc_ovfl: false 0x1ef.7-0x1ef.7 (0.1)
0x0cda00|6c 69 62 67 63 63 5f 73 5f 64 77 32 2d 31 2e 64|libgcc_s_dw2-1.d|        data: raw bits 0xcda00-0xffbff.7 (205312)
*       |until 0xffbff.7 (205312)                       |                |
        |                                               |                |      [3]{}: section 0x1f0-0x119fff.7 (1154576)
0x0001f0|2f 34 00 00 00 00 00 00                        |/4......        |        name: ".eh_frame" ("/4") 0x1f0-0x1f7.7 (8)
0x0001f0|                        64 a2 01 00            |        d...    |        virtual_size: 107108 0x1f8-0x1fb.7 (4)
0x0001f0|                                    00 20 10 00|            . ..|        virtual_address: 0x102000 0x1fc-0x1ff.7 (4)
0x000200|00 a4 01 00                                    |....            |        size_of_raw_data: 107520 0x200-0x203.7 (4)
0x000200|            00 fc 0f 00                        |    ....        |        pointer_to_raw_data: 0xffc00 0x204-0x207.7 (4)
0x000200|                        00 00 00 00            |        ....    |        pointer_to_relocations: 0x0 0x208-0x20b.7 (4)
0x000200|                                    00 00 00 00|            ....|        pointer_to_line_numbers: 0x0 0x20c-0x20f.7 (4)
0x000210|00 00                                          |..              |        number_of_relocations: 0 0x210-0x211.7 (2)
0x000210|      00 00                                    |  ..            |        number_of_line_numbers: 0 0x212-0x213.7 (2)
        |                                               |                |        characteristics{}: 0x214-0x217.7 (4)
0x000210|            40                                 |    @           |          cnt_uninitialized_data: false 0x214-0x214 (0.1)
0x000210|            40                                 |    @           |          cnt_initialized_data: true 0x214.1-0x214.1 (0.1)
0x000210|            40                                 |    @           |          cnt_code: false 0x214.2-0x214.2 (0.1)
0x000210|            40                                 |    @           |          reserved: false 0x214.3-0x214.3 (0.1)
0x000210|            40                                 |    @           |          type_no_pad: false 0x214.4-0x214.4 (0.1)
0x000210|            40                                 |    @           |          reserved0: false 0x214.5-0x214.5 (0.1)
0x000210|            40                                 |    @           |          reserved1: false 0x214.6-0x214.6 (0.1)
0x000210|            40                                 |    @           |          reserved2: false 0x214.7-0x214.7 (0.1)
0x000210|               00                              |     .          |          gprel: false 0x215-0x215 (0.1)
0x000210|               00                              |     .          |          unknown0: false 0x215.1-0x215.1 (0.1)
0x000210|               00                              |     .          |          unknown1: false 0x215.2-0x215.2 (0.1)
0x000210|               00                              |     .          |          lnk_comdat: false 0x215.3-0x215.3 (0.1)
0x000210|               00                              |     .          |          lnk_remove: false 0x215.4-0x215.4 (0.1)
0x000210|               00                              |     .          |          reserved3: false 0x215.5-0x215.5 (0.1)
0x000210|               00                              |     .          |          lnk_info: false 0x215.6-0x215.6 (0.1)
0x000210|               00                              |     .          |          lnk_other: false 0x215.7-0x215.7 (0.1)
0x000210|                  30                           |      0         |          align_128bytes: false 0x216-0x216 (0.1)
0x000210|                  30                           |      0         |          align_8bytes: false 0x216.1-0x216.1 (0.1)
0x000210|                  30                           |      0         |          align_2bytes: true 0x216.2-0x216.2 (0.1)
0x000210|                  30                           |      0         |          align_1bytes: true 0x216.3-0x216.3 (0.1)
0x000210|                  30                           |      0         |          mem_preload: false 0x216.4-0x216.4 (0.1)
0x000210|                  30                           |      0         |          mem_locked: false 0x216.5-0x216.5 (0.1)
0x000210|                  30                           |      0         |          mem_16bit: false 0x216.6-0x216.6 (0.1)
0x000210|                  30                           |      0         |          mem_purgeable: false 0x216.7-0x216.7 (0.1)
0x000210|                     40                        |       @        |          mem_write: false 0x217-0x217 (0.1)
0x000210|                     40                        |       @        |          mem_read: true 0x217.1-0x217.1 (0.1)
0x000210|                     40                        |       @        |          mem_execute: false 0x217.2-0x217.2 (0.1)
0x000210|                     40                        |       @        |          mem_shared: false 0x217.3-0x217.3 (0.1)
0x000210|                     40                        |       @        |          mem_not_paged: false 0x217.4-0x217.4 (0.1)
0x000210|                     40                        |       @        |          mem_not_cached: false 0x217.5-0x217.5 (0.1)
0x000210|                     40                        |       @        |          mem_discardable: false 0x217.6-0x217.6 (0.1)
0x000210|                     40                        |       @        |          lnk_nreloc_ovfl: false 0x217.7-0x217.7 (0.1)
0x0ffc00|14 00 00 00 00 00 00 00 01 7a 52 00 01 7c 08 01|.........zR..|..|        data: raw bits 0xffc00-0x119fff.7 (107520)
*       |until 0x119fff.7 (107520)                      |                |
        |                                               |                |      [4]{}: section 0x218-0x23f.7 (40)
0x000210|                        2e 62 73 73 00 00 00 00|        .bss....|        name: ".bss" 0x218-0x21f.7 (8)
0x000220|60 56 00 00                                    |`V..            |        virtual_size: 22112 0x220-0x223.7 (4)
0x000220|            00 d0 11 00                        |    ....        |        virtual_address: 0x11d000 0x224-0x227.7 (4)
0x000220|                        00 00 00 00            |        ....    |        size_of_raw_data: 0 0x228-0x22b.7 (4)
0x000220|                                    00 00 00 00|            ....|        pointer_to_raw_data: 0x0 0x22c-0x22f.7 (4)
0x000230|00 00 00 00                                    |....            |        pointer_to_relocations: 0x0 0x230-0x233.7 (4)
0x000230|            00 00 00 00                        |    ....        |        pointer_to_line_numbers: 0x0 0x234-0x237.7 (4)
0x000230|                        00 00                  |        ..      |        number_of_relocations: 0 0x238-0x239.7 (2)
0x000230|                              00 00            |          ..    |        number_of_line_numbers: 0 0x23a-0x23b.7 (2)
        |                                               |                |        characteristics{}: 0x23c-0x23f.7 (4)
0x000230|                                    80         |            .   |          cnt_uninitialized_data: true 0x23c-0x23c (0.1)
0x000230|                                    80         |            .   |          cnt_initialized_data: false 0x23c.1-0x23c.1 (0.1)
0x000230|                                    80         |            .   |          cnt_code: false 0x23c.2-0x23c.2 (0.1)
0x000230|                                    80         |            .   |          reserved: false 0x23c.3-0x23c.3 (0.1)
0x000230|                                    80         |            .   |          type_no_pad: false 0x23c.4-0x23c.4 (0.1)
0x000230|                                    80         |            .   |          reserved0: false 0x23c.5-0x23c.5 (0.1)
0x000230|                                    80         |            .   |          reserved1: false 0x23c.6-0x23c.6 (0.1)
0x000230|                                    80         |            .   |          reserved2: false 0x23c.7-0x23c.7 (0.1)
0x000230|                                       00      |             .  |          gprel: false 0x23d-0x23d (0.1)
0x000230|                                       00      |             .  |          unknown0: false 0x23d.1-0x23d.1 (0.1)
0x000230|                                       00      |             .  |          unknown1: false 0x23d.2-0x23d.2 (0.1)
0x000230|                                       00      |             .  |          lnk_comdat: false 0x23d.3-0x23d.3 (0.1)
0x000230|                                       00      |             .  |          lnk_remove: false 0x23d.4-0x23d.4 (0.1)
0x000230|                                       00      |             .  |          reserved3: false 0x23d.5-0x23d.5 (0.1)
0x000230|                                       00      |             .  |          lnk_info: false 0x23d.6-0x23d.6 (0.1)
0x000230|                                       00      |             .  |          lnk_other: false 0x23d.7-0x23d.7 (0.1)
0x000230|                                          60   |              ` |          align_128bytes: false 0x23e-0x23e (0.1)
0x000230|                                          60   |              ` |          align_8bytes: true 0x23e.1-0x23e.1 (0.1)
0x000230|                                          60   |              ` |          align_2bytes: true 0x23e.2-0x23e.2 (0.1)
0x000230|                                          60   |              ` |          align_1bytes: false 0x23e.3-0x23e.3 (0.1)
0x000230|                                          60   |              ` |          mem_preload: false 0x23e.4-0x23e.4 (0.1)
0x000230|                                          60   |              ` |          mem_locked: false 0x23e.5-0x23e.5 (0.1)
0x000230|                                          60   |              ` |          mem_16bit: false 0x23e.6-0x23e.6 (0.1)
0x000230|                                          60   |              ` |          mem_purgeable: false 0x23e.7-0x23e.7 (0.1)
0x000230|                                             c0|               .|          mem_write: true 0x23f-0x23f (0.1)
0x000230|                                             c0|               .|          mem_read: true 0x23f.1-0x23f.1 (0.1)
0x000230|                                             c0|               .|          mem_execute: false 0x23f.2-0x23f.2 (0.1)
0x000230|                                             c0|               .|          mem_shared: false 0x23f.3-0x23f.3 (0.1)
0x000230|                                             c0|               .|          mem_not_paged: false 0x23f.4-0x23f.4 (0.1)
0x000230|                                             c0|               .|          mem_not_cached: false 0x23f.5-0x23f.5 (0.1)
0x000230|                                             c0|               .|          mem_discardable: false 0x23f.6-0x23f.6 (0.1)
0x000230|                                             c0|               .|          lnk_nreloc_ovfl: false 0x23f.7-0x23f.7 (0.1)
        |                                               |                |      [5]{}: section 0x240-0x11b1ff.7 (1159104)
0x000240|2e 69 64 61 74 61 00 00                        |.idata..        |        name: ".idata" 0x240-0x247.7 (8)
0x000240|                        d4 10 00 00            |        ....    |        virtual_size: 4308 0x248-0x24b.7 (4)
0x000240|                                    00 30 12 00|            .0..|        virtual_address: 0x123000 0x24c-0x24f.7 (4)
0x000250|00 12 00 00                                    |....            |        size_of_raw_data: 4608 0x250-0x253.7 (4)
0x000250|            00 a0 11 00                        |    ....        |        pointer_to_raw_data: 0x11a000 0x254-0x257.7 (4)
0x000250|                        00 00 00 00            |        ....    |        pointer_to_relocations: 0x0 0x258-0x25b.7 (4)
0x000250|                                    00 00 00 00|            ....|        pointer_to_line_numbers: 0x0 0x25c-0x25f.7 (4)
0x000260|00 00                                          |..              |        number_of_relocations: 0 0x260-0x261.7 (2)
0x000260|      00 00                                    |  ..            |        number_of_line_numbers: 0 0x262-0x263.7 (2)
        |                                               |                |        characteristics{}: 0x264-0x267.7 (4)
0x000260|            40                                 |    @           |          cnt_uninitialized_data: false 0x264-0x264 (0.1)
0x000260|            40                                 |    @           |          cnt_initialized_data: true 0x264.1-0x264.1 (0.1)
0x000260|            40                                 |    @           |          cnt_code: false 0x264.2-0x264.2 (0.1)
0x000260|            40                                 |    @           |          reserved: false 0x264.3-0x264.3 (0.1)
0x000260|            40                                 |    @           |          type_no_pad: false 0x264.4-0x264.4 (0.1)
0x000260|            40                                 |    @           |          reserved0: false 0x264.5-0x264.5 (0.1)
0x000260|            40                                 |    @           |          reserved1: false 0x264.6-0x264.6 (0.1)
0x000260|            40                                 |    @           |          reserved2: false 0x264.7-0x264.7 (0.1)
0x000260|               00                              |     .          |          gprel: false 0x265-0x265 (0.1)
0x000260|               00                              |     .          |          unknown0: false 0x265.1-0x265.1 (0.1)
0x000260|               00                              |     .          |          unknown1: false 0x265.2-0x265.2 (0.1)
0x000260|               00                              |     .          |          lnk_comdat: false 0x265.3-0x265.3 (0.1)
0x000260|               00                              |     .          |          lnk_remove: false 0x265.4-0x265.4 (0.1)
0x000260|               00                              |     .          |          reserved3: false 0x265.5-0x265.5 (0.1)
0x000260|               00                              |     .          |          lnk_info: false 0x265.6-0x265.6 (0.1)
0x000260|               00                              |     .          |          lnk_other: false 0x265.7-0x265.7 (0.1)
0x000260|                  30                           |      0         |          align_128bytes: false 0x266-0x266 (0.1)
0x000260|                  30                           |      0         |          align_8bytes: false 0x266.1-0x266.1 (0.1)
0x000260|                  30                           |      0         |          align_2bytes: true 0x266.2-0x266.2 (0.1)
0x000260|                  30                           |      0         |          align_1bytes: true 0x266.3-0x266.3 (0.1)
0x000260|                  30                           |      0         |          mem_preload: false 0x266.4-0x266.4 (0.1)
0x000260|                  30                           |      0         |          mem_locked: false 0x266.5-0x266.5 (0.1)
0x000260|                  30                           |      0         |          mem_16bit: false 0x266.6-0x266.6 (0.1)
0x000260|                  30                           |      0         |          mem_purgeable: false 0x266.7-0x266.7 (0.1)
0x000260|                     c0                        |       .        |          mem_write: true 0x267-0x267 (0.1)
0x000260|                     c0                        |       .        |          mem_read: true 0x267.1-0x267.1 (0.1)
0x000260|                     c0                        |       .        |          mem_execute: false 0x267.2-0x267.2 (0.1)
0x000260|                     c0                        |       .        |          mem_shared: false 0x267.3-0x267.3 (0.1)
0x000260|                     c0                        |       .        |          mem_not_paged: false 0x267.4-0x267.4 (0.1)
0x000260|                     c0                        |       .        |          mem_not_cached: false 0x267.5-0x267.5 (0.1)
0x000260|                     c0                        |       .        |          mem_discardable: false 0x267.6-0x267.6 (0.1)
0x000260|                     c0                        |       .        |          lnk_nreloc_ovfl: false 0x267.7-0x267.7 (0.1)
0x11a000|8c 30 12 00 00 00 00 00 00 00 00 00 14 3e 12 00|.0...........>..|        data: raw bits 0x11a000-0x11b1ff.7 (4608)
*       |until 0x11b1ff.7 (4608)                        |                |
        |                                               |                |      [6]{}: section 0x268-0x11b3ff.7 (1159576)
0x000260|                        2e 43 52 54 00 00 00 00|        .CRT....|        name: ".CRT" 0x268-0x26f.7 (8)
0x000270|18 00 00 00                                    |....            |        virtual_size: 24 0x270-0x273.7 (4)
0x000270|            00 50 12 00                        |    .P..        |        virtual_address: 0x125000 0x274-0x277.7 (4)
0x000270|                        00 02 00 00            |        ....    |        size_of_raw_data: 512 0x278-0x27b.7 (4)
0x000270|                                    00 b2 11 00|            ....|        pointer_to_raw_data: 0x11b200 0x27c-0x27f.7 (4)
0x000280|00 00 00 00                                    |....            |        pointer_to_relocations: 0x0 0x280-0x283.7 (4)
0x000280|            00 00 00 00                        |    ....        |        pointer_to_line_numbers: 0x0 0x284-0x287.7 (4)
0x000280|                        00 00                  |        ..      |        number_of_relocations: 0 0x288-0x289.7 (2)
0x000280|                              00 00            |          ..    |        number_of_line_numbers: 0 0x28a-0x28b.7 (2)
        |                                               |                |        characteristics{}: 0x28c-0x28f.7 (4)
0x000280|                                    40         |            @   |          cnt_uninitialized_data: false 0x28c-0x28c (0.1)
0x000280|                                    40         |            @   |          cnt_initialized_data: true 0x28c.1-0x28c.1 (0.1)
0x000280|                                    40         |            @   |          cnt_code: false 0x28c.2-0x28c.2 (0.1)
0x000280|                                    40         |            @   |          reserved: false 0x28c.3-0x28c.3 (0.1)
0x000280|                                    40         |            @   |          type_no_pad: false 0x28c.4-0x28c.4 (0.1)
0x000280|                                    40         |            @   |          reserved0: false 0x28c.5-0x28c.5 (0.1)
0x000280|                                    40         |            @   |          reserved1: false 0x28c.6-0x28c.6 (0.1)
0x000280|                                    40         |            @   |          reserved2: false 0x28c.7-0x28c.7 (0.1)
0x000280|                                       00      |             .  |          gprel: false 0x28d-0x28d (0.1)
0x000280|                                       00      |             .  |          unknown0: false 0x28d.1-0x28d.1 (0.1)
0x000280|                                       00      |             .  |          unknown1: false 0x28d.2-0x28d.2 (0.1)
0x000280|                                       00      |             .  |          lnk_comdat: false 0x28d.3-0x28d.3 (0.1)
0x000280|                                       00      |             .  |          lnk_remove: false 0x28d.4-0x28d.4 (0.1)
0x000280|                                       00      |             .  |          reserved3: false 0x28d.5-0x28d.5 (0.1)
0x000280|                                       00      |             .  |          lnk_info: false 0x28d.6-0x28d.6 (0.1)
0x000280|                                       00      |             .  |          lnk_other: false 0x28d.7-0x28d.7 (0.1)
0x000280|                                          30   |              0 |          align_128bytes: false 0x28e-0x28e (0.1)
0x000280|                                          30   |              0 |          align_8bytes: false 0x28e.1-0x28e.1 (0.1)
0x000280|                                          30   |              0 |          align_2bytes: true 0x28e.2-0x28e.2 (0.1)
0x000280|                                          30   |              0 |          align_1bytes: true 0x28e.3-0x28e.3 (0.1)
0x000280|                                          30   |              0 |          mem_preload: false 0x28e.4-0x28e.4 (0.1)
0x000280|                                          30   |              0 |          mem_locked: false 0x28e.5-0x28e.5 (0.1)
0x000280|                                          30   |              0 |          mem_16bit: false 0x28e.6-0x28e.6 (0.1)
0x000280|                                          30   |              0 |          mem_purgeable: false 0x28e.7-0x28e.7 (0.1)
0x000280|                                             c0|               .|          mem_write: true 0x28f-0x28f (0.1)
0x000280|                                             c0|               .|          mem_read: true 0x28f.1-0x28f.1 (0.1)
0x000280|                                             c0|               .|          mem_execute: false 0x28f.2-0x28f.2 (0.1)
0x000280|                                             c0|               .|          mem_shared: false 0x28f.3-0x28f.3 (0.1)
0x000280|                                             c0|               .|          mem_not_paged: false 0x28f.4-0x28f.4 (0.1)
0x000280|                                             c0|               .|          mem_not_cached: false 0x28f.5-0x28f.5 (0.1)
0x000280|                                             c0|               .|          mem_discardable: false 0x28f.6-0x28f.6 (0.1)
0x000280|                                             c0|               .|          lnk_nreloc_ovfl: false 0x28f.7-0x28f.7 (0.1)
0x11b200|00 00 00 00 80 b9 4b 00 30 b9 4b 00 00 00 00 00|......K.0.K.....|        data: raw bits 0x11b200-0x11b3ff.7 (512)
*       |until 0x11b3ff.7 (512)                         |                |
        |                                               |                |      [7]{}: section 0x290-0x11b5ff.7 (1160048)
0x000290|2e 74 6c 73 00 00 00 00                        |.tls....        |        name: ".tls" 0x290-0x297.7 (8)
0x000290|                        20 00 00 00            |         ...    |        virtual_size: 32 0x298-0x29b.7 (4)
0x000290|                                    00 60 12 00|            .`..|        virtual_address: 0x126000 0x29c-0x29f.7 (4)
0x0002a0|00 02 00 00                                    |....            |        size_of_raw_data: 512 0x2a0-0x2a3.7 (4)
0x0002a0|            00 b4 11 00                        |    ....        |        pointer_to_raw_data: 0x11b400 0x2a4-0x2a7.7 (4)
0x0002a0|                        00 00 00 00            |        ....    |        pointer_to_relocations: 0x0 0x2a8-0x2ab.7 (4)
0x0002a0|                                    00 00 00 00|            ....|        pointer_to_line_numbers: 0x0 0x2ac-0x2af.7 (4)
0x0002b0|00 00                                          |..              |        number_of_relocations: 0 0x2b0-0x2b1.7 (2)
0x0002b0|      00 00                                    |  ..            |        number_of_line_numbers: 0 0x2b2-0x2b3.7 (2)
        |                                               |                |        characteristics{}: 0x2b4-0x2b7.7 (4)
0x0002b0|            40                                 |    @           |          cnt_uninitialized_data: false 0x2b4-0x2b4 (0.1)
0x0002b0|            40                                 |    @           |          cnt_initialized_data: true 0x2b4.1-0x2b4.1 (0.1)
0x0002b0|            40                                 |    @           |          cnt_code: false 0x2b4.2-0x2b4.2 (0.1)
0x0002b0|            40                                 |    @           |          reserved: false 0x2b4.3-0x2b4.3 (0.1)
0x0002b0|            40                                 |    @           |          type_no_pad: false 0x2b4.4-0x2b4.4 (0.1)
0x0002b0|            40                                 |    @           |          reserved0: false 0x2b4.5-0x2b4.5 (0.1)
0x0002b0|            40                                 |    @           |          reserved1: false 0x2b4.6-0x2b4.6 (0.1)
0x0002b0|            40                                 |    @           |          reserved2: false 0x2b4.7-0x2b4.7 (0.1)
0x0002b0|               00                              |     .          |          gprel: false 0x2b5-0x2b5 (0.1)
0x0002b0|               00                              |     .          |          unknown0: false 0x2b5.1-0x2b5.1 (0.1)
0x0002b0|               00                              |     .          |          unknown1: false 0x2b5.2-0x2b5.2 (0.1)
0x0002b0|               00                              |     .          |          lnk_comdat: false 0x2b5.3-0x2b5.3 (0.1)
0x0002b0|               00                              |     .          |          lnk_remove: false 0x2b5.4-0x2b5.4 (0.1)
0x0002b0|               00                              |     .          |          reserved3: false 0x2b5.5-0x2b5.5 (0.1)
0x0002b0|               00                              |     .          |          lnk_info: false 0x2b5.6-0x2b5.6 (0.1)
0x0002b0|               00                              |     .          |          lnk_other: false 0x2b5.7-0x2b5.7 (0.1)
0x0002b0|                  30                           |      0         |          align_128bytes: false 0x2b6-0x2b6 (0.1)
0x0002b0|                  30                           |      0         |          align_8bytes: false 0x2b6.1-0x2b6.1 (0.1)
0x0002b0|                  30                           |      0         |          align_2bytes: true 0x2b6.2-0x2b6.2 (0.1)
0x0002b0|                  30                           |      0         |          align_1bytes: true 0x2b6.3-0x2b6.3 (0.1)
0x0002b0|                  30                           |      0         |          mem_preload: false 0x2b6.4-0x2b6.4 (0.1)
0x0002b0|                  30                           |      0         |          mem_locked: false 0x2b6.5-0x2b6.5 (0.1)
0x0002b0|                  30                           |      0         |          mem_16bit: false 0x2b6.6-0x2b6.6 (0.1)
0x0002b0|                  30                           |      0         |          mem_purgeable: false 0x2b6.7-0x2b6.7 (0.1)
0x0002b0|                     c0                        |       .        |          mem_write: true 0x2b7-0x2b7 (0.1)
0x0002b0|                     c0                        |       .        |          mem_read: true 0x2b7.1-0x2b7.1 (0.1)
0x0002b0|                     c0                        |       .        |          mem_execute: false 0x2b7.2-0x2b7.2 (0.1)
0x0002b0|                     c0                        |       .        |          mem_shared: false 0x2b7.3-0x2b7.3 (0.1)
0x0002b0|                     c0                        |       .        |          mem_not_paged: false 0x2b7.4-0x2b7.4 (0.1)
0x0002b0|                     c0                        |       .        |          mem_not_cached: false 0x2b7.5-0x2b7.5 (0.1)
0x0002b0|                     c0                        |       .        |          mem_discardable: false 0x2b7.6-0x2b7.6 (0.1)
0x0002b0|                     c0                        |       .        |          lnk_nreloc_ovfl: false 0x2b7.7-0x2b7.7 (0.1)
0x11b400|00 00 00 00 01 60 52 00 1c 60 52 00 10 19 52 00|.....`R..`R...R.|        data: raw bits 0x11b400-0x11b5ff.7 (512)
*       |until 0x11b5ff.7 (512)                         |                |
        |                                               |                |    symbol_table[0:0]: 0x2b8-NA (0)
        |                                               |                |    string_table{}: 0x11b600-0x11b60d.7 (14)
0x11b600|0e 00 00 00                                    |....            |      size: 14 0x11b600-0x11b603.7 (4)
        |                                               |                |      entries[0:1]: 0x11b604-0x11b60d.7 (10)
0x11b600|            2e 65 68 5f 66 72 61 6d 65 00|     |    .eh_frame.| |        [0]: ".eh_frame" entry 0x11b604-0x11b60d.7 (10)
0x0002b0|                        00 00 00 00 00 00 00 00|        ........|  gap0: raw bits 0x2b8-0x3ff.7 (328)
0x0002c0|00 00 00 00 00 00 00 00 00 00 00 00 00 00 00 00|................|
*       |until 0x3ff.7 (328)                            |                |
