$ fq dv pe-mingw32-strip.exe
        |00 01 02 03 04 05 06 07 08 09 0a 0b 0c 0d 0e 0f|0123456789abcdef|.{}: pe-mingw32-strip.exe (pe) 0x0-0x11b60e (1160718)
        |00 01 02 03 04 05 06 07 08 09 0a 0b 0c 0d 0e 0f|0123456789abcdef|  ms_dos_stub{}: (msdos_stub) 0x0-0x80 (128)
0x000000|4d 5a                                          |MZ              |    e_magic: 0x5a4d (valid) 0x0-0x2 (2)
0x000000|      90 00                                    |  ..            |    e_cblp: 144 (Bytes on last page of file) 0x2-0x4 (2)
0x000000|            03 00                              |    ..          |    e_cp: 3 (Pages in file) 0x4-0x6 (2)
0x000000|                  00 00                        |      ..        |    e_crlc: 0 (Relocations) 0x6-0x8 (2)
0x000000|                        04 00                  |        ..      |    e_cparhdr: 4 (Size of header in paragraphs) 0x8-0xa (2)
0x000000|                              00 00            |          ..    |    e_minalloc: 0 (Minimum extra paragraphs needed) 0xa-0xc (2)
0x000000|                                    ff ff      |            ..  |    e_maxalloc: 65535 (Maximum extra paragraphs needed) 0xc-0xe (2)
0x000000|                                          00 00|              ..|    e_ss: 0 (Initial (relative) SS value) 0xe-0x10 (2)
0x000010|b8 00                                          |..              |    e_sp: 184 (Initial SP value) 0x10-0x12 (2)
0x000010|      00 00                                    |  ..            |    e_csum: 0 (Checksum) 0x12-0x14 (2)
0x000010|            00 00                              |    ..          |    e_ip: 0 (Initial IP value) 0x14-0x16 (2)
0x000010|                  00 00                        |      ..        |    e_cs: 0 (Initial (relative) CS value) 0x16-0x18 (2)
0x000010|                        40 00                  |        @.      |    e_lfarlc: 64 (File address of relocation table) 0x18-0x1a (2)
0x000010|                              00 00            |          ..    |    e_ovno: 0 (Overlay number) 0x1a-0x1c (2)
0x000010|                                    00 00 00 00|            ....|    e_res: raw bits (Reserved words) 0x1c-0x24 (8)
0x000020|00 00 00 00                                    |....            |
0x000020|            00 00                              |    ..          |    e_oemid: 0 (OEM identifier (for e_oeminfo)) 0x24-0x26 (2)
0x000020|                  00 00                        |      ..        |    e_oeminfo: 0 (OEM information; e_oemid specific) 0x26-0x28 (2)
0x000020|                        00 00 00 00 00 00 00 00|        ........|    e_res2: raw bits (Reserved words) 0x28-0x3c (20)
0x000030|00 00 00 00 00 00 00 00 00 00 00 00            |............    |
0x000030|                                    80 00 00 00|            ....|    e_lfanew: 128 (File address of new exe header) 0x3c-0x40 (4)
0x000040|0e 1f ba 0e 00 b4 09 cd 21 b8 01 4c cd 21 54 68|........!..L.!Th|    stub: raw bits (Sub program) 0x40-0x80 (64)
*       |until 0x7f.7 (64)                              |                |
        |00 01 02 03 04 05 06 07 08 09 0a 0b 0c 0d 0e 0f|0123456789abcdef|  coff{}: (coff) 0x80-0x11b60e (1160590)
0x000080|50 45 00 00                                    |PE..            |    signature: raw bits (valid) 0x80-0x84 (4)
0x000080|            4c 01                              |    L.          |    machine: "i386" (0x14c) 0x84-0x86 (2)
0x000080|                  08 00                        |      ..        |    number_of_sections: 8 0x86-0x88 (2)
0x000080|                        00 00 00 00            |        ....    |    time_date_stamp: 0 (1970-01-01T00:00:00Z) 0x88-0x8c (4)
0x000080|                                    00 b6 11 00|            ....|    pointer_to_symbol_table: 0x11b600 0x8c-0x90 (4)
0x000090|00 00 00 00                                    |....            |    number_of_symbols: 0 0x90-0x94 (4)
0x000090|            e0 00                              |    ..          |    size_of_optional_header: 224 0x94-0x96 (2)
        |                                               |                |    characteristics{}: 0x96-0x98 (2)
0x000090|                  0f                           |      .         |      bytes_reversed_lo: false 0x96-0x96.1 (0.1)
0x000090|                  0f                           |      .         |      reserved: false 0x96.1-0x96.2 (0.1)
0x000090|                  0f                           |      .         |      large_address_aware: false 0x96.2-0x96.3 (0.1)
0x000090|                  0f                           |      .         |      aggressive_ws_trim: false 0x96.3-0x96.4 (0.1)
0x000090|                  0f                           |      .         |      local_syms_stripped: true 0x96.4-0x96.5 (0.1)
0x000090|                  0f                           |      .         |      line_nums_stripped: true 0x96.5-0x96.6 (0.1)
0x000090|                  0f                           |      .         |      executable_image: true 0x96.6-0x96.7 (0.1)
0x000090|                  0f                           |      .         |      relocs_stripped: true 0x96.7-0x97 (0.1)
0x000090|                     03                        |       .        |      bytes_reversed_hi: false 0x97-0x97.1 (0.1)
0x000090|                     03                        |       .        |      up_system_only: false 0x97.1-0x97.2 (0.1)
0x000090|                     03                        |       .        |      dll: false 0x97.2-0x97.3 (0.1)
0x000090|                     03                        |       .        |      system: false 0x97.3-0x97.4 (0.1)
0x000090|                     03                        |       .        |      net_run_from_swap: false 0x97.4-0x97.5 (0.1)
0x000090|                     03                        |       .        |      removable_run_from_swap: false 0x97.5-0x97.6 (0.1)
0x000090|                     03                        |       .        |      debug_stripped: true 0x97.6-0x97.7 (0.1)
0x000090|                     03                        |       .        |      32bit_machine: true 0x97.7-0x98 (0.1)
        |                                               |                |    optional_header{}: 0x98-0x178 (224)
0x000090|                        0b 01                  |        ..      |      format: "pe32" (0x10b) 0x98-0x9a (2)
0x000090|                              02               |          .     |      major_linker_version: 2 0x9a-0x9b (1)
0x000090|                                 1c            |           .    |      minor_linker_version: 28 0x9b-0x9c (1)
0x000090|                                    00 b6 0c 00|            ....|      size_of_code: 833024 0x9c-0xa0 (4)
0x0000a0|00 b2 11 00                                    |....            |      size_of_initialized_data: 1159680 0xa0-0xa4 (4)
0x0000a0|            00 58 00 00                        |    .X..        |      size_of_uninitialized_data: 22528 0xa4-0xa8 (4)
0x0000a0|                        e0 12 00 00            |        ....    |      address_of_entry_point: 0x12e0 0xa8-0xac (4)
0x0000a0|                                    00 10 00 00|            ....|      base_of_code: 0x1000 0xac-0xb0 (4)
0x0000b0|00 d0 0c 00                                    |....            |      base_of_data: 0xcd000 0xb0-0xb4 (4)
0x0000b0|            00 00 40 00                        |    ..@.        |      image_base: 0x400000 0xb4-0xb8 (4)
0x0000b0|                        00 10 00 00            |        ....    |      section_alignment: 4096 0xb8-0xbc (4)
0x0000b0|                                    00 02 00 00|            ....|      file_alignment: 512 0xbc-0xc0 (4)
0x0000c0|04 00                                          |..              |      major_os_version: 4 0xc0-0xc2 (2)
0x0000c0|      00 00                                    |  ..            |      minor_os_version: 0 0xc2-0xc4 (2)
0x0000c0|            01 00                              |    ..          |      major_image_version: 1 0xc4-0xc6 (2)
0x0000c0|                  00 00                        |      ..        |      minor_image_version: 0 0xc6-0xc8 (2)
0x0000c0|                        04 00                  |        ..      |      major_subsystem_version: 4 0xc8-0xca (2)
0x0000c0|                              00 00            |          ..    |      minor_subsystem_version: 0 0xca-0xcc (2)
0x0000c0|                                    00 00 00 00|            ....|      win32_version: 0 0xcc-0xd0 (4)
0x0000d0|00 70 12 00                                    |.p..            |      size_of_image: 1208320 0xd0-0xd4 (4)
0x0000d0|            00 04 00 00                        |    ....        |      size_of_headers: 1024 0xd4-0xd8 (4)
0x0000d0|                        95 80 12 00            |        ....    |      chunk_sum: 0x128095 0xd8-0xdc (4)
0x0000d0|                                    03 00      |            ..  |      subsystem: "windows_cui" (3) 0xdc-0xde (2)
        |                                               |                |      dll_characteristics{}: 0xde-0xe0 (2)
0x0000d0|                                          00   |              . |        force_integrity: false 0xde-0xde.1 (0.1)
0x0000d0|                                          00   |              . |        dynamic_base: false 0xde.1-0xde.2 (0.1)
0x0000d0|                                          00   |              . |        high_entropy_va: false 0xde.2-0xde.3 (0.1)
0x0000d0|                                          00   |              . |        reserved0: false 0xde.3-0xde.4 (0.1)
0x0000d0|                                          00   |              . |        reserved1: false 0xde.4-0xde.5 (0.1)
0x0000d0|                                          00   |              . |        reserved2: false 0xde.5-0xde.6 (0.1)
0x0000d0|                                          00   |              . |        reserved3: false 0xde.6-0xde.7 (0.1)
0x0000d0|                                          00   |              . |        reserved4: false 0xde.7-0xdf (0.1)
0x0000d0|                                             00|               .|        terminal_server_aware: false 0xdf-0xdf.1 (0.1)
0x0000d0|                                             00|               .|        guard_cf: false 0xdf.1-0xdf.2 (0.1)
0x0000d0|                                             00|               .|        wdm_driver: false 0xdf.2-0xdf.3 (0.1)
0x0000d0|                                             00|               .|        appcontainer: false 0xdf.3-0xdf.4 (0.1)
0x0000d0|                                             00|               .|        no_bind: false 0xdf.4-0xdf.5 (0.1)
0x0000d0|                                             00|               .|        no_seh: false 0xdf.5-0xdf.6 (0.1)
0x0000d0|                                             00|               .|        no_isolation: false 0xdf.6-0xdf.7 (0.1)
0x0000d0|                                             00|               .|        nx_compat: false 0xdf.7-0xe0 (0.1)
0x0000e0|00 00 c0 00                                    |....            |      size_of_track_reserve: 12582912 0xe0-0xe4 (4)
0x0000e0|            00 10 00 00                        |    ....        |      size_of_stack_commit: 4096 0xe4-0xe8 (4)
0x0000e0|                        00 00 10 00            |        ....    |      size_of_heap_reserve: 1048576 0xe8-0xec (4)
0x0000e0|                                    00 10 00 00|            ....|      size_of_heap_commit: 4096 0xec-0xf0 (4)
0x0000f0|00 00 00 00                                    |....            |      loader_flags: 0 0xf0-0xf4 (4)
0x0000f0|            10 00 00 00                        |    ....        |      number_of_rva_and_sizes: 16 0xf4-0xf8 (4)
0x0000f0|                        00 00 00 00            |        ....    |      export_table_address: 0x0 0xf8-0xfc (4)
0x0000f0|                                    00 00 00 00|            ....|      export_table_size: 0 0xfc-0x100 (4)
0x000100|00 30 12 00                                    |.0..            |      import_table_address: 0x123000 0x100-0x104 (4)
0x000100|            d4 10 00 00                        |    ....        |      import_table_size: 4308 0x104-0x108 (4)
0x000100|                        00 00 00 00            |        ....    |      resource_table_address: 0x0 0x108-0x10c (4)
0x000100|                                    00 00 00 00|            ....|      resource_table_size: 0 0x10c-0x110 (4)
0x000110|00 00 00 00                                    |....            |      exception_table_address: 0x0 0x110-0x114 (4)
0x000110|            00 00 00 00                        |    ....        |      exception_table_size: 0 0x114-0x118 (4)
0x000110|                        00 00 00 00            |        ....    |      certificate_table_address: 0x0 0x118-0x11c (4)
0x000110|                                    00 00 00 00|            ....|      certificate_table_size: 0 0x11c-0x120 (4)
0x000120|00 00 00 00                                    |....            |      base_relocation_table_address: 0x0 0x120-0x124 (4)
0x000120|            00 00 00 00                        |    ....        |      base_relocation_table_size: 0 0x124-0x128 (4)
0x000120|                        00 00 00 00            |        ....    |      debug_address: 0x0 0x128-0x12c (4)
0x000120|                                    00 00 00 00|            ....|      debug_size: 0 0x12c-0x130 (4)
0x000130|00 00 00 00 00 00 00 00                        |........        |      architecture: 0 0x130-0x138 (8)
0x000130|                        00 00 00 00 00 00 00 00|        ........|      global_ptr: 0x0 0x138-0x140 (8)
0x000140|04 60 12 00                                    |.`..            |      tls_table_address: 0x126004 0x140-0x144 (4)
0x000140|            18 00 00 00                        |    ....        |      tls_table_size: 24 0x144-0x148 (4)
0x000140|                        00 00 00 00            |        ....    |      load_config_table_address: 0x0 0x148-0x14c (4)
0x000140|                                    00 00 00 00|            ....|      load_config_table_size: 0 0x14c-0x150 (4)
0x000150|00 00 00 00                                    |....            |      bound_import_address: 0x0 0x150-0x154 (4)
0x000150|            00 00 00 00                        |    ....        |      bound_import_size: 0 0x154-0x158 (4)
0x000150|                        24 33 12 00            |        $3..    |      iat_address: 0x123324 0x158-0x15c (4)
0x000150|                                    98 02 00 00|            ....|      iat_size: 664 0x15c-0x160 (4)
0x000160|00 00 00 00                                    |....            |      delay_import_descriptor_address: 0x0 0x160-0x164 (4)
0x000160|            00 00 00 00                        |    ....        |      delay_import_descriptor_size: 0 0x164-0x168 (4)
0x000160|                        00 00 00 00            |        ....    |      clr_runtime_header_address: 0x0 0x168-0x16c (4)
0x000160|                                    00 00 00 00|            ....|      clr_runtime_header_size: 0 0x16c-0x170 (4)
0x000170|00 00 00 00 00 00 00 00                        |........        |      reserved: 0 0x170-0x178 (8)
        |                                               |                |      unknown: raw bits 0x178-0x178 (0)
        |                                               |                |    sections[0:8]: 0x178-0x2b8 (320)
        |                                               |                |      [0]{}: section 0x178-0x1a0 (40)
0x000170|                        2e 74 65 78 74 00 00 00|        .text...|        name: ".text" 0x178-0x180 (8)
0x000180|d4 b5 0c 00                                    |....            |        virtual_size: 832980 0x180-0x184 (4)
0x000180|            00 10 00 00                        |    ....        |        virtual_address: 0x1000 0x184-0x188 (4)
0x000180|                        00 b6 0c 00            |        ....    |        size_of_raw_data: 833024 0x188-0x18c (4)
0x000180|                                    00 04 00 00|            ....|        pointer_to_raw_data: 0x400 0x18c-0x190 (4)
0x000190|00 00 00 00                                    |....            |        pointer_to_relocations: 0x0 0x190-0x194 (4)
0x000190|            00 00 00 00                        |    ....        |        pointer_to_line_numbers: 0x0 0x194-0x198 (4)
0x000190|                        00 00                  |        ..      |        number_of_relocations: 0 0x198-0x19a (2)
0x000190|                              00 00            |          ..    |        number_of_line_numbers: 0 0x19a-0x19c (2)
        |                                               |                |        characteristics{}: 0x19c-0x1a0 (4)
0x000190|                                    60         |            `   |          cnt_uninitialized_data: false 0x19c-0x19c.1 (0.1)
0x000190|                                    60         |            `   |          cnt_initialized_data: true 0x19c.1-0x19c.2 (0.1)
0x000190|                                    60         |            `   |          cnt_code: true 0x19c.2-0x19c.3 (0.1)
0x000190|                                    60         |            `   |          reserved: false 0x19c.3-0x19c.4 (0.1)
0x000190|                                    60         |            `   |          type_no_pad: false 0x19c.4-0x19c.5 (0.1)
0x000190|                                    60         |            `   |          reserved0: false 0x19c.5-0x19c.6 (0.1)
0x000190|                                    60         |            `   |          reserved1: false 0x19c.6-0x19c.7 (0.1)
0x000190|                                    60         |            `   |          reserved2: false 0x19c.7-0x19d (0.1)
0x000190|                                       00      |             .  |          gprel: false 0x19d-0x19d.1 (0.1)
0x000190|                                       00      |             .  |          unknown0: false 0x19d.1-0x19d.2 (0.1)
0x000190|                                       00      |             .  |          unknown1: false 0x19d.2-0x19d.3 (0.1)
0x000190|                                       00      |             .  |          lnk_comdat: false 0x19d.3-0x19d.4 (0.1)
0x000190|                                       00      |             .  |          lnk_remove: false 0x19d.4-0x19d.5 (0.1)
0x000190|                                       00      |             .  |          reserved3: false 0x19d.5-0x19d.6 (0.1)
0x000190|                                       00      |             .  |          lnk_info: false 0x19d.6-0x19d.7 (0.1)
0x000190|                                       00      |             .  |          lnk_other: false 0x19d.7-0x19e (0.1)
0x000190|                                          50   |              P |          align_128bytes: false 0x19e-0x19e.1 (0.1)
0x000190|                                          50   |              P |          align_8bytes: true 0x19e.1-0x19e.2 (0.1)
0x000190|                                          50   |              P |          align_2bytes: false 0x19e.2-0x19e.3 (0.1)
0x000190|                                          50   |              P |          align_1bytes: true 0x19e.3-0x19e.4 (0.1)
0x000190|                                          50   |              P |          mem_preload: false 0x19e.4-0x19e.5 (0.1)
0x000190|                                          50   |              P |          mem_locked: false 0x19e.5-0x19e.6 (0.1)
0x000190|                                          50   |              P |          mem_16bit: false 0x19e.6-0x19e.7 (0.1)
0x000190|                                          50   |              P |          mem_purgeable: false 0x19e.7-0x19f (0.1)
0x000190|                                             60|               `|          mem_write: false 0x19f-0x19f.1 (0.1)
0x000190|                                             60|               `|          mem_read: true 0x19f.1-0x19f.2 (0.1)
0x000190|                                             60|               `|          mem_execute: true 0x19f.2-0x19f.3 (0.1)
0x000190|                                             60|               `|          mem_shared: false 0x19f.3-0x19f.4 (0.1)
0x000190|                                             60|               `|          mem_not_paged: false 0x19f.4-0x19f.5 (0.1)
0x000190|                                             60|               `|          mem_not_cached: false 0x19f.5-0x19f.6 (0.1)
0x000190|                                             60|               `|          mem_discardable: false 0x19f.6-0x19f.7 (0.1)
0x000190|                                             60|               `|          lnk_nreloc_ovfl: false 0x19f.7-0x1a0 (0.1)
        |                                               |                |      [1]{}: section 0x1a0-0x1c8 (40)
0x0001a0|2e 64 61 74 61 00 00 00                        |.data...        |        name: ".data" 0x1a0-0x1a8 (8)
0x0001a0|                        e8 1e 00 00            |        ....    |        virtual_size: 7912 0x1a8-0x1ac (4)
0x0001a0|                                    00 d0 0c 00|            ....|        virtual_address: 0xcd000 0x1ac-0x1b0 (4)
0x0001b0|00 20 00 00                                    |. ..            |        size_of_raw_data: 8192 0x1b0-0x1b4 (4)
0x0001b0|            00 ba 0c 00                        |    ....        |        pointer_to_raw_data: 0xcba00 0x1b4-0x1b8 (4)
0x0001b0|                        00 00 00 00            |        ....    |        pointer_to_relocations: 0x0 0x1b8-0x1bc (4)
0x0001b0|                                    00 00 00 00|            ....|        pointer_to_line_numbers: 0x0 0x1bc-0x1c0 (4)
0x0001c0|00 00                                          |..              |        number_of_relocations: 0 0x1c0-0x1c2 (2)
0x0001c0|      00 00                                    |  ..            |        number_of_line_numbers: 0 0x1c2-0x1c4 (2)
        |                                               |                |        characteristics{}: 0x1c4-0x1c8 (4)
0x0001c0|            40                                 |    @           |          cnt_uninitialized_data: false 0x1c4-0x1c4.1 (0.1)
0x0001c0|            40                                 |    @           |          cnt_initialized_data: true 0x1c4.1-0x1c4.2 (0.1)
0x0001c0|            40                                 |    @           |          cnt_code: false 0x1c4.2-0x1c4.3 (0.1)
0x0001c0|            40                                 |    @           |          reserved: false 0x1c4.3-0x1c4.4 (0.1)
0x0001c0|            40                                 |    @           |          type_no_pad: false 0x1c4.4-0x1c4.5 (0.1)
0x0001c0|            40                                 |    @           |          reserved0: false 0x1c4.5-0x1c4.6 (0.1)
0x0001c0|            40                                 |    @           |          reserved1: false 0x1c4.6-0x1c4.7 (0.1)
0x0001c0|            40                                 |    @           |          reserved2: false 0x1c4.7-0x1c5 (0.1)
0x0001c0|               00                              |     .          |          gprel: false 0x1c5-0x1c5.1 (0.1)
0x0001c0|               00                              |     .          |          unknown0: false 0x1c5.1-0x1c5.2 (0.1)
0x0001c0|               00                              |     .          |          unknown1: false 0x1c5.2-0x1c5.3 (0.1)
0x0001c0|               00                              |     .          |          lnk_comdat: false 0x1c5.3-0x1c5.4 (0.1)
0x0001c0|               00                              |     .          |          lnk_remove: false 0x1c5.4-0x1c5.5 (0.1)
0x0001c0|               00                              |     .          |          reserved3: false 0x1c5.5-0x1c5.6 (0.1)
0x0001c0|               00                              |     .          |          lnk_info: false 0x1c5.6-0x1c5.7 (0.1)
0x0001c0|               00                              |     .          |          lnk_other: false 0x1c5.7-0x1c6 (0.1)
0x0001c0|                  60                           |      `         |          align_128bytes: false 0x1c6-0x1c6.1 (0.1)
0x0001c0|                  60                           |      `         |          align_8bytes: true 0x1c6.1-0x1c6.2 (0.1)
0x0001c0|                  60                           |      `         |          align_2bytes: true 0x1c6.2-0x1c6.3 (0.1)
0x0001c0|                  60                           |      `         |          align_1bytes: false 0x1c6.3-0x1c6.4 (0.1)
0x0001c0|                  60                           |      `         |          mem_preload: false 0x1c6.4-0x1c6.5 (0.1)
0x0001c0|                  60                           |      `         |          mem_locked: false 0x1c6.5-0x1c6.6 (0.1)
0x0001c0|                  60                           |      `         |          mem_16bit: false 0x1c6.6-0x1c6.7 (0.1)
0x0001c0|                  60                           |      `         |          mem_purgeable: false 0x1c6.7-0x1c7 (0.1)
0x0001c0|                     c0                        |       .        |          mem_write: true 0x1c7-0x1c7.1 (0.1)
0x0001c0|                     c0                        |       .        |          mem_read: true 0x1c7.1-0x1c7.2 (0.1)
0x0001c0|                     c0                        |       .        |          mem_execute: false 0x1c7.2-0x1c7.3 (0.1)
0x0001c0|                     c0                        |       .        |          mem_shared: false 0x1c7.3-0x1c7.4 (0.1)
0x0001c0|                     c0                        |       .        |          mem_not_paged: false 0x1c7.4-0x1c7.5 (0.1)
0x0001c0|                     c0                        |       .        |          mem_not_cached: false 0x1c7.5-0x1c7.6 (0.1)
0x0001c0|                     c0                        |       .        |          mem_discardable: false 0x1c7.6-0x1c7.7 (0.1)
0x0001c0|                     c0                        |       .        |          lnk_nreloc_ovfl: false 0x1c7.7-0x1c8 (0.1)
        |                                               |                |      [2]{}: section 0x1c8-0x1f0 (40)
0x0001c0|                        2e 72 64 61 74 61 00 00|        .rdata..|        name: ".rdata" 0x1c8-0x1d0 (8)
0x0001d0|a8 21 03 00                                    |.!..            |        virtual_size: 205224 0x1d0-0x1d4 (4)
0x0001d0|            00 f0 0c 00                        |    ....        |        virtual_address: 0xcf000 0x1d4-0x1d8 (4)
0x0001d0|                        00 22 03 00            |        ."..    |        size_of_raw_data: 205312 0x1d8-0x1dc (4)
0x0001d0|                                    00 da 0c 00|            ....|        pointer_to_raw_data: 0xcda00 0x1dc-0x1e0 (4)
0x0001e0|00 00 00 00                                    |....            |        pointer_to_relocations: 0x0 0x1e0-0x1e4 (4)
0x0001e0|            00 00 00 00                        |    ....        |        pointer_to_line_numbers: 0x0 0x1e4-0x1e8 (4)
0x0001e0|                        00 00                  |        ..      |        number_of_relocations: 0 0x1e8-0x1ea (2)
0x0001e0|                              00 00            |          ..    |        number_of_line_numbers: 0 0x1ea-0x1ec (2)
        |                                               |                |        characteristics{}: 0x1ec-0x1f0 (4)
0x0001e0|                                    40         |            @   |          cnt_uninitialized_data: false 0x1ec-0x1ec.1 (0.1)
0x0001e0|                                    40         |            @   |          cnt_initialized_data: true 0x1ec.1-0x1ec.2 (0.1)
0x0001e0|                                    40         |            @   |          cnt_code: false 0x1ec.2-0x1ec.3 (0.1)
0x0001e0|                                    40         |            @   |          reserved: false 0x1ec.3-0x1ec.4 (0.1)
0x0001e0|                                    40         |            @   |          type_no_pad: false 0x1ec.4-0x1ec.5 (0.1)
0x0001e0|                                    40         |            @   |          reserved0: false 0x1ec.5-0x1ec.6 (0.1)
0x0001e0|                                    40         |            @   |          reserved1: false 0x1ec.6-0x1ec.7 (0.1)
0x0001e0|                                    40         |            @   |          reserved2: false 0x1ec.7-0x1ed (0.1)
0x0001e0|                                       00      |             .  |          gprel: false 0x1ed-0x1ed.1 (0.1)
0x0001e0|                                       00      |             .  |          unknown0: false 0x1ed.1-0x1ed.2 (0.1)
0x0001e0|                                       00      |             .  |          unknown1: false 0x1ed.2-0x1ed.3 (0.1)
0x0001e0|                                       00      |             .  |          lnk_comdat: false 0x1ed.3-0x1ed.4 (0.1)
0x0001e0|                                       00      |             .  |          lnk_remove: false 0x1ed.4-0x1ed.5 (0.1)
0x0001e0|                                       00      |             .  |          reserved3: false 0x1ed.5-0x1ed.6 (0.1)
0x0001e0|                                       00      |             .  |          lnk_info: false 0x1ed.6-0x1ed.7 (0.1)
0x0001e0|                                       00      |             .  |          lnk_other: false 0x1ed.7-0x1ee (0.1)
0x0001e0|                                          60   |              ` |          align_128bytes: false 0x1ee-0x1ee.1 (0.1)
0x0001e0|                                          60   |              ` |          align_8bytes: true 0x1ee.1-0x1ee.2 (0.1)
0x0001e0|                                          60   |              ` |          align_2bytes: true 0x1ee.2-0x1ee.3 (0.1)
0x0001e0|                                          60   |              ` |          align_1bytes: false 0x1ee.3-0x1ee.4 (0.1)
0x0001e0|                                          60   |              ` |          mem_preload: false 0x1ee.4-0x1ee.5 (0.1)
0x0001e0|                                          60   |              ` |          mem_locked: false 0x1ee.5-0x1ee.6 (0.1)
0x0001e0|                                          60   |              ` |          mem_16bit: false 0x1ee.6-0x1ee.7 (0.1)
0x0001e0|                                          60   |              ` |          mem_purgeable: false 0x1ee.7-0x1ef (0.1)
0x0001e0|                                             40|               @|          mem_write: false 0x1ef-0x1ef.1 (0.1)
0x0001e0|                                             40|               @|          mem_read: true 0x1ef.1-0x1ef.2 (0.1)
0x0001e0|                                             40|               @|          mem_execute: false 0x1ef.2-0x1ef.3 (0.1)
0x0001e0|                                             40|               @|          mem_shared: false 0x1ef.3-0x1ef.4 (0.1)
0x0001e0|                                             40|               @|          mem_not_paged: false 0x1ef.4-0x1ef.5 (0.1)
0x0001e0|                                             40|               @|          mem_not_cached: false 0x1ef.5-0x1ef.6 (0.1)
0x0001e0|                                             40|               @|          mem_discardable: false 0x1ef.6-0x1ef.7 (0.1)
0x0001e0|                                             40|               @|          lnk_nreloc_ovfl: false 0x1ef.7-0x1f0 (0.1)
        |                                               |                |      [3]{}: section 0x1f0-0x218 (40)
0x0001f0|2f 34 00 00 00 00 00 00                        |/4......        |        name: ".eh_frame" ("/4") 0x1f0-0x1f8 (8)
0x0001f0|                        64 a2 01 00            |        d...    |        virtual_size: 107108 0x1f8-0x1fc (4)
0x0001f0|                                    00 20 10 00|            . ..|        virtual_address: 0x102000 0x1fc-0x200 (4)
0x000200|00 a4 01 00                                    |....            |        size_of_raw_data: 107520 0x200-0x204 (4)
0x000200|            00 fc 0f 00                        |    ....        |        pointer_to_raw_data: 0xffc00 0x204-0x208 (4)
0x000200|                        00 00 00 00            |        ....    |        pointer_to_relocations: 0x0 0x208-0x20c (4)
0x000200|                                    00 00 00 00|            ....|        pointer_to_line_numbers: 0x0 0x20c-0x210 (4)
0x000210|00 00                                          |..              |        number_of_relocations: 0 0x210-0x212 (2)
0x000210|      00 00                                    |  ..            |        number_of_line_numbers: 0 0x212-0x214 (2)
        |                                               |                |        characteristics{}: 0x214-0x218 (4)
0x000210|            40                                 |    @           |          cnt_uninitialized_data: false 0x214-0x214.1 (0.1)
0x000210|            40                                 |    @           |          cnt_initialized_data: true 0x214.1-0x214.2 (0.1)
0x000210|            40                                 |    @           |          cnt_code: false 0x214.2-0x214.3 (0.1)
0x000210|            40                                 |    @           |          reserved: false 0x214.3-0x214.4 (0.1)
0x000210|            40                                 |    @           |          type_no_pad: false 0x214.4-0x214.5 (0.1)
0x000210|            40                                 |    @           |          reserved0: false 0x214.5-0x214.6 (0.1)
0x000210|            40                                 |    @           |          reserved1: false 0x214.6-0x214.7 (0.1)
0x000210|            40                                 |    @           |          reserved2: false 0x214.7-0x215 (0.1)
0x000210|               00                              |     .          |          gprel: false 0x215-0x215.1 (0.1)
0x000210|               00                              |     .          |          unknown0: false 0x215.1-0x215.2 (0.1)
0x000210|               00                              |     .          |          unknown1: false 0x215.2-0x215.3 (0.1)
0x000210|               00                              |     .          |          lnk_comdat: false 0x215.3-0x215.4 (0.1)
0x000210|               00                              |     .          |          lnk_remove: false 0x215.4-0x215.5 (0.1)
0x000210|               00                              |     .          |          reserved3: false 0x215.5-0x215.6 (0.1)
0x000210|               00                              |     .          |          lnk_info: false 0x215.6-0x215.7 (0.1)
0x000210|               00                              |     .          |          lnk_other: false 0x215.7-0x216 (0.1)
0x000210|                  30                           |      0         |          align_128bytes: false 0x216-0x216.1 (0.1)
0x000210|                  30                           |      0         |          align_8bytes: false 0x216.1-0x216.2 (0.1)
0x000210|                  30                           |      0         |          align_2bytes: true 0x216.2-0x216.3 (0.1)
0x000210|                  30                           |      0         |          align_1bytes: true 0x216.3-0x216.4 (0.1)
0x000210|                  30                           |      0         |          mem_preload: false 0x216.4-0x216.5 (0.1)
0x000210|                  30                           |      0         |          mem_locked: false 0x216.5-0x216.6 (0.1)
0x000210|                  30                           |      0         |          mem_16bit: false 0x216.6-0x216.7 (0.1)
0x000210|                  30                           |      0         |          mem_purgeable: false 0x216.7-0x217 (0.1)
0x000210|                     40                        |       @        |          mem_write: false 0x217-0x217.1 (0.1)
0x000210|                     40                        |       @        |          mem_read: true 0x217.1-0x217.2 (0.1)
0x000210|                     40                        |       @        |          mem_execute: false 0x217.2-0x217.3 (0.1)
0x000210|                     40                        |       @        |          mem_shared: false 0x217.3-0x217.4 (0.1)
0x000210|                     40                        |       @        |          mem_not_paged: false 0x217.4-0x217.5 (0.1)
0x000210|                     40                        |       @        |          mem_not_cached: false 0x217.5-0x217.6 (0.1)
0x000210|                     40                        |       @        |          mem_discardable: false 0x217.6-0x217.7 (0.1)
0x000210|                     40                        |       @        |          lnk_nreloc_ovfl: false 0x217.7-0x218 (0.1)
        |                                               |                |      [4]{}: section 0x218-0x240 (40)
0x000210|                        2e 62 73 73 00 00 00 00|        .bss....|        name: ".bss" 0x218-0x220 (8)
0x000220|60 56 00 00                                    |`V..            |        virtual_size: 22112 0x220-0x224 (4)
0x000220|            00 d0 11 00                        |    ....        |        virtual_address: 0x11d000 0x224-0x228 (4)
0x000220|                        00 00 00 00            |        ....    |        size_of_raw_data: 0 0x228-0x22c (4)
0x000220|                                    00 00 00 00|            ....|        pointer_to_raw_data: 0x0 0x22c-0x230 (4)
0x000230|00 00 00 00                                    |....            |        pointer_to_relocations: 0x0 0x230-0x234 (4)
0x000230|            00 00 00 00                        |    ....        |        pointer_to_line_numbers: 0x0 0x234-0x238 (4)
0x000230|                        00 00                  |        ..      |        number_of_relocations: 0 0x238-0x23a (2)
0x000230|                              00 00            |          ..    |        number_of_line_numbers: 0 0x23a-0x23c (2)
        |                                               |                |        characteristics{}: 0x23c-0x240 (4)
0x000230|                                    80         |            .   |          cnt_uninitialized_data: true 0x23c-0x23c.1 (0.1)
0x000230|                                    80         |            .   |          cnt_initialized_data: false 0x23c.1-0x23c.2 (0.1)
0x000230|                                    80         |            .   |          cnt_code: false 0x23c.2-0x23c.3 (0.1)
0x000230|                                    80         |            .   |          reserved: false 0x23c.3-0x23c.4 (0.1)
0x000230|                                    80         |            .   |          type_no_pad: false 0x23c.4-0x23c.5 (0.1)
0x000230|                                    80         |            .   |          reserved0: false 0x23c.5-0x23c.6 (0.1)
0x000230|                                    80         |            .   |          reserved1: false 0x23c.6-0x23c.7 (0.1)
0x000230|                                    80         |            .   |          reserved2: false 0x23c.7-0x23d (0.1)
0x000230|                                       00      |             .  |          gprel: false 0x23d-0x23d.1 (0.1)
0x000230|                                       00      |             .  |          unknown0: false 0x23d.1-0x23d.2 (0.1)
0x000230|                                       00      |             .  |          unknown1: false 0x23d.2-0x23d.3 (0.1)
0x000230|                                       00      |             .  |          lnk_comdat: false 0x23d.3-0x23d.4 (0.1)
0x000230|                                       00      |             .  |          lnk_remove: false 0x23d.4-0x23d.5 (0.1)
0x000230|                                       00      |             .  |          reserved3: false 0x23d.5-0x23d.6 (0.1)
0x000230|                                       00      |             .  |          lnk_info: false 0x23d.6-0x23d.7 (0.1)
0x000230|                                       00      |             .  |          lnk_other: false 0x23d.7-0x23e (0.1)
0x000230|                                          60   |              ` |          align_128bytes: false 0x23e-0x23e.1 (0.1)
0x000230|                                          60   |              ` |          align_8bytes: true 0x23e.1-0x23e.2 (0.1)
0x000230|                                          60   |              ` |          align_2bytes: true 0x23e.2-0x23e.3 (0.1)
0x000230|                                          60   |              ` |          align_1bytes: false 0x23e.3-0x23e.4 (0.1)
0x000230|                                          60   |              ` |          mem_preload: false 0x23e.4-0x23e.5 (0.1)
0x000230|                                          60   |              ` |          mem_locked: false 0x23e.5-0x23e.6 (0.1)
0x000230|                                          60   |              ` |          mem_16bit: false 0x23e.6-0x23e.7 (0.1)
0x000230|                                          60   |              ` |          mem_purgeable: false 0x23e.7-0x23f (0.1)
0x000230|                                             c0|               .|          mem_write: true 0x23f-0x23f.1 (0.1)
0x000230|                                             c0|               .|          mem_read: true 0x23f.1-0x23f.2 (0.1)
0x000230|                                             c0|               .|          mem_execute: false 0x23f.2-0x23f.3 (0.1)
0x000230|                                             c0|               .|          mem_shared: false 0x23f.3-0x23f.4 (0.1)
0x000230|                                             c0|               .|          mem_not_paged: false 0x23f.4-0x23f.5 (0.1)
0x000230|                                             c0|               .|          mem_not_cached: false 0x23f.5-0x23f.6 (0.1)
0x000230|                                             c0|               .|          mem_discardable: false 0x23f.6-0x23f.7 (0.1)
0x000230|                                             c0|               .|          lnk_nreloc_ovfl: false 0x23f.7-0x240 (0.1)
        |                                               |                |      [5]{}: section 0x240-0x268 (40)
0x000240|2e 69 64 61 74 61 00 00                        |.idata..        |        name: ".idata" 0x240-0x248 (8)
0x000240|                        d4 10 00 00            |        ....    |        virtual_size: 4308 0x248-0x24c (4)
0x000240|                                    00 30 12 00|            .0..|        virtual_address: 0x123000 0x24c-0x250 (4)
0x000250|00 12 00 00                                    |....            |        size_of_raw_data: 4608 0x250-0x254 (4)
0x000250|            00 a0 11 00                        |    ....        |        pointer_to_raw_data: 0x11a000 0x254-0x258 (4)
0x000250|                        00 00 00 00            |        ....    |        pointer_to_relocations: 0x0 0x258-0x25c (4)
0x000250|                                    00 00 00 00|            ....|        pointer_to_line_numbers: 0x0 0x25c-0x260 (4)
0x000260|00 00                                          |..              |        number_of_relocations: 0 0x260-0x262 (2)
0x000260|      00 00                                    |  ..            |        number_of_line_numbers: 0 0x262-0x264 (2)
        |                                               |                |        characteristics{}: 0x264-0x268 (4)
0x000260|            40                                 |    @           |          cnt_uninitialized_data: false 0x264-0x264.1 (0.1)
0x000260|            40                                 |    @           |          cnt_initialized_data: true 0x264.1-0x264.2 (0.1)
0x000260|            40                                 |    @           |          cnt_code: false 0x264.2-0x264.3 (0.1)
0x000260|            40                                 |    @           |          reserved: false 0x264.3-0x264.4 (0.1)
0x000260|            40                                 |    @           |          type_no_pad: false 0x264.4-0x264.5 (0.1)
0x000260|            40                                 |    @           |          reserved0: false 0x264.5-0x264.6 (0.1)
0x000260|            40                                 |    @           |          reserved1: false 0x264.6-0x264.7 (0.1)
0x000260|            40                                 |    @           |          reserved2: false 0x264.7-0x265 (0.1)
0x000260|               00                              |     .          |          gprel: false 0x265-0x265.1 (0.1)
0x000260|               00                              |     .          |          unknown0: false 0x265.1-0x265.2 (0.1)
0x000260|               00                              |     .          |          unknown1: false 0x265.2-0x265.3 (0.1)
0x000260|               00                              |     .          |          lnk_comdat: false 0x265.3-0x265.4 (0.1)
0x000260|               00                              |     .          |          lnk_remove: false 0x265.4-0x265.5 (0.1)
0x000260|               00                              |     .          |          reserved3: false 0x265.5-0x265.6 (0.1)
0x000260|               00                              |     .          |          lnk_info: false 0x265.6-0x265.7 (0.1)
0x000260|               00                              |     .          |          lnk_other: false 0x265.7-0x266 (0.1)
0x000260|                  30                           |      0         |          align_128bytes: false 0x266-0x266.1 (0.1)
0x000260|                  30                           |      0         |          align_8bytes: false 0x266.1-0x266.2 (0.1)
0x000260|                  30                           |      0         |          align_2bytes: true 0x266.2-0x266.3 (0.1)
0x000260|                  30                           |      0         |          align_1bytes: true 0x266.3-0x266.4 (0.1)
0x000260|                  30                           |      0         |          mem_preload: false 0x266.4-0x266.5 (0.1)
0x000260|                  30                           |      0         |          mem_locked: false 0x266.5-0x266.6 (0.1)
0x000260|                  30                           |      0         |          mem_16bit: false 0x266.6-0x266.7 (0.1)
0x000260|                  30                           |      0         |          mem_purgeable: false 0x266.7-0x267 (0.1)
0x000260|                     c0                        |       .        |          mem_write: true 0x267-0x267.1 (0.1)
0x000260|                     c0                        |       .        |          mem_read: true 0x267.1-0x267.2 (0.1)
0x000260|                     c0                        |       .        |          mem_execute: false 0x267.2-0x267.3 (0.1)
0x000260|                     c0                        |       .        |          mem_shared: false 0x267.3-0x267.4 (0.1)
0x000260|                     c0                        |       .        |          mem_not_paged: false 0x267.4-0x267.5 (0.1)
0x000260|                     c0                        |       .        |          mem_not_cached: false 0x267.5-0x267.6 (0.1)
0x000260|                     c0                        |       .        |          mem_discardable: false 0x267.6-0x267.7 (0.1)
0x000260|                     c0                        |       .        |          lnk_nreloc_ovfl: false 0x267.7-0x268 (0.1)
        |                                               |                |      [6]{}: section 0x268-0x290 (40)
0x000260|                        2e 43 52 54 00 00 00 00|        .CRT....|        name: ".CRT" 0x268-0x270 (8)
0x000270|18 00 00 00                                    |....            |        virtual_size: 24 0x270-0x274 (4)
0x000270|            00 50 12 00                        |    .P..        |        virtual_address: 0x125000 0x274-0x278 (4)
0x000270|                        00 02 00 00            |        ....    |        size_of_raw_data: 512 0x278-0x27c (4)
0x000270|                                    00 b2 11 00|            ....|        pointer_to_raw_data: 0x11b200 0x27c-0x280 (4)
0x000280|00 00 00 00                                    |....            |        pointer_to_relocations: 0x0 0x280-0x284 (4)
0x000280|            00 00 00 00                        |    ....        |        pointer_to_line_numbers: 0x0 0x284-0x288 (4)
0x000280|                        00 00                  |        ..      |        number_of_relocations: 0 0x288-0x28a (2)
0x000280|                              00 00            |          ..    |        number_of_line_numbers: 0 0x28a-0x28c (2)
        |                                               |                |        characteristics{}: 0x28c-0x290 (4)
0x000280|                                    40         |            @   |          cnt_uninitialized_data: false 0x28c-0x28c.1 (0.1)
0x000280|                                    40         |            @   |          cnt_initialized_data: true 0x28c.1-0x28c.2 (0.1)
0x000280|                                    40         |            @   |          cnt_code: false 0x28c.2-0x28c.3 (0.1)
0x000280|                                    40         |            @   |          reserved: false 0x28c.3-0x28c.4 (0.1)
0x000280|                                    40         |            @   |          type_no_pad: false 0x28c.4-0x28c.5 (0.1)
0x000280|                                    40         |            @   |          reserved0: false 0x28c.5-0x28c.6 (0.1)
0x000280|                                    40         |            @   |          reserved1: false 0x28c.6-0x28c.7 (0.1)
0x000280|                                    40         |            @   |          reserved2: false 0x28c.7-0x28d (0.1)
0x000280|                                       00      |             .  |          gprel: false 0x28d-0x28d.1 (0.1)
0x000280|                                       00      |             .  |          unknown0: false 0x28d.1-0x28d.2 (0.1)
0x000280|                                       00      |             .  |          unknown1: false 0x28d.2-0x28d.3 (0.1)
0x000280|                                       00      |             .  |          lnk_comdat: false 0x28d.3-0x28d.4 (0.1)
0x000280|                                       00      |             .  |          lnk_remove: false 0x28d.4-0x28d.5 (0.1)
0x000280|                                       00      |             .  |          reserved3: false 0x28d.5-0x28d.6 (0.1)
0x000280|                                       00      |             .  |          lnk_info: false 0x28d.6-0x28d.7 (0.1)
0x000280|                                       00      |             .  |          lnk_other: false 0x28d.7-0x28e (0.1)
0x000280|                                          30   |              0 |          align_128bytes: false 0x28e-0x28e.1 (0.1)
0x000280|                                          30   |              0 |          align_8bytes: false 0x28e.1-0x28e.2 (0.1)
0x000280|                                          30   |              0 |          align_2bytes: true 0x28e.2-0x28e.3 (0.1)
0x000280|                                          30   |              0 |          align_1bytes: true 0x28e.3-0x28e.4 (0.1)
0x000280|                                          30   |              0 |          mem_preload: false 0x28e.4-0x28e.5 (0.1)
0x000280|                                          30   |              0 |          mem_locked: false 0x28e.5-0x28e.6 (0.1)
0x000280|                                          30   |              0 |          mem_16bit: false 0x28e.6-0x28e.7 (0.1)
0x000280|                                          30   |              0 |          mem_purgeable: false 0x28e.7-0x28f (0.1)
0x000280|                                             c0|               .|          mem_write: true 0x28f-0x28f.1 (0.1)
0x000280|                                             c0|               .|          mem_read: true 0x28f.1-0x28f.2 (0.1)
0x000280|                                             c0|               .|          mem_execute: false 0x28f.2-0x28f.3 (0.1)
0x000280|                                             c0|               .|          mem_shared: false 0x28f.3-0x28f.4 (0.1)
0x000280|                                             c0|               .|          mem_not_paged: false 0x28f.4-0x28f.5 (0.1)
0x000280|                                             c0|               .|          mem_not_cached: false 0x28f.5-0x28f.6 (0.1)
0x000280|                                             c0|               .|          mem_discardable: false 0x28f.6-0x28f.7 (0.1)
0x000280|                                             c0|               .|          lnk_nreloc_ovfl: false 0x28f.7-0x290 (0.1)
        |                                               |                |      [7]{}: section 0x290-0x2b8 (40)
0x000290|2e 74 6c 73 00 00 00 00                        |.tls....        |        name: ".tls" 0x290-0x298 (8)
0x000290|                        20 00 00 00            |         ...    |        virtual_size: 32 0x298-0x29c (4)
0x000290|                                    00 60 12 00|            .`..|        virtual_address: 0x126000 0x29c-0x2a0 (4)
0x0002a0|00 02 00 00                                    |....            |        size_of_raw_data: 512 0x2a0-0x2a4 (4)
0x0002a0|            00 b4 11 00                        |    ....        |        pointer_to_raw_data: 0x11b400 0x2a4-0x2a8 (4)
0x0002a0|                        00 00 00 00            |        ....    |        pointer_to_relocations: 0x0 0x2a8-0x2ac (4)
0x0002a0|                                    00 00 00 00|            ....|        pointer_to_line_numbers: 0x0 0x2ac-0x2b0 (4)
0x0002b0|00 00                                          |..              |        number_of_relocations: 0 0x2b0-0x2b2 (2)
0x0002b0|      00 00                                    |  ..            |        number_of_line_numbers: 0 0x2b2-0x2b4 (2)
        |                                               |                |        characteristics{}: 0x2b4-0x2b8 (4)
0x0002b0|            40                                 |    @           |          cnt_uninitialized_data: false 0x2b4-0x2b4.1 (0.1)
0x0002b0|            40                                 |    @           |          cnt_initialized_data: true 0x2b4.1-0x2b4.2 (0.1)
0x0002b0|            40                                 |    @           |          cnt_code: false 0x2b4.2-0x2b4.3 (0.1)
0x0002b0|            40                                 |    @           |          reserved: false 0x2b4.3-0x2b4.4 (0.1)
0x0002b0|            40                                 |    @           |          type_no_pad: false 0x2b4.4-0x2b4.5 (0.1)
0x0002b0|            40                                 |    @           |          reserved0: false 0x2b4.5-0x2b4.6 (0.1)
0x0002b0|            40                                 |    @           |          reserved1: false 0x2b4.6-0x2b4.7 (0.1)
0x0002b0|            40                                 |    @           |          reserved2: false 0x2b4.7-0x2b5 (0.1)
0x0002b0|               00                              |     .          |          gprel: false 0x2b5-0x2b5.1 (0.1)
0x0002b0|               00                              |     .          |          unknown0: false 0x2b5.1-0x2b5.2 (0.1)
0x0002b0|               00                              |     .          |          unknown1: false 0x2b5.2-0x2b5.3 (0.1)
0x0002b0|               00                              |     .          |          lnk_comdat: false 0x2b5.3-0x2b5.4 (0.1)
0x0002b0|               00                              |     .          |          lnk_remove: false 0x2b5.4-0x2b5.5 (0.1)
0x0002b0|               00                              |     .          |          reserved3: false 0x2b5.5-0x2b5.6 (0.1)
0x0002b0|               00                              |     .          |          lnk_info: false 0x2b5.6-0x2b5.7 (0.1)
0x0002b0|               00                              |     .          |          lnk_other: false 0x2b5.7-0x2b6 (0.1)
0x0002b0|                  30                           |      0         |          align_128bytes: false 0x2b6-0x2b6.1 (0.1)
0x0002b0|                  30                           |      0         |          align_8bytes: false 0x2b6.1-0x2b6.2 (0.1)
0x0002b0|                  30                           |      0         |          align_2bytes: true 0x2b6.2-0x2b6.3 (0.1)
0x0002b0|                  30                           |      0         |          align_1bytes: true 0x2b6.3-0x2b6.4 (0.1)
0x0002b0|                  30                           |      0         |          mem_preload: false 0x2b6.4-0x2b6.5 (0.1)
0x0002b0|                  30                           |      0         |          mem_locked: false 0x2b6.5-0x2b6.6 (0.1)
0x0002b0|                  30                           |      0         |          mem_16bit: false 0x2b6.6-0x2b6.7 (0.1)
0x0002b0|                  30                           |      0         |          mem_purgeable: false 0x2b6.7-0x2b7 (0.1)
0x0002b0|                     c0                        |       .        |          mem_write: true 0x2b7-0x2b7.1 (0.1)
0x0002b0|                     c0                        |       .        |          mem_read: true 0x2b7.1-0x2b7.2 (0.1)
0x0002b0|                     c0                        |       .        |          mem_execute: false 0x2b7.2-0x2b7.3 (0.1)
0x0002b0|                     c0                        |       .        |          mem_shared: false 0x2b7.3-0x2b7.4 (0.1)
0x0002b0|                     c0                        |       .        |          mem_not_paged: false 0x2b7.4-0x2b7.5 (0.1)
0x0002b0|                     c0                        |       .        |          mem_not_cached: false 0x2b7.5-0x2b7.6 (0.1)
0x0002b0|                     c0                        |       .        |          mem_discardable: false 0x2b7.6-0x2b7.7 (0.1)
0x0002b0|                     c0                        |       .        |          lnk_nreloc_ovfl: false 0x2b7.7-0x2b8 (0.1)
        |                                               |                |    symbol_table[0:0]: 0x2b8-0x2b8 (0)
        |                                               |                |    string_table{}: 0x11b600-0x11b60e (14)
0x11b600|0e 00 00 00                                    |....            |      size: 14 0x11b600-0x11b604 (4)
        |                                               |                |      entries[0:1]: 0x11b604-0x11b60e (10)
0x11b600|            2e 65 68 5f 66 72 61 6d 65 00|     |    .eh_frame.| |        [0]: ".eh_frame" entry 0x11b604-0x11b60e (10)
0x0002b0|                        00 00 00 00 00 00 00 00|        ........|  gap0: raw bits 0x2b8-0x11b600 (1160008)
0x0002c0|00 00 00 00 00 00 00 00 00 00 00 00 00 00 00 00|................|
*       |until 0x11b5ff.7 (1160008)                     |                |
