$ fq dv pe-Windows-x86-cmd
       |00 01 02 03 04 05 06 07 08 09 0a 0b 0c 0d 0e 0f|0123456789abcdef|.{}: pe-Windows-x86-cmd (pe) 0x0-0x499ff.7 (301568)
       |00 01 02 03 04 05 06 07 08 09 0a 0b 0c 0d 0e 0f|0123456789abcdef|  ms_dos_stub{}: (msdos_stub) 0x0-0xd7.7 (216)
0x00000|4d 5a                                          |MZ              |    e_magic: 0x5a4d (valid) 0x0-0x1.7 (2)
0x00000|      90 00                                    |  ..            |    e_cblp: 144 (Bytes on last page of file) 0x2-0x3.7 (2)
0x00000|            03 00                              |    ..          |    e_cp: 3 (Pages in file) 0x4-0x5.7 (2)
0x00000|                  00 00                        |      ..        |    e_crlc: 0 (Relocations) 0x6-0x7.7 (2)
0x00000|                        04 00                  |        ..      |    e_cparhdr: 4 (Size of header in paragraphs) 0x8-0x9.7 (2)
0x00000|                              00 00            |          ..    |    e_minalloc: 0 (Minimum extra paragraphs needed) 0xa-0xb.7 (2)
0x00000|                                    ff ff      |            ..  |    e_maxalloc: 65535 (Maximum extra paragraphs needed) 0xc-0xd.7 (2)
0x00000|                                          00 00|              ..|    e_ss: 0 (Initial (relative) SS value) 0xe-0xf.7 (2)
0x00010|b8 00                                          |..              |    e_sp: 184 (Initial SP value) 0x10-0x11.7 (2)
0x00010|      00 00                                    |  ..            |    e_csum: 0 (Checksum) 0x12-0x13.7 (2)
0x00010|            00 00                              |    ..          |    e_ip: 0 (Initial IP value) 0x14-0x15.7 (2)
0x00010|                  00 00                        |      ..        |    e_cs: 0 (Initial (relative) CS value) 0x16-0x17.7 (2)
0x00010|                        40 00                  |        @.      |    e_lfarlc: 64 (File address of relocation table) 0x18-0x19.7 (2)
0x00010|                              00 00            |          ..    |    e_ovno: 0 (Overlay number) 0x1a-0x1b.7 (2)
0x00010|                                    00 00 00 00|            ....|    e_res: raw bits (Reserved words) 0x1c-0x23.7 (8)
0x00020|00 00 00 00                                    |....            |
0x00020|            00 00                              |    ..          |    e_oemid: 0 (OEM identifier (for e_oeminfo)) 0x24-0x25.7 (2)
0x00020|                  00 00                        |      ..        |    e_oeminfo: 0 (OEM information; e_oemid specific) 0x26-0x27.7 (2)
0x00020|                        00 00 00 00 00 00 00 00|        ........|    e_res2: raw bits (Reserved words) 0x28-0x3b.7 (20)
0x00030|00 00 00 00 00 00 00 00 00 00 00 00            |............    |
0x00030|                                    d8 00 00 00|            ....|    e_lfanew: 216 (File address of new exe header) 0x3c-0x3f.7 (4)
0x00040|0e 1f ba 0e 00 b4 09 cd 21 b8 01 4c cd 21 54 68|........!..L.!Th|    stub: raw bits (Sub program) 0x40-0x7f.7 (64)
*      |until 0x7f.7 (64)                              |                |
0x00080|de 72 92 b9 9a 13 fc ea 9a 13 fc ea 9a 13 fc ea|.r..............|    padding: raw bits 0x80-0xd7.7 (88)
*      |until 0xd7.7 (88)                              |                |
       |00 01 02 03 04 05 06 07 08 09 0a 0b 0c 0d 0e 0f|0123456789abcdef|  coff{}: (coff) 0xd8-0x499ff.7 (301352)
0x000d0|                        50 45 00 00            |        PE..    |    signature: raw bits (valid) 0xd8-0xdb.7 (4)
0x000d0|                                    4c 01      |            L.  |    machine: "i386" (0x14c) (Intel 386 or later processors and compatible processors) 0xdc-0xdd.7 (2)
0x000d0|                                          04 00|              ..|    number_of_sections: 4 0xde-0xdf.7 (2)
0x000e0|9e c1 5b 4a                                    |..[J            |    time_date_stamp: 1247527326 (2009-07-13T23:22:06Z) 0xe0-0xe3.7 (4)
0x000e0|            00 00 00 00                        |    ....        |    pointer_to_symbol_table: 0x0 0xe4-0xe7.7 (4)
0x000e0|                        00 00 00 00            |        ....    |    number_of_symbols: 0 0xe8-0xeb.7 (4)
0x000e0|                                    e0 00      |            ..  |    size_of_optional_header: 224 0xec-0xed.7 (2)
       |                                               |                |    characteristics{}: 0xee-0xef.7 (2)
0x000e0|                                          02   |              . |      bytes_reversed_hi: false 0xee-0xee (0.1)
0x000e0|                                          02   |              . |      up_system_only: false 0xee.1-0xee.1 (0.1)
0x000e0|                                          02   |              . |      dll: false 0xee.2-0xee.2 (0.1)
0x000e0|                                          02   |              . |      system: false 0xee.3-0xee.3 (0.1)
0x000e0|                                          02   |              . |      net_run_from_swap: false 0xee.4-0xee.4 (0.1)
0x000e0|                                          02   |              . |      removable_run_from_swap: false 0xee.5-0xee.5 (0.1)
0x000e0|                                          02   |              . |      debug_stripped: true 0xee.6-0xee.6 (0.1)
0x000e0|                                          02   |              . |      32bit_machine: false 0xee.7-0xee.7 (0.1)
0x000e0|                                             00|               .|      bytes_reversed_lo: false 0xef-0xef (0.1)
0x000e0|                                             00|               .|      reserved: false 0xef.1-0xef.1 (0.1)
0x000e0|                                             00|               .|      large_address_aware: false 0xef.2-0xef.2 (0.1)
0x000e0|                                             00|               .|      aggressive_ws_trim: false 0xef.3-0xef.3 (0.1)
0x000e0|                                             00|               .|      local_syms_stripped: false 0xef.4-0xef.4 (0.1)
0x000e0|                                             00|               .|      line_nums_stripped: false 0xef.5-0xef.5 (0.1)
0x000e0|                                             00|               .|      executable_image: false 0xef.6-0xef.6 (0.1)
0x000e0|                                             00|               .|      relocs_stripped: false 0xef.7-0xef.7 (0.1)
       |                                               |                |    optional_header{}: 0xf0-0x1cf.7 (224)
0x000f0|0b 01                                          |..              |      format: "pe32" (0x10b) 0xf0-0xf1.7 (2)
0x000f0|      09                                       |  .             |      major_linker_version: 9 0xf2-0xf2.7 (1)
0x000f0|         00                                    |   .            |      minor_linker_version: 0 0xf3-0xf3.7 (1)
0x000f0|            00 2a 02 00                        |    .*..        |      size_of_code: 141824 0xf4-0xf7.7 (4)
0x000f0|                        00 6c 02 00            |        .l..    |      size_of_initialized_data: 158720 0xf8-0xfb.7 (4)
0x000f0|                                    00 00 00 00|            ....|      size_of_uninitialized_data: 0 0xfc-0xff.7 (4)
0x00100|dc 60 00 00                                    |.`..            |      address_of_entry_point: 0x60dc 0x100-0x103.7 (4)
0x00100|            00 10 00 00                        |    ....        |      base_of_code: 0x1000 0x104-0x107.7 (4)
0x00100|                        00 20 02 00            |        . ..    |      base_of_data: 0x22000 0x108-0x10b.7 (4)
0x00100|                                    00 00 d0 4a|            ...J|      image_base: 0x4ad00000 0x10c-0x10f.7 (4)
0x00110|00 10 00 00                                    |....            |      section_alignment: 4096 0x110-0x113.7 (4)
0x00110|            00 02 00 00                        |    ....        |      file_alignment: 512 0x114-0x117.7 (4)
0x00110|                        06 00                  |        ..      |      major_os_version: 6 0x118-0x119.7 (2)
0x00110|                              01 00            |          ..    |      minor_os_version: 1 0x11a-0x11b.7 (2)
0x00110|                                    06 00      |            ..  |      major_image_version: 6 0x11c-0x11d.7 (2)
0x00110|                                          01 00|              ..|      minor_image_version: 1 0x11e-0x11f.7 (2)
0x00120|06 00                                          |..              |      major_subsystem_version: 6 0x120-0x121.7 (2)
0x00120|      01 00                                    |  ..            |      minor_subsystem_version: 1 0x122-0x123.7 (2)
0x00120|            00 00 00 00                        |    ....        |      win32_version: 0 0x124-0x127.7 (4)
0x00120|                        00 c0 04 00            |        ....    |      size_of_image: 311296 0x128-0x12b.7 (4)
0x00120|                                    00 04 00 00|            ....|      size_of_headers: 1024 0x12c-0x12f.7 (4)
0x00130|8f b1 04 00                                    |....            |      chunk_sum: 0x4b18f 0x130-0x133.7 (4)
0x00130|            03 00                              |    ..          |      subsystem: "windows_cui" (3) (The Windows character subsystem) 0x134-0x135.7 (2)
       |                                               |                |      dll_characteristics{}: 0x136-0x137.7 (2)
0x00130|                  00                           |      .         |        force_integrity: false 0x136-0x136 (0.1)
0x00130|                  00                           |      .         |        dynamic_base: false 0x136.1-0x136.1 (0.1)
0x00130|                  00                           |      .         |        high_entropy_va: false 0x136.2-0x136.2 (0.1)
0x00130|                  00                           |      .         |        reserved0: false 0x136.3-0x136.3 (0.1)
0x00130|                  00                           |      .         |        reserved1: false 0x136.4-0x136.4 (0.1)
0x00130|                  00                           |      .         |        reserved2: false 0x136.5-0x136.5 (0.1)
0x00130|                  00                           |      .         |        reserved3: false 0x136.6-0x136.6 (0.1)
0x00130|                  00                           |      .         |        reserved4: false 0x136.7-0x136.7 (0.1)
0x00130|                     81                        |       .        |        terminal_server_aware: true 0x137-0x137 (0.1)
0x00130|                     81                        |       .        |        guard_cf: false 0x137.1-0x137.1 (0.1)
0x00130|                     81                        |       .        |        wdm_driver: false 0x137.2-0x137.2 (0.1)
0x00130|                     81                        |       .        |        appcontainer: false 0x137.3-0x137.3 (0.1)
0x00130|                     81                        |       .        |        no_bind: false 0x137.4-0x137.4 (0.1)
0x00130|                     81                        |       .        |        no_seh: false 0x137.5-0x137.5 (0.1)
0x00130|                     81                        |       .        |        no_isolation: false 0x137.6-0x137.6 (0.1)
0x00130|                     81                        |       .        |        nx_compat: true 0x137.7-0x137.7 (0.1)
0x00130|                        00 00 10 00            |        ....    |      size_of_track_reserve: 1048576 0x138-0x13b.7 (4)
0x00130|                                    00 d0 0f 00|            ....|      size_of_stack_commit: 1036288 0x13c-0x13f.7 (4)
0x00140|00 00 10 00                                    |....            |      size_of_heap_reserve: 1048576 0x140-0x143.7 (4)
0x00140|            00 10 00 00                        |    ....        |      size_of_heap_commit: 4096 0x144-0x147.7 (4)
0x00140|                        00 00 00 00            |        ....    |      loader_flags: 0 0x148-0x14b.7 (4)
0x00140|                                    10 00 00 00|            ....|      number_of_rva_and_sizes: 16 0x14c-0x14f.7 (4)
0x00150|00 00 00 00                                    |....            |      export_table_address: 0x0 0x150-0x153.7 (4)
0x00150|            00 00 00 00                        |    ....        |      export_table_size: 0 0x154-0x157.7 (4)
0x00150|                        e0 25 02 00            |        .%..    |      import_table_address: 0x225e0 0x158-0x15b.7 (4)
0x00150|                                    64 00 00 00|            d...|      import_table_size: 100 0x15c-0x15f.7 (4)
0x00160|00 10 04 00                                    |....            |      resource_table_address: 0x41000 0x160-0x163.7 (4)
0x00160|            48 84 00 00                        |    H...        |      resource_table_size: 33864 0x164-0x167.7 (4)
0x00160|                        00 00 00 00            |        ....    |      exception_table_address: 0x0 0x168-0x16b.7 (4)
0x00160|                                    00 00 00 00|            ....|      exception_table_size: 0 0x16c-0x16f.7 (4)
0x00170|00 00 00 00                                    |....            |      certificate_table_address: 0x0 0x170-0x173.7 (4)
0x00170|            00 00 00 00                        |    ....        |      certificate_table_size: 0 0x174-0x177.7 (4)
0x00170|                        00 a0 04 00            |        ....    |      base_relocation_table_address: 0x4a000 0x178-0x17b.7 (4)
0x00170|                                    1c 1b 00 00|            ....|      base_relocation_table_size: 6940 0x17c-0x17f.7 (4)
0x00180|68 39 02 00                                    |h9..            |      debug_address: 0x23968 0x180-0x183.7 (4)
0x00180|            38 00 00 00                        |    8...        |      debug_size: 56 0x184-0x187.7 (4)
0x00180|                        00 00 00 00 00 00 00 00|        ........|      architecture: 0 0x188-0x18f.7 (8)
0x00190|00 00 00 00 00 00 00 00                        |........        |      global_ptr: 0x0 0x190-0x197.7 (8)
0x00190|                        00 00 00 00            |        ....    |      tls_table_address: 0x0 0x198-0x19b.7 (4)
0x00190|                                    00 00 00 00|            ....|      tls_table_size: 0 0x19c-0x19f.7 (4)
0x001a0|90 bb 01 00                                    |....            |      load_config_table_address: 0x1bb90 0x1a0-0x1a3.7 (4)
0x001a0|            40 00 00 00                        |    @...        |      load_config_table_size: 64 0x1a4-0x1a7.7 (4)
0x001a0|                        70 02 00 00            |        p...    |      bound_import_address: 0x270 0x1a8-0x1ab.7 (4)
0x001a0|                                    94 00 00 00|            ....|      bound_import_size: 148 0x1ac-0x1af.7 (4)
0x001b0|00 10 00 00                                    |....            |      iat_address: 0x1000 0x1b0-0x1b3.7 (4)
0x001b0|            98 03 00 00                        |    ....        |      iat_size: 920 0x1b4-0x1b7.7 (4)
0x001b0|                        fc 22 02 00            |        ."..    |      delay_import_descriptor_address: 0x222fc 0x1b8-0x1bb.7 (4)
0x001b0|                                    a0 00 00 00|            ....|      delay_import_descriptor_size: 160 0x1bc-0x1bf.7 (4)
0x001c0|00 00 00 00                                    |....            |      clr_runtime_header_address: 0x0 0x1c0-0x1c3.7 (4)
0x001c0|            00 00 00 00                        |    ....        |      clr_runtime_header_size: 0 0x1c4-0x1c7.7 (4)
0x001c0|                        00 00 00 00 00 00 00 00|        ........|      reserved: 0 0x1c8-0x1cf.7 (8)
       |                                               |                |      unknown: raw bits 0x1d0-NA (0)
       |                                               |                |    sections[0:4]: 0x1d0-0x499ff.7 (301104)
       |                                               |                |      [0]{}: section 0x1d0-0x22dff.7 (142384)
0x001d0|2e 74 65 78 74 00 00 00                        |.text...        |        name: ".text" 0x1d0-0x1d7.7 (8)
0x001d0|                        c4 29 02 00            |        .)..    |        virtual_size: 141764 0x1d8-0x1db.7 (4)
0x001d0|                                    00 10 00 00|            ....|        virtual_address: 0x1000 0x1dc-0x1df.7 (4)
0x001e0|00 2a 02 00                                    |.*..            |        size_of_raw_data: 141824 0x1e0-0x1e3.7 (4)
0x001e0|            00 04 00 00                        |    ....        |        pointer_to_raw_data: 0x400 0x1e4-0x1e7.7 (4)
0x001e0|                        00 00 00 00            |        ....    |        pointer_to_relocations: 0x0 0x1e8-0x1eb.7 (4)
0x001e0|                                    00 00 00 00|            ....|        pointer_to_line_numbers: 0x0 0x1ec-0x1ef.7 (4)
0x001f0|00 00                                          |..              |        number_of_relocations: 0 0x1f0-0x1f1.7 (2)
0x001f0|      00 00                                    |  ..            |        number_of_line_numbers: 0 0x1f2-0x1f3.7 (2)
       |                                               |                |        characteristics{}: 0x1f4-0x1f7.7 (4)
0x001f0|            20                                 |                |          cnt_uninitialized_data: false 0x1f4-0x1f4 (0.1)
0x001f0|            20                                 |                |          cnt_initialized_data: false 0x1f4.1-0x1f4.1 (0.1)
0x001f0|            20                                 |                |          cnt_code: true 0x1f4.2-0x1f4.2 (0.1)
0x001f0|            20                                 |                |          reserved: false 0x1f4.3-0x1f4.3 (0.1)
0x001f0|            20                                 |                |          type_no_pad: false 0x1f4.4-0x1f4.4 (0.1)
0x001f0|            20                                 |                |          reserved0: false 0x1f4.5-0x1f4.5 (0.1)
0x001f0|            20                                 |                |          reserved1: false 0x1f4.6-0x1f4.6 (0.1)
0x001f0|            20                                 |                |          reserved2: false 0x1f4.7-0x1f4.7 (0.1)
0x001f0|               00                              |     .          |          gprel: false 0x1f5-0x1f5 (0.1)
0x001f0|               00                              |     .          |          unknown0: false 0x1f5.1-0x1f5.1 (0.1)
0x001f0|               00                              |     .          |          unknown1: false 0x1f5.2-0x1f5.2 (0.1)
0x001f0|               00                              |     .          |          lnk_comdat: false 0x1f5.3-0x1f5.3 (0.1)
0x001f0|               00                              |     .          |          lnk_remove: false 0x1f5.4-0x1f5.4 (0.1)
0x001f0|               00                              |     .          |          reserved3: false 0x1f5.5-0x1f5.5 (0.1)
0x001f0|               00                              |     .          |          lnk_info: false 0x1f5.6-0x1f5.6 (0.1)
0x001f0|               00                              |     .          |          lnk_other: false 0x1f5.7-0x1f5.7 (0.1)
0x001f0|                  00                           |      .         |          align_128bytes: false 0x1f6-0x1f6 (0.1)
0x001f0|                  00                           |      .         |          align_8bytes: false 0x1f6.1-0x1f6.1 (0.1)
0x001f0|                  00                           |      .         |          align_2bytes: false 0x1f6.2-0x1f6.2 (0.1)
0x001f0|                  00                           |      .         |          align_1bytes: false 0x1f6.3-0x1f6.3 (0.1)
0x001f0|                  00                           |      .         |          mem_preload: false 0x1f6.4-0x1f6.4 (0.1)
0x001f0|                  00                           |      .         |          mem_locked: false 0x1f6.5-0x1f6.5 (0.1)
0x001f0|                  00                           |      .         |          mem_16bit: false 0x1f6.6-0x1f6.6 (0.1)
0x001f0|                  00                           |      .         |          mem_purgeable: false 0x1f6.7-0x1f6.7 (0.1)
0x001f0|                     60                        |       `        |          mem_write: false 0x1f7-0x1f7 (0.1)
0x001f0|                     60                        |       `        |          mem_read: true 0x1f7.1-0x1f7.1 (0.1)
0x001f0|                     60                        |       `        |          mem_execute: true 0x1f7.2-0x1f7.2 (0.1)
0x001f0|                     60                        |       `        |          mem_shared: false 0x1f7.3-0x1f7.3 (0.1)
0x001f0|                     60                        |       `        |          mem_not_paged: false 0x1f7.4-0x1f7.4 (0.1)
0x001f0|                     60                        |       `        |          mem_not_cached: false 0x1f7.5-0x1f7.5 (0.1)
0x001f0|                     60                        |       `        |          mem_discardable: false 0x1f7.6-0x1f7.6 (0.1)
0x001f0|                     60                        |       `        |          lnk_nreloc_ovfl: false 0x1f7.7-0x1f7.7 (0.1)
0x00400|aa 36 f6 6f 19 f7 fa 6f 2c c0 f5 6f 45 ff f5 6f|.6.o...o,..oE..o|        data: raw bits 0x400-0x22dff.7 (141824)
*      |until 0x22dff.7 (141824)                       |                |
       |                                               |                |      [1]{}: section 0x1f8-0x3f7ff.7 (259592)
0x001f0|                        2e 64 61 74 61 00 00 00|        .data...|        name: ".data" 0x1f8-0x1ff.7 (8)
0x00200|28 c9 01 00                                    |(...            |        virtual_size: 117032 0x200-0x203.7 (4)
0x00200|            00 40 02 00                        |    .@..        |        virtual_address: 0x24000 0x204-0x207.7 (4)
0x00200|                        00 ca 01 00            |        ....    |        size_of_raw_data: 117248 0x208-0x20b.7 (4)
0x00200|                                    00 2e 02 00|            ....|        pointer_to_raw_data: 0x22e00 0x20c-0x20f.7 (4)
0x00210|00 00 00 00                                    |....            |        pointer_to_relocations: 0x0 0x210-0x213.7 (4)
0x00210|            00 00 00 00                        |    ....        |        pointer_to_line_numbers: 0x0 0x214-0x217.7 (4)
0x00210|                        00 00                  |        ..      |        number_of_relocations: 0 0x218-0x219.7 (2)
0x00210|                              00 00            |          ..    |        number_of_line_numbers: 0 0x21a-0x21b.7 (2)
       |                                               |                |        characteristics{}: 0x21c-0x21f.7 (4)
0x00210|                                    40         |            @   |          cnt_uninitialized_data: false 0x21c-0x21c (0.1)
0x00210|                                    40         |            @   |          cnt_initialized_data: true 0x21c.1-0x21c.1 (0.1)
0x00210|                                    40         |            @   |          cnt_code: false 0x21c.2-0x21c.2 (0.1)
0x00210|                                    40         |            @   |          reserved: false 0x21c.3-0x21c.3 (0.1)
0x00210|                                    40         |            @   |          type_no_pad: false 0x21c.4-0x21c.4 (0.1)
0x00210|                                    40         |            @   |          reserved0: false 0x21c.5-0x21c.5 (0.1)
0x00210|                                    40         |            @   |          reserved1: false 0x21c.6-0x21c.6 (0.1)
0x00210|                                    40         |            @   |          reserved2: false 0x21c.7-0x21c.7 (0.1)
0x00210|                                       00      |             .  |          gprel: false 0x21d-0x21d (0.1)
0x00210|                                       00      |             .  |          unknown0: false 0x21d.1-0x21d.1 (0.1)
0x00210|                                       00      |             .  |          unknown1: false 0x21d.2-0x21d.2 (0.1)
0x00210|                                       00      |             .  |          lnk_comdat: false 0x21d.3-0x21d.3 (0.1)
0x00210|                                       00      |             .  |          lnk_remove: false 0x21d.4-0x21d.4 (0.1)
0x00210|                                       00      |             .  |          reserved3: false 0x21d.5-0x21d.5 (0.1)
0x00210|                                       00      |             .  |          lnk_info: false 0x21d.6-0x21d.6 (0.1)
0x00210|                                       00      |             .  |          lnk_other: false 0x21d.7-0x21d.7 (0.1)
0x00210|                                          00   |              . |          align_128bytes: false 0x21e-0x21e (0.1)
0x00210|                                          00   |              . |          align_8bytes: false 0x21e.1-0x21e.1 (0.1)
0x00210|                                          00   |              . |          align_2bytes: false 0x21e.2-0x21e.2 (0.1)
0x00210|                                          00   |              . |          align_1bytes: false 0x21e.3-0x21e.3 (0.1)
0x00210|                                          00   |              . |          mem_preload: false 0x21e.4-0x21e.4 (0.1)
0x00210|                                          00   |              . |          mem_locked: false 0x21e.5-0x21e.5 (0.1)
0x00210|                                          00   |              . |          mem_16bit: false 0x21e.6-0x21e.6 (0.1)
0x00210|                                          00   |              . |          mem_purgeable: false 0x21e.7-0x21e.7 (0.1)
0x00210|                                             c0|               .|          mem_write: true 0x21f-0x21f (0.1)
0x00210|                                             c0|               .|          mem_read: true 0x21f.1-0x21f.1 (0.1)
0x00210|                                             c0|               .|          mem_execute: false 0x21f.2-0x21f.2 (0.1)
0x00210|                                             c0|               .|          mem_shared: false 0x21f.3-0x21f.3 (0.1)
0x00210|                                             c0|               .|          mem_not_paged: false 0x21f.4-0x21f.4 (0.1)
0x00210|                                             c0|               .|          mem_not_cached: false 0x21f.5-0x21f.5 (0.1)
0x00210|                                             c0|               .|          mem_discardable: false 0x21f.6-0x21f.6 (0.1)
0x00210|                                             c0|               .|          lnk_nreloc_ovfl: false 0x21f.7-0x21f.7 (0.1)
0x22e00|2c 22 d2 4a 36 22 d2 4a 40 22 d2 4a d3 8a d0 4a|,".J6".J@".J...J|        data: raw bits 0x22e00-0x3f7ff.7 (117248)
*      |until 0x3f7ff.7 (117248)                       |                |
       |                                               |                |      [2]{}: section 0x220-0x47dff.7 (293856)
0x00220|2e 72 73 72 63 00 00 00                        |.rsrc...        |        name: ".rsrc" 0x220-0x227.7 (8)
0x00220|                        48 84 00 00            |        H...    |        virtual_size: 33864 0x228-0x22b.7 (4)
0x00220|                                    00 10 04 00|            ....|        virtual_address: 0x41000 0x22c-0x22f.7 (4)
0x00230|00 86 00 00                                    |....            |        size_of_raw_data: 34304 0x230-0x233.7 (4)
0x00230|            00 f8 03 00                        |    ....        |        pointer_to_raw_data: 0x3f800 0x234-0x237.7 (4)
0x00230|                        00 00 00 00            |        ....    |        pointer_to_relocations: 0x0 0x238-0x23b.7 (4)
0x00230|                                    00 00 00 00|            ....|        pointer_to_line_numbers: 0x0 0x23c-0x23f.7 (4)
0x00240|00 00                                          |..              |        number_of_relocations: 0 0x240-0x241.7 (2)
0x00240|      00 00                                    |  ..            |        number_of_line_numbers: 0 0x242-0x243.7 (2)
       |                                               |                |        characteristics{}: 0x244-0x247.7 (4)
0x00240|            40                                 |    @           |          cnt_uninitialized_data: false 0x244-0x244 (0.1)
0x00240|            40                                 |    @           |          cnt_initialized_data: true 0x244.1-0x244.1 (0.1)
0x00240|            40                                 |    @           |          cnt_code: false 0x244.2-0x244.2 (0.1)
0x00240|            40                                 |    @           |          reserved: false 0x244.3-0x244.3 (0.1)
0x00240|            40                                 |    @           |          type_no_pad: false 0x244.4-0x244.4 (0.1)
0x00240|            40                                 |    @           |          reserved0: false 0x244.5-0x244.5 (0.1)
0x00240|            40                                 |    @           |          reserved1: false 0x244.6-0x244.6 (0.1)
0x00240|            40                                 |    @           |          reserved2: false 0x244.7-0x244.7 (0.1)
0x00240|               00                              |     .          |          gprel: false 0x245-0x245 (0.1)
0x00240|               00                              |     .          |          unknown0: false 0x245.1-0x245.1 (0.1)
0x00240|               00                              |     .          |          unknown1: false 0x245.2-0x245.2 (0.1)
0x00240|               00                              |     .          |          lnk_comdat: false 0x245.3-0x245.3 (0.1)
0x00240|               00                              |     .          |          lnk_remove: false 0x245.4-0x245.4 (0.1)
0x00240|               00                              |     .          |          reserved3: false 0x245.5-0x245.5 (0.1)
0x00240|               00                              |     .          |          lnk_info: false 0x245.6-0x245.6 (0.1)
0x00240|               00                              |     .          |          lnk_other: false 0x245.7-0x245.7 (0.1)
0x00240|                  00                           |      .         |          align_128bytes: false 0x246-0x246 (0.1)
0x00240|                  00                           |      .         |          align_8bytes: false 0x246.1-0x246.1 (0.1)
0x00240|                  00                           |      .         |          align_2bytes: false 0x246.2-0x246.2 (0.1)
0x00240|                  00                           |      .         |          align_1bytes: false 0x246.3-0x246.3 (0.1)
0x00240|                  00                           |      .         |          mem_preload: false 0x246.4-0x246.4 (0.1)
0x00240|                  00                           |      .         |          mem_locked: false 0x246.5-0x246.5 (0.1)
0x00240|                  00                           |      .         |          mem_16bit: false 0x246.6-0x246.6 (0.1)
0x00240|                  00                           |      .         |          mem_purgeable: false 0x246.7-0x246.7 (0.1)
0x00240|                     40                        |       @        |          mem_write: false 0x247-0x247 (0.1)
0x00240|                     40                        |       @        |          mem_read: true 0x247.1-0x247.1 (0.1)
0x00240|                     40                        |       @        |          mem_execute: false 0x247.2-0x247.2 (0.1)
0x00240|                     40                        |       @        |          mem_shared: false 0x247.3-0x247.3 (0.1)
0x00240|                     40                        |       @        |          mem_not_paged: false 0x247.4-0x247.4 (0.1)
0x00240|                     40                        |       @        |          mem_not_cached: false 0x247.5-0x247.5 (0.1)
0x00240|                     40                        |       @        |          mem_discardable: false 0x247.6-0x247.6 (0.1)
0x00240|                     40                        |       @        |          lnk_nreloc_ovfl: false 0x247.7-0x247.7 (0.1)
0x3f800|00 00 00 00 00 00 00 00 00 00 00 00 01 00 04 00|................|        data: raw bits 0x3f800-0x47dff.7 (34304)
*      |until 0x47dff.7 (34304)                        |                |
       |                                               |                |      [3]{}: section 0x248-0x499ff.7 (300984)
0x00240|                        2e 72 65 6c 6f 63 00 00|        .reloc..|        name: ".reloc" 0x248-0x24f.7 (8)
0x00250|1c 1b 00 00                                    |....            |        virtual_size: 6940 0x250-0x253.7 (4)
0x00250|            00 a0 04 00                        |    ....        |        virtual_address: 0x4a000 0x254-0x257.7 (4)
0x00250|                        00 1c 00 00            |        ....    |        size_of_raw_data: 7168 0x258-0x25b.7 (4)
0x00250|                                    00 7e 04 00|            .~..|        pointer_to_raw_data: 0x47e00 0x25c-0x25f.7 (4)
0x00260|00 00 00 00                                    |....            |        pointer_to_relocations: 0x0 0x260-0x263.7 (4)
0x00260|            00 00 00 00                        |    ....        |        pointer_to_line_numbers: 0x0 0x264-0x267.7 (4)
0x00260|                        00 00                  |        ..      |        number_of_relocations: 0 0x268-0x269.7 (2)
0x00260|                              00 00            |          ..    |        number_of_line_numbers: 0 0x26a-0x26b.7 (2)
       |                                               |                |        characteristics{}: 0x26c-0x26f.7 (4)
0x00260|                                    40         |            @   |          cnt_uninitialized_data: false 0x26c-0x26c (0.1)
0x00260|                                    40         |            @   |          cnt_initialized_data: true 0x26c.1-0x26c.1 (0.1)
0x00260|                                    40         |            @   |          cnt_code: false 0x26c.2-0x26c.2 (0.1)
0x00260|                                    40         |            @   |          reserved: false 0x26c.3-0x26c.3 (0.1)
0x00260|                                    40         |            @   |          type_no_pad: false 0x26c.4-0x26c.4 (0.1)
0x00260|                                    40         |            @   |          reserved0: false 0x26c.5-0x26c.5 (0.1)
0x00260|                                    40         |            @   |          reserved1: false 0x26c.6-0x26c.6 (0.1)
0x00260|                                    40         |            @   |          reserved2: false 0x26c.7-0x26c.7 (0.1)
0x00260|                                       00      |             .  |          gprel: false 0x26d-0x26d (0.1)
0x00260|                                       00      |             .  |          unknown0: false 0x26d.1-0x26d.1 (0.1)
0x00260|                                       00      |             .  |          unknown1: false 0x26d.2-0x26d.2 (0.1)
0x00260|                                       00      |             .  |          lnk_comdat: false 0x26d.3-0x26d.3 (0.1)
0x00260|                                       00      |             .  |          lnk_remove: false 0x26d.4-0x26d.4 (0.1)
0x00260|                                       00      |             .  |          reserved3: false 0x26d.5-0x26d.5 (0.1)
0x00260|                                       00      |             .  |          lnk_info: false 0x26d.6-0x26d.6 (0.1)
0x00260|                                       00      |             .  |          lnk_other: false 0x26d.7-0x26d.7 (0.1)
0x00260|                                          00   |              . |          align_128bytes: false 0x26e-0x26e (0.1)
0x00260|                                          00   |              . |          align_8bytes: false 0x26e.1-0x26e.1 (0.1)
0x00260|                                          00   |              . |          align_2bytes: false 0x26e.2-0x26e.2 (0.1)
0x00260|                                          00   |              . |          align_1bytes: false 0x26e.3-0x26e.3 (0.1)
0x00260|                                          00   |              . |          mem_preload: false 0x26e.4-0x26e.4 (0.1)
0x00260|                                          00   |              . |          mem_locked: false 0x26e.5-0x26e.5 (0.1)
0x00260|                                          00   |              . |          mem_16bit: false 0x26e.6-0x26e.6 (0.1)
0x00260|                                          00   |              . |          mem_purgeable: false 0x26e.7-0x26e.7 (0.1)
0x00260|                                             42|               B|          mem_write: false 0x26f-0x26f (0.1)
0x00260|                                             42|               B|          mem_read: true 0x26f.1-0x26f.1 (0.1)
0x00260|                                             42|               B|          mem_execute: false 0x26f.2-0x26f.2 (0.1)
0x00260|                                             42|               B|          mem_shared: false 0x26f.3-0x26f.3 (0.1)
0x00260|                                             42|               B|          mem_not_paged: false 0x26f.4-0x26f.4 (0.1)
0x00260|                                             42|               B|          mem_not_cached: false 0x26f.5-0x26f.5 (0.1)
0x00260|                                             42|               B|          mem_discardable: true 0x26f.6-0x26f.6 (0.1)
0x00260|                                             42|               B|          lnk_nreloc_ovfl: false 0x26f.7-0x26f.7 (0.1)
0x47e00|00 10 00 00 f8 00 00 00 9f 33 dd 33 e7 33 0e 34|.........3.3.3.4|        data: raw bits 0x47e00-0x499ff.7 (7168)
*      |until 0x499ff.7 (end) (7168)                   |                |
0x00270|6f da 5b 4a 38 00 00 00 db da 5b 4a 43 00 00 00|o.[J8.....[JC...|  gap0: raw bits 0x270-0x3ff.7 (400)
*      |until 0x3ff.7 (400)                            |                |
