$ fq dv pe-Windows-ARMv7-Thumb2LE-HelloWorld
      |00 01 02 03 04 05 06 07 08 09 0a 0b 0c 0d 0e 0f|0123456789abcdef|.{}: pe-Windows-ARMv7-Thumb2LE-HelloWorld (pe) 0x0-0x19ff.7 (6656)
      |00 01 02 03 04 05 06 07 08 09 0a 0b 0c 0d 0e 0f|0123456789abcdef|  ms_dos_stub{}: (msdos_stub) 0x0-0xf7.7 (248)
0x0000|4d 5a                                          |MZ              |    e_magic: 0x5a4d (valid) 0x0-0x1.7 (2)
0x0000|      90 00                                    |  ..            |    e_cblp: 144 (Bytes on last page of file) 0x2-0x3.7 (2)
0x0000|            03 00                              |    ..          |    e_cp: 3 (Pages in file) 0x4-0x5.7 (2)
0x0000|                  00 00                        |      ..        |    e_crlc: 0 (Relocations) 0x6-0x7.7 (2)
0x0000|                        04 00                  |        ..      |    e_cparhdr: 4 (Size of header in paragraphs) 0x8-0x9.7 (2)
0x0000|                              00 00            |          ..    |    e_minalloc: 0 (Minimum extra paragraphs needed) 0xa-0xb.7 (2)
0x0000|                                    ff ff      |            ..  |    e_maxalloc: 65535 (Maximum extra paragraphs needed) 0xc-0xd.7 (2)
0x0000|                                          00 00|              ..|    e_ss: 0 (Initial (relative) SS value) 0xe-0xf.7 (2)
0x0010|b8 00                                          |..              |    e_sp: 184 (Initial SP value) 0x10-0x11.7 (2)
0x0010|      00 00                                    |  ..            |    e_csum: 0 (Checksum) 0x12-0x13.7 (2)
0x0010|            00 00                              |    ..          |    e_ip: 0 (Initial IP value) 0x14-0x15.7 (2)
0x0010|                  00 00                        |      ..        |    e_cs: 0 (Initial (relative) CS value) 0x16-0x17.7 (2)
0x0010|                        40 00                  |        @.      |    e_lfarlc: 64 (File address of relocation table) 0x18-0x19.7 (2)
0x0010|                              00 00            |          ..    |    e_ovno: 0 (Overlay number) 0x1a-0x1b.7 (2)
0x0010|                                    00 00 00 00|            ....|    e_res: raw bits (Reserved words) 0x1c-0x23.7 (8)
0x0020|00 00 00 00                                    |....            |
0x0020|            00 00                              |    ..          |    e_oemid: 0 (OEM identifier (for e_oeminfo)) 0x24-0x25.7 (2)
0x0020|                  00 00                        |      ..        |    e_oeminfo: 0 (OEM information; e_oemid specific) 0x26-0x27.7 (2)
0x0020|                        00 00 00 00 00 00 00 00|        ........|    e_res2: raw bits (Reserved words) 0x28-0x3b.7 (20)
0x0030|00 00 00 00 00 00 00 00 00 00 00 00            |............    |
0x0030|                                    f8 00 00 00|            ....|    e_lfanew: 248 (File address of new exe header) 0x3c-0x3f.7 (4)
0x0040|0e 1f ba 0e 00 b4 09 cd 21 b8 01 4c cd 21 54 68|........!..L.!Th|    stub: raw bits (Sub program) 0x40-0x7f.7 (64)
*     |until 0x7f.7 (64)                              |                |
0x0080|56 18 6d ac 12 79 03 ff 12 79 03 ff 12 79 03 ff|V.m..y...y...y..|    padding: raw bits 0x80-0xf7.7 (120)
*     |until 0xf7.7 (120)                             |                |
      |00 01 02 03 04 05 06 07 08 09 0a 0b 0c 0d 0e 0f|0123456789abcdef|  coff{}: (coff) 0xf8-0x19ff.7 (6408)
0x00f0|                        50 45 00 00            |        PE..    |    signature: raw bits (valid) 0xf8-0xfb.7 (4)
0x00f0|                                    c4 01      |            ..  |    machine: "armnt" (0x1c4) (ARM Thumb-2 little endian) 0xfc-0xfd.7 (2)
0x00f0|                                          06 00|              ..|    number_of_sections: 6 0xfe-0xff.7 (2)
0x0100|0d aa 6f 53                                    |..oS            |    time_date_stamp: 1399826957 (2014-05-11T16:49:17Z) 0x100-0x103.7 (4)
0x0100|            00 00 00 00                        |    ....        |    pointer_to_symbol_table: 0x0 0x104-0x107.7 (4)
0x0100|                        00 00 00 00            |        ....    |    number_of_symbols: 0 0x108-0x10b.7 (4)
0x0100|                                    e0 00      |            ..  |    size_of_optional_header: 224 0x10c-0x10d.7 (2)
      |                                               |                |    characteristics{}: 0x10e-0x10f.7 (2)
0x0100|                                          22   |              " |      bytes_reversed_hi: false 0x10e-0x10e (0.1)
0x0100|                                          22   |              " |      up_system_only: false 0x10e.1-0x10e.1 (0.1)
0x0100|                                          22   |              " |      dll: true 0x10e.2-0x10e.2 (0.1)
0x0100|                                          22   |              " |      system: false 0x10e.3-0x10e.3 (0.1)
0x0100|                                          22   |              " |      net_run_from_swap: false 0x10e.4-0x10e.4 (0.1)
0x0100|                                          22   |              " |      removable_run_from_swap: false 0x10e.5-0x10e.5 (0.1)
0x0100|                                          22   |              " |      debug_stripped: true 0x10e.6-0x10e.6 (0.1)
0x0100|                                          22   |              " |      32bit_machine: false 0x10e.7-0x10e.7 (0.1)
0x0100|                                             01|               .|      bytes_reversed_lo: false 0x10f-0x10f (0.1)
0x0100|                                             01|               .|      reserved: false 0x10f.1-0x10f.1 (0.1)
0x0100|                                             01|               .|      large_address_aware: false 0x10f.2-0x10f.2 (0.1)
0x0100|                                             01|               .|      aggressive_ws_trim: false 0x10f.3-0x10f.3 (0.1)
0x0100|                                             01|               .|      local_syms_stripped: false 0x10f.4-0x10f.4 (0.1)
0x0100|                                             01|               .|      line_nums_stripped: false 0x10f.5-0x10f.5 (0.1)
0x0100|                                             01|               .|      executable_image: false 0x10f.6-0x10f.6 (0.1)
0x0100|                                             01|               .|      relocs_stripped: true 0x10f.7-0x10f.7 (0.1)
      |                                               |                |    optional_header{}: 0x110-0x1ef.7 (224)
0x0110|0b 01                                          |..              |      format: "pe32" (0x10b) 0x110-0x111.7 (2)
0x0110|      0b                                       |  .             |      major_linker_version: 11 0x112-0x112.7 (1)
0x0110|         00                                    |   .            |      minor_linker_version: 0 0x113-0x113.7 (1)
0x0110|            00 08 00 00                        |    ....        |      size_of_code: 2048 0x114-0x117.7 (4)
0x0110|                        00 10 00 00            |        ....    |      size_of_initialized_data: 4096 0x118-0x11b.7 (4)
0x0110|                                    00 00 00 00|            ....|      size_of_uninitialized_data: 0 0x11c-0x11f.7 (4)
0x0120|e5 12 00 00                                    |....            |      address_of_entry_point: 0x12e5 0x120-0x123.7 (4)
0x0120|            00 10 00 00                        |    ....        |      base_of_code: 0x1000 0x124-0x127.7 (4)
0x0120|                        00 20 00 00            |        . ..    |      base_of_data: 0x2000 0x128-0x12b.7 (4)
0x0120|                                    00 00 40 00|            ..@.|      image_base: 0x400000 0x12c-0x12f.7 (4)
0x0130|00 10 00 00                                    |....            |      section_alignment: 4096 0x130-0x133.7 (4)
0x0130|            00 02 00 00                        |    ....        |      file_alignment: 512 0x134-0x137.7 (4)
0x0130|                        06 00                  |        ..      |      major_os_version: 6 0x138-0x139.7 (2)
0x0130|                              02 00            |          ..    |      minor_os_version: 2 0x13a-0x13b.7 (2)
0x0130|                                    00 00      |            ..  |      major_image_version: 0 0x13c-0x13d.7 (2)
0x0130|                                          00 00|              ..|      minor_image_version: 0 0x13e-0x13f.7 (2)
0x0140|06 00                                          |..              |      major_subsystem_version: 6 0x140-0x141.7 (2)
0x0140|      02 00                                    |  ..            |      minor_subsystem_version: 2 0x142-0x143.7 (2)
0x0140|            00 00 00 00                        |    ....        |      win32_version: 0 0x144-0x147.7 (4)
0x0140|                        00 70 00 00            |        .p..    |      size_of_image: 28672 0x148-0x14b.7 (4)
0x0140|                                    00 04 00 00|            ....|      size_of_headers: 1024 0x14c-0x14f.7 (4)
0x0150|00 00 00 00                                    |....            |      chunk_sum: 0x0 0x150-0x153.7 (4)
0x0150|            03 00                              |    ..          |      subsystem: "windows_cui" (3) (The Windows character subsystem) 0x154-0x155.7 (2)
      |                                               |                |      dll_characteristics{}: 0x156-0x157.7 (2)
0x0150|                  40                           |      @         |        force_integrity: false 0x156-0x156 (0.1)
0x0150|                  40                           |      @         |        dynamic_base: true 0x156.1-0x156.1 (0.1)
0x0150|                  40                           |      @         |        high_entropy_va: false 0x156.2-0x156.2 (0.1)
0x0150|                  40                           |      @         |        reserved0: false 0x156.3-0x156.3 (0.1)
0x0150|                  40                           |      @         |        reserved1: false 0x156.4-0x156.4 (0.1)
0x0150|                  40                           |      @         |        reserved2: false 0x156.5-0x156.5 (0.1)
0x0150|                  40                           |      @         |        reserved3: false 0x156.6-0x156.6 (0.1)
0x0150|                  40                           |      @         |        reserved4: false 0x156.7-0x156.7 (0.1)
0x0150|                     81                        |       .        |        terminal_server_aware: true 0x157-0x157 (0.1)
0x0150|                     81                        |       .        |        guard_cf: false 0x157.1-0x157.1 (0.1)
0x0150|                     81                        |       .        |        wdm_driver: false 0x157.2-0x157.2 (0.1)
0x0150|                     81                        |       .        |        appcontainer: false 0x157.3-0x157.3 (0.1)
0x0150|                     81                        |       .        |        no_bind: false 0x157.4-0x157.4 (0.1)
0x0150|                     81                        |       .        |        no_seh: false 0x157.5-0x157.5 (0.1)
0x0150|                     81                        |       .        |        no_isolation: false 0x157.6-0x157.6 (0.1)
0x0150|                     81                        |       .        |        nx_compat: true 0x157.7-0x157.7 (0.1)
0x0150|                        00 00 10 00            |        ....    |      size_of_track_reserve: 1048576 0x158-0x15b.7 (4)
0x0150|                                    00 10 00 00|            ....|      size_of_stack_commit: 4096 0x15c-0x15f.7 (4)
0x0160|00 00 10 00                                    |....            |      size_of_heap_reserve: 1048576 0x160-0x163.7 (4)
0x0160|            00 10 00 00                        |    ....        |      size_of_heap_commit: 4096 0x164-0x167.7 (4)
0x0160|                        00 00 00 00            |        ....    |      loader_flags: 0 0x168-0x16b.7 (4)
0x0160|                                    10 00 00 00|            ....|      number_of_rva_and_sizes: 16 0x16c-0x16f.7 (4)
0x0170|00 00 00 00                                    |....            |      export_table_address: 0x0 0x170-0x173.7 (4)
0x0170|            00 00 00 00                        |    ....        |      export_table_size: 0 0x174-0x177.7 (4)
0x0170|                        f4 21 00 00            |        .!..    |      import_table_address: 0x21f4 0x178-0x17b.7 (4)
0x0170|                                    3c 00 00 00|            <...|      import_table_size: 60 0x17c-0x17f.7 (4)
0x0180|00 50 00 00                                    |.P..            |      resource_table_address: 0x5000 0x180-0x183.7 (4)
0x0180|            e0 01 00 00                        |    ....        |      resource_table_size: 480 0x184-0x187.7 (4)
0x0180|                        00 40 00 00            |        .@..    |      exception_table_address: 0x4000 0x188-0x18b.7 (4)
0x0180|                                    90 00 00 00|            ....|      exception_table_size: 144 0x18c-0x18f.7 (4)
0x0190|00 00 00 00                                    |....            |      certificate_table_address: 0x0 0x190-0x193.7 (4)
0x0190|            00 00 00 00                        |    ....        |      certificate_table_size: 0 0x194-0x197.7 (4)
0x0190|                        00 60 00 00            |        .`..    |      base_relocation_table_address: 0x6000 0x198-0x19b.7 (4)
0x0190|                                    a8 00 00 00|            ....|      base_relocation_table_size: 168 0x19c-0x19f.7 (4)
0x01a0|a0 20 00 00                                    |. ..            |      debug_address: 0x20a0 0x1a0-0x1a3.7 (4)
0x01a0|            38 00 00 00                        |    8...        |      debug_size: 56 0x1a4-0x1a7.7 (4)
0x01a0|                        00 00 00 00 00 00 00 00|        ........|      architecture: 0 0x1a8-0x1af.7 (8)
0x01b0|00 00 00 00 00 00 00 00                        |........        |      global_ptr: 0x0 0x1b0-0x1b7.7 (8)
0x01b0|                        00 00 00 00            |        ....    |      tls_table_address: 0x0 0x1b8-0x1bb.7 (4)
0x01b0|                                    00 00 00 00|            ....|      tls_table_size: 0 0x1bc-0x1bf.7 (4)
0x01c0|00 00 00 00                                    |....            |      load_config_table_address: 0x0 0x1c0-0x1c3.7 (4)
0x01c0|            00 00 00 00                        |    ....        |      load_config_table_size: 0 0x1c4-0x1c7.7 (4)
0x01c0|                        00 00 00 00            |        ....    |      bound_import_address: 0x0 0x1c8-0x1cb.7 (4)
0x01c0|                                    00 00 00 00|            ....|      bound_import_size: 0 0x1cc-0x1cf.7 (4)
0x01d0|00 20 00 00                                    |. ..            |      iat_address: 0x2000 0x1d0-0x1d3.7 (4)
0x01d0|            80 00 00 00                        |    ....        |      iat_size: 128 0x1d4-0x1d7.7 (4)
0x01d0|                        00 00 00 00            |        ....    |      delay_import_descriptor_address: 0x0 0x1d8-0x1db.7 (4)
0x01d0|                                    00 00 00 00|            ....|      delay_import_descriptor_size: 0 0x1dc-0x1df.7 (4)
0x01e0|00 00 00 00                                    |....            |      clr_runtime_header_address: 0x0 0x1e0-0x1e3.7 (4)
0x01e0|            00 00 00 00                        |    ....        |      clr_runtime_header_size: 0 0x1e4-0x1e7.7 (4)
0x01e0|                        00 00 00 00 00 00 00 00|        ........|      reserved: 0 0x1e8-0x1ef.7 (8)
      |                                               |                |      unknown: raw bits 0x1f0-NA (0)
      |                                               |                |    sections[0:6]: 0x1f0-0x19ff.7 (6160)
      |                                               |                |      [0]{}: section 0x1f0-0xbff.7 (2576)
0x01f0|2e 74 65 78 74 00 00 00                        |.text...        |        name: ".text" 0x1f0-0x1f7.7 (8)
0x01f0|                        94 06 00 00            |        ....    |        virtual_size: 1684 0x1f8-0x1fb.7 (4)
0x01f0|                                    00 10 00 00|            ....|        virtual_address: 0x1000 0x1fc-0x1ff.7 (4)
0x0200|00 08 00 00                                    |....            |        size_of_raw_data: 2048 0x200-0x203.7 (4)
0x0200|            00 04 00 00                        |    ....        |        pointer_to_raw_data: 0x400 0x204-0x207.7 (4)
0x0200|                        00 00 00 00            |        ....    |        pointer_to_relocations: 0x0 0x208-0x20b.7 (4)
0x0200|                                    00 00 00 00|            ....|        pointer_to_line_numbers: 0x0 0x20c-0x20f.7 (4)
0x0210|00 00                                          |..              |        number_of_relocations: 0 0x210-0x211.7 (2)
0x0210|      00 00                                    |  ..            |        number_of_line_numbers: 0 0x212-0x213.7 (2)
      |                                               |                |        characteristics{}: 0x214-0x217.7 (4)
0x0210|            20                                 |                |          cnt_uninitialized_data: false 0x214-0x214 (0.1)
0x0210|            20                                 |                |          cnt_initialized_data: false 0x214.1-0x214.1 (0.1)
0x0210|            20                                 |                |          cnt_code: true 0x214.2-0x214.2 (0.1)
0x0210|            20                                 |                |          reserved: false 0x214.3-0x214.3 (0.1)
0x0210|            20                                 |                |          type_no_pad: false 0x214.4-0x214.4 (0.1)
0x0210|            20                                 |                |          reserved0: false 0x214.5-0x214.5 (0.1)
0x0210|            20                                 |                |          reserved1: false 0x214.6-0x214.6 (0.1)
0x0210|            20                                 |                |          reserved2: false 0x214.7-0x214.7 (0.1)
0x0210|               00                              |     .          |          gprel: false 0x215-0x215 (0.1)
0x0210|               00                              |     .          |          unknown0: false 0x215.1-0x215.1 (0.1)
0x0210|               00                              |     .          |          unknown1: false 0x215.2-0x215.2 (0.1)
0x0210|               00                              |     .          |          lnk_comdat: false 0x215.3-0x215.3 (0.1)
0x0210|               00                              |     .          |          lnk_remove: false 0x215.4-0x215.4 (0.1)
0x0210|               00                              |     .          |          reserved3: false 0x215.5-0x215.5 (0.1)
0x0210|               00                              |     .          |          lnk_info: false 0x215.6-0x215.6 (0.1)
0x0210|               00                              |     .          |          lnk_other: false 0x215.7-0x215.7 (0.1)
0x0210|                  00                           |      .         |          align_128bytes: false 0x216-0x216 (0.1)
0x0210|                  00                           |      .         |          align_8bytes: false 0x216.1-0x216.1 (0.1)
0x0210|                  00                           |      .         |          align_2bytes: false 0x216.2-0x216.2 (0.1)
0x0210|                  00                           |      .         |          align_1bytes: false 0x216.3-0x216.3 (0.1)
0x0210|                  00                           |      .         |          mem_preload: false 0x216.4-0x216.4 (0.1)
0x0210|                  00                           |      .         |          mem_locked: false 0x216.5-0x216.5 (0.1)
0x0210|                  00                           |      .         |          mem_16bit: false 0x216.6-0x216.6 (0.1)
0x0210|                  00                           |      .         |          mem_purgeable: false 0x216.7-0x216.7 (0.1)
0x0210|                     60                        |       `        |          mem_write: false 0x217-0x217 (0.1)
0x0210|                     60                        |       `        |          mem_read: true 0x217.1-0x217.1 (0.1)
0x0210|                     60                        |       `        |          mem_execute: true 0x217.2-0x217.2 (0.1)
0x0210|                     60                        |       `        |          mem_shared: false 0x217.3-0x217.3 (0.1)
0x0210|                     60                        |       `        |          mem_not_paged: false 0x217.4-0x217.4 (0.1)
0x0210|                     60                        |       `        |          mem_not_cached: false 0x217.5-0x217.5 (0.1)
0x0210|                     60                        |       `        |          mem_discardable: false 0x217.6-0x217.6 (0.1)
0x0210|                     60                        |       `        |          lnk_nreloc_ovfl: false 0x217.7-0x217.7 (0.1)
0x0400|2d e9 00 48 eb 46 42 f2 78 03 c0 f2 40 03 42 f2|-..H.FB.x...@.B.|        data: raw bits 0x400-0xbff.7 (2048)
*     |until 0xbff.7 (2048)                           |                |
      |                                               |                |      [1]{}: section 0x218-0x11ff.7 (4072)
0x0210|                        2e 72 64 61 74 61 00 00|        .rdata..|        name: ".rdata" 0x218-0x21f.7 (8)
0x0220|ae 04 00 00                                    |....            |        virtual_size: 1198 0x220-0x223.7 (4)
0x0220|            00 20 00 00                        |    . ..        |        virtual_address: 0x2000 0x224-0x227.7 (4)
0x0220|                        00 06 00 00            |        ....    |        size_of_raw_data: 1536 0x228-0x22b.7 (4)
0x0220|                                    00 0c 00 00|            ....|        pointer_to_raw_data: 0xc00 0x22c-0x22f.7 (4)
0x0230|00 00 00 00                                    |....            |        pointer_to_relocations: 0x0 0x230-0x233.7 (4)
0x0230|            00 00 00 00                        |    ....        |        pointer_to_line_numbers: 0x0 0x234-0x237.7 (4)
0x0230|                        00 00                  |        ..      |        number_of_relocations: 0 0x238-0x239.7 (2)
0x0230|                              00 00            |          ..    |        number_of_line_numbers: 0 0x23a-0x23b.7 (2)
      |                                               |                |        characteristics{}: 0x23c-0x23f.7 (4)
0x0230|                                    40         |            @   |          cnt_uninitialized_data: false 0x23c-0x23c (0.1)
0x0230|                                    40         |            @   |          cnt_initialized_data: true 0x23c.1-0x23c.1 (0.1)
0x0230|                                    40         |            @   |          cnt_code: false 0x23c.2-0x23c.2 (0.1)
0x0230|                                    40         |            @   |          reserved: false 0x23c.3-0x23c.3 (0.1)
0x0230|                                    40         |            @   |          type_no_pad: false 0x23c.4-0x23c.4 (0.1)
0x0230|                                    40         |            @   |          reserved0: false 0x23c.5-0x23c.5 (0.1)
0x0230|                                    40         |            @   |          reserved1: false 0x23c.6-0x23c.6 (0.1)
0x0230|                                    40         |            @   |          reserved2: false 0x23c.7-0x23c.7 (0.1)
0x0230|                                       00      |             .  |          gprel: false 0x23d-0x23d (0.1)
0x0230|                                       00      |             .  |          unknown0: false 0x23d.1-0x23d.1 (0.1)
0x0230|                                       00      |             .  |          unknown1: false 0x23d.2-0x23d.2 (0.1)
0x0230|                                       00      |             .  |          lnk_comdat: false 0x23d.3-0x23d.3 (0.1)
0x0230|                                       00      |             .  |          lnk_remove: false 0x23d.4-0x23d.4 (0.1)
0x0230|                                       00      |             .  |          reserved3: false 0x23d.5-0x23d.5 (0.1)
0x0230|                                       00      |             .  |          lnk_info: false 0x23d.6-0x23d.6 (0.1)
0x0230|                                       00      |             .  |          lnk_other: false 0x23d.7-0x23d.7 (0.1)
0x0230|                                          00   |              . |          align_128bytes: false 0x23e-0x23e (0.1)
0x0230|                                          00   |              . |          align_8bytes: false 0x23e.1-0x23e.1 (0.1)
0x0230|                                          00   |              . |          align_2bytes: false 0x23e.2-0x23e.2 (0.1)
0x0230|                                          00   |              . |          align_1bytes: false 0x23e.3-0x23e.3 (0.1)
0x0230|                                          00   |              . |          mem_preload: false 0x23e.4-0x23e.4 (0.1)
0x0230|                                          00   |              . |          mem_locked: false 0x23e.5-0x23e.5 (0.1)
0x0230|                                          00   |              . |          mem_16bit: false 0x23e.6-0x23e.6 (0.1)
0x0230|                                          00   |              . |          mem_purgeable: false 0x23e.7-0x23e.7 (0.1)
0x0230|                                             40|               @|          mem_write: false 0x23f-0x23f (0.1)
0x0230|                                             40|               @|          mem_read: true 0x23f.1-0x23f.1 (0.1)
0x0230|                                             40|               @|          mem_execute: false 0x23f.2-0x23f.2 (0.1)
0x0230|                                             40|               @|          mem_shared: false 0x23f.3-0x23f.3 (0.1)
0x0230|                                             40|               @|          mem_not_paged: false 0x23f.4-0x23f.4 (0.1)
0x0230|                                             40|               @|          mem_not_cached: false 0x23f.5-0x23f.5 (0.1)
0x0230|                                             40|               @|          mem_discardable: false 0x23f.6-0x23f.6 (0.1)
0x0230|                                             40|               @|          lnk_nreloc_ovfl: false 0x23f.7-0x23f.7 (0.1)
0x0c00|74 24 00 00 5e 24 00 00 48 24 00 00 2e 24 00 00|t$..^$..H$...$..|        data: raw bits 0xc00-0x11ff.7 (1536)
*     |until 0x11ff.7 (1536)                          |                |
      |                                               |                |      [2]{}: section 0x240-0x13ff.7 (4544)
0x0240|2e 64 61 74 61 00 00 00                        |.data...        |        name: ".data" 0x240-0x247.7 (8)
0x0240|                        4c 02 00 00            |        L...    |        virtual_size: 588 0x248-0x24b.7 (4)
0x0240|                                    00 30 00 00|            .0..|        virtual_address: 0x3000 0x24c-0x24f.7 (4)
0x0250|00 02 00 00                                    |....            |        size_of_raw_data: 512 0x250-0x253.7 (4)
0x0250|            00 12 00 00                        |    ....        |        pointer_to_raw_data: 0x1200 0x254-0x257.7 (4)
0x0250|                        00 00 00 00            |        ....    |        pointer_to_relocations: 0x0 0x258-0x25b.7 (4)
0x0250|                                    00 00 00 00|            ....|        pointer_to_line_numbers: 0x0 0x25c-0x25f.7 (4)
0x0260|00 00                                          |..              |        number_of_relocations: 0 0x260-0x261.7 (2)
0x0260|      00 00                                    |  ..            |        number_of_line_numbers: 0 0x262-0x263.7 (2)
      |                                               |                |        characteristics{}: 0x264-0x267.7 (4)
0x0260|            40                                 |    @           |          cnt_uninitialized_data: false 0x264-0x264 (0.1)
0x0260|            40                                 |    @           |          cnt_initialized_data: true 0x264.1-0x264.1 (0.1)
0x0260|            40                                 |    @           |          cnt_code: false 0x264.2-0x264.2 (0.1)
0x0260|            40                                 |    @           |          reserved: false 0x264.3-0x264.3 (0.1)
0x0260|            40                                 |    @           |          type_no_pad: false 0x264.4-0x264.4 (0.1)
0x0260|            40                                 |    @           |          reserved0: false 0x264.5-0x264.5 (0.1)
0x0260|            40                                 |    @           |          reserved1: false 0x264.6-0x264.6 (0.1)
0x0260|            40                                 |    @           |          reserved2: false 0x264.7-0x264.7 (0.1)
0x0260|               00                              |     .          |          gprel: false 0x265-0x265 (0.1)
0x0260|               00                              |     .          |          unknown0: false 0x265.1-0x265.1 (0.1)
0x0260|               00                              |     .          |          unknown1: false 0x265.2-0x265.2 (0.1)
0x0260|               00                              |     .          |          lnk_comdat: false 0x265.3-0x265.3 (0.1)
0x0260|               00                              |     .          |          lnk_remove: false 0x265.4-0x265.4 (0.1)
0x0260|               00                              |     .          |          reserved3: false 0x265.5-0x265.5 (0.1)
0x0260|               00                              |     .          |          lnk_info: false 0x265.6-0x265.6 (0.1)
0x0260|               00                              |     .          |          lnk_other: false 0x265.7-0x265.7 (0.1)
0x0260|                  00                           |      .         |          align_128bytes: false 0x266-0x266 (0.1)
0x0260|                  00                           |      .         |          align_8bytes: false 0x266.1-0x266.1 (0.1)
0x0260|                  00                           |      .         |          align_2bytes: false 0x266.2-0x266.2 (0.1)
0x0260|                  00                           |      .         |          align_1bytes: false 0x266.3-0x266.3 (0.1)
0x0260|                  00                           |      .         |          mem_preload: false 0x266.4-0x266.4 (0.1)
0x0260|                  00                           |      .         |          mem_locked: false 0x266.5-0x266.5 (0.1)
0x0260|                  00                           |      .         |          mem_16bit: false 0x266.6-0x266.6 (0.1)
0x0260|                  00                           |      .         |          mem_purgeable: false 0x266.7-0x266.7 (0.1)
0x0260|                     c0                        |       .        |          mem_write: true 0x267-0x267 (0.1)
0x0260|                     c0                        |       .        |          mem_read: true 0x267.1-0x267.1 (0.1)
0x0260|                     c0                        |       .        |          mem_execute: false 0x267.2-0x267.2 (0.1)
0x0260|                     c0                        |       .        |          mem_shared: false 0x267.3-0x267.3 (0.1)
0x0260|                     c0                        |       .        |          mem_not_paged: false 0x267.4-0x267.4 (0.1)
0x0260|                     c0                        |       .        |          mem_not_cached: false 0x267.5-0x267.5 (0.1)
0x0260|                     c0                        |       .        |          mem_discardable: false 0x267.6-0x267.6 (0.1)
0x0260|                     c0                        |       .        |          lnk_nreloc_ovfl: false 0x267.7-0x267.7 (0.1)
0x1200|4e e6 40 bb b1 19 bf 44 ff ff ff ff 01 00 00 00|N.@....D........|        data: raw bits 0x1200-0x13ff.7 (512)
*     |until 0x13ff.7 (512)                           |                |
      |                                               |                |      [3]{}: section 0x268-0x15ff.7 (5016)
0x0260|                        2e 70 64 61 74 61 00 00|        .pdata..|        name: ".pdata" 0x268-0x26f.7 (8)
0x0270|90 00 00 00                                    |....            |        virtual_size: 144 0x270-0x273.7 (4)
0x0270|            00 40 00 00                        |    .@..        |        virtual_address: 0x4000 0x274-0x277.7 (4)
0x0270|                        00 02 00 00            |        ....    |        size_of_raw_data: 512 0x278-0x27b.7 (4)
0x0270|                                    00 14 00 00|            ....|        pointer_to_raw_data: 0x1400 0x27c-0x27f.7 (4)
0x0280|00 00 00 00                                    |....            |        pointer_to_relocations: 0x0 0x280-0x283.7 (4)
0x0280|            00 00 00 00                        |    ....        |        pointer_to_line_numbers: 0x0 0x284-0x287.7 (4)
0x0280|                        00 00                  |        ..      |        number_of_relocations: 0 0x288-0x289.7 (2)
0x0280|                              00 00            |          ..    |        number_of_line_numbers: 0 0x28a-0x28b.7 (2)
      |                                               |                |        characteristics{}: 0x28c-0x28f.7 (4)
0x0280|                                    40         |            @   |          cnt_uninitialized_data: false 0x28c-0x28c (0.1)
0x0280|                                    40         |            @   |          cnt_initialized_data: true 0x28c.1-0x28c.1 (0.1)
0x0280|                                    40         |            @   |          cnt_code: false 0x28c.2-0x28c.2 (0.1)
0x0280|                                    40         |            @   |          reserved: false 0x28c.3-0x28c.3 (0.1)
0x0280|                                    40         |            @   |          type_no_pad: false 0x28c.4-0x28c.4 (0.1)
0x0280|                                    40         |            @   |          reserved0: false 0x28c.5-0x28c.5 (0.1)
0x0280|                                    40         |            @   |          reserved1: false 0x28c.6-0x28c.6 (0.1)
0x0280|                                    40         |            @   |          reserved2: false 0x28c.7-0x28c.7 (0.1)
0x0280|                                       00      |             .  |          gprel: false 0x28d-0x28d (0.1)
0x0280|                                       00      |             .  |          unknown0: false 0x28d.1-0x28d.1 (0.1)
0x0280|                                       00      |             .  |          unknown1: false 0x28d.2-0x28d.2 (0.1)
0x0280|                                       00      |             .  |          lnk_comdat: false 0x28d.3-0x28d.3 (0.1)
0x0280|                                       00      |             .  |          lnk_remove: false 0x28d.4-0x28d.4 (0.1)
0x0280|                                       00      |             .  |          reserved3: false 0x28d.5-0x28d.5 (0.1)
0x0280|                                       00      |             .  |          lnk_info: false 0x28d.6-0x28d.6 (0.1)
0x0280|                                       00      |             .  |          lnk_other: false 0x28d.7-0x28d.7 (0.1)
0x0280|                                          00   |              . |          align_128bytes: false 0x28e-0x28e (0.1)
0x0280|                                          00   |              . |          align_8bytes: false 0x28e.1-0x28e.1 (0.1)
0x0280|                                          00   |              . |          align_2bytes: false 0x28e.2-0x28e.2 (0.1)
0x0280|                                          00   |              . |          align_1bytes: false 0x28e.3-0x28e.3 (0.1)
0x0280|                                          00   |              . |          mem_preload: false 0x28e.4-0x28e.4 (0.1)
0x0280|                                          00   |              . |          mem_locked: false 0x28e.5-0x28e.5 (0.1)
0x0280|                                          00   |              . |          mem_16bit: false 0x28e.6-0x28e.6 (0.1)
0x0280|                                          00   |              . |          mem_purgeable: false 0x28e.7-0x28e.7 (0.1)
0x0280|                                             40|               @|          mem_write: false 0x28f-0x28f (0.1)
0x0280|                                             40|               @|          mem_read: true 0x28f.1-0x28f.1 (0.1)
0x0280|                                             40|               @|          mem_execute: false 0x28f.2-0x28f.2 (0.1)
0x0280|                                             40|               @|          mem_shared: false 0x28f.3-0x28f.3 (0.1)
0x0280|                                             40|               @|          mem_not_paged: false 0x28f.4-0x28f.4 (0.1)
0x0280|                                             40|               @|          mem_not_cached: false 0x28f.5-0x28f.5 (0.1)
0x0280|                                             40|               @|          mem_discardable: false 0x28f.6-0x28f.6 (0.1)
0x0280|                                             40|               @|          lnk_nreloc_ovfl: false 0x28f.7-0x28f.7 (0.1)
0x1400|01 10 00 00 41 60 3f 00 35 10 00 00 70 21 00 00|....A`?.5...p!..|        data: raw bits 0x1400-0x15ff.7 (512)
*     |until 0x15ff.7 (512)                           |                |
      |                                               |                |      [4]{}: section 0x290-0x17ff.7 (5488)
0x0290|2e 72 73 72 63 00 00 00                        |.rsrc...        |        name: ".rsrc" 0x290-0x297.7 (8)
0x0290|                        e0 01 00 00            |        ....    |        virtual_size: 480 0x298-0x29b.7 (4)
0x0290|                                    00 50 00 00|            .P..|        virtual_address: 0x5000 0x29c-0x29f.7 (4)
0x02a0|00 02 00 00                                    |....            |        size_of_raw_data: 512 0x2a0-0x2a3.7 (4)
0x02a0|            00 16 00 00                        |    ....        |        pointer_to_raw_data: 0x1600 0x2a4-0x2a7.7 (4)
0x02a0|                        00 00 00 00            |        ....    |        pointer_to_relocations: 0x0 0x2a8-0x2ab.7 (4)
0x02a0|                                    00 00 00 00|            ....|        pointer_to_line_numbers: 0x0 0x2ac-0x2af.7 (4)
0x02b0|00 00                                          |..              |        number_of_relocations: 0 0x2b0-0x2b1.7 (2)
0x02b0|      00 00                                    |  ..            |        number_of_line_numbers: 0 0x2b2-0x2b3.7 (2)
      |                                               |                |        characteristics{}: 0x2b4-0x2b7.7 (4)
0x02b0|            40                                 |    @           |          cnt_uninitialized_data: false 0x2b4-0x2b4 (0.1)
0x02b0|            40                                 |    @           |          cnt_initialized_data: true 0x2b4.1-0x2b4.1 (0.1)
0x02b0|            40                                 |    @           |          cnt_code: false 0x2b4.2-0x2b4.2 (0.1)
0x02b0|            40                                 |    @           |          reserved: false 0x2b4.3-0x2b4.3 (0.1)
0x02b0|            40                                 |    @           |          type_no_pad: false 0x2b4.4-0x2b4.4 (0.1)
0x02b0|            40                                 |    @           |          reserved0: false 0x2b4.5-0x2b4.5 (0.1)
0x02b0|            40                                 |    @           |          reserved1: false 0x2b4.6-0x2b4.6 (0.1)
0x02b0|            40                                 |    @           |          reserved2: false 0x2b4.7-0x2b4.7 (0.1)
0x02b0|               00                              |     .          |          gprel: false 0x2b5-0x2b5 (0.1)
0x02b0|               00                              |     .          |          unknown0: false 0x2b5.1-0x2b5.1 (0.1)
0x02b0|               00                              |     .          |          unknown1: false 0x2b5.2-0x2b5.2 (0.1)
0x02b0|               00                              |     .          |          lnk_comdat: false 0x2b5.3-0x2b5.3 (0.1)
0x02b0|               00                              |     .          |          lnk_remove: false 0x2b5.4-0x2b5.4 (0.1)
0x02b0|               00                              |     .          |          reserved3: false 0x2b5.5-0x2b5.5 (0.1)
0x02b0|               00                              |     .          |          lnk_info: false 0x2b5.6-0x2b5.6 (0.1)
0x02b0|               00                              |     .          |          lnk_other: false 0x2b5.7-0x2b5.7 (0.1)
0x02b0|                  00                           |      .         |          align_128bytes: false 0x2b6-0x2b6 (0.1)
0x02b0|                  00                           |      .         |          align_8bytes: false 0x2b6.1-0x2b6.1 (0.1)
0x02b0|                  00                           |      .         |          align_2bytes: false 0x2b6.2-0x2b6.2 (0.1)
0x02b0|                  00                           |      .         |          align_1bytes: false 0x2b6.3-0x2b6.3 (0.1)
0x02b0|                  00                           |      .         |          mem_preload: false 0x2b6.4-0x2b6.4 (0.1)
0x02b0|                  00                           |      .         |          mem_locked: false 0x2b6.5-0x2b6.5 (0.1)
0x02b0|                  00                           |      .         |          mem_16bit: false 0x2b6.6-0x2b6.6 (0.1)
0x02b0|                  00                           |      .         |          mem_purgeable: false 0x2b6.7-0x2b6.7 (0.1)
0x02b0|                     40                        |       @        |          mem_write: false 0x2b7-0x2b7 (0.1)
0x02b0|                     40                        |       @        |          mem_read: true 0x2b7.1-0x2b7.1 (0.1)
0x02b0|                     40                        |       @        |          mem_execute: false 0x2b7.2-0x2b7.2 (0.1)
0x02b0|                     40                        |       @        |          mem_shared: false 0x2b7.3-0x2b7.3 (0.1)
0x02b0|                     40                        |       @        |          mem_not_paged: false 0x2b7.4-0x2b7.4 (0.1)
0x02b0|                     40                        |       @        |          mem_not_cached: false 0x2b7.5-0x2b7.5 (0.1)
0x02b0|                     40                        |       @        |          mem_discardable: false 0x2b7.6-0x2b7.6 (0.1)
0x02b0|                     40                        |       @        |          lnk_nreloc_ovfl: false 0x2b7.7-0x2b7.7 (0.1)
0x1600|00 00 00 00 00 00 00 00 00 00 00 00 00 00 01 00|................|        data: raw bits 0x1600-0x17ff.7 (512)
*     |until 0x17ff.7 (512)                           |                |
      |                                               |                |      [5]{}: section 0x2b8-0x19ff.7 (5960)
0x02b0|                        2e 72 65 6c 6f 63 00 00|        .reloc..|        name: ".reloc" 0x2b8-0x2bf.7 (8)
0x02c0|9e 01 00 00                                    |....            |        virtual_size: 414 0x2c0-0x2c3.7 (4)
0x02c0|            00 60 00 00                        |    .`..        |        virtual_address: 0x6000 0x2c4-0x2c7.7 (4)
0x02c0|                        00 02 00 00            |        ....    |        size_of_raw_data: 512 0x2c8-0x2cb.7 (4)
0x02c0|                                    00 18 00 00|            ....|        pointer_to_raw_data: 0x1800 0x2cc-0x2cf.7 (4)
0x02d0|00 00 00 00                                    |....            |        pointer_to_relocations: 0x0 0x2d0-0x2d3.7 (4)
0x02d0|            00 00 00 00                        |    ....        |        pointer_to_line_numbers: 0x0 0x2d4-0x2d7.7 (4)
0x02d0|                        00 00                  |        ..      |        number_of_relocations: 0 0x2d8-0x2d9.7 (2)
0x02d0|                              00 00            |          ..    |        number_of_line_numbers: 0 0x2da-0x2db.7 (2)
      |                                               |                |        characteristics{}: 0x2dc-0x2df.7 (4)
0x02d0|                                    40         |            @   |          cnt_uninitialized_data: false 0x2dc-0x2dc (0.1)
0x02d0|                                    40         |            @   |          cnt_initialized_data: true 0x2dc.1-0x2dc.1 (0.1)
0x02d0|                                    40         |            @   |          cnt_code: false 0x2dc.2-0x2dc.2 (0.1)
0x02d0|                                    40         |            @   |          reserved: false 0x2dc.3-0x2dc.3 (0.1)
0x02d0|                                    40         |            @   |          type_no_pad: false 0x2dc.4-0x2dc.4 (0.1)
0x02d0|                                    40         |            @   |          reserved0: false 0x2dc.5-0x2dc.5 (0.1)
0x02d0|                                    40         |            @   |          reserved1: false 0x2dc.6-0x2dc.6 (0.1)
0x02d0|                                    40         |            @   |          reserved2: false 0x2dc.7-0x2dc.7 (0.1)
0x02d0|                                       00      |             .  |          gprel: false 0x2dd-0x2dd (0.1)
0x02d0|                                       00      |             .  |          unknown0: false 0x2dd.1-0x2dd.1 (0.1)
0x02d0|                                       00      |             .  |          unknown1: false 0x2dd.2-0x2dd.2 (0.1)
0x02d0|                                       00      |             .  |          lnk_comdat: false 0x2dd.3-0x2dd.3 (0.1)
0x02d0|                                       00      |             .  |          lnk_remove: false 0x2dd.4-0x2dd.4 (0.1)
0x02d0|                                       00      |             .  |          reserved3: false 0x2dd.5-0x2dd.5 (0.1)
0x02d0|                                       00      |             .  |          lnk_info: false 0x2dd.6-0x2dd.6 (0.1)
0x02d0|                                       00      |             .  |          lnk_other: false 0x2dd.7-0x2dd.7 (0.1)
0x02d0|                                          00   |              . |          align_128bytes: false 0x2de-0x2de (0.1)
0x02d0|                                          00   |              . |          align_8bytes: false 0x2de.1-0x2de.1 (0.1)
0x02d0|                                          00   |              . |          align_2bytes: false 0x2de.2-0x2de.2 (0.1)
0x02d0|                                          00   |              . |          align_1bytes: false 0x2de.3-0x2de.3 (0.1)
0x02d0|                                          00   |              . |          mem_preload: false 0x2de.4-0x2de.4 (0.1)
0x02d0|                                          00   |              . |          mem_locked: false 0x2de.5-0x2de.5 (0.1)
0x02d0|                                          00   |              . |          mem_16bit: false 0x2de.6-0x2de.6 (0.1)
0x02d0|                                          00   |              . |          mem_purgeable: false 0x2de.7-0x2de.7 (0.1)
0x02d0|                                             42|               B|          mem_write: false 0x2df-0x2df (0.1)
0x02d0|                                             42|               B|          mem_read: true 0x2df.1-0x2df.1 (0.1)
0x02d0|                                             42|               B|          mem_execute: false 0x2df.2-0x2df.2 (0.1)
0x02d0|                                             42|               B|          mem_shared: false 0x2df.3-0x2df.3 (0.1)
0x02d0|                                             42|               B|          mem_not_paged: false 0x2df.4-0x2df.4 (0.1)
0x02d0|                                             42|               B|          mem_not_cached: false 0x2df.5-0x2df.5 (0.1)
0x02d0|                                             42|               B|          mem_discardable: true 0x2df.6-0x2df.6 (0.1)
0x02d0|                                             42|               B|          lnk_nreloc_ovfl: false 0x2df.7-0x2df.7 (0.1)
0x1800|00 10 00 00 94 00 00 00 06 70 0e 70 30 30 58 30|.........p.p00X0|        data: raw bits 0x1800-0x19ff.7 (512)
*     |until 0x19ff.7 (end) (512)                     |                |
0x02e0|00 00 00 00 00 00 00 00 00 00 00 00 00 00 00 00|................|  gap0: raw bits 0x2e0-0x3ff.7 (288)
*     |until 0x3ff.7 (288)                            |                |
