$ fq dv pe-Windows-x64-cmd
       |00 01 02 03 04 05 06 07 08 09 0a 0b 0c 0d 0e 0f|0123456789abcdef|.{}: pe-Windows-x64-cmd (pe) 0x0-0x543ff.7 (345088)
       |00 01 02 03 04 05 06 07 08 09 0a 0b 0c 0d 0e 0f|0123456789abcdef|  ms_dos_stub{}: (msdos_stub) 0x0-0xef.7 (240)
0x00000|4d 5a                                          |MZ              |    e_magic: 0x5a4d (valid) 0x0-0x1.7 (2)
0x00000|      90 00                                    |  ..            |    e_cblp: 144 (Bytes on last page of file) 0x2-0x3.7 (2)
0x00000|            03 00                              |    ..          |    e_cp: 3 (Pages in file) 0x4-0x5.7 (2)
0x00000|                  00 00                        |      ..        |    e_crlc: 0 (Relocations) 0x6-0x7.7 (2)
0x00000|                        04 00                  |        ..      |    e_cparhdr: 4 (Size of header in paragraphs) 0x8-0x9.7 (2)
0x00000|                              00 00            |          ..    |    e_minalloc: 0 (Minimum extra paragraphs needed) 0xa-0xb.7 (2)
0x00000|                                    ff ff      |            ..  |    e_maxalloc: 65535 (Maximum extra paragraphs needed) 0xc-0xd.7 (2)
0x00000|                                          00 00|              ..|    e_ss: 0 (Initial (relative) SS value) 0xe-0xf.7 (2)
0x00010|b8 00                                          |..              |    e_sp: 184 (Initial SP value) 0x10-0x11.7 (2)
0x00010|      00 00                                    |  ..            |    e_csum: 0 (Checksum) 0x12-0x13.7 (2)
0x00010|            00 00                              |    ..          |    e_ip: 0 (Initial IP value) 0x14-0x15.7 (2)
0x00010|                  00 00                        |      ..        |    e_cs: 0 (Initial (relative) CS value) 0x16-0x17.7 (2)
0x00010|                        40 00                  |        @.      |    e_lfarlc: 64 (File address of relocation table) 0x18-0x19.7 (2)
0x00010|                              00 00            |          ..    |    e_ovno: 0 (Overlay number) 0x1a-0x1b.7 (2)
0x00010|                                    00 00 00 00|            ....|    e_res: raw bits (Reserved words) 0x1c-0x23.7 (8)
0x00020|00 00 00 00                                    |....            |
0x00020|            00 00                              |    ..          |    e_oemid: 0 (OEM identifier (for e_oeminfo)) 0x24-0x25.7 (2)
0x00020|                  00 00                        |      ..        |    e_oeminfo: 0 (OEM information; e_oemid specific) 0x26-0x27.7 (2)
0x00020|                        00 00 00 00 00 00 00 00|        ........|    e_res2: raw bits (Reserved words) 0x28-0x3b.7 (20)
0x00030|00 00 00 00 00 00 00 00 00 00 00 00            |............    |
0x00030|                                    f0 00 00 00|            ....|    e_lfanew: 240 (File address of new exe header) 0x3c-0x3f.7 (4)
0x00040|0e 1f ba 0e 00 b4 09 cd 21 b8 01 4c cd 21 54 68|........!..L.!Th|    stub: raw bits (Sub program) 0x40-0x7f.7 (64)
*      |until 0x7f.7 (64)                              |                |
0x00080|4d 7c a4 8a 09 1d ca d9 09 1d ca d9 09 1d ca d9|M|..............|    padding: raw bits 0x80-0xef.7 (112)
*      |until 0xef.7 (112)                             |                |
       |00 01 02 03 04 05 06 07 08 09 0a 0b 0c 0d 0e 0f|0123456789abcdef|  coff{}: (coff) 0xf0-0x543ff.7 (344848)
0x000f0|50 45 00 00                                    |PE..            |    signature: raw bits (valid) 0xf0-0xf3.7 (4)
0x000f0|            64 86                              |    d.          |    machine: "amd64" (0x8664) (x64) 0xf4-0xf5.7 (2)
0x000f0|                  06 00                        |      ..        |    number_of_sections: 6 0xf6-0xf7.7 (2)
0x000f0|                        e5 98 e7 4c            |        ...L    |    time_date_stamp: 1290246373 (2010-11-20T09:46:13Z) 0xf8-0xfb.7 (4)
0x000f0|                                    00 00 00 00|            ....|    pointer_to_symbol_table: 0x0 0xfc-0xff.7 (4)
0x00100|00 00 00 00                                    |....            |    number_of_symbols: 0 0x100-0x103.7 (4)
0x00100|            f0 00                              |    ..          |    size_of_optional_header: 240 0x104-0x105.7 (2)
       |                                               |                |    characteristics{}: 0x106-0x107.7 (2)
0x00100|                  22                           |      "         |      bytes_reversed_hi: false 0x106-0x106 (0.1)
0x00100|                  22                           |      "         |      up_system_only: false 0x106.1-0x106.1 (0.1)
0x00100|                  22                           |      "         |      dll: true 0x106.2-0x106.2 (0.1)
0x00100|                  22                           |      "         |      system: false 0x106.3-0x106.3 (0.1)
0x00100|                  22                           |      "         |      net_run_from_swap: false 0x106.4-0x106.4 (0.1)
0x00100|                  22                           |      "         |      removable_run_from_swap: false 0x106.5-0x106.5 (0.1)
0x00100|                  22                           |      "         |      debug_stripped: true 0x106.6-0x106.6 (0.1)
0x00100|                  22                           |      "         |      32bit_machine: false 0x106.7-0x106.7 (0.1)
0x00100|                     00                        |       .        |      bytes_reversed_lo: false 0x107-0x107 (0.1)
0x00100|                     00                        |       .        |      reserved: false 0x107.1-0x107.1 (0.1)
0x00100|                     00                        |       .        |      large_address_aware: false 0x107.2-0x107.2 (0.1)
0x00100|                     00                        |       .        |      aggressive_ws_trim: false 0x107.3-0x107.3 (0.1)
0x00100|                     00                        |       .        |      local_syms_stripped: false 0x107.4-0x107.4 (0.1)
0x00100|                     00                        |       .        |      line_nums_stripped: false 0x107.5-0x107.5 (0.1)
0x00100|                     00                        |       .        |      executable_image: false 0x107.6-0x107.6 (0.1)
0x00100|                     00                        |       .        |      relocs_stripped: false 0x107.7-0x107.7 (0.1)
       |                                               |                |    optional_header{}: 0x108-0x1f7.7 (240)
0x00100|                        0b 02                  |        ..      |      format: "pe32+" (0x20b) 0x108-0x109.7 (2)
0x00100|                              09               |          .     |      major_linker_version: 9 0x10a-0x10a.7 (1)
0x00100|                                 00            |           .    |      minor_linker_version: 0 0x10b-0x10b.7 (1)
0x00100|                                    00 72 02 00|            .r..|      size_of_code: 160256 0x10c-0x10f.7 (4)
0x00110|00 ce 02 00                                    |....            |      size_of_initialized_data: 183808 0x110-0x113.7 (4)
0x00110|            00 00 00 00                        |    ....        |      size_of_uninitialized_data: 0 0x114-0x117.7 (4)
0x00110|                        b4 90 00 00            |        ....    |      address_of_entry_point: 0x90b4 0x118-0x11b.7 (4)
0x00110|                                    00 10 00 00|            ....|      base_of_code: 0x1000 0x11c-0x11f.7 (4)
0x00120|00 00 d0 4a 00 00 00 00                        |...J....        |      image_base: 0x4ad00000 0x120-0x127.7 (8)
0x00120|                        00 10 00 00            |        ....    |      section_alignment: 4096 0x128-0x12b.7 (4)
0x00120|                                    00 02 00 00|            ....|      file_alignment: 512 0x12c-0x12f.7 (4)
0x00130|06 00                                          |..              |      major_os_version: 6 0x130-0x131.7 (2)
0x00130|      01 00                                    |  ..            |      minor_os_version: 1 0x132-0x133.7 (2)
0x00130|            06 00                              |    ..          |      major_image_version: 6 0x134-0x135.7 (2)
0x00130|                  01 00                        |      ..        |      minor_image_version: 1 0x136-0x137.7 (2)
0x00130|                        06 00                  |        ..      |      major_subsystem_version: 6 0x138-0x139.7 (2)
0x00130|                              01 00            |          ..    |      minor_subsystem_version: 1 0x13a-0x13b.7 (2)
0x00130|                                    00 00 00 00|            ....|      win32_version: 0 0x13c-0x13f.7 (4)
0x00140|00 90 05 00                                    |....            |      size_of_image: 364544 0x140-0x143.7 (4)
0x00140|            00 04 00 00                        |    ....        |      size_of_headers: 1024 0x144-0x147.7 (4)
0x00140|                        ec bd 05 00            |        ....    |      chunk_sum: 0x5bdec 0x148-0x14b.7 (4)
0x00140|                                    03 00      |            ..  |      subsystem: "windows_cui" (3) (The Windows character subsystem) 0x14c-0x14d.7 (2)
       |                                               |                |      dll_characteristics{}: 0x14e-0x14f.7 (2)
0x00140|                                          40   |              @ |        force_integrity: false 0x14e-0x14e (0.1)
0x00140|                                          40   |              @ |        dynamic_base: true 0x14e.1-0x14e.1 (0.1)
0x00140|                                          40   |              @ |        high_entropy_va: false 0x14e.2-0x14e.2 (0.1)
0x00140|                                          40   |              @ |        reserved0: false 0x14e.3-0x14e.3 (0.1)
0x00140|                                          40   |              @ |        reserved1: false 0x14e.4-0x14e.4 (0.1)
0x00140|                                          40   |              @ |        reserved2: false 0x14e.5-0x14e.5 (0.1)
0x00140|                                          40   |              @ |        reserved3: false 0x14e.6-0x14e.6 (0.1)
0x00140|                                          40   |              @ |        reserved4: false 0x14e.7-0x14e.7 (0.1)
0x00140|                                             81|               .|        terminal_server_aware: true 0x14f-0x14f (0.1)
0x00140|                                             81|               .|        guard_cf: false 0x14f.1-0x14f.1 (0.1)
0x00140|                                             81|               .|        wdm_driver: false 0x14f.2-0x14f.2 (0.1)
0x00140|                                             81|               .|        appcontainer: false 0x14f.3-0x14f.3 (0.1)
0x00140|                                             81|               .|        no_bind: false 0x14f.4-0x14f.4 (0.1)
0x00140|                                             81|               .|        no_seh: false 0x14f.5-0x14f.5 (0.1)
0x00140|                                             81|               .|        no_isolation: false 0x14f.6-0x14f.6 (0.1)
0x00140|                                             81|               .|        nx_compat: true 0x14f.7-0x14f.7 (0.1)
0x00150|00 00 10 00 00 00 00 00                        |........        |      size_of_track_reserve: 1048576 0x150-0x157.7 (8)
0x00150|                        00 c0 0f 00 00 00 00 00|        ........|      size_of_stack_commit: 1032192 0x158-0x15f.7 (8)
0x00160|00 00 10 00 00 00 00 00                        |........        |      size_of_heap_reserve: 1048576 0x160-0x167.7 (8)
0x00160|                        00 10 00 00 00 00 00 00|        ........|      size_of_heap_commit: 4096 0x168-0x16f.7 (8)
0x00170|00 00 00 00                                    |....            |      loader_flags: 0 0x170-0x173.7 (4)
0x00170|            10 00 00 00                        |    ....        |      number_of_rva_and_sizes: 16 0x174-0x177.7 (4)
0x00170|                        00 00 00 00            |        ....    |      export_table_address: 0x0 0x178-0x17b.7 (4)
0x00170|                                    00 00 00 00|            ....|      export_table_size: 0 0x17c-0x17f.7 (4)
0x00180|58 a7 02 00                                    |X...            |      import_table_address: 0x2a758 0x180-0x183.7 (4)
0x00180|            64 00 00 00                        |    d...        |      import_table_size: 100 0x184-0x187.7 (4)
0x00180|                        00 f0 04 00            |        ....    |      resource_table_address: 0x4f000 0x188-0x18b.7 (4)
0x00180|                                    58 84 00 00|            X...|      resource_table_size: 33880 0x18c-0x18f.7 (4)
0x00190|00 c0 04 00                                    |....            |      exception_table_address: 0x4c000 0x190-0x193.7 (4)
0x00190|            dc 26 00 00                        |    .&..        |      exception_table_size: 9948 0x194-0x197.7 (4)
0x00190|                        00 00 00 00            |        ....    |      certificate_table_address: 0x0 0x198-0x19b.7 (4)
0x00190|                                    00 00 00 00|            ....|      certificate_table_size: 0 0x19c-0x19f.7 (4)
0x001a0|00 80 05 00                                    |....            |      base_relocation_table_address: 0x58000 0x1a0-0x1a3.7 (4)
0x001a0|            24 01 00 00                        |    $...        |      base_relocation_table_size: 292 0x1a4-0x1a7.7 (4)
0x001a0|                        70 80 02 00            |        p...    |      debug_address: 0x28070 0x1a8-0x1ab.7 (4)
0x001a0|                                    38 00 00 00|            8...|      debug_size: 56 0x1ac-0x1af.7 (4)
0x001b0|00 00 00 00 00 00 00 00                        |........        |      architecture: 0 0x1b0-0x1b7.7 (8)
0x001b0|                        00 00 00 00 00 00 00 00|        ........|      global_ptr: 0x0 0x1b8-0x1bf.7 (8)
0x001c0|00 00 00 00                                    |....            |      tls_table_address: 0x0 0x1c0-0x1c3.7 (4)
0x001c0|            00 00 00 00                        |    ....        |      tls_table_size: 0 0x1c4-0x1c7.7 (4)
0x001c0|                        00 00 00 00            |        ....    |      load_config_table_address: 0x0 0x1c8-0x1cb.7 (4)
0x001c0|                                    00 00 00 00|            ....|      load_config_table_size: 0 0x1cc-0x1cf.7 (4)
0x001d0|e8 02 00 00                                    |....            |      bound_import_address: 0x2e8 0x1d0-0x1d3.7 (4)
0x001d0|            9c 00 00 00                        |    ....        |      bound_import_size: 156 0x1d4-0x1d7.7 (4)
0x001d0|                        00 90 02 00            |        ....    |      iat_address: 0x29000 0x1d8-0x1db.7 (4)
0x001d0|                                    48 07 00 00|            H...|      iat_size: 1864 0x1dc-0x1df.7 (4)
0x001e0|2c a4 02 00                                    |,...            |      delay_import_descriptor_address: 0x2a42c 0x1e0-0x1e3.7 (4)
0x001e0|            a0 00 00 00                        |    ....        |      delay_import_descriptor_size: 160 0x1e4-0x1e7.7 (4)
0x001e0|                        00 00 00 00            |        ....    |      clr_runtime_header_address: 0x0 0x1e8-0x1eb.7 (4)
0x001e0|                                    00 00 00 00|            ....|      clr_runtime_header_size: 0 0x1ec-0x1ef.7 (4)
0x001f0|00 00 00 00 00 00 00 00                        |........        |      reserved: 0 0x1f0-0x1f7.7 (8)
       |                                               |                |      unknown: raw bits 0x1f8-NA (0)
       |                                               |                |    sections[0:6]: 0x1f8-0x543ff.7 (344584)
       |                                               |                |      [0]{}: section 0x1f8-0x275ff.7 (160776)
0x001f0|                        2e 74 65 78 74 00 00 00|        .text...|        name: ".text" 0x1f8-0x1ff.7 (8)
0x00200|cc 70 02 00                                    |.p..            |        virtual_size: 159948 0x200-0x203.7 (4)
0x00200|            00 10 00 00                        |    ....        |        virtual_address: 0x1000 0x204-0x207.7 (4)
0x00200|                        00 72 02 00            |        .r..    |        size_of_raw_data: 160256 0x208-0x20b.7 (4)
0x00200|                                    00 04 00 00|            ....|        pointer_to_raw_data: 0x400 0x20c-0x20f.7 (4)
0x00210|00 00 00 00                                    |....            |        pointer_to_relocations: 0x0 0x210-0x213.7 (4)
0x00210|            00 00 00 00                        |    ....        |        pointer_to_line_numbers: 0x0 0x214-0x217.7 (4)
0x00210|                        00 00                  |        ..      |        number_of_relocations: 0 0x218-0x219.7 (2)
0x00210|                              00 00            |          ..    |        number_of_line_numbers: 0 0x21a-0x21b.7 (2)
       |                                               |                |        characteristics{}: 0x21c-0x21f.7 (4)
0x00210|                                    20         |                |          cnt_uninitialized_data: false 0x21c-0x21c (0.1)
0x00210|                                    20         |                |          cnt_initialized_data: false 0x21c.1-0x21c.1 (0.1)
0x00210|                                    20         |                |          cnt_code: true 0x21c.2-0x21c.2 (0.1)
0x00210|                                    20         |                |          reserved: false 0x21c.3-0x21c.3 (0.1)
0x00210|                                    20         |                |          type_no_pad: false 0x21c.4-0x21c.4 (0.1)
0x00210|                                    20         |                |          reserved0: false 0x21c.5-0x21c.5 (0.1)
0x00210|                                    20         |                |          reserved1: false 0x21c.6-0x21c.6 (0.1)
0x00210|                                    20         |                |          reserved2: false 0x21c.7-0x21c.7 (0.1)
0x00210|                                       00      |             .  |          gprel: false 0x21d-0x21d (0.1)
0x00210|                                       00      |             .  |          unknown0: false 0x21d.1-0x21d.1 (0.1)
0x00210|                                       00      |             .  |          unknown1: false 0x21d.2-0x21d.2 (0.1)
0x00210|                                       00      |             .  |          lnk_comdat: false 0x21d.3-0x21d.3 (0.1)
0x00210|                                       00      |             .  |          lnk_remove: false 0x21d.4-0x21d.4 (0.1)
0x00210|                                       00      |             .  |          reserved3: false 0x21d.5-0x21d.5 (0.1)
0x00210|                                       00      |             .  |          lnk_info: false 0x21d.6-0x21d.6 (0.1)
0x00210|                                       00      |             .  |          lnk_other: false 0x21d.7-0x21d.7 (0.1)
0x00210|                                          00   |              . |          align_128bytes: false 0x21e-0x21e (0.1)
0x00210|                                          00   |              . |          align_8bytes: false 0x21e.1-0x21e.1 (0.1)
0x00210|                                          00   |              . |          align_2bytes: false 0x21e.2-0x21e.2 (0.1)
0x00210|                                          00   |              . |          align_1bytes: false 0x21e.3-0x21e.3 (0.1)
0x00210|                                          00   |              . |          mem_preload: false 0x21e.4-0x21e.4 (0.1)
0x00210|                                          00   |              . |          mem_locked: false 0x21e.5-0x21e.5 (0.1)
0x00210|                                          00   |              . |          mem_16bit: false 0x21e.6-0x21e.6 (0.1)
0x00210|                                          00   |              . |          mem_purgeable: false 0x21e.7-0x21e.7 (0.1)
0x00210|                                             60|               `|          mem_write: false 0x21f-0x21f (0.1)
0x00210|                                             60|               `|          mem_read: true 0x21f.1-0x21f.1 (0.1)
0x00210|                                             60|               `|          mem_execute: true 0x21f.2-0x21f.2 (0.1)
0x00210|                                             60|               `|          mem_shared: false 0x21f.3-0x21f.3 (0.1)
0x00210|                                             60|               `|          mem_not_paged: false 0x21f.4-0x21f.4 (0.1)
0x00210|                                             60|               `|          mem_not_cached: false 0x21f.5-0x21f.5 (0.1)
0x00210|                                             60|               `|          mem_discardable: false 0x21f.6-0x21f.6 (0.1)
0x00210|                                             60|               `|          lnk_nreloc_ovfl: false 0x21f.7-0x21f.7 (0.1)
0x00400|48 3b 0d c1 d1 02 00 0f 85 24 51 01 00 48 c1 c1|H;.......$Q..H..|        data: raw bits 0x400-0x275ff.7 (160256)
*      |until 0x275ff.7 (160256)                       |                |
       |                                               |                |      [1]{}: section 0x220-0x2bfff.7 (179680)
0x00220|2e 72 64 61 74 61 00 00                        |.rdata..        |        name: ".rdata" 0x220-0x227.7 (8)
0x00220|                        10 49 00 00            |        .I..    |        virtual_size: 18704 0x228-0x22b.7 (4)
0x00220|                                    00 90 02 00|            ....|        virtual_address: 0x29000 0x22c-0x22f.7 (4)
0x00230|00 4a 00 00                                    |.J..            |        size_of_raw_data: 18944 0x230-0x233.7 (4)
0x00230|            00 76 02 00                        |    .v..        |        pointer_to_raw_data: 0x27600 0x234-0x237.7 (4)
0x00230|                        00 00 00 00            |        ....    |        pointer_to_relocations: 0x0 0x238-0x23b.7 (4)
0x00230|                                    00 00 00 00|            ....|        pointer_to_line_numbers: 0x0 0x23c-0x23f.7 (4)
0x00240|00 00                                          |..              |        number_of_relocations: 0 0x240-0x241.7 (2)
0x00240|      00 00                                    |  ..            |        number_of_line_numbers: 0 0x242-0x243.7 (2)
       |                                               |                |        characteristics{}: 0x244-0x247.7 (4)
0x00240|            40                                 |    @           |          cnt_uninitialized_data: false 0x244-0x244 (0.1)
0x00240|            40                                 |    @           |          cnt_initialized_data: true 0x244.1-0x244.1 (0.1)
0x00240|            40                                 |    @           |          cnt_code: false 0x244.2-0x244.2 (0.1)
0x00240|            40                                 |    @           |          reserved: false 0x244.3-0x244.3 (0.1)
0x00240|            40                                 |    @           |          type_no_pad: false 0x244.4-0x244.4 (0.1)
0x00240|            40                                 |    @           |          reserved0: false 0x244.5-0x244.5 (0.1)
0x00240|            40                                 |    @           |          reserved1: false 0x244.6-0x244.6 (0.1)
0x00240|            40                                 |    @           |          reserved2: false 0x244.7-0x244.7 (0.1)
0x00240|               00                              |     .          |          gprel: false 0x245-0x245 (0.1)
0x00240|               00                              |     .          |          unknown0: false 0x245.1-0x245.1 (0.1)
0x00240|               00                              |     .          |          unknown1: false 0x245.2-0x245.2 (0.1)
0x00240|               00                              |     .          |          lnk_comdat: false 0x245.3-0x245.3 (0.1)
0x00240|               00                              |     .          |          lnk_remove: false 0x245.4-0x245.4 (0.1)
0x00240|               00                              |     .          |          reserved3: false 0x245.5-0x245.5 (0.1)
0x00240|               00                              |     .          |          lnk_info: false 0x245.6-0x245.6 (0.1)
0x00240|               00                              |     .          |          lnk_other: false 0x245.7-0x245.7 (0.1)
0x00240|                  00                           |      .         |          align_128bytes: false 0x246-0x246 (0.1)
0x00240|                  00                           |      .         |          align_8bytes: false 0x246.1-0x246.1 (0.1)
0x00240|                  00                           |      .         |          align_2bytes: false 0x246.2-0x246.2 (0.1)
0x00240|                  00                           |      .         |          align_1bytes: false 0x246.3-0x246.3 (0.1)
0x00240|                  00                           |      .         |          mem_preload: false 0x246.4-0x246.4 (0.1)
0x00240|                  00                           |      .         |          mem_locked: false 0x246.5-0x246.5 (0.1)
0x00240|                  00                           |      .         |          mem_16bit: false 0x246.6-0x246.6 (0.1)
0x00240|                  00                           |      .         |          mem_purgeable: false 0x246.7-0x246.7 (0.1)
0x00240|                     40                        |       @        |          mem_write: false 0x247-0x247 (0.1)
0x00240|                     40                        |       @        |          mem_read: true 0x247.1-0x247.1 (0.1)
0x00240|                     40                        |       @        |          mem_execute: false 0x247.2-0x247.2 (0.1)
0x00240|                     40                        |       @        |          mem_shared: false 0x247.3-0x247.3 (0.1)
0x00240|                     40                        |       @        |          mem_not_paged: false 0x247.4-0x247.4 (0.1)
0x00240|                     40                        |       @        |          mem_not_cached: false 0x247.5-0x247.5 (0.1)
0x00240|                     40                        |       @        |          mem_discardable: false 0x247.6-0x247.6 (0.1)
0x00240|                     40                        |       @        |          lnk_nreloc_ovfl: false 0x247.7-0x247.7 (0.1)
0x27600|00 10 6a 75 ff 07 00 00 e0 10 6a 75 ff 07 00 00|..ju......ju....|        data: raw bits 0x27600-0x2bfff.7 (18944)
*      |until 0x2bfff.7 (18944)                        |                |
       |                                               |                |      [2]{}: section 0x248-0x493ff.7 (299448)
0x00240|                        2e 64 61 74 61 00 00 00|        .data...|        name: ".data" 0x248-0x24f.7 (8)
0x00250|98 d3 01 00                                    |....            |        virtual_size: 119704 0x250-0x253.7 (4)
0x00250|            00 e0 02 00                        |    ....        |        virtual_address: 0x2e000 0x254-0x257.7 (4)
0x00250|                        00 d4 01 00            |        ....    |        size_of_raw_data: 119808 0x258-0x25b.7 (4)
0x00250|                                    00 c0 02 00|            ....|        pointer_to_raw_data: 0x2c000 0x25c-0x25f.7 (4)
0x00260|00 00 00 00                                    |....            |        pointer_to_relocations: 0x0 0x260-0x263.7 (4)
0x00260|            00 00 00 00                        |    ....        |        pointer_to_line_numbers: 0x0 0x264-0x267.7 (4)
0x00260|                        00 00                  |        ..      |        number_of_relocations: 0 0x268-0x269.7 (2)
0x00260|                              00 00            |          ..    |        number_of_line_numbers: 0 0x26a-0x26b.7 (2)
       |                                               |                |        characteristics{}: 0x26c-0x26f.7 (4)
0x00260|                                    40         |            @   |          cnt_uninitialized_data: false 0x26c-0x26c (0.1)
0x00260|                                    40         |            @   |          cnt_initialized_data: true 0x26c.1-0x26c.1 (0.1)
0x00260|                                    40         |            @   |          cnt_code: false 0x26c.2-0x26c.2 (0.1)
0x00260|                                    40         |            @   |          reserved: false 0x26c.3-0x26c.3 (0.1)
0x00260|                                    40         |            @   |          type_no_pad: false 0x26c.4-0x26c.4 (0.1)
0x00260|                                    40         |            @   |          reserved0: false 0x26c.5-0x26c.5 (0.1)
0x00260|                                    40         |            @   |          reserved1: false 0x26c.6-0x26c.6 (0.1)
0x00260|                                    40         |            @   |          reserved2: false 0x26c.7-0x26c.7 (0.1)
0x00260|                                       00      |             .  |          gprel: false 0x26d-0x26d (0.1)
0x00260|                                       00      |             .  |          unknown0: false 0x26d.1-0x26d.1 (0.1)
0x00260|                                       00      |             .  |          unknown1: false 0x26d.2-0x26d.2 (0.1)
0x00260|                                       00      |             .  |          lnk_comdat: false 0x26d.3-0x26d.3 (0.1)
0x00260|                                       00      |             .  |          lnk_remove: false 0x26d.4-0x26d.4 (0.1)
0x00260|                                       00      |             .  |          reserved3: false 0x26d.5-0x26d.5 (0.1)
0x00260|                                       00      |             .  |          lnk_info: false 0x26d.6-0x26d.6 (0.1)
0x00260|                                       00      |             .  |          lnk_other: false 0x26d.7-0x26d.7 (0.1)
0x00260|                                          00   |              . |          align_128bytes: false 0x26e-0x26e (0.1)
0x00260|                                          00   |              . |          align_8bytes: false 0x26e.1-0x26e.1 (0.1)
0x00260|                                          00   |              . |          align_2bytes: false 0x26e.2-0x26e.2 (0.1)
0x00260|                                          00   |              . |          align_1bytes: false 0x26e.3-0x26e.3 (0.1)
0x00260|                                          00   |              . |          mem_preload: false 0x26e.4-0x26e.4 (0.1)
0x00260|                                          00   |              . |          mem_locked: false 0x26e.5-0x26e.5 (0.1)
0x00260|                                          00   |              . |          mem_16bit: false 0x26e.6-0x26e.6 (0.1)
0x00260|                                          00   |              . |          mem_purgeable: false 0x26e.7-0x26e.7 (0.1)
0x00260|                                             c0|               .|          mem_write: true 0x26f-0x26f (0.1)
0x00260|                                             c0|               .|          mem_read: true 0x26f.1-0x26f.1 (0.1)
0x00260|                                             c0|               .|          mem_execute: false 0x26f.2-0x26f.2 (0.1)
0x00260|                                             c0|               .|          mem_shared: false 0x26f.3-0x26f.3 (0.1)
0x00260|                                             c0|               .|          mem_not_paged: false 0x26f.4-0x26f.4 (0.1)
0x00260|                                             c0|               .|          mem_not_cached: false 0x26f.5-0x26f.5 (0.1)
0x00260|                                             c0|               .|          mem_discardable: false 0x26f.6-0x26f.6 (0.1)
0x00260|                                             c0|               .|          lnk_nreloc_ovfl: false 0x26f.7-0x26f.7 (0.1)
0x2c000|80 bf d0 4a 00 00 00 00 8c bf d0 4a 00 00 00 00|...J.......J....|        data: raw bits 0x2c000-0x493ff.7 (119808)
*      |until 0x493ff.7 (119808)                       |                |
       |                                               |                |      [3]{}: section 0x270-0x4bbff.7 (309648)
0x00270|2e 70 64 61 74 61 00 00                        |.pdata..        |        name: ".pdata" 0x270-0x277.7 (8)
0x00270|                        dc 26 00 00            |        .&..    |        virtual_size: 9948 0x278-0x27b.7 (4)
0x00270|                                    00 c0 04 00|            ....|        virtual_address: 0x4c000 0x27c-0x27f.7 (4)
0x00280|00 28 00 00                                    |.(..            |        size_of_raw_data: 10240 0x280-0x283.7 (4)
0x00280|            00 94 04 00                        |    ....        |        pointer_to_raw_data: 0x49400 0x284-0x287.7 (4)
0x00280|                        00 00 00 00            |        ....    |        pointer_to_relocations: 0x0 0x288-0x28b.7 (4)
0x00280|                                    00 00 00 00|            ....|        pointer_to_line_numbers: 0x0 0x28c-0x28f.7 (4)
0x00290|00 00                                          |..              |        number_of_relocations: 0 0x290-0x291.7 (2)
0x00290|      00 00                                    |  ..            |        number_of_line_numbers: 0 0x292-0x293.7 (2)
       |                                               |                |        characteristics{}: 0x294-0x297.7 (4)
0x00290|            40                                 |    @           |          cnt_uninitialized_data: false 0x294-0x294 (0.1)
0x00290|            40                                 |    @           |          cnt_initialized_data: true 0x294.1-0x294.1 (0.1)
0x00290|            40                                 |    @           |          cnt_code: false 0x294.2-0x294.2 (0.1)
0x00290|            40                                 |    @           |          reserved: false 0x294.3-0x294.3 (0.1)
0x00290|            40                                 |    @           |          type_no_pad: false 0x294.4-0x294.4 (0.1)
0x00290|            40                                 |    @           |          reserved0: false 0x294.5-0x294.5 (0.1)
0x00290|            40                                 |    @           |          reserved1: false 0x294.6-0x294.6 (0.1)
0x00290|            40                                 |    @           |          reserved2: false 0x294.7-0x294.7 (0.1)
0x00290|               00                              |     .          |          gprel: false 0x295-0x295 (0.1)
0x00290|               00                              |     .          |          unknown0: false 0x295.1-0x295.1 (0.1)
0x00290|               00                              |     .          |          unknown1: false 0x295.2-0x295.2 (0.1)
0x00290|               00                              |     .          |          lnk_comdat: false 0x295.3-0x295.3 (0.1)
0x00290|               00                              |     .          |          lnk_remove: false 0x295.4-0x295.4 (0.1)
0x00290|               00                              |     .          |          reserved3: false 0x295.5-0x295.5 (0.1)
0x00290|               00                              |     .          |          lnk_info: false 0x295.6-0x295.6 (0.1)
0x00290|               00                              |     .          |          lnk_other: false 0x295.7-0x295.7 (0.1)
0x00290|                  00                           |      .         |          align_128bytes: false 0x296-0x296 (0.1)
0x00290|                  00                           |      .         |          align_8bytes: false 0x296.1-0x296.1 (0.1)
0x00290|                  00                           |      .         |          align_2bytes: false 0x296.2-0x296.2 (0.1)
0x00290|                  00                           |      .         |          align_1bytes: false 0x296.3-0x296.3 (0.1)
0x00290|                  00                           |      .         |          mem_preload: false 0x296.4-0x296.4 (0.1)
0x00290|                  00                           |      .         |          mem_locked: false 0x296.5-0x296.5 (0.1)
0x00290|                  00                           |      .         |          mem_16bit: false 0x296.6-0x296.6 (0.1)
0x00290|                  00                           |      .         |          mem_purgeable: false 0x296.7-0x296.7 (0.1)
0x00290|                     40                        |       @        |          mem_write: false 0x297-0x297 (0.1)
0x00290|                     40                        |       @        |          mem_read: true 0x297.1-0x297.1 (0.1)
0x00290|                     40                        |       @        |          mem_execute: false 0x297.2-0x297.2 (0.1)
0x00290|                     40                        |       @        |          mem_shared: false 0x297.3-0x297.3 (0.1)
0x00290|                     40                        |       @        |          mem_not_paged: false 0x297.4-0x297.4 (0.1)
0x00290|                     40                        |       @        |          mem_not_cached: false 0x297.5-0x297.5 (0.1)
0x00290|                     40                        |       @        |          mem_discardable: false 0x297.6-0x297.6 (0.1)
0x00290|                     40                        |       @        |          lnk_nreloc_ovfl: false 0x297.7-0x297.7 (0.1)
0x49400|40 10 00 00 ab 10 00 00 f0 cb 02 00 cc 10 00 00|@...............|        data: raw bits 0x49400-0x4bbff.7 (10240)
*      |until 0x4bbff.7 (10240)                        |                |
       |                                               |                |      [4]{}: section 0x298-0x541ff.7 (343912)
0x00290|                        2e 72 73 72 63 00 00 00|        .rsrc...|        name: ".rsrc" 0x298-0x29f.7 (8)
0x002a0|58 84 00 00                                    |X...            |        virtual_size: 33880 0x2a0-0x2a3.7 (4)
0x002a0|            00 f0 04 00                        |    ....        |        virtual_address: 0x4f000 0x2a4-0x2a7.7 (4)
0x002a0|                        00 86 00 00            |        ....    |        size_of_raw_data: 34304 0x2a8-0x2ab.7 (4)
0x002a0|                                    00 bc 04 00|            ....|        pointer_to_raw_data: 0x4bc00 0x2ac-0x2af.7 (4)
0x002b0|00 00 00 00                                    |....            |        pointer_to_relocations: 0x0 0x2b0-0x2b3.7 (4)
0x002b0|            00 00 00 00                        |    ....        |        pointer_to_line_numbers: 0x0 0x2b4-0x2b7.7 (4)
0x002b0|                        00 00                  |        ..      |        number_of_relocations: 0 0x2b8-0x2b9.7 (2)
0x002b0|                              00 00            |          ..    |        number_of_line_numbers: 0 0x2ba-0x2bb.7 (2)
       |                                               |                |        characteristics{}: 0x2bc-0x2bf.7 (4)
0x002b0|                                    40         |            @   |          cnt_uninitialized_data: false 0x2bc-0x2bc (0.1)
0x002b0|                                    40         |            @   |          cnt_initialized_data: true 0x2bc.1-0x2bc.1 (0.1)
0x002b0|                                    40         |            @   |          cnt_code: false 0x2bc.2-0x2bc.2 (0.1)
0x002b0|                                    40         |            @   |          reserved: false 0x2bc.3-0x2bc.3 (0.1)
0x002b0|                                    40         |            @   |          type_no_pad: false 0x2bc.4-0x2bc.4 (0.1)
0x002b0|                                    40         |            @   |          reserved0: false 0x2bc.5-0x2bc.5 (0.1)
0x002b0|                                    40         |            @   |          reserved1: false 0x2bc.6-0x2bc.6 (0.1)
0x002b0|                                    40         |            @   |          reserved2: false 0x2bc.7-0x2bc.7 (0.1)
0x002b0|                                       00      |             .  |          gprel: false 0x2bd-0x2bd (0.1)
0x002b0|                                       00      |             .  |          unknown0: false 0x2bd.1-0x2bd.1 (0.1)
0x002b0|                                       00      |             .  |          unknown1: false 0x2bd.2-0x2bd.2 (0.1)
0x002b0|                                       00      |             .  |          lnk_comdat: false 0x2bd.3-0x2bd.3 (0.1)
0x002b0|                                       00      |             .  |          lnk_remove: false 0x2bd.4-0x2bd.4 (0.1)
0x002b0|                                       00      |             .  |          reserved3: false 0x2bd.5-0x2bd.5 (0.1)
0x002b0|                                       00      |             .  |          lnk_info: false 0x2bd.6-0x2bd.6 (0.1)
0x002b0|                                       00      |             .  |          lnk_other: false 0x2bd.7-0x2bd.7 (0.1)
0x002b0|                                          00   |              . |          align_128bytes: false 0x2be-0x2be (0.1)
0x002b0|                                          00   |              . |          align_8bytes: false 0x2be.1-0x2be.1 (0.1)
0x002b0|                                          00   |              . |          align_2bytes: false 0x2be.2-0x2be.2 (0.1)
0x002b0|                                          00   |              . |          align_1bytes: false 0x2be.3-0x2be.3 (0.1)
0x002b0|                                          00   |              . |          mem_preload: false 0x2be.4-0x2be.4 (0.1)
0x002b0|                                          00   |              . |          mem_locked: false 0x2be.5-0x2be.5 (0.1)
0x002b0|                                          00   |              . |          mem_16bit: false 0x2be.6-0x2be.6 (0.1)
0x002b0|                                          00   |              . |          mem_purgeable: false 0x2be.7-0x2be.7 (0.1)
0x002b0|                                             40|               @|          mem_write: false 0x2bf-0x2bf (0.1)
0x002b0|                                             40|               @|          mem_read: true 0x2bf.1-0x2bf.1 (0.1)
0x002b0|                                             40|               @|          mem_execute: false 0x2bf.2-0x2bf.2 (0.1)
0x002b0|                                             40|               @|          mem_shared: false 0x2bf.3-0x2bf.3 (0.1)
0x002b0|                                             40|               @|          mem_not_paged: false 0x2bf.4-0x2bf.4 (0.1)
0x002b0|                                             40|               @|          mem_not_cached: false 0x2bf.5-0x2bf.5 (0.1)
0x002b0|                                             40|               @|          mem_discardable: false 0x2bf.6-0x2bf.6 (0.1)
0x002b0|                                             40|               @|          lnk_nreloc_ovfl: false 0x2bf.7-0x2bf.7 (0.1)
0x4bc00|00 00 00 00 00 00 00 00 00 00 00 00 01 00 04 00|................|        data: raw bits 0x4bc00-0x541ff.7 (34304)
*      |until 0x541ff.7 (34304)                        |                |
       |                                               |                |      [5]{}: section 0x2c0-0x543ff.7 (344384)
0x002c0|2e 72 65 6c 6f 63 00 00                        |.reloc..        |        name: ".reloc" 0x2c0-0x2c7.7 (8)
0x002c0|                        24 01 00 00            |        $...    |        virtual_size: 292 0x2c8-0x2cb.7 (4)
0x002c0|                                    00 80 05 00|            ....|        virtual_address: 0x58000 0x2cc-0x2cf.7 (4)
0x002d0|00 02 00 00                                    |....            |        size_of_raw_data: 512 0x2d0-0x2d3.7 (4)
0x002d0|            00 42 05 00                        |    .B..        |        pointer_to_raw_data: 0x54200 0x2d4-0x2d7.7 (4)
0x002d0|                        00 00 00 00            |        ....    |        pointer_to_relocations: 0x0 0x2d8-0x2db.7 (4)
0x002d0|                                    00 00 00 00|            ....|        pointer_to_line_numbers: 0x0 0x2dc-0x2df.7 (4)
0x002e0|00 00                                          |..              |        number_of_relocations: 0 0x2e0-0x2e1.7 (2)
0x002e0|      00 00                                    |  ..            |        number_of_line_numbers: 0 0x2e2-0x2e3.7 (2)
       |                                               |                |        characteristics{}: 0x2e4-0x2e7.7 (4)
0x002e0|            40                                 |    @           |          cnt_uninitialized_data: false 0x2e4-0x2e4 (0.1)
0x002e0|            40                                 |    @           |          cnt_initialized_data: true 0x2e4.1-0x2e4.1 (0.1)
0x002e0|            40                                 |    @           |          cnt_code: false 0x2e4.2-0x2e4.2 (0.1)
0x002e0|            40                                 |    @           |          reserved: false 0x2e4.3-0x2e4.3 (0.1)
0x002e0|            40                                 |    @           |          type_no_pad: false 0x2e4.4-0x2e4.4 (0.1)
0x002e0|            40                                 |    @           |          reserved0: false 0x2e4.5-0x2e4.5 (0.1)
0x002e0|            40                                 |    @           |          reserved1: false 0x2e4.6-0x2e4.6 (0.1)
0x002e0|            40                                 |    @           |          reserved2: false 0x2e4.7-0x2e4.7 (0.1)
0x002e0|               00                              |     .          |          gprel: false 0x2e5-0x2e5 (0.1)
0x002e0|               00                              |     .          |          unknown0: false 0x2e5.1-0x2e5.1 (0.1)
0x002e0|               00                              |     .          |          unknown1: false 0x2e5.2-0x2e5.2 (0.1)
0x002e0|               00                              |     .          |          lnk_comdat: false 0x2e5.3-0x2e5.3 (0.1)
0x002e0|               00                              |     .          |          lnk_remove: false 0x2e5.4-0x2e5.4 (0.1)
0x002e0|               00                              |     .          |          reserved3: false 0x2e5.5-0x2e5.5 (0.1)
0x002e0|               00                              |     .          |          lnk_info: false 0x2e5.6-0x2e5.6 (0.1)
0x002e0|               00                              |     .          |          lnk_other: false 0x2e5.7-0x2e5.7 (0.1)
0x002e0|                  00                           |      .         |          align_128bytes: false 0x2e6-0x2e6 (0.1)
0x002e0|                  00                           |      .         |          align_8bytes: false 0x2e6.1-0x2e6.1 (0.1)
0x002e0|                  00                           |      .         |          align_2bytes: false 0x2e6.2-0x2e6.2 (0.1)
0x002e0|                  00                           |      .         |          align_1bytes: false 0x2e6.3-0x2e6.3 (0.1)
0x002e0|                  00                           |      .         |          mem_preload: false 0x2e6.4-0x2e6.4 (0.1)
0x002e0|                  00                           |      .         |          mem_locked: false 0x2e6.5-0x2e6.5 (0.1)
0x002e0|                  00                           |      .         |          mem_16bit: false 0x2e6.6-0x2e6.6 (0.1)
0x002e0|                  00                           |      .         |          mem_purgeable: false 0x2e6.7-0x2e6.7 (0.1)
0x002e0|                     42                        |       B        |          mem_write: false 0x2e7-0x2e7 (0.1)
0x002e0|                     42                        |       B        |          mem_read: true 0x2e7.1-0x2e7.1 (0.1)
0x002e0|                     42                        |       B        |          mem_execute: false 0x2e7.2-0x2e7.2 (0.1)
0x002e0|                     42                        |       B        |          mem_shared: false 0x2e7.3-0x2e7.3 (0.1)
0x002e0|                     42                        |       B        |          mem_not_paged: false 0x2e7.4-0x2e7.4 (0.1)
0x002e0|                     42                        |       B        |          mem_not_cached: false 0x2e7.5-0x2e7.5 (0.1)
0x002e0|                     42                        |       B        |          mem_discardable: true 0x2e7.6-0x2e7.6 (0.1)
0x002e0|                     42                        |       B        |          lnk_nreloc_ovfl: false 0x2e7.7-0x2e7.7 (0.1)
0x54200|00 90 02 00 14 00 00 00 10 aa 18 aa 30 aa c0 ae|............0...|        data: raw bits 0x54200-0x543ff.7 (512)
*      |until 0x543ff.7 (end) (512)                    |                |
0x002e0|                        37 c8 e7 4c 40 00 01 00|        7..L@...|  gap0: raw bits 0x2e8-0x3ff.7 (280)
0x002f0|f9 c8 e7 4c 4b 00 00 00 f9 c8 e7 4c 4b 00 00 00|...LK......LK...|
*      |until 0x3ff.7 (280)                            |                |
