$ fq dv pe-Windows-ARMv7-Thumb2LE-HelloWorld
      |00 01 02 03 04 05 06 07 08 09 0a 0b 0c 0d 0e 0f|0123456789abcdef|.{}: pe-Windows-ARMv7-Thumb2LE-HelloWorld (pe) 0x0-0x1a00 (6656)
      |00 01 02 03 04 05 06 07 08 09 0a 0b 0c 0d 0e 0f|0123456789abcdef|  ms_dos_stub{}: (msdos_stub) 0x0-0xf8 (248)
0x0000|4d 5a                                          |MZ              |    e_magic: 0x5a4d (valid) 0x0-0x2 (2)
0x0000|      90 00                                    |  ..            |    e_cblp: 144 (Bytes on last page of file) 0x2-0x4 (2)
0x0000|            03 00                              |    ..          |    e_cp: 3 (Pages in file) 0x4-0x6 (2)
0x0000|                  00 00                        |      ..        |    e_crlc: 0 (Relocations) 0x6-0x8 (2)
0x0000|                        04 00                  |        ..      |    e_cparhdr: 4 (Size of header in paragraphs) 0x8-0xa (2)
0x0000|                              00 00            |          ..    |    e_minalloc: 0 (Minimum extra paragraphs needed) 0xa-0xc (2)
0x0000|                                    ff ff      |            ..  |    e_maxalloc: 65535 (Maximum extra paragraphs needed) 0xc-0xe (2)
0x0000|                                          00 00|              ..|    e_ss: 0 (Initial (relative) SS value) 0xe-0x10 (2)
0x0010|b8 00                                          |..              |    e_sp: 184 (Initial SP value) 0x10-0x12 (2)
0x0010|      00 00                                    |  ..            |    e_csum: 0 (Checksum) 0x12-0x14 (2)
0x0010|            00 00                              |    ..          |    e_ip: 0 (Initial IP value) 0x14-0x16 (2)
0x0010|                  00 00                        |      ..        |    e_cs: 0 (Initial (relative) CS value) 0x16-0x18 (2)
0x0010|                        40 00                  |        @.      |    e_lfarlc: 64 (File address of relocation table) 0x18-0x1a (2)
0x0010|                              00 00            |          ..    |    e_ovno: 0 (Overlay number) 0x1a-0x1c (2)
0x0010|                                    00 00 00 00|            ....|    e_res: raw bits (Reserved words) 0x1c-0x24 (8)
0x0020|00 00 00 00                                    |....            |
0x0020|            00 00                              |    ..          |    e_oemid: 0 (OEM identifier (for e_oeminfo)) 0x24-0x26 (2)
0x0020|                  00 00                        |      ..        |    e_oeminfo: 0 (OEM information; e_oemid specific) 0x26-0x28 (2)
0x0020|                        00 00 00 00 00 00 00 00|        ........|    e_res2: raw bits (Reserved words) 0x28-0x3c (20)
0x0030|00 00 00 00 00 00 00 00 00 00 00 00            |............    |
0x0030|                                    f8 00 00 00|            ....|    e_lfanew: 248 (File address of new exe header) 0x3c-0x40 (4)
0x0040|0e 1f ba 0e 00 b4 09 cd 21 b8 01 4c cd 21 54 68|........!..L.!Th|    stub: raw bits (Sub program) 0x40-0x80 (64)
*     |until 0x7f.7 (64)                              |                |
0x0080|56 18 6d ac 12 79 03 ff 12 79 03 ff 12 79 03 ff|V.m..y...y...y..|    padding: raw bits 0x80-0xf8 (120)
*     |until 0xf7.7 (120)                             |                |
      |00 01 02 03 04 05 06 07 08 09 0a 0b 0c 0d 0e 0f|0123456789abcdef|  coff{}: (coff) 0xf8-0x2e0 (488)
0x00f0|                        50 45 00 00            |        PE..    |    signature: raw bits (valid) 0xf8-0xfc (4)
0x00f0|                                    c4 01      |            ..  |    machine: "armnt" (0x1c4) 0xfc-0xfe (2)
0x00f0|                                          06 00|              ..|    number_of_sections: 6 0xfe-0x100 (2)
0x0100|0d aa 6f 53                                    |..oS            |    time_date_stamp: 1399826957 (2014-05-11T16:49:17Z) 0x100-0x104 (4)
0x0100|            00 00 00 00                        |    ....        |    pointer_to_symbol_table: 0x0 0x104-0x108 (4)
0x0100|                        00 00 00 00            |        ....    |    number_of_symbols: 0 0x108-0x10c (4)
0x0100|                                    e0 00      |            ..  |    size_of_optional_header: 224 0x10c-0x10e (2)
      |                                               |                |    characteristics{}: 0x10e-0x110 (2)
0x0100|                                          22   |              " |      bytes_reversed_lo: false 0x10e-0x10e.1 (0.1)
0x0100|                                          22   |              " |      reserved: false 0x10e.1-0x10e.2 (0.1)
0x0100|                                          22   |              " |      large_address_aware: true 0x10e.2-0x10e.3 (0.1)
0x0100|                                          22   |              " |      aggressive_ws_trim: false 0x10e.3-0x10e.4 (0.1)
0x0100|                                          22   |              " |      local_syms_stripped: false 0x10e.4-0x10e.5 (0.1)
0x0100|                                          22   |              " |      line_nums_stripped: false 0x10e.5-0x10e.6 (0.1)
0x0100|                                          22   |              " |      executable_image: true 0x10e.6-0x10e.7 (0.1)
0x0100|                                          22   |              " |      relocs_stripped: false 0x10e.7-0x10f (0.1)
0x0100|                                             01|               .|      bytes_reversed_hi: false 0x10f-0x10f.1 (0.1)
0x0100|                                             01|               .|      up_system_only: false 0x10f.1-0x10f.2 (0.1)
0x0100|                                             01|               .|      dll: false 0x10f.2-0x10f.3 (0.1)
0x0100|                                             01|               .|      system: false 0x10f.3-0x10f.4 (0.1)
0x0100|                                             01|               .|      net_run_from_swap: false 0x10f.4-0x10f.5 (0.1)
0x0100|                                             01|               .|      removable_run_from_swap: false 0x10f.5-0x10f.6 (0.1)
0x0100|                                             01|               .|      debug_stripped: false 0x10f.6-0x10f.7 (0.1)
0x0100|                                             01|               .|      32bit_machine: true 0x10f.7-0x110 (0.1)
      |                                               |                |    optional_header{}: 0x110-0x1f0 (224)
0x0110|0b 01                                          |..              |      format: "pe32" (0x10b) 0x110-0x112 (2)
0x0110|      0b                                       |  .             |      major_linker_version: 11 0x112-0x113 (1)
0x0110|         00                                    |   .            |      minor_linker_version: 0 0x113-0x114 (1)
0x0110|            00 08 00 00                        |    ....        |      size_of_code: 2048 0x114-0x118 (4)
0x0110|                        00 10 00 00            |        ....    |      size_of_initialized_data: 4096 0x118-0x11c (4)
0x0110|                                    00 00 00 00|            ....|      size_of_uninitialized_data: 0 0x11c-0x120 (4)
0x0120|e5 12 00 00                                    |....            |      address_of_entry_point: 0x12e5 0x120-0x124 (4)
0x0120|            00 10 00 00                        |    ....        |      base_of_code: 0x1000 0x124-0x128 (4)
0x0120|                        00 20 00 00            |        . ..    |      base_of_data: 0x2000 0x128-0x12c (4)
0x0120|                                    00 00 40 00|            ..@.|      image_base: 0x400000 0x12c-0x130 (4)
0x0130|00 10 00 00                                    |....            |      section_alignment: 4096 0x130-0x134 (4)
0x0130|            00 02 00 00                        |    ....        |      file_alignment: 512 0x134-0x138 (4)
0x0130|                        06 00                  |        ..      |      major_os_version: 6 0x138-0x13a (2)
0x0130|                              02 00            |          ..    |      minor_os_version: 2 0x13a-0x13c (2)
0x0130|                                    00 00      |            ..  |      major_image_version: 0 0x13c-0x13e (2)
0x0130|                                          00 00|              ..|      minor_image_version: 0 0x13e-0x140 (2)
0x0140|06 00                                          |..              |      major_subsystem_version: 6 0x140-0x142 (2)
0x0140|      02 00                                    |  ..            |      minor_subsystem_version: 2 0x142-0x144 (2)
0x0140|            00 00 00 00                        |    ....        |      win32_version: 0 0x144-0x148 (4)
0x0140|                        00 70 00 00            |        .p..    |      size_of_image: 28672 0x148-0x14c (4)
0x0140|                                    00 04 00 00|            ....|      size_of_headers: 1024 0x14c-0x150 (4)
0x0150|00 00 00 00                                    |....            |      chunk_sum: 0x0 0x150-0x154 (4)
0x0150|            03 00                              |    ..          |      subsystem: "windows_cui" (3) 0x154-0x156 (2)
      |                                               |                |      dll_characteristics{}: 0x156-0x158 (2)
0x0150|                  40                           |      @         |        force_integrity: false 0x156-0x156.1 (0.1)
0x0150|                  40                           |      @         |        dynamic_base: true 0x156.1-0x156.2 (0.1)
0x0150|                  40                           |      @         |        high_entropy_va: false 0x156.2-0x156.3 (0.1)
0x0150|                  40                           |      @         |        reserved0: false 0x156.3-0x156.4 (0.1)
0x0150|                  40                           |      @         |        reserved1: false 0x156.4-0x156.5 (0.1)
0x0150|                  40                           |      @         |        reserved2: false 0x156.5-0x156.6 (0.1)
0x0150|                  40                           |      @         |        reserved3: false 0x156.6-0x156.7 (0.1)
0x0150|                  40                           |      @         |        reserved4: false 0x156.7-0x157 (0.1)
0x0150|                     81                        |       .        |        terminal_server_aware: true 0x157-0x157.1 (0.1)
0x0150|                     81                        |       .        |        guard_cf: false 0x157.1-0x157.2 (0.1)
0x0150|                     81                        |       .        |        wdm_driver: false 0x157.2-0x157.3 (0.1)
0x0150|                     81                        |       .        |        appcontainer: false 0x157.3-0x157.4 (0.1)
0x0150|                     81                        |       .        |        no_bind: false 0x157.4-0x157.5 (0.1)
0x0150|                     81                        |       .        |        no_seh: false 0x157.5-0x157.6 (0.1)
0x0150|                     81                        |       .        |        no_isolation: false 0x157.6-0x157.7 (0.1)
0x0150|                     81                        |       .        |        nx_compat: true 0x157.7-0x158 (0.1)
0x0150|                        00 00 10 00            |        ....    |      size_of_track_reserve: 1048576 0x158-0x15c (4)
0x0150|                                    00 10 00 00|            ....|      size_of_stack_commit: 4096 0x15c-0x160 (4)
0x0160|00 00 10 00                                    |....            |      size_of_heap_reserve: 1048576 0x160-0x164 (4)
0x0160|            00 10 00 00                        |    ....        |      size_of_heap_commit: 4096 0x164-0x168 (4)
0x0160|                        00 00 00 00            |        ....    |      loader_flags: 0 0x168-0x16c (4)
0x0160|                                    10 00 00 00|            ....|      number_of_rva_and_sizes: 16 0x16c-0x170 (4)
0x0170|00 00 00 00                                    |....            |      export_table_address: 0x0 0x170-0x174 (4)
0x0170|            00 00 00 00                        |    ....        |      export_table_size: 0 0x174-0x178 (4)
0x0170|                        f4 21 00 00            |        .!..    |      import_table_address: 0x21f4 0x178-0x17c (4)
0x0170|                                    3c 00 00 00|            <...|      import_table_size: 60 0x17c-0x180 (4)
0x0180|00 50 00 00                                    |.P..            |      resource_table_address: 0x5000 0x180-0x184 (4)
0x0180|            e0 01 00 00                        |    ....        |      resource_table_size: 480 0x184-0x188 (4)
0x0180|                        00 40 00 00            |        .@..    |      exception_table_address: 0x4000 0x188-0x18c (4)
0x0180|                                    90 00 00 00|            ....|      exception_table_size: 144 0x18c-0x190 (4)
0x0190|00 00 00 00                                    |....            |      certificate_table_address: 0x0 0x190-0x194 (4)
0x0190|            00 00 00 00                        |    ....        |      certificate_table_size: 0 0x194-0x198 (4)
0x0190|                        00 60 00 00            |        .`..    |      base_relocation_table_address: 0x6000 0x198-0x19c (4)
0x0190|                                    a8 00 00 00|            ....|      base_relocation_table_size: 168 0x19c-0x1a0 (4)
0x01a0|a0 20 00 00                                    |. ..            |      debug_address: 0x20a0 0x1a0-0x1a4 (4)
0x01a0|            38 00 00 00                        |    8...        |      debug_size: 56 0x1a4-0x1a8 (4)
0x01a0|                        00 00 00 00 00 00 00 00|        ........|      architecture: 0 0x1a8-0x1b0 (8)
0x01b0|00 00 00 00 00 00 00 00                        |........        |      global_ptr: 0x0 0x1b0-0x1b8 (8)
0x01b0|                        00 00 00 00            |        ....    |      tls_table_address: 0x0 0x1b8-0x1bc (4)
0x01b0|                                    00 00 00 00|            ....|      tls_table_size: 0 0x1bc-0x1c0 (4)
0x01c0|00 00 00 00                                    |....            |      load_config_table_address: 0x0 0x1c0-0x1c4 (4)
0x01c0|            00 00 00 00                        |    ....        |      load_config_table_size: 0 0x1c4-0x1c8 (4)
0x01c0|                        00 00 00 00            |        ....    |      bound_import_address: 0x0 0x1c8-0x1cc (4)
0x01c0|                                    00 00 00 00|            ....|      bound_import_size: 0 0x1cc-0x1d0 (4)
0x01d0|00 20 00 00                                    |. ..            |      iat_address: 0x2000 0x1d0-0x1d4 (4)
0x01d0|            80 00 00 00                        |    ....        |      iat_size: 128 0x1d4-0x1d8 (4)
0x01d0|                        00 00 00 00            |        ....    |      delay_import_descriptor_address: 0x0 0x1d8-0x1dc (4)
0x01d0|                                    00 00 00 00|            ....|      delay_import_descriptor_size: 0 0x1dc-0x1e0 (4)
0x01e0|00 00 00 00                                    |....            |      clr_runtime_header_address: 0x0 0x1e0-0x1e4 (4)
0x01e0|            00 00 00 00                        |    ....        |      clr_runtime_header_size: 0 0x1e4-0x1e8 (4)
0x01e0|                        00 00 00 00 00 00 00 00|        ........|      reserved: 0 0x1e8-0x1f0 (8)
      |                                               |                |      unknown: raw bits 0x1f0-0x1f0 (0)
      |                                               |                |    sections[0:6]: 0x1f0-0x2e0 (240)
      |                                               |                |      [0]{}: section 0x1f0-0x218 (40)
0x01f0|2e 74 65 78 74 00 00 00                        |.text...        |        name: ".text" 0x1f0-0x1f8 (8)
0x01f0|                        94 06 00 00            |        ....    |        virtual_size: 1684 0x1f8-0x1fc (4)
0x01f0|                                    00 10 00 00|            ....|        virtual_address: 0x1000 0x1fc-0x200 (4)
0x0200|00 08 00 00                                    |....            |        size_of_raw_data: 2048 0x200-0x204 (4)
0x0200|            00 04 00 00                        |    ....        |        pointer_to_raw_data: 0x400 0x204-0x208 (4)
0x0200|                        00 00 00 00            |        ....    |        pointer_to_relocations: 0x0 0x208-0x20c (4)
0x0200|                                    00 00 00 00|            ....|        pointer_to_line_numbers: 0x0 0x20c-0x210 (4)
0x0210|00 00                                          |..              |        number_of_relocations: 0 0x210-0x212 (2)
0x0210|      00 00                                    |  ..            |        number_of_line_numbers: 0 0x212-0x214 (2)
      |                                               |                |        characteristics{}: 0x214-0x218 (4)
0x0210|            20                                 |                |          cnt_uninitialized_data: false 0x214-0x214.1 (0.1)
0x0210|            20                                 |                |          cnt_initialized_data: false 0x214.1-0x214.2 (0.1)
0x0210|            20                                 |                |          cnt_code: true 0x214.2-0x214.3 (0.1)
0x0210|            20                                 |                |          reserved: false 0x214.3-0x214.4 (0.1)
0x0210|            20                                 |                |          type_no_pad: false 0x214.4-0x214.5 (0.1)
0x0210|            20                                 |                |          reserved0: false 0x214.5-0x214.6 (0.1)
0x0210|            20                                 |                |          reserved1: false 0x214.6-0x214.7 (0.1)
0x0210|            20                                 |                |          reserved2: false 0x214.7-0x215 (0.1)
0x0210|               00                              |     .          |          gprel: false 0x215-0x215.1 (0.1)
0x0210|               00                              |     .          |          unknown0: false 0x215.1-0x215.2 (0.1)
0x0210|               00                              |     .          |          unknown1: false 0x215.2-0x215.3 (0.1)
0x0210|               00                              |     .          |          lnk_comdat: false 0x215.3-0x215.4 (0.1)
0x0210|               00                              |     .          |          lnk_remove: false 0x215.4-0x215.5 (0.1)
0x0210|               00                              |     .          |          reserved3: false 0x215.5-0x215.6 (0.1)
0x0210|               00                              |     .          |          lnk_info: false 0x215.6-0x215.7 (0.1)
0x0210|               00                              |     .          |          lnk_other: false 0x215.7-0x216 (0.1)
0x0210|                  00                           |      .         |          align_128bytes: false 0x216-0x216.1 (0.1)
0x0210|                  00                           |      .         |          align_8bytes: false 0x216.1-0x216.2 (0.1)
0x0210|                  00                           |      .         |          align_2bytes: false 0x216.2-0x216.3 (0.1)
0x0210|                  00                           |      .         |          align_1bytes: false 0x216.3-0x216.4 (0.1)
0x0210|                  00                           |      .         |          mem_preload: false 0x216.4-0x216.5 (0.1)
0x0210|                  00                           |      .         |          mem_locked: false 0x216.5-0x216.6 (0.1)
0x0210|                  00                           |      .         |          mem_16bit: false 0x216.6-0x216.7 (0.1)
0x0210|                  00                           |      .         |          mem_purgeable: false 0x216.7-0x217 (0.1)
0x0210|                     60                        |       `        |          mem_write: false 0x217-0x217.1 (0.1)
0x0210|                     60                        |       `        |          mem_read: true 0x217.1-0x217.2 (0.1)
0x0210|                     60                        |       `        |          mem_execute: true 0x217.2-0x217.3 (0.1)
0x0210|                     60                        |       `        |          mem_shared: false 0x217.3-0x217.4 (0.1)
0x0210|                     60                        |       `        |          mem_not_paged: false 0x217.4-0x217.5 (0.1)
0x0210|                     60                        |       `        |          mem_not_cached: false 0x217.5-0x217.6 (0.1)
0x0210|                     60                        |       `        |          mem_discardable: false 0x217.6-0x217.7 (0.1)
0x0210|                     60                        |       `        |          lnk_nreloc_ovfl: false 0x217.7-0x218 (0.1)
      |                                               |                |      [1]{}: section 0x218-0x240 (40)
0x0210|                        2e 72 64 61 74 61 00 00|        .rdata..|        name: ".rdata" 0x218-0x220 (8)
0x0220|ae 04 00 00                                    |....            |        virtual_size: 1198 0x220-0x224 (4)
0x0220|            00 20 00 00                        |    . ..        |        virtual_address: 0x2000 0x224-0x228 (4)
0x0220|                        00 06 00 00            |        ....    |        size_of_raw_data: 1536 0x228-0x22c (4)
0x0220|                                    00 0c 00 00|            ....|        pointer_to_raw_data: 0xc00 0x22c-0x230 (4)
0x0230|00 00 00 00                                    |....            |        pointer_to_relocations: 0x0 0x230-0x234 (4)
0x0230|            00 00 00 00                        |    ....        |        pointer_to_line_numbers: 0x0 0x234-0x238 (4)
0x0230|                        00 00                  |        ..      |        number_of_relocations: 0 0x238-0x23a (2)
0x0230|                              00 00            |          ..    |        number_of_line_numbers: 0 0x23a-0x23c (2)
      |                                               |                |        characteristics{}: 0x23c-0x240 (4)
0x0230|                                    40         |            @   |          cnt_uninitialized_data: false 0x23c-0x23c.1 (0.1)
0x0230|                                    40         |            @   |          cnt_initialized_data: true 0x23c.1-0x23c.2 (0.1)
0x0230|                                    40         |            @   |          cnt_code: false 0x23c.2-0x23c.3 (0.1)
0x0230|                                    40         |            @   |          reserved: false 0x23c.3-0x23c.4 (0.1)
0x0230|                                    40         |            @   |          type_no_pad: false 0x23c.4-0x23c.5 (0.1)
0x0230|                                    40         |            @   |          reserved0: false 0x23c.5-0x23c.6 (0.1)
0x0230|                                    40         |            @   |          reserved1: false 0x23c.6-0x23c.7 (0.1)
0x0230|                                    40         |            @   |          reserved2: false 0x23c.7-0x23d (0.1)
0x0230|                                       00      |             .  |          gprel: false 0x23d-0x23d.1 (0.1)
0x0230|                                       00      |             .  |          unknown0: false 0x23d.1-0x23d.2 (0.1)
0x0230|                                       00      |             .  |          unknown1: false 0x23d.2-0x23d.3 (0.1)
0x0230|                                       00      |             .  |          lnk_comdat: false 0x23d.3-0x23d.4 (0.1)
0x0230|                                       00      |             .  |          lnk_remove: false 0x23d.4-0x23d.5 (0.1)
0x0230|                                       00      |             .  |          reserved3: false 0x23d.5-0x23d.6 (0.1)
0x0230|                                       00      |             .  |          lnk_info: false 0x23d.6-0x23d.7 (0.1)
0x0230|                                       00      |             .  |          lnk_other: false 0x23d.7-0x23e (0.1)
0x0230|                                          00   |              . |          align_128bytes: false 0x23e-0x23e.1 (0.1)
0x0230|                                          00   |              . |          align_8bytes: false 0x23e.1-0x23e.2 (0.1)
0x0230|                                          00   |              . |          align_2bytes: false 0x23e.2-0x23e.3 (0.1)
0x0230|                                          00   |              . |          align_1bytes: false 0x23e.3-0x23e.4 (0.1)
0x0230|                                          00   |              . |          mem_preload: false 0x23e.4-0x23e.5 (0.1)
0x0230|                                          00   |              . |          mem_locked: false 0x23e.5-0x23e.6 (0.1)
0x0230|                                          00   |              . |          mem_16bit: false 0x23e.6-0x23e.7 (0.1)
0x0230|                                          00   |              . |          mem_purgeable: false 0x23e.7-0x23f (0.1)
0x0230|                                             40|               @|          mem_write: false 0x23f-0x23f.1 (0.1)
0x0230|                                             40|               @|          mem_read: true 0x23f.1-0x23f.2 (0.1)
0x0230|                                             40|               @|          mem_execute: false 0x23f.2-0x23f.3 (0.1)
0x0230|                                             40|               @|          mem_shared: false 0x23f.3-0x23f.4 (0.1)
0x0230|                                             40|               @|          mem_not_paged: false 0x23f.4-0x23f.5 (0.1)
0x0230|                                             40|               @|          mem_not_cached: false 0x23f.5-0x23f.6 (0.1)
0x0230|                                             40|               @|          mem_discardable: false 0x23f.6-0x23f.7 (0.1)
0x0230|                                             40|               @|          lnk_nreloc_ovfl: false 0x23f.7-0x240 (0.1)
      |                                               |                |      [2]{}: section 0x240-0x268 (40)
0x0240|2e 64 61 74 61 00 00 00                        |.data...        |        name: ".data" 0x240-0x248 (8)
0x0240|                        4c 02 00 00            |        L...    |        virtual_size: 588 0x248-0x24c (4)
0x0240|                                    00 30 00 00|            .0..|        virtual_address: 0x3000 0x24c-0x250 (4)
0x0250|00 02 00 00                                    |....            |        size_of_raw_data: 512 0x250-0x254 (4)
0x0250|            00 12 00 00                        |    ....        |        pointer_to_raw_data: 0x1200 0x254-0x258 (4)
0x0250|                        00 00 00 00            |        ....    |        pointer_to_relocations: 0x0 0x258-0x25c (4)
0x0250|                                    00 00 00 00|            ....|        pointer_to_line_numbers: 0x0 0x25c-0x260 (4)
0x0260|00 00                                          |..              |        number_of_relocations: 0 0x260-0x262 (2)
0x0260|      00 00                                    |  ..            |        number_of_line_numbers: 0 0x262-0x264 (2)
      |                                               |                |        characteristics{}: 0x264-0x268 (4)
0x0260|            40                                 |    @           |          cnt_uninitialized_data: false 0x264-0x264.1 (0.1)
0x0260|            40                                 |    @           |          cnt_initialized_data: true 0x264.1-0x264.2 (0.1)
0x0260|            40                                 |    @           |          cnt_code: false 0x264.2-0x264.3 (0.1)
0x0260|            40                                 |    @           |          reserved: false 0x264.3-0x264.4 (0.1)
0x0260|            40                                 |    @           |          type_no_pad: false 0x264.4-0x264.5 (0.1)
0x0260|            40                                 |    @           |          reserved0: false 0x264.5-0x264.6 (0.1)
0x0260|            40                                 |    @           |          reserved1: false 0x264.6-0x264.7 (0.1)
0x0260|            40                                 |    @           |          reserved2: false 0x264.7-0x265 (0.1)
0x0260|               00                              |     .          |          gprel: false 0x265-0x265.1 (0.1)
0x0260|               00                              |     .          |          unknown0: false 0x265.1-0x265.2 (0.1)
0x0260|               00                              |     .          |          unknown1: false 0x265.2-0x265.3 (0.1)
0x0260|               00                              |     .          |          lnk_comdat: false 0x265.3-0x265.4 (0.1)
0x0260|               00                              |     .          |          lnk_remove: false 0x265.4-0x265.5 (0.1)
0x0260|               00                              |     .          |          reserved3: false 0x265.5-0x265.6 (0.1)
0x0260|               00                              |     .          |          lnk_info: false 0x265.6-0x265.7 (0.1)
0x0260|               00                              |     .          |          lnk_other: false 0x265.7-0x266 (0.1)
0x0260|                  00                           |      .         |          align_128bytes: false 0x266-0x266.1 (0.1)
0x0260|                  00                           |      .         |          align_8bytes: false 0x266.1-0x266.2 (0.1)
0x0260|                  00                           |      .         |          align_2bytes: false 0x266.2-0x266.3 (0.1)
0x0260|                  00                           |      .         |          align_1bytes: false 0x266.3-0x266.4 (0.1)
0x0260|                  00                           |      .         |          mem_preload: false 0x266.4-0x266.5 (0.1)
0x0260|                  00                           |      .         |          mem_locked: false 0x266.5-0x266.6 (0.1)
0x0260|                  00                           |      .         |          mem_16bit: false 0x266.6-0x266.7 (0.1)
0x0260|                  00                           |      .         |          mem_purgeable: false 0x266.7-0x267 (0.1)
0x0260|                     c0                        |       .        |          mem_write: true 0x267-0x267.1 (0.1)
0x0260|                     c0                        |       .        |          mem_read: true 0x267.1-0x267.2 (0.1)
0x0260|                     c0                        |       .        |          mem_execute: false 0x267.2-0x267.3 (0.1)
0x0260|                     c0                        |       .        |          mem_shared: false 0x267.3-0x267.4 (0.1)
0x0260|                     c0                        |       .        |          mem_not_paged: false 0x267.4-0x267.5 (0.1)
0x0260|                     c0                        |       .        |          mem_not_cached: false 0x267.5-0x267.6 (0.1)
0x0260|                     c0                        |       .        |          mem_discardable: false 0x267.6-0x267.7 (0.1)
0x0260|                     c0                        |       .        |          lnk_nreloc_ovfl: false 0x267.7-0x268 (0.1)
      |                                               |                |      [3]{}: section 0x268-0x290 (40)
0x0260|                        2e 70 64 61 74 61 00 00|        .pdata..|        name: ".pdata" 0x268-0x270 (8)
0x0270|90 00 00 00                                    |....            |        virtual_size: 144 0x270-0x274 (4)
0x0270|            00 40 00 00                        |    .@..        |        virtual_address: 0x4000 0x274-0x278 (4)
0x0270|                        00 02 00 00            |        ....    |        size_of_raw_data: 512 0x278-0x27c (4)
0x0270|                                    00 14 00 00|            ....|        pointer_to_raw_data: 0x1400 0x27c-0x280 (4)
0x0280|00 00 00 00                                    |....            |        pointer_to_relocations: 0x0 0x280-0x284 (4)
0x0280|            00 00 00 00                        |    ....        |        pointer_to_line_numbers: 0x0 0x284-0x288 (4)
0x0280|                        00 00                  |        ..      |        number_of_relocations: 0 0x288-0x28a (2)
0x0280|                              00 00            |          ..    |        number_of_line_numbers: 0 0x28a-0x28c (2)
      |                                               |                |        characteristics{}: 0x28c-0x290 (4)
0x0280|                                    40         |            @   |          cnt_uninitialized_data: false 0x28c-0x28c.1 (0.1)
0x0280|                                    40         |            @   |          cnt_initialized_data: true 0x28c.1-0x28c.2 (0.1)
0x0280|                                    40         |            @   |          cnt_code: false 0x28c.2-0x28c.3 (0.1)
0x0280|                                    40         |            @   |          reserved: false 0x28c.3-0x28c.4 (0.1)
0x0280|                                    40         |            @   |          type_no_pad: false 0x28c.4-0x28c.5 (0.1)
0x0280|                                    40         |            @   |          reserved0: false 0x28c.5-0x28c.6 (0.1)
0x0280|                                    40         |            @   |          reserved1: false 0x28c.6-0x28c.7 (0.1)
0x0280|                                    40         |            @   |          reserved2: false 0x28c.7-0x28d (0.1)
0x0280|                                       00      |             .  |          gprel: false 0x28d-0x28d.1 (0.1)
0x0280|                                       00      |             .  |          unknown0: false 0x28d.1-0x28d.2 (0.1)
0x0280|                                       00      |             .  |          unknown1: false 0x28d.2-0x28d.3 (0.1)
0x0280|                                       00      |             .  |          lnk_comdat: false 0x28d.3-0x28d.4 (0.1)
0x0280|                                       00      |             .  |          lnk_remove: false 0x28d.4-0x28d.5 (0.1)
0x0280|                                       00      |             .  |          reserved3: false 0x28d.5-0x28d.6 (0.1)
0x0280|                                       00      |             .  |          lnk_info: false 0x28d.6-0x28d.7 (0.1)
0x0280|                                       00      |             .  |          lnk_other: false 0x28d.7-0x28e (0.1)
0x0280|                                          00   |              . |          align_128bytes: false 0x28e-0x28e.1 (0.1)
0x0280|                                          00   |              . |          align_8bytes: false 0x28e.1-0x28e.2 (0.1)
0x0280|                                          00   |              . |          align_2bytes: false 0x28e.2-0x28e.3 (0.1)
0x0280|                                          00   |              . |          align_1bytes: false 0x28e.3-0x28e.4 (0.1)
0x0280|                                          00   |              . |          mem_preload: false 0x28e.4-0x28e.5 (0.1)
0x0280|                                          00   |              . |          mem_locked: false 0x28e.5-0x28e.6 (0.1)
0x0280|                                          00   |              . |          mem_16bit: false 0x28e.6-0x28e.7 (0.1)
0x0280|                                          00   |              . |          mem_purgeable: false 0x28e.7-0x28f (0.1)
0x0280|                                             40|               @|          mem_write: false 0x28f-0x28f.1 (0.1)
0x0280|                                             40|               @|          mem_read: true 0x28f.1-0x28f.2 (0.1)
0x0280|                                             40|               @|          mem_execute: false 0x28f.2-0x28f.3 (0.1)
0x0280|                                             40|               @|          mem_shared: false 0x28f.3-0x28f.4 (0.1)
0x0280|                                             40|               @|          mem_not_paged: false 0x28f.4-0x28f.5 (0.1)
0x0280|                                             40|               @|          mem_not_cached: false 0x28f.5-0x28f.6 (0.1)
0x0280|                                             40|               @|          mem_discardable: false 0x28f.6-0x28f.7 (0.1)
0x0280|                                             40|               @|          lnk_nreloc_ovfl: false 0x28f.7-0x290 (0.1)
      |                                               |                |      [4]{}: section 0x290-0x2b8 (40)
0x0290|2e 72 73 72 63 00 00 00                        |.rsrc...        |        name: ".rsrc" 0x290-0x298 (8)
0x0290|                        e0 01 00 00            |        ....    |        virtual_size: 480 0x298-0x29c (4)
0x0290|                                    00 50 00 00|            .P..|        virtual_address: 0x5000 0x29c-0x2a0 (4)
0x02a0|00 02 00 00                                    |....            |        size_of_raw_data: 512 0x2a0-0x2a4 (4)
0x02a0|            00 16 00 00                        |    ....        |        pointer_to_raw_data: 0x1600 0x2a4-0x2a8 (4)
0x02a0|                        00 00 00 00            |        ....    |        pointer_to_relocations: 0x0 0x2a8-0x2ac (4)
0x02a0|                                    00 00 00 00|            ....|        pointer_to_line_numbers: 0x0 0x2ac-0x2b0 (4)
0x02b0|00 00                                          |..              |        number_of_relocations: 0 0x2b0-0x2b2 (2)
0x02b0|      00 00                                    |  ..            |        number_of_line_numbers: 0 0x2b2-0x2b4 (2)
      |                                               |                |        characteristics{}: 0x2b4-0x2b8 (4)
0x02b0|            40                                 |    @           |          cnt_uninitialized_data: false 0x2b4-0x2b4.1 (0.1)
0x02b0|            40                                 |    @           |          cnt_initialized_data: true 0x2b4.1-0x2b4.2 (0.1)
0x02b0|            40                                 |    @           |          cnt_code: false 0x2b4.2-0x2b4.3 (0.1)
0x02b0|            40                                 |    @           |          reserved: false 0x2b4.3-0x2b4.4 (0.1)
0x02b0|            40                                 |    @           |          type_no_pad: false 0x2b4.4-0x2b4.5 (0.1)
0x02b0|            40                                 |    @           |          reserved0: false 0x2b4.5-0x2b4.6 (0.1)
0x02b0|            40                                 |    @           |          reserved1: false 0x2b4.6-0x2b4.7 (0.1)
0x02b0|            40                                 |    @           |          reserved2: false 0x2b4.7-0x2b5 (0.1)
0x02b0|               00                              |     .          |          gprel: false 0x2b5-0x2b5.1 (0.1)
0x02b0|               00                              |     .          |          unknown0: false 0x2b5.1-0x2b5.2 (0.1)
0x02b0|               00                              |     .          |          unknown1: false 0x2b5.2-0x2b5.3 (0.1)
0x02b0|               00                              |     .          |          lnk_comdat: false 0x2b5.3-0x2b5.4 (0.1)
0x02b0|               00                              |     .          |          lnk_remove: false 0x2b5.4-0x2b5.5 (0.1)
0x02b0|               00                              |     .          |          reserved3: false 0x2b5.5-0x2b5.6 (0.1)
0x02b0|               00                              |     .          |          lnk_info: false 0x2b5.6-0x2b5.7 (0.1)
0x02b0|               00                              |     .          |          lnk_other: false 0x2b5.7-0x2b6 (0.1)
0x02b0|                  00                           |      .         |          align_128bytes: false 0x2b6-0x2b6.1 (0.1)
0x02b0|                  00                           |      .         |          align_8bytes: false 0x2b6.1-0x2b6.2 (0.1)
0x02b0|                  00                           |      .         |          align_2bytes: false 0x2b6.2-0x2b6.3 (0.1)
0x02b0|                  00                           |      .         |          align_1bytes: false 0x2b6.3-0x2b6.4 (0.1)
0x02b0|                  00                           |      .         |          mem_preload: false 0x2b6.4-0x2b6.5 (0.1)
0x02b0|                  00                           |      .         |          mem_locked: false 0x2b6.5-0x2b6.6 (0.1)
0x02b0|                  00                           |      .         |          mem_16bit: false 0x2b6.6-0x2b6.7 (0.1)
0x02b0|                  00                           |      .         |          mem_purgeable: false 0x2b6.7-0x2b7 (0.1)
0x02b0|                     40                        |       @        |          mem_write: false 0x2b7-0x2b7.1 (0.1)
0x02b0|                     40                        |       @        |          mem_read: true 0x2b7.1-0x2b7.2 (0.1)
0x02b0|                     40                        |       @        |          mem_execute: false 0x2b7.2-0x2b7.3 (0.1)
0x02b0|                     40                        |       @        |          mem_shared: false 0x2b7.3-0x2b7.4 (0.1)
0x02b0|                     40                        |       @        |          mem_not_paged: false 0x2b7.4-0x2b7.5 (0.1)
0x02b0|                     40                        |       @        |          mem_not_cached: false 0x2b7.5-0x2b7.6 (0.1)
0x02b0|                     40                        |       @        |          mem_discardable: false 0x2b7.6-0x2b7.7 (0.1)
0x02b0|                     40                        |       @        |          lnk_nreloc_ovfl: false 0x2b7.7-0x2b8 (0.1)
      |                                               |                |      [5]{}: section 0x2b8-0x2e0 (40)
0x02b0|                        2e 72 65 6c 6f 63 00 00|        .reloc..|        name: ".reloc" 0x2b8-0x2c0 (8)
0x02c0|9e 01 00 00                                    |....            |        virtual_size: 414 0x2c0-0x2c4 (4)
0x02c0|            00 60 00 00                        |    .`..        |        virtual_address: 0x6000 0x2c4-0x2c8 (4)
0x02c0|                        00 02 00 00            |        ....    |        size_of_raw_data: 512 0x2c8-0x2cc (4)
0x02c0|                                    00 18 00 00|            ....|        pointer_to_raw_data: 0x1800 0x2cc-0x2d0 (4)
0x02d0|00 00 00 00                                    |....            |        pointer_to_relocations: 0x0 0x2d0-0x2d4 (4)
0x02d0|            00 00 00 00                        |    ....        |        pointer_to_line_numbers: 0x0 0x2d4-0x2d8 (4)
0x02d0|                        00 00                  |        ..      |        number_of_relocations: 0 0x2d8-0x2da (2)
0x02d0|                              00 00            |          ..    |        number_of_line_numbers: 0 0x2da-0x2dc (2)
      |                                               |                |        characteristics{}: 0x2dc-0x2e0 (4)
0x02d0|                                    40         |            @   |          cnt_uninitialized_data: false 0x2dc-0x2dc.1 (0.1)
0x02d0|                                    40         |            @   |          cnt_initialized_data: true 0x2dc.1-0x2dc.2 (0.1)
0x02d0|                                    40         |            @   |          cnt_code: false 0x2dc.2-0x2dc.3 (0.1)
0x02d0|                                    40         |            @   |          reserved: false 0x2dc.3-0x2dc.4 (0.1)
0x02d0|                                    40         |            @   |          type_no_pad: false 0x2dc.4-0x2dc.5 (0.1)
0x02d0|                                    40         |            @   |          reserved0: false 0x2dc.5-0x2dc.6 (0.1)
0x02d0|                                    40         |            @   |          reserved1: false 0x2dc.6-0x2dc.7 (0.1)
0x02d0|                                    40         |            @   |          reserved2: false 0x2dc.7-0x2dd (0.1)
0x02d0|                                       00      |             .  |          gprel: false 0x2dd-0x2dd.1 (0.1)
0x02d0|                                       00      |             .  |          unknown0: false 0x2dd.1-0x2dd.2 (0.1)
0x02d0|                                       00      |             .  |          unknown1: false 0x2dd.2-0x2dd.3 (0.1)
0x02d0|                                       00      |             .  |          lnk_comdat: false 0x2dd.3-0x2dd.4 (0.1)
0x02d0|                                       00      |             .  |          lnk_remove: false 0x2dd.4-0x2dd.5 (0.1)
0x02d0|                                       00      |             .  |          reserved3: false 0x2dd.5-0x2dd.6 (0.1)
0x02d0|                                       00      |             .  |          lnk_info: false 0x2dd.6-0x2dd.7 (0.1)
0x02d0|                                       00      |             .  |          lnk_other: false 0x2dd.7-0x2de (0.1)
0x02d0|                                          00   |              . |          align_128bytes: false 0x2de-0x2de.1 (0.1)
0x02d0|                                          00   |              . |          align_8bytes: false 0x2de.1-0x2de.2 (0.1)
0x02d0|                                          00   |              . |          align_2bytes: false 0x2de.2-0x2de.3 (0.1)
0x02d0|                                          00   |              . |          align_1bytes: false 0x2de.3-0x2de.4 (0.1)
0x02d0|                                          00   |              . |          mem_preload: false 0x2de.4-0x2de.5 (0.1)
0x02d0|                                          00   |              . |          mem_locked: false 0x2de.5-0x2de.6 (0.1)
0x02d0|                                          00   |              . |          mem_16bit: false 0x2de.6-0x2de.7 (0.1)
0x02d0|                                          00   |              . |          mem_purgeable: false 0x2de.7-0x2df (0.1)
0x02d0|                                             42|               B|          mem_write: false 0x2df-0x2df.1 (0.1)
0x02d0|                                             42|               B|          mem_read: true 0x2df.1-0x2df.2 (0.1)
0x02d0|                                             42|               B|          mem_execute: false 0x2df.2-0x2df.3 (0.1)
0x02d0|                                             42|               B|          mem_shared: false 0x2df.3-0x2df.4 (0.1)
0x02d0|                                             42|               B|          mem_not_paged: false 0x2df.4-0x2df.5 (0.1)
0x02d0|                                             42|               B|          mem_not_cached: false 0x2df.5-0x2df.6 (0.1)
0x02d0|                                             42|               B|          mem_discardable: true 0x2df.6-0x2df.7 (0.1)
0x02d0|                                             42|               B|          lnk_nreloc_ovfl: false 0x2df.7-0x2e0 (0.1)
0x02e0|00 00 00 00 00 00 00 00 00 00 00 00 00 00 00 00|................|  gap0: raw bits 0x2e0-0x1a00 (5920)
*     |until 0x19ff.7 (end) (5920)                    |                |
