# AVIF HDR image with P3 color space and AV1 codec
# https://github.com/AOMediaCodec/libavif/blob/main/tests/data/colors_hdr_p3.avif
$ fq -d heif dv colors_hdr_p3.avif
      |00 01 02 03 04 05 06 07 08 09 0a 0b 0c 0d 0e 0f|0123456789abcdef|.{}: colors_hdr_p3.avif (heif) 0x0-0x67a4 (26532)
      |                                               |                |  boxes[0:3]: 0x0-0x67a4 (26532)
      |                                               |                |    [0]{}: box 0x0-0x20 (32)
0x0000|00 00 00 20                                    |...             |      size: 32 0x0-0x4 (4)
0x0000|            66 74 79 70                        |    ftyp        |      type: "ftyp" (File type and compatibility) 0x4-0x8 (4)
0x0000|                        61 76 69 66            |        avif    |      major_brand: "avif" 0x8-0xc (4)
0x0000|                                    00 00 00 00|            ....|      minor_version: 0 0xc-0x10 (4)
      |                                               |                |      brands[0:4]: 0x10-0x20 (16)
0x0010|61 76 69 66                                    |avif            |        [0]: "avif" brand (AV1 Image File Format (.AVIF)) 0x10-0x14 (4)
0x0010|            6d 69 66 31                        |    mif1        |        [1]: "mif1" brand (High Efficiency Image Format still image (.HEIF)) 0x14-0x18 (4)
0x0010|                        6d 69 61 66            |        miaf    |        [2]: "miaf" brand 0x18-0x1c (4)
0x0010|                                    4d 41 31 41|            MA1A|        [3]: "MA1A" brand 0x1c-0x20 (4)
      |                                               |                |    [1]{}: box 0x20-0x2a7 (647)
0x0020|00 00 02 87                                    |....            |      size: 647 0x20-0x24 (4)
0x0020|            6d 65 74 61                        |    meta        |      type: "meta" (Metadata container) 0x24-0x28 (4)
0x0020|                        00 00 00 00            |        ....    |      maybe_flags: 0 0x28-0x2c (4)
      |                                               |                |      boxes[0:6]: 0x2c-0x2a7 (635)
      |                                               |                |        [0]{}: box 0x2c-0x5f (51)
0x0020|                                    00 00 00 33|            ...3|          size: 51 0x2c-0x30 (4)
0x0030|68 64 6c 72                                    |hdlr            |          type: "hdlr" (Handler, declares the media (handler) type) 0x30-0x34 (4)
0x0030|            00                                 |    .           |          version: 0 0x34-0x35 (1)
0x0030|               00 00 00                        |     ...        |          flags: 0 0x35-0x38 (3)
0x0030|                        00 00 00 00            |        ....    |          component_type: "" 0x38-0x3c (4)
0x0030|                                    70 69 63 74|            pict|          component_subtype: "pict" (Picture) 0x3c-0x40 (4)
0x0040|00 00 00 00                                    |....            |          component_manufacturer: "" 0x40-0x44 (4)
0x0040|            00 00 00 00                        |    ....        |          component_flags: 0 0x44-0x48 (4)
0x0040|                        00 00 00 00            |        ....    |          component_flags_mask: 0 0x48-0x4c (4)
0x0040|                                    41 56 49 46|            AVIF|          component_name: "AVIF Still Picture" 0x4c-0x5f (19)
0x0050|20 53 74 69 6c 6c 20 50 69 63 74 75 72 65 00   | Still Picture. |
      |                                               |                |        [1]{}: box 0x5f-0x6d (14)
0x0050|                                             00|               .|          size: 14 0x5f-0x63 (4)
0x0060|00 00 0e                                       |...             |
0x0060|         70 69 74 6d                           |   pitm         |          type: "pitm" (Primary item reference) 0x63-0x67 (4)
0x0060|                     00                        |       .        |          version: 0 0x67-0x68 (1)
0x0060|                        00 00 00               |        ...     |          flags: 0 0x68-0x6b (3)
0x0060|                                 00 01         |           ..   |          item_id: 1 0x6b-0x6d (2)
      |                                               |                |        [2]{}: box 0x6d-0x122 (181)
0x0060|                                       00 00 00|             ...|          size: 181 0x6d-0x71 (4)
0x0070|b5                                             |.               |
0x0070|   69 69 6e 66                                 | iinf           |          type: "iinf" (Item information) 0x71-0x75 (4)
0x0070|               00                              |     .          |          version: 0 0x75-0x76 (1)
0x0070|                  00 00 00                     |      ...       |          flags: 0 0x76-0x79 (3)
0x0070|                           00 05               |         ..     |          entry_count: 5 0x79-0x7b (2)
      |                                               |                |          boxes[0:5]: 0x7b-0x122 (167)
      |                                               |                |            [0]{}: box 0x7b-0x95 (26)
0x0070|                                 00 00 00 1a   |           .... |              size: 26 0x7b-0x7f (4)
0x0070|                                             69|               i|              type: "infe" (Item information entry) 0x7f-0x83 (4)
0x0080|6e 66 65                                       |nfe             |
0x0080|         02                                    |   .            |              version: 2 0x83-0x84 (1)
0x0080|            00 00 00                           |    ...         |              flags: 0 0x84-0x87 (3)
0x0080|                     00 01                     |       ..       |              item_id: 1 0x87-0x89 (2)
0x0080|                           00 00               |         ..     |              item_protection_index: 0 0x89-0x8b (2)
0x0080|                                 61 76 30 31   |           av01 |              item_type: "av01" 0x8b-0x8f (4)
0x0080|                                             43|               C|              item_name: "Color" 0x8f-0x95 (6)
0x0090|6f 6c 6f 72 00                                 |olor.           |
      |                                               |                |            [1]{}: box 0x95-0xae (25)
0x0090|               00 00 00 19                     |     ....       |              size: 25 0x95-0x99 (4)
0x0090|                           69 6e 66 65         |         infe   |              type: "infe" (Item information entry) 0x99-0x9d (4)
0x0090|                                       02      |             .  |              version: 2 0x9d-0x9e (1)
0x0090|                                          00 00|              ..|              flags: 0 0x9e-0xa1 (3)
0x00a0|00                                             |.               |
0x00a0|   00 02                                       | ..             |              item_id: 2 0xa1-0xa3 (2)
0x00a0|         00 00                                 |   ..           |              item_protection_index: 0 0xa3-0xa5 (2)
0x00a0|               45 78 69 66                     |     Exif       |              item_type: "Exif" 0xa5-0xa9 (4)
0x00a0|                           45 78 69 66 00      |         Exif.  |              item_name: "Exif" 0xa9-0xae (5)
      |                                               |                |            [2]{}: box 0xae-0xdb (45)
0x00a0|                                          00 00|              ..|              size: 45 0xae-0xb2 (4)
0x00b0|00 2d                                          |.-              |
0x00b0|      69 6e 66 65                              |  infe          |              type: "infe" (Item information entry) 0xb2-0xb6 (4)
0x00b0|                  02                           |      .         |              version: 2 0xb6-0xb7 (1)
0x00b0|                     00 00 00                  |       ...      |              flags: 0 0xb7-0xba (3)
0x00b0|                              00 03            |          ..    |              item_id: 3 0xba-0xbc (2)
0x00b0|                                    00 00      |            ..  |              item_protection_index: 0 0xbc-0xbe (2)
0x00b0|                                          6d 69|              mi|              item_type: "mime" 0xbe-0xc2 (4)
0x00c0|6d 65                                          |me              |
0x00c0|      58 4d 50 00                              |  XMP.          |              item_name: "XMP" 0xc2-0xc6 (4)
0x00c0|                  61 70 70 6c 69 63 61 74 69 6f|      applicatio|              content_type: "application/rdf+xml" 0xc6-0xda (20)
0x00d0|6e 2f 72 64 66 2b 78 6d 6c 00                  |n/rdf+xml.      |
0x00d0|                              00               |          .     |              content_encoding: "" 0xda-0xdb (1)
      |                                               |                |            [3]{}: box 0xdb-0xf5 (26)
0x00d0|                                 00 00 00 1a   |           .... |              size: 26 0xdb-0xdf (4)
0x00d0|                                             69|               i|              type: "infe" (Item information entry) 0xdf-0xe3 (4)
0x00e0|6e 66 65                                       |nfe             |
0x00e0|         02                                    |   .            |              version: 2 0xe3-0xe4 (1)
0x00e0|            00 00 00                           |    ...         |              flags: 0 0xe4-0xe7 (3)
0x00e0|                     00 04                     |       ..       |              item_id: 4 0xe7-0xe9 (2)
0x00e0|                           00 00               |         ..     |              item_protection_index: 0 0xe9-0xeb (2)
0x00e0|                                 61 76 30 31   |           av01 |              item_type: "av01" 0xeb-0xef (4)
0x00e0|                                             43|               C|              item_name: "Color" 0xef-0xf5 (6)
0x00f0|6f 6c 6f 72 00                                 |olor.           |
      |                                               |                |            [4]{}: box 0xf5-0x122 (45)
0x00f0|               00 00 00 2d                     |     ...-       |              size: 45 0xf5-0xf9 (4)
0x00f0|                           69 6e 66 65         |         infe   |              type: "infe" (Item information entry) 0xf9-0xfd (4)
0x00f0|                                       02      |             .  |              version: 2 0xfd-0xfe (1)
0x00f0|                                          00 00|              ..|              flags: 0 0xfe-0x101 (3)
0x0100|00                                             |.               |
0x0100|   00 05                                       | ..             |              item_id: 5 0x101-0x103 (2)
0x0100|         00 00                                 |   ..           |              item_protection_index: 0 0x103-0x105 (2)
0x0100|               6d 69 6d 65                     |     mime       |              item_type: "mime" 0x105-0x109 (4)
0x0100|                           58 4d 50 00         |         XMP.   |              item_name: "XMP" 0x109-0x10d (4)
0x0100|                                       61 70 70|             app|              content_type: "application/rdf+xml" 0x10d-0x121 (20)
0x0110|6c 69 63 61 74 69 6f 6e 2f 72 64 66 2b 78 6d 6c|lication/rdf+xml|
0x0120|00                                             |.               |
0x0120|   00                                          | .              |              content_encoding: "" 0x121-0x122 (1)
      |                                               |                |        [3]{}: box 0x122-0x178 (86)
0x0120|      00 00 00 56                              |  ...V          |          size: 86 0x122-0x126 (4)
0x0120|                  69 6c 6f 63                  |      iloc      |          type: "iloc" (Item location) 0x126-0x12a (4)
0x0120|                              00               |          .     |          version: 0 0x12a-0x12b (1)
0x0120|                                 00 00 00      |           ...  |          flags: 0 0x12b-0x12e (3)
0x0120|                                          44   |              D |          offset_size: 4 0x12e-0x12e.4 (0.4)
0x0120|                                          44   |              D |          length_size: 4 0x12e.4-0x12f (0.4)
0x0120|                                             00|               .|          base_offset_size: 0 0x12f-0x12f.4 (0.4)
0x0120|                                             00|               .|          reserved: 0 0x12f.4-0x130 (0.4)
0x0130|00 05                                          |..              |          item_count: 5 0x130-0x132 (2)
      |                                               |                |          items[0:5]: 0x132-0x178 (70)
      |                                               |                |            [0]{}: item 0x132-0x140 (14)
0x0130|      00 01                                    |  ..            |              id: 1 0x132-0x134 (2)
0x0130|            00 00                              |    ..          |              data_reference_index: 0 0x134-0x136 (2)
      |                                               |                |              base_offset: 0 0x136-0x136 (0)
0x0130|                  00 01                        |      ..        |              extent_count: 1 0x136-0x138 (2)
      |                                               |                |              extends[0:1]: 0x138-0x140 (8)
      |                                               |                |                [0]{}: extent 0x138-0x140 (8)
0x0130|                        00 00 02 af            |        ....    |                  offset: 687 0x138-0x13c (4)
0x0130|                                    00 00 16 89|            ....|                  length: 5769 0x13c-0x140 (4)
      |                                               |                |            [1]{}: item 0x140-0x14e (14)
0x0140|00 02                                          |..              |              id: 2 0x140-0x142 (2)
0x0140|      00 00                                    |  ..            |              data_reference_index: 0 0x142-0x144 (2)
      |                                               |                |              base_offset: 0 0x144-0x144 (0)
0x0140|            00 01                              |    ..          |              extent_count: 1 0x144-0x146 (2)
      |                                               |                |              extends[0:1]: 0x146-0x14e (8)
      |                                               |                |                [0]{}: extent 0x146-0x14e (8)
0x0140|                  00 00 19 38                  |      ...8      |                  offset: 6456 0x146-0x14a (4)
0x0140|                              00 00 00 d2      |          ....  |                  length: 210 0x14a-0x14e (4)
      |                                               |                |            [2]{}: item 0x14e-0x15c (14)
0x0140|                                          00 03|              ..|              id: 3 0x14e-0x150 (2)
0x0150|00 00                                          |..              |              data_reference_index: 0 0x150-0x152 (2)
      |                                               |                |              base_offset: 0 0x152-0x152 (0)
0x0150|      00 01                                    |  ..            |              extent_count: 1 0x152-0x154 (2)
      |                                               |                |              extends[0:1]: 0x154-0x15c (8)
      |                                               |                |                [0]{}: extent 0x154-0x15c (8)
0x0150|            00 00 1a 0a                        |    ....        |                  offset: 6666 0x154-0x158 (4)
0x0150|                        00 00 2b 48            |        ..+H    |                  length: 11080 0x158-0x15c (4)
      |                                               |                |            [3]{}: item 0x15c-0x16a (14)
0x0150|                                    00 04      |            ..  |              id: 4 0x15c-0x15e (2)
0x0150|                                          00 00|              ..|              data_reference_index: 0 0x15e-0x160 (2)
      |                                               |                |              base_offset: 0 0x160-0x160 (0)
0x0160|00 01                                          |..              |              extent_count: 1 0x160-0x162 (2)
      |                                               |                |              extends[0:1]: 0x162-0x16a (8)
      |                                               |                |                [0]{}: extent 0x162-0x16a (8)
0x0160|      00 00 45 52                              |  ..ER          |                  offset: 17746 0x162-0x166 (4)
0x0160|                  00 00 0e 39                  |      ...9      |                  length: 3641 0x166-0x16a (4)
      |                                               |                |            [4]{}: item 0x16a-0x178 (14)
0x0160|                              00 05            |          ..    |              id: 5 0x16a-0x16c (2)
0x0160|                                    00 00      |            ..  |              data_reference_index: 0 0x16c-0x16e (2)
      |                                               |                |              base_offset: 0 0x16e-0x16e (0)
0x0160|                                          00 01|              ..|              extent_count: 1 0x16e-0x170 (2)
      |                                               |                |              extends[0:1]: 0x170-0x178 (8)
      |                                               |                |                [0]{}: extent 0x170-0x178 (8)
0x0170|00 00 53 8b                                    |..S.            |                  offset: 21387 0x170-0x174 (4)
0x0170|            00 00 14 19                        |    ....        |                  length: 5145 0x174-0x178 (4)
      |                                               |                |        [4]{}: box 0x178-0x263 (235)
0x0170|                        00 00 00 eb            |        ....    |          size: 235 0x178-0x17c (4)
0x0170|                                    69 70 72 70|            iprp|          type: "iprp" (Item Properties Box) 0x17c-0x180 (4)
      |                                               |                |          boxes[0:2]: 0x180-0x263 (227)
      |                                               |                |            [0]{}: box 0x180-0x243 (195)
0x0180|00 00 00 c3                                    |....            |              size: 195 0x180-0x184 (4)
0x0180|            69 70 63 6f                        |    ipco        |              type: "ipco" (ItemPropertyContainerBox) 0x184-0x188 (4)
      |                                               |                |              boxes[0:10]: 0x188-0x243 (187)
      |                                               |                |                [0]{}: box 0x188-0x19c (20)
0x0180|                        00 00 00 14            |        ....    |                  size: 20 0x188-0x18c (4)
0x0180|                                    69 73 70 65|            ispe|                  type: "ispe" (Image spatial extents) 0x18c-0x190 (4)
0x0190|00                                             |.               |                  version: 0 0x190-0x191 (1)
0x0190|   00 00 00                                    | ...            |                  flags: 0 0x191-0x194 (3)
0x0190|            00 00 00 c8                        |    ....        |                  image_width: 200 0x194-0x198 (4)
0x0190|                        00 00 00 c8            |        ....    |                  image_height: 200 0x198-0x19c (4)
      |                                               |                |                [1]{}: box 0x19c-0x1ac (16)
0x0190|                                    00 00 00 10|            ....|                  size: 16 0x19c-0x1a0 (4)
0x01a0|70 69 78 69                                    |pixi            |                  type: "pixi" (Pixel information) 0x1a0-0x1a4 (4)
0x01a0|            00 00 00 00 03 0a 0a 0a            |    ........    |                  data: raw bits 0x1a4-0x1ac (8)
      |                                               |                |                [2]{}: box 0x1ac-0x1b8 (12)
0x01a0|                                    00 00 00 0c|            ....|                  size: 12 0x1ac-0x1b0 (4)
0x01b0|61 76 31 43                                    |av1C            |                  type: "av1C" 0x1b0-0x1b4 (4)
      |00 01 02 03 04 05 06 07 08 09 0a 0b 0c 0d 0e 0f|0123456789abcdef|                  descriptor{}: (av1_ccr) 0x1b4-0x1b8 (4)
0x01b0|            81                                 |    .           |                    marker: 1 0x1b4-0x1b4.1 (0.1)
0x01b0|            81                                 |    .           |                    version: 1 0x1b4.1-0x1b5 (0.7)
0x01b0|               20                              |                |                    seq_profile: 1 0x1b5-0x1b5.3 (0.3)
0x01b0|               20                              |                |                    seq_level_idx_0: 0 0x1b5.3-0x1b6 (0.5)
0x01b0|                  40                           |      @         |                    seq_tier_0: 0 0x1b6-0x1b6.1 (0.1)
0x01b0|                  40                           |      @         |                    high_bitdepth: 1 0x1b6.1-0x1b6.2 (0.1)
0x01b0|                  40                           |      @         |                    twelve_bit: 0 0x1b6.2-0x1b6.3 (0.1)
0x01b0|                  40                           |      @         |                    monochrome: 0 0x1b6.3-0x1b6.4 (0.1)
0x01b0|                  40                           |      @         |                    chroma_subsampling_x: 0 0x1b6.4-0x1b6.5 (0.1)
0x01b0|                  40                           |      @         |                    chroma_subsampling_y: 0 0x1b6.5-0x1b6.6 (0.1)
0x01b0|                  40                           |      @         |                    chroma_sample_position: 0 0x1b6.6-0x1b7 (0.2)
0x01b0|                     00                        |       .        |                    reserved = 0: 0 0x1b7-0x1b7.3 (0.3)
0x01b0|                     00                        |       .        |                    initial_presentation_delay_present: false 0x1b7.3-0x1b7.4 (0.1)
0x01b0|                     00                        |       .        |                    reserved: 0 0x1b7.4-0x1b8 (0.4)
      |                                               |                |                    config_obus[0:0]: 0x1b8-0x1b8 (0)
      |                                               |                |                [3]{}: box 0x1b8-0x1cb (19)
0x01b0|                        00 00 00 13            |        ....    |                  size: 19 0x1b8-0x1bc (4)
0x01b0|                                    63 6f 6c 72|            colr|                  type: "colr" (Specifies the colourspace of the image) 0x1bc-0x1c0 (4)
0x01c0|6e 63 6c 78                                    |nclx            |                  parameter_type: "nclx" 0x1c0-0x1c4 (4)
0x01c0|            00 0c                              |    ..          |                  primaries_index: "smpte432" (12) (SMPTE ST 432-1 (2010) / P3 D65 / Display P3) 0x1c4-0x1c6 (2)
0x01c0|                  00 10                        |      ..        |                  transfer_function_index: "smpte2084" (16) (SMPTE ST 2084 for 10-, 12-, 14- and 16-bit systems) 0x1c6-0x1c8 (2)
0x01c0|                        00 06                  |        ..      |                  matrix_index: "smpte170m" (6) (ITU-R BT601-6 525 / ITU-R BT1358 525 / ITU-R BT1700 NTSC) 0x1c8-0x1ca (2)
0x01c0|                              80               |          .     |                  color_range: 128 0x1ca-0x1cb (1)
      |                                               |                |                [4]{}: box 0x1cb-0x1df (20)
0x01c0|                                 00 00 00 14   |           .... |                  size: 20 0x1cb-0x1cf (4)
0x01c0|                                             69|               i|                  type: "ispe" (Image spatial extents) 0x1cf-0x1d3 (4)
0x01d0|73 70 65                                       |spe             |
0x01d0|         00                                    |   .            |                  version: 0 0x1d3-0x1d4 (1)
0x01d0|            00 00 00                           |    ...         |                  flags: 0 0x1d4-0x1d7 (3)
0x01d0|                     00 00 00 c8               |       ....     |                  image_width: 200 0x1d7-0x1db (4)
0x01d0|                                 00 00 00 c8   |           .... |                  image_height: 200 0x1db-0x1df (4)
      |                                               |                |                [5]{}: box 0x1df-0x1ef (16)
0x01d0|                                             00|               .|                  size: 16 0x1df-0x1e3 (4)
0x01e0|00 00 10                                       |...             |
0x01e0|         70 69 78 69                           |   pixi         |                  type: "pixi" (Pixel information) 0x1e3-0x1e7 (4)
0x01e0|                     00 00 00 00 03 0a 0a 0a   |       ........ |                  data: raw bits 0x1e7-0x1ef (8)
      |                                               |                |                [6]{}: box 0x1ef-0x1fb (12)
0x01e0|                                             00|               .|                  size: 12 0x1ef-0x1f3 (4)
0x01f0|00 00 0c                                       |...             |
0x01f0|         61 76 31 43                           |   av1C         |                  type: "av1C" 0x1f3-0x1f7 (4)
      |00 01 02 03 04 05 06 07 08 09 0a 0b 0c 0d 0e 0f|0123456789abcdef|                  descriptor{}: (av1_ccr) 0x1f7-0x1fb (4)
0x01f0|                     81                        |       .        |                    marker: 1 0x1f7-0x1f7.1 (0.1)
0x01f0|                     81                        |       .        |                    version: 1 0x1f7.1-0x1f8 (0.7)
0x01f0|                        20                     |                |                    seq_profile: 1 0x1f8-0x1f8.3 (0.3)
0x01f0|                        20                     |                |                    seq_level_idx_0: 0 0x1f8.3-0x1f9 (0.5)
0x01f0|                           40                  |         @      |                    seq_tier_0: 0 0x1f9-0x1f9.1 (0.1)
0x01f0|                           40                  |         @      |                    high_bitdepth: 1 0x1f9.1-0x1f9.2 (0.1)
0x01f0|                           40                  |         @      |                    twelve_bit: 0 0x1f9.2-0x1f9.3 (0.1)
0x01f0|                           40                  |         @      |                    monochrome: 0 0x1f9.3-0x1f9.4 (0.1)
0x01f0|                           40                  |         @      |                    chroma_subsampling_x: 0 0x1f9.4-0x1f9.5 (0.1)
0x01f0|                           40                  |         @      |                    chroma_subsampling_y: 0 0x1f9.5-0x1f9.6 (0.1)
0x01f0|                           40                  |         @      |                    chroma_sample_position: 0 0x1f9.6-0x1fa (0.2)
0x01f0|                              00               |          .     |                    reserved = 0: 0 0x1fa-0x1fa.3 (0.3)
0x01f0|                              00               |          .     |                    initial_presentation_delay_present: false 0x1fa.3-0x1fa.4 (0.1)
0x01f0|                              00               |          .     |                    reserved: 0 0x1fa.4-0x1fb (0.4)
      |                                               |                |                    config_obus[0:0]: 0x1fb-0x1fb (0)
      |                                               |                |                [7]{}: box 0x1fb-0x20e (19)
0x01f0|                                 00 00 00 13   |           .... |                  size: 19 0x1fb-0x1ff (4)
0x01f0|                                             63|               c|                  type: "colr" (Specifies the colourspace of the image) 0x1ff-0x203 (4)
0x0200|6f 6c 72                                       |olr             |
0x0200|         6e 63 6c 78                           |   nclx         |                  parameter_type: "nclx" 0x203-0x207 (4)
0x0200|                     00 01                     |       ..       |                  primaries_index: "bt709" (1) (ITU-R BT1361 / IEC 61966-2-4 / SMPTE RP 177 Annex B) 0x207-0x209 (2)
0x0200|                           00 0d               |         ..     |                  transfer_function_index: "iec61966_2_1" (13) (IEC 61966-2-1 (sRGB or sYCC)) 0x209-0x20b (2)
0x0200|                                 00 06         |           ..   |                  matrix_index: "smpte170m" (6) (ITU-R BT601-6 525 / ITU-R BT1358 525 / ITU-R BT1700 NTSC) 0x20b-0x20d (2)
0x0200|                                       80      |             .  |                  color_range: 128 0x20d-0x20e (1)
      |                                               |                |                [8]{}: box 0x20e-0x237 (41)
0x0200|                                          00 00|              ..|                  size: 41 0x20e-0x212 (4)
0x0210|00 29                                          |.)              |
0x0210|      61 75 78 43                              |  auxC          |                  type: "auxC" (Image properties for auxiliary images clap clean aperture) 0x212-0x216 (4)
0x0210|                  00 00 00 00 75 72 6e 3a 63 6f|      ....urn:co|                  data: raw bits 0x216-0x237 (33)
0x0220|6d 3a 70 68 6f 74 6f 3a 61 75 78 3a 68 64 72 67|m:photo:aux:hdrg|
0x0230|61 69 6e 6d 61 70 00                           |ainmap.         |
      |                                               |                |                [9]{}: box 0x237-0x243 (12)
0x0230|                     00 00 00 0c               |       ....     |                  size: 12 0x237-0x23b (4)
0x0230|                                 63 6c 6c 69   |           clli |                  type: "clli" 0x23b-0x23f (4)
0x0230|                                             01|               .|                  data: raw bits 0x23f-0x243 (4)
0x0240|d6 01 07                                       |...             |
      |                                               |                |            [1]{}: box 0x243-0x263 (32)
0x0240|         00 00 00 20                           |   ...          |              size: 32 0x243-0x247 (4)
0x0240|                     69 70 6d 61               |       ipma     |              type: "ipma" (ItemPropertyAssociation) 0x247-0x24b (4)
0x0240|                                 00            |           .    |              version: 0 0x24b-0x24c (1)
0x0240|                                    00 00 00   |            ... |              flags: 0 0x24c-0x24f (3)
0x0240|                                             00|               .|              entry_count: 2 0x24f-0x253 (4)
0x0250|00 00 02                                       |...             |
      |                                               |                |              entries[0:2]: 0x253-0x263 (16)
      |                                               |                |                [0]{}: entry 0x253-0x25b (8)
0x0250|         00 01                                 |   ..           |                  item_id: 1 0x253-0x255 (2)
0x0250|               05                              |     .          |                  association_count: 5 0x255-0x256 (1)
      |                                               |                |                  associations[0:5]: 0x256-0x25b (5)
      |                                               |                |                    [0]{}: association 0x256-0x257 (1)
0x0250|                  01                           |      .         |                      essential: false 0x256-0x256.1 (0.1)
0x0250|                  01                           |      .         |                      property_index: 1 0x256.1-0x257 (0.7)
      |                                               |                |                    [1]{}: association 0x257-0x258 (1)
0x0250|                     02                        |       .        |                      essential: false 0x257-0x257.1 (0.1)
0x0250|                     02                        |       .        |                      property_index: 2 0x257.1-0x258 (0.7)
      |                                               |                |                    [2]{}: association 0x258-0x259 (1)
0x0250|                        04                     |        .       |                      essential: false 0x258-0x258.1 (0.1)
0x0250|                        04                     |        .       |                      property_index: 4 0x258.1-0x259 (0.7)
      |                                               |                |                    [3]{}: association 0x259-0x25a (1)
0x0250|                           83                  |         .      |                      essential: true 0x259-0x259.1 (0.1)
0x0250|                           83                  |         .      |                      property_index: 3 0x259.1-0x25a (0.7)
      |                                               |                |                    [4]{}: association 0x25a-0x25b (1)
0x0250|                              0a               |          .     |                      essential: false 0x25a-0x25a.1 (0.1)
0x0250|                              0a               |          .     |                      property_index: 10 0x25a.1-0x25b (0.7)
      |                                               |                |                [1]{}: entry 0x25b-0x263 (8)
0x0250|                                 00 04         |           ..   |                  item_id: 4 0x25b-0x25d (2)
0x0250|                                       05      |             .  |                  association_count: 5 0x25d-0x25e (1)
      |                                               |                |                  associations[0:5]: 0x25e-0x263 (5)
      |                                               |                |                    [0]{}: association 0x25e-0x25f (1)
0x0250|                                          05   |              . |                      essential: false 0x25e-0x25e.1 (0.1)
0x0250|                                          05   |              . |                      property_index: 5 0x25e.1-0x25f (0.7)
      |                                               |                |                    [1]{}: association 0x25f-0x260 (1)
0x0250|                                             06|               .|                      essential: false 0x25f-0x25f.1 (0.1)
0x0250|                                             06|               .|                      property_index: 6 0x25f.1-0x260 (0.7)
      |                                               |                |                    [2]{}: association 0x260-0x261 (1)
0x0260|08                                             |.               |                      essential: false 0x260-0x260.1 (0.1)
0x0260|08                                             |.               |                      property_index: 8 0x260.1-0x261 (0.7)
      |                                               |                |                    [3]{}: association 0x261-0x262 (1)
0x0260|   87                                          | .              |                      essential: true 0x261-0x261.1 (0.1)
0x0260|   87                                          | .              |                      property_index: 7 0x261.1-0x262 (0.7)
      |                                               |                |                    [4]{}: association 0x262-0x263 (1)
0x0260|      09                                       |  .             |                      essential: false 0x262-0x262.1 (0.1)
0x0260|      09                                       |  .             |                      property_index: 9 0x262.1-0x263 (0.7)
      |                                               |                |        [5]{}: box 0x263-0x2a7 (68)
0x0260|         00 00 00 44                           |   ...D         |          size: 68 0x263-0x267 (4)
0x0260|                     69 72 65 66               |       iref     |          type: "iref" (Item reference) 0x267-0x26b (4)
0x0260|                                 00            |           .    |          version: 0 0x26b-0x26c (1)
0x0260|                                    00 00 00   |            ... |          flags: 0 0x26c-0x26f (3)
      |                                               |                |          boxes[0:4]: 0x26f-0x2a7 (56)
      |                                               |                |            [0]{}: box 0x26f-0x27d (14)
0x0260|                                             00|               .|              size: 14 0x26f-0x273 (4)
0x0270|00 00 0e                                       |...             |
0x0270|         63 64 73 63                           |   cdsc         |              type: "cdsc" (Content description) 0x273-0x277 (4)
0x0270|                     00 02                     |       ..       |              from_id: 2 0x277-0x279 (2)
0x0270|                           00 01               |         ..     |              count: 1 0x279-0x27b (2)
      |                                               |                |              ids[0:1]: 0x27b-0x27d (2)
0x0270|                                 00 01         |           ..   |                [0]: 1 id 0x27b-0x27d (2)
      |                                               |                |            [1]{}: box 0x27d-0x28b (14)
0x0270|                                       00 00 00|             ...|              size: 14 0x27d-0x281 (4)
0x0280|0e                                             |.               |
0x0280|   63 64 73 63                                 | cdsc           |              type: "cdsc" (Content description) 0x281-0x285 (4)
0x0280|               00 03                           |     ..         |              from_id: 3 0x285-0x287 (2)
0x0280|                     00 01                     |       ..       |              count: 1 0x287-0x289 (2)
      |                                               |                |              ids[0:1]: 0x289-0x28b (2)
0x0280|                           00 01               |         ..     |                [0]: 1 id 0x289-0x28b (2)
      |                                               |                |            [2]{}: box 0x28b-0x299 (14)
0x0280|                                 00 00 00 0e   |           .... |              size: 14 0x28b-0x28f (4)
0x0280|                                             63|               c|              type: "cdsc" (Content description) 0x28f-0x293 (4)
0x0290|64 73 63                                       |dsc             |
0x0290|         00 05                                 |   ..           |              from_id: 5 0x293-0x295 (2)
0x0290|               00 01                           |     ..         |              count: 1 0x295-0x297 (2)
      |                                               |                |              ids[0:1]: 0x297-0x299 (2)
0x0290|                     00 04                     |       ..       |                [0]: 4 id 0x297-0x299 (2)
      |                                               |                |            [3]{}: box 0x299-0x2a7 (14)
0x0290|                           00 00 00 0e         |         ....   |              size: 14 0x299-0x29d (4)
0x0290|                                       61 75 78|             aux|              type: "auxl" 0x29d-0x2a1 (4)
0x02a0|6c                                             |l               |
0x02a0|   00 04 00 01 00 01                           | ......         |              data: raw bits 0x2a1-0x2a7 (6)
      |                                               |                |    [2]{}: box 0x2a7-0x67a4 (25853)
0x02a0|                     00 00 00 00               |       ....     |      size: 0 (Rest of file) 0x2a7-0x2ab (4)
0x02a0|                                 6d 64 61 74   |           mdat |      type: "mdat" (Media data container) 0x2ab-0x2af (4)
0x02a0|                                             12|               .|      data: raw bits 0x2af-0x67a4 (25845)
0x02b0|00 0a 09 38 1d f1 f1 d8 c3 04 01 a4 32 f9 2c 44|...8........2.,D|
*     |until 0x67a3.7 (end) (25845)                   |                |
      |                                               |                |  items[0:5]: 0x2af-0x67a4 (25845)
      |                                               |                |    [0]{}: item 0x2af-0x67a4 (25845)
      |00 01 02 03 04 05 06 07 08 09 0a 0b 0c 0d 0e 0f|0123456789abcdef|      data[0:3]: (av1_frame) 0x2af-0x1938 (5769)
      |00 01 02 03 04 05 06 07 08 09 0a 0b 0c 0d 0e 0f|0123456789abcdef|        [0]{}: obu (av1_obu) 0x2af-0x2b1 (2)
      |                                               |                |          header{}: 0x2af-0x2b0 (1)
0x02a0|                                             12|               .|            forbidden_bit: 0 0x2af-0x2af.1 (0.1)
0x02a0|                                             12|               .|            type: "temporal_delimiter" (2) 0x2af.1-0x2af.5 (0.4)
0x02a0|                                             12|               .|            extension_flag: false 0x2af.5-0x2af.6 (0.1)
0x02a0|                                             12|               .|            has_size_field: true 0x2af.6-0x2af.7 (0.1)
0x02a0|                                             12|               .|            reserved_1bit: 0 0x2af.7-0x2b0 (0.1)
0x02b0|00                                             |.               |          size: 0 0x2b0-0x2b1 (1)
      |                                               |                |          data: raw bits 0x2b1-0x2b1 (0)
      |00 01 02 03 04 05 06 07 08 09 0a 0b 0c 0d 0e 0f|0123456789abcdef|        [1]{}: obu (av1_obu) 0x2b1-0x2bc (11)
      |                                               |                |          header{}: 0x2b1-0x2b2 (1)
0x02b0|   0a                                          | .              |            forbidden_bit: 0 0x2b1-0x2b1.1 (0.1)
0x02b0|   0a                                          | .              |            type: "sequence_header" (1) 0x2b1.1-0x2b1.5 (0.4)
0x02b0|   0a                                          | .              |            extension_flag: false 0x2b1.5-0x2b1.6 (0.1)
0x02b0|   0a                                          | .              |            has_size_field: true 0x2b1.6-0x2b1.7 (0.1)
0x02b0|   0a                                          | .              |            reserved_1bit: 0 0x2b1.7-0x2b2 (0.1)
0x02b0|      09                                       |  .             |          size: 9 0x2b2-0x2b3 (1)
0x02b0|         38                                    |   8            |          seq_profile: "high" (1) 0x2b3-0x2b3.3 (0.3)
0x02b0|         38                                    |   8            |          still_picture: 1 0x2b3.3-0x2b3.4 (0.1)
0x02b0|         38                                    |   8            |          reduced_still_picture_header: 1 0x2b3.4-0x2b3.5 (0.1)
0x02b0|         38 1d                                 |   8.           |          seq_level_idx0: 0 0x2b3.5-0x2b4.2 (0.5)
0x02b0|            1d                                 |    .           |          frame_width_bits_minus_1: 7 0x2b4.2-0x2b4.6 (0.4)
0x02b0|            1d f1                              |    ..          |          frame_height_bits_minus_1: 7 0x2b4.6-0x2b5.2 (0.4)
0x02b0|               f1 f1                           |     ..         |          max_frame_width_minus_1: 199 0x2b5.2-0x2b6.2 (1)
0x02b0|                  f1 d8                        |      ..        |          max_frame_height_minus_1: 199 0x2b6.2-0x2b7.2 (1)
      |                                               |                |          frame_width: 200
      |                                               |                |          frame_height: 200
0x02b0|                     d8                        |       .        |          use_128x128_superblock: 0 0x2b7.2-0x2b7.3 (0.1)
0x02b0|                     d8                        |       .        |          enable_filter_intra: 1 0x2b7.3-0x2b7.4 (0.1)
0x02b0|                     d8                        |       .        |          enable_intra_edge_filter: 1 0x2b7.4-0x2b7.5 (0.1)
0x02b0|                     d8                        |       .        |          enable_superres: 0 0x2b7.5-0x2b7.6 (0.1)
0x02b0|                     d8                        |       .        |          enable_cdef: 0 0x2b7.6-0x2b7.7 (0.1)
0x02b0|                     d8                        |       .        |          enable_restoration: 0 0x2b7.7-0x2b8 (0.1)
      |                                               |                |          color_config{}: 0x2b8-0x2bb.4 (3.4)
0x02b0|                        c3                     |        .       |            high_bitdepth: 1 0x2b8-0x2b8.1 (0.1)
      |                                               |                |            bit_depth: 10
      |                                               |                |            mono_chrome: 0
0x02b0|                        c3                     |        .       |            color_description_present_flag: 1 0x2b8.1-0x2b8.2 (0.1)
0x02b0|                        c3 04                  |        ..      |            color_primaries: "smpte_432" (12) 0x2b8.2-0x2b9.2 (1)
0x02b0|                           04 01               |         ..     |            transfer_characteristics: "smpte_2084" (16) 0x2b9.2-0x2ba.2 (1)
0x02b0|                              01 a4            |          ..    |            matrix_coefficients: "bt_601" (6) 0x2ba.2-0x2bb.2 (1)
0x02b0|                                 a4            |           .    |            color_range: 1 0x2bb.2-0x2bb.3 (0.1)
      |                                               |                |            subsampling_x: 0
      |                                               |                |            subsampling_y: 0
0x02b0|                                 a4            |           .    |            separate_uv_delta_q: 0 0x2bb.3-0x2bb.4 (0.1)
0x02b0|                                 a4            |           .    |          film_grain_params_present: 0 0x2bb.4-0x2bb.5 (0.1)
0x02b0|                                 a4            |           .    |          data: raw bits 0x2bb.5-0x2bc (0.3)
      |00 01 02 03 04 05 06 07 08 09 0a 0b 0c 0d 0e 0f|0123456789abcdef|        [2]{}: obu (av1_obu) 0x2bc-0x1938 (5756)
      |                                               |                |          header{}: 0x2bc-0x2bd (1)
0x02b0|                                    32         |            2   |            forbidden_bit: 0 0x2bc-0x2bc.1 (0.1)
0x02b0|                                    32         |            2   |            type: "frame" (6) 0x2bc.1-0x2bc.5 (0.4)
0x02b0|                                    32         |            2   |            extension_flag: false 0x2bc.5-0x2bc.6 (0.1)
0x02b0|                                    32         |            2   |            has_size_field: true 0x2bc.6-0x2bc.7 (0.1)
0x02b0|                                    32         |            2   |            reserved_1bit: 0 0x2bc.7-0x2bd (0.1)
0x02b0|                                       f9 2c   |             ., |          size: 5753 0x2bd-0x2bf (2)
0x02b0|                                             44|               D|          data: raw bits 0x2bf-0x1938 (5753)
0x02c0|08 06 00 00 a0 dd 17 5c 4e a7 f8 77 a5 f5 6a 41|.......\N..w..jA|
*     |until 0x1937.7 (5753)                          |                |
      |                                               |                |      id: 1
      |                                               |                |      type: "av01"
      |                                               |                |      name: "Color"
      |                                               |                |      properties[0:5]: 0x67a4-0x67a4 (0)
      |                                               |                |        [0]{}: property 0x67a4-0x67a4 (0)
      |                                               |                |          index: 1
      |                                               |                |          essential: false
      |                                               |                |          type: "ispe"
      |                                               |                |        [1]{}: property 0x67a4-0x67a4 (0)
      |                                               |                |          index: 2
      |                                               |                |          essential: false
      |                                               |                |          type: "pixi"
      |                                               |                |        [2]{}: property 0x67a4-0x67a4 (0)
      |                                               |                |          index: 4
      |                                               |                |          essential: false
      |                                               |                |          type: "colr"
      |                                               |                |        [3]{}: property 0x67a4-0x67a4 (0)
      |                                               |                |          index: 3
      |                                               |                |          essential: true
      |                                               |                |          type: "av1C"
      |                                               |                |        [4]{}: property 0x67a4-0x67a4 (0)
      |                                               |                |          index: 10
      |                                               |                |          essential: false
      |                                               |                |          type: "clli"
      |                                               |                |    [1]{}: item 0x1938-0x67a4 (20076)
0x1930|                        00 00 00 00 49 49 2a 00|        ....II*.|      data: raw bits 0x1938-0x1a0a (210)
0x1940|08 00 00 00 03 00 31 01 02 00 2e 00 00 00 32 00|......1.......2.|
*     |until 0x1a09.7 (210)                           |                |
      |                                               |                |      id: 2
      |                                               |                |      type: "Exif"
      |                                               |                |      name: "Exif"
      |                                               |                |      properties[0:0]: 0x67a4-0x67a4 (0)
      |                                               |                |    [2]{}: item 0x1a0a-0x67a4 (19866)
0x1a00|                              3c 3f 78 70 61 63|          <?xpac|      data: raw bits 0x1a0a-0x4552 (11080)
0x1a10|6b 65 74 20 62 65 67 69 6e 3d 22 ef bb bf 22 20|ket begin="..." |
*     |until 0x4551.7 (11080)                         |                |
      |                                               |                |      id: 3
      |                                               |                |      type: "mime"
      |                                               |                |      content_type: "application/rdf+xml"
      |                                               |                |      name: "XMP"
      |                                               |                |      properties[0:0]: 0x67a4-0x67a4 (0)
      |                                               |                |    [3]{}: item 0x4552-0x67a4 (8786)
      |00 01 02 03 04 05 06 07 08 09 0a 0b 0c 0d 0e 0f|0123456789abcdef|      data[0:3]: (av1_frame) 0x4552-0x538b (3641)
      |00 01 02 03 04 05 06 07 08 09 0a 0b 0c 0d 0e 0f|0123456789abcdef|        [0]{}: obu (av1_obu) 0x4552-0x4554 (2)
      |                                               |                |          header{}: 0x4552-0x4553 (1)
0x4550|      12                                       |  .             |            forbidden_bit: 0 0x4552-0x4552.1 (0.1)
0x4550|      12                                       |  .             |            type: "temporal_delimiter" (2) 0x4552.1-0x4552.5 (0.4)
0x4550|      12                                       |  .             |            extension_flag: false 0x4552.5-0x4552.6 (0.1)
0x4550|      12                                       |  .             |            has_size_field: true 0x4552.6-0x4552.7 (0.1)
0x4550|      12                                       |  .             |            reserved_1bit: 0 0x4552.7-0x4553 (0.1)
0x4550|         00                                    |   .            |          size: 0 0x4553-0x4554 (1)
      |                                               |                |          data: raw bits 0x4554-0x4554 (0)
      |00 01 02 03 04 05 06 07 08 09 0a 0b 0c 0d 0e 0f|0123456789abcdef|        [1]{}: obu (av1_obu) 0x4554-0x455f (11)
      |                                               |                |          header{}: 0x4554-0x4555 (1)
0x4550|            0a                                 |    .           |            forbidden_bit: 0 0x4554-0x4554.1 (0.1)
0x4550|            0a                                 |    .           |            type: "sequence_header" (1) 0x4554.1-0x4554.5 (0.4)
0x4550|            0a                                 |    .           |            extension_flag: false 0x4554.5-0x4554.6 (0.1)
0x4550|            0a                                 |    .           |            has_size_field: true 0x4554.6-0x4554.7 (0.1)
0x4550|            0a                                 |    .           |            reserved_1bit: 0 0x4554.7-0x4555 (0.1)
0x4550|               09                              |     .          |          size: 9 0x4555-0x4556 (1)
0x4550|                  38                           |      8         |          seq_profile: "high" (1) 0x4556-0x4556.3 (0.3)
0x4550|                  38                           |      8         |          still_picture: 1 0x4556.3-0x4556.4 (0.1)
0x4550|                  38                           |      8         |          reduced_still_picture_header: 1 0x4556.4-0x4556.5 (0.1)
0x4550|                  38 1d                        |      8.        |          seq_level_idx0: 0 0x4556.5-0x4557.2 (0.5)
0x4550|                     1d                        |       .        |          frame_width_bits_minus_1: 7 0x4557.2-0x4557.6 (0.4)
0x4550|                     1d f1                     |       ..       |          frame_height_bits_minus_1: 7 0x4557.6-0x4558.2 (0.4)
0x4550|                        f1 f1                  |        ..      |          max_frame_width_minus_1: 199 0x4558.2-0x4559.2 (1)
0x4550|                           f1 d8               |         ..     |          max_frame_height_minus_1: 199 0x4559.2-0x455a.2 (1)
      |                                               |                |          frame_width: 200
      |                                               |                |          frame_height: 200
0x4550|                              d8               |          .     |          use_128x128_superblock: 0 0x455a.2-0x455a.3 (0.1)
0x4550|                              d8               |          .     |          enable_filter_intra: 1 0x455a.3-0x455a.4 (0.1)
0x4550|                              d8               |          .     |          enable_intra_edge_filter: 1 0x455a.4-0x455a.5 (0.1)
0x4550|                              d8               |          .     |          enable_superres: 0 0x455a.5-0x455a.6 (0.1)
0x4550|                              d8               |          .     |          enable_cdef: 0 0x455a.6-0x455a.7 (0.1)
0x4550|                              d8               |          .     |          enable_restoration: 0 0x455a.7-0x455b (0.1)
      |                                               |                |          color_config{}: 0x455b-0x455e.4 (3.4)
0x4550|                                 c0            |           .    |            high_bitdepth: 1 0x455b-0x455b.1 (0.1)
      |                                               |                |            bit_depth: 10
      |                                               |                |            mono_chrome: 0
0x4550|                                 c0            |           .    |            color_description_present_flag: 1 0x455b.1-0x455b.2 (0.1)
0x4550|                                 c0 43         |           .C   |            color_primaries: "bt_709" (1) 0x455b.2-0x455c.2 (1)
0x4550|                                    43 41      |            CA  |            transfer_characteristics: "srgb" (13) 0x455c.2-0x455d.2 (1)
0x4550|                                       41 a4   |             A. |            matrix_coefficients: "bt_601" (6) 0x455d.2-0x455e.2 (1)
0x4550|                                          a4   |              . |            color_range: 1 0x455e.2-0x455e.3 (0.1)
      |                                               |                |            subsampling_x: 0
      |                                               |                |            subsampling_y: 0
0x4550|                                          a4   |              . |            separate_uv_delta_q: 0 0x455e.3-0x455e.4 (0.1)
0x4550|                                          a4   |              . |          film_grain_params_present: 0 0x455e.4-0x455e.5 (0.1)
0x4550|                                          a4   |              . |          data: raw bits 0x455e.5-0x455f (0.3)
      |00 01 02 03 04 05 06 07 08 09 0a 0b 0c 0d 0e 0f|0123456789abcdef|        [2]{}: obu (av1_obu) 0x455f-0x538b (3628)
      |                                               |                |          header{}: 0x455f-0x4560 (1)
0x4550|                                             32|               2|            forbidden_bit: 0 0x455f-0x455f.1 (0.1)
0x4550|                                             32|               2|            type: "frame" (6) 0x455f.1-0x455f.5 (0.4)
0x4550|                                             32|               2|            extension_flag: false 0x455f.5-0x455f.6 (0.1)
0x4550|                                             32|               2|            has_size_field: true 0x455f.6-0x455f.7 (0.1)
0x4550|                                             32|               2|            reserved_1bit: 0 0x455f.7-0x4560 (0.1)
0x4560|a9 1c                                          |..              |          size: 3625 0x4560-0x4562 (2)
0x4560|      10 90 18 18 61 86 28 db 29 ff cb 65 25 4f|  ....a.(.)..e%O|          data: raw bits 0x4562-0x538b (3625)
0x4570|ff 59 63 bf 04 02 21 ca bd 6a 68 c8 b7 8e 5c 9b|.Yc...!..jh...\.|
*     |until 0x538a.7 (3625)                          |                |
      |                                               |                |      id: 4
      |                                               |                |      type: "av01"
      |                                               |                |      name: "Color"
      |                                               |                |      properties[0:5]: 0x67a4-0x67a4 (0)
      |                                               |                |        [0]{}: property 0x67a4-0x67a4 (0)
      |                                               |                |          index: 5
      |                                               |                |          essential: false
      |                                               |                |          type: "ispe"
      |                                               |                |        [1]{}: property 0x67a4-0x67a4 (0)
      |                                               |                |          index: 6
      |                                               |                |          essential: false
      |                                               |                |          type: "pixi"
      |                                               |                |        [2]{}: property 0x67a4-0x67a4 (0)
      |                                               |                |          index: 8
      |                                               |                |          essential: false
      |                                               |                |          type: "colr"
      |                                               |                |        [3]{}: property 0x67a4-0x67a4 (0)
      |                                               |                |          index: 7
      |                                               |                |          essential: true
      |                                               |                |          type: "av1C"
      |                                               |                |        [4]{}: property 0x67a4-0x67a4 (0)
      |                                               |                |          index: 9
      |                                               |                |          essential: false
      |                                               |                |          type: "auxC"
      |                                               |                |    [4]{}: item 0x538b-0x67a4 (5145)
0x5380|                                 3c 3f 78 70 61|           <?xpa|      data: raw bits 0x538b-0x67a4 (5145)
0x5390|63 6b 65 74 20 62 65 67 69 6e 3d 22 ef bb bf 22|cket begin="..."|
*     |until 0x67a3.7 (end) (5145)                    |                |
      |                                               |                |      id: 5
      |                                               |                |      type: "mime"
      |                                               |                |      content_type: "application/rdf+xml"
      |                                               |                |      name: "XMP"
      |                                               |                |      properties[0:0]: 0x67a4-0x67a4 (0)
